	.file	"Application.cpp"
# GNU C++17 (Debian 12.2.0-3) version 12.2.0 (x86_64-linux-gnu)
#	compiled by GNU C version 12.2.0, GMP version 6.2.1, MPFR version 4.1.0, MPC version 1.2.1, isl version isl-0.25-GMP

# GGC heuristics: --param ggc-min-expand=100 --param ggc-min-heapsize=131072
# options passed: -mtune=generic -march=x86-64 -g -std=c++17 -fasynchronous-unwind-tables
	.text
.Ltext0:
	.file 0 "/home/xunililak/Code/Projects/10-Tensor" "Application.cpp"
	.section	.text._ZSt23__is_constant_evaluatedv,"axG",@progbits,_ZSt23__is_constant_evaluatedv,comdat
	.weak	_ZSt23__is_constant_evaluatedv
	.type	_ZSt23__is_constant_evaluatedv, @function
_ZSt23__is_constant_evaluatedv:
.LFB1:
	.file 1 "/usr/include/x86_64-linux-gnu/c++/12/bits/c++config.h"
	.loc 1 517 3
	.cfi_startproc
	pushq	%rbp	#
	.cfi_def_cfa_offset 16
	.cfi_offset 6, -16
	movq	%rsp, %rbp	#,
	.cfi_def_cfa_register 6
# /usr/include/x86_64-linux-gnu/c++/12/bits/c++config.h:523:     return __builtin_is_constant_evaluated();
	.loc 1 523 44
	movl	$0, %eax	#, _1
# /usr/include/x86_64-linux-gnu/c++/12/bits/c++config.h:527:   }
	.loc 1 527 3
	popq	%rbp	#
	.cfi_def_cfa 7, 8
	ret	
	.cfi_endproc
.LFE1:
	.size	_ZSt23__is_constant_evaluatedv, .-_ZSt23__is_constant_evaluatedv
	.section	.text._ZnwmPv,"axG",@progbits,_ZnwmPv,comdat
	.weak	_ZnwmPv
	.type	_ZnwmPv, @function
_ZnwmPv:
.LFB40:
	.file 2 "/usr/include/c++/12/new"
	.loc 2 175 1
	.cfi_startproc
	pushq	%rbp	#
	.cfi_def_cfa_offset 16
	.cfi_offset 6, -16
	movq	%rsp, %rbp	#,
	.cfi_def_cfa_register 6
	movq	%rdi, -8(%rbp)	# D.3371, D.3371
	movq	%rsi, -16(%rbp)	# __p, __p
# /usr/include/c++/12/new:175: { return __p; }
	.loc 2 175 10
	movq	-16(%rbp), %rax	# __p, _2
# /usr/include/c++/12/new:175: { return __p; }
	.loc 2 175 15
	popq	%rbp	#
	.cfi_def_cfa 7, 8
	ret	
	.cfi_endproc
.LFE40:
	.size	_ZnwmPv, .-_ZnwmPv
	.section	.text._ZNSt11char_traitsIcE6lengthEPKc,"axG",@progbits,_ZNSt11char_traitsIcE6lengthEPKc,comdat
	.weak	_ZNSt11char_traitsIcE6lengthEPKc
	.type	_ZNSt11char_traitsIcE6lengthEPKc, @function
_ZNSt11char_traitsIcE6lengthEPKc:
.LFB119:
	.file 3 "/usr/include/c++/12/bits/char_traits.h"
	.loc 3 389 7
	.cfi_startproc
	pushq	%rbp	#
	.cfi_def_cfa_offset 16
	.cfi_offset 6, -16
	movq	%rsp, %rbp	#,
	.cfi_def_cfa_register 6
	subq	$16, %rsp	#,
	movq	%rdi, -8(%rbp)	# __s, __s
# /usr/include/c++/12/bits/char_traits.h:392: 	if (std::__is_constant_evaluated())
	.loc 3 392 34
	call	_ZSt23__is_constant_evaluatedv	#
# /usr/include/c++/12/bits/char_traits.h:392: 	if (std::__is_constant_evaluated())
	.loc 3 392 2
	testb	%al, %al	# retval.0_5
	je	.L6	#,
# /usr/include/c++/12/bits/char_traits.h:393: 	  return __gnu_cxx::char_traits<char_type>::length(__s);
	.loc 3 393 52
	movq	-8(%rbp), %rax	# __s, tmp85
	movq	%rax, %rdi	# tmp85,
	call	_ZN9__gnu_cxx11char_traitsIcE6lengthEPKc	#
# /usr/include/c++/12/bits/char_traits.h:393: 	  return __gnu_cxx::char_traits<char_type>::length(__s);
	.loc 3 393 56
	jmp	.L7	#
.L6:
# /usr/include/c++/12/bits/char_traits.h:395: 	return __builtin_strlen(__s);
	.loc 3 395 25
	movq	-8(%rbp), %rax	# __s, tmp87
	movq	%rax, %rdi	# tmp87,
	call	strlen@PLT	#
# /usr/include/c++/12/bits/char_traits.h:395: 	return __builtin_strlen(__s);
	.loc 3 395 29
	nop	
.L7:
# /usr/include/c++/12/bits/char_traits.h:396:       }
	.loc 3 396 7
	leave	
	.cfi_def_cfa 7, 8
	ret	
	.cfi_endproc
.LFE119:
	.size	_ZNSt11char_traitsIcE6lengthEPKc, .-_ZNSt11char_traitsIcE6lengthEPKc
	.section	.text._ZSt17__size_to_integerm,"axG",@progbits,_ZSt17__size_to_integerm,comdat
	.weak	_ZSt17__size_to_integerm
	.type	_ZSt17__size_to_integerm, @function
_ZSt17__size_to_integerm:
.LFB652:
	.file 4 "/usr/include/c++/12/bits/stl_algobase.h"
	.loc 4 1009 40
	.cfi_startproc
	pushq	%rbp	#
	.cfi_def_cfa_offset 16
	.cfi_offset 6, -16
	movq	%rsp, %rbp	#,
	.cfi_def_cfa_register 6
	movq	%rdi, -8(%rbp)	# __n, __n
# /usr/include/c++/12/bits/stl_algobase.h:1009:   __size_to_integer(unsigned long __n) { return __n; }
	.loc 4 1009 49
	movq	-8(%rbp), %rax	# __n, _2
# /usr/include/c++/12/bits/stl_algobase.h:1009:   __size_to_integer(unsigned long __n) { return __n; }
	.loc 4 1009 54
	popq	%rbp	#
	.cfi_def_cfa 7, 8
	ret	
	.cfi_endproc
.LFE652:
	.size	_ZSt17__size_to_integerm, .-_ZSt17__size_to_integerm
	.section	.text._ZNSt7__cxx119to_stringEi,"axG",@progbits,_ZNSt7__cxx119to_stringEi,comdat
	.weak	_ZNSt7__cxx119to_stringEi
	.type	_ZNSt7__cxx119to_stringEi, @function
_ZNSt7__cxx119to_stringEi:
.LFB1163:
	.file 5 "/usr/include/c++/12/bits/basic_string.h"
	.loc 5 4016 3
	.cfi_startproc
	.cfi_personality 0x9b,DW.ref.__gxx_personality_v0
	.cfi_lsda 0x1b,.LLSDA1163
	pushq	%rbp	#
	.cfi_def_cfa_offset 16
	.cfi_offset 6, -16
	movq	%rsp, %rbp	#,
	.cfi_def_cfa_register 6
	subq	$32, %rsp	#,
	movq	%rdi, -24(%rbp)	# .result_ptr, .result_ptr
	movl	%esi, -28(%rbp)	# __val, __val
# /usr/include/c++/12/bits/basic_string.h:4017:     const bool __neg = __val < 0;
	.loc 5 4017 16
	movl	-28(%rbp), %eax	# __val, tmp90
	shrl	$31, %eax	#, tmp89
	movb	%al, -1(%rbp)	# tmp89, __neg
# /usr/include/c++/12/bits/basic_string.h:4018:     const unsigned __uval = __neg ? (unsigned)~__val + 1u : __val;
	.loc 5 4018 35
	cmpb	$0, -1(%rbp)	#, __neg
	je	.L11	#,
# /usr/include/c++/12/bits/basic_string.h:4018:     const unsigned __uval = __neg ? (unsigned)~__val + 1u : __val;
	.loc 5 4018 54 discriminator 1
	movl	-28(%rbp), %eax	# __val, __val.7_1
# /usr/include/c++/12/bits/basic_string.h:4018:     const unsigned __uval = __neg ? (unsigned)~__val + 1u : __val;
	.loc 5 4018 35 discriminator 1
	negl	%eax	# iftmp.6_7
	jmp	.L12	#
.L11:
# /usr/include/c++/12/bits/basic_string.h:4018:     const unsigned __uval = __neg ? (unsigned)~__val + 1u : __val;
	.loc 5 4018 35 is_stmt 0 discriminator 2
	movl	-28(%rbp), %eax	# __val, iftmp.6_7
.L12:
# /usr/include/c++/12/bits/basic_string.h:4018:     const unsigned __uval = __neg ? (unsigned)~__val + 1u : __val;
	.loc 5 4018 20 is_stmt 1 discriminator 4
	movl	%eax, -8(%rbp)	# iftmp.6_7, __uval
# /usr/include/c++/12/bits/basic_string.h:4019:     const auto __len = __detail::__to_chars_len(__uval);
	.loc 5 4019 48 discriminator 4
	movl	-8(%rbp), %eax	# __uval, tmp91
	movl	$10, %esi	#,
	movl	%eax, %edi	# tmp91,
	call	_ZNSt8__detail14__to_chars_lenIjEEjT_i	#
	movl	%eax, -12(%rbp)	# tmp92, __len
# /usr/include/c++/12/bits/basic_string.h:4020:     string __str(__neg + __len, '-');
	.loc 5 4020 36 discriminator 4
	leaq	-13(%rbp), %rax	#, tmp93
	movq	%rax, %rdi	# tmp93,
	call	_ZNSaIcEC1Ev@PLT	#
# /usr/include/c++/12/bits/basic_string.h:4020:     string __str(__neg + __len, '-');
	.loc 5 4020 18 discriminator 4
	movzbl	-1(%rbp), %edx	# __neg, _2
# /usr/include/c++/12/bits/basic_string.h:4020:     string __str(__neg + __len, '-');
	.loc 5 4020 24 discriminator 4
	movl	-12(%rbp), %eax	# __len, tmp94
	addl	%edx, %eax	# _2, _3
# /usr/include/c++/12/bits/basic_string.h:4020:     string __str(__neg + __len, '-');
	.loc 5 4020 36 discriminator 4
	movl	%eax, %esi	# _3, _4
	leaq	-13(%rbp), %rdx	#, tmp95
	movq	-24(%rbp), %rax	# <retval>, tmp96
	movq	%rdx, %rcx	# tmp95,
	movl	$45, %edx	#,
	movq	%rax, %rdi	# tmp96,
	call	_ZNSt7__cxx1112basic_stringIcSt11char_traitsIcESaIcEEC1IS3_EEmcRKS3_	#
	leaq	-13(%rbp), %rax	#, tmp97
	movq	%rax, %rdi	# tmp97,
	call	_ZNSaIcED1Ev@PLT	#
# /usr/include/c++/12/bits/basic_string.h:4021:     __detail::__to_chars_10_impl(&__str[__neg], __len, __uval);
	.loc 5 4021 46 discriminator 4
	movzbl	-1(%rbp), %edx	# __neg, _5
	movq	-24(%rbp), %rax	# <retval>, tmp98
	movq	%rdx, %rsi	# _5,
	movq	%rax, %rdi	# tmp98,
	call	_ZNSt7__cxx1112basic_stringIcSt11char_traitsIcESaIcEEixEm@PLT	#
	movq	%rax, %rcx	#, _6
# /usr/include/c++/12/bits/basic_string.h:4021:     __detail::__to_chars_10_impl(&__str[__neg], __len, __uval);
	.loc 5 4021 33 discriminator 4
	movl	-8(%rbp), %edx	# __uval, tmp99
	movl	-12(%rbp), %eax	# __len, tmp100
	movl	%eax, %esi	# tmp100,
	movq	%rcx, %rdi	# _6,
	call	_ZNSt8__detail18__to_chars_10_implIjEEvPcjT_	#
# /usr/include/c++/12/bits/basic_string.h:4022:     return __str;
	.loc 5 4022 12 discriminator 4
	nop	
# /usr/include/c++/12/bits/basic_string.h:4023:   }
	.loc 5 4023 3 discriminator 4
	movq	-24(%rbp), %rax	# <retval>,
	leave	
	.cfi_def_cfa 7, 8
	ret	
	.cfi_endproc
.LFE1163:
	.globl	__gxx_personality_v0
	.section	.gcc_except_table._ZNSt7__cxx119to_stringEi,"aG",@progbits,_ZNSt7__cxx119to_stringEi,comdat
.LLSDA1163:
	.byte	0xff
	.byte	0xff
	.byte	0x1
	.uleb128 .LLSDACSE1163-.LLSDACSB1163
.LLSDACSB1163:
.LLSDACSE1163:
	.section	.text._ZNSt7__cxx119to_stringEi,"axG",@progbits,_ZNSt7__cxx119to_stringEi,comdat
	.size	_ZNSt7__cxx119to_stringEi, .-_ZNSt7__cxx119to_stringEi
	.local	_ZStL8__ioinit
	.comm	_ZStL8__ioinit,1,1
	.section	.rodata
	.type	_ZN6__pstl9execution2v1L3seqE, @object
	.size	_ZN6__pstl9execution2v1L3seqE, 1
_ZN6__pstl9execution2v1L3seqE:
	.zero	1
	.type	_ZN6__pstl9execution2v1L3parE, @object
	.size	_ZN6__pstl9execution2v1L3parE, 1
_ZN6__pstl9execution2v1L3parE:
	.zero	1
	.type	_ZN6__pstl9execution2v1L9par_unseqE, @object
	.size	_ZN6__pstl9execution2v1L9par_unseqE, 1
_ZN6__pstl9execution2v1L9par_unseqE:
	.zero	1
	.type	_ZN6__pstl9execution2v1L5unseqE, @object
	.size	_ZN6__pstl9execution2v1L5unseqE, 1
_ZN6__pstl9execution2v1L5unseqE:
	.zero	1
.LC0:
	.string	"Tensor.hpp"
.LC1:
	.string	": "
	.text
	.globl	_ZN9exception17exception_messageEONSt7__cxx1112basic_stringIcSt11char_traitsIcESaIcEEE
	.type	_ZN9exception17exception_messageEONSt7__cxx1112basic_stringIcSt11char_traitsIcESaIcEEE, @function
_ZN9exception17exception_messageEONSt7__cxx1112basic_stringIcSt11char_traitsIcESaIcEEE:
.LFB2549:
	.file 6 "Tensor.hpp"
	.loc 6 15 5
	.cfi_startproc
	.cfi_personality 0x9b,DW.ref.__gxx_personality_v0
	.cfi_lsda 0x1b,.LLSDA2549
	pushq	%rbp	#
	.cfi_def_cfa_offset 16
	.cfi_offset 6, -16
	movq	%rsp, %rbp	#,
	.cfi_def_cfa_register 6
	pushq	%rbx	#
	subq	$72, %rsp	#,
	.cfi_offset 3, -24
	movq	%rdi, -72(%rbp)	# .result_ptr, .result_ptr
	movq	%rsi, -80(%rbp)	# error_message, error_message
# Tensor.hpp:16:         std::string full_error_message{__FILE__};
	.loc 6 16 48
	leaq	-49(%rbp), %rax	#, tmp84
	movq	%rax, %rdi	# tmp84,
	call	_ZNSaIcEC1Ev@PLT	#
	leaq	-49(%rbp), %rdx	#, tmp85
	movq	-72(%rbp), %rax	# <retval>, tmp86
	leaq	.LC0(%rip), %rcx	#, tmp87
	movq	%rcx, %rsi	# tmp87,
	movq	%rax, %rdi	# tmp86,
.LEHB0:
	call	_ZNSt7__cxx1112basic_stringIcSt11char_traitsIcESaIcEEC1IS3_EEPKcRKS3_	#
.LEHE0:
# Tensor.hpp:16:         std::string full_error_message{__FILE__};
	.loc 6 16 48 is_stmt 0 discriminator 2
	leaq	-49(%rbp), %rax	#, tmp88
	movq	%rax, %rdi	# tmp88,
	call	_ZNSaIcED1Ev@PLT	#
# Tensor.hpp:17:         full_error_message += ':';
	.loc 6 17 31 is_stmt 1 discriminator 2
	movq	-72(%rbp), %rax	# <retval>, tmp89
	movl	$58, %esi	#,
	movq	%rax, %rdi	# tmp89,
.LEHB1:
	call	_ZNSt7__cxx1112basic_stringIcSt11char_traitsIcESaIcEEpLEc@PLT	#
.LEHE1:
# Tensor.hpp:18:         full_error_message += std::to_string(__LINE__ + 4);
	.loc 6 18 45
	leaq	-48(%rbp), %rax	#, tmp90
	movl	$22, %esi	#,
	movq	%rax, %rdi	# tmp90,
	call	_ZNSt7__cxx119to_stringEi	#
# Tensor.hpp:18:         full_error_message += std::to_string(__LINE__ + 4);
	.loc 6 18 58
	leaq	-48(%rbp), %rdx	#, tmp91
	movq	-72(%rbp), %rax	# <retval>, tmp92
	movq	%rdx, %rsi	# tmp91,
	movq	%rax, %rdi	# tmp92,
.LEHB2:
	call	_ZNSt7__cxx1112basic_stringIcSt11char_traitsIcESaIcEEpLERKS4_@PLT	#
.LEHE2:
# Tensor.hpp:18:         full_error_message += std::to_string(__LINE__ + 4);
	.loc 6 18 45 discriminator 2
	leaq	-48(%rbp), %rax	#, tmp93
	movq	%rax, %rdi	# tmp93,
	call	_ZNSt7__cxx1112basic_stringIcSt11char_traitsIcESaIcEED1Ev@PLT	#
# Tensor.hpp:19:         full_error_message += ": ";
	.loc 6 19 31 discriminator 2
	movq	-72(%rbp), %rax	# <retval>, tmp94
	leaq	.LC1(%rip), %rdx	#, tmp95
	movq	%rdx, %rsi	# tmp95,
	movq	%rax, %rdi	# tmp94,
.LEHB3:
	call	_ZNSt7__cxx1112basic_stringIcSt11char_traitsIcESaIcEEpLEPKc@PLT	#
# Tensor.hpp:20:         full_error_message += error_message;
	.loc 6 20 31
	movq	-80(%rbp), %rdx	# error_message, tmp96
	movq	-72(%rbp), %rax	# <retval>, tmp97
	movq	%rdx, %rsi	# tmp96,
	movq	%rax, %rdi	# tmp97,
	call	_ZNSt7__cxx1112basic_stringIcSt11char_traitsIcESaIcEEpLERKS4_@PLT	#
.LEHE3:
# Tensor.hpp:21:         return full_error_message;
	.loc 6 21 16
	jmp	.L22	#
.L19:
# Tensor.hpp:16:         std::string full_error_message{__FILE__};
	.loc 6 16 48
	movq	%rax, %rbx	#, tmp99
	leaq	-49(%rbp), %rax	#, tmp98
	movq	%rax, %rdi	# tmp98,
	call	_ZNSaIcED1Ev@PLT	#
	movq	%rbx, %rax	# tmp99, D.66481
	movq	%rax, %rdi	# D.66481,
.LEHB4:
	call	_Unwind_Resume@PLT	#
.L21:
# Tensor.hpp:18:         full_error_message += std::to_string(__LINE__ + 4);
	.loc 6 18 45
	movq	%rax, %rbx	#, tmp102
	leaq	-48(%rbp), %rax	#, tmp100
	movq	%rax, %rdi	# tmp100,
	call	_ZNSt7__cxx1112basic_stringIcSt11char_traitsIcESaIcEED1Ev@PLT	#
	jmp	.L18	#
.L20:
# Tensor.hpp:22:     }
	.loc 6 22 5
	movq	%rax, %rbx	#, tmp101
.L18:
	movq	-72(%rbp), %rax	# <retval>, tmp105
	movq	%rax, %rdi	# tmp105,
	call	_ZNSt7__cxx1112basic_stringIcSt11char_traitsIcESaIcEED1Ev@PLT	#
	movq	%rbx, %rax	# tmp101, D.66482
	movq	%rax, %rdi	# D.66482,
	call	_Unwind_Resume@PLT	#
.LEHE4:
.L22:
	movq	-72(%rbp), %rax	# <retval>,
	movq	-8(%rbp), %rbx	#,
	leave	
	.cfi_def_cfa 7, 8
	ret	
	.cfi_endproc
.LFE2549:
	.section	.gcc_except_table,"a",@progbits
.LLSDA2549:
	.byte	0xff
	.byte	0xff
	.byte	0x1
	.uleb128 .LLSDACSE2549-.LLSDACSB2549
.LLSDACSB2549:
	.uleb128 .LEHB0-.LFB2549
	.uleb128 .LEHE0-.LEHB0
	.uleb128 .L19-.LFB2549
	.uleb128 0
	.uleb128 .LEHB1-.LFB2549
	.uleb128 .LEHE1-.LEHB1
	.uleb128 .L20-.LFB2549
	.uleb128 0
	.uleb128 .LEHB2-.LFB2549
	.uleb128 .LEHE2-.LEHB2
	.uleb128 .L21-.LFB2549
	.uleb128 0
	.uleb128 .LEHB3-.LFB2549
	.uleb128 .LEHE3-.LEHB3
	.uleb128 .L20-.LFB2549
	.uleb128 0
	.uleb128 .LEHB4-.LFB2549
	.uleb128 .LEHE4-.LEHB4
	.uleb128 0
	.uleb128 0
.LLSDACSE2549:
	.text
	.size	_ZN9exception17exception_messageEONSt7__cxx1112basic_stringIcSt11char_traitsIcESaIcEEE, .-_ZN9exception17exception_messageEONSt7__cxx1112basic_stringIcSt11char_traitsIcESaIcEEE
	.section	.rodata
.LC2:
	.string	"Index out of range."
	.text
	.globl	_ZN9container7details11index_checkEll
	.type	_ZN9container7details11index_checkEll, @function
_ZN9container7details11index_checkEll:
.LFB2550:
	.loc 6 46 9
	.cfi_startproc
	.cfi_personality 0x9b,DW.ref.__gxx_personality_v0
	.cfi_lsda 0x1b,.LLSDA2550
	pushq	%rbp	#
	.cfi_def_cfa_offset 16
	.cfi_offset 6, -16
	movq	%rsp, %rbp	#,
	.cfi_def_cfa_register 6
	pushq	%r12	#
	pushq	%rbx	#
	subq	$16, %rsp	#,
	.cfi_offset 12, -24
	.cfi_offset 3, -32
	movq	%rdi, -24(%rbp)	# index, index
	movq	%rsi, -32(%rbp)	# oor_index, oor_index
# Tensor.hpp:47:             if (index >= oor_index || index < -oor_index)
	.loc 6 47 13
	movq	-24(%rbp), %rax	# index, tmp87
	cmpq	-32(%rbp), %rax	# oor_index, tmp87
	jge	.L24	#,
# Tensor.hpp:47:             if (index >= oor_index || index < -oor_index)
	.loc 6 47 47 discriminator 1
	movq	-32(%rbp), %rax	# oor_index, tmp88
	negq	%rax	# _1
# Tensor.hpp:47:             if (index >= oor_index || index < -oor_index)
	.loc 6 47 36 discriminator 1
	cmpq	%rax, -24(%rbp)	# _1, index
	jge	.L25	#,
.L24:
# Tensor.hpp:48:                 throw std::runtime_error("Index out of range.");
	.loc 6 48 63
	movl	$16, %edi	#,
	call	__cxa_allocate_exception@PLT	#
	movq	%rax, %rbx	# tmp89, _10
# Tensor.hpp:48:                 throw std::runtime_error("Index out of range.");
	.loc 6 48 17
	leaq	.LC2(%rip), %rax	#, tmp90
	movq	%rax, %rsi	# tmp90,
	movq	%rbx, %rdi	# _10,
.LEHB5:
	call	_ZNSt13runtime_errorC1EPKc@PLT	#
.LEHE5:
# Tensor.hpp:48:                 throw std::runtime_error("Index out of range.");
	.loc 6 48 63 discriminator 2
	movq	_ZNSt13runtime_errorD1Ev@GOTPCREL(%rip), %rax	#, tmp92
	movq	%rax, %rdx	# tmp91,
	leaq	_ZTISt13runtime_error(%rip), %rax	#, tmp93
	movq	%rax, %rsi	# tmp93,
	movq	%rbx, %rdi	# _10,
.LEHB6:
	call	__cxa_throw@PLT	#
.L25:
# Tensor.hpp:49:             return index >= 0 ? index : oor_index + index;
	.loc 6 49 31
	cmpq	$0, -24(%rbp)	#, index
	jns	.L26	#,
# Tensor.hpp:49:             return index >= 0 ? index : oor_index + index;
	.loc 6 49 31 is_stmt 0 discriminator 1
	movq	-32(%rbp), %rdx	# oor_index, tmp94
	movq	-24(%rbp), %rax	# index, tmp95
	addq	%rdx, %rax	# tmp94, iftmp.11_2
# Tensor.hpp:49:             return index >= 0 ? index : oor_index + index;
	.loc 6 49 53 is_stmt 1 discriminator 1
	jmp	.L31	#
.L26:
# Tensor.hpp:49:             return index >= 0 ? index : oor_index + index;
	.loc 6 49 31 discriminator 2
	movq	-24(%rbp), %rax	# index, iftmp.11_2
# Tensor.hpp:49:             return index >= 0 ? index : oor_index + index;
	.loc 6 49 53 discriminator 2
	jmp	.L31	#
.L30:
# Tensor.hpp:48:                 throw std::runtime_error("Index out of range.");
	.loc 6 48 63
	movq	%rax, %r12	#, tmp97
	movq	%rbx, %rdi	# _10,
	call	__cxa_free_exception@PLT	#
	movq	%r12, %rax	# tmp97, D.66487
	movq	%rax, %rdi	# D.66487,
	call	_Unwind_Resume@PLT	#
.LEHE6:
.L31:
# Tensor.hpp:50:         }
	.loc 6 50 9
	addq	$16, %rsp	#,
	popq	%rbx	#
	popq	%r12	#
	popq	%rbp	#
	.cfi_def_cfa 7, 8
	ret	
	.cfi_endproc
.LFE2550:
	.section	.gcc_except_table
.LLSDA2550:
	.byte	0xff
	.byte	0xff
	.byte	0x1
	.uleb128 .LLSDACSE2550-.LLSDACSB2550
.LLSDACSB2550:
	.uleb128 .LEHB5-.LFB2550
	.uleb128 .LEHE5-.LEHB5
	.uleb128 .L30-.LFB2550
	.uleb128 0
	.uleb128 .LEHB6-.LFB2550
	.uleb128 .LEHE6-.LEHB6
	.uleb128 0
	.uleb128 0
.LLSDACSE2550:
	.text
	.size	_ZN9container7details11index_checkEll, .-_ZN9container7details11index_checkEll
	.section	.text._ZN9container7details18tensor_base_staticIiJLl2ELl3ELl4ELl5EEED2Ev,"axG",@progbits,_ZN9container7details18tensor_base_staticIiJLl2ELl3ELl4ELl5EEED5Ev,comdat
	.align 2
	.weak	_ZN9container7details18tensor_base_staticIiJLl2ELl3ELl4ELl5EEED2Ev
	.type	_ZN9container7details18tensor_base_staticIiJLl2ELl3ELl4ELl5EEED2Ev, @function
_ZN9container7details18tensor_base_staticIiJLl2ELl3ELl4ELl5EEED2Ev:
.LFB2561:
	.loc 6 54 15
	.cfi_startproc
	pushq	%rbp	#
	.cfi_def_cfa_offset 16
	.cfi_offset 6, -16
	movq	%rsp, %rbp	#,
	.cfi_def_cfa_register 6
	subq	$16, %rsp	#,
	movq	%rdi, -8(%rbp)	# this, this
.LBB4:
# Tensor.hpp:54:         class tensor_base_static
	.loc 6 54 15
	movq	-8(%rbp), %rax	# this, tmp84
	addq	$24, %rax	#, _1
	movq	%rax, %rdi	# _1,
	call	_ZNSt6vectorIlSaIlEED1Ev	#
	movq	-8(%rbp), %rax	# this, _2
	movq	%rax, %rdi	# _2,
	call	_ZNSt6vectorIiSaIiEED1Ev	#
.LBE4:
	nop	
	leave	
	.cfi_def_cfa 7, 8
	ret	
	.cfi_endproc
.LFE2561:
	.size	_ZN9container7details18tensor_base_staticIiJLl2ELl3ELl4ELl5EEED2Ev, .-_ZN9container7details18tensor_base_staticIiJLl2ELl3ELl4ELl5EEED2Ev
	.weak	_ZN9container7details18tensor_base_staticIiJLl2ELl3ELl4ELl5EEED1Ev
	.set	_ZN9container7details18tensor_base_staticIiJLl2ELl3ELl4ELl5EEED1Ev,_ZN9container7details18tensor_base_staticIiJLl2ELl3ELl4ELl5EEED2Ev
	.text
	.globl	main
	.type	main, @function
main:
.LFB2559:
	.file 7 "Application.cpp"
	.loc 7 10 1
	.cfi_startproc
	.cfi_personality 0x9b,DW.ref.__gxx_personality_v0
	.cfi_lsda 0x1b,.LLSDA2559
	pushq	%rbp	#
	.cfi_def_cfa_offset 16
	.cfi_offset 6, -16
	movq	%rsp, %rbp	#,
	.cfi_def_cfa_register 6
	pushq	%rbx	#
	subq	$72, %rsp	#,
	.cfi_offset 3, -24
	movl	%edi, -68(%rbp)	# argc, argc
	movq	%rsi, -80(%rbp)	# argv, argv
# Application.cpp:12:     tensor<int, 2, 3, 4, 5> t{};
	.loc 7 12 31
	leaq	-64(%rbp), %rax	#, tmp89
	movq	%rax, %rdi	# tmp89,
.LEHB7:
	call	_ZN9container7details18tensor_base_staticIiJLl2ELl3ELl4ELl5EEEC1Ev	#
.LEHE7:
# Application.cpp:14:     t._data[119] = 1111;
	.loc 7 14 16
	leaq	-64(%rbp), %rax	#, tmp90
	movl	$119, %esi	#,
	movq	%rax, %rdi	# tmp90,
	call	_ZNSt6vectorIiSaIiEEixEm	#
# Application.cpp:14:     t._data[119] = 1111;
	.loc 7 14 18
	movl	$1111, (%rax)	#, *_1
# Application.cpp:16:     std::cout << t(-1, -1, -1, -1) << '\n';
	.loc 7 16 19
	leaq	-64(%rbp), %rax	#, tmp91
	movl	$-1, %r8d	#,
	movl	$-1, %ecx	#,
	movl	$-1, %edx	#,
	movl	$-1, %esi	#,
	movq	%rax, %rdi	# tmp91,
.LEHB8:
	call	_ZN9container7details18tensor_base_staticIiJLl2ELl3ELl4ELl5EEEclIJiiiiEEERiDpT_	#
# Application.cpp:16:     std::cout << t(-1, -1, -1, -1) << '\n';
	.loc 7 16 39
	movl	(%rax), %eax	# *_2, _3
	movl	%eax, %esi	# _3,
	leaq	_ZSt4cout(%rip), %rax	#, tmp92
	movq	%rax, %rdi	# tmp92,
	call	_ZNSolsEi@PLT	#
# Application.cpp:16:     std::cout << t(-1, -1, -1, -1) << '\n';
	.loc 7 16 39 is_stmt 0 discriminator 1
	movl	$10, %esi	#,
	movq	%rax, %rdi	# _4,
	call	_ZStlsISt11char_traitsIcEERSt13basic_ostreamIcT_ES5_c@PLT	#
.LEHE8:
# Application.cpp:18:     return 0;
	.loc 7 18 12 is_stmt 1
	movl	$0, %ebx	#, _16
# Application.cpp:19: }
	.loc 7 19 1
	leaq	-64(%rbp), %rax	#, tmp93
	movq	%rax, %rdi	# tmp93,
	call	_ZN9container7details18tensor_base_staticIiJLl2ELl3ELl4ELl5EEED1Ev	#
	movl	%ebx, %eax	# _16, <retval>
	jmp	.L37	#
.L36:
	movq	%rax, %rbx	#, tmp96
	leaq	-64(%rbp), %rax	#, tmp95
	movq	%rax, %rdi	# tmp95,
	call	_ZN9container7details18tensor_base_staticIiJLl2ELl3ELl4ELl5EEED1Ev	#
	movq	%rbx, %rax	# tmp96, D.66489
	movq	%rax, %rdi	# D.66489,
.LEHB9:
	call	_Unwind_Resume@PLT	#
.LEHE9:
.L37:
	movq	-8(%rbp), %rbx	#,
	leave	
	.cfi_def_cfa 7, 8
	ret	
	.cfi_endproc
.LFE2559:
	.section	.gcc_except_table
.LLSDA2559:
	.byte	0xff
	.byte	0xff
	.byte	0x1
	.uleb128 .LLSDACSE2559-.LLSDACSB2559
.LLSDACSB2559:
	.uleb128 .LEHB7-.LFB2559
	.uleb128 .LEHE7-.LEHB7
	.uleb128 0
	.uleb128 0
	.uleb128 .LEHB8-.LFB2559
	.uleb128 .LEHE8-.LEHB8
	.uleb128 .L36-.LFB2559
	.uleb128 0
	.uleb128 .LEHB9-.LFB2559
	.uleb128 .LEHE9-.LEHB9
	.uleb128 0
	.uleb128 0
.LLSDACSE2559:
	.text
	.size	main, .-main
	.section	.text._ZN9__gnu_cxx11char_traitsIcE6lengthEPKc,"axG",@progbits,_ZN9__gnu_cxx11char_traitsIcE6lengthEPKc,comdat
	.align 2
	.weak	_ZN9__gnu_cxx11char_traitsIcE6lengthEPKc
	.type	_ZN9__gnu_cxx11char_traitsIcE6lengthEPKc, @function
_ZN9__gnu_cxx11char_traitsIcE6lengthEPKc:
.LFB2563:
	.loc 3 182 5
	.cfi_startproc
	pushq	%rbp	#
	.cfi_def_cfa_offset 16
	.cfi_offset 6, -16
	movq	%rsp, %rbp	#,
	.cfi_def_cfa_register 6
	subq	$32, %rsp	#,
	movq	%rdi, -24(%rbp)	# __p, __p
# /usr/include/c++/12/bits/char_traits.h:185:       std::size_t __i = 0;
	.loc 3 185 19
	movq	$0, -8(%rbp)	#, __i
# /usr/include/c++/12/bits/char_traits.h:186:       while (!eq(__p[__i], char_type()))
	.loc 3 186 7
	jmp	.L39	#
.L40:
# /usr/include/c++/12/bits/char_traits.h:187:         ++__i;
	.loc 3 187 9
	addq	$1, -8(%rbp)	#, __i
.L39:
# /usr/include/c++/12/bits/char_traits.h:186:       while (!eq(__p[__i], char_type()))
	.loc 3 186 17
	movb	$0, -9(%rbp)	#, D.58944
# /usr/include/c++/12/bits/char_traits.h:186:       while (!eq(__p[__i], char_type()))
	.loc 3 186 21
	movq	-24(%rbp), %rdx	# __p, tmp87
	movq	-8(%rbp), %rax	# __i, tmp88
	addq	%rax, %rdx	# tmp88, _1
# /usr/include/c++/12/bits/char_traits.h:186:       while (!eq(__p[__i], char_type()))
	.loc 3 186 17
	leaq	-9(%rbp), %rax	#, tmp89
	movq	%rax, %rsi	# tmp89,
	movq	%rdx, %rdi	# _1,
	call	_ZN9__gnu_cxx11char_traitsIcE2eqERKcS3_	#
	xorl	$1, %eax	#, retval.1_10
	testb	%al, %al	# retval.1_10
	jne	.L40	#,
# /usr/include/c++/12/bits/char_traits.h:188:       return __i;
	.loc 3 188 14
	movq	-8(%rbp), %rax	# __i, _12
# /usr/include/c++/12/bits/char_traits.h:189:     }
	.loc 3 189 5
	leave	
	.cfi_def_cfa 7, 8
	ret	
	.cfi_endproc
.LFE2563:
	.size	_ZN9__gnu_cxx11char_traitsIcE6lengthEPKc, .-_ZN9__gnu_cxx11char_traitsIcE6lengthEPKc
	.section	.text._ZNSt8__detail14__to_chars_lenIjEEjT_i,"axG",@progbits,_ZNSt8__detail14__to_chars_lenIjEEjT_i,comdat
	.weak	_ZNSt8__detail14__to_chars_lenIjEEjT_i
	.type	_ZNSt8__detail14__to_chars_lenIjEEjT_i, @function
_ZNSt8__detail14__to_chars_lenIjEEjT_i:
.LFB2663:
	.file 8 "/usr/include/c++/12/bits/charconv.h"
	.loc 8 47 5
	.cfi_startproc
	pushq	%rbp	#
	.cfi_def_cfa_offset 16
	.cfi_offset 6, -16
	movq	%rsp, %rbp	#,
	.cfi_def_cfa_register 6
	movl	%edi, -36(%rbp)	# __value, __value
	movl	%esi, -40(%rbp)	# __base, __base
# /usr/include/c++/12/bits/charconv.h:52:       unsigned __n = 1;
	.loc 8 52 16
	movl	$1, -4(%rbp)	#, __n
# /usr/include/c++/12/bits/charconv.h:53:       const unsigned __b2 = __base  * __base;
	.loc 8 53 37
	movl	-40(%rbp), %eax	# __base, tmp92
	imull	%eax, %eax	# tmp92, _1
# /usr/include/c++/12/bits/charconv.h:53:       const unsigned __b2 = __base  * __base;
	.loc 8 53 22
	movl	%eax, -8(%rbp)	# _1, __b2
# /usr/include/c++/12/bits/charconv.h:54:       const unsigned __b3 = __b2 * __base;
	.loc 8 54 36
	movl	-40(%rbp), %eax	# __base, __base.8_2
# /usr/include/c++/12/bits/charconv.h:54:       const unsigned __b3 = __b2 * __base;
	.loc 8 54 22
	movl	-8(%rbp), %edx	# __b2, tmp94
	imull	%edx, %eax	# tmp94, tmp93
	movl	%eax, -12(%rbp)	# tmp93, __b3
# /usr/include/c++/12/bits/charconv.h:55:       const unsigned long __b4 = __b3 * __base;
	.loc 8 55 41
	movl	-40(%rbp), %eax	# __base, __base.9_3
# /usr/include/c++/12/bits/charconv.h:55:       const unsigned long __b4 = __b3 * __base;
	.loc 8 55 39
	imull	-12(%rbp), %eax	# __b3, _4
# /usr/include/c++/12/bits/charconv.h:55:       const unsigned long __b4 = __b3 * __base;
	.loc 8 55 27
	movl	%eax, %eax	# _4, tmp104
	movq	%rax, -24(%rbp)	# tmp104, __b4
.L48:
# /usr/include/c++/12/bits/charconv.h:58: 	  if (__value < (unsigned)__base) return __n;
	.loc 8 58 18
	movl	-40(%rbp), %eax	# __base, __base.10_5
# /usr/include/c++/12/bits/charconv.h:58: 	  if (__value < (unsigned)__base) return __n;
	.loc 8 58 4
	cmpl	%eax, -36(%rbp)	# __base.10_5, __value
	jnb	.L43	#,
# /usr/include/c++/12/bits/charconv.h:58: 	  if (__value < (unsigned)__base) return __n;
	.loc 8 58 43 discriminator 1
	movl	-4(%rbp), %eax	# __n, _11
	jmp	.L44	#
.L43:
# /usr/include/c++/12/bits/charconv.h:59: 	  if (__value < __b2) return __n + 1;
	.loc 8 59 4
	movl	-36(%rbp), %eax	# __value, tmp95
	cmpl	-8(%rbp), %eax	# __b2, tmp95
	jnb	.L45	#,
# /usr/include/c++/12/bits/charconv.h:59: 	  if (__value < __b2) return __n + 1;
	.loc 8 59 37 discriminator 1
	movl	-4(%rbp), %eax	# __n, tmp96
	addl	$1, %eax	#, _11
	jmp	.L44	#
.L45:
# /usr/include/c++/12/bits/charconv.h:60: 	  if (__value < __b3) return __n + 2;
	.loc 8 60 4
	movl	-36(%rbp), %eax	# __value, tmp97
	cmpl	-12(%rbp), %eax	# __b3, tmp97
	jnb	.L46	#,
# /usr/include/c++/12/bits/charconv.h:60: 	  if (__value < __b3) return __n + 2;
	.loc 8 60 37 discriminator 1
	movl	-4(%rbp), %eax	# __n, tmp98
	addl	$2, %eax	#, _11
	jmp	.L44	#
.L46:
# /usr/include/c++/12/bits/charconv.h:61: 	  if (__value < __b4) return __n + 3;
	.loc 8 61 8
	movl	-36(%rbp), %eax	# __value, _6
# /usr/include/c++/12/bits/charconv.h:61: 	  if (__value < __b4) return __n + 3;
	.loc 8 61 4
	cmpq	-24(%rbp), %rax	# __b4, _6
	jnb	.L47	#,
# /usr/include/c++/12/bits/charconv.h:61: 	  if (__value < __b4) return __n + 3;
	.loc 8 61 37 discriminator 1
	movl	-4(%rbp), %eax	# __n, tmp99
	addl	$3, %eax	#, _11
	jmp	.L44	#
.L47:
# /usr/include/c++/12/bits/charconv.h:62: 	  __value /= __b4;
	.loc 8 62 12
	movl	-36(%rbp), %eax	# __value, _7
	movl	$0, %edx	#, tmp101
	divq	-24(%rbp)	# __b4
	movl	%eax, -36(%rbp)	# _8, __value
# /usr/include/c++/12/bits/charconv.h:63: 	  __n += 4;
	.loc 8 63 8
	addl	$4, -4(%rbp)	#, __n
# /usr/include/c++/12/bits/charconv.h:58: 	  if (__value < (unsigned)__base) return __n;
	.loc 8 58 4
	jmp	.L48	#
.L44:
# /usr/include/c++/12/bits/charconv.h:65:     }
	.loc 8 65 5
	popq	%rbp	#
	.cfi_def_cfa 7, 8
	ret	
	.cfi_endproc
.LFE2663:
	.size	_ZNSt8__detail14__to_chars_lenIjEEjT_i, .-_ZNSt8__detail14__to_chars_lenIjEEjT_i
	.section	.text._ZNSt7__cxx1112basic_stringIcSt11char_traitsIcESaIcEE12_Alloc_hiderD2Ev,"axG",@progbits,_ZNSt7__cxx1112basic_stringIcSt11char_traitsIcESaIcEE12_Alloc_hiderD5Ev,comdat
	.align 2
	.weak	_ZNSt7__cxx1112basic_stringIcSt11char_traitsIcESaIcEE12_Alloc_hiderD2Ev
	.type	_ZNSt7__cxx1112basic_stringIcSt11char_traitsIcESaIcEE12_Alloc_hiderD2Ev, @function
_ZNSt7__cxx1112basic_stringIcSt11char_traitsIcESaIcEE12_Alloc_hiderD2Ev:
.LFB2672:
	.loc 5 192 14
	.cfi_startproc
	pushq	%rbp	#
	.cfi_def_cfa_offset 16
	.cfi_offset 6, -16
	movq	%rsp, %rbp	#,
	.cfi_def_cfa_register 6
	subq	$16, %rsp	#,
	movq	%rdi, -8(%rbp)	# this, this
.LBB5:
# /usr/include/c++/12/bits/basic_string.h:192:       struct _Alloc_hider : allocator_type // TODO check __is_final
	.loc 5 192 14
	movq	-8(%rbp), %rax	# this, tmp82
	movq	%rax, %rdi	# tmp82,
	call	_ZNSaIcED2Ev@PLT	#
.LBE5:
	nop	
	leave	
	.cfi_def_cfa 7, 8
	ret	
	.cfi_endproc
.LFE2672:
	.size	_ZNSt7__cxx1112basic_stringIcSt11char_traitsIcESaIcEE12_Alloc_hiderD2Ev, .-_ZNSt7__cxx1112basic_stringIcSt11char_traitsIcESaIcEE12_Alloc_hiderD2Ev
	.weak	_ZNSt7__cxx1112basic_stringIcSt11char_traitsIcESaIcEE12_Alloc_hiderD1Ev
	.set	_ZNSt7__cxx1112basic_stringIcSt11char_traitsIcESaIcEE12_Alloc_hiderD1Ev,_ZNSt7__cxx1112basic_stringIcSt11char_traitsIcESaIcEE12_Alloc_hiderD2Ev
	.section	.text._ZNSt7__cxx1112basic_stringIcSt11char_traitsIcESaIcEEC2IS3_EEmcRKS3_,"axG",@progbits,_ZNSt7__cxx1112basic_stringIcSt11char_traitsIcESaIcEEC5IS3_EEmcRKS3_,comdat
	.align 2
	.weak	_ZNSt7__cxx1112basic_stringIcSt11char_traitsIcESaIcEEC2IS3_EEmcRKS3_
	.type	_ZNSt7__cxx1112basic_stringIcSt11char_traitsIcESaIcEEC2IS3_EEmcRKS3_, @function
_ZNSt7__cxx1112basic_stringIcSt11char_traitsIcESaIcEEC2IS3_EEmcRKS3_:
.LFB2674:
	.loc 5 657 7
	.cfi_startproc
	.cfi_personality 0x9b,DW.ref.__gxx_personality_v0
	.cfi_lsda 0x1b,.LLSDA2674
	pushq	%rbp	#
	.cfi_def_cfa_offset 16
	.cfi_offset 6, -16
	movq	%rsp, %rbp	#,
	.cfi_def_cfa_register 6
	pushq	%rbx	#
	subq	$40, %rsp	#,
	.cfi_offset 3, -24
	movq	%rdi, -24(%rbp)	# this, this
	movq	%rsi, -32(%rbp)	# __n, __n
	movl	%edx, %eax	# __c, tmp87
	movq	%rcx, -48(%rbp)	# __a, __a
	movb	%al, -36(%rbp)	# tmp88, __c
.LBB6:
# /usr/include/c++/12/bits/basic_string.h:658:       : _M_dataplus(_M_local_data(), __a)
	.loc 5 658 9
	movq	-24(%rbp), %rbx	# this, _1
	movq	-24(%rbp), %rax	# this, tmp89
	movq	%rax, %rdi	# tmp89,
	call	_ZNSt7__cxx1112basic_stringIcSt11char_traitsIcESaIcEE13_M_local_dataEv@PLT	#
	movq	%rax, %rcx	#, _2
	movq	-48(%rbp), %rax	# __a, tmp90
	movq	%rax, %rdx	# tmp90,
	movq	%rcx, %rsi	# _2,
	movq	%rbx, %rdi	# _1,
	call	_ZNSt7__cxx1112basic_stringIcSt11char_traitsIcESaIcEE12_Alloc_hiderC1EPcRKS3_@PLT	#
# /usr/include/c++/12/bits/basic_string.h:659:       { _M_construct(__n, __c); }
	.loc 5 659 21
	movsbl	-36(%rbp), %edx	# __c, _3
	movq	-32(%rbp), %rcx	# __n, tmp91
	movq	-24(%rbp), %rax	# this, tmp92
	movq	%rcx, %rsi	# tmp91,
	movq	%rax, %rdi	# tmp92,
.LEHB10:
	call	_ZNSt7__cxx1112basic_stringIcSt11char_traitsIcESaIcEE12_M_constructEmc@PLT	#
.LEHE10:
.LBE6:
# /usr/include/c++/12/bits/basic_string.h:659:       { _M_construct(__n, __c); }
	.loc 5 659 33
	jmp	.L53	#
.L52:
.LBB7:
	movq	%rax, %rbx	#, tmp93
	movq	-24(%rbp), %rax	# this, _4
	movq	%rax, %rdi	# _4,
	call	_ZNSt7__cxx1112basic_stringIcSt11char_traitsIcESaIcEE12_Alloc_hiderD1Ev	#
	movq	%rbx, %rax	# tmp93, D.66491
	movq	%rax, %rdi	# D.66491,
.LEHB11:
	call	_Unwind_Resume@PLT	#
.LEHE11:
.L53:
.LBE7:
	movq	-8(%rbp), %rbx	#,
	leave	
	.cfi_def_cfa 7, 8
	ret	
	.cfi_endproc
.LFE2674:
	.section	.gcc_except_table
.LLSDA2674:
	.byte	0xff
	.byte	0xff
	.byte	0x1
	.uleb128 .LLSDACSE2674-.LLSDACSB2674
.LLSDACSB2674:
	.uleb128 .LEHB10-.LFB2674
	.uleb128 .LEHE10-.LEHB10
	.uleb128 .L52-.LFB2674
	.uleb128 0
	.uleb128 .LEHB11-.LFB2674
	.uleb128 .LEHE11-.LEHB11
	.uleb128 0
	.uleb128 0
.LLSDACSE2674:
	.section	.text._ZNSt7__cxx1112basic_stringIcSt11char_traitsIcESaIcEEC2IS3_EEmcRKS3_,"axG",@progbits,_ZNSt7__cxx1112basic_stringIcSt11char_traitsIcESaIcEEC5IS3_EEmcRKS3_,comdat
	.size	_ZNSt7__cxx1112basic_stringIcSt11char_traitsIcESaIcEEC2IS3_EEmcRKS3_, .-_ZNSt7__cxx1112basic_stringIcSt11char_traitsIcESaIcEEC2IS3_EEmcRKS3_
	.weak	_ZNSt7__cxx1112basic_stringIcSt11char_traitsIcESaIcEEC1IS3_EEmcRKS3_
	.set	_ZNSt7__cxx1112basic_stringIcSt11char_traitsIcESaIcEEC1IS3_EEmcRKS3_,_ZNSt7__cxx1112basic_stringIcSt11char_traitsIcESaIcEEC2IS3_EEmcRKS3_
	.weak	_ZZNSt8__detail18__to_chars_10_implIjEEvPcjT_E8__digits
	.section	.rodata._ZZNSt8__detail18__to_chars_10_implIjEEvPcjT_E8__digits,"aG",@progbits,_ZZNSt8__detail18__to_chars_10_implIjEEvPcjT_E8__digits,comdat
	.align 32
	.type	_ZZNSt8__detail18__to_chars_10_implIjEEvPcjT_E8__digits, @gnu_unique_object
	.size	_ZZNSt8__detail18__to_chars_10_implIjEEvPcjT_E8__digits, 201
_ZZNSt8__detail18__to_chars_10_implIjEEvPcjT_E8__digits:
	.string	"00010203040506070809101112131415161718192021222324252627282930313233343536373839404142434445464748495051525354555657585960616263646566676869707172737475767778798081828384858687888990919293949596979899"
	.section	.text._ZNSt8__detail18__to_chars_10_implIjEEvPcjT_,"axG",@progbits,_ZNSt8__detail18__to_chars_10_implIjEEvPcjT_,comdat
	.weak	_ZNSt8__detail18__to_chars_10_implIjEEvPcjT_
	.type	_ZNSt8__detail18__to_chars_10_implIjEEvPcjT_, @function
_ZNSt8__detail18__to_chars_10_implIjEEvPcjT_:
.LFB2680:
	.loc 8 72 5
	.cfi_startproc
	pushq	%rbp	#
	.cfi_def_cfa_offset 16
	.cfi_offset 6, -16
	movq	%rsp, %rbp	#,
	.cfi_def_cfa_register 6
	movq	%rdi, -24(%rbp)	# __first, __first
	movl	%esi, -28(%rbp)	# __len, __len
	movl	%edx, -32(%rbp)	# __val, __val
# /usr/include/c++/12/bits/charconv.h:83:       unsigned __pos = __len - 1;
	.loc 8 83 16
	movl	-28(%rbp), %eax	# __len, tmp101
	subl	$1, %eax	#, tmp100
	movl	%eax, -4(%rbp)	# tmp100, __pos
# /usr/include/c++/12/bits/charconv.h:84:       while (__val >= 100)
	.loc 8 84 7
	jmp	.L55	#
.L56:
.LBB8:
# /usr/include/c++/12/bits/charconv.h:86: 	  auto const __num = (__val % 100) * 2;
	.loc 8 86 30
	movl	-32(%rbp), %ecx	# __val, tmp102
	movl	%ecx, %eax	# tmp102, tmp103
	imulq	$1374389535, %rax, %rax	#, tmp103, tmp104
	shrq	$32, %rax	#, tmp105
	shrl	$5, %eax	#, _1
	imull	$100, %eax, %edx	#, _1, tmp106
	movl	%ecx, %eax	# tmp102, tmp102
	subl	%edx, %eax	# tmp106, tmp102
# /usr/include/c++/12/bits/charconv.h:86: 	  auto const __num = (__val % 100) * 2;
	.loc 8 86 15
	addl	%eax, %eax	# tmp107
	movl	%eax, -12(%rbp)	# tmp107, __num
# /usr/include/c++/12/bits/charconv.h:87: 	  __val /= 100;
	.loc 8 87 10
	movl	-32(%rbp), %eax	# __val, tmp109
	movl	%eax, %eax	# tmp109, tmp110
	imulq	$1374389535, %rax, %rax	#, tmp110, tmp111
	shrq	$32, %rax	#, tmp112
	shrl	$5, %eax	#, tmp108
	movl	%eax, -32(%rbp)	# tmp108, __val
# /usr/include/c++/12/bits/charconv.h:88: 	  __first[__pos] = __digits[__num + 1];
	.loc 8 88 36
	movl	-12(%rbp), %eax	# __num, tmp113
	leal	1(%rax), %ecx	#, _2
# /usr/include/c++/12/bits/charconv.h:88: 	  __first[__pos] = __digits[__num + 1];
	.loc 8 88 12
	movl	-4(%rbp), %edx	# __pos, _3
# /usr/include/c++/12/bits/charconv.h:88: 	  __first[__pos] = __digits[__num + 1];
	.loc 8 88 17
	movq	-24(%rbp), %rax	# __first, tmp114
	addq	%rax, %rdx	# tmp114, _4
# /usr/include/c++/12/bits/charconv.h:88: 	  __first[__pos] = __digits[__num + 1];
	.loc 8 88 29
	movl	%ecx, %ecx	# _2, tmp115
	leaq	_ZZNSt8__detail18__to_chars_10_implIjEEvPcjT_E8__digits(%rip), %rax	#, tmp116
	movzbl	(%rcx,%rax), %eax	# __digits[_2], _5
# /usr/include/c++/12/bits/charconv.h:88: 	  __first[__pos] = __digits[__num + 1];
	.loc 8 88 19
	movb	%al, (%rdx)	# _5, *_4
# /usr/include/c++/12/bits/charconv.h:89: 	  __first[__pos - 1] = __digits[__num];
	.loc 8 89 18
	movl	-4(%rbp), %eax	# __pos, tmp117
	subl	$1, %eax	#, _6
	movl	%eax, %edx	# _6, _7
# /usr/include/c++/12/bits/charconv.h:89: 	  __first[__pos - 1] = __digits[__num];
	.loc 8 89 21
	movq	-24(%rbp), %rax	# __first, tmp118
	addq	%rax, %rdx	# tmp118, _8
# /usr/include/c++/12/bits/charconv.h:89: 	  __first[__pos - 1] = __digits[__num];
	.loc 8 89 33
	movl	-12(%rbp), %eax	# __num, tmp119
	leaq	_ZZNSt8__detail18__to_chars_10_implIjEEvPcjT_E8__digits(%rip), %rcx	#, tmp120
	movzbl	(%rax,%rcx), %eax	# __digits[__num_30], _9
# /usr/include/c++/12/bits/charconv.h:89: 	  __first[__pos - 1] = __digits[__num];
	.loc 8 89 23
	movb	%al, (%rdx)	# _9, *_8
# /usr/include/c++/12/bits/charconv.h:90: 	  __pos -= 2;
	.loc 8 90 10
	subl	$2, -4(%rbp)	#, __pos
.L55:
.LBE8:
# /usr/include/c++/12/bits/charconv.h:84:       while (__val >= 100)
	.loc 8 84 20
	cmpl	$99, -32(%rbp)	#, __val
	ja	.L56	#,
.LBB9:
# /usr/include/c++/12/bits/charconv.h:92:       if (__val >= 10)
	.loc 8 92 7
	cmpl	$9, -32(%rbp)	#, __val
	jbe	.L57	#,
.LBB10:
# /usr/include/c++/12/bits/charconv.h:94: 	  auto const __num = __val * 2;
	.loc 8 94 15
	movl	-32(%rbp), %eax	# __val, tmp124
	addl	%eax, %eax	# tmp123
	movl	%eax, -8(%rbp)	# tmp123, __num
# /usr/include/c++/12/bits/charconv.h:95: 	  __first[1] = __digits[__num + 1];
	.loc 8 95 32
	movl	-8(%rbp), %eax	# __num, tmp125
	leal	1(%rax), %ecx	#, _10
# /usr/include/c++/12/bits/charconv.h:95: 	  __first[1] = __digits[__num + 1];
	.loc 8 95 13
	movq	-24(%rbp), %rax	# __first, tmp126
	leaq	1(%rax), %rdx	#, _11
# /usr/include/c++/12/bits/charconv.h:95: 	  __first[1] = __digits[__num + 1];
	.loc 8 95 25
	movl	%ecx, %ecx	# _10, tmp127
	leaq	_ZZNSt8__detail18__to_chars_10_implIjEEvPcjT_E8__digits(%rip), %rax	#, tmp128
	movzbl	(%rcx,%rax), %eax	# __digits[_10], _12
# /usr/include/c++/12/bits/charconv.h:95: 	  __first[1] = __digits[__num + 1];
	.loc 8 95 15
	movb	%al, (%rdx)	# _12, *_11
# /usr/include/c++/12/bits/charconv.h:96: 	  __first[0] = __digits[__num];
	.loc 8 96 25
	movl	-8(%rbp), %eax	# __num, tmp129
	leaq	_ZZNSt8__detail18__to_chars_10_implIjEEvPcjT_E8__digits(%rip), %rdx	#, tmp130
	movzbl	(%rax,%rdx), %edx	# __digits[__num_27], _13
# /usr/include/c++/12/bits/charconv.h:96: 	  __first[0] = __digits[__num];
	.loc 8 96 15
	movq	-24(%rbp), %rax	# __first, tmp131
	movb	%dl, (%rax)	# _13, *__first_25(D)
.LBE10:
.LBE9:
# /usr/include/c++/12/bits/charconv.h:100:     }
	.loc 8 100 5
	jmp	.L59	#
.L57:
.LBB11:
# /usr/include/c++/12/bits/charconv.h:99: 	__first[0] = '0' + __val;
	.loc 8 99 19
	movl	-32(%rbp), %eax	# __val, tmp132
	addl	$48, %eax	#, _15
	movl	%eax, %edx	# _15, _16
# /usr/include/c++/12/bits/charconv.h:99: 	__first[0] = '0' + __val;
	.loc 8 99 13
	movq	-24(%rbp), %rax	# __first, tmp133
	movb	%dl, (%rax)	# _16, *__first_25(D)
.L59:
.LBE11:
# /usr/include/c++/12/bits/charconv.h:100:     }
	.loc 8 100 5
	nop	
	popq	%rbp	#
	.cfi_def_cfa 7, 8
	ret	
	.cfi_endproc
.LFE2680:
	.size	_ZNSt8__detail18__to_chars_10_implIjEEvPcjT_, .-_ZNSt8__detail18__to_chars_10_implIjEEvPcjT_
	.section	.rodata
	.align 8
.LC3:
	.string	"basic_string: construction from null is not valid"
	.section	.text._ZNSt7__cxx1112basic_stringIcSt11char_traitsIcESaIcEEC2IS3_EEPKcRKS3_,"axG",@progbits,_ZNSt7__cxx1112basic_stringIcSt11char_traitsIcESaIcEEC5IS3_EEPKcRKS3_,comdat
	.align 2
	.weak	_ZNSt7__cxx1112basic_stringIcSt11char_traitsIcESaIcEEC2IS3_EEPKcRKS3_
	.type	_ZNSt7__cxx1112basic_stringIcSt11char_traitsIcESaIcEEC2IS3_EEPKcRKS3_, @function
_ZNSt7__cxx1112basic_stringIcSt11char_traitsIcESaIcEEC2IS3_EEPKcRKS3_:
.LFB2827:
	.loc 5 634 7
	.cfi_startproc
	.cfi_personality 0x9b,DW.ref.__gxx_personality_v0
	.cfi_lsda 0x1b,.LLSDA2827
	pushq	%rbp	#
	.cfi_def_cfa_offset 16
	.cfi_offset 6, -16
	movq	%rsp, %rbp	#,
	.cfi_def_cfa_register 6
	pushq	%rbx	#
	subq	$56, %rsp	#,
	.cfi_offset 3, -24
	movq	%rdi, -40(%rbp)	# this, this
	movq	%rsi, -48(%rbp)	# __s, __s
	movq	%rdx, -56(%rbp)	# __a, __a
.LBB12:
# /usr/include/c++/12/bits/basic_string.h:635:       : _M_dataplus(_M_local_data(), __a)
	.loc 5 635 9
	movq	-40(%rbp), %rbx	# this, _1
	movq	-40(%rbp), %rax	# this, tmp88
	movq	%rax, %rdi	# tmp88,
	call	_ZNSt7__cxx1112basic_stringIcSt11char_traitsIcESaIcEE13_M_local_dataEv@PLT	#
	movq	%rax, %rcx	#, _2
	movq	-56(%rbp), %rax	# __a, tmp89
	movq	%rax, %rdx	# tmp89,
	movq	%rcx, %rsi	# _2,
	movq	%rbx, %rdi	# _1,
	call	_ZNSt7__cxx1112basic_stringIcSt11char_traitsIcESaIcEE12_Alloc_hiderC1EPcRKS3_@PLT	#
.LBB13:
# /usr/include/c++/12/bits/basic_string.h:638: 	if (__s == 0)
	.loc 5 638 2
	cmpq	$0, -48(%rbp)	#, __s
	jne	.L61	#,
# /usr/include/c++/12/bits/basic_string.h:639: 	  std::__throw_logic_error(__N("basic_string: "
	.loc 5 639 28
	leaq	.LC3(%rip), %rax	#, tmp90
	movq	%rax, %rdi	# tmp90,
.LEHB12:
	call	_ZSt19__throw_logic_errorPKc@PLT	#
.L61:
# /usr/include/c++/12/bits/basic_string.h:641: 	const _CharT* __end = __s + traits_type::length(__s);
	.loc 5 641 49
	movq	-48(%rbp), %rax	# __s, tmp91
	movq	%rax, %rdi	# tmp91,
	call	_ZNSt11char_traitsIcE6lengthEPKc	#
# /usr/include/c++/12/bits/basic_string.h:641: 	const _CharT* __end = __s + traits_type::length(__s);
	.loc 5 641 16
	movq	-48(%rbp), %rdx	# __s, tmp95
	addq	%rdx, %rax	# tmp95, tmp94
	movq	%rax, -24(%rbp)	# tmp94, __end
# /usr/include/c++/12/bits/basic_string.h:642: 	_M_construct(__s, __end, forward_iterator_tag());
	.loc 5 642 14
	movq	-24(%rbp), %rdx	# __end, tmp96
	movq	-48(%rbp), %rcx	# __s, tmp97
	movq	-40(%rbp), %rax	# this, tmp98
	movq	%rcx, %rsi	# tmp97,
	movq	%rax, %rdi	# tmp98,
	call	_ZNSt7__cxx1112basic_stringIcSt11char_traitsIcESaIcEE12_M_constructIPKcEEvT_S8_St20forward_iterator_tag	#
.LEHE12:
.LBE13:
.LBE12:
# /usr/include/c++/12/bits/basic_string.h:643:       }
	.loc 5 643 7
	jmp	.L64	#
.L63:
.LBB14:
	movq	%rax, %rbx	#, tmp99
	movq	-40(%rbp), %rax	# this, _4
	movq	%rax, %rdi	# _4,
	call	_ZNSt7__cxx1112basic_stringIcSt11char_traitsIcESaIcEE12_Alloc_hiderD1Ev	#
	movq	%rbx, %rax	# tmp99, D.66492
	movq	%rax, %rdi	# D.66492,
.LEHB13:
	call	_Unwind_Resume@PLT	#
.LEHE13:
.L64:
.LBE14:
	movq	-8(%rbp), %rbx	#,
	leave	
	.cfi_def_cfa 7, 8
	ret	
	.cfi_endproc
.LFE2827:
	.section	.gcc_except_table
.LLSDA2827:
	.byte	0xff
	.byte	0xff
	.byte	0x1
	.uleb128 .LLSDACSE2827-.LLSDACSB2827
.LLSDACSB2827:
	.uleb128 .LEHB12-.LFB2827
	.uleb128 .LEHE12-.LEHB12
	.uleb128 .L63-.LFB2827
	.uleb128 0
	.uleb128 .LEHB13-.LFB2827
	.uleb128 .LEHE13-.LEHB13
	.uleb128 0
	.uleb128 0
.LLSDACSE2827:
	.section	.text._ZNSt7__cxx1112basic_stringIcSt11char_traitsIcESaIcEEC2IS3_EEPKcRKS3_,"axG",@progbits,_ZNSt7__cxx1112basic_stringIcSt11char_traitsIcESaIcEEC5IS3_EEPKcRKS3_,comdat
	.size	_ZNSt7__cxx1112basic_stringIcSt11char_traitsIcESaIcEEC2IS3_EEPKcRKS3_, .-_ZNSt7__cxx1112basic_stringIcSt11char_traitsIcESaIcEEC2IS3_EEPKcRKS3_
	.weak	_ZNSt7__cxx1112basic_stringIcSt11char_traitsIcESaIcEEC1IS3_EEPKcRKS3_
	.set	_ZNSt7__cxx1112basic_stringIcSt11char_traitsIcESaIcEEC1IS3_EEPKcRKS3_,_ZNSt7__cxx1112basic_stringIcSt11char_traitsIcESaIcEEC2IS3_EEPKcRKS3_
	.section	.text._ZNSt12_Vector_baseIiSaIiEE12_Vector_implD2Ev,"axG",@progbits,_ZNSt12_Vector_baseIiSaIiEE12_Vector_implD5Ev,comdat
	.align 2
	.weak	_ZNSt12_Vector_baseIiSaIiEE12_Vector_implD2Ev
	.type	_ZNSt12_Vector_baseIiSaIiEE12_Vector_implD2Ev, @function
_ZNSt12_Vector_baseIiSaIiEE12_Vector_implD2Ev:
.LFB2837:
	.file 9 "/usr/include/c++/12/bits/stl_vector.h"
	.loc 9 133 14
	.cfi_startproc
	pushq	%rbp	#
	.cfi_def_cfa_offset 16
	.cfi_offset 6, -16
	movq	%rsp, %rbp	#,
	.cfi_def_cfa_register 6
	subq	$16, %rsp	#,
	movq	%rdi, -8(%rbp)	# this, this
.LBB15:
# /usr/include/c++/12/bits/stl_vector.h:133:       struct _Vector_impl
	.loc 9 133 14
	movq	-8(%rbp), %rax	# this, tmp82
	movq	%rax, %rdi	# tmp82,
	call	_ZNSaIiED2Ev	#
.LBE15:
	nop	
	leave	
	.cfi_def_cfa 7, 8
	ret	
	.cfi_endproc
.LFE2837:
	.size	_ZNSt12_Vector_baseIiSaIiEE12_Vector_implD2Ev, .-_ZNSt12_Vector_baseIiSaIiEE12_Vector_implD2Ev
	.weak	_ZNSt12_Vector_baseIiSaIiEE12_Vector_implD1Ev
	.set	_ZNSt12_Vector_baseIiSaIiEE12_Vector_implD1Ev,_ZNSt12_Vector_baseIiSaIiEE12_Vector_implD2Ev
	.section	.text._ZNSt12_Vector_baseIiSaIiEEC2Ev,"axG",@progbits,_ZNSt12_Vector_baseIiSaIiEEC5Ev,comdat
	.align 2
	.weak	_ZNSt12_Vector_baseIiSaIiEEC2Ev
	.type	_ZNSt12_Vector_baseIiSaIiEEC2Ev, @function
_ZNSt12_Vector_baseIiSaIiEEC2Ev:
.LFB2839:
	.loc 9 312 7
	.cfi_startproc
	pushq	%rbp	#
	.cfi_def_cfa_offset 16
	.cfi_offset 6, -16
	movq	%rsp, %rbp	#,
	.cfi_def_cfa_register 6
	subq	$16, %rsp	#,
	movq	%rdi, -8(%rbp)	# this, this
.LBB16:
# /usr/include/c++/12/bits/stl_vector.h:312:       _Vector_base() = default;
	.loc 9 312 7
	movq	-8(%rbp), %rax	# this, _1
	movq	%rax, %rdi	# _1,
	call	_ZNSt12_Vector_baseIiSaIiEE12_Vector_implC1Ev	#
.LBE16:
	nop	
	leave	
	.cfi_def_cfa 7, 8
	ret	
	.cfi_endproc
.LFE2839:
	.size	_ZNSt12_Vector_baseIiSaIiEEC2Ev, .-_ZNSt12_Vector_baseIiSaIiEEC2Ev
	.weak	_ZNSt12_Vector_baseIiSaIiEEC1Ev
	.set	_ZNSt12_Vector_baseIiSaIiEEC1Ev,_ZNSt12_Vector_baseIiSaIiEEC2Ev
	.section	.text._ZNSt6vectorIiSaIiEEC2Ev,"axG",@progbits,_ZNSt6vectorIiSaIiEEC5Ev,comdat
	.align 2
	.weak	_ZNSt6vectorIiSaIiEEC2Ev
	.type	_ZNSt6vectorIiSaIiEEC2Ev, @function
_ZNSt6vectorIiSaIiEEC2Ev:
.LFB2841:
	.loc 9 526 7
	.cfi_startproc
	pushq	%rbp	#
	.cfi_def_cfa_offset 16
	.cfi_offset 6, -16
	movq	%rsp, %rbp	#,
	.cfi_def_cfa_register 6
	subq	$16, %rsp	#,
	movq	%rdi, -8(%rbp)	# this, this
.LBB17:
# /usr/include/c++/12/bits/stl_vector.h:526:       vector() = default;
	.loc 9 526 7
	movq	-8(%rbp), %rax	# this, _1
	movq	%rax, %rdi	# _1,
	call	_ZNSt12_Vector_baseIiSaIiEEC2Ev	#
.LBE17:
	nop	
	leave	
	.cfi_def_cfa 7, 8
	ret	
	.cfi_endproc
.LFE2841:
	.size	_ZNSt6vectorIiSaIiEEC2Ev, .-_ZNSt6vectorIiSaIiEEC2Ev
	.weak	_ZNSt6vectorIiSaIiEEC1Ev
	.set	_ZNSt6vectorIiSaIiEEC1Ev,_ZNSt6vectorIiSaIiEEC2Ev
	.section	.text._ZZN9container7details18tensor_base_staticIiJLl2ELl3ELl4ELl5EEEC4EvENKUliE_clEi,"axG",@progbits,_ZZN9container7details18tensor_base_staticIiJLl2ELl3ELl4ELl5EEEC4EvENKUliE_clEi,comdat
	.align 2
	.weak	_ZZN9container7details18tensor_base_staticIiJLl2ELl3ELl4ELl5EEEC4EvENKUliE_clEi
	.type	_ZZN9container7details18tensor_base_staticIiJLl2ELl3ELl4ELl5EEEC4EvENKUliE_clEi, @function
_ZZN9container7details18tensor_base_staticIiJLl2ELl3ELl4ELl5EEEC4EvENKUliE_clEi:
.LFB2843:
	.loc 6 60 59
	.cfi_startproc
	pushq	%rbp	#
	.cfi_def_cfa_offset 16
	.cfi_offset 6, -16
	movq	%rsp, %rbp	#,
	.cfi_def_cfa_register 6
	movq	%rdi, -8(%rbp)	# __closure, __closure
	movl	%esi, -12(%rbp)	# size, size
# Tensor.hpp:60:                 std::for_each(_dims.begin(), _dims.end(), [&](int size)
	.loc 6 60 59
	movq	-8(%rbp), %rax	# __closure, tmp87
	movq	(%rax), %rax	# __closure_7(D)->__size_1d, _1
# Tensor.hpp:61:                               { size_1d *= size; }); // exception: dim <= 0
	.loc 6 61 41
	movq	(%rax), %rcx	# *_1, _2
# Tensor.hpp:61:                               { size_1d *= size; }); // exception: dim <= 0
	.loc 6 61 44
	movl	-12(%rbp), %eax	# size, tmp88
	movslq	%eax, %rdx	# tmp88, _3
# Tensor.hpp:60:                 std::for_each(_dims.begin(), _dims.end(), [&](int size)
	.loc 6 60 59
	movq	-8(%rbp), %rax	# __closure, tmp89
	movq	(%rax), %rax	# __closure_7(D)->__size_1d, _4
# Tensor.hpp:61:                               { size_1d *= size; }); // exception: dim <= 0
	.loc 6 61 41
	imulq	%rcx, %rdx	# _2, _5
	movq	%rdx, (%rax)	# _5, *_4
# Tensor.hpp:60:                 std::for_each(_dims.begin(), _dims.end(), [&](int size)
	.loc 6 60 59
	nop	
	popq	%rbp	#
	.cfi_def_cfa 7, 8
	ret	
	.cfi_endproc
.LFE2843:
	.size	_ZZN9container7details18tensor_base_staticIiJLl2ELl3ELl4ELl5EEEC4EvENKUliE_clEi, .-_ZZN9container7details18tensor_base_staticIiJLl2ELl3ELl4ELl5EEEC4EvENKUliE_clEi
	.section	.text._ZN9container7details18tensor_base_staticIiJLl2ELl3ELl4ELl5EEEC2Ev,"axG",@progbits,_ZN9container7details18tensor_base_staticIiJLl2ELl3ELl4ELl5EEEC5Ev,comdat
	.align 2
	.weak	_ZN9container7details18tensor_base_staticIiJLl2ELl3ELl4ELl5EEEC2Ev
	.type	_ZN9container7details18tensor_base_staticIiJLl2ELl3ELl4ELl5EEEC2Ev, @function
_ZN9container7details18tensor_base_staticIiJLl2ELl3ELl4ELl5EEEC2Ev:
.LFB2844:
	.loc 6 57 13
	.cfi_startproc
	.cfi_personality 0x9b,DW.ref.__gxx_personality_v0
	.cfi_lsda 0x1b,.LLSDA2844
	pushq	%rbp	#
	.cfi_def_cfa_offset 16
	.cfi_offset 6, -16
	movq	%rsp, %rbp	#,
	.cfi_def_cfa_register 6
	pushq	%r13	#
	pushq	%r12	#
	pushq	%rbx	#
	subq	$40, %rsp	#,
	.cfi_offset 13, -24
	.cfi_offset 12, -32
	.cfi_offset 3, -40
	movq	%rdi, -56(%rbp)	# this, this
.LBB18:
# Tensor.hpp:58:             {
	.loc 6 58 13
	movq	-56(%rbp), %rax	# this, _1
	movq	%rax, %rdi	# _1,
	call	_ZNSt6vectorIiSaIiEEC1Ev	#
	movq	-56(%rbp), %rax	# this, tmp97
	leaq	24(%rax), %rbx	#, _2
	leaq	C.12.0(%rip), %r12	#, D.62072
	movl	$4, %r13d	#, D.62072
	leaq	-33(%rbp), %rax	#, tmp98
	movq	%rax, %rdi	# tmp98,
	call	_ZNSaIlEC1Ev	#
	leaq	-33(%rbp), %rax	#, tmp99
	movq	%r12, %r8	# D.62072, tmp100
	movq	%r13, %r9	# D.62072,
	movq	%r12, %rsi	# D.62072, tmp101
	movq	%r13, %rdi	# D.62072,
	movq	%rdi, %rdx	#, tmp103
	movq	%rax, %rcx	# tmp99,
	movq	%r8, %rsi	# tmp102,
	movq	%rbx, %rdi	# _2,
.LEHB14:
	call	_ZNSt6vectorIlSaIlEEC1ESt16initializer_listIlERKS0_	#
.LEHE14:
# Tensor.hpp:58:             {
	.loc 6 58 13 is_stmt 0 discriminator 2
	leaq	-33(%rbp), %rax	#, tmp104
	movq	%rax, %rdi	# tmp104,
	call	_ZNSaIlED1Ev	#
.LBB19:
# Tensor.hpp:59:                 container_size_type size_1d = 1;
	.loc 6 59 37 is_stmt 1 discriminator 2
	movq	$1, -48(%rbp)	#, size_1d
# Tensor.hpp:60:                 std::for_each(_dims.begin(), _dims.end(), [&](int size)
	.loc 6 60 30 discriminator 2
	leaq	-48(%rbp), %rax	#, tmp105
	movq	%rax, %r12	# tmp105, D.65899
	movq	-56(%rbp), %rax	# this, tmp106
	addq	$24, %rax	#, _3
	movq	%rax, %rdi	# _3,
	call	_ZNSt6vectorIlSaIlEE3endEv	#
	movq	%rax, %rbx	#, D.65900
	movq	-56(%rbp), %rax	# this, tmp107
	addq	$24, %rax	#, _4
	movq	%rax, %rdi	# _4,
	call	_ZNSt6vectorIlSaIlEE5beginEv	#
	movq	%r12, %rdx	# D.65899,
	movq	%rbx, %rsi	# D.65900,
	movq	%rax, %rdi	# D.65901,
	call	_ZSt8for_eachIN9__gnu_cxx17__normal_iteratorIPlSt6vectorIlSaIlEEEEZN9container7details18tensor_base_staticIiJLl2ELl3ELl4ELl5EEEC4EvEUliE_ET0_T_SD_SC_	#
# Tensor.hpp:62:                 _data.resize(size_1d);               // exception: bad_alloc
	.loc 6 62 29 discriminator 2
	movq	-56(%rbp), %rax	# this, _5
	movq	-48(%rbp), %rdx	# size_1d, size_1d.13_6
	movq	%rdx, %rsi	# size_1d.14_7,
	movq	%rax, %rdi	# _5,
.LEHB15:
	call	_ZNSt6vectorIiSaIiEE6resizeEm	#
.LEHE15:
.LBE19:
.LBE18:
# Tensor.hpp:63:             }
	.loc 6 63 13
	jmp	.L75	#
.L73:
.LBB20:
# Tensor.hpp:58:             {
	.loc 6 58 13
	movq	%rax, %rbx	#, tmp110
	leaq	-33(%rbp), %rax	#, tmp108
	movq	%rax, %rdi	# tmp108,
	call	_ZNSaIlED1Ev	#
	jmp	.L71	#
.L74:
# Tensor.hpp:63:             }
	.loc 6 63 13
	movq	%rax, %rbx	#, tmp114
	movq	-56(%rbp), %rax	# this, tmp113
	addq	$24, %rax	#, _8
	movq	%rax, %rdi	# _8,
	call	_ZNSt6vectorIlSaIlEED1Ev	#
.L71:
	movq	-56(%rbp), %rax	# this, _9
	movq	%rax, %rdi	# _9,
	call	_ZNSt6vectorIiSaIiEED1Ev	#
	movq	%rbx, %rax	# tmp109, D.66494
	movq	%rax, %rdi	# D.66494,
.LEHB16:
	call	_Unwind_Resume@PLT	#
.LEHE16:
.L75:
.LBE20:
	addq	$40, %rsp	#,
	popq	%rbx	#
	popq	%r12	#
	popq	%r13	#
	popq	%rbp	#
	.cfi_def_cfa 7, 8
	ret	
	.cfi_endproc
.LFE2844:
	.section	.gcc_except_table
.LLSDA2844:
	.byte	0xff
	.byte	0xff
	.byte	0x1
	.uleb128 .LLSDACSE2844-.LLSDACSB2844
.LLSDACSB2844:
	.uleb128 .LEHB14-.LFB2844
	.uleb128 .LEHE14-.LEHB14
	.uleb128 .L73-.LFB2844
	.uleb128 0
	.uleb128 .LEHB15-.LFB2844
	.uleb128 .LEHE15-.LEHB15
	.uleb128 .L74-.LFB2844
	.uleb128 0
	.uleb128 .LEHB16-.LFB2844
	.uleb128 .LEHE16-.LEHB16
	.uleb128 0
	.uleb128 0
.LLSDACSE2844:
	.section	.text._ZN9container7details18tensor_base_staticIiJLl2ELl3ELl4ELl5EEEC2Ev,"axG",@progbits,_ZN9container7details18tensor_base_staticIiJLl2ELl3ELl4ELl5EEEC5Ev,comdat
	.size	_ZN9container7details18tensor_base_staticIiJLl2ELl3ELl4ELl5EEEC2Ev, .-_ZN9container7details18tensor_base_staticIiJLl2ELl3ELl4ELl5EEEC2Ev
	.weak	_ZN9container7details18tensor_base_staticIiJLl2ELl3ELl4ELl5EEEC1Ev
	.set	_ZN9container7details18tensor_base_staticIiJLl2ELl3ELl4ELl5EEEC1Ev,_ZN9container7details18tensor_base_staticIiJLl2ELl3ELl4ELl5EEEC2Ev
	.section	.text._ZNSt6vectorIiSaIiEED2Ev,"axG",@progbits,_ZNSt6vectorIiSaIiEED5Ev,comdat
	.align 2
	.weak	_ZNSt6vectorIiSaIiEED2Ev
	.type	_ZNSt6vectorIiSaIiEED2Ev, @function
_ZNSt6vectorIiSaIiEED2Ev:
.LFB2847:
	.loc 9 728 7
	.cfi_startproc
	.cfi_personality 0x9b,DW.ref.__gxx_personality_v0
	.cfi_lsda 0x1b,.LLSDA2847
	pushq	%rbp	#
	.cfi_def_cfa_offset 16
	.cfi_offset 6, -16
	movq	%rsp, %rbp	#,
	.cfi_def_cfa_register 6
	subq	$16, %rsp	#,
	movq	%rdi, -8(%rbp)	# this, this
.LBB21:
# /usr/include/c++/12/bits/stl_vector.h:731: 		      _M_get_Tp_allocator());
	.loc 9 731 28
	movq	-8(%rbp), %rax	# this, _1
	movq	%rax, %rdi	# _1,
	call	_ZNSt12_Vector_baseIiSaIiEE19_M_get_Tp_allocatorEv	#
	movq	%rax, %rdx	#, _2
# /usr/include/c++/12/bits/stl_vector.h:730: 	std::_Destroy(this->_M_impl._M_start, this->_M_impl._M_finish,
	.loc 9 730 15
	movq	-8(%rbp), %rax	# this, tmp87
	movq	8(%rax), %rcx	# this_6(D)->D.58840._M_impl.D.58179._M_finish, _3
	movq	-8(%rbp), %rax	# this, tmp88
	movq	(%rax), %rax	# this_6(D)->D.58840._M_impl.D.58179._M_start, _4
	movq	%rcx, %rsi	# _3,
	movq	%rax, %rdi	# _4,
	call	_ZSt8_DestroyIPiiEvT_S1_RSaIT0_E	#
# /usr/include/c++/12/bits/stl_vector.h:733:       }
	.loc 9 733 7
	movq	-8(%rbp), %rax	# this, _5
	movq	%rax, %rdi	# _5,
	call	_ZNSt12_Vector_baseIiSaIiEED2Ev	#
.LBE21:
	nop	
	leave	
	.cfi_def_cfa 7, 8
	ret	
	.cfi_endproc
.LFE2847:
	.section	.gcc_except_table
.LLSDA2847:
	.byte	0xff
	.byte	0xff
	.byte	0x1
	.uleb128 .LLSDACSE2847-.LLSDACSB2847
.LLSDACSB2847:
.LLSDACSE2847:
	.section	.text._ZNSt6vectorIiSaIiEED2Ev,"axG",@progbits,_ZNSt6vectorIiSaIiEED5Ev,comdat
	.size	_ZNSt6vectorIiSaIiEED2Ev, .-_ZNSt6vectorIiSaIiEED2Ev
	.weak	_ZNSt6vectorIiSaIiEED1Ev
	.set	_ZNSt6vectorIiSaIiEED1Ev,_ZNSt6vectorIiSaIiEED2Ev
	.section	.text._ZNSt6vectorIlSaIlEED2Ev,"axG",@progbits,_ZNSt6vectorIlSaIlEED5Ev,comdat
	.align 2
	.weak	_ZNSt6vectorIlSaIlEED2Ev
	.type	_ZNSt6vectorIlSaIlEED2Ev, @function
_ZNSt6vectorIlSaIlEED2Ev:
.LFB2850:
	.loc 9 728 7
	.cfi_startproc
	.cfi_personality 0x9b,DW.ref.__gxx_personality_v0
	.cfi_lsda 0x1b,.LLSDA2850
	pushq	%rbp	#
	.cfi_def_cfa_offset 16
	.cfi_offset 6, -16
	movq	%rsp, %rbp	#,
	.cfi_def_cfa_register 6
	subq	$16, %rsp	#,
	movq	%rdi, -8(%rbp)	# this, this
.LBB22:
# /usr/include/c++/12/bits/stl_vector.h:731: 		      _M_get_Tp_allocator());
	.loc 9 731 28
	movq	-8(%rbp), %rax	# this, _1
	movq	%rax, %rdi	# _1,
	call	_ZNSt12_Vector_baseIlSaIlEE19_M_get_Tp_allocatorEv	#
	movq	%rax, %rdx	#, _2
# /usr/include/c++/12/bits/stl_vector.h:730: 	std::_Destroy(this->_M_impl._M_start, this->_M_impl._M_finish,
	.loc 9 730 15
	movq	-8(%rbp), %rax	# this, tmp87
	movq	8(%rax), %rcx	# this_6(D)->D.57729._M_impl.D.57041._M_finish, _3
	movq	-8(%rbp), %rax	# this, tmp88
	movq	(%rax), %rax	# this_6(D)->D.57729._M_impl.D.57041._M_start, _4
	movq	%rcx, %rsi	# _3,
	movq	%rax, %rdi	# _4,
	call	_ZSt8_DestroyIPllEvT_S1_RSaIT0_E	#
# /usr/include/c++/12/bits/stl_vector.h:733:       }
	.loc 9 733 7
	movq	-8(%rbp), %rax	# this, _5
	movq	%rax, %rdi	# _5,
	call	_ZNSt12_Vector_baseIlSaIlEED2Ev	#
.LBE22:
	nop	
	leave	
	.cfi_def_cfa 7, 8
	ret	
	.cfi_endproc
.LFE2850:
	.section	.gcc_except_table
.LLSDA2850:
	.byte	0xff
	.byte	0xff
	.byte	0x1
	.uleb128 .LLSDACSE2850-.LLSDACSB2850
.LLSDACSB2850:
.LLSDACSE2850:
	.section	.text._ZNSt6vectorIlSaIlEED2Ev,"axG",@progbits,_ZNSt6vectorIlSaIlEED5Ev,comdat
	.size	_ZNSt6vectorIlSaIlEED2Ev, .-_ZNSt6vectorIlSaIlEED2Ev
	.weak	_ZNSt6vectorIlSaIlEED1Ev
	.set	_ZNSt6vectorIlSaIlEED1Ev,_ZNSt6vectorIlSaIlEED2Ev
	.section	.text._ZNSt6vectorIiSaIiEEixEm,"axG",@progbits,_ZNSt6vectorIiSaIiEEixEm,comdat
	.align 2
	.weak	_ZNSt6vectorIiSaIiEEixEm
	.type	_ZNSt6vectorIiSaIiEEixEm, @function
_ZNSt6vectorIiSaIiEEixEm:
.LFB2852:
	.loc 9 1121 7
	.cfi_startproc
	pushq	%rbp	#
	.cfi_def_cfa_offset 16
	.cfi_offset 6, -16
	movq	%rsp, %rbp	#,
	.cfi_def_cfa_register 6
	movq	%rdi, -8(%rbp)	# this, this
	movq	%rsi, -16(%rbp)	# __n, __n
# /usr/include/c++/12/bits/stl_vector.h:1124: 	return *(this->_M_impl._M_start + __n);
	.loc 9 1124 25
	movq	-8(%rbp), %rax	# this, tmp86
	movq	(%rax), %rax	# this_4(D)->D.58840._M_impl.D.58179._M_start, _1
# /usr/include/c++/12/bits/stl_vector.h:1124: 	return *(this->_M_impl._M_start + __n);
	.loc 9 1124 34
	movq	-16(%rbp), %rdx	# __n, tmp87
	salq	$2, %rdx	#, _2
# /usr/include/c++/12/bits/stl_vector.h:1124: 	return *(this->_M_impl._M_start + __n);
	.loc 9 1124 39
	addq	%rdx, %rax	# _2, _6
# /usr/include/c++/12/bits/stl_vector.h:1125:       }
	.loc 9 1125 7
	popq	%rbp	#
	.cfi_def_cfa 7, 8
	ret	
	.cfi_endproc
.LFE2852:
	.size	_ZNSt6vectorIiSaIiEEixEm, .-_ZNSt6vectorIiSaIiEEixEm
	.section	.rodata
	.align 8
.LC4:
	.string	"The number of indices must be equal to the tensor's order."
	.section	.text._ZN9container7details18tensor_base_staticIiJLl2ELl3ELl4ELl5EEEclIJiiiiEEERiDpT_,"axG",@progbits,_ZN9container7details18tensor_base_staticIiJLl2ELl3ELl4ELl5EEEclIJiiiiEEERiDpT_,comdat
	.align 2
	.weak	_ZN9container7details18tensor_base_staticIiJLl2ELl3ELl4ELl5EEEclIJiiiiEEERiDpT_
	.type	_ZN9container7details18tensor_base_staticIiJLl2ELl3ELl4ELl5EEEclIJiiiiEEERiDpT_, @function
_ZN9container7details18tensor_base_staticIiJLl2ELl3ELl4ELl5EEEclIJiiiiEEERiDpT_:
.LFB2853:
	.loc 6 86 24
	.cfi_startproc
	.cfi_personality 0x9b,DW.ref.__gxx_personality_v0
	.cfi_lsda 0x1b,.LLSDA2853
	pushq	%rbp	#
	.cfi_def_cfa_offset 16
	.cfi_offset 6, -16
	movq	%rsp, %rbp	#,
	.cfi_def_cfa_register 6
	pushq	%r13	#
	pushq	%r12	#
	pushq	%rbx	#
	subq	$232, %rsp	#,
	.cfi_offset 13, -24
	.cfi_offset 12, -32
	.cfi_offset 3, -40
	movq	%rdi, -232(%rbp)	# this, this
	movl	%esi, -236(%rbp)	# indices#0, indices#0
	movl	%edx, -240(%rbp)	# indices#1, indices#1
	movl	%ecx, -244(%rbp)	# indices#2, indices#2
	movl	%r8d, -248(%rbp)	# indices#3, indices#3
# Tensor.hpp:89:                 std::vector<container_size_type> index_list{indices...};
	.loc 6 89 61
	movl	-236(%rbp), %eax	# indices#0, tmp110
	cltq
# Tensor.hpp:89:                 std::vector<container_size_type> index_list{indices...};
	.loc 6 89 50
	movq	%rax, -192(%rbp)	# _1, D.62120[0]
# Tensor.hpp:89:                 std::vector<container_size_type> index_list{indices...};
	.loc 6 89 61
	movl	-240(%rbp), %eax	# indices#1, tmp111
	cltq
# Tensor.hpp:89:                 std::vector<container_size_type> index_list{indices...};
	.loc 6 89 50
	movq	%rax, -184(%rbp)	# _2, D.62120[1]
# Tensor.hpp:89:                 std::vector<container_size_type> index_list{indices...};
	.loc 6 89 61
	movl	-244(%rbp), %eax	# indices#2, tmp112
	cltq
# Tensor.hpp:89:                 std::vector<container_size_type> index_list{indices...};
	.loc 6 89 50
	movq	%rax, -176(%rbp)	# _3, D.62120[2]
# Tensor.hpp:89:                 std::vector<container_size_type> index_list{indices...};
	.loc 6 89 61
	movl	-248(%rbp), %eax	# indices#3, tmp113
	cltq
# Tensor.hpp:89:                 std::vector<container_size_type> index_list{indices...};
	.loc 6 89 50
	movq	%rax, -168(%rbp)	# _4, D.62120[3]
	leaq	-192(%rbp), %rax	#, tmp114
	movq	%rax, %r12	# tmp114, D.62121
	movl	$4, %r13d	#, D.62121
	leaq	-145(%rbp), %rax	#, tmp115
	movq	%rax, %rdi	# tmp115,
	call	_ZNSaIlEC1Ev	#
	leaq	-145(%rbp), %rdx	#, tmp116
	movq	%r12, %rsi	# D.62121, tmp117
	movq	%r13, %rdi	# D.62121,
	movq	%r12, %rcx	# D.62121, tmp118
	movq	%r13, %rbx	# D.62121,
	movq	%rbx, %rdi	#, tmp120
	leaq	-224(%rbp), %rax	#, tmp121
	movq	%rdx, %rcx	# tmp116,
	movq	%rdi, %rdx	# tmp120,
	movq	%rax, %rdi	# tmp121,
.LEHB17:
	call	_ZNSt6vectorIlSaIlEEC1ESt16initializer_listIlERKS0_	#
.LEHE17:
# Tensor.hpp:89:                 std::vector<container_size_type> index_list{indices...};
	.loc 6 89 50 is_stmt 0 discriminator 2
	leaq	-145(%rbp), %rax	#, tmp122
	movq	%rax, %rdi	# tmp122,
	call	_ZNSaIlED1Ev	#
# Tensor.hpp:90:                 container_size_type n_indices = index_list.size();
	.loc 6 90 64 is_stmt 1 discriminator 2
	leaq	-224(%rbp), %rax	#, tmp123
	movq	%rax, %rdi	# tmp123,
	call	_ZNKSt6vectorIlSaIlEE4sizeEv	#
# Tensor.hpp:90:                 container_size_type n_indices = index_list.size();
	.loc 6 90 37 discriminator 2
	movq	%rax, -64(%rbp)	# _5, n_indices
# Tensor.hpp:92:                 if (n_indices != this->order())
	.loc 6 92 45 discriminator 2
	movq	-232(%rbp), %rax	# this, tmp124
	movq	%rax, %rdi	# tmp124,
	call	_ZNK9container7details18tensor_base_staticIiJLl2ELl3ELl4ELl5EEE5orderEv	#
# Tensor.hpp:92:                 if (n_indices != this->order())
	.loc 6 92 31 discriminator 2
	cmpq	%rax, -64(%rbp)	# _6, n_indices
	setne	%al	#, retval.35_49
# Tensor.hpp:92:                 if (n_indices != this->order())
	.loc 6 92 17 discriminator 2
	testb	%al, %al	# retval.35_49
	je	.L81	#,
# Tensor.hpp:93:                     throw std::runtime_error(exception::exception_message("The number of indices must be equal to the tensor's order."));
	.loc 6 93 21
	movl	$16, %edi	#,
	call	__cxa_allocate_exception@PLT	#
	movq	%rax, %rbx	# tmp125, _7
	leaq	-65(%rbp), %rax	#, tmp126
	movq	%rax, %rdi	# tmp126,
	call	_ZNSaIcEC1Ev@PLT	#
	leaq	-65(%rbp), %rdx	#, tmp127
	leaq	-112(%rbp), %rax	#, tmp128
	leaq	.LC4(%rip), %rcx	#, tmp129
	movq	%rcx, %rsi	# tmp129,
	movq	%rax, %rdi	# tmp128,
.LEHB18:
	call	_ZNSt7__cxx1112basic_stringIcSt11char_traitsIcESaIcEEC1IS3_EEPKcRKS3_	#
.LEHE18:
# Tensor.hpp:93:                     throw std::runtime_error(exception::exception_message("The number of indices must be equal to the tensor's order."));
	.loc 6 93 21 is_stmt 0 discriminator 2
	leaq	-144(%rbp), %rax	#, tmp130
	leaq	-112(%rbp), %rdx	#, tmp131
	movq	%rdx, %rsi	# tmp131,
	movq	%rax, %rdi	# tmp130,
.LEHB19:
	call	_ZN9exception17exception_messageEONSt7__cxx1112basic_stringIcSt11char_traitsIcESaIcEEE	#
.LEHE19:
# Tensor.hpp:93:                     throw std::runtime_error(exception::exception_message("The number of indices must be equal to the tensor's order."));
	.loc 6 93 21 discriminator 4
	leaq	-144(%rbp), %rax	#, tmp132
	movq	%rax, %rsi	# tmp132,
	movq	%rbx, %rdi	# _7,
.LEHB20:
	call	_ZNSt13runtime_errorC1ERKNSt7__cxx1112basic_stringIcSt11char_traitsIcESaIcEEE@PLT	#
.LEHE20:
# Tensor.hpp:93:                     throw std::runtime_error(exception::exception_message("The number of indices must be equal to the tensor's order."));
	.loc 6 93 21 discriminator 6
	leaq	-144(%rbp), %rax	#, tmp133
	movq	%rax, %rdi	# tmp133,
	call	_ZNSt7__cxx1112basic_stringIcSt11char_traitsIcESaIcEED1Ev@PLT	#
	leaq	-112(%rbp), %rax	#, tmp134
	movq	%rax, %rdi	# tmp134,
	call	_ZNSt7__cxx1112basic_stringIcSt11char_traitsIcESaIcEED1Ev@PLT	#
	leaq	-65(%rbp), %rax	#, tmp135
	movq	%rax, %rdi	# tmp135,
	call	_ZNSaIcED1Ev@PLT	#
	movq	_ZNSt13runtime_errorD1Ev@GOTPCREL(%rip), %rax	#, tmp137
	movq	%rax, %rdx	# tmp136,
	leaq	_ZTISt13runtime_error(%rip), %rax	#, tmp138
	movq	%rax, %rsi	# tmp138,
	movq	%rbx, %rdi	# _7,
.LEHB21:
	call	__cxa_throw@PLT	#
.L81:
# Tensor.hpp:95:                 container_size_type index_1d = 0;
	.loc 6 95 37 is_stmt 1
	movq	$0, -40(%rbp)	#, index_1d
# Tensor.hpp:96:                 container_size_type size_1d = this->size();
	.loc 6 96 57
	movq	-232(%rbp), %rax	# this, tmp139
	movq	%rax, %rdi	# tmp139,
	call	_ZNK9container7details18tensor_base_staticIiJLl2ELl3ELl4ELl5EEE4sizeEv	#
	movq	%rax, -48(%rbp)	# tmp140, size_1d
# Tensor.hpp:97:                 container_size_type current_dim = 0;
	.loc 6 97 37
	movq	$0, -56(%rbp)	#, current_dim
# Tensor.hpp:99:                 for (current_dim = 0; current_dim < n_indices; ++current_dim)
	.loc 6 99 34
	movq	$0, -56(%rbp)	#, current_dim
# Tensor.hpp:99:                 for (current_dim = 0; current_dim < n_indices; ++current_dim)
	.loc 6 99 17
	jmp	.L82	#
.L83:
# Tensor.hpp:100:                     index_1d += index_check(index_list[current_dim], _dims[current_dim]) * (size_1d /= _dims[current_dim]);
	.loc 6 100 44
	movq	-232(%rbp), %rax	# this, tmp141
	leaq	24(%rax), %rdx	#, _8
	movq	-56(%rbp), %rax	# current_dim, current_dim.36_9
	movq	%rax, %rsi	# current_dim.36_9,
	movq	%rdx, %rdi	# _8,
	call	_ZNSt6vectorIlSaIlEEixEm	#
	movq	(%rax), %rbx	# *_10, _11
	movq	-56(%rbp), %rdx	# current_dim, current_dim.37_12
	leaq	-224(%rbp), %rax	#, tmp142
	movq	%rdx, %rsi	# current_dim.37_12,
	movq	%rax, %rdi	# tmp142,
	call	_ZNSt6vectorIlSaIlEEixEm	#
	movq	(%rax), %rax	# *_13, _14
	movq	%rbx, %rsi	# _11,
	movq	%rax, %rdi	# _14,
	call	_ZN9container7details11index_checkEll	#
.LEHE21:
	movq	%rax, %rbx	#, _15
# Tensor.hpp:100:                     index_1d += index_check(index_list[current_dim], _dims[current_dim]) * (size_1d /= _dims[current_dim]);
	.loc 6 100 101
	movq	-232(%rbp), %rax	# this, tmp143
	leaq	24(%rax), %rdx	#, _16
	movq	-56(%rbp), %rax	# current_dim, current_dim.38_17
	movq	%rax, %rsi	# current_dim.38_17,
	movq	%rdx, %rdi	# _16,
	call	_ZNSt6vectorIlSaIlEEixEm	#
	movq	(%rax), %rcx	# *_18, _64
	movq	-48(%rbp), %rax	# size_1d, tmp146
	cqto
	idivq	%rcx	# _64
	movq	%rax, -48(%rbp)	# tmp144, size_1d
# Tensor.hpp:100:                     index_1d += index_check(index_list[current_dim], _dims[current_dim]) * (size_1d /= _dims[current_dim]);
	.loc 6 100 90
	movq	%rbx, %rax	# _15, _15
	imulq	-48(%rbp), %rax	# size_1d, _15
# Tensor.hpp:100:                     index_1d += index_check(index_list[current_dim], _dims[current_dim]) * (size_1d /= _dims[current_dim]);
	.loc 6 100 30
	addq	%rax, -40(%rbp)	# _66, index_1d
# Tensor.hpp:99:                 for (current_dim = 0; current_dim < n_indices; ++current_dim)
	.loc 6 99 17
	addq	$1, -56(%rbp)	#, current_dim
.L82:
# Tensor.hpp:99:                 for (current_dim = 0; current_dim < n_indices; ++current_dim)
	.loc 6 99 51 discriminator 2
	movq	-56(%rbp), %rax	# current_dim, tmp147
	cmpq	-64(%rbp), %rax	# n_indices, tmp147
	jl	.L83	#,
# Tensor.hpp:102:                 return _data[index_1d];
	.loc 6 102 29
	movq	-232(%rbp), %rax	# this, _19
	movq	-40(%rbp), %rdx	# index_1d, index_1d.39_20
	movq	%rdx, %rsi	# index_1d.39_20,
	movq	%rax, %rdi	# _19,
	call	_ZNSt6vectorIiSaIiEEixEm	#
	movq	%rax, %rbx	#, _56
# Tensor.hpp:102:                 return _data[index_1d];
	.loc 6 102 38
	nop	
# Tensor.hpp:103:             }
	.loc 6 103 13
	leaq	-224(%rbp), %rax	#, tmp148
	movq	%rax, %rdi	# tmp148,
	call	_ZNSt6vectorIlSaIlEED1Ev	#
# Tensor.hpp:102:                 return _data[index_1d];
	.loc 6 102 38
	movq	%rbx, %rax	# _56, <retval>
	jmp	.L95	#
.L90:
# Tensor.hpp:89:                 std::vector<container_size_type> index_list{indices...};
	.loc 6 89 50
	movq	%rax, %rbx	#, tmp151
	leaq	-145(%rbp), %rax	#, tmp150
	movq	%rax, %rdi	# tmp150,
	call	_ZNSaIlED1Ev	#
	movq	%rbx, %rax	# tmp151, D.66495
	movq	%rax, %rdi	# D.66495,
.LEHB22:
	call	_Unwind_Resume@PLT	#
.L93:
# Tensor.hpp:93:                     throw std::runtime_error(exception::exception_message("The number of indices must be equal to the tensor's order."));
	.loc 6 93 21
	movq	%rax, %r12	#, tmp154
	leaq	-144(%rbp), %rax	#, tmp152
	movq	%rax, %rdi	# tmp152,
	call	_ZNSt7__cxx1112basic_stringIcSt11char_traitsIcESaIcEED1Ev@PLT	#
	jmp	.L87	#
.L92:
	movq	%rax, %r12	#, tmp153
.L87:
# Tensor.hpp:93:                     throw std::runtime_error(exception::exception_message("The number of indices must be equal to the tensor's order."));
	.loc 6 93 21 is_stmt 0 discriminator 3
	leaq	-112(%rbp), %rax	#, tmp157
	movq	%rax, %rdi	# tmp157,
	call	_ZNSt7__cxx1112basic_stringIcSt11char_traitsIcESaIcEED1Ev@PLT	#
	jmp	.L88	#
.L91:
# Tensor.hpp:93:                     throw std::runtime_error(exception::exception_message("The number of indices must be equal to the tensor's order."));
	.loc 6 93 21
	movq	%rax, %r12	#, tmp158
.L88:
# Tensor.hpp:93:                     throw std::runtime_error(exception::exception_message("The number of indices must be equal to the tensor's order."));
	.loc 6 93 21 discriminator 1
	leaq	-65(%rbp), %rax	#, tmp160
	movq	%rax, %rdi	# tmp160,
	call	_ZNSaIcED1Ev@PLT	#
	movq	%rbx, %rdi	# _7,
	call	__cxa_free_exception@PLT	#
	movq	%r12, %rbx	# tmp161, tmp163
	jmp	.L89	#
.L94:
# Tensor.hpp:103:             }
	.loc 6 103 13 is_stmt 1
	movq	%rax, %rbx	#, tmp163
.L89:
	leaq	-224(%rbp), %rax	#, tmp165
	movq	%rax, %rdi	# tmp165,
	call	_ZNSt6vectorIlSaIlEED1Ev	#
	movq	%rbx, %rax	# tmp163, D.66496
	movq	%rax, %rdi	# D.66496,
	call	_Unwind_Resume@PLT	#
.LEHE22:
.L95:
	addq	$232, %rsp	#,
	popq	%rbx	#
	popq	%r12	#
	popq	%r13	#
	popq	%rbp	#
	.cfi_def_cfa 7, 8
	ret	
	.cfi_endproc
.LFE2853:
	.section	.gcc_except_table
.LLSDA2853:
	.byte	0xff
	.byte	0xff
	.byte	0x1
	.uleb128 .LLSDACSE2853-.LLSDACSB2853
.LLSDACSB2853:
	.uleb128 .LEHB17-.LFB2853
	.uleb128 .LEHE17-.LEHB17
	.uleb128 .L90-.LFB2853
	.uleb128 0
	.uleb128 .LEHB18-.LFB2853
	.uleb128 .LEHE18-.LEHB18
	.uleb128 .L91-.LFB2853
	.uleb128 0
	.uleb128 .LEHB19-.LFB2853
	.uleb128 .LEHE19-.LEHB19
	.uleb128 .L92-.LFB2853
	.uleb128 0
	.uleb128 .LEHB20-.LFB2853
	.uleb128 .LEHE20-.LEHB20
	.uleb128 .L93-.LFB2853
	.uleb128 0
	.uleb128 .LEHB21-.LFB2853
	.uleb128 .LEHE21-.LEHB21
	.uleb128 .L94-.LFB2853
	.uleb128 0
	.uleb128 .LEHB22-.LFB2853
	.uleb128 .LEHE22-.LEHB22
	.uleb128 0
	.uleb128 0
.LLSDACSE2853:
	.section	.text._ZN9container7details18tensor_base_staticIiJLl2ELl3ELl4ELl5EEEclIJiiiiEEERiDpT_,"axG",@progbits,_ZN9container7details18tensor_base_staticIiJLl2ELl3ELl4ELl5EEEclIJiiiiEEERiDpT_,comdat
	.size	_ZN9container7details18tensor_base_staticIiJLl2ELl3ELl4ELl5EEEclIJiiiiEEERiDpT_, .-_ZN9container7details18tensor_base_staticIiJLl2ELl3ELl4ELl5EEEclIJiiiiEEERiDpT_
	.section	.text._ZN9__gnu_cxx11char_traitsIcE2eqERKcS3_,"axG",@progbits,_ZN9__gnu_cxx11char_traitsIcE2eqERKcS3_,comdat
	.weak	_ZN9__gnu_cxx11char_traitsIcE2eqERKcS3_
	.type	_ZN9__gnu_cxx11char_traitsIcE2eqERKcS3_, @function
_ZN9__gnu_cxx11char_traitsIcE2eqERKcS3_:
.LFB2855:
	.loc 3 121 7
	.cfi_startproc
	pushq	%rbp	#
	.cfi_def_cfa_offset 16
	.cfi_offset 6, -16
	movq	%rsp, %rbp	#,
	.cfi_def_cfa_register 6
	movq	%rdi, -8(%rbp)	# __c1, __c1
	movq	%rsi, -16(%rbp)	# __c2, __c2
# /usr/include/c++/12/bits/char_traits.h:122:       { return __c1 == __c2; }
	.loc 3 122 21
	movq	-8(%rbp), %rax	# __c1, tmp86
	movzbl	(%rax), %edx	# *__c1_4(D), _1
	movq	-16(%rbp), %rax	# __c2, tmp87
	movzbl	(%rax), %eax	# *__c2_5(D), _2
# /usr/include/c++/12/bits/char_traits.h:122:       { return __c1 == __c2; }
	.loc 3 122 24
	cmpb	%al, %dl	# _2, _1
	sete	%al	#, _6
# /usr/include/c++/12/bits/char_traits.h:122:       { return __c1 == __c2; }
	.loc 3 122 30
	popq	%rbp	#
	.cfi_def_cfa 7, 8
	ret	
	.cfi_endproc
.LFE2855:
	.size	_ZN9__gnu_cxx11char_traitsIcE2eqERKcS3_, .-_ZN9__gnu_cxx11char_traitsIcE2eqERKcS3_
	.section	.text._ZZNSt7__cxx1112basic_stringIcSt11char_traitsIcESaIcEE12_M_constructIPKcEEvT_S8_St20forward_iterator_tagEN6_GuardC2EPS4_,"axG",@progbits,_ZZNSt7__cxx1112basic_stringIcSt11char_traitsIcESaIcEE12_M_constructIPKcEEvT_S8_St20forward_iterator_tagEN6_GuardC5EPS4_,comdat
	.align 2
	.weak	_ZZNSt7__cxx1112basic_stringIcSt11char_traitsIcESaIcEE12_M_constructIPKcEEvT_S8_St20forward_iterator_tagEN6_GuardC2EPS4_
	.type	_ZZNSt7__cxx1112basic_stringIcSt11char_traitsIcESaIcEE12_M_constructIPKcEEvT_S8_St20forward_iterator_tagEN6_GuardC2EPS4_, @function
_ZZNSt7__cxx1112basic_stringIcSt11char_traitsIcESaIcEE12_M_constructIPKcEEvT_S8_St20forward_iterator_tagEN6_GuardC2EPS4_:
.LFB2892:
	.file 10 "/usr/include/c++/12/bits/basic_string.tcc"
	.loc 10 235 13
	.cfi_startproc
	pushq	%rbp	#
	.cfi_def_cfa_offset 16
	.cfi_offset 6, -16
	movq	%rsp, %rbp	#,
	.cfi_def_cfa_register 6
	movq	%rdi, -8(%rbp)	# this, this
	movq	%rsi, -16(%rbp)	# __s, __s
.LBB23:
# /usr/include/c++/12/bits/basic_string.tcc:235: 	  explicit _Guard(basic_string* __s) : _M_guarded(__s) { }
	.loc 10 235 41
	movq	-8(%rbp), %rax	# this, tmp82
	movq	-16(%rbp), %rdx	# __s, tmp83
	movq	%rdx, (%rax)	# tmp83, this_2(D)->_M_guarded
.LBE23:
# /usr/include/c++/12/bits/basic_string.tcc:235: 	  explicit _Guard(basic_string* __s) : _M_guarded(__s) { }
	.loc 10 235 59
	nop	
	popq	%rbp	#
	.cfi_def_cfa 7, 8
	ret	
	.cfi_endproc
.LFE2892:
	.size	_ZZNSt7__cxx1112basic_stringIcSt11char_traitsIcESaIcEE12_M_constructIPKcEEvT_S8_St20forward_iterator_tagEN6_GuardC2EPS4_, .-_ZZNSt7__cxx1112basic_stringIcSt11char_traitsIcESaIcEE12_M_constructIPKcEEvT_S8_St20forward_iterator_tagEN6_GuardC2EPS4_
	.weak	_ZZNSt7__cxx1112basic_stringIcSt11char_traitsIcESaIcEE12_M_constructIPKcEEvT_S8_St20forward_iterator_tagEN6_GuardC1EPS4_
	.set	_ZZNSt7__cxx1112basic_stringIcSt11char_traitsIcESaIcEE12_M_constructIPKcEEvT_S8_St20forward_iterator_tagEN6_GuardC1EPS4_,_ZZNSt7__cxx1112basic_stringIcSt11char_traitsIcESaIcEE12_M_constructIPKcEEvT_S8_St20forward_iterator_tagEN6_GuardC2EPS4_
	.section	.text._ZZNSt7__cxx1112basic_stringIcSt11char_traitsIcESaIcEE12_M_constructIPKcEEvT_S8_St20forward_iterator_tagEN6_GuardD2Ev,"axG",@progbits,_ZZNSt7__cxx1112basic_stringIcSt11char_traitsIcESaIcEE12_M_constructIPKcEEvT_S8_St20forward_iterator_tagEN6_GuardD5Ev,comdat
	.align 2
	.weak	_ZZNSt7__cxx1112basic_stringIcSt11char_traitsIcESaIcEE12_M_constructIPKcEEvT_S8_St20forward_iterator_tagEN6_GuardD2Ev
	.type	_ZZNSt7__cxx1112basic_stringIcSt11char_traitsIcESaIcEE12_M_constructIPKcEEvT_S8_St20forward_iterator_tagEN6_GuardD2Ev, @function
_ZZNSt7__cxx1112basic_stringIcSt11char_traitsIcESaIcEE12_M_constructIPKcEEvT_S8_St20forward_iterator_tagEN6_GuardD2Ev:
.LFB2895:
	.loc 10 238 4
	.cfi_startproc
	.cfi_personality 0x9b,DW.ref.__gxx_personality_v0
	.cfi_lsda 0x1b,.LLSDA2895
	pushq	%rbp	#
	.cfi_def_cfa_offset 16
	.cfi_offset 6, -16
	movq	%rsp, %rbp	#,
	.cfi_def_cfa_register 6
	subq	$16, %rsp	#,
	movq	%rdi, -8(%rbp)	# this, this
.LBB24:
# /usr/include/c++/12/bits/basic_string.tcc:238: 	  ~_Guard() { if (_M_guarded) _M_guarded->_M_dispose(); }
	.loc 10 238 20
	movq	-8(%rbp), %rax	# this, tmp84
	movq	(%rax), %rax	# this_5(D)->_M_guarded, _1
# /usr/include/c++/12/bits/basic_string.tcc:238: 	  ~_Guard() { if (_M_guarded) _M_guarded->_M_dispose(); }
	.loc 10 238 16
	testq	%rax, %rax	# _1
	je	.L101	#,
# /usr/include/c++/12/bits/basic_string.tcc:238: 	  ~_Guard() { if (_M_guarded) _M_guarded->_M_dispose(); }
	.loc 10 238 32 discriminator 1
	movq	-8(%rbp), %rax	# this, tmp85
	movq	(%rax), %rax	# this_5(D)->_M_guarded, _2
# /usr/include/c++/12/bits/basic_string.tcc:238: 	  ~_Guard() { if (_M_guarded) _M_guarded->_M_dispose(); }
	.loc 10 238 54 discriminator 1
	movq	%rax, %rdi	# _2,
	call	_ZNSt7__cxx1112basic_stringIcSt11char_traitsIcESaIcEE10_M_disposeEv@PLT	#
.L101:
.LBE24:
# /usr/include/c++/12/bits/basic_string.tcc:238: 	  ~_Guard() { if (_M_guarded) _M_guarded->_M_dispose(); }
	.loc 10 238 58
	nop	
	leave	
	.cfi_def_cfa 7, 8
	ret	
	.cfi_endproc
.LFE2895:
	.section	.gcc_except_table
.LLSDA2895:
	.byte	0xff
	.byte	0xff
	.byte	0x1
	.uleb128 .LLSDACSE2895-.LLSDACSB2895
.LLSDACSB2895:
.LLSDACSE2895:
	.section	.text._ZZNSt7__cxx1112basic_stringIcSt11char_traitsIcESaIcEE12_M_constructIPKcEEvT_S8_St20forward_iterator_tagEN6_GuardD2Ev,"axG",@progbits,_ZZNSt7__cxx1112basic_stringIcSt11char_traitsIcESaIcEE12_M_constructIPKcEEvT_S8_St20forward_iterator_tagEN6_GuardD5Ev,comdat
	.size	_ZZNSt7__cxx1112basic_stringIcSt11char_traitsIcESaIcEE12_M_constructIPKcEEvT_S8_St20forward_iterator_tagEN6_GuardD2Ev, .-_ZZNSt7__cxx1112basic_stringIcSt11char_traitsIcESaIcEE12_M_constructIPKcEEvT_S8_St20forward_iterator_tagEN6_GuardD2Ev
	.weak	_ZZNSt7__cxx1112basic_stringIcSt11char_traitsIcESaIcEE12_M_constructIPKcEEvT_S8_St20forward_iterator_tagEN6_GuardD1Ev
	.set	_ZZNSt7__cxx1112basic_stringIcSt11char_traitsIcESaIcEE12_M_constructIPKcEEvT_S8_St20forward_iterator_tagEN6_GuardD1Ev,_ZZNSt7__cxx1112basic_stringIcSt11char_traitsIcESaIcEE12_M_constructIPKcEEvT_S8_St20forward_iterator_tagEN6_GuardD2Ev
	.section	.text._ZNSt7__cxx1112basic_stringIcSt11char_traitsIcESaIcEE12_M_constructIPKcEEvT_S8_St20forward_iterator_tag,"axG",@progbits,_ZNSt7__cxx1112basic_stringIcSt11char_traitsIcESaIcEE12_M_constructIPKcEEvT_S8_St20forward_iterator_tag,comdat
	.align 2
	.weak	_ZNSt7__cxx1112basic_stringIcSt11char_traitsIcESaIcEE12_M_constructIPKcEEvT_S8_St20forward_iterator_tag
	.type	_ZNSt7__cxx1112basic_stringIcSt11char_traitsIcESaIcEE12_M_constructIPKcEEvT_S8_St20forward_iterator_tag, @function
_ZNSt7__cxx1112basic_stringIcSt11char_traitsIcESaIcEE12_M_constructIPKcEEvT_S8_St20forward_iterator_tag:
.LFB2890:
	.loc 10 217 7
	.cfi_startproc
	pushq	%rbp	#
	.cfi_def_cfa_offset 16
	.cfi_offset 6, -16
	movq	%rsp, %rbp	#,
	.cfi_def_cfa_register 6
	subq	$64, %rsp	#,
	movq	%rdi, -40(%rbp)	# this, this
	movq	%rsi, -48(%rbp)	# __beg, __beg
	movq	%rdx, -56(%rbp)	# __end, __end
# /usr/include/c++/12/bits/basic_string.tcc:221: 	size_type __dnew = static_cast<size_type>(std::distance(__beg, __end));
	.loc 10 221 57
	movq	-56(%rbp), %rdx	# __end, tmp90
	movq	-48(%rbp), %rax	# __beg, tmp91
	movq	%rdx, %rsi	# tmp90,
	movq	%rax, %rdi	# tmp91,
	call	_ZSt8distanceIPKcENSt15iterator_traitsIT_E15difference_typeES3_S3_	#
# /usr/include/c++/12/bits/basic_string.tcc:221: 	size_type __dnew = static_cast<size_type>(std::distance(__beg, __end));
	.loc 10 221 12
	movq	%rax, -16(%rbp)	# _2, __dnew
# /usr/include/c++/12/bits/basic_string.tcc:223: 	if (__dnew > size_type(_S_local_capacity))
	.loc 10 223 13
	movq	-16(%rbp), %rax	# __dnew, __dnew.2_3
# /usr/include/c++/12/bits/basic_string.tcc:223: 	if (__dnew > size_type(_S_local_capacity))
	.loc 10 223 2
	cmpq	$15, %rax	#, __dnew.2_3
	jbe	.L103	#,
# /usr/include/c++/12/bits/basic_string.tcc:225: 	    _M_data(_M_create(__dnew, size_type(0)));
	.loc 10 225 13
	leaq	-16(%rbp), %rcx	#, tmp92
	movq	-40(%rbp), %rax	# this, tmp93
	movl	$0, %edx	#,
	movq	%rcx, %rsi	# tmp92,
	movq	%rax, %rdi	# tmp93,
	call	_ZNSt7__cxx1112basic_stringIcSt11char_traitsIcESaIcEE9_M_createERmm@PLT	#
	movq	%rax, %rdx	#, _4
	movq	-40(%rbp), %rax	# this, tmp94
	movq	%rdx, %rsi	# _4,
	movq	%rax, %rdi	# tmp94,
	call	_ZNSt7__cxx1112basic_stringIcSt11char_traitsIcESaIcEE7_M_dataEPc@PLT	#
# /usr/include/c++/12/bits/basic_string.tcc:226: 	    _M_capacity(__dnew);
	.loc 10 226 17
	movq	-16(%rbp), %rdx	# __dnew, __dnew.3_5
	movq	-40(%rbp), %rax	# this, tmp95
	movq	%rdx, %rsi	# __dnew.3_5,
	movq	%rax, %rdi	# tmp95,
	call	_ZNSt7__cxx1112basic_stringIcSt11char_traitsIcESaIcEE11_M_capacityEm@PLT	#
	jmp	.L104	#
.L103:
	movq	-40(%rbp), %rax	# this, tmp96
	movq	%rax, -8(%rbp)	# tmp96, this
.LBB25:
.LBB26:
# /usr/include/c++/12/bits/basic_string.h:358: 	return _M_local_data();
	.loc 5 358 22
	movq	-8(%rbp), %rax	# this, tmp97
	movq	%rax, %rdi	# tmp97,
	call	_ZNSt7__cxx1112basic_stringIcSt11char_traitsIcESaIcEE13_M_local_dataEv@PLT	#
# /usr/include/c++/12/bits/basic_string.h:358: 	return _M_local_data();
	.loc 5 358 23
	nop	
.L104:
.LBE26:
.LBE25:
# /usr/include/c++/12/bits/basic_string.tcc:241: 	} __guard(this);
	.loc 10 241 4
	movq	-40(%rbp), %rdx	# this, tmp98
	leaq	-24(%rbp), %rax	#, tmp99
	movq	%rdx, %rsi	# tmp98,
	movq	%rax, %rdi	# tmp99,
	call	_ZZNSt7__cxx1112basic_stringIcSt11char_traitsIcESaIcEE12_M_constructIPKcEEvT_S8_St20forward_iterator_tagEN6_GuardC1EPS4_	#
# /usr/include/c++/12/bits/basic_string.tcc:243: 	this->_S_copy_chars(_M_data(), __beg, __end);
	.loc 10 243 21
	movq	-40(%rbp), %rax	# this, tmp100
	movq	%rax, %rdi	# tmp100,
	call	_ZNKSt7__cxx1112basic_stringIcSt11char_traitsIcESaIcEE7_M_dataEv@PLT	#
	movq	%rax, %rcx	#, _6
	movq	-56(%rbp), %rdx	# __end, tmp101
	movq	-48(%rbp), %rax	# __beg, tmp102
	movq	%rax, %rsi	# tmp102,
	movq	%rcx, %rdi	# _6,
	call	_ZNSt7__cxx1112basic_stringIcSt11char_traitsIcESaIcEE13_S_copy_charsEPcPKcS7_@PLT	#
# /usr/include/c++/12/bits/basic_string.tcc:245: 	__guard._M_guarded = 0;
	.loc 10 245 21
	movq	$0, -24(%rbp)	#, __guard._M_guarded
# /usr/include/c++/12/bits/basic_string.tcc:247: 	_M_set_length(__dnew);
	.loc 10 247 15
	movq	-16(%rbp), %rdx	# __dnew, __dnew.4_7
	movq	-40(%rbp), %rax	# this, tmp103
	movq	%rdx, %rsi	# __dnew.4_7,
	movq	%rax, %rdi	# tmp103,
	call	_ZNSt7__cxx1112basic_stringIcSt11char_traitsIcESaIcEE13_M_set_lengthEm@PLT	#
# /usr/include/c++/12/bits/basic_string.tcc:248:       }
	.loc 10 248 7
	leaq	-24(%rbp), %rax	#, tmp104
	movq	%rax, %rdi	# tmp104,
	call	_ZZNSt7__cxx1112basic_stringIcSt11char_traitsIcESaIcEE12_M_constructIPKcEEvT_S8_St20forward_iterator_tagEN6_GuardD1Ev	#
	leave	
	.cfi_def_cfa 7, 8
	ret	
	.cfi_endproc
.LFE2890:
	.size	_ZNSt7__cxx1112basic_stringIcSt11char_traitsIcESaIcEE12_M_constructIPKcEEvT_S8_St20forward_iterator_tag, .-_ZNSt7__cxx1112basic_stringIcSt11char_traitsIcESaIcEE12_M_constructIPKcEEvT_S8_St20forward_iterator_tag
	.section	.text._ZNSt12_Vector_baseIiSaIiEE12_Vector_implC2Ev,"axG",@progbits,_ZNSt12_Vector_baseIiSaIiEE12_Vector_implC5Ev,comdat
	.align 2
	.weak	_ZNSt12_Vector_baseIiSaIiEE12_Vector_implC2Ev
	.type	_ZNSt12_Vector_baseIiSaIiEE12_Vector_implC2Ev, @function
_ZNSt12_Vector_baseIiSaIiEE12_Vector_implC2Ev:
.LFB2961:
	.loc 9 137 2
	.cfi_startproc
	pushq	%rbp	#
	.cfi_def_cfa_offset 16
	.cfi_offset 6, -16
	movq	%rsp, %rbp	#,
	.cfi_def_cfa_register 6
	subq	$16, %rsp	#,
	movq	%rdi, -8(%rbp)	# this, this
.LBB27:
# /usr/include/c++/12/bits/stl_vector.h:139: 	: _Tp_alloc_type()
	.loc 9 139 19
	movq	-8(%rbp), %rax	# this, tmp83
	movq	%rax, %rdi	# tmp83,
	call	_ZNSaIiEC2Ev	#
	movq	-8(%rbp), %rax	# this, _1
	movq	%rax, %rdi	# _1,
	call	_ZNSt12_Vector_baseIiSaIiEE17_Vector_impl_dataC2Ev	#
.LBE27:
# /usr/include/c++/12/bits/stl_vector.h:140: 	{ }
	.loc 9 140 4
	nop	
	leave	
	.cfi_def_cfa 7, 8
	ret	
	.cfi_endproc
.LFE2961:
	.size	_ZNSt12_Vector_baseIiSaIiEE12_Vector_implC2Ev, .-_ZNSt12_Vector_baseIiSaIiEE12_Vector_implC2Ev
	.weak	_ZNSt12_Vector_baseIiSaIiEE12_Vector_implC1Ev
	.set	_ZNSt12_Vector_baseIiSaIiEE12_Vector_implC1Ev,_ZNSt12_Vector_baseIiSaIiEE12_Vector_implC2Ev
	.section	.text._ZNSaIiED2Ev,"axG",@progbits,_ZNSaIiED5Ev,comdat
	.align 2
	.weak	_ZNSaIiED2Ev
	.type	_ZNSaIiED2Ev, @function
_ZNSaIiED2Ev:
.LFB2964:
	.file 11 "/usr/include/c++/12/bits/allocator.h"
	.loc 11 174 7
	.cfi_startproc
	pushq	%rbp	#
	.cfi_def_cfa_offset 16
	.cfi_offset 6, -16
	movq	%rsp, %rbp	#,
	.cfi_def_cfa_register 6
	subq	$16, %rsp	#,
	movq	%rdi, -8(%rbp)	# this, this
.LBB28:
# /usr/include/c++/12/bits/allocator.h:174:       ~allocator() _GLIBCXX_NOTHROW { }
	.loc 11 174 39
	movq	-8(%rbp), %rax	# this, tmp82
	movq	%rax, %rdi	# tmp82,
	call	_ZNSt15__new_allocatorIiED2Ev	#
.LBE28:
	nop	
	leave	
	.cfi_def_cfa 7, 8
	ret	
	.cfi_endproc
.LFE2964:
	.size	_ZNSaIiED2Ev, .-_ZNSaIiED2Ev
	.weak	_ZNSaIiED1Ev
	.set	_ZNSaIiED1Ev,_ZNSaIiED2Ev
	.section	.text._ZNSt12_Vector_baseIiSaIiEED2Ev,"axG",@progbits,_ZNSt12_Vector_baseIiSaIiEED5Ev,comdat
	.align 2
	.weak	_ZNSt12_Vector_baseIiSaIiEED2Ev
	.type	_ZNSt12_Vector_baseIiSaIiEED2Ev, @function
_ZNSt12_Vector_baseIiSaIiEED2Ev:
.LFB2967:
	.loc 9 364 7
	.cfi_startproc
	.cfi_personality 0x9b,DW.ref.__gxx_personality_v0
	.cfi_lsda 0x1b,.LLSDA2967
	pushq	%rbp	#
	.cfi_def_cfa_offset 16
	.cfi_offset 6, -16
	movq	%rsp, %rbp	#,
	.cfi_def_cfa_register 6
	subq	$16, %rsp	#,
	movq	%rdi, -8(%rbp)	# this, this
.LBB29:
# /usr/include/c++/12/bits/stl_vector.h:367: 		      _M_impl._M_end_of_storage - _M_impl._M_start);
	.loc 9 367 17
	movq	-8(%rbp), %rax	# this, tmp89
	movq	16(%rax), %rdx	# this_9(D)->_M_impl.D.58179._M_end_of_storage, _1
# /usr/include/c++/12/bits/stl_vector.h:367: 		      _M_impl._M_end_of_storage - _M_impl._M_start);
	.loc 9 367 45
	movq	-8(%rbp), %rax	# this, tmp90
	movq	(%rax), %rax	# this_9(D)->_M_impl.D.58179._M_start, _2
# /usr/include/c++/12/bits/stl_vector.h:367: 		      _M_impl._M_end_of_storage - _M_impl._M_start);
	.loc 9 367 35
	subq	%rax, %rdx	# _2, _3
	movq	%rdx, %rax	# _3, _3
	sarq	$2, %rax	#, _3
# /usr/include/c++/12/bits/stl_vector.h:366: 	_M_deallocate(_M_impl._M_start,
	.loc 9 366 15
	movq	%rax, %rdx	# _4, _5
	movq	-8(%rbp), %rax	# this, tmp92
	movq	(%rax), %rcx	# this_9(D)->_M_impl.D.58179._M_start, _6
	movq	-8(%rbp), %rax	# this, tmp93
	movq	%rcx, %rsi	# _6,
	movq	%rax, %rdi	# tmp93,
	call	_ZNSt12_Vector_baseIiSaIiEE13_M_deallocateEPim	#
# /usr/include/c++/12/bits/stl_vector.h:368:       }
	.loc 9 368 7
	movq	-8(%rbp), %rax	# this, _7
	movq	%rax, %rdi	# _7,
	call	_ZNSt12_Vector_baseIiSaIiEE12_Vector_implD1Ev	#
.LBE29:
	nop	
	leave	
	.cfi_def_cfa 7, 8
	ret	
	.cfi_endproc
.LFE2967:
	.section	.gcc_except_table
.LLSDA2967:
	.byte	0xff
	.byte	0xff
	.byte	0x1
	.uleb128 .LLSDACSE2967-.LLSDACSB2967
.LLSDACSB2967:
.LLSDACSE2967:
	.section	.text._ZNSt12_Vector_baseIiSaIiEED2Ev,"axG",@progbits,_ZNSt12_Vector_baseIiSaIiEED5Ev,comdat
	.size	_ZNSt12_Vector_baseIiSaIiEED2Ev, .-_ZNSt12_Vector_baseIiSaIiEED2Ev
	.weak	_ZNSt12_Vector_baseIiSaIiEED1Ev
	.set	_ZNSt12_Vector_baseIiSaIiEED1Ev,_ZNSt12_Vector_baseIiSaIiEED2Ev
	.section	.text._ZNSaIlEC2Ev,"axG",@progbits,_ZNSaIlEC5Ev,comdat
	.align 2
	.weak	_ZNSaIlEC2Ev
	.type	_ZNSaIlEC2Ev, @function
_ZNSaIlEC2Ev:
.LFB2970:
	.loc 11 156 7
	.cfi_startproc
	pushq	%rbp	#
	.cfi_def_cfa_offset 16
	.cfi_offset 6, -16
	movq	%rsp, %rbp	#,
	.cfi_def_cfa_register 6
	subq	$16, %rsp	#,
	movq	%rdi, -8(%rbp)	# this, this
.LBB30:
# /usr/include/c++/12/bits/allocator.h:156:       allocator() _GLIBCXX_NOTHROW { }
	.loc 11 156 36
	movq	-8(%rbp), %rax	# this, tmp82
	movq	%rax, %rdi	# tmp82,
	call	_ZNSt15__new_allocatorIlEC2Ev	#
.LBE30:
# /usr/include/c++/12/bits/allocator.h:156:       allocator() _GLIBCXX_NOTHROW { }
	.loc 11 156 38
	nop	
	leave	
	.cfi_def_cfa 7, 8
	ret	
	.cfi_endproc
.LFE2970:
	.size	_ZNSaIlEC2Ev, .-_ZNSaIlEC2Ev
	.weak	_ZNSaIlEC1Ev
	.set	_ZNSaIlEC1Ev,_ZNSaIlEC2Ev
	.section	.text._ZNSaIlED2Ev,"axG",@progbits,_ZNSaIlED5Ev,comdat
	.align 2
	.weak	_ZNSaIlED2Ev
	.type	_ZNSaIlED2Ev, @function
_ZNSaIlED2Ev:
.LFB2973:
	.loc 11 174 7
	.cfi_startproc
	pushq	%rbp	#
	.cfi_def_cfa_offset 16
	.cfi_offset 6, -16
	movq	%rsp, %rbp	#,
	.cfi_def_cfa_register 6
	subq	$16, %rsp	#,
	movq	%rdi, -8(%rbp)	# this, this
.LBB31:
# /usr/include/c++/12/bits/allocator.h:174:       ~allocator() _GLIBCXX_NOTHROW { }
	.loc 11 174 39
	movq	-8(%rbp), %rax	# this, tmp82
	movq	%rax, %rdi	# tmp82,
	call	_ZNSt15__new_allocatorIlED2Ev	#
.LBE31:
	nop	
	leave	
	.cfi_def_cfa 7, 8
	ret	
	.cfi_endproc
.LFE2973:
	.size	_ZNSaIlED2Ev, .-_ZNSaIlED2Ev
	.weak	_ZNSaIlED1Ev
	.set	_ZNSaIlED1Ev,_ZNSaIlED2Ev
	.section	.text._ZNSt6vectorIlSaIlEEC2ESt16initializer_listIlERKS0_,"axG",@progbits,_ZNSt6vectorIlSaIlEEC5ESt16initializer_listIlERKS0_,comdat
	.align 2
	.weak	_ZNSt6vectorIlSaIlEEC2ESt16initializer_listIlERKS0_
	.type	_ZNSt6vectorIlSaIlEEC2ESt16initializer_listIlERKS0_, @function
_ZNSt6vectorIlSaIlEEC2ESt16initializer_listIlERKS0_:
.LFB2976:
	.loc 9 673 7
	.cfi_startproc
	.cfi_personality 0x9b,DW.ref.__gxx_personality_v0
	.cfi_lsda 0x1b,.LLSDA2976
	pushq	%rbp	#
	.cfi_def_cfa_offset 16
	.cfi_offset 6, -16
	movq	%rsp, %rbp	#,
	.cfi_def_cfa_register 6
	pushq	%rbx	#
	subq	$56, %rsp	#,
	.cfi_offset 3, -24
	movq	%rdi, -40(%rbp)	# this, this
	movq	%rsi, %rax	# __l, tmp90
	movq	%rdx, %rsi	# __l, tmp91
	movq	%rsi, %rdx	# tmp91,
	movq	%rax, -64(%rbp)	# tmp89, __l
	movq	%rdx, -56(%rbp)	#, __l
	movq	%rcx, -48(%rbp)	# __a, __a
.LBB32:
# /usr/include/c++/12/bits/stl_vector.h:675:       : _Base(__a)
	.loc 9 675 18
	movq	-40(%rbp), %rax	# this, _1
	movq	-48(%rbp), %rdx	# __a, tmp92
	movq	%rdx, %rsi	# tmp92,
	movq	%rax, %rdi	# _1,
	call	_ZNSt12_Vector_baseIlSaIlEEC2ERKS0_	#
# /usr/include/c++/12/bits/stl_vector.h:677: 	_M_range_initialize(__l.begin(), __l.end(),
	.loc 9 677 21
	leaq	-64(%rbp), %rax	#, tmp93
	movq	%rax, %rdi	# tmp93,
	call	_ZNKSt16initializer_listIlE3endEv	#
	movq	%rax, %rbx	#, _3
	leaq	-64(%rbp), %rax	#, tmp94
	movq	%rax, %rdi	# tmp94,
	call	_ZNKSt16initializer_listIlE5beginEv	#
	movq	%rax, %rcx	#, _4
	movq	-40(%rbp), %rax	# this, tmp95
	movq	%rbx, %rdx	# _3,
	movq	%rcx, %rsi	# _4,
	movq	%rax, %rdi	# tmp95,
.LEHB23:
	call	_ZNSt6vectorIlSaIlEE19_M_range_initializeIPKlEEvT_S5_St20forward_iterator_tag	#
.LEHE23:
.LBE32:
# /usr/include/c++/12/bits/stl_vector.h:679:       }
	.loc 9 679 7
	jmp	.L114	#
.L113:
.LBB33:
	movq	%rax, %rbx	#, tmp96
	movq	-40(%rbp), %rax	# this, _5
	movq	%rax, %rdi	# _5,
	call	_ZNSt12_Vector_baseIlSaIlEED2Ev	#
	movq	%rbx, %rax	# tmp96, D.66500
	movq	%rax, %rdi	# D.66500,
.LEHB24:
	call	_Unwind_Resume@PLT	#
.LEHE24:
.L114:
.LBE33:
	movq	-8(%rbp), %rbx	#,
	leave	
	.cfi_def_cfa 7, 8
	ret	
	.cfi_endproc
.LFE2976:
	.section	.gcc_except_table
.LLSDA2976:
	.byte	0xff
	.byte	0xff
	.byte	0x1
	.uleb128 .LLSDACSE2976-.LLSDACSB2976
.LLSDACSB2976:
	.uleb128 .LEHB23-.LFB2976
	.uleb128 .LEHE23-.LEHB23
	.uleb128 .L113-.LFB2976
	.uleb128 0
	.uleb128 .LEHB24-.LFB2976
	.uleb128 .LEHE24-.LEHB24
	.uleb128 0
	.uleb128 0
.LLSDACSE2976:
	.section	.text._ZNSt6vectorIlSaIlEEC2ESt16initializer_listIlERKS0_,"axG",@progbits,_ZNSt6vectorIlSaIlEEC5ESt16initializer_listIlERKS0_,comdat
	.size	_ZNSt6vectorIlSaIlEEC2ESt16initializer_listIlERKS0_, .-_ZNSt6vectorIlSaIlEEC2ESt16initializer_listIlERKS0_
	.weak	_ZNSt6vectorIlSaIlEEC1ESt16initializer_listIlERKS0_
	.set	_ZNSt6vectorIlSaIlEEC1ESt16initializer_listIlERKS0_,_ZNSt6vectorIlSaIlEEC2ESt16initializer_listIlERKS0_
	.section	.text._ZNSt6vectorIlSaIlEE5beginEv,"axG",@progbits,_ZNSt6vectorIlSaIlEE5beginEv,comdat
	.align 2
	.weak	_ZNSt6vectorIlSaIlEE5beginEv
	.type	_ZNSt6vectorIlSaIlEE5beginEv, @function
_ZNSt6vectorIlSaIlEE5beginEv:
.LFB2978:
	.loc 9 868 7
	.cfi_startproc
	pushq	%rbp	#
	.cfi_def_cfa_offset 16
	.cfi_offset 6, -16
	movq	%rsp, %rbp	#,
	.cfi_def_cfa_register 6
	subq	$32, %rsp	#,
	movq	%rdi, -24(%rbp)	# this, this
# /usr/include/c++/12/bits/stl_vector.h:869:       { return iterator(this->_M_impl._M_start); }
	.loc 9 869 39
	movq	-24(%rbp), %rdx	# this, _1
# /usr/include/c++/12/bits/stl_vector.h:869:       { return iterator(this->_M_impl._M_start); }
	.loc 9 869 16
	leaq	-8(%rbp), %rax	#, tmp85
	movq	%rdx, %rsi	# _1,
	movq	%rax, %rdi	# tmp85,
	call	_ZN9__gnu_cxx17__normal_iteratorIPlSt6vectorIlSaIlEEEC1ERKS1_	#
# /usr/include/c++/12/bits/stl_vector.h:869:       { return iterator(this->_M_impl._M_start); }
	.loc 9 869 47
	movq	-8(%rbp), %rax	# D.63478, D.66011
# /usr/include/c++/12/bits/stl_vector.h:869:       { return iterator(this->_M_impl._M_start); }
	.loc 9 869 50
	leave	
	.cfi_def_cfa 7, 8
	ret	
	.cfi_endproc
.LFE2978:
	.size	_ZNSt6vectorIlSaIlEE5beginEv, .-_ZNSt6vectorIlSaIlEE5beginEv
	.section	.text._ZNSt6vectorIlSaIlEE3endEv,"axG",@progbits,_ZNSt6vectorIlSaIlEE3endEv,comdat
	.align 2
	.weak	_ZNSt6vectorIlSaIlEE3endEv
	.type	_ZNSt6vectorIlSaIlEE3endEv, @function
_ZNSt6vectorIlSaIlEE3endEv:
.LFB2979:
	.loc 9 888 7
	.cfi_startproc
	pushq	%rbp	#
	.cfi_def_cfa_offset 16
	.cfi_offset 6, -16
	movq	%rsp, %rbp	#,
	.cfi_def_cfa_register 6
	subq	$32, %rsp	#,
	movq	%rdi, -24(%rbp)	# this, this
# /usr/include/c++/12/bits/stl_vector.h:889:       { return iterator(this->_M_impl._M_finish); }
	.loc 9 889 39
	movq	-24(%rbp), %rax	# this, tmp85
	leaq	8(%rax), %rdx	#, _1
# /usr/include/c++/12/bits/stl_vector.h:889:       { return iterator(this->_M_impl._M_finish); }
	.loc 9 889 16
	leaq	-8(%rbp), %rax	#, tmp86
	movq	%rdx, %rsi	# _1,
	movq	%rax, %rdi	# tmp86,
	call	_ZN9__gnu_cxx17__normal_iteratorIPlSt6vectorIlSaIlEEEC1ERKS1_	#
# /usr/include/c++/12/bits/stl_vector.h:889:       { return iterator(this->_M_impl._M_finish); }
	.loc 9 889 48
	movq	-8(%rbp), %rax	# D.63480, D.66008
# /usr/include/c++/12/bits/stl_vector.h:889:       { return iterator(this->_M_impl._M_finish); }
	.loc 9 889 51
	leave	
	.cfi_def_cfa 7, 8
	ret	
	.cfi_endproc
.LFE2979:
	.size	_ZNSt6vectorIlSaIlEE3endEv, .-_ZNSt6vectorIlSaIlEE3endEv
	.section	.text._ZSt8for_eachIN9__gnu_cxx17__normal_iteratorIPlSt6vectorIlSaIlEEEEZN9container7details18tensor_base_staticIiJLl2ELl3ELl4ELl5EEEC4EvEUliE_ET0_T_SD_SC_,"axG",@progbits,_ZSt8for_eachIN9__gnu_cxx17__normal_iteratorIPlSt6vectorIlSaIlEEEEZN9container7details18tensor_base_staticIiJLl2ELl3ELl4ELl5EEEC4EvEUliE_ET0_T_SD_SC_,comdat
	.weak	_ZSt8for_eachIN9__gnu_cxx17__normal_iteratorIPlSt6vectorIlSaIlEEEEZN9container7details18tensor_base_staticIiJLl2ELl3ELl4ELl5EEEC4EvEUliE_ET0_T_SD_SC_
	.type	_ZSt8for_eachIN9__gnu_cxx17__normal_iteratorIPlSt6vectorIlSaIlEEEEZN9container7details18tensor_base_staticIiJLl2ELl3ELl4ELl5EEEC4EvEUliE_ET0_T_SD_SC_, @function
_ZSt8for_eachIN9__gnu_cxx17__normal_iteratorIPlSt6vectorIlSaIlEEEEZN9container7details18tensor_base_staticIiJLl2ELl3ELl4ELl5EEEC4EvEUliE_ET0_T_SD_SC_:
.LFB2980:
	.file 12 "/usr/include/c++/12/bits/stl_algo.h"
	.loc 12 3781 5
	.cfi_startproc
	pushq	%rbp	#
	.cfi_def_cfa_offset 16
	.cfi_offset 6, -16
	movq	%rsp, %rbp	#,
	.cfi_def_cfa_register 6
	subq	$32, %rsp	#,
	movq	%rdi, -8(%rbp)	# __first, __first
	movq	%rsi, -16(%rbp)	# __last, __last
	movq	%rdx, -24(%rbp)	# __f, __f
# /usr/include/c++/12/bits/stl_algo.h:3786:       for (; __first != __last; ++__first)
	.loc 12 3786 7
	jmp	.L120	#
.L121:
# /usr/include/c++/12/bits/stl_algo.h:3787: 	__f(*__first);
	.loc 12 3787 6 discriminator 2
	leaq	-8(%rbp), %rax	#, tmp88
	movq	%rax, %rdi	# tmp88,
	call	_ZNK9__gnu_cxx17__normal_iteratorIPlSt6vectorIlSaIlEEEdeEv	#
# /usr/include/c++/12/bits/stl_algo.h:3787: 	__f(*__first);
	.loc 12 3787 5 discriminator 2
	movq	(%rax), %rax	# *_1, _2
	movl	%eax, %edx	# _2, _3
	leaq	-24(%rbp), %rax	#, tmp89
	movl	%edx, %esi	# _3,
	movq	%rax, %rdi	# tmp89,
	call	_ZZN9container7details18tensor_base_staticIiJLl2ELl3ELl4ELl5EEEC4EvENKUliE_clEi	#
# /usr/include/c++/12/bits/stl_algo.h:3786:       for (; __first != __last; ++__first)
	.loc 12 3786 33 discriminator 2
	leaq	-8(%rbp), %rax	#, tmp90
	movq	%rax, %rdi	# tmp90,
	call	_ZN9__gnu_cxx17__normal_iteratorIPlSt6vectorIlSaIlEEEppEv	#
.L120:
# /usr/include/c++/12/bits/stl_algo.h:3786:       for (; __first != __last; ++__first)
	.loc 12 3786 22 discriminator 1
	leaq	-16(%rbp), %rdx	#, tmp91
	leaq	-8(%rbp), %rax	#, tmp92
	movq	%rdx, %rsi	# tmp91,
	movq	%rax, %rdi	# tmp92,
	call	_ZN9__gnu_cxxneIPlSt6vectorIlSaIlEEEEbRKNS_17__normal_iteratorIT_T0_EESA_	#
	testb	%al, %al	# retval.22_7
	jne	.L121	#,
# /usr/include/c++/12/bits/stl_algo.h:3788:       return __f; // N.B. [alg.foreach] says std::move(f) but it's redundant.
	.loc 12 3788 14
	movq	-24(%rbp), %rax	# __f, D.66015
# /usr/include/c++/12/bits/stl_algo.h:3789:     }
	.loc 12 3789 5
	leave	
	.cfi_def_cfa 7, 8
	ret	
	.cfi_endproc
.LFE2980:
	.size	_ZSt8for_eachIN9__gnu_cxx17__normal_iteratorIPlSt6vectorIlSaIlEEEEZN9container7details18tensor_base_staticIiJLl2ELl3ELl4ELl5EEEC4EvEUliE_ET0_T_SD_SC_, .-_ZSt8for_eachIN9__gnu_cxx17__normal_iteratorIPlSt6vectorIlSaIlEEEEZN9container7details18tensor_base_staticIiJLl2ELl3ELl4ELl5EEEC4EvEUliE_ET0_T_SD_SC_
	.section	.text._ZNSt6vectorIiSaIiEE6resizeEm,"axG",@progbits,_ZNSt6vectorIiSaIiEE6resizeEm,comdat
	.align 2
	.weak	_ZNSt6vectorIiSaIiEE6resizeEm
	.type	_ZNSt6vectorIiSaIiEE6resizeEm, @function
_ZNSt6vectorIiSaIiEE6resizeEm:
.LFB2981:
	.loc 9 1008 7
	.cfi_startproc
	pushq	%rbp	#
	.cfi_def_cfa_offset 16
	.cfi_offset 6, -16
	movq	%rsp, %rbp	#,
	.cfi_def_cfa_register 6
	subq	$16, %rsp	#,
	movq	%rdi, -8(%rbp)	# this, this
	movq	%rsi, -16(%rbp)	# __new_size, __new_size
# /usr/include/c++/12/bits/stl_vector.h:1010: 	if (__new_size > size())
	.loc 9 1010 23
	movq	-8(%rbp), %rax	# this, tmp91
	movq	%rax, %rdi	# tmp91,
	call	_ZNKSt6vectorIiSaIiEE4sizeEv	#
# /usr/include/c++/12/bits/stl_vector.h:1010: 	if (__new_size > size())
	.loc 9 1010 17
	cmpq	-16(%rbp), %rax	# __new_size, _1
	setb	%al	#, retval.23_13
# /usr/include/c++/12/bits/stl_vector.h:1010: 	if (__new_size > size())
	.loc 9 1010 2
	testb	%al, %al	# retval.23_13
	je	.L124	#,
# /usr/include/c++/12/bits/stl_vector.h:1011: 	  _M_default_append(__new_size - size());
	.loc 9 1011 39
	movq	-8(%rbp), %rax	# this, tmp92
	movq	%rax, %rdi	# tmp92,
	call	_ZNKSt6vectorIiSaIiEE4sizeEv	#
# /usr/include/c++/12/bits/stl_vector.h:1011: 	  _M_default_append(__new_size - size());
	.loc 9 1011 21
	movq	-16(%rbp), %rdx	# __new_size, tmp93
	subq	%rax, %rdx	# _2, _3
	movq	-8(%rbp), %rax	# this, tmp94
	movq	%rdx, %rsi	# _3,
	movq	%rax, %rdi	# tmp94,
	call	_ZNSt6vectorIiSaIiEE17_M_default_appendEm	#
# /usr/include/c++/12/bits/stl_vector.h:1014:       }
	.loc 9 1014 7
	jmp	.L126	#
.L124:
# /usr/include/c++/12/bits/stl_vector.h:1012: 	else if (__new_size < size())
	.loc 9 1012 28
	movq	-8(%rbp), %rax	# this, tmp95
	movq	%rax, %rdi	# tmp95,
	call	_ZNKSt6vectorIiSaIiEE4sizeEv	#
# /usr/include/c++/12/bits/stl_vector.h:1012: 	else if (__new_size < size())
	.loc 9 1012 22
	cmpq	%rax, -16(%rbp)	# _4, __new_size
	setb	%al	#, retval.24_15
# /usr/include/c++/12/bits/stl_vector.h:1012: 	else if (__new_size < size())
	.loc 9 1012 7
	testb	%al, %al	# retval.24_15
	je	.L126	#,
# /usr/include/c++/12/bits/stl_vector.h:1013: 	  _M_erase_at_end(this->_M_impl._M_start + __new_size);
	.loc 9 1013 34
	movq	-8(%rbp), %rax	# this, tmp96
	movq	(%rax), %rax	# this_10(D)->D.58840._M_impl.D.58179._M_start, _5
# /usr/include/c++/12/bits/stl_vector.h:1013: 	  _M_erase_at_end(this->_M_impl._M_start + __new_size);
	.loc 9 1013 43
	movq	-16(%rbp), %rdx	# __new_size, tmp97
	salq	$2, %rdx	#, _6
# /usr/include/c++/12/bits/stl_vector.h:1013: 	  _M_erase_at_end(this->_M_impl._M_start + __new_size);
	.loc 9 1013 19
	addq	%rax, %rdx	# _5, _7
	movq	-8(%rbp), %rax	# this, tmp98
	movq	%rdx, %rsi	# _7,
	movq	%rax, %rdi	# tmp98,
	call	_ZNSt6vectorIiSaIiEE15_M_erase_at_endEPi	#
.L126:
# /usr/include/c++/12/bits/stl_vector.h:1014:       }
	.loc 9 1014 7
	nop	
	leave	
	.cfi_def_cfa 7, 8
	ret	
	.cfi_endproc
.LFE2981:
	.size	_ZNSt6vectorIiSaIiEE6resizeEm, .-_ZNSt6vectorIiSaIiEE6resizeEm
	.section	.text._ZNSt12_Vector_baseIiSaIiEE19_M_get_Tp_allocatorEv,"axG",@progbits,_ZNSt12_Vector_baseIiSaIiEE19_M_get_Tp_allocatorEv,comdat
	.align 2
	.weak	_ZNSt12_Vector_baseIiSaIiEE19_M_get_Tp_allocatorEv
	.type	_ZNSt12_Vector_baseIiSaIiEE19_M_get_Tp_allocatorEv, @function
_ZNSt12_Vector_baseIiSaIiEE19_M_get_Tp_allocatorEv:
.LFB2982:
	.loc 9 298 7
	.cfi_startproc
	pushq	%rbp	#
	.cfi_def_cfa_offset 16
	.cfi_offset 6, -16
	movq	%rsp, %rbp	#,
	.cfi_def_cfa_register 6
	movq	%rdi, -8(%rbp)	# this, this
# /usr/include/c++/12/bits/stl_vector.h:299:       { return this->_M_impl; }
	.loc 9 299 22
	movq	-8(%rbp), %rax	# this, _2
# /usr/include/c++/12/bits/stl_vector.h:299:       { return this->_M_impl; }
	.loc 9 299 31
	popq	%rbp	#
	.cfi_def_cfa 7, 8
	ret	
	.cfi_endproc
.LFE2982:
	.size	_ZNSt12_Vector_baseIiSaIiEE19_M_get_Tp_allocatorEv, .-_ZNSt12_Vector_baseIiSaIiEE19_M_get_Tp_allocatorEv
	.section	.text._ZSt8_DestroyIPiiEvT_S1_RSaIT0_E,"axG",@progbits,_ZSt8_DestroyIPiiEvT_S1_RSaIT0_E,comdat
	.weak	_ZSt8_DestroyIPiiEvT_S1_RSaIT0_E
	.type	_ZSt8_DestroyIPiiEvT_S1_RSaIT0_E, @function
_ZSt8_DestroyIPiiEvT_S1_RSaIT0_E:
.LFB2983:
	.file 13 "/usr/include/c++/12/bits/alloc_traits.h"
	.loc 13 847 5
	.cfi_startproc
	pushq	%rbp	#
	.cfi_def_cfa_offset 16
	.cfi_offset 6, -16
	movq	%rsp, %rbp	#,
	.cfi_def_cfa_register 6
	subq	$32, %rsp	#,
	movq	%rdi, -8(%rbp)	# __first, __first
	movq	%rsi, -16(%rbp)	# __last, __last
	movq	%rdx, -24(%rbp)	# D.63535, D.63535
# /usr/include/c++/12/bits/alloc_traits.h:850:       _Destroy(__first, __last);
	.loc 13 850 15
	movq	-16(%rbp), %rdx	# __last, tmp82
	movq	-8(%rbp), %rax	# __first, tmp83
	movq	%rdx, %rsi	# tmp82,
	movq	%rax, %rdi	# tmp83,
	call	_ZSt8_DestroyIPiEvT_S1_	#
# /usr/include/c++/12/bits/alloc_traits.h:851:     }
	.loc 13 851 5
	nop	
	leave	
	.cfi_def_cfa 7, 8
	ret	
	.cfi_endproc
.LFE2983:
	.size	_ZSt8_DestroyIPiiEvT_S1_RSaIT0_E, .-_ZSt8_DestroyIPiiEvT_S1_RSaIT0_E
	.section	.text._ZNSt12_Vector_baseIlSaIlEE12_Vector_implD2Ev,"axG",@progbits,_ZNSt12_Vector_baseIlSaIlEE12_Vector_implD5Ev,comdat
	.align 2
	.weak	_ZNSt12_Vector_baseIlSaIlEE12_Vector_implD2Ev
	.type	_ZNSt12_Vector_baseIlSaIlEE12_Vector_implD2Ev, @function
_ZNSt12_Vector_baseIlSaIlEE12_Vector_implD2Ev:
.LFB2986:
	.loc 9 133 14
	.cfi_startproc
	pushq	%rbp	#
	.cfi_def_cfa_offset 16
	.cfi_offset 6, -16
	movq	%rsp, %rbp	#,
	.cfi_def_cfa_register 6
	subq	$16, %rsp	#,
	movq	%rdi, -8(%rbp)	# this, this
.LBB34:
# /usr/include/c++/12/bits/stl_vector.h:133:       struct _Vector_impl
	.loc 9 133 14
	movq	-8(%rbp), %rax	# this, tmp82
	movq	%rax, %rdi	# tmp82,
	call	_ZNSaIlED2Ev	#
.LBE34:
	nop	
	leave	
	.cfi_def_cfa 7, 8
	ret	
	.cfi_endproc
.LFE2986:
	.size	_ZNSt12_Vector_baseIlSaIlEE12_Vector_implD2Ev, .-_ZNSt12_Vector_baseIlSaIlEE12_Vector_implD2Ev
	.weak	_ZNSt12_Vector_baseIlSaIlEE12_Vector_implD1Ev
	.set	_ZNSt12_Vector_baseIlSaIlEE12_Vector_implD1Ev,_ZNSt12_Vector_baseIlSaIlEE12_Vector_implD2Ev
	.section	.text._ZNSt12_Vector_baseIlSaIlEED2Ev,"axG",@progbits,_ZNSt12_Vector_baseIlSaIlEED5Ev,comdat
	.align 2
	.weak	_ZNSt12_Vector_baseIlSaIlEED2Ev
	.type	_ZNSt12_Vector_baseIlSaIlEED2Ev, @function
_ZNSt12_Vector_baseIlSaIlEED2Ev:
.LFB2988:
	.loc 9 364 7
	.cfi_startproc
	.cfi_personality 0x9b,DW.ref.__gxx_personality_v0
	.cfi_lsda 0x1b,.LLSDA2988
	pushq	%rbp	#
	.cfi_def_cfa_offset 16
	.cfi_offset 6, -16
	movq	%rsp, %rbp	#,
	.cfi_def_cfa_register 6
	subq	$16, %rsp	#,
	movq	%rdi, -8(%rbp)	# this, this
.LBB35:
# /usr/include/c++/12/bits/stl_vector.h:367: 		      _M_impl._M_end_of_storage - _M_impl._M_start);
	.loc 9 367 17
	movq	-8(%rbp), %rax	# this, tmp89
	movq	16(%rax), %rdx	# this_9(D)->_M_impl.D.57041._M_end_of_storage, _1
# /usr/include/c++/12/bits/stl_vector.h:367: 		      _M_impl._M_end_of_storage - _M_impl._M_start);
	.loc 9 367 45
	movq	-8(%rbp), %rax	# this, tmp90
	movq	(%rax), %rax	# this_9(D)->_M_impl.D.57041._M_start, _2
# /usr/include/c++/12/bits/stl_vector.h:367: 		      _M_impl._M_end_of_storage - _M_impl._M_start);
	.loc 9 367 35
	subq	%rax, %rdx	# _2, _3
	movq	%rdx, %rax	# _3, _3
	sarq	$3, %rax	#, _3
# /usr/include/c++/12/bits/stl_vector.h:366: 	_M_deallocate(_M_impl._M_start,
	.loc 9 366 15
	movq	%rax, %rdx	# _4, _5
	movq	-8(%rbp), %rax	# this, tmp92
	movq	(%rax), %rcx	# this_9(D)->_M_impl.D.57041._M_start, _6
	movq	-8(%rbp), %rax	# this, tmp93
	movq	%rcx, %rsi	# _6,
	movq	%rax, %rdi	# tmp93,
	call	_ZNSt12_Vector_baseIlSaIlEE13_M_deallocateEPlm	#
# /usr/include/c++/12/bits/stl_vector.h:368:       }
	.loc 9 368 7
	movq	-8(%rbp), %rax	# this, _7
	movq	%rax, %rdi	# _7,
	call	_ZNSt12_Vector_baseIlSaIlEE12_Vector_implD1Ev	#
.LBE35:
	nop	
	leave	
	.cfi_def_cfa 7, 8
	ret	
	.cfi_endproc
.LFE2988:
	.section	.gcc_except_table
.LLSDA2988:
	.byte	0xff
	.byte	0xff
	.byte	0x1
	.uleb128 .LLSDACSE2988-.LLSDACSB2988
.LLSDACSB2988:
.LLSDACSE2988:
	.section	.text._ZNSt12_Vector_baseIlSaIlEED2Ev,"axG",@progbits,_ZNSt12_Vector_baseIlSaIlEED5Ev,comdat
	.size	_ZNSt12_Vector_baseIlSaIlEED2Ev, .-_ZNSt12_Vector_baseIlSaIlEED2Ev
	.weak	_ZNSt12_Vector_baseIlSaIlEED1Ev
	.set	_ZNSt12_Vector_baseIlSaIlEED1Ev,_ZNSt12_Vector_baseIlSaIlEED2Ev
	.section	.text._ZNSt12_Vector_baseIlSaIlEE19_M_get_Tp_allocatorEv,"axG",@progbits,_ZNSt12_Vector_baseIlSaIlEE19_M_get_Tp_allocatorEv,comdat
	.align 2
	.weak	_ZNSt12_Vector_baseIlSaIlEE19_M_get_Tp_allocatorEv
	.type	_ZNSt12_Vector_baseIlSaIlEE19_M_get_Tp_allocatorEv, @function
_ZNSt12_Vector_baseIlSaIlEE19_M_get_Tp_allocatorEv:
.LFB2990:
	.loc 9 298 7
	.cfi_startproc
	pushq	%rbp	#
	.cfi_def_cfa_offset 16
	.cfi_offset 6, -16
	movq	%rsp, %rbp	#,
	.cfi_def_cfa_register 6
	movq	%rdi, -8(%rbp)	# this, this
# /usr/include/c++/12/bits/stl_vector.h:299:       { return this->_M_impl; }
	.loc 9 299 22
	movq	-8(%rbp), %rax	# this, _2
# /usr/include/c++/12/bits/stl_vector.h:299:       { return this->_M_impl; }
	.loc 9 299 31
	popq	%rbp	#
	.cfi_def_cfa 7, 8
	ret	
	.cfi_endproc
.LFE2990:
	.size	_ZNSt12_Vector_baseIlSaIlEE19_M_get_Tp_allocatorEv, .-_ZNSt12_Vector_baseIlSaIlEE19_M_get_Tp_allocatorEv
	.section	.text._ZSt8_DestroyIPllEvT_S1_RSaIT0_E,"axG",@progbits,_ZSt8_DestroyIPllEvT_S1_RSaIT0_E,comdat
	.weak	_ZSt8_DestroyIPllEvT_S1_RSaIT0_E
	.type	_ZSt8_DestroyIPllEvT_S1_RSaIT0_E, @function
_ZSt8_DestroyIPllEvT_S1_RSaIT0_E:
.LFB2991:
	.loc 13 847 5
	.cfi_startproc
	pushq	%rbp	#
	.cfi_def_cfa_offset 16
	.cfi_offset 6, -16
	movq	%rsp, %rbp	#,
	.cfi_def_cfa_register 6
	subq	$32, %rsp	#,
	movq	%rdi, -8(%rbp)	# __first, __first
	movq	%rsi, -16(%rbp)	# __last, __last
	movq	%rdx, -24(%rbp)	# D.63557, D.63557
# /usr/include/c++/12/bits/alloc_traits.h:850:       _Destroy(__first, __last);
	.loc 13 850 15
	movq	-16(%rbp), %rdx	# __last, tmp82
	movq	-8(%rbp), %rax	# __first, tmp83
	movq	%rdx, %rsi	# tmp82,
	movq	%rax, %rdi	# tmp83,
	call	_ZSt8_DestroyIPlEvT_S1_	#
# /usr/include/c++/12/bits/alloc_traits.h:851:     }
	.loc 13 851 5
	nop	
	leave	
	.cfi_def_cfa 7, 8
	ret	
	.cfi_endproc
.LFE2991:
	.size	_ZSt8_DestroyIPllEvT_S1_RSaIT0_E, .-_ZSt8_DestroyIPllEvT_S1_RSaIT0_E
	.section	.text._ZNKSt6vectorIlSaIlEE4sizeEv,"axG",@progbits,_ZNKSt6vectorIlSaIlEE4sizeEv,comdat
	.align 2
	.weak	_ZNKSt6vectorIlSaIlEE4sizeEv
	.type	_ZNKSt6vectorIlSaIlEE4sizeEv, @function
_ZNKSt6vectorIlSaIlEE4sizeEv:
.LFB2992:
	.loc 9 987 7
	.cfi_startproc
	pushq	%rbp	#
	.cfi_def_cfa_offset 16
	.cfi_offset 6, -16
	movq	%rsp, %rbp	#,
	.cfi_def_cfa_register 6
	movq	%rdi, -8(%rbp)	# this, this
# /usr/include/c++/12/bits/stl_vector.h:988:       { return size_type(this->_M_impl._M_finish - this->_M_impl._M_start); }
	.loc 9 988 40
	movq	-8(%rbp), %rax	# this, tmp88
	movq	8(%rax), %rdx	# this_6(D)->D.57729._M_impl.D.57041._M_finish, _1
# /usr/include/c++/12/bits/stl_vector.h:988:       { return size_type(this->_M_impl._M_finish - this->_M_impl._M_start); }
	.loc 9 988 66
	movq	-8(%rbp), %rax	# this, tmp89
	movq	(%rax), %rax	# this_6(D)->D.57729._M_impl.D.57041._M_start, _2
# /usr/include/c++/12/bits/stl_vector.h:988:       { return size_type(this->_M_impl._M_finish - this->_M_impl._M_start); }
	.loc 9 988 50
	subq	%rax, %rdx	# _2, _3
	movq	%rdx, %rax	# _3, _3
	sarq	$3, %rax	#, _3
# /usr/include/c++/12/bits/stl_vector.h:988:       { return size_type(this->_M_impl._M_finish - this->_M_impl._M_start); }
	.loc 9 988 77
	popq	%rbp	#
	.cfi_def_cfa 7, 8
	ret	
	.cfi_endproc
.LFE2992:
	.size	_ZNKSt6vectorIlSaIlEE4sizeEv, .-_ZNKSt6vectorIlSaIlEE4sizeEv
	.section	.text._ZNK9container7details18tensor_base_staticIiJLl2ELl3ELl4ELl5EEE5orderEv,"axG",@progbits,_ZNK9container7details18tensor_base_staticIiJLl2ELl3ELl4ELl5EEE5orderEv,comdat
	.align 2
	.weak	_ZNK9container7details18tensor_base_staticIiJLl2ELl3ELl4ELl5EEE5orderEv
	.type	_ZNK9container7details18tensor_base_staticIiJLl2ELl3ELl4ELl5EEE5orderEv, @function
_ZNK9container7details18tensor_base_staticIiJLl2ELl3ELl4ELl5EEE5orderEv:
.LFB2993:
	.loc 6 65 33
	.cfi_startproc
	pushq	%rbp	#
	.cfi_def_cfa_offset 16
	.cfi_offset 6, -16
	movq	%rsp, %rbp	#,
	.cfi_def_cfa_register 6
	subq	$16, %rsp	#,
	movq	%rdi, -8(%rbp)	# this, this
# Tensor.hpp:67:                 return _dims.size();
	.loc 6 67 34
	movq	-8(%rbp), %rax	# this, tmp86
	addq	$24, %rax	#, _1
	movq	%rax, %rdi	# _1,
	call	_ZNKSt6vectorIlSaIlEE4sizeEv	#
# Tensor.hpp:68:             }
	.loc 6 68 13
	leave	
	.cfi_def_cfa 7, 8
	ret	
	.cfi_endproc
.LFE2993:
	.size	_ZNK9container7details18tensor_base_staticIiJLl2ELl3ELl4ELl5EEE5orderEv, .-_ZNK9container7details18tensor_base_staticIiJLl2ELl3ELl4ELl5EEE5orderEv
	.section	.text._ZNK9container7details18tensor_base_staticIiJLl2ELl3ELl4ELl5EEE4sizeEv,"axG",@progbits,_ZNK9container7details18tensor_base_staticIiJLl2ELl3ELl4ELl5EEE4sizeEv,comdat
	.align 2
	.weak	_ZNK9container7details18tensor_base_staticIiJLl2ELl3ELl4ELl5EEE4sizeEv
	.type	_ZNK9container7details18tensor_base_staticIiJLl2ELl3ELl4ELl5EEE4sizeEv, @function
_ZNK9container7details18tensor_base_staticIiJLl2ELl3ELl4ELl5EEE4sizeEv:
.LFB2994:
	.loc 6 70 33
	.cfi_startproc
	pushq	%rbp	#
	.cfi_def_cfa_offset 16
	.cfi_offset 6, -16
	movq	%rsp, %rbp	#,
	.cfi_def_cfa_register 6
	subq	$16, %rsp	#,
	movq	%rdi, -8(%rbp)	# this, this
# Tensor.hpp:72:                 return _data.size();
	.loc 6 72 34
	movq	-8(%rbp), %rax	# this, _1
	movq	%rax, %rdi	# _1,
	call	_ZNKSt6vectorIiSaIiEE4sizeEv	#
# Tensor.hpp:73:             }
	.loc 6 73 13
	leave	
	.cfi_def_cfa 7, 8
	ret	
	.cfi_endproc
.LFE2994:
	.size	_ZNK9container7details18tensor_base_staticIiJLl2ELl3ELl4ELl5EEE4sizeEv, .-_ZNK9container7details18tensor_base_staticIiJLl2ELl3ELl4ELl5EEE4sizeEv
	.section	.text._ZNSt6vectorIlSaIlEEixEm,"axG",@progbits,_ZNSt6vectorIlSaIlEEixEm,comdat
	.align 2
	.weak	_ZNSt6vectorIlSaIlEEixEm
	.type	_ZNSt6vectorIlSaIlEEixEm, @function
_ZNSt6vectorIlSaIlEEixEm:
.LFB2995:
	.loc 9 1121 7
	.cfi_startproc
	pushq	%rbp	#
	.cfi_def_cfa_offset 16
	.cfi_offset 6, -16
	movq	%rsp, %rbp	#,
	.cfi_def_cfa_register 6
	movq	%rdi, -8(%rbp)	# this, this
	movq	%rsi, -16(%rbp)	# __n, __n
# /usr/include/c++/12/bits/stl_vector.h:1124: 	return *(this->_M_impl._M_start + __n);
	.loc 9 1124 25
	movq	-8(%rbp), %rax	# this, tmp86
	movq	(%rax), %rax	# this_4(D)->D.57729._M_impl.D.57041._M_start, _1
# /usr/include/c++/12/bits/stl_vector.h:1124: 	return *(this->_M_impl._M_start + __n);
	.loc 9 1124 34
	movq	-16(%rbp), %rdx	# __n, tmp87
	salq	$3, %rdx	#, _2
# /usr/include/c++/12/bits/stl_vector.h:1124: 	return *(this->_M_impl._M_start + __n);
	.loc 9 1124 39
	addq	%rdx, %rax	# _2, _6
# /usr/include/c++/12/bits/stl_vector.h:1125:       }
	.loc 9 1125 7
	popq	%rbp	#
	.cfi_def_cfa 7, 8
	ret	
	.cfi_endproc
.LFE2995:
	.size	_ZNSt6vectorIlSaIlEEixEm, .-_ZNSt6vectorIlSaIlEEixEm
	.section	.text._ZSt8distanceIPKcENSt15iterator_traitsIT_E15difference_typeES3_S3_,"axG",@progbits,_ZSt8distanceIPKcENSt15iterator_traitsIT_E15difference_typeES3_S3_,comdat
	.weak	_ZSt8distanceIPKcENSt15iterator_traitsIT_E15difference_typeES3_S3_
	.type	_ZSt8distanceIPKcENSt15iterator_traitsIT_E15difference_typeES3_S3_, @function
_ZSt8distanceIPKcENSt15iterator_traitsIT_E15difference_typeES3_S3_:
.LFB3020:
	.file 14 "/usr/include/c++/12/bits/stl_iterator_base_funcs.h"
	.loc 14 147 5
	.cfi_startproc
	pushq	%rbp	#
	.cfi_def_cfa_offset 16
	.cfi_offset 6, -16
	movq	%rsp, %rbp	#,
	.cfi_def_cfa_register 6
	subq	$16, %rsp	#,
	movq	%rdi, -8(%rbp)	# __first, __first
	movq	%rsi, -16(%rbp)	# __last, __last
# /usr/include/c++/12/bits/stl_iterator_base_funcs.h:151: 			     std::__iterator_category(__first));
	.loc 14 151 33
	leaq	-8(%rbp), %rax	#, tmp86
	movq	%rax, %rdi	# tmp86,
	call	_ZSt19__iterator_categoryIPKcENSt15iterator_traitsIT_E17iterator_categoryERKS3_	#
# /usr/include/c++/12/bits/stl_iterator_base_funcs.h:150:       return std::__distance(__first, __last,
	.loc 14 150 29
	movq	-8(%rbp), %rax	# __first, __first.5_1
	movq	-16(%rbp), %rdx	# __last, tmp87
	movq	%rdx, %rsi	# tmp87,
	movq	%rax, %rdi	# __first.5_1,
	call	_ZSt10__distanceIPKcENSt15iterator_traitsIT_E15difference_typeES3_S3_St26random_access_iterator_tag	#
# /usr/include/c++/12/bits/stl_iterator_base_funcs.h:152:     }
	.loc 14 152 5
	leave	
	.cfi_def_cfa 7, 8
	ret	
	.cfi_endproc
.LFE3020:
	.size	_ZSt8distanceIPKcENSt15iterator_traitsIT_E15difference_typeES3_S3_, .-_ZSt8distanceIPKcENSt15iterator_traitsIT_E15difference_typeES3_S3_
	.section	.text._ZNSaIiEC2Ev,"axG",@progbits,_ZNSaIiEC5Ev,comdat
	.align 2
	.weak	_ZNSaIiEC2Ev
	.type	_ZNSaIiEC2Ev, @function
_ZNSaIiEC2Ev:
.LFB3065:
	.loc 11 156 7
	.cfi_startproc
	pushq	%rbp	#
	.cfi_def_cfa_offset 16
	.cfi_offset 6, -16
	movq	%rsp, %rbp	#,
	.cfi_def_cfa_register 6
	subq	$16, %rsp	#,
	movq	%rdi, -8(%rbp)	# this, this
.LBB36:
# /usr/include/c++/12/bits/allocator.h:156:       allocator() _GLIBCXX_NOTHROW { }
	.loc 11 156 36
	movq	-8(%rbp), %rax	# this, tmp82
	movq	%rax, %rdi	# tmp82,
	call	_ZNSt15__new_allocatorIiEC2Ev	#
.LBE36:
# /usr/include/c++/12/bits/allocator.h:156:       allocator() _GLIBCXX_NOTHROW { }
	.loc 11 156 38
	nop	
	leave	
	.cfi_def_cfa 7, 8
	ret	
	.cfi_endproc
.LFE3065:
	.size	_ZNSaIiEC2Ev, .-_ZNSaIiEC2Ev
	.weak	_ZNSaIiEC1Ev
	.set	_ZNSaIiEC1Ev,_ZNSaIiEC2Ev
	.section	.text._ZNSt12_Vector_baseIiSaIiEE17_Vector_impl_dataC2Ev,"axG",@progbits,_ZNSt12_Vector_baseIiSaIiEE17_Vector_impl_dataC5Ev,comdat
	.align 2
	.weak	_ZNSt12_Vector_baseIiSaIiEE17_Vector_impl_dataC2Ev
	.type	_ZNSt12_Vector_baseIiSaIiEE17_Vector_impl_dataC2Ev, @function
_ZNSt12_Vector_baseIiSaIiEE17_Vector_impl_dataC2Ev:
.LFB3068:
	.loc 9 99 2
	.cfi_startproc
	pushq	%rbp	#
	.cfi_def_cfa_offset 16
	.cfi_offset 6, -16
	movq	%rsp, %rbp	#,
	.cfi_def_cfa_register 6
	movq	%rdi, -8(%rbp)	# this, this
.LBB37:
# /usr/include/c++/12/bits/stl_vector.h:100: 	: _M_start(), _M_finish(), _M_end_of_storage()
	.loc 9 100 4
	movq	-8(%rbp), %rax	# this, tmp82
	movq	$0, (%rax)	#, this_2(D)->_M_start
# /usr/include/c++/12/bits/stl_vector.h:100: 	: _M_start(), _M_finish(), _M_end_of_storage()
	.loc 9 100 16
	movq	-8(%rbp), %rax	# this, tmp83
	movq	$0, 8(%rax)	#, this_2(D)->_M_finish
# /usr/include/c++/12/bits/stl_vector.h:100: 	: _M_start(), _M_finish(), _M_end_of_storage()
	.loc 9 100 29
	movq	-8(%rbp), %rax	# this, tmp84
	movq	$0, 16(%rax)	#, this_2(D)->_M_end_of_storage
.LBE37:
# /usr/include/c++/12/bits/stl_vector.h:101: 	{ }
	.loc 9 101 4
	nop	
	popq	%rbp	#
	.cfi_def_cfa 7, 8
	ret	
	.cfi_endproc
.LFE3068:
	.size	_ZNSt12_Vector_baseIiSaIiEE17_Vector_impl_dataC2Ev, .-_ZNSt12_Vector_baseIiSaIiEE17_Vector_impl_dataC2Ev
	.weak	_ZNSt12_Vector_baseIiSaIiEE17_Vector_impl_dataC1Ev
	.set	_ZNSt12_Vector_baseIiSaIiEE17_Vector_impl_dataC1Ev,_ZNSt12_Vector_baseIiSaIiEE17_Vector_impl_dataC2Ev
	.section	.text._ZNSt15__new_allocatorIiED2Ev,"axG",@progbits,_ZNSt15__new_allocatorIiED5Ev,comdat
	.align 2
	.weak	_ZNSt15__new_allocatorIiED2Ev
	.type	_ZNSt15__new_allocatorIiED2Ev, @function
_ZNSt15__new_allocatorIiED2Ev:
.LFB3071:
	.file 15 "/usr/include/c++/12/bits/new_allocator.h"
	.loc 15 90 7
	.cfi_startproc
	pushq	%rbp	#
	.cfi_def_cfa_offset 16
	.cfi_offset 6, -16
	movq	%rsp, %rbp	#,
	.cfi_def_cfa_register 6
	movq	%rdi, -8(%rbp)	# this, this
# /usr/include/c++/12/bits/new_allocator.h:90:       ~__new_allocator() _GLIBCXX_USE_NOEXCEPT { }
	.loc 15 90 50
	nop	
	popq	%rbp	#
	.cfi_def_cfa 7, 8
	ret	
	.cfi_endproc
.LFE3071:
	.size	_ZNSt15__new_allocatorIiED2Ev, .-_ZNSt15__new_allocatorIiED2Ev
	.weak	_ZNSt15__new_allocatorIiED1Ev
	.set	_ZNSt15__new_allocatorIiED1Ev,_ZNSt15__new_allocatorIiED2Ev
	.section	.text._ZNSt12_Vector_baseIiSaIiEE13_M_deallocateEPim,"axG",@progbits,_ZNSt12_Vector_baseIiSaIiEE13_M_deallocateEPim,comdat
	.align 2
	.weak	_ZNSt12_Vector_baseIiSaIiEE13_M_deallocateEPim
	.type	_ZNSt12_Vector_baseIiSaIiEE13_M_deallocateEPim, @function
_ZNSt12_Vector_baseIiSaIiEE13_M_deallocateEPim:
.LFB3073:
	.loc 9 383 7
	.cfi_startproc
	pushq	%rbp	#
	.cfi_def_cfa_offset 16
	.cfi_offset 6, -16
	movq	%rsp, %rbp	#,
	.cfi_def_cfa_register 6
	subq	$32, %rsp	#,
	movq	%rdi, -8(%rbp)	# this, this
	movq	%rsi, -16(%rbp)	# __p, __p
	movq	%rdx, -24(%rbp)	# __n, __n
# /usr/include/c++/12/bits/stl_vector.h:386: 	if (__p)
	.loc 9 386 2
	cmpq	$0, -16(%rbp)	#, __p
	je	.L150	#,
# /usr/include/c++/12/bits/stl_vector.h:387: 	  _Tr::deallocate(_M_impl, __p, __n);
	.loc 9 387 20
	movq	-8(%rbp), %rax	# this, _1
# /usr/include/c++/12/bits/stl_vector.h:387: 	  _Tr::deallocate(_M_impl, __p, __n);
	.loc 9 387 19
	movq	-24(%rbp), %rdx	# __n, tmp83
	movq	-16(%rbp), %rcx	# __p, tmp84
	movq	%rcx, %rsi	# tmp84,
	movq	%rax, %rdi	# _1,
	call	_ZNSt16allocator_traitsISaIiEE10deallocateERS0_Pim	#
.L150:
# /usr/include/c++/12/bits/stl_vector.h:388:       }
	.loc 9 388 7
	nop	
	leave	
	.cfi_def_cfa 7, 8
	ret	
	.cfi_endproc
.LFE3073:
	.size	_ZNSt12_Vector_baseIiSaIiEE13_M_deallocateEPim, .-_ZNSt12_Vector_baseIiSaIiEE13_M_deallocateEPim
	.section	.text._ZNSt15__new_allocatorIlEC2Ev,"axG",@progbits,_ZNSt15__new_allocatorIlEC5Ev,comdat
	.align 2
	.weak	_ZNSt15__new_allocatorIlEC2Ev
	.type	_ZNSt15__new_allocatorIlEC2Ev, @function
_ZNSt15__new_allocatorIlEC2Ev:
.LFB3075:
	.loc 15 80 7
	.cfi_startproc
	pushq	%rbp	#
	.cfi_def_cfa_offset 16
	.cfi_offset 6, -16
	movq	%rsp, %rbp	#,
	.cfi_def_cfa_register 6
	movq	%rdi, -8(%rbp)	# this, this
# /usr/include/c++/12/bits/new_allocator.h:80:       __new_allocator() _GLIBCXX_USE_NOEXCEPT { }
	.loc 15 80 49
	nop	
	popq	%rbp	#
	.cfi_def_cfa 7, 8
	ret	
	.cfi_endproc
.LFE3075:
	.size	_ZNSt15__new_allocatorIlEC2Ev, .-_ZNSt15__new_allocatorIlEC2Ev
	.weak	_ZNSt15__new_allocatorIlEC1Ev
	.set	_ZNSt15__new_allocatorIlEC1Ev,_ZNSt15__new_allocatorIlEC2Ev
	.section	.text._ZNSt15__new_allocatorIlED2Ev,"axG",@progbits,_ZNSt15__new_allocatorIlED5Ev,comdat
	.align 2
	.weak	_ZNSt15__new_allocatorIlED2Ev
	.type	_ZNSt15__new_allocatorIlED2Ev, @function
_ZNSt15__new_allocatorIlED2Ev:
.LFB3078:
	.loc 15 90 7
	.cfi_startproc
	pushq	%rbp	#
	.cfi_def_cfa_offset 16
	.cfi_offset 6, -16
	movq	%rsp, %rbp	#,
	.cfi_def_cfa_register 6
	movq	%rdi, -8(%rbp)	# this, this
# /usr/include/c++/12/bits/new_allocator.h:90:       ~__new_allocator() _GLIBCXX_USE_NOEXCEPT { }
	.loc 15 90 50
	nop	
	popq	%rbp	#
	.cfi_def_cfa 7, 8
	ret	
	.cfi_endproc
.LFE3078:
	.size	_ZNSt15__new_allocatorIlED2Ev, .-_ZNSt15__new_allocatorIlED2Ev
	.weak	_ZNSt15__new_allocatorIlED1Ev
	.set	_ZNSt15__new_allocatorIlED1Ev,_ZNSt15__new_allocatorIlED2Ev
	.section	.text._ZNSt12_Vector_baseIlSaIlEEC2ERKS0_,"axG",@progbits,_ZNSt12_Vector_baseIlSaIlEEC5ERKS0_,comdat
	.align 2
	.weak	_ZNSt12_Vector_baseIlSaIlEEC2ERKS0_
	.type	_ZNSt12_Vector_baseIlSaIlEEC2ERKS0_, @function
_ZNSt12_Vector_baseIlSaIlEEC2ERKS0_:
.LFB3081:
	.loc 9 318 7
	.cfi_startproc
	pushq	%rbp	#
	.cfi_def_cfa_offset 16
	.cfi_offset 6, -16
	movq	%rsp, %rbp	#,
	.cfi_def_cfa_register 6
	subq	$16, %rsp	#,
	movq	%rdi, -8(%rbp)	# this, this
	movq	%rsi, -16(%rbp)	# __a, __a
.LBB38:
# /usr/include/c++/12/bits/stl_vector.h:319:       : _M_impl(__a) { }
	.loc 9 319 9
	movq	-8(%rbp), %rax	# this, _1
	movq	-16(%rbp), %rdx	# __a, tmp84
	movq	%rdx, %rsi	# tmp84,
	movq	%rax, %rdi	# _1,
	call	_ZNSt12_Vector_baseIlSaIlEE12_Vector_implC1ERKS0_	#
.LBE38:
# /usr/include/c++/12/bits/stl_vector.h:319:       : _M_impl(__a) { }
	.loc 9 319 24
	nop	
	leave	
	.cfi_def_cfa 7, 8
	ret	
	.cfi_endproc
.LFE3081:
	.size	_ZNSt12_Vector_baseIlSaIlEEC2ERKS0_, .-_ZNSt12_Vector_baseIlSaIlEEC2ERKS0_
	.weak	_ZNSt12_Vector_baseIlSaIlEEC1ERKS0_
	.set	_ZNSt12_Vector_baseIlSaIlEEC1ERKS0_,_ZNSt12_Vector_baseIlSaIlEEC2ERKS0_
	.section	.text._ZNKSt16initializer_listIlE5beginEv,"axG",@progbits,_ZNKSt16initializer_listIlE5beginEv,comdat
	.align 2
	.weak	_ZNKSt16initializer_listIlE5beginEv
	.type	_ZNKSt16initializer_listIlE5beginEv, @function
_ZNKSt16initializer_listIlE5beginEv:
.LFB3083:
	.file 16 "/usr/include/c++/12/initializer_list"
	.loc 16 75 7
	.cfi_startproc
	pushq	%rbp	#
	.cfi_def_cfa_offset 16
	.cfi_offset 6, -16
	movq	%rsp, %rbp	#,
	.cfi_def_cfa_register 6
	movq	%rdi, -8(%rbp)	# this, this
# /usr/include/c++/12/initializer_list:75:       begin() const noexcept { return _M_array; }
	.loc 16 75 39
	movq	-8(%rbp), %rax	# this, tmp84
	movq	(%rax), %rax	# this_2(D)->_M_array, _3
# /usr/include/c++/12/initializer_list:75:       begin() const noexcept { return _M_array; }
	.loc 16 75 49
	popq	%rbp	#
	.cfi_def_cfa 7, 8
	ret	
	.cfi_endproc
.LFE3083:
	.size	_ZNKSt16initializer_listIlE5beginEv, .-_ZNKSt16initializer_listIlE5beginEv
	.section	.text._ZNKSt16initializer_listIlE3endEv,"axG",@progbits,_ZNKSt16initializer_listIlE3endEv,comdat
	.align 2
	.weak	_ZNKSt16initializer_listIlE3endEv
	.type	_ZNKSt16initializer_listIlE3endEv, @function
_ZNKSt16initializer_listIlE3endEv:
.LFB3084:
	.loc 16 79 7
	.cfi_startproc
	pushq	%rbp	#
	.cfi_def_cfa_offset 16
	.cfi_offset 6, -16
	movq	%rsp, %rbp	#,
	.cfi_def_cfa_register 6
	pushq	%rbx	#
	subq	$24, %rsp	#,
	.cfi_offset 3, -24
	movq	%rdi, -24(%rbp)	# this, this
# /usr/include/c++/12/initializer_list:79:       end() const noexcept { return begin() + size(); }
	.loc 16 79 42
	movq	-24(%rbp), %rax	# this, tmp87
	movq	%rax, %rdi	# tmp87,
	call	_ZNKSt16initializer_listIlE5beginEv	#
	movq	%rax, %rbx	#, _1
# /usr/include/c++/12/initializer_list:79:       end() const noexcept { return begin() + size(); }
	.loc 16 79 51
	movq	-24(%rbp), %rax	# this, tmp88
	movq	%rax, %rdi	# tmp88,
	call	_ZNKSt16initializer_listIlE4sizeEv	#
# /usr/include/c++/12/initializer_list:79:       end() const noexcept { return begin() + size(); }
	.loc 16 79 45
	salq	$3, %rax	#, _3
# /usr/include/c++/12/initializer_list:79:       end() const noexcept { return begin() + size(); }
	.loc 16 79 52
	addq	%rbx, %rax	# _1, _8
# /usr/include/c++/12/initializer_list:79:       end() const noexcept { return begin() + size(); }
	.loc 16 79 55
	movq	-8(%rbp), %rbx	#,
	leave	
	.cfi_def_cfa 7, 8
	ret	
	.cfi_endproc
.LFE3084:
	.size	_ZNKSt16initializer_listIlE3endEv, .-_ZNKSt16initializer_listIlE3endEv
	.section	.text._ZSt8distanceIPKlENSt15iterator_traitsIT_E15difference_typeES3_S3_,"axG",@progbits,_ZSt8distanceIPKlENSt15iterator_traitsIT_E15difference_typeES3_S3_,comdat
	.weak	_ZSt8distanceIPKlENSt15iterator_traitsIT_E15difference_typeES3_S3_
	.type	_ZSt8distanceIPKlENSt15iterator_traitsIT_E15difference_typeES3_S3_, @function
_ZSt8distanceIPKlENSt15iterator_traitsIT_E15difference_typeES3_S3_:
.LFB3086:
	.loc 14 147 5
	.cfi_startproc
	pushq	%rbp	#
	.cfi_def_cfa_offset 16
	.cfi_offset 6, -16
	movq	%rsp, %rbp	#,
	.cfi_def_cfa_register 6
	subq	$16, %rsp	#,
	movq	%rdi, -8(%rbp)	# __first, __first
	movq	%rsi, -16(%rbp)	# __last, __last
# /usr/include/c++/12/bits/stl_iterator_base_funcs.h:151: 			     std::__iterator_category(__first));
	.loc 14 151 33
	leaq	-8(%rbp), %rax	#, tmp86
	movq	%rax, %rdi	# tmp86,
	call	_ZSt19__iterator_categoryIPKlENSt15iterator_traitsIT_E17iterator_categoryERKS3_	#
# /usr/include/c++/12/bits/stl_iterator_base_funcs.h:150:       return std::__distance(__first, __last,
	.loc 14 150 29
	movq	-8(%rbp), %rax	# __first, __first.15_1
	movq	-16(%rbp), %rdx	# __last, tmp87
	movq	%rdx, %rsi	# tmp87,
	movq	%rax, %rdi	# __first.15_1,
	call	_ZSt10__distanceIPKlENSt15iterator_traitsIT_E15difference_typeES3_S3_St26random_access_iterator_tag	#
# /usr/include/c++/12/bits/stl_iterator_base_funcs.h:152:     }
	.loc 14 152 5
	leave	
	.cfi_def_cfa 7, 8
	ret	
	.cfi_endproc
.LFE3086:
	.size	_ZSt8distanceIPKlENSt15iterator_traitsIT_E15difference_typeES3_S3_, .-_ZSt8distanceIPKlENSt15iterator_traitsIT_E15difference_typeES3_S3_
	.section	.text._ZNSt6vectorIlSaIlEE19_M_range_initializeIPKlEEvT_S5_St20forward_iterator_tag,"axG",@progbits,_ZNSt6vectorIlSaIlEE19_M_range_initializeIPKlEEvT_S5_St20forward_iterator_tag,comdat
	.align 2
	.weak	_ZNSt6vectorIlSaIlEE19_M_range_initializeIPKlEEvT_S5_St20forward_iterator_tag
	.type	_ZNSt6vectorIlSaIlEE19_M_range_initializeIPKlEEvT_S5_St20forward_iterator_tag, @function
_ZNSt6vectorIlSaIlEE19_M_range_initializeIPKlEEvT_S5_St20forward_iterator_tag:
.LFB3085:
	.loc 9 1682 2
	.cfi_startproc
	pushq	%rbp	#
	.cfi_def_cfa_offset 16
	.cfi_offset 6, -16
	movq	%rsp, %rbp	#,
	.cfi_def_cfa_register 6
	pushq	%rbx	#
	subq	$56, %rsp	#,
	.cfi_offset 3, -24
	movq	%rdi, -40(%rbp)	# this, this
	movq	%rsi, -48(%rbp)	# __first, __first
	movq	%rdx, -56(%rbp)	# __last, __last
# /usr/include/c++/12/bits/stl_vector.h:1685: 	  const size_type __n = std::distance(__first, __last);
	.loc 9 1685 39
	movq	-56(%rbp), %rdx	# __last, tmp95
	movq	-48(%rbp), %rax	# __first, tmp96
	movq	%rdx, %rsi	# tmp95,
	movq	%rax, %rdi	# tmp96,
	call	_ZSt8distanceIPKlENSt15iterator_traitsIT_E15difference_typeES3_S3_	#
# /usr/include/c++/12/bits/stl_vector.h:1685: 	  const size_type __n = std::distance(__first, __last);
	.loc 9 1685 20
	movq	%rax, -24(%rbp)	# _1, __n
# /usr/include/c++/12/bits/stl_vector.h:1687: 	    = this->_M_allocate(_S_check_init_len(__n, _M_get_Tp_allocator()));
	.loc 9 1687 25
	movq	-40(%rbp), %rbx	# this, _2
# /usr/include/c++/12/bits/stl_vector.h:1687: 	    = this->_M_allocate(_S_check_init_len(__n, _M_get_Tp_allocator()));
	.loc 9 1687 68
	movq	-40(%rbp), %rax	# this, _3
	movq	%rax, %rdi	# _3,
	call	_ZNSt12_Vector_baseIlSaIlEE19_M_get_Tp_allocatorEv	#
	movq	%rax, %rdx	#, _4
# /usr/include/c++/12/bits/stl_vector.h:1687: 	    = this->_M_allocate(_S_check_init_len(__n, _M_get_Tp_allocator()));
	.loc 9 1687 25
	movq	-24(%rbp), %rax	# __n, tmp97
	movq	%rdx, %rsi	# _4,
	movq	%rax, %rdi	# tmp97,
	call	_ZNSt6vectorIlSaIlEE17_S_check_init_lenEmRKS0_	#
	movq	%rax, %rsi	# _5,
	movq	%rbx, %rdi	# _2,
	call	_ZNSt12_Vector_baseIlSaIlEE11_M_allocateEm	#
# /usr/include/c++/12/bits/stl_vector.h:1687: 	    = this->_M_allocate(_S_check_init_len(__n, _M_get_Tp_allocator()));
	.loc 9 1687 6
	movq	-40(%rbp), %rdx	# this, tmp98
	movq	%rax, (%rdx)	# _6, this_20(D)->D.57729._M_impl.D.57041._M_start
# /usr/include/c++/12/bits/stl_vector.h:1688: 	  this->_M_impl._M_end_of_storage = this->_M_impl._M_start + __n;
	.loc 9 1688 52
	movq	-40(%rbp), %rax	# this, tmp99
	movq	(%rax), %rax	# this_20(D)->D.57729._M_impl.D.57041._M_start, _7
# /usr/include/c++/12/bits/stl_vector.h:1688: 	  this->_M_impl._M_end_of_storage = this->_M_impl._M_start + __n;
	.loc 9 1688 61
	movq	-24(%rbp), %rdx	# __n, tmp100
	salq	$3, %rdx	#, _8
	addq	%rax, %rdx	# _7, _9
# /usr/include/c++/12/bits/stl_vector.h:1688: 	  this->_M_impl._M_end_of_storage = this->_M_impl._M_start + __n;
	.loc 9 1688 36
	movq	-40(%rbp), %rax	# this, tmp101
	movq	%rdx, 16(%rax)	# _9, this_20(D)->D.57729._M_impl.D.57041._M_end_of_storage
# /usr/include/c++/12/bits/stl_vector.h:1692: 					_M_get_Tp_allocator());
	.loc 9 1692 25
	movq	-40(%rbp), %rax	# this, _10
	movq	%rax, %rdi	# _10,
	call	_ZNSt12_Vector_baseIlSaIlEE19_M_get_Tp_allocatorEv	#
	movq	%rax, %rcx	#, _11
# /usr/include/c++/12/bits/stl_vector.h:1690: 	    std::__uninitialized_copy_a(__first, __last,
	.loc 9 1690 33
	movq	-40(%rbp), %rax	# this, tmp102
	movq	(%rax), %rdx	# this_20(D)->D.57729._M_impl.D.57041._M_start, _12
	movq	-56(%rbp), %rsi	# __last, tmp103
	movq	-48(%rbp), %rax	# __first, tmp104
	movq	%rax, %rdi	# tmp104,
	call	_ZSt22__uninitialized_copy_aIPKlPllET0_T_S4_S3_RSaIT1_E	#
# /usr/include/c++/12/bits/stl_vector.h:1689: 	  this->_M_impl._M_finish =
	.loc 9 1689 28
	movq	-40(%rbp), %rdx	# this, tmp105
	movq	%rax, 8(%rdx)	# _13, this_20(D)->D.57729._M_impl.D.57041._M_finish
# /usr/include/c++/12/bits/stl_vector.h:1693: 	}
	.loc 9 1693 2
	nop	
	movq	-8(%rbp), %rbx	#,
	leave	
	.cfi_def_cfa 7, 8
	ret	
	.cfi_endproc
.LFE3085:
	.size	_ZNSt6vectorIlSaIlEE19_M_range_initializeIPKlEEvT_S5_St20forward_iterator_tag, .-_ZNSt6vectorIlSaIlEE19_M_range_initializeIPKlEEvT_S5_St20forward_iterator_tag
	.section	.text._ZN9__gnu_cxx17__normal_iteratorIPlSt6vectorIlSaIlEEEC2ERKS1_,"axG",@progbits,_ZN9__gnu_cxx17__normal_iteratorIPlSt6vectorIlSaIlEEEC5ERKS1_,comdat
	.align 2
	.weak	_ZN9__gnu_cxx17__normal_iteratorIPlSt6vectorIlSaIlEEEC2ERKS1_
	.type	_ZN9__gnu_cxx17__normal_iteratorIPlSt6vectorIlSaIlEEEC2ERKS1_, @function
_ZN9__gnu_cxx17__normal_iteratorIPlSt6vectorIlSaIlEEEC2ERKS1_:
.LFB3088:
	.file 17 "/usr/include/c++/12/bits/stl_iterator.h"
	.loc 17 1072 7
	.cfi_startproc
	pushq	%rbp	#
	.cfi_def_cfa_offset 16
	.cfi_offset 6, -16
	movq	%rsp, %rbp	#,
	.cfi_def_cfa_register 6
	movq	%rdi, -8(%rbp)	# this, this
	movq	%rsi, -16(%rbp)	# __i, __i
.LBB39:
# /usr/include/c++/12/bits/stl_iterator.h:1073:       : _M_current(__i) { }
	.loc 17 1073 9
	movq	-16(%rbp), %rax	# __i, tmp83
	movq	(%rax), %rdx	# *__i_5(D), _1
	movq	-8(%rbp), %rax	# this, tmp84
	movq	%rdx, (%rax)	# _1, this_3(D)->_M_current
.LBE39:
# /usr/include/c++/12/bits/stl_iterator.h:1073:       : _M_current(__i) { }
	.loc 17 1073 27
	nop	
	popq	%rbp	#
	.cfi_def_cfa 7, 8
	ret	
	.cfi_endproc
.LFE3088:
	.size	_ZN9__gnu_cxx17__normal_iteratorIPlSt6vectorIlSaIlEEEC2ERKS1_, .-_ZN9__gnu_cxx17__normal_iteratorIPlSt6vectorIlSaIlEEEC2ERKS1_
	.weak	_ZN9__gnu_cxx17__normal_iteratorIPlSt6vectorIlSaIlEEEC1ERKS1_
	.set	_ZN9__gnu_cxx17__normal_iteratorIPlSt6vectorIlSaIlEEEC1ERKS1_,_ZN9__gnu_cxx17__normal_iteratorIPlSt6vectorIlSaIlEEEC2ERKS1_
	.section	.text._ZN9__gnu_cxxneIPlSt6vectorIlSaIlEEEEbRKNS_17__normal_iteratorIT_T0_EESA_,"axG",@progbits,_ZN9__gnu_cxxneIPlSt6vectorIlSaIlEEEEbRKNS_17__normal_iteratorIT_T0_EESA_,comdat
	.weak	_ZN9__gnu_cxxneIPlSt6vectorIlSaIlEEEEbRKNS_17__normal_iteratorIT_T0_EESA_
	.type	_ZN9__gnu_cxxneIPlSt6vectorIlSaIlEEEEbRKNS_17__normal_iteratorIT_T0_EESA_, @function
_ZN9__gnu_cxxneIPlSt6vectorIlSaIlEEEEbRKNS_17__normal_iteratorIT_T0_EESA_:
.LFB3090:
	.loc 17 1237 5
	.cfi_startproc
	pushq	%rbp	#
	.cfi_def_cfa_offset 16
	.cfi_offset 6, -16
	movq	%rsp, %rbp	#,
	.cfi_def_cfa_register 6
	pushq	%rbx	#
	subq	$24, %rsp	#,
	.cfi_offset 3, -24
	movq	%rdi, -24(%rbp)	# __lhs, __lhs
	movq	%rsi, -32(%rbp)	# __rhs, __rhs
# /usr/include/c++/12/bits/stl_iterator.h:1240:     { return __lhs.base() != __rhs.base(); }
	.loc 17 1240 24
	movq	-24(%rbp), %rax	# __lhs, tmp88
	movq	%rax, %rdi	# tmp88,
	call	_ZNK9__gnu_cxx17__normal_iteratorIPlSt6vectorIlSaIlEEE4baseEv	#
# /usr/include/c++/12/bits/stl_iterator.h:1240:     { return __lhs.base() != __rhs.base(); }
	.loc 17 1240 27
	movq	(%rax), %rbx	# *_1, _2
# /usr/include/c++/12/bits/stl_iterator.h:1240:     { return __lhs.base() != __rhs.base(); }
	.loc 17 1240 40
	movq	-32(%rbp), %rax	# __rhs, tmp89
	movq	%rax, %rdi	# tmp89,
	call	_ZNK9__gnu_cxx17__normal_iteratorIPlSt6vectorIlSaIlEEE4baseEv	#
# /usr/include/c++/12/bits/stl_iterator.h:1240:     { return __lhs.base() != __rhs.base(); }
	.loc 17 1240 27
	movq	(%rax), %rax	# *_3, _4
# /usr/include/c++/12/bits/stl_iterator.h:1240:     { return __lhs.base() != __rhs.base(); }
	.loc 17 1240 41
	cmpq	%rax, %rbx	# _4, _2
	setne	%al	#, _10
# /usr/include/c++/12/bits/stl_iterator.h:1240:     { return __lhs.base() != __rhs.base(); }
	.loc 17 1240 44
	movq	-8(%rbp), %rbx	#,
	leave	
	.cfi_def_cfa 7, 8
	ret	
	.cfi_endproc
.LFE3090:
	.size	_ZN9__gnu_cxxneIPlSt6vectorIlSaIlEEEEbRKNS_17__normal_iteratorIT_T0_EESA_, .-_ZN9__gnu_cxxneIPlSt6vectorIlSaIlEEEEbRKNS_17__normal_iteratorIT_T0_EESA_
	.section	.text._ZN9__gnu_cxx17__normal_iteratorIPlSt6vectorIlSaIlEEEppEv,"axG",@progbits,_ZN9__gnu_cxx17__normal_iteratorIPlSt6vectorIlSaIlEEEppEv,comdat
	.align 2
	.weak	_ZN9__gnu_cxx17__normal_iteratorIPlSt6vectorIlSaIlEEEppEv
	.type	_ZN9__gnu_cxx17__normal_iteratorIPlSt6vectorIlSaIlEEEppEv, @function
_ZN9__gnu_cxx17__normal_iteratorIPlSt6vectorIlSaIlEEEppEv:
.LFB3091:
	.loc 17 1105 7
	.cfi_startproc
	pushq	%rbp	#
	.cfi_def_cfa_offset 16
	.cfi_offset 6, -16
	movq	%rsp, %rbp	#,
	.cfi_def_cfa_register 6
	movq	%rdi, -8(%rbp)	# this, this
# /usr/include/c++/12/bits/stl_iterator.h:1107: 	++_M_current;
	.loc 17 1107 4
	movq	-8(%rbp), %rax	# this, tmp86
	movq	(%rax), %rax	# this_4(D)->_M_current, _1
# /usr/include/c++/12/bits/stl_iterator.h:1107: 	++_M_current;
	.loc 17 1107 2
	leaq	8(%rax), %rdx	#, _2
	movq	-8(%rbp), %rax	# this, tmp87
	movq	%rdx, (%rax)	# _2, this_4(D)->_M_current
# /usr/include/c++/12/bits/stl_iterator.h:1108: 	return *this;
	.loc 17 1108 10
	movq	-8(%rbp), %rax	# this, _6
# /usr/include/c++/12/bits/stl_iterator.h:1109:       }
	.loc 17 1109 7
	popq	%rbp	#
	.cfi_def_cfa 7, 8
	ret	
	.cfi_endproc
.LFE3091:
	.size	_ZN9__gnu_cxx17__normal_iteratorIPlSt6vectorIlSaIlEEEppEv, .-_ZN9__gnu_cxx17__normal_iteratorIPlSt6vectorIlSaIlEEEppEv
	.section	.text._ZNK9__gnu_cxx17__normal_iteratorIPlSt6vectorIlSaIlEEEdeEv,"axG",@progbits,_ZNK9__gnu_cxx17__normal_iteratorIPlSt6vectorIlSaIlEEEdeEv,comdat
	.align 2
	.weak	_ZNK9__gnu_cxx17__normal_iteratorIPlSt6vectorIlSaIlEEEdeEv
	.type	_ZNK9__gnu_cxx17__normal_iteratorIPlSt6vectorIlSaIlEEEdeEv, @function
_ZNK9__gnu_cxx17__normal_iteratorIPlSt6vectorIlSaIlEEEdeEv:
.LFB3092:
	.loc 17 1095 7
	.cfi_startproc
	pushq	%rbp	#
	.cfi_def_cfa_offset 16
	.cfi_offset 6, -16
	movq	%rsp, %rbp	#,
	.cfi_def_cfa_register 6
	movq	%rdi, -8(%rbp)	# this, this
# /usr/include/c++/12/bits/stl_iterator.h:1096:       { return *_M_current; }
	.loc 17 1096 17
	movq	-8(%rbp), %rax	# this, tmp84
	movq	(%rax), %rax	# this_2(D)->_M_current, _3
# /usr/include/c++/12/bits/stl_iterator.h:1096:       { return *_M_current; }
	.loc 17 1096 29
	popq	%rbp	#
	.cfi_def_cfa 7, 8
	ret	
	.cfi_endproc
.LFE3092:
	.size	_ZNK9__gnu_cxx17__normal_iteratorIPlSt6vectorIlSaIlEEEdeEv, .-_ZNK9__gnu_cxx17__normal_iteratorIPlSt6vectorIlSaIlEEEdeEv
	.section	.text._ZNKSt6vectorIiSaIiEE4sizeEv,"axG",@progbits,_ZNKSt6vectorIiSaIiEE4sizeEv,comdat
	.align 2
	.weak	_ZNKSt6vectorIiSaIiEE4sizeEv
	.type	_ZNKSt6vectorIiSaIiEE4sizeEv, @function
_ZNKSt6vectorIiSaIiEE4sizeEv:
.LFB3093:
	.loc 9 987 7
	.cfi_startproc
	pushq	%rbp	#
	.cfi_def_cfa_offset 16
	.cfi_offset 6, -16
	movq	%rsp, %rbp	#,
	.cfi_def_cfa_register 6
	movq	%rdi, -8(%rbp)	# this, this
# /usr/include/c++/12/bits/stl_vector.h:988:       { return size_type(this->_M_impl._M_finish - this->_M_impl._M_start); }
	.loc 9 988 40
	movq	-8(%rbp), %rax	# this, tmp88
	movq	8(%rax), %rdx	# this_6(D)->D.58840._M_impl.D.58179._M_finish, _1
# /usr/include/c++/12/bits/stl_vector.h:988:       { return size_type(this->_M_impl._M_finish - this->_M_impl._M_start); }
	.loc 9 988 66
	movq	-8(%rbp), %rax	# this, tmp89
	movq	(%rax), %rax	# this_6(D)->D.58840._M_impl.D.58179._M_start, _2
# /usr/include/c++/12/bits/stl_vector.h:988:       { return size_type(this->_M_impl._M_finish - this->_M_impl._M_start); }
	.loc 9 988 50
	subq	%rax, %rdx	# _2, _3
	movq	%rdx, %rax	# _3, _3
	sarq	$2, %rax	#, _3
# /usr/include/c++/12/bits/stl_vector.h:988:       { return size_type(this->_M_impl._M_finish - this->_M_impl._M_start); }
	.loc 9 988 77
	popq	%rbp	#
	.cfi_def_cfa 7, 8
	ret	
	.cfi_endproc
.LFE3093:
	.size	_ZNKSt6vectorIiSaIiEE4sizeEv, .-_ZNKSt6vectorIiSaIiEE4sizeEv
	.section	.rodata
.LC5:
	.string	"vector::_M_default_append"
	.section	.text._ZNSt6vectorIiSaIiEE17_M_default_appendEm,"axG",@progbits,_ZNSt6vectorIiSaIiEE17_M_default_appendEm,comdat
	.align 2
	.weak	_ZNSt6vectorIiSaIiEE17_M_default_appendEm
	.type	_ZNSt6vectorIiSaIiEE17_M_default_appendEm, @function
_ZNSt6vectorIiSaIiEE17_M_default_appendEm:
.LFB3094:
	.file 18 "/usr/include/c++/12/bits/vector.tcc"
	.loc 18 626 5
	.cfi_startproc
	.cfi_personality 0x9b,DW.ref.__gxx_personality_v0
	.cfi_lsda 0x1b,.LLSDA3094
	pushq	%rbp	#
	.cfi_def_cfa_offset 16
	.cfi_offset 6, -16
	movq	%rsp, %rbp	#,
	.cfi_def_cfa_register 6
	pushq	%rbx	#
	subq	$56, %rsp	#,
	.cfi_offset 3, -24
	movq	%rdi, -56(%rbp)	# this, this
	movq	%rsi, -64(%rbp)	# __n, __n
.LBB40:
# /usr/include/c++/12/bits/vector.tcc:629:       if (__n != 0)
	.loc 18 629 7
	cmpq	$0, -64(%rbp)	#, __n
	je	.L181	#,
.LBB41:
# /usr/include/c++/12/bits/vector.tcc:631: 	  const size_type __size = size();
	.loc 18 631 33
	movq	-56(%rbp), %rax	# this, tmp120
	movq	%rax, %rdi	# tmp120,
	call	_ZNKSt6vectorIiSaIiEE4sizeEv	#
	movq	%rax, -24(%rbp)	# tmp121, __size
# /usr/include/c++/12/bits/vector.tcc:632: 	  size_type __navail = size_type(this->_M_impl._M_end_of_storage
	.loc 18 632 49
	movq	-56(%rbp), %rax	# this, tmp122
	movq	16(%rax), %rdx	# this_42(D)->D.58840._M_impl.D.58179._M_end_of_storage, _1
# /usr/include/c++/12/bits/vector.tcc:633: 					 - this->_M_impl._M_finish);
	.loc 18 633 23
	movq	-56(%rbp), %rax	# this, tmp123
	movq	8(%rax), %rax	# this_42(D)->D.58840._M_impl.D.58179._M_finish, _2
# /usr/include/c++/12/bits/vector.tcc:633: 					 - this->_M_impl._M_finish);
	.loc 18 633 7
	subq	%rax, %rdx	# _2, _3
	movq	%rdx, %rax	# _3, _3
	sarq	$2, %rax	#, _3
# /usr/include/c++/12/bits/vector.tcc:632: 	  size_type __navail = size_type(this->_M_impl._M_end_of_storage
	.loc 18 632 14
	movq	%rax, -32(%rbp)	# _4, __navail
# /usr/include/c++/12/bits/vector.tcc:635: 	  if (__size > max_size() || __navail > max_size() - __size)
	.loc 18 635 25
	movq	-56(%rbp), %rax	# this, tmp125
	movq	%rax, %rdi	# tmp125,
	call	_ZNKSt6vectorIiSaIiEE8max_sizeEv	#
# /usr/include/c++/12/bits/vector.tcc:635: 	  if (__size > max_size() || __navail > max_size() - __size)
	.loc 18 635 28
	cmpq	-24(%rbp), %rax	# __size, _5
	jb	.L172	#,
# /usr/include/c++/12/bits/vector.tcc:635: 	  if (__size > max_size() || __navail > max_size() - __size)
	.loc 18 635 50 discriminator 2
	movq	-56(%rbp), %rax	# this, tmp126
	movq	%rax, %rdi	# tmp126,
	call	_ZNKSt6vectorIiSaIiEE8max_sizeEv	#
# /usr/include/c++/12/bits/vector.tcc:635: 	  if (__size > max_size() || __navail > max_size() - __size)
	.loc 18 635 53 discriminator 2
	subq	-24(%rbp), %rax	# __size, _7
# /usr/include/c++/12/bits/vector.tcc:635: 	  if (__size > max_size() || __navail > max_size() - __size)
	.loc 18 635 28 discriminator 2
	cmpq	-32(%rbp), %rax	# __navail, _7
	jnb	.L173	#,
.L172:
# /usr/include/c++/12/bits/vector.tcc:635: 	  if (__size > max_size() || __navail > max_size() - __size)
	.loc 18 635 28 is_stmt 0 discriminator 3
	movl	$1, %eax	#, iftmp.26_35
	jmp	.L174	#
.L173:
# /usr/include/c++/12/bits/vector.tcc:635: 	  if (__size > max_size() || __navail > max_size() - __size)
	.loc 18 635 28 discriminator 4
	movl	$0, %eax	#, iftmp.26_35
.L174:
# /usr/include/c++/12/bits/vector.tcc:635: 	  if (__size > max_size() || __navail > max_size() - __size)
	.loc 18 635 4 is_stmt 1 discriminator 6
	testb	%al, %al	# iftmp.26_35
.LBB42:
# /usr/include/c++/12/bits/vector.tcc:638: 	  if (__navail >= __n)
	.loc 18 638 4 discriminator 6
	movq	-32(%rbp), %rax	# __navail, tmp127
	cmpq	-64(%rbp), %rax	# __n, tmp127
	jb	.L176	#,
# /usr/include/c++/12/bits/vector.tcc:643: 						 __n, _M_get_Tp_allocator());
	.loc 18 643 32
	movq	-56(%rbp), %rax	# this, _8
	movq	%rax, %rdi	# _8,
	call	_ZNSt12_Vector_baseIiSaIiEE19_M_get_Tp_allocatorEv	#
	movq	%rax, %rdx	#, _9
# /usr/include/c++/12/bits/vector.tcc:642: 		std::__uninitialized_default_n_a(this->_M_impl._M_finish,
	.loc 18 642 35
	movq	-56(%rbp), %rax	# this, tmp128
	movq	8(%rax), %rax	# this_42(D)->D.58840._M_impl.D.58179._M_finish, _10
	movq	-64(%rbp), %rcx	# __n, tmp129
	movq	%rcx, %rsi	# tmp129,
	movq	%rax, %rdi	# _10,
.LEHB25:
	call	_ZSt27__uninitialized_default_n_aIPimiET_S1_T0_RSaIT1_E	#
# /usr/include/c++/12/bits/vector.tcc:641: 	      this->_M_impl._M_finish =
	.loc 18 641 32
	movq	-56(%rbp), %rdx	# this, tmp130
	movq	%rax, 8(%rdx)	# _11, this_42(D)->D.58840._M_impl.D.58179._M_finish
.LBE42:
.LBE41:
.LBE40:
# /usr/include/c++/12/bits/vector.tcc:698:     }
	.loc 18 698 5
	jmp	.L181	#
.L176:
.LBB49:
.LBB47:
.LBB45:
.LBB43:
# /usr/include/c++/12/bits/vector.tcc:649: 		_M_check_len(__n, "vector::_M_default_append");
	.loc 18 649 15
	movq	-64(%rbp), %rcx	# __n, tmp131
	movq	-56(%rbp), %rax	# this, tmp132
	leaq	.LC5(%rip), %rdx	#, tmp133
	movq	%rcx, %rsi	# tmp131,
	movq	%rax, %rdi	# tmp132,
	call	_ZNKSt6vectorIiSaIiEE12_M_check_lenEmPKc	#
	movq	%rax, -40(%rbp)	# _52, __len
# /usr/include/c++/12/bits/vector.tcc:650: 	      pointer __new_start(this->_M_allocate(__len));
	.loc 18 650 45
	movq	-56(%rbp), %rax	# this, _12
	movq	-40(%rbp), %rdx	# __len, tmp134
	movq	%rdx, %rsi	# tmp134,
	movq	%rax, %rdi	# _12,
	call	_ZNSt12_Vector_baseIiSaIiEE11_M_allocateEm	#
.LEHE25:
	movq	%rax, -48(%rbp)	# _55, __new_start
# /usr/include/c++/12/bits/vector.tcc:656: 			      __n, _M_get_Tp_allocator());
	.loc 18 656 34
	movq	-56(%rbp), %rax	# this, _13
	movq	%rax, %rdi	# _13,
	call	_ZNSt12_Vector_baseIiSaIiEE19_M_get_Tp_allocatorEv	#
	movq	%rax, %rdx	#, _14
# /usr/include/c++/12/bits/vector.tcc:655: 		      std::__uninitialized_default_n_a(__new_start + __size,
	.loc 18 655 54
	movq	-24(%rbp), %rax	# __size, tmp135
	leaq	0(,%rax,4), %rcx	#, _15
# /usr/include/c++/12/bits/vector.tcc:655: 		      std::__uninitialized_default_n_a(__new_start + __size,
	.loc 18 655 41
	movq	-48(%rbp), %rax	# __new_start, tmp136
	addq	%rax, %rcx	# tmp136, _16
	movq	-64(%rbp), %rax	# __n, tmp137
	movq	%rax, %rsi	# tmp137,
	movq	%rcx, %rdi	# _16,
.LEHB26:
	call	_ZSt27__uninitialized_default_n_aIPimiET_S1_T0_RSaIT1_E	#
.LEHE26:
# /usr/include/c++/12/bits/vector.tcc:664: 			      __new_start, _M_get_Tp_allocator());
	.loc 18 664 42
	movq	-56(%rbp), %rax	# this, _19
	movq	%rax, %rdi	# _19,
	call	_ZNSt12_Vector_baseIiSaIiEE19_M_get_Tp_allocatorEv	#
	movq	%rax, %rcx	#, _20
# /usr/include/c++/12/bits/vector.tcc:663: 		  _S_relocate(this->_M_impl._M_start, this->_M_impl._M_finish,
	.loc 18 663 16
	movq	-56(%rbp), %rax	# this, tmp138
	movq	8(%rax), %rsi	# this_42(D)->D.58840._M_impl.D.58179._M_finish, _21
	movq	-56(%rbp), %rax	# this, tmp139
	movq	(%rax), %rax	# this_42(D)->D.58840._M_impl.D.58179._M_start, _22
	movq	-48(%rbp), %rdx	# __new_start, tmp140
	movq	%rax, %rdi	# _22,
	call	_ZNSt6vectorIiSaIiEE11_S_relocateEPiS2_S2_RS0_	#
# /usr/include/c++/12/bits/vector.tcc:690: 	      _M_deallocate(this->_M_impl._M_start,
	.loc 18 690 21
	movq	-56(%rbp), %rax	# this, _23
# /usr/include/c++/12/bits/vector.tcc:691: 			    this->_M_impl._M_end_of_storage
	.loc 18 691 22
	movq	-56(%rbp), %rdx	# this, tmp141
	movq	16(%rdx), %rcx	# this_42(D)->D.58840._M_impl.D.58179._M_end_of_storage, _24
# /usr/include/c++/12/bits/vector.tcc:692: 			    - this->_M_impl._M_start);
	.loc 18 692 24
	movq	-56(%rbp), %rdx	# this, tmp142
	movq	(%rdx), %rdx	# this_42(D)->D.58840._M_impl.D.58179._M_start, _25
# /usr/include/c++/12/bits/vector.tcc:692: 			    - this->_M_impl._M_start);
	.loc 18 692 8
	subq	%rdx, %rcx	# _25, _26
	sarq	$2, %rcx	#, _26
	movq	%rcx, %rdx	# _26, tmp143
# /usr/include/c++/12/bits/vector.tcc:690: 	      _M_deallocate(this->_M_impl._M_start,
	.loc 18 690 21
	movq	%rdx, %rsi	# _27, _28
	movq	-56(%rbp), %rdx	# this, tmp144
	movq	(%rdx), %rcx	# this_42(D)->D.58840._M_impl.D.58179._M_start, _29
	movq	%rsi, %rdx	# _28,
	movq	%rcx, %rsi	# _29,
	movq	%rax, %rdi	# _23,
.LEHB27:
	call	_ZNSt12_Vector_baseIiSaIiEE13_M_deallocateEPim	#
.LEHE27:
# /usr/include/c++/12/bits/vector.tcc:693: 	      this->_M_impl._M_start = __new_start;
	.loc 18 693 31
	movq	-56(%rbp), %rax	# this, tmp145
	movq	-48(%rbp), %rdx	# __new_start, tmp146
	movq	%rdx, (%rax)	# tmp146, this_42(D)->D.58840._M_impl.D.58179._M_start
# /usr/include/c++/12/bits/vector.tcc:694: 	      this->_M_impl._M_finish = __new_start + __size + __n;
	.loc 18 694 55
	movq	-24(%rbp), %rdx	# __size, tmp147
	movq	-64(%rbp), %rax	# __n, tmp148
	addq	%rdx, %rax	# tmp147, _30
	leaq	0(,%rax,4), %rdx	#, _31
	movq	-48(%rbp), %rax	# __new_start, tmp149
	addq	%rax, %rdx	# tmp149, _32
# /usr/include/c++/12/bits/vector.tcc:694: 	      this->_M_impl._M_finish = __new_start + __size + __n;
	.loc 18 694 32
	movq	-56(%rbp), %rax	# this, tmp150
	movq	%rdx, 8(%rax)	# _32, this_42(D)->D.58840._M_impl.D.58179._M_finish
# /usr/include/c++/12/bits/vector.tcc:695: 	      this->_M_impl._M_end_of_storage = __new_start + __len;
	.loc 18 695 54
	movq	-40(%rbp), %rax	# __len, tmp151
	leaq	0(,%rax,4), %rdx	#, _33
	movq	-48(%rbp), %rax	# __new_start, tmp152
	addq	%rax, %rdx	# tmp152, _34
# /usr/include/c++/12/bits/vector.tcc:695: 	      this->_M_impl._M_end_of_storage = __new_start + __len;
	.loc 18 695 40
	movq	-56(%rbp), %rax	# this, tmp153
	movq	%rdx, 16(%rax)	# _34, this_42(D)->D.58840._M_impl.D.58179._M_end_of_storage
.LBE43:
.LBE45:
.LBE47:
.LBE49:
# /usr/include/c++/12/bits/vector.tcc:698:     }
	.loc 18 698 5
	jmp	.L181	#
.L179:
.LBB50:
.LBB48:
.LBB46:
.LBB44:
# /usr/include/c++/12/bits/vector.tcc:658: 		  __catch(...)
	.loc 18 658 5
	movq	%rax, %rdi	# _17,
	call	__cxa_begin_catch@PLT	#
# /usr/include/c++/12/bits/vector.tcc:660: 		      _M_deallocate(__new_start, __len);
	.loc 18 660 22
	movq	-56(%rbp), %rax	# this, _18
	movq	-40(%rbp), %rdx	# __len, tmp155
	movq	-48(%rbp), %rcx	# __new_start, tmp156
	movq	%rcx, %rsi	# tmp156,
	movq	%rax, %rdi	# _18,
.LEHB28:
	call	_ZNSt12_Vector_baseIiSaIiEE13_M_deallocateEPim	#
# /usr/include/c++/12/bits/vector.tcc:661: 		      __throw_exception_again;
	.loc 18 661 9
	call	__cxa_rethrow@PLT	#
.LEHE28:
.L180:
# /usr/include/c++/12/bits/vector.tcc:658: 		  __catch(...)
	.loc 18 658 5
	movq	%rax, %rbx	#, tmp157
	call	__cxa_end_catch@PLT	#
	movq	%rbx, %rax	# tmp157, D.66501
	movq	%rax, %rdi	# D.66501,
.LEHB29:
	call	_Unwind_Resume@PLT	#
.LEHE29:
.L181:
.LBE44:
.LBE46:
.LBE48:
.LBE50:
# /usr/include/c++/12/bits/vector.tcc:698:     }
	.loc 18 698 5
	nop	
	movq	-8(%rbp), %rbx	#,
	leave	
	.cfi_def_cfa 7, 8
	ret	
	.cfi_endproc
.LFE3094:
	.section	.gcc_except_table
	.align 4
.LLSDA3094:
	.byte	0xff
	.byte	0x9b
	.uleb128 .LLSDATT3094-.LLSDATTD3094
.LLSDATTD3094:
	.byte	0x1
	.uleb128 .LLSDACSE3094-.LLSDACSB3094
.LLSDACSB3094:
	.uleb128 .LEHB25-.LFB3094
	.uleb128 .LEHE25-.LEHB25
	.uleb128 0
	.uleb128 0
	.uleb128 .LEHB26-.LFB3094
	.uleb128 .LEHE26-.LEHB26
	.uleb128 .L179-.LFB3094
	.uleb128 0x1
	.uleb128 .LEHB27-.LFB3094
	.uleb128 .LEHE27-.LEHB27
	.uleb128 0
	.uleb128 0
	.uleb128 .LEHB28-.LFB3094
	.uleb128 .LEHE28-.LEHB28
	.uleb128 .L180-.LFB3094
	.uleb128 0
	.uleb128 .LEHB29-.LFB3094
	.uleb128 .LEHE29-.LEHB29
	.uleb128 0
	.uleb128 0
.LLSDACSE3094:
	.byte	0x1
	.byte	0
	.align 4
	.long	0

.LLSDATT3094:
	.section	.text._ZNSt6vectorIiSaIiEE17_M_default_appendEm,"axG",@progbits,_ZNSt6vectorIiSaIiEE17_M_default_appendEm,comdat
	.size	_ZNSt6vectorIiSaIiEE17_M_default_appendEm, .-_ZNSt6vectorIiSaIiEE17_M_default_appendEm
	.section	.text._ZNSt6vectorIiSaIiEE15_M_erase_at_endEPi,"axG",@progbits,_ZNSt6vectorIiSaIiEE15_M_erase_at_endEPi,comdat
	.align 2
	.weak	_ZNSt6vectorIiSaIiEE15_M_erase_at_endEPi
	.type	_ZNSt6vectorIiSaIiEE15_M_erase_at_endEPi, @function
_ZNSt6vectorIiSaIiEE15_M_erase_at_endEPi:
.LFB3099:
	.loc 9 1928 7
	.cfi_startproc
	.cfi_personality 0x9b,DW.ref.__gxx_personality_v0
	.cfi_lsda 0x1b,.LLSDA3099
	pushq	%rbp	#
	.cfi_def_cfa_offset 16
	.cfi_offset 6, -16
	movq	%rsp, %rbp	#,
	.cfi_def_cfa_register 6
	subq	$32, %rsp	#,
	movq	%rdi, -24(%rbp)	# this, this
	movq	%rsi, -32(%rbp)	# __pos, __pos
.LBB51:
# /usr/include/c++/12/bits/stl_vector.h:1930: 	if (size_type __n = this->_M_impl._M_finish - __pos)
	.loc 9 1930 36
	movq	-24(%rbp), %rax	# this, tmp88
	movq	8(%rax), %rax	# this_9(D)->D.58840._M_impl.D.58179._M_finish, _1
# /usr/include/c++/12/bits/stl_vector.h:1930: 	if (size_type __n = this->_M_impl._M_finish - __pos)
	.loc 9 1930 46
	subq	-32(%rbp), %rax	# __pos, _2
	sarq	$2, %rax	#, tmp89
# /usr/include/c++/12/bits/stl_vector.h:1930: 	if (size_type __n = this->_M_impl._M_finish - __pos)
	.loc 9 1930 16
	movq	%rax, -8(%rbp)	# _3, __n
# /usr/include/c++/12/bits/stl_vector.h:1930: 	if (size_type __n = this->_M_impl._M_finish - __pos)
	.loc 9 1930 2
	cmpq	$0, -8(%rbp)	#, __n
	je	.L184	#,
# /usr/include/c++/12/bits/stl_vector.h:1933: 			  _M_get_Tp_allocator());
	.loc 9 1933 25
	movq	-24(%rbp), %rax	# this, _4
	movq	%rax, %rdi	# _4,
	call	_ZNSt12_Vector_baseIiSaIiEE19_M_get_Tp_allocatorEv	#
	movq	%rax, %rdx	#, _5
# /usr/include/c++/12/bits/stl_vector.h:1932: 	    std::_Destroy(__pos, this->_M_impl._M_finish,
	.loc 9 1932 19
	movq	-24(%rbp), %rax	# this, tmp90
	movq	8(%rax), %rcx	# this_9(D)->D.58840._M_impl.D.58179._M_finish, _6
	movq	-32(%rbp), %rax	# __pos, tmp91
	movq	%rcx, %rsi	# _6,
	movq	%rax, %rdi	# tmp91,
	call	_ZSt8_DestroyIPiiEvT_S1_RSaIT0_E	#
# /usr/include/c++/12/bits/stl_vector.h:1934: 	    this->_M_impl._M_finish = __pos;
	.loc 9 1934 30
	movq	-24(%rbp), %rax	# this, tmp92
	movq	-32(%rbp), %rdx	# __pos, tmp93
	movq	%rdx, 8(%rax)	# tmp93, this_9(D)->D.58840._M_impl.D.58179._M_finish
.L184:
.LBE51:
# /usr/include/c++/12/bits/stl_vector.h:1937:       }
	.loc 9 1937 7
	nop	
	leave	
	.cfi_def_cfa 7, 8
	ret	
	.cfi_endproc
.LFE3099:
	.section	.gcc_except_table
.LLSDA3099:
	.byte	0xff
	.byte	0xff
	.byte	0x1
	.uleb128 .LLSDACSE3099-.LLSDACSB3099
.LLSDACSB3099:
.LLSDACSE3099:
	.section	.text._ZNSt6vectorIiSaIiEE15_M_erase_at_endEPi,"axG",@progbits,_ZNSt6vectorIiSaIiEE15_M_erase_at_endEPi,comdat
	.size	_ZNSt6vectorIiSaIiEE15_M_erase_at_endEPi, .-_ZNSt6vectorIiSaIiEE15_M_erase_at_endEPi
	.section	.text._ZSt8_DestroyIPiEvT_S1_,"axG",@progbits,_ZSt8_DestroyIPiEvT_S1_,comdat
	.weak	_ZSt8_DestroyIPiEvT_S1_
	.type	_ZSt8_DestroyIPiEvT_S1_, @function
_ZSt8_DestroyIPiEvT_S1_:
.LFB3100:
	.file 19 "/usr/include/c++/12/bits/stl_construct.h"
	.loc 19 182 5
	.cfi_startproc
	pushq	%rbp	#
	.cfi_def_cfa_offset 16
	.cfi_offset 6, -16
	movq	%rsp, %rbp	#,
	.cfi_def_cfa_register 6
	subq	$16, %rsp	#,
	movq	%rdi, -8(%rbp)	# __first, __first
	movq	%rsi, -16(%rbp)	# __last, __last
# /usr/include/c++/12/bits/stl_construct.h:196: 	__destroy(__first, __last);
	.loc 19 196 11
	movq	-16(%rbp), %rdx	# __last, tmp82
	movq	-8(%rbp), %rax	# __first, tmp83
	movq	%rdx, %rsi	# tmp82,
	movq	%rax, %rdi	# tmp83,
	call	_ZNSt12_Destroy_auxILb1EE9__destroyIPiEEvT_S3_	#
# /usr/include/c++/12/bits/stl_construct.h:197:     }
	.loc 19 197 5
	nop	
	leave	
	.cfi_def_cfa 7, 8
	ret	
	.cfi_endproc
.LFE3100:
	.size	_ZSt8_DestroyIPiEvT_S1_, .-_ZSt8_DestroyIPiEvT_S1_
	.section	.text._ZNSt12_Vector_baseIlSaIlEE13_M_deallocateEPlm,"axG",@progbits,_ZNSt12_Vector_baseIlSaIlEE13_M_deallocateEPlm,comdat
	.align 2
	.weak	_ZNSt12_Vector_baseIlSaIlEE13_M_deallocateEPlm
	.type	_ZNSt12_Vector_baseIlSaIlEE13_M_deallocateEPlm, @function
_ZNSt12_Vector_baseIlSaIlEE13_M_deallocateEPlm:
.LFB3101:
	.loc 9 383 7
	.cfi_startproc
	pushq	%rbp	#
	.cfi_def_cfa_offset 16
	.cfi_offset 6, -16
	movq	%rsp, %rbp	#,
	.cfi_def_cfa_register 6
	subq	$32, %rsp	#,
	movq	%rdi, -8(%rbp)	# this, this
	movq	%rsi, -16(%rbp)	# __p, __p
	movq	%rdx, -24(%rbp)	# __n, __n
# /usr/include/c++/12/bits/stl_vector.h:386: 	if (__p)
	.loc 9 386 2
	cmpq	$0, -16(%rbp)	#, __p
	je	.L188	#,
# /usr/include/c++/12/bits/stl_vector.h:387: 	  _Tr::deallocate(_M_impl, __p, __n);
	.loc 9 387 20
	movq	-8(%rbp), %rax	# this, _1
# /usr/include/c++/12/bits/stl_vector.h:387: 	  _Tr::deallocate(_M_impl, __p, __n);
	.loc 9 387 19
	movq	-24(%rbp), %rdx	# __n, tmp83
	movq	-16(%rbp), %rcx	# __p, tmp84
	movq	%rcx, %rsi	# tmp84,
	movq	%rax, %rdi	# _1,
	call	_ZNSt16allocator_traitsISaIlEE10deallocateERS0_Plm	#
.L188:
# /usr/include/c++/12/bits/stl_vector.h:388:       }
	.loc 9 388 7
	nop	
	leave	
	.cfi_def_cfa 7, 8
	ret	
	.cfi_endproc
.LFE3101:
	.size	_ZNSt12_Vector_baseIlSaIlEE13_M_deallocateEPlm, .-_ZNSt12_Vector_baseIlSaIlEE13_M_deallocateEPlm
	.section	.text._ZSt8_DestroyIPlEvT_S1_,"axG",@progbits,_ZSt8_DestroyIPlEvT_S1_,comdat
	.weak	_ZSt8_DestroyIPlEvT_S1_
	.type	_ZSt8_DestroyIPlEvT_S1_, @function
_ZSt8_DestroyIPlEvT_S1_:
.LFB3102:
	.loc 19 182 5
	.cfi_startproc
	pushq	%rbp	#
	.cfi_def_cfa_offset 16
	.cfi_offset 6, -16
	movq	%rsp, %rbp	#,
	.cfi_def_cfa_register 6
	subq	$16, %rsp	#,
	movq	%rdi, -8(%rbp)	# __first, __first
	movq	%rsi, -16(%rbp)	# __last, __last
# /usr/include/c++/12/bits/stl_construct.h:196: 	__destroy(__first, __last);
	.loc 19 196 11
	movq	-16(%rbp), %rdx	# __last, tmp82
	movq	-8(%rbp), %rax	# __first, tmp83
	movq	%rdx, %rsi	# tmp82,
	movq	%rax, %rdi	# tmp83,
	call	_ZNSt12_Destroy_auxILb1EE9__destroyIPlEEvT_S3_	#
# /usr/include/c++/12/bits/stl_construct.h:197:     }
	.loc 19 197 5
	nop	
	leave	
	.cfi_def_cfa 7, 8
	ret	
	.cfi_endproc
.LFE3102:
	.size	_ZSt8_DestroyIPlEvT_S1_, .-_ZSt8_DestroyIPlEvT_S1_
	.section	.text._ZSt19__iterator_categoryIPKcENSt15iterator_traitsIT_E17iterator_categoryERKS3_,"axG",@progbits,_ZSt19__iterator_categoryIPKcENSt15iterator_traitsIT_E17iterator_categoryERKS3_,comdat
	.weak	_ZSt19__iterator_categoryIPKcENSt15iterator_traitsIT_E17iterator_categoryERKS3_
	.type	_ZSt19__iterator_categoryIPKcENSt15iterator_traitsIT_E17iterator_categoryERKS3_, @function
_ZSt19__iterator_categoryIPKcENSt15iterator_traitsIT_E17iterator_categoryERKS3_:
.LFB3116:
	.file 20 "/usr/include/c++/12/bits/stl_iterator_base_types.h"
	.loc 20 238 5
	.cfi_startproc
	pushq	%rbp	#
	.cfi_def_cfa_offset 16
	.cfi_offset 6, -16
	movq	%rsp, %rbp	#,
	.cfi_def_cfa_register 6
	movq	%rdi, -8(%rbp)	# D.64759, D.64759
# /usr/include/c++/12/bits/stl_iterator_base_types.h:239:     { return typename iterator_traits<_Iter>::iterator_category(); }
	.loc 20 239 65
	nop	
# /usr/include/c++/12/bits/stl_iterator_base_types.h:239:     { return typename iterator_traits<_Iter>::iterator_category(); }
	.loc 20 239 68
	popq	%rbp	#
	.cfi_def_cfa 7, 8
	ret	
	.cfi_endproc
.LFE3116:
	.size	_ZSt19__iterator_categoryIPKcENSt15iterator_traitsIT_E17iterator_categoryERKS3_, .-_ZSt19__iterator_categoryIPKcENSt15iterator_traitsIT_E17iterator_categoryERKS3_
	.section	.text._ZSt10__distanceIPKcENSt15iterator_traitsIT_E15difference_typeES3_S3_St26random_access_iterator_tag,"axG",@progbits,_ZSt10__distanceIPKcENSt15iterator_traitsIT_E15difference_typeES3_S3_St26random_access_iterator_tag,comdat
	.weak	_ZSt10__distanceIPKcENSt15iterator_traitsIT_E15difference_typeES3_S3_St26random_access_iterator_tag
	.type	_ZSt10__distanceIPKcENSt15iterator_traitsIT_E15difference_typeES3_S3_St26random_access_iterator_tag, @function
_ZSt10__distanceIPKcENSt15iterator_traitsIT_E15difference_typeES3_S3_St26random_access_iterator_tag:
.LFB3117:
	.loc 14 99 5
	.cfi_startproc
	pushq	%rbp	#
	.cfi_def_cfa_offset 16
	.cfi_offset 6, -16
	movq	%rsp, %rbp	#,
	.cfi_def_cfa_register 6
	movq	%rdi, -8(%rbp)	# __first, __first
	movq	%rsi, -16(%rbp)	# __last, __last
# /usr/include/c++/12/bits/stl_iterator_base_funcs.h:105:       return __last - __first;
	.loc 14 105 23
	movq	-16(%rbp), %rax	# __last, tmp84
	subq	-8(%rbp), %rax	# __first, _3
# /usr/include/c++/12/bits/stl_iterator_base_funcs.h:106:     }
	.loc 14 106 5
	popq	%rbp	#
	.cfi_def_cfa 7, 8
	ret	
	.cfi_endproc
.LFE3117:
	.size	_ZSt10__distanceIPKcENSt15iterator_traitsIT_E15difference_typeES3_S3_St26random_access_iterator_tag, .-_ZSt10__distanceIPKcENSt15iterator_traitsIT_E15difference_typeES3_S3_St26random_access_iterator_tag
	.section	.text._ZNSt15__new_allocatorIiEC2Ev,"axG",@progbits,_ZNSt15__new_allocatorIiEC5Ev,comdat
	.align 2
	.weak	_ZNSt15__new_allocatorIiEC2Ev
	.type	_ZNSt15__new_allocatorIiEC2Ev, @function
_ZNSt15__new_allocatorIiEC2Ev:
.LFB3158:
	.loc 15 80 7
	.cfi_startproc
	pushq	%rbp	#
	.cfi_def_cfa_offset 16
	.cfi_offset 6, -16
	movq	%rsp, %rbp	#,
	.cfi_def_cfa_register 6
	movq	%rdi, -8(%rbp)	# this, this
# /usr/include/c++/12/bits/new_allocator.h:80:       __new_allocator() _GLIBCXX_USE_NOEXCEPT { }
	.loc 15 80 49
	nop	
	popq	%rbp	#
	.cfi_def_cfa 7, 8
	ret	
	.cfi_endproc
.LFE3158:
	.size	_ZNSt15__new_allocatorIiEC2Ev, .-_ZNSt15__new_allocatorIiEC2Ev
	.weak	_ZNSt15__new_allocatorIiEC1Ev
	.set	_ZNSt15__new_allocatorIiEC1Ev,_ZNSt15__new_allocatorIiEC2Ev
	.section	.text._ZNSt16allocator_traitsISaIiEE10deallocateERS0_Pim,"axG",@progbits,_ZNSt16allocator_traitsISaIiEE10deallocateERS0_Pim,comdat
	.weak	_ZNSt16allocator_traitsISaIiEE10deallocateERS0_Pim
	.type	_ZNSt16allocator_traitsISaIiEE10deallocateERS0_Pim, @function
_ZNSt16allocator_traitsISaIiEE10deallocateERS0_Pim:
.LFB3160:
	.loc 13 495 7
	.cfi_startproc
	pushq	%rbp	#
	.cfi_def_cfa_offset 16
	.cfi_offset 6, -16
	movq	%rsp, %rbp	#,
	.cfi_def_cfa_register 6
	subq	$32, %rsp	#,
	movq	%rdi, -8(%rbp)	# __a, __a
	movq	%rsi, -16(%rbp)	# __p, __p
	movq	%rdx, -24(%rbp)	# __n, __n
# /usr/include/c++/12/bits/alloc_traits.h:496:       { __a.deallocate(__p, __n); }
	.loc 13 496 23
	movq	-24(%rbp), %rdx	# __n, tmp82
	movq	-16(%rbp), %rcx	# __p, tmp83
	movq	-8(%rbp), %rax	# __a, tmp84
	movq	%rcx, %rsi	# tmp83,
	movq	%rax, %rdi	# tmp84,
	call	_ZNSt15__new_allocatorIiE10deallocateEPim	#
# /usr/include/c++/12/bits/alloc_traits.h:496:       { __a.deallocate(__p, __n); }
	.loc 13 496 35
	nop	
	leave	
	.cfi_def_cfa 7, 8
	ret	
	.cfi_endproc
.LFE3160:
	.size	_ZNSt16allocator_traitsISaIiEE10deallocateERS0_Pim, .-_ZNSt16allocator_traitsISaIiEE10deallocateERS0_Pim
	.section	.text._ZNSt12_Vector_baseIlSaIlEE12_Vector_implC2ERKS0_,"axG",@progbits,_ZNSt12_Vector_baseIlSaIlEE12_Vector_implC5ERKS0_,comdat
	.align 2
	.weak	_ZNSt12_Vector_baseIlSaIlEE12_Vector_implC2ERKS0_
	.type	_ZNSt12_Vector_baseIlSaIlEE12_Vector_implC2ERKS0_, @function
_ZNSt12_Vector_baseIlSaIlEE12_Vector_implC2ERKS0_:
.LFB3162:
	.loc 9 143 2
	.cfi_startproc
	pushq	%rbp	#
	.cfi_def_cfa_offset 16
	.cfi_offset 6, -16
	movq	%rsp, %rbp	#,
	.cfi_def_cfa_register 6
	subq	$16, %rsp	#,
	movq	%rdi, -8(%rbp)	# this, this
	movq	%rsi, -16(%rbp)	# __a, __a
.LBB52:
# /usr/include/c++/12/bits/stl_vector.h:144: 	: _Tp_alloc_type(__a)
	.loc 9 144 22
	movq	-16(%rbp), %rdx	# __a, tmp83
	movq	-8(%rbp), %rax	# this, tmp84
	movq	%rdx, %rsi	# tmp83,
	movq	%rax, %rdi	# tmp84,
	call	_ZNSaIlEC2ERKS_	#
	movq	-8(%rbp), %rax	# this, _1
	movq	%rax, %rdi	# _1,
	call	_ZNSt12_Vector_baseIlSaIlEE17_Vector_impl_dataC2Ev	#
.LBE52:
# /usr/include/c++/12/bits/stl_vector.h:145: 	{ }
	.loc 9 145 4
	nop	
	leave	
	.cfi_def_cfa 7, 8
	ret	
	.cfi_endproc
.LFE3162:
	.size	_ZNSt12_Vector_baseIlSaIlEE12_Vector_implC2ERKS0_, .-_ZNSt12_Vector_baseIlSaIlEE12_Vector_implC2ERKS0_
	.weak	_ZNSt12_Vector_baseIlSaIlEE12_Vector_implC1ERKS0_
	.set	_ZNSt12_Vector_baseIlSaIlEE12_Vector_implC1ERKS0_,_ZNSt12_Vector_baseIlSaIlEE12_Vector_implC2ERKS0_
	.section	.text._ZNKSt16initializer_listIlE4sizeEv,"axG",@progbits,_ZNKSt16initializer_listIlE4sizeEv,comdat
	.align 2
	.weak	_ZNKSt16initializer_listIlE4sizeEv
	.type	_ZNKSt16initializer_listIlE4sizeEv, @function
_ZNKSt16initializer_listIlE4sizeEv:
.LFB3164:
	.loc 16 71 7
	.cfi_startproc
	pushq	%rbp	#
	.cfi_def_cfa_offset 16
	.cfi_offset 6, -16
	movq	%rsp, %rbp	#,
	.cfi_def_cfa_register 6
	movq	%rdi, -8(%rbp)	# this, this
# /usr/include/c++/12/initializer_list:71:       size() const noexcept { return _M_len; }
	.loc 16 71 38
	movq	-8(%rbp), %rax	# this, tmp84
	movq	8(%rax), %rax	# this_2(D)->_M_len, _3
# /usr/include/c++/12/initializer_list:71:       size() const noexcept { return _M_len; }
	.loc 16 71 46
	popq	%rbp	#
	.cfi_def_cfa 7, 8
	ret	
	.cfi_endproc
.LFE3164:
	.size	_ZNKSt16initializer_listIlE4sizeEv, .-_ZNKSt16initializer_listIlE4sizeEv
	.section	.text._ZSt19__iterator_categoryIPKlENSt15iterator_traitsIT_E17iterator_categoryERKS3_,"axG",@progbits,_ZSt19__iterator_categoryIPKlENSt15iterator_traitsIT_E17iterator_categoryERKS3_,comdat
	.weak	_ZSt19__iterator_categoryIPKlENSt15iterator_traitsIT_E17iterator_categoryERKS3_
	.type	_ZSt19__iterator_categoryIPKlENSt15iterator_traitsIT_E17iterator_categoryERKS3_, @function
_ZSt19__iterator_categoryIPKlENSt15iterator_traitsIT_E17iterator_categoryERKS3_:
.LFB3165:
	.loc 20 238 5
	.cfi_startproc
	pushq	%rbp	#
	.cfi_def_cfa_offset 16
	.cfi_offset 6, -16
	movq	%rsp, %rbp	#,
	.cfi_def_cfa_register 6
	movq	%rdi, -8(%rbp)	# D.64972, D.64972
# /usr/include/c++/12/bits/stl_iterator_base_types.h:239:     { return typename iterator_traits<_Iter>::iterator_category(); }
	.loc 20 239 65
	nop	
# /usr/include/c++/12/bits/stl_iterator_base_types.h:239:     { return typename iterator_traits<_Iter>::iterator_category(); }
	.loc 20 239 68
	popq	%rbp	#
	.cfi_def_cfa 7, 8
	ret	
	.cfi_endproc
.LFE3165:
	.size	_ZSt19__iterator_categoryIPKlENSt15iterator_traitsIT_E17iterator_categoryERKS3_, .-_ZSt19__iterator_categoryIPKlENSt15iterator_traitsIT_E17iterator_categoryERKS3_
	.section	.text._ZSt10__distanceIPKlENSt15iterator_traitsIT_E15difference_typeES3_S3_St26random_access_iterator_tag,"axG",@progbits,_ZSt10__distanceIPKlENSt15iterator_traitsIT_E15difference_typeES3_S3_St26random_access_iterator_tag,comdat
	.weak	_ZSt10__distanceIPKlENSt15iterator_traitsIT_E15difference_typeES3_S3_St26random_access_iterator_tag
	.type	_ZSt10__distanceIPKlENSt15iterator_traitsIT_E15difference_typeES3_S3_St26random_access_iterator_tag, @function
_ZSt10__distanceIPKlENSt15iterator_traitsIT_E15difference_typeES3_S3_St26random_access_iterator_tag:
.LFB3166:
	.loc 14 99 5
	.cfi_startproc
	pushq	%rbp	#
	.cfi_def_cfa_offset 16
	.cfi_offset 6, -16
	movq	%rsp, %rbp	#,
	.cfi_def_cfa_register 6
	movq	%rdi, -8(%rbp)	# __first, __first
	movq	%rsi, -16(%rbp)	# __last, __last
# /usr/include/c++/12/bits/stl_iterator_base_funcs.h:105:       return __last - __first;
	.loc 14 105 21
	movq	-16(%rbp), %rax	# __last, tmp85
	subq	-8(%rbp), %rax	# __first, _1
# /usr/include/c++/12/bits/stl_iterator_base_funcs.h:105:       return __last - __first;
	.loc 14 105 23
	sarq	$3, %rax	#, tmp86
# /usr/include/c++/12/bits/stl_iterator_base_funcs.h:106:     }
	.loc 14 106 5
	popq	%rbp	#
	.cfi_def_cfa 7, 8
	ret	
	.cfi_endproc
.LFE3166:
	.size	_ZSt10__distanceIPKlENSt15iterator_traitsIT_E15difference_typeES3_S3_St26random_access_iterator_tag, .-_ZSt10__distanceIPKlENSt15iterator_traitsIT_E15difference_typeES3_S3_St26random_access_iterator_tag
	.section	.rodata
	.align 8
.LC6:
	.string	"cannot create std::vector larger than max_size()"
	.section	.text._ZNSt6vectorIlSaIlEE17_S_check_init_lenEmRKS0_,"axG",@progbits,_ZNSt6vectorIlSaIlEE17_S_check_init_lenEmRKS0_,comdat
	.weak	_ZNSt6vectorIlSaIlEE17_S_check_init_lenEmRKS0_
	.type	_ZNSt6vectorIlSaIlEE17_S_check_init_lenEmRKS0_, @function
_ZNSt6vectorIlSaIlEE17_S_check_init_lenEmRKS0_:
.LFB3167:
	.loc 9 1902 7
	.cfi_startproc
	pushq	%rbp	#
	.cfi_def_cfa_offset 16
	.cfi_offset 6, -16
	movq	%rsp, %rbp	#,
	.cfi_def_cfa_register 6
	pushq	%rbx	#
	subq	$40, %rsp	#,
	.cfi_offset 3, -24
	movq	%rdi, -40(%rbp)	# __n, __n
	movq	%rsi, -48(%rbp)	# __a, __a
# /usr/include/c++/12/bits/stl_vector.h:1904: 	if (__n > _S_max_size(_Tp_alloc_type(__a)))
	.loc 9 1904 24
	movq	-48(%rbp), %rdx	# __a, tmp86
	leaq	-17(%rbp), %rax	#, tmp87
	movq	%rdx, %rsi	# tmp86,
	movq	%rax, %rdi	# tmp87,
	call	_ZNSaIlEC1ERKS_	#
# /usr/include/c++/12/bits/stl_vector.h:1904: 	if (__n > _S_max_size(_Tp_alloc_type(__a)))
	.loc 9 1904 23
	leaq	-17(%rbp), %rax	#, tmp88
	movq	%rax, %rdi	# tmp88,
	call	_ZNSt6vectorIlSaIlEE11_S_max_sizeERKS0_	#
# /usr/include/c++/12/bits/stl_vector.h:1904: 	if (__n > _S_max_size(_Tp_alloc_type(__a)))
	.loc 9 1904 10
	cmpq	-40(%rbp), %rax	# __n, _1
	setb	%bl	#, retval.16_7
# /usr/include/c++/12/bits/stl_vector.h:1904: 	if (__n > _S_max_size(_Tp_alloc_type(__a)))
	.loc 9 1904 24
	leaq	-17(%rbp), %rax	#, tmp89
	movq	%rax, %rdi	# tmp89,
	call	_ZNSaIlED1Ev	#
# /usr/include/c++/12/bits/stl_vector.h:1904: 	if (__n > _S_max_size(_Tp_alloc_type(__a)))
	.loc 9 1904 2
	testb	%bl, %bl	# retval.16_7
	je	.L204	#,
# /usr/include/c++/12/bits/stl_vector.h:1905: 	  __throw_length_error(
	.loc 9 1905 24
	leaq	.LC6(%rip), %rax	#, tmp90
	movq	%rax, %rdi	# tmp90,
	call	_ZSt20__throw_length_errorPKc@PLT	#
.L204:
# /usr/include/c++/12/bits/stl_vector.h:1907: 	return __n;
	.loc 9 1907 9
	movq	-40(%rbp), %rax	# __n, _10
# /usr/include/c++/12/bits/stl_vector.h:1908:       }
	.loc 9 1908 7
	movq	-8(%rbp), %rbx	#,
	leave	
	.cfi_def_cfa 7, 8
	ret	
	.cfi_endproc
.LFE3167:
	.size	_ZNSt6vectorIlSaIlEE17_S_check_init_lenEmRKS0_, .-_ZNSt6vectorIlSaIlEE17_S_check_init_lenEmRKS0_
	.section	.text._ZNSt12_Vector_baseIlSaIlEE11_M_allocateEm,"axG",@progbits,_ZNSt12_Vector_baseIlSaIlEE11_M_allocateEm,comdat
	.align 2
	.weak	_ZNSt12_Vector_baseIlSaIlEE11_M_allocateEm
	.type	_ZNSt12_Vector_baseIlSaIlEE11_M_allocateEm, @function
_ZNSt12_Vector_baseIlSaIlEE11_M_allocateEm:
.LFB3168:
	.loc 9 375 7
	.cfi_startproc
	pushq	%rbp	#
	.cfi_def_cfa_offset 16
	.cfi_offset 6, -16
	movq	%rsp, %rbp	#,
	.cfi_def_cfa_register 6
	subq	$16, %rsp	#,
	movq	%rdi, -8(%rbp)	# this, this
	movq	%rsi, -16(%rbp)	# __n, __n
# /usr/include/c++/12/bits/stl_vector.h:378: 	return __n != 0 ? _Tr::allocate(_M_impl, __n) : pointer();
	.loc 9 378 18
	cmpq	$0, -16(%rbp)	#, __n
	je	.L207	#,
# /usr/include/c++/12/bits/stl_vector.h:378: 	return __n != 0 ? _Tr::allocate(_M_impl, __n) : pointer();
	.loc 9 378 34 discriminator 1
	movq	-8(%rbp), %rax	# this, _1
# /usr/include/c++/12/bits/stl_vector.h:378: 	return __n != 0 ? _Tr::allocate(_M_impl, __n) : pointer();
	.loc 9 378 33 discriminator 1
	movq	-16(%rbp), %rdx	# __n, tmp85
	movq	%rdx, %rsi	# tmp85,
	movq	%rax, %rdi	# _1,
	call	_ZNSt16allocator_traitsISaIlEE8allocateERS0_m	#
# /usr/include/c++/12/bits/stl_vector.h:378: 	return __n != 0 ? _Tr::allocate(_M_impl, __n) : pointer();
	.loc 9 378 58 discriminator 1
	jmp	.L209	#
.L207:
# /usr/include/c++/12/bits/stl_vector.h:378: 	return __n != 0 ? _Tr::allocate(_M_impl, __n) : pointer();
	.loc 9 378 18 discriminator 2
	movl	$0, %eax	#, _9
.L209:
# /usr/include/c++/12/bits/stl_vector.h:379:       }
	.loc 9 379 7 discriminator 5
	leave	
	.cfi_def_cfa 7, 8
	ret	
	.cfi_endproc
.LFE3168:
	.size	_ZNSt12_Vector_baseIlSaIlEE11_M_allocateEm, .-_ZNSt12_Vector_baseIlSaIlEE11_M_allocateEm
	.section	.text._ZSt22__uninitialized_copy_aIPKlPllET0_T_S4_S3_RSaIT1_E,"axG",@progbits,_ZSt22__uninitialized_copy_aIPKlPllET0_T_S4_S3_RSaIT1_E,comdat
	.weak	_ZSt22__uninitialized_copy_aIPKlPllET0_T_S4_S3_RSaIT1_E
	.type	_ZSt22__uninitialized_copy_aIPKlPllET0_T_S4_S3_RSaIT1_E, @function
_ZSt22__uninitialized_copy_aIPKlPllET0_T_S4_S3_RSaIT1_E:
.LFB3169:
	.file 21 "/usr/include/c++/12/bits/stl_uninitialized.h"
	.loc 21 365 5
	.cfi_startproc
	pushq	%rbp	#
	.cfi_def_cfa_offset 16
	.cfi_offset 6, -16
	movq	%rsp, %rbp	#,
	.cfi_def_cfa_register 6
	subq	$32, %rsp	#,
	movq	%rdi, -8(%rbp)	# __first, __first
	movq	%rsi, -16(%rbp)	# __last, __last
	movq	%rdx, -24(%rbp)	# __result, __result
	movq	%rcx, -32(%rbp)	# D.64997, D.64997
# /usr/include/c++/12/bits/stl_uninitialized.h:372:       return std::uninitialized_copy(__first, __last, __result);
	.loc 21 372 37
	movq	-24(%rbp), %rdx	# __result, tmp84
	movq	-16(%rbp), %rcx	# __last, tmp85
	movq	-8(%rbp), %rax	# __first, tmp86
	movq	%rcx, %rsi	# tmp85,
	movq	%rax, %rdi	# tmp86,
	call	_ZSt18uninitialized_copyIPKlPlET0_T_S4_S3_	#
# /usr/include/c++/12/bits/stl_uninitialized.h:373:     }
	.loc 21 373 5
	leave	
	.cfi_def_cfa 7, 8
	ret	
	.cfi_endproc
.LFE3169:
	.size	_ZSt22__uninitialized_copy_aIPKlPllET0_T_S4_S3_RSaIT1_E, .-_ZSt22__uninitialized_copy_aIPKlPllET0_T_S4_S3_RSaIT1_E
	.section	.text._ZNK9__gnu_cxx17__normal_iteratorIPlSt6vectorIlSaIlEEE4baseEv,"axG",@progbits,_ZNK9__gnu_cxx17__normal_iteratorIPlSt6vectorIlSaIlEEE4baseEv,comdat
	.align 2
	.weak	_ZNK9__gnu_cxx17__normal_iteratorIPlSt6vectorIlSaIlEEE4baseEv
	.type	_ZNK9__gnu_cxx17__normal_iteratorIPlSt6vectorIlSaIlEEE4baseEv, @function
_ZNK9__gnu_cxx17__normal_iteratorIPlSt6vectorIlSaIlEEE4baseEv:
.LFB3170:
	.loc 17 1158 7
	.cfi_startproc
	pushq	%rbp	#
	.cfi_def_cfa_offset 16
	.cfi_offset 6, -16
	movq	%rsp, %rbp	#,
	.cfi_def_cfa_register 6
	movq	%rdi, -8(%rbp)	# this, this
# /usr/include/c++/12/bits/stl_iterator.h:1159:       { return _M_current; }
	.loc 17 1159 16
	movq	-8(%rbp), %rax	# this, _2
# /usr/include/c++/12/bits/stl_iterator.h:1159:       { return _M_current; }
	.loc 17 1159 28
	popq	%rbp	#
	.cfi_def_cfa 7, 8
	ret	
	.cfi_endproc
.LFE3170:
	.size	_ZNK9__gnu_cxx17__normal_iteratorIPlSt6vectorIlSaIlEEE4baseEv, .-_ZNK9__gnu_cxx17__normal_iteratorIPlSt6vectorIlSaIlEEE4baseEv
	.section	.text._ZNKSt6vectorIiSaIiEE8max_sizeEv,"axG",@progbits,_ZNKSt6vectorIiSaIiEE8max_sizeEv,comdat
	.align 2
	.weak	_ZNKSt6vectorIiSaIiEE8max_sizeEv
	.type	_ZNKSt6vectorIiSaIiEE8max_sizeEv, @function
_ZNKSt6vectorIiSaIiEE8max_sizeEv:
.LFB3171:
	.loc 9 993 7
	.cfi_startproc
	pushq	%rbp	#
	.cfi_def_cfa_offset 16
	.cfi_offset 6, -16
	movq	%rsp, %rbp	#,
	.cfi_def_cfa_register 6
	subq	$16, %rsp	#,
	movq	%rdi, -8(%rbp)	# this, this
# /usr/include/c++/12/bits/stl_vector.h:994:       { return _S_max_size(_M_get_Tp_allocator()); }
	.loc 9 994 47
	movq	-8(%rbp), %rax	# this, _1
	movq	%rax, %rdi	# _1,
	call	_ZNKSt12_Vector_baseIiSaIiEE19_M_get_Tp_allocatorEv	#
# /usr/include/c++/12/bits/stl_vector.h:994:       { return _S_max_size(_M_get_Tp_allocator()); }
	.loc 9 994 27
	movq	%rax, %rdi	# _2,
	call	_ZNSt6vectorIiSaIiEE11_S_max_sizeERKS0_	#
# /usr/include/c++/12/bits/stl_vector.h:994:       { return _S_max_size(_M_get_Tp_allocator()); }
	.loc 9 994 52
	leave	
	.cfi_def_cfa 7, 8
	ret	
	.cfi_endproc
.LFE3171:
	.size	_ZNKSt6vectorIiSaIiEE8max_sizeEv, .-_ZNKSt6vectorIiSaIiEE8max_sizeEv
	.section	.text._ZSt27__uninitialized_default_n_aIPimiET_S1_T0_RSaIT1_E,"axG",@progbits,_ZSt27__uninitialized_default_n_aIPimiET_S1_T0_RSaIT1_E,comdat
	.weak	_ZSt27__uninitialized_default_n_aIPimiET_S1_T0_RSaIT1_E
	.type	_ZSt27__uninitialized_default_n_aIPimiET_S1_T0_RSaIT1_E, @function
_ZSt27__uninitialized_default_n_aIPimiET_S1_T0_RSaIT1_E:
.LFB3172:
	.loc 21 764 5
	.cfi_startproc
	pushq	%rbp	#
	.cfi_def_cfa_offset 16
	.cfi_offset 6, -16
	movq	%rsp, %rbp	#,
	.cfi_def_cfa_register 6
	subq	$32, %rsp	#,
	movq	%rdi, -8(%rbp)	# __first, __first
	movq	%rsi, -16(%rbp)	# __n, __n
	movq	%rdx, -24(%rbp)	# D.65007, D.65007
# /usr/include/c++/12/bits/stl_uninitialized.h:766:     { return std::__uninitialized_default_n(__first, __n); }
	.loc 21 766 44
	movq	-16(%rbp), %rdx	# __n, tmp84
	movq	-8(%rbp), %rax	# __first, tmp85
	movq	%rdx, %rsi	# tmp84,
	movq	%rax, %rdi	# tmp85,
	call	_ZSt25__uninitialized_default_nIPimET_S1_T0_	#
# /usr/include/c++/12/bits/stl_uninitialized.h:766:     { return std::__uninitialized_default_n(__first, __n); }
	.loc 21 766 60
	leave	
	.cfi_def_cfa 7, 8
	ret	
	.cfi_endproc
.LFE3172:
	.size	_ZSt27__uninitialized_default_n_aIPimiET_S1_T0_RSaIT1_E, .-_ZSt27__uninitialized_default_n_aIPimiET_S1_T0_RSaIT1_E
	.section	.text._ZNKSt6vectorIiSaIiEE12_M_check_lenEmPKc,"axG",@progbits,_ZNKSt6vectorIiSaIiEE12_M_check_lenEmPKc,comdat
	.align 2
	.weak	_ZNKSt6vectorIiSaIiEE12_M_check_lenEmPKc
	.type	_ZNKSt6vectorIiSaIiEE12_M_check_lenEmPKc, @function
_ZNKSt6vectorIiSaIiEE12_M_check_lenEmPKc:
.LFB3173:
	.loc 9 1891 7
	.cfi_startproc
	pushq	%rbp	#
	.cfi_def_cfa_offset 16
	.cfi_offset 6, -16
	movq	%rsp, %rbp	#,
	.cfi_def_cfa_register 6
	pushq	%rbx	#
	subq	$56, %rsp	#,
	.cfi_offset 3, -24
	movq	%rdi, -40(%rbp)	# this, this
	movq	%rsi, -48(%rbp)	# __n, __n
	movq	%rdx, -56(%rbp)	# __s, __s
# /usr/include/c++/12/bits/stl_vector.h:1893: 	if (max_size() - size() < __n)
	.loc 9 1893 14
	movq	-40(%rbp), %rax	# this, tmp95
	movq	%rax, %rdi	# tmp95,
	call	_ZNKSt6vectorIiSaIiEE8max_sizeEv	#
	movq	%rax, %rbx	#, _1
# /usr/include/c++/12/bits/stl_vector.h:1893: 	if (max_size() - size() < __n)
	.loc 9 1893 23
	movq	-40(%rbp), %rax	# this, tmp96
	movq	%rax, %rdi	# tmp96,
	call	_ZNKSt6vectorIiSaIiEE4sizeEv	#
# /usr/include/c++/12/bits/stl_vector.h:1893: 	if (max_size() - size() < __n)
	.loc 9 1893 17
	subq	%rax, %rbx	# _2, _1
	movq	%rbx, %rdx	# _1, _3
# /usr/include/c++/12/bits/stl_vector.h:1893: 	if (max_size() - size() < __n)
	.loc 9 1893 26
	movq	-48(%rbp), %rax	# __n, __n.28_4
	cmpq	%rax, %rdx	# __n.28_4, _3
	setb	%al	#, retval.27_18
# /usr/include/c++/12/bits/stl_vector.h:1893: 	if (max_size() - size() < __n)
	.loc 9 1893 2
	testb	%al, %al	# retval.27_18
	je	.L219	#,
# /usr/include/c++/12/bits/stl_vector.h:1894: 	  __throw_length_error(__N(__s));
	.loc 9 1894 24
	movq	-56(%rbp), %rax	# __s, tmp97
	movq	%rax, %rdi	# tmp97,
	call	_ZSt20__throw_length_errorPKc@PLT	#
.L219:
# /usr/include/c++/12/bits/stl_vector.h:1896: 	const size_type __len = size() + (std::max)(size(), __n);
	.loc 9 1896 30
	movq	-40(%rbp), %rax	# this, tmp98
	movq	%rax, %rdi	# tmp98,
	call	_ZNKSt6vectorIiSaIiEE4sizeEv	#
	movq	%rax, %rbx	#, _5
# /usr/include/c++/12/bits/stl_vector.h:1896: 	const size_type __len = size() + (std::max)(size(), __n);
	.loc 9 1896 50
	movq	-40(%rbp), %rax	# this, tmp99
	movq	%rax, %rdi	# tmp99,
	call	_ZNKSt6vectorIiSaIiEE4sizeEv	#
	movq	%rax, -32(%rbp)	# _6, D.65019
# /usr/include/c++/12/bits/stl_vector.h:1896: 	const size_type __len = size() + (std::max)(size(), __n);
	.loc 9 1896 45
	leaq	-48(%rbp), %rdx	#, tmp100
	leaq	-32(%rbp), %rax	#, tmp101
	movq	%rdx, %rsi	# tmp100,
	movq	%rax, %rdi	# tmp101,
	call	_ZSt3maxImERKT_S2_S2_	#
# /usr/include/c++/12/bits/stl_vector.h:1896: 	const size_type __len = size() + (std::max)(size(), __n);
	.loc 9 1896 33
	movq	(%rax), %rax	# *_7, _8
# /usr/include/c++/12/bits/stl_vector.h:1896: 	const size_type __len = size() + (std::max)(size(), __n);
	.loc 9 1896 18
	addq	%rbx, %rax	# _5, tmp102
	movq	%rax, -24(%rbp)	# tmp102, __len
# /usr/include/c++/12/bits/stl_vector.h:1897: 	return (__len < size() || __len > max_size()) ? max_size() : __len;
	.loc 9 1897 22
	movq	-40(%rbp), %rax	# this, tmp103
	movq	%rax, %rdi	# tmp103,
	call	_ZNKSt6vectorIiSaIiEE4sizeEv	#
# /usr/include/c++/12/bits/stl_vector.h:1897: 	return (__len < size() || __len > max_size()) ? max_size() : __len;
	.loc 9 1897 48
	cmpq	%rax, -24(%rbp)	# _9, __len
	jb	.L220	#,
# /usr/include/c++/12/bits/stl_vector.h:1897: 	return (__len < size() || __len > max_size()) ? max_size() : __len;
	.loc 9 1897 44 discriminator 2
	movq	-40(%rbp), %rax	# this, tmp104
	movq	%rax, %rdi	# tmp104,
	call	_ZNKSt6vectorIiSaIiEE8max_sizeEv	#
# /usr/include/c++/12/bits/stl_vector.h:1897: 	return (__len < size() || __len > max_size()) ? max_size() : __len;
	.loc 9 1897 25 discriminator 2
	cmpq	-24(%rbp), %rax	# __len, _10
	jnb	.L221	#,
.L220:
# /usr/include/c++/12/bits/stl_vector.h:1897: 	return (__len < size() || __len > max_size()) ? max_size() : __len;
	.loc 9 1897 58 discriminator 3
	movq	-40(%rbp), %rax	# this, tmp105
	movq	%rax, %rdi	# tmp105,
	call	_ZNKSt6vectorIiSaIiEE8max_sizeEv	#
# /usr/include/c++/12/bits/stl_vector.h:1897: 	return (__len < size() || __len > max_size()) ? max_size() : __len;
	.loc 9 1897 48 discriminator 3
	jmp	.L222	#
.L221:
# /usr/include/c++/12/bits/stl_vector.h:1897: 	return (__len < size() || __len > max_size()) ? max_size() : __len;
	.loc 9 1897 48 is_stmt 0 discriminator 4
	movq	-24(%rbp), %rax	# __len, iftmp.29_11
.L222:
# /usr/include/c++/12/bits/stl_vector.h:1898:       }
	.loc 9 1898 7 is_stmt 1 discriminator 6
	movq	-8(%rbp), %rbx	#,
	leave	
	.cfi_def_cfa 7, 8
	ret	
	.cfi_endproc
.LFE3173:
	.size	_ZNKSt6vectorIiSaIiEE12_M_check_lenEmPKc, .-_ZNKSt6vectorIiSaIiEE12_M_check_lenEmPKc
	.section	.text._ZNSt12_Vector_baseIiSaIiEE11_M_allocateEm,"axG",@progbits,_ZNSt12_Vector_baseIiSaIiEE11_M_allocateEm,comdat
	.align 2
	.weak	_ZNSt12_Vector_baseIiSaIiEE11_M_allocateEm
	.type	_ZNSt12_Vector_baseIiSaIiEE11_M_allocateEm, @function
_ZNSt12_Vector_baseIiSaIiEE11_M_allocateEm:
.LFB3174:
	.loc 9 375 7
	.cfi_startproc
	pushq	%rbp	#
	.cfi_def_cfa_offset 16
	.cfi_offset 6, -16
	movq	%rsp, %rbp	#,
	.cfi_def_cfa_register 6
	subq	$16, %rsp	#,
	movq	%rdi, -8(%rbp)	# this, this
	movq	%rsi, -16(%rbp)	# __n, __n
# /usr/include/c++/12/bits/stl_vector.h:378: 	return __n != 0 ? _Tr::allocate(_M_impl, __n) : pointer();
	.loc 9 378 18
	cmpq	$0, -16(%rbp)	#, __n
	je	.L225	#,
# /usr/include/c++/12/bits/stl_vector.h:378: 	return __n != 0 ? _Tr::allocate(_M_impl, __n) : pointer();
	.loc 9 378 34 discriminator 1
	movq	-8(%rbp), %rax	# this, _1
# /usr/include/c++/12/bits/stl_vector.h:378: 	return __n != 0 ? _Tr::allocate(_M_impl, __n) : pointer();
	.loc 9 378 33 discriminator 1
	movq	-16(%rbp), %rdx	# __n, tmp85
	movq	%rdx, %rsi	# tmp85,
	movq	%rax, %rdi	# _1,
	call	_ZNSt16allocator_traitsISaIiEE8allocateERS0_m	#
# /usr/include/c++/12/bits/stl_vector.h:378: 	return __n != 0 ? _Tr::allocate(_M_impl, __n) : pointer();
	.loc 9 378 58 discriminator 1
	jmp	.L227	#
.L225:
# /usr/include/c++/12/bits/stl_vector.h:378: 	return __n != 0 ? _Tr::allocate(_M_impl, __n) : pointer();
	.loc 9 378 18 discriminator 2
	movl	$0, %eax	#, _9
.L227:
# /usr/include/c++/12/bits/stl_vector.h:379:       }
	.loc 9 379 7 discriminator 5
	leave	
	.cfi_def_cfa 7, 8
	ret	
	.cfi_endproc
.LFE3174:
	.size	_ZNSt12_Vector_baseIiSaIiEE11_M_allocateEm, .-_ZNSt12_Vector_baseIiSaIiEE11_M_allocateEm
	.section	.text._ZNSt6vectorIiSaIiEE11_S_relocateEPiS2_S2_RS0_,"axG",@progbits,_ZNSt6vectorIiSaIiEE11_S_relocateEPiS2_S2_RS0_,comdat
	.weak	_ZNSt6vectorIiSaIiEE11_S_relocateEPiS2_S2_RS0_
	.type	_ZNSt6vectorIiSaIiEE11_S_relocateEPiS2_S2_RS0_, @function
_ZNSt6vectorIiSaIiEE11_S_relocateEPiS2_S2_RS0_:
.LFB3175:
	.loc 9 499 7
	.cfi_startproc
	pushq	%rbp	#
	.cfi_def_cfa_offset 16
	.cfi_offset 6, -16
	movq	%rsp, %rbp	#,
	.cfi_def_cfa_register 6
	subq	$32, %rsp	#,
	movq	%rdi, -8(%rbp)	# __first, __first
	movq	%rsi, -16(%rbp)	# __last, __last
	movq	%rdx, -24(%rbp)	# __result, __result
	movq	%rcx, -32(%rbp)	# __alloc, __alloc
# /usr/include/c++/12/bits/stl_vector.h:504: 	return std::__relocate_a(__first, __last, __result, __alloc);
	.loc 9 504 26
	movq	-32(%rbp), %rcx	# __alloc, tmp84
	movq	-24(%rbp), %rdx	# __result, tmp85
	movq	-16(%rbp), %rsi	# __last, tmp86
	movq	-8(%rbp), %rax	# __first, tmp87
	movq	%rax, %rdi	# tmp87,
	call	_ZSt12__relocate_aIPiS0_SaIiEET0_T_S3_S2_RT1_	#
# /usr/include/c++/12/bits/stl_vector.h:509:       }
	.loc 9 509 7
	leave	
	.cfi_def_cfa 7, 8
	ret	
	.cfi_endproc
.LFE3175:
	.size	_ZNSt6vectorIiSaIiEE11_S_relocateEPiS2_S2_RS0_, .-_ZNSt6vectorIiSaIiEE11_S_relocateEPiS2_S2_RS0_
	.section	.text._ZNSt12_Destroy_auxILb1EE9__destroyIPiEEvT_S3_,"axG",@progbits,_ZNSt12_Destroy_auxILb1EE9__destroyIPiEEvT_S3_,comdat
	.weak	_ZNSt12_Destroy_auxILb1EE9__destroyIPiEEvT_S3_
	.type	_ZNSt12_Destroy_auxILb1EE9__destroyIPiEEvT_S3_, @function
_ZNSt12_Destroy_auxILb1EE9__destroyIPiEEvT_S3_:
.LFB3176:
	.loc 19 172 9
	.cfi_startproc
	pushq	%rbp	#
	.cfi_def_cfa_offset 16
	.cfi_offset 6, -16
	movq	%rsp, %rbp	#,
	.cfi_def_cfa_register 6
	movq	%rdi, -8(%rbp)	# D.65028, D.65028
	movq	%rsi, -16(%rbp)	# D.65029, D.65029
# /usr/include/c++/12/bits/stl_construct.h:172:         __destroy(_ForwardIterator, _ForwardIterator) { }
	.loc 19 172 57
	nop	
	popq	%rbp	#
	.cfi_def_cfa 7, 8
	ret	
	.cfi_endproc
.LFE3176:
	.size	_ZNSt12_Destroy_auxILb1EE9__destroyIPiEEvT_S3_, .-_ZNSt12_Destroy_auxILb1EE9__destroyIPiEEvT_S3_
	.section	.text._ZNSt16allocator_traitsISaIlEE10deallocateERS0_Plm,"axG",@progbits,_ZNSt16allocator_traitsISaIlEE10deallocateERS0_Plm,comdat
	.weak	_ZNSt16allocator_traitsISaIlEE10deallocateERS0_Plm
	.type	_ZNSt16allocator_traitsISaIlEE10deallocateERS0_Plm, @function
_ZNSt16allocator_traitsISaIlEE10deallocateERS0_Plm:
.LFB3177:
	.loc 13 495 7
	.cfi_startproc
	pushq	%rbp	#
	.cfi_def_cfa_offset 16
	.cfi_offset 6, -16
	movq	%rsp, %rbp	#,
	.cfi_def_cfa_register 6
	subq	$32, %rsp	#,
	movq	%rdi, -8(%rbp)	# __a, __a
	movq	%rsi, -16(%rbp)	# __p, __p
	movq	%rdx, -24(%rbp)	# __n, __n
# /usr/include/c++/12/bits/alloc_traits.h:496:       { __a.deallocate(__p, __n); }
	.loc 13 496 23
	movq	-24(%rbp), %rdx	# __n, tmp82
	movq	-16(%rbp), %rcx	# __p, tmp83
	movq	-8(%rbp), %rax	# __a, tmp84
	movq	%rcx, %rsi	# tmp83,
	movq	%rax, %rdi	# tmp84,
	call	_ZNSt15__new_allocatorIlE10deallocateEPlm	#
# /usr/include/c++/12/bits/alloc_traits.h:496:       { __a.deallocate(__p, __n); }
	.loc 13 496 35
	nop	
	leave	
	.cfi_def_cfa 7, 8
	ret	
	.cfi_endproc
.LFE3177:
	.size	_ZNSt16allocator_traitsISaIlEE10deallocateERS0_Plm, .-_ZNSt16allocator_traitsISaIlEE10deallocateERS0_Plm
	.section	.text._ZNSt12_Destroy_auxILb1EE9__destroyIPlEEvT_S3_,"axG",@progbits,_ZNSt12_Destroy_auxILb1EE9__destroyIPlEEvT_S3_,comdat
	.weak	_ZNSt12_Destroy_auxILb1EE9__destroyIPlEEvT_S3_
	.type	_ZNSt12_Destroy_auxILb1EE9__destroyIPlEEvT_S3_, @function
_ZNSt12_Destroy_auxILb1EE9__destroyIPlEEvT_S3_:
.LFB3178:
	.loc 19 172 9
	.cfi_startproc
	pushq	%rbp	#
	.cfi_def_cfa_offset 16
	.cfi_offset 6, -16
	movq	%rsp, %rbp	#,
	.cfi_def_cfa_register 6
	movq	%rdi, -8(%rbp)	# D.65035, D.65035
	movq	%rsi, -16(%rbp)	# D.65036, D.65036
# /usr/include/c++/12/bits/stl_construct.h:172:         __destroy(_ForwardIterator, _ForwardIterator) { }
	.loc 19 172 57
	nop	
	popq	%rbp	#
	.cfi_def_cfa 7, 8
	ret	
	.cfi_endproc
.LFE3178:
	.size	_ZNSt12_Destroy_auxILb1EE9__destroyIPlEEvT_S3_, .-_ZNSt12_Destroy_auxILb1EE9__destroyIPlEEvT_S3_
	.section	.text._ZNSt15__new_allocatorIiE10deallocateEPim,"axG",@progbits,_ZNSt15__new_allocatorIiE10deallocateEPim,comdat
	.align 2
	.weak	_ZNSt15__new_allocatorIiE10deallocateEPim
	.type	_ZNSt15__new_allocatorIiE10deallocateEPim, @function
_ZNSt15__new_allocatorIiE10deallocateEPim:
.LFB3200:
	.loc 15 142 7
	.cfi_startproc
	pushq	%rbp	#
	.cfi_def_cfa_offset 16
	.cfi_offset 6, -16
	movq	%rsp, %rbp	#,
	.cfi_def_cfa_register 6
	subq	$32, %rsp	#,
	movq	%rdi, -8(%rbp)	# this, this
	movq	%rsi, -16(%rbp)	# __p, __p
	movq	%rdx, -24(%rbp)	# __n, __n
# /usr/include/c++/12/bits/new_allocator.h:158: 	_GLIBCXX_OPERATOR_DELETE(_GLIBCXX_SIZED_DEALLOC(__p, __n));
	.loc 15 158 26
	movq	-24(%rbp), %rax	# __n, tmp83
	leaq	0(,%rax,4), %rdx	#, _2
	movq	-16(%rbp), %rax	# __p, tmp84
	movq	%rdx, %rsi	# _2,
	movq	%rax, %rdi	# tmp84,
	call	_ZdlPvm@PLT	#
# /usr/include/c++/12/bits/new_allocator.h:159:       }
	.loc 15 159 7
	leave	
	.cfi_def_cfa 7, 8
	ret	
	.cfi_endproc
.LFE3200:
	.size	_ZNSt15__new_allocatorIiE10deallocateEPim, .-_ZNSt15__new_allocatorIiE10deallocateEPim
	.section	.text._ZNSaIlEC2ERKS_,"axG",@progbits,_ZNSaIlEC5ERKS_,comdat
	.align 2
	.weak	_ZNSaIlEC2ERKS_
	.type	_ZNSaIlEC2ERKS_, @function
_ZNSaIlEC2ERKS_:
.LFB3202:
	.loc 11 159 7
	.cfi_startproc
	pushq	%rbp	#
	.cfi_def_cfa_offset 16
	.cfi_offset 6, -16
	movq	%rsp, %rbp	#,
	.cfi_def_cfa_register 6
	subq	$16, %rsp	#,
	movq	%rdi, -8(%rbp)	# this, this
	movq	%rsi, -16(%rbp)	# __a, __a
.LBB53:
# /usr/include/c++/12/bits/allocator.h:160:       : __allocator_base<_Tp>(__a) { }
	.loc 11 160 34
	movq	-16(%rbp), %rdx	# __a, tmp82
	movq	-8(%rbp), %rax	# this, tmp83
	movq	%rdx, %rsi	# tmp82,
	movq	%rax, %rdi	# tmp83,
	call	_ZNSt15__new_allocatorIlEC2ERKS0_	#
.LBE53:
# /usr/include/c++/12/bits/allocator.h:160:       : __allocator_base<_Tp>(__a) { }
	.loc 11 160 38
	nop	
	leave	
	.cfi_def_cfa 7, 8
	ret	
	.cfi_endproc
.LFE3202:
	.size	_ZNSaIlEC2ERKS_, .-_ZNSaIlEC2ERKS_
	.weak	_ZNSaIlEC1ERKS_
	.set	_ZNSaIlEC1ERKS_,_ZNSaIlEC2ERKS_
	.section	.text._ZNSt12_Vector_baseIlSaIlEE17_Vector_impl_dataC2Ev,"axG",@progbits,_ZNSt12_Vector_baseIlSaIlEE17_Vector_impl_dataC5Ev,comdat
	.align 2
	.weak	_ZNSt12_Vector_baseIlSaIlEE17_Vector_impl_dataC2Ev
	.type	_ZNSt12_Vector_baseIlSaIlEE17_Vector_impl_dataC2Ev, @function
_ZNSt12_Vector_baseIlSaIlEE17_Vector_impl_dataC2Ev:
.LFB3205:
	.loc 9 99 2
	.cfi_startproc
	pushq	%rbp	#
	.cfi_def_cfa_offset 16
	.cfi_offset 6, -16
	movq	%rsp, %rbp	#,
	.cfi_def_cfa_register 6
	movq	%rdi, -8(%rbp)	# this, this
.LBB54:
# /usr/include/c++/12/bits/stl_vector.h:100: 	: _M_start(), _M_finish(), _M_end_of_storage()
	.loc 9 100 4
	movq	-8(%rbp), %rax	# this, tmp82
	movq	$0, (%rax)	#, this_2(D)->_M_start
# /usr/include/c++/12/bits/stl_vector.h:100: 	: _M_start(), _M_finish(), _M_end_of_storage()
	.loc 9 100 16
	movq	-8(%rbp), %rax	# this, tmp83
	movq	$0, 8(%rax)	#, this_2(D)->_M_finish
# /usr/include/c++/12/bits/stl_vector.h:100: 	: _M_start(), _M_finish(), _M_end_of_storage()
	.loc 9 100 29
	movq	-8(%rbp), %rax	# this, tmp84
	movq	$0, 16(%rax)	#, this_2(D)->_M_end_of_storage
.LBE54:
# /usr/include/c++/12/bits/stl_vector.h:101: 	{ }
	.loc 9 101 4
	nop	
	popq	%rbp	#
	.cfi_def_cfa 7, 8
	ret	
	.cfi_endproc
.LFE3205:
	.size	_ZNSt12_Vector_baseIlSaIlEE17_Vector_impl_dataC2Ev, .-_ZNSt12_Vector_baseIlSaIlEE17_Vector_impl_dataC2Ev
	.weak	_ZNSt12_Vector_baseIlSaIlEE17_Vector_impl_dataC1Ev
	.set	_ZNSt12_Vector_baseIlSaIlEE17_Vector_impl_dataC1Ev,_ZNSt12_Vector_baseIlSaIlEE17_Vector_impl_dataC2Ev
	.section	.text._ZNSt6vectorIlSaIlEE11_S_max_sizeERKS0_,"axG",@progbits,_ZNSt6vectorIlSaIlEE11_S_max_sizeERKS0_,comdat
	.weak	_ZNSt6vectorIlSaIlEE11_S_max_sizeERKS0_
	.type	_ZNSt6vectorIlSaIlEE11_S_max_sizeERKS0_, @function
_ZNSt6vectorIlSaIlEE11_S_max_sizeERKS0_:
.LFB3207:
	.loc 9 1911 7
	.cfi_startproc
	pushq	%rbp	#
	.cfi_def_cfa_offset 16
	.cfi_offset 6, -16
	movq	%rsp, %rbp	#,
	.cfi_def_cfa_register 6
	subq	$32, %rsp	#,
	movq	%rdi, -24(%rbp)	# __a, __a
# /usr/include/c++/12/bits/stl_vector.h:1916: 	const size_t __diffmax
	.loc 9 1916 15
	movabsq	$1152921504606846975, %rax	#, tmp91
	movq	%rax, -8(%rbp)	# tmp91, __diffmax
# /usr/include/c++/12/bits/stl_vector.h:1918: 	const size_t __allocmax = _Alloc_traits::max_size(__a);
	.loc 9 1918 51
	movq	-24(%rbp), %rax	# __a, tmp86
	movq	%rax, %rdi	# tmp86,
	call	_ZNSt16allocator_traitsISaIlEE8max_sizeERKS0_	#
# /usr/include/c++/12/bits/stl_vector.h:1918: 	const size_t __allocmax = _Alloc_traits::max_size(__a);
	.loc 9 1918 15
	movq	%rax, -16(%rbp)	# _1, __allocmax
# /usr/include/c++/12/bits/stl_vector.h:1919: 	return (std::min)(__diffmax, __allocmax);
	.loc 9 1919 19
	leaq	-16(%rbp), %rdx	#, tmp87
	leaq	-8(%rbp), %rax	#, tmp88
	movq	%rdx, %rsi	# tmp87,
	movq	%rax, %rdi	# tmp88,
	call	_ZSt3minImERKT_S2_S2_	#
# /usr/include/c++/12/bits/stl_vector.h:1919: 	return (std::min)(__diffmax, __allocmax);
	.loc 9 1919 41
	movq	(%rax), %rax	# *_2, _9
# /usr/include/c++/12/bits/stl_vector.h:1920:       }
	.loc 9 1920 7
	leave	
	.cfi_def_cfa 7, 8
	ret	
	.cfi_endproc
.LFE3207:
	.size	_ZNSt6vectorIlSaIlEE11_S_max_sizeERKS0_, .-_ZNSt6vectorIlSaIlEE11_S_max_sizeERKS0_
	.section	.text._ZNSt16allocator_traitsISaIlEE8allocateERS0_m,"axG",@progbits,_ZNSt16allocator_traitsISaIlEE8allocateERS0_m,comdat
	.weak	_ZNSt16allocator_traitsISaIlEE8allocateERS0_m
	.type	_ZNSt16allocator_traitsISaIlEE8allocateERS0_m, @function
_ZNSt16allocator_traitsISaIlEE8allocateERS0_m:
.LFB3208:
	.loc 13 463 7
	.cfi_startproc
	pushq	%rbp	#
	.cfi_def_cfa_offset 16
	.cfi_offset 6, -16
	movq	%rsp, %rbp	#,
	.cfi_def_cfa_register 6
	subq	$16, %rsp	#,
	movq	%rdi, -8(%rbp)	# __a, __a
	movq	%rsi, -16(%rbp)	# __n, __n
# /usr/include/c++/12/bits/alloc_traits.h:464:       { return __a.allocate(__n); }
	.loc 13 464 28
	movq	-16(%rbp), %rcx	# __n, tmp84
	movq	-8(%rbp), %rax	# __a, tmp85
	movl	$0, %edx	#,
	movq	%rcx, %rsi	# tmp84,
	movq	%rax, %rdi	# tmp85,
	call	_ZNSt15__new_allocatorIlE8allocateEmPKv	#
# /usr/include/c++/12/bits/alloc_traits.h:464:       { return __a.allocate(__n); }
	.loc 13 464 35
	leave	
	.cfi_def_cfa 7, 8
	ret	
	.cfi_endproc
.LFE3208:
	.size	_ZNSt16allocator_traitsISaIlEE8allocateERS0_m, .-_ZNSt16allocator_traitsISaIlEE8allocateERS0_m
	.section	.text._ZSt18uninitialized_copyIPKlPlET0_T_S4_S3_,"axG",@progbits,_ZSt18uninitialized_copyIPKlPlET0_T_S4_S3_,comdat
	.weak	_ZSt18uninitialized_copyIPKlPlET0_T_S4_S3_
	.type	_ZSt18uninitialized_copyIPKlPlET0_T_S4_S3_, @function
_ZSt18uninitialized_copyIPKlPlET0_T_S4_S3_:
.LFB3209:
	.loc 21 163 5
	.cfi_startproc
	pushq	%rbp	#
	.cfi_def_cfa_offset 16
	.cfi_offset 6, -16
	movq	%rsp, %rbp	#,
	.cfi_def_cfa_register 6
	subq	$48, %rsp	#,
	movq	%rdi, -24(%rbp)	# __first, __first
	movq	%rsi, -32(%rbp)	# __last, __last
	movq	%rdx, -40(%rbp)	# __result, __result
# /usr/include/c++/12/bits/stl_uninitialized.h:174:       const bool __can_memmove = __is_trivial(_ValueType1);
	.loc 21 174 18
	movb	$1, -1(%rbp)	#, __can_memmove
# /usr/include/c++/12/bits/stl_uninitialized.h:181:       const bool __assignable
	.loc 21 181 18
	movb	$1, -2(%rbp)	#, __assignable
# /usr/include/c++/12/bits/stl_uninitialized.h:185: 	__uninit_copy(__first, __last, __result);
	.loc 21 185 15
	movq	-40(%rbp), %rdx	# __result, tmp84
	movq	-32(%rbp), %rcx	# __last, tmp85
	movq	-24(%rbp), %rax	# __first, tmp86
	movq	%rcx, %rsi	# tmp85,
	movq	%rax, %rdi	# tmp86,
	call	_ZNSt20__uninitialized_copyILb1EE13__uninit_copyIPKlPlEET0_T_S6_S5_	#
# /usr/include/c++/12/bits/stl_uninitialized.h:186:     }
	.loc 21 186 5
	leave	
	.cfi_def_cfa 7, 8
	ret	
	.cfi_endproc
.LFE3209:
	.size	_ZSt18uninitialized_copyIPKlPlET0_T_S4_S3_, .-_ZSt18uninitialized_copyIPKlPlET0_T_S4_S3_
	.section	.text._ZNSt6vectorIiSaIiEE11_S_max_sizeERKS0_,"axG",@progbits,_ZNSt6vectorIiSaIiEE11_S_max_sizeERKS0_,comdat
	.weak	_ZNSt6vectorIiSaIiEE11_S_max_sizeERKS0_
	.type	_ZNSt6vectorIiSaIiEE11_S_max_sizeERKS0_, @function
_ZNSt6vectorIiSaIiEE11_S_max_sizeERKS0_:
.LFB3211:
	.loc 9 1911 7
	.cfi_startproc
	pushq	%rbp	#
	.cfi_def_cfa_offset 16
	.cfi_offset 6, -16
	movq	%rsp, %rbp	#,
	.cfi_def_cfa_register 6
	subq	$32, %rsp	#,
	movq	%rdi, -24(%rbp)	# __a, __a
# /usr/include/c++/12/bits/stl_vector.h:1916: 	const size_t __diffmax
	.loc 9 1916 15
	movabsq	$2305843009213693951, %rax	#, tmp91
	movq	%rax, -8(%rbp)	# tmp91, __diffmax
# /usr/include/c++/12/bits/stl_vector.h:1918: 	const size_t __allocmax = _Alloc_traits::max_size(__a);
	.loc 9 1918 51
	movq	-24(%rbp), %rax	# __a, tmp86
	movq	%rax, %rdi	# tmp86,
	call	_ZNSt16allocator_traitsISaIiEE8max_sizeERKS0_	#
# /usr/include/c++/12/bits/stl_vector.h:1918: 	const size_t __allocmax = _Alloc_traits::max_size(__a);
	.loc 9 1918 15
	movq	%rax, -16(%rbp)	# _1, __allocmax
# /usr/include/c++/12/bits/stl_vector.h:1919: 	return (std::min)(__diffmax, __allocmax);
	.loc 9 1919 19
	leaq	-16(%rbp), %rdx	#, tmp87
	leaq	-8(%rbp), %rax	#, tmp88
	movq	%rdx, %rsi	# tmp87,
	movq	%rax, %rdi	# tmp88,
	call	_ZSt3minImERKT_S2_S2_	#
# /usr/include/c++/12/bits/stl_vector.h:1919: 	return (std::min)(__diffmax, __allocmax);
	.loc 9 1919 41
	movq	(%rax), %rax	# *_2, _9
# /usr/include/c++/12/bits/stl_vector.h:1920:       }
	.loc 9 1920 7
	leave	
	.cfi_def_cfa 7, 8
	ret	
	.cfi_endproc
.LFE3211:
	.size	_ZNSt6vectorIiSaIiEE11_S_max_sizeERKS0_, .-_ZNSt6vectorIiSaIiEE11_S_max_sizeERKS0_
	.section	.text._ZNKSt12_Vector_baseIiSaIiEE19_M_get_Tp_allocatorEv,"axG",@progbits,_ZNKSt12_Vector_baseIiSaIiEE19_M_get_Tp_allocatorEv,comdat
	.align 2
	.weak	_ZNKSt12_Vector_baseIiSaIiEE19_M_get_Tp_allocatorEv
	.type	_ZNKSt12_Vector_baseIiSaIiEE19_M_get_Tp_allocatorEv, @function
_ZNKSt12_Vector_baseIiSaIiEE19_M_get_Tp_allocatorEv:
.LFB3212:
	.loc 9 303 7
	.cfi_startproc
	pushq	%rbp	#
	.cfi_def_cfa_offset 16
	.cfi_offset 6, -16
	movq	%rsp, %rbp	#,
	.cfi_def_cfa_register 6
	movq	%rdi, -8(%rbp)	# this, this
# /usr/include/c++/12/bits/stl_vector.h:304:       { return this->_M_impl; }
	.loc 9 304 22
	movq	-8(%rbp), %rax	# this, _2
# /usr/include/c++/12/bits/stl_vector.h:304:       { return this->_M_impl; }
	.loc 9 304 31
	popq	%rbp	#
	.cfi_def_cfa 7, 8
	ret	
	.cfi_endproc
.LFE3212:
	.size	_ZNKSt12_Vector_baseIiSaIiEE19_M_get_Tp_allocatorEv, .-_ZNKSt12_Vector_baseIiSaIiEE19_M_get_Tp_allocatorEv
	.section	.text._ZSt25__uninitialized_default_nIPimET_S1_T0_,"axG",@progbits,_ZSt25__uninitialized_default_nIPimET_S1_T0_,comdat
	.weak	_ZSt25__uninitialized_default_nIPimET_S1_T0_
	.type	_ZSt25__uninitialized_default_nIPimET_S1_T0_, @function
_ZSt25__uninitialized_default_nIPimET_S1_T0_:
.LFB3213:
	.loc 21 691 5
	.cfi_startproc
	pushq	%rbp	#
	.cfi_def_cfa_offset 16
	.cfi_offset 6, -16
	movq	%rsp, %rbp	#,
	.cfi_def_cfa_register 6
	subq	$32, %rsp	#,
	movq	%rdi, -24(%rbp)	# __first, __first
	movq	%rsi, -32(%rbp)	# __n, __n
# /usr/include/c++/12/bits/stl_uninitialized.h:696:       constexpr bool __can_fill
	.loc 21 696 22
	movb	$1, -1(%rbp)	#, __can_fill
# /usr/include/c++/12/bits/stl_uninitialized.h:701: 	__uninit_default_n(__first, __n);
	.loc 21 701 20
	movq	-32(%rbp), %rdx	# __n, tmp84
	movq	-24(%rbp), %rax	# __first, tmp85
	movq	%rdx, %rsi	# tmp84,
	movq	%rax, %rdi	# tmp85,
	call	_ZNSt27__uninitialized_default_n_1ILb1EE18__uninit_default_nIPimEET_S3_T0_	#
# /usr/include/c++/12/bits/stl_uninitialized.h:702:     }
	.loc 21 702 5
	leave	
	.cfi_def_cfa 7, 8
	ret	
	.cfi_endproc
.LFE3213:
	.size	_ZSt25__uninitialized_default_nIPimET_S1_T0_, .-_ZSt25__uninitialized_default_nIPimET_S1_T0_
	.section	.text._ZSt3maxImERKT_S2_S2_,"axG",@progbits,_ZSt3maxImERKT_S2_S2_,comdat
	.weak	_ZSt3maxImERKT_S2_S2_
	.type	_ZSt3maxImERKT_S2_S2_, @function
_ZSt3maxImERKT_S2_S2_:
.LFB3214:
	.loc 4 254 5
	.cfi_startproc
	pushq	%rbp	#
	.cfi_def_cfa_offset 16
	.cfi_offset 6, -16
	movq	%rsp, %rbp	#,
	.cfi_def_cfa_register 6
	movq	%rdi, -8(%rbp)	# __a, __a
	movq	%rsi, -16(%rbp)	# __b, __b
# /usr/include/c++/12/bits/stl_algobase.h:259:       if (__a < __b)
	.loc 4 259 15
	movq	-8(%rbp), %rax	# __a, tmp86
	movq	(%rax), %rdx	# *__a_5(D), _1
	movq	-16(%rbp), %rax	# __b, tmp87
	movq	(%rax), %rax	# *__b_6(D), _2
# /usr/include/c++/12/bits/stl_algobase.h:259:       if (__a < __b)
	.loc 4 259 7
	cmpq	%rax, %rdx	# _2, _1
	jnb	.L250	#,
# /usr/include/c++/12/bits/stl_algobase.h:260: 	return __b;
	.loc 4 260 9
	movq	-16(%rbp), %rax	# __b, _3
	jmp	.L251	#
.L250:
# /usr/include/c++/12/bits/stl_algobase.h:261:       return __a;
	.loc 4 261 14
	movq	-8(%rbp), %rax	# __a, _3
.L251:
# /usr/include/c++/12/bits/stl_algobase.h:262:     }
	.loc 4 262 5
	popq	%rbp	#
	.cfi_def_cfa 7, 8
	ret	
	.cfi_endproc
.LFE3214:
	.size	_ZSt3maxImERKT_S2_S2_, .-_ZSt3maxImERKT_S2_S2_
	.section	.text._ZNSt16allocator_traitsISaIiEE8allocateERS0_m,"axG",@progbits,_ZNSt16allocator_traitsISaIiEE8allocateERS0_m,comdat
	.weak	_ZNSt16allocator_traitsISaIiEE8allocateERS0_m
	.type	_ZNSt16allocator_traitsISaIiEE8allocateERS0_m, @function
_ZNSt16allocator_traitsISaIiEE8allocateERS0_m:
.LFB3215:
	.loc 13 463 7
	.cfi_startproc
	pushq	%rbp	#
	.cfi_def_cfa_offset 16
	.cfi_offset 6, -16
	movq	%rsp, %rbp	#,
	.cfi_def_cfa_register 6
	subq	$16, %rsp	#,
	movq	%rdi, -8(%rbp)	# __a, __a
	movq	%rsi, -16(%rbp)	# __n, __n
# /usr/include/c++/12/bits/alloc_traits.h:464:       { return __a.allocate(__n); }
	.loc 13 464 28
	movq	-16(%rbp), %rcx	# __n, tmp84
	movq	-8(%rbp), %rax	# __a, tmp85
	movl	$0, %edx	#,
	movq	%rcx, %rsi	# tmp84,
	movq	%rax, %rdi	# tmp85,
	call	_ZNSt15__new_allocatorIiE8allocateEmPKv	#
# /usr/include/c++/12/bits/alloc_traits.h:464:       { return __a.allocate(__n); }
	.loc 13 464 35
	leave	
	.cfi_def_cfa 7, 8
	ret	
	.cfi_endproc
.LFE3215:
	.size	_ZNSt16allocator_traitsISaIiEE8allocateERS0_m, .-_ZNSt16allocator_traitsISaIiEE8allocateERS0_m
	.section	.text._ZSt12__relocate_aIPiS0_SaIiEET0_T_S3_S2_RT1_,"axG",@progbits,_ZSt12__relocate_aIPiS0_SaIiEET0_T_S3_S2_RT1_,comdat
	.weak	_ZSt12__relocate_aIPiS0_SaIiEET0_T_S3_S2_RT1_
	.type	_ZSt12__relocate_aIPiS0_SaIiEET0_T_S3_S2_RT1_, @function
_ZSt12__relocate_aIPiS0_SaIiEET0_T_S3_S2_RT1_:
.LFB3216:
	.loc 21 1127 5
	.cfi_startproc
	pushq	%rbp	#
	.cfi_def_cfa_offset 16
	.cfi_offset 6, -16
	movq	%rsp, %rbp	#,
	.cfi_def_cfa_register 6
	pushq	%r12	#
	pushq	%rbx	#
	subq	$32, %rsp	#,
	.cfi_offset 12, -24
	.cfi_offset 3, -32
	movq	%rdi, -24(%rbp)	# __first, __first
	movq	%rsi, -32(%rbp)	# __last, __last
	movq	%rdx, -40(%rbp)	# __result, __result
	movq	%rcx, -48(%rbp)	# __alloc, __alloc
# /usr/include/c++/12/bits/stl_uninitialized.h:1133:       return std::__relocate_a_1(std::__niter_base(__first),
	.loc 21 1133 33
	movq	-40(%rbp), %rax	# __result, tmp87
	movq	%rax, %rdi	# tmp87,
	call	_ZSt12__niter_baseIPiET_S1_	#
	movq	%rax, %r12	#, _1
	movq	-32(%rbp), %rax	# __last, tmp88
	movq	%rax, %rdi	# tmp88,
	call	_ZSt12__niter_baseIPiET_S1_	#
	movq	%rax, %rbx	#, _2
	movq	-24(%rbp), %rax	# __first, tmp89
	movq	%rax, %rdi	# tmp89,
	call	_ZSt12__niter_baseIPiET_S1_	#
	movq	%rax, %rdi	#, _3
	movq	-48(%rbp), %rax	# __alloc, tmp90
	movq	%rax, %rcx	# tmp90,
	movq	%r12, %rdx	# _1,
	movq	%rbx, %rsi	# _2,
	call	_ZSt14__relocate_a_1IiiENSt9enable_ifIXsrSt24__is_bitwise_relocatableIT_vE5valueEPS2_E4typeES4_S4_S4_RSaIT0_E	#
# /usr/include/c++/12/bits/stl_uninitialized.h:1136:     }
	.loc 21 1136 5
	addq	$32, %rsp	#,
	popq	%rbx	#
	popq	%r12	#
	popq	%rbp	#
	.cfi_def_cfa 7, 8
	ret	
	.cfi_endproc
.LFE3216:
	.size	_ZSt12__relocate_aIPiS0_SaIiEET0_T_S3_S2_RT1_, .-_ZSt12__relocate_aIPiS0_SaIiEET0_T_S3_S2_RT1_
	.section	.text._ZNSt15__new_allocatorIlE10deallocateEPlm,"axG",@progbits,_ZNSt15__new_allocatorIlE10deallocateEPlm,comdat
	.align 2
	.weak	_ZNSt15__new_allocatorIlE10deallocateEPlm
	.type	_ZNSt15__new_allocatorIlE10deallocateEPlm, @function
_ZNSt15__new_allocatorIlE10deallocateEPlm:
.LFB3217:
	.loc 15 142 7
	.cfi_startproc
	pushq	%rbp	#
	.cfi_def_cfa_offset 16
	.cfi_offset 6, -16
	movq	%rsp, %rbp	#,
	.cfi_def_cfa_register 6
	subq	$32, %rsp	#,
	movq	%rdi, -8(%rbp)	# this, this
	movq	%rsi, -16(%rbp)	# __p, __p
	movq	%rdx, -24(%rbp)	# __n, __n
# /usr/include/c++/12/bits/new_allocator.h:158: 	_GLIBCXX_OPERATOR_DELETE(_GLIBCXX_SIZED_DEALLOC(__p, __n));
	.loc 15 158 26
	movq	-24(%rbp), %rax	# __n, tmp83
	leaq	0(,%rax,8), %rdx	#, _2
	movq	-16(%rbp), %rax	# __p, tmp84
	movq	%rdx, %rsi	# _2,
	movq	%rax, %rdi	# tmp84,
	call	_ZdlPvm@PLT	#
# /usr/include/c++/12/bits/new_allocator.h:159:       }
	.loc 15 159 7
	leave	
	.cfi_def_cfa 7, 8
	ret	
	.cfi_endproc
.LFE3217:
	.size	_ZNSt15__new_allocatorIlE10deallocateEPlm, .-_ZNSt15__new_allocatorIlE10deallocateEPlm
	.section	.text._ZNSt15__new_allocatorIlEC2ERKS0_,"axG",@progbits,_ZNSt15__new_allocatorIlEC5ERKS0_,comdat
	.align 2
	.weak	_ZNSt15__new_allocatorIlEC2ERKS0_
	.type	_ZNSt15__new_allocatorIlEC2ERKS0_, @function
_ZNSt15__new_allocatorIlEC2ERKS0_:
.LFB3228:
	.loc 15 83 7
	.cfi_startproc
	pushq	%rbp	#
	.cfi_def_cfa_offset 16
	.cfi_offset 6, -16
	movq	%rsp, %rbp	#,
	.cfi_def_cfa_register 6
	movq	%rdi, -8(%rbp)	# this, this
	movq	%rsi, -16(%rbp)	# D.56742, D.56742
# /usr/include/c++/12/bits/new_allocator.h:83:       __new_allocator(const __new_allocator&) _GLIBCXX_USE_NOEXCEPT { }
	.loc 15 83 71
	nop	
	popq	%rbp	#
	.cfi_def_cfa 7, 8
	ret	
	.cfi_endproc
.LFE3228:
	.size	_ZNSt15__new_allocatorIlEC2ERKS0_, .-_ZNSt15__new_allocatorIlEC2ERKS0_
	.weak	_ZNSt15__new_allocatorIlEC1ERKS0_
	.set	_ZNSt15__new_allocatorIlEC1ERKS0_,_ZNSt15__new_allocatorIlEC2ERKS0_
	.section	.text._ZNSt16allocator_traitsISaIlEE8max_sizeERKS0_,"axG",@progbits,_ZNSt16allocator_traitsISaIlEE8max_sizeERKS0_,comdat
	.weak	_ZNSt16allocator_traitsISaIlEE8max_sizeERKS0_
	.type	_ZNSt16allocator_traitsISaIlEE8max_sizeERKS0_, @function
_ZNSt16allocator_traitsISaIlEE8max_sizeERKS0_:
.LFB3230:
	.loc 13 547 7
	.cfi_startproc
	pushq	%rbp	#
	.cfi_def_cfa_offset 16
	.cfi_offset 6, -16
	movq	%rsp, %rbp	#,
	.cfi_def_cfa_register 6
	subq	$16, %rsp	#,
	movq	%rdi, -8(%rbp)	# __a, __a
# /usr/include/c++/12/bits/alloc_traits.h:550: 	return __a.max_size();
	.loc 13 550 21
	movq	-8(%rbp), %rax	# __a, tmp84
	movq	%rax, %rdi	# tmp84,
	call	_ZNKSt15__new_allocatorIlE8max_sizeEv	#
# /usr/include/c++/12/bits/alloc_traits.h:554:       }
	.loc 13 554 7
	leave	
	.cfi_def_cfa 7, 8
	ret	
	.cfi_endproc
.LFE3230:
	.size	_ZNSt16allocator_traitsISaIlEE8max_sizeERKS0_, .-_ZNSt16allocator_traitsISaIlEE8max_sizeERKS0_
	.section	.text._ZSt3minImERKT_S2_S2_,"axG",@progbits,_ZSt3minImERKT_S2_S2_,comdat
	.weak	_ZSt3minImERKT_S2_S2_
	.type	_ZSt3minImERKT_S2_S2_, @function
_ZSt3minImERKT_S2_S2_:
.LFB3231:
	.loc 4 230 5
	.cfi_startproc
	pushq	%rbp	#
	.cfi_def_cfa_offset 16
	.cfi_offset 6, -16
	movq	%rsp, %rbp	#,
	.cfi_def_cfa_register 6
	movq	%rdi, -8(%rbp)	# __a, __a
	movq	%rsi, -16(%rbp)	# __b, __b
# /usr/include/c++/12/bits/stl_algobase.h:235:       if (__b < __a)
	.loc 4 235 15
	movq	-16(%rbp), %rax	# __b, tmp86
	movq	(%rax), %rdx	# *__b_5(D), _1
	movq	-8(%rbp), %rax	# __a, tmp87
	movq	(%rax), %rax	# *__a_6(D), _2
# /usr/include/c++/12/bits/stl_algobase.h:235:       if (__b < __a)
	.loc 4 235 7
	cmpq	%rax, %rdx	# _2, _1
	jnb	.L262	#,
# /usr/include/c++/12/bits/stl_algobase.h:236: 	return __b;
	.loc 4 236 9
	movq	-16(%rbp), %rax	# __b, _3
	jmp	.L263	#
.L262:
# /usr/include/c++/12/bits/stl_algobase.h:237:       return __a;
	.loc 4 237 14
	movq	-8(%rbp), %rax	# __a, _3
.L263:
# /usr/include/c++/12/bits/stl_algobase.h:238:     }
	.loc 4 238 5
	popq	%rbp	#
	.cfi_def_cfa 7, 8
	ret	
	.cfi_endproc
.LFE3231:
	.size	_ZSt3minImERKT_S2_S2_, .-_ZSt3minImERKT_S2_S2_
	.section	.text._ZNSt15__new_allocatorIlE8allocateEmPKv,"axG",@progbits,_ZNSt15__new_allocatorIlE8allocateEmPKv,comdat
	.align 2
	.weak	_ZNSt15__new_allocatorIlE8allocateEmPKv
	.type	_ZNSt15__new_allocatorIlE8allocateEmPKv, @function
_ZNSt15__new_allocatorIlE8allocateEmPKv:
.LFB3232:
	.loc 15 112 7
	.cfi_startproc
	pushq	%rbp	#
	.cfi_def_cfa_offset 16
	.cfi_offset 6, -16
	movq	%rsp, %rbp	#,
	.cfi_def_cfa_register 6
	subq	$32, %rsp	#,
	movq	%rdi, -8(%rbp)	# this, this
	movq	%rsi, -16(%rbp)	# __n, __n
	movq	%rdx, -24(%rbp)	# D.65263, D.65263
# /usr/include/c++/12/bits/new_allocator.h:120: 	if (__builtin_expect(__n > this->_M_max_size(), false))
	.loc 15 120 46
	movq	-8(%rbp), %rax	# this, tmp90
	movq	%rax, %rdi	# tmp90,
	call	_ZNKSt15__new_allocatorIlE11_M_max_sizeEv	#
# /usr/include/c++/12/bits/new_allocator.h:120: 	if (__builtin_expect(__n > this->_M_max_size(), false))
	.loc 15 120 27
	cmpq	-16(%rbp), %rax	# __n, _1
	setb	%al	#, _2
# /usr/include/c++/12/bits/new_allocator.h:120: 	if (__builtin_expect(__n > this->_M_max_size(), false))
	.loc 15 120 22
	movzbl	%al, %eax	# _2, _3
	testq	%rax, %rax	# _4
	setne	%al	#, retval.18_10
# /usr/include/c++/12/bits/new_allocator.h:120: 	if (__builtin_expect(__n > this->_M_max_size(), false))
	.loc 15 120 2
	testb	%al, %al	# retval.18_10
	je	.L265	#,
# /usr/include/c++/12/bits/new_allocator.h:124: 	    if (__n > (std::size_t(-1) / sizeof(_Tp)))
	.loc 15 124 6
	movabsq	$2305843009213693951, %rax	#, tmp91
	cmpq	-16(%rbp), %rax	# __n, tmp91
	jnb	.L266	#,
# /usr/include/c++/12/bits/new_allocator.h:125: 	      std::__throw_bad_array_new_length();
	.loc 15 125 41
	call	_ZSt28__throw_bad_array_new_lengthv@PLT	#
.L266:
# /usr/include/c++/12/bits/new_allocator.h:126: 	    std::__throw_bad_alloc();
	.loc 15 126 28
	call	_ZSt17__throw_bad_allocv@PLT	#
.L265:
# /usr/include/c++/12/bits/new_allocator.h:137: 	return static_cast<_Tp*>(_GLIBCXX_OPERATOR_NEW(__n * sizeof(_Tp)));
	.loc 15 137 48
	movq	-16(%rbp), %rax	# __n, tmp92
	salq	$3, %rax	#, _6
	movq	%rax, %rdi	# _6,
	call	_Znwm@PLT	#
# /usr/include/c++/12/bits/new_allocator.h:137: 	return static_cast<_Tp*>(_GLIBCXX_OPERATOR_NEW(__n * sizeof(_Tp)));
	.loc 15 137 67
	nop	
# /usr/include/c++/12/bits/new_allocator.h:138:       }
	.loc 15 138 7
	leave	
	.cfi_def_cfa 7, 8
	ret	
	.cfi_endproc
.LFE3232:
	.size	_ZNSt15__new_allocatorIlE8allocateEmPKv, .-_ZNSt15__new_allocatorIlE8allocateEmPKv
	.section	.text._ZNSt20__uninitialized_copyILb1EE13__uninit_copyIPKlPlEET0_T_S6_S5_,"axG",@progbits,_ZNSt20__uninitialized_copyILb1EE13__uninit_copyIPKlPlEET0_T_S6_S5_,comdat
	.weak	_ZNSt20__uninitialized_copyILb1EE13__uninit_copyIPKlPlEET0_T_S6_S5_
	.type	_ZNSt20__uninitialized_copyILb1EE13__uninit_copyIPKlPlEET0_T_S6_S5_, @function
_ZNSt20__uninitialized_copyILb1EE13__uninit_copyIPKlPlEET0_T_S6_S5_:
.LFB3233:
	.loc 21 145 9
	.cfi_startproc
	pushq	%rbp	#
	.cfi_def_cfa_offset 16
	.cfi_offset 6, -16
	movq	%rsp, %rbp	#,
	.cfi_def_cfa_register 6
	subq	$32, %rsp	#,
	movq	%rdi, -8(%rbp)	# __first, __first
	movq	%rsi, -16(%rbp)	# __last, __last
	movq	%rdx, -24(%rbp)	# __result, __result
# /usr/include/c++/12/bits/stl_uninitialized.h:147:         { return std::copy(__first, __last, __result); }
	.loc 21 147 27
	movq	-24(%rbp), %rdx	# __result, tmp84
	movq	-16(%rbp), %rcx	# __last, tmp85
	movq	-8(%rbp), %rax	# __first, tmp86
	movq	%rcx, %rsi	# tmp85,
	movq	%rax, %rdi	# tmp86,
	call	_ZSt4copyIPKlPlET0_T_S4_S3_	#
# /usr/include/c++/12/bits/stl_uninitialized.h:147:         { return std::copy(__first, __last, __result); }
	.loc 21 147 56
	leave	
	.cfi_def_cfa 7, 8
	ret	
	.cfi_endproc
.LFE3233:
	.size	_ZNSt20__uninitialized_copyILb1EE13__uninit_copyIPKlPlEET0_T_S6_S5_, .-_ZNSt20__uninitialized_copyILb1EE13__uninit_copyIPKlPlEET0_T_S6_S5_
	.section	.text._ZNSt16allocator_traitsISaIiEE8max_sizeERKS0_,"axG",@progbits,_ZNSt16allocator_traitsISaIiEE8max_sizeERKS0_,comdat
	.weak	_ZNSt16allocator_traitsISaIiEE8max_sizeERKS0_
	.type	_ZNSt16allocator_traitsISaIiEE8max_sizeERKS0_, @function
_ZNSt16allocator_traitsISaIiEE8max_sizeERKS0_:
.LFB3234:
	.loc 13 547 7
	.cfi_startproc
	pushq	%rbp	#
	.cfi_def_cfa_offset 16
	.cfi_offset 6, -16
	movq	%rsp, %rbp	#,
	.cfi_def_cfa_register 6
	subq	$16, %rsp	#,
	movq	%rdi, -8(%rbp)	# __a, __a
# /usr/include/c++/12/bits/alloc_traits.h:550: 	return __a.max_size();
	.loc 13 550 21
	movq	-8(%rbp), %rax	# __a, tmp84
	movq	%rax, %rdi	# tmp84,
	call	_ZNKSt15__new_allocatorIiE8max_sizeEv	#
# /usr/include/c++/12/bits/alloc_traits.h:554:       }
	.loc 13 554 7
	leave	
	.cfi_def_cfa 7, 8
	ret	
	.cfi_endproc
.LFE3234:
	.size	_ZNSt16allocator_traitsISaIiEE8max_sizeERKS0_, .-_ZNSt16allocator_traitsISaIiEE8max_sizeERKS0_
	.section	.text._ZNSt27__uninitialized_default_n_1ILb1EE18__uninit_default_nIPimEET_S3_T0_,"axG",@progbits,_ZNSt27__uninitialized_default_n_1ILb1EE18__uninit_default_nIPimEET_S3_T0_,comdat
	.weak	_ZNSt27__uninitialized_default_n_1ILb1EE18__uninit_default_nIPimEET_S3_T0_
	.type	_ZNSt27__uninitialized_default_n_1ILb1EE18__uninit_default_nIPimEET_S3_T0_, @function
_ZNSt27__uninitialized_default_n_1ILb1EE18__uninit_default_nIPimEET_S3_T0_:
.LFB3235:
	.loc 21 655 9
	.cfi_startproc
	pushq	%rbp	#
	.cfi_def_cfa_offset 16
	.cfi_offset 6, -16
	movq	%rsp, %rbp	#,
	.cfi_def_cfa_register 6
	subq	$32, %rsp	#,
	movq	%rdi, -24(%rbp)	# __first, __first
	movq	%rsi, -32(%rbp)	# __n, __n
.LBB55:
# /usr/include/c++/12/bits/stl_uninitialized.h:657: 	  if (__n > 0)
	.loc 21 657 4
	cmpq	$0, -32(%rbp)	#, __n
	je	.L273	#,
.LBB56:
# /usr/include/c++/12/bits/stl_uninitialized.h:660: 		= std::__addressof(*__first);
	.loc 21 660 21
	movq	-24(%rbp), %rax	# __first, tmp86
	movq	%rax, %rdi	# tmp86,
	call	_ZSt11__addressofIiEPT_RS0_	#
	movq	%rax, -8(%rbp)	# tmp87, __val
# /usr/include/c++/12/bits/stl_uninitialized.h:661: 	      std::_Construct(__val);
	.loc 21 661 23
	movq	-8(%rbp), %rax	# __val, tmp88
	movq	%rax, %rdi	# tmp88,
	call	_ZSt10_ConstructIiJEEvPT_DpOT0_	#
# /usr/include/c++/12/bits/stl_uninitialized.h:662: 	      ++__first;
	.loc 21 662 8
	addq	$4, -24(%rbp)	#, __first
# /usr/include/c++/12/bits/stl_uninitialized.h:663: 	      __first = std::fill_n(__first, __n - 1, *__val);
	.loc 21 663 29
	movq	-32(%rbp), %rax	# __n, tmp89
	leaq	-1(%rax), %rcx	#, _1
	movq	-8(%rbp), %rdx	# __val, tmp90
	movq	-24(%rbp), %rax	# __first, tmp91
	movq	%rcx, %rsi	# _1,
	movq	%rax, %rdi	# tmp91,
	call	_ZSt6fill_nIPimiET_S1_T0_RKT1_	#
	movq	%rax, -24(%rbp)	# _12, __first
.L273:
.LBE56:
.LBE55:
# /usr/include/c++/12/bits/stl_uninitialized.h:665: 	  return __first;
	.loc 21 665 11
	movq	-24(%rbp), %rax	# __first, _14
# /usr/include/c++/12/bits/stl_uninitialized.h:666: 	}
	.loc 21 666 2
	leave	
	.cfi_def_cfa 7, 8
	ret	
	.cfi_endproc
.LFE3235:
	.size	_ZNSt27__uninitialized_default_n_1ILb1EE18__uninit_default_nIPimEET_S3_T0_, .-_ZNSt27__uninitialized_default_n_1ILb1EE18__uninit_default_nIPimEET_S3_T0_
	.section	.text._ZNSt15__new_allocatorIiE8allocateEmPKv,"axG",@progbits,_ZNSt15__new_allocatorIiE8allocateEmPKv,comdat
	.align 2
	.weak	_ZNSt15__new_allocatorIiE8allocateEmPKv
	.type	_ZNSt15__new_allocatorIiE8allocateEmPKv, @function
_ZNSt15__new_allocatorIiE8allocateEmPKv:
.LFB3236:
	.loc 15 112 7
	.cfi_startproc
	pushq	%rbp	#
	.cfi_def_cfa_offset 16
	.cfi_offset 6, -16
	movq	%rsp, %rbp	#,
	.cfi_def_cfa_register 6
	subq	$32, %rsp	#,
	movq	%rdi, -8(%rbp)	# this, this
	movq	%rsi, -16(%rbp)	# __n, __n
	movq	%rdx, -24(%rbp)	# D.65289, D.65289
# /usr/include/c++/12/bits/new_allocator.h:120: 	if (__builtin_expect(__n > this->_M_max_size(), false))
	.loc 15 120 46
	movq	-8(%rbp), %rax	# this, tmp90
	movq	%rax, %rdi	# tmp90,
	call	_ZNKSt15__new_allocatorIiE11_M_max_sizeEv	#
# /usr/include/c++/12/bits/new_allocator.h:120: 	if (__builtin_expect(__n > this->_M_max_size(), false))
	.loc 15 120 27
	cmpq	-16(%rbp), %rax	# __n, _1
	setb	%al	#, _2
# /usr/include/c++/12/bits/new_allocator.h:120: 	if (__builtin_expect(__n > this->_M_max_size(), false))
	.loc 15 120 22
	movzbl	%al, %eax	# _2, _3
	testq	%rax, %rax	# _4
	setne	%al	#, retval.31_10
# /usr/include/c++/12/bits/new_allocator.h:120: 	if (__builtin_expect(__n > this->_M_max_size(), false))
	.loc 15 120 2
	testb	%al, %al	# retval.31_10
	je	.L276	#,
# /usr/include/c++/12/bits/new_allocator.h:124: 	    if (__n > (std::size_t(-1) / sizeof(_Tp)))
	.loc 15 124 6
	movabsq	$4611686018427387903, %rax	#, tmp91
	cmpq	-16(%rbp), %rax	# __n, tmp91
	jnb	.L277	#,
# /usr/include/c++/12/bits/new_allocator.h:125: 	      std::__throw_bad_array_new_length();
	.loc 15 125 41
	call	_ZSt28__throw_bad_array_new_lengthv@PLT	#
.L277:
# /usr/include/c++/12/bits/new_allocator.h:126: 	    std::__throw_bad_alloc();
	.loc 15 126 28
	call	_ZSt17__throw_bad_allocv@PLT	#
.L276:
# /usr/include/c++/12/bits/new_allocator.h:137: 	return static_cast<_Tp*>(_GLIBCXX_OPERATOR_NEW(__n * sizeof(_Tp)));
	.loc 15 137 48
	movq	-16(%rbp), %rax	# __n, tmp92
	salq	$2, %rax	#, _6
	movq	%rax, %rdi	# _6,
	call	_Znwm@PLT	#
# /usr/include/c++/12/bits/new_allocator.h:137: 	return static_cast<_Tp*>(_GLIBCXX_OPERATOR_NEW(__n * sizeof(_Tp)));
	.loc 15 137 67
	nop	
# /usr/include/c++/12/bits/new_allocator.h:138:       }
	.loc 15 138 7
	leave	
	.cfi_def_cfa 7, 8
	ret	
	.cfi_endproc
.LFE3236:
	.size	_ZNSt15__new_allocatorIiE8allocateEmPKv, .-_ZNSt15__new_allocatorIiE8allocateEmPKv
	.section	.text._ZSt12__niter_baseIPiET_S1_,"axG",@progbits,_ZSt12__niter_baseIPiET_S1_,comdat
	.weak	_ZSt12__niter_baseIPiET_S1_
	.type	_ZSt12__niter_baseIPiET_S1_, @function
_ZSt12__niter_baseIPiET_S1_:
.LFB3237:
	.loc 4 313 5
	.cfi_startproc
	pushq	%rbp	#
	.cfi_def_cfa_offset 16
	.cfi_offset 6, -16
	movq	%rsp, %rbp	#,
	.cfi_def_cfa_register 6
	movq	%rdi, -8(%rbp)	# __it, __it
# /usr/include/c++/12/bits/stl_algobase.h:315:     { return __it; }
	.loc 4 315 14
	movq	-8(%rbp), %rax	# __it, _2
# /usr/include/c++/12/bits/stl_algobase.h:315:     { return __it; }
	.loc 4 315 20
	popq	%rbp	#
	.cfi_def_cfa 7, 8
	ret	
	.cfi_endproc
.LFE3237:
	.size	_ZSt12__niter_baseIPiET_S1_, .-_ZSt12__niter_baseIPiET_S1_
	.section	.text._ZSt14__relocate_a_1IiiENSt9enable_ifIXsrSt24__is_bitwise_relocatableIT_vE5valueEPS2_E4typeES4_S4_S4_RSaIT0_E,"axG",@progbits,_ZSt14__relocate_a_1IiiENSt9enable_ifIXsrSt24__is_bitwise_relocatableIT_vE5valueEPS2_E4typeES4_S4_S4_RSaIT0_E,comdat
	.weak	_ZSt14__relocate_a_1IiiENSt9enable_ifIXsrSt24__is_bitwise_relocatableIT_vE5valueEPS2_E4typeES4_S4_S4_RSaIT0_E
	.type	_ZSt14__relocate_a_1IiiENSt9enable_ifIXsrSt24__is_bitwise_relocatableIT_vE5valueEPS2_E4typeES4_S4_S4_RSaIT0_E, @function
_ZSt14__relocate_a_1IiiENSt9enable_ifIXsrSt24__is_bitwise_relocatableIT_vE5valueEPS2_E4typeES4_S4_S4_RSaIT0_E:
.LFB3238:
	.loc 21 1100 5
	.cfi_startproc
	pushq	%rbp	#
	.cfi_def_cfa_offset 16
	.cfi_offset 6, -16
	movq	%rsp, %rbp	#,
	.cfi_def_cfa_register 6
	subq	$48, %rsp	#,
	movq	%rdi, -24(%rbp)	# __first, __first
	movq	%rsi, -32(%rbp)	# __last, __last
	movq	%rdx, -40(%rbp)	# __result, __result
	movq	%rcx, -48(%rbp)	# __alloc, __alloc
# /usr/include/c++/12/bits/stl_uninitialized.h:1104:       ptrdiff_t __count = __last - __first;
	.loc 21 1104 34
	movq	-32(%rbp), %rax	# __last, tmp89
	subq	-24(%rbp), %rax	# __first, _1
# /usr/include/c++/12/bits/stl_uninitialized.h:1104:       ptrdiff_t __count = __last - __first;
	.loc 21 1104 17
	sarq	$2, %rax	#, tmp90
	movq	%rax, -8(%rbp)	# tmp90, __count
# /usr/include/c++/12/bits/stl_uninitialized.h:1105:       if (__count > 0)
	.loc 21 1105 7
	cmpq	$0, -8(%rbp)	#, __count
	jle	.L282	#,
# /usr/include/c++/12/bits/stl_uninitialized.h:1117: 	  __builtin_memmove(__result, __first, __count * sizeof(_Tp));
	.loc 21 1117 41
	movq	-8(%rbp), %rax	# __count, __count.33_2
# /usr/include/c++/12/bits/stl_uninitialized.h:1117: 	  __builtin_memmove(__result, __first, __count * sizeof(_Tp));
	.loc 21 1117 21
	leaq	0(,%rax,4), %rdx	#, _3
	movq	-24(%rbp), %rcx	# __first, tmp93
	movq	-40(%rbp), %rax	# __result, tmp94
	movq	%rcx, %rsi	# tmp93,
	movq	%rax, %rdi	# tmp94,
	call	memmove@PLT	#
.L282:
# /usr/include/c++/12/bits/stl_uninitialized.h:1119:       return __result + __count;
	.loc 21 1119 25
	movq	-8(%rbp), %rax	# __count, __count.34_4
# /usr/include/c++/12/bits/stl_uninitialized.h:1119:       return __result + __count;
	.loc 21 1119 23
	leaq	0(,%rax,4), %rdx	#, _5
# /usr/include/c++/12/bits/stl_uninitialized.h:1119:       return __result + __count;
	.loc 21 1119 25
	movq	-40(%rbp), %rax	# __result, tmp95
	addq	%rdx, %rax	# _5, _13
# /usr/include/c++/12/bits/stl_uninitialized.h:1120:     }
	.loc 21 1120 5
	leave	
	.cfi_def_cfa 7, 8
	ret	
	.cfi_endproc
.LFE3238:
	.size	_ZSt14__relocate_a_1IiiENSt9enable_ifIXsrSt24__is_bitwise_relocatableIT_vE5valueEPS2_E4typeES4_S4_S4_RSaIT0_E, .-_ZSt14__relocate_a_1IiiENSt9enable_ifIXsrSt24__is_bitwise_relocatableIT_vE5valueEPS2_E4typeES4_S4_S4_RSaIT0_E
	.section	.text._ZNKSt15__new_allocatorIlE8max_sizeEv,"axG",@progbits,_ZNKSt15__new_allocatorIlE8max_sizeEv,comdat
	.align 2
	.weak	_ZNKSt15__new_allocatorIlE8max_sizeEv
	.type	_ZNKSt15__new_allocatorIlE8max_sizeEv, @function
_ZNKSt15__new_allocatorIlE8max_sizeEv:
.LFB3243:
	.loc 15 167 7
	.cfi_startproc
	pushq	%rbp	#
	.cfi_def_cfa_offset 16
	.cfi_offset 6, -16
	movq	%rsp, %rbp	#,
	.cfi_def_cfa_register 6
	subq	$16, %rsp	#,
	movq	%rdi, -8(%rbp)	# this, this
# /usr/include/c++/12/bits/new_allocator.h:168:       { return _M_max_size(); }
	.loc 15 168 27
	movq	-8(%rbp), %rax	# this, tmp84
	movq	%rax, %rdi	# tmp84,
	call	_ZNKSt15__new_allocatorIlE11_M_max_sizeEv	#
# /usr/include/c++/12/bits/new_allocator.h:168:       { return _M_max_size(); }
	.loc 15 168 31
	leave	
	.cfi_def_cfa 7, 8
	ret	
	.cfi_endproc
.LFE3243:
	.size	_ZNKSt15__new_allocatorIlE8max_sizeEv, .-_ZNKSt15__new_allocatorIlE8max_sizeEv
	.section	.text._ZNKSt15__new_allocatorIlE11_M_max_sizeEv,"axG",@progbits,_ZNKSt15__new_allocatorIlE11_M_max_sizeEv,comdat
	.align 2
	.weak	_ZNKSt15__new_allocatorIlE11_M_max_sizeEv
	.type	_ZNKSt15__new_allocatorIlE11_M_max_sizeEv, @function
_ZNKSt15__new_allocatorIlE11_M_max_sizeEv:
.LFB3244:
	.loc 15 210 7
	.cfi_startproc
	pushq	%rbp	#
	.cfi_def_cfa_offset 16
	.cfi_offset 6, -16
	movq	%rsp, %rbp	#,
	.cfi_def_cfa_register 6
	movq	%rdi, -8(%rbp)	# this, this
# /usr/include/c++/12/bits/new_allocator.h:213: 	return std::size_t(__PTRDIFF_MAX__) / sizeof(_Tp);
	.loc 15 213 50
	movabsq	$1152921504606846975, %rax	#, _1
# /usr/include/c++/12/bits/new_allocator.h:217:       }
	.loc 15 217 7
	popq	%rbp	#
	.cfi_def_cfa 7, 8
	ret	
	.cfi_endproc
.LFE3244:
	.size	_ZNKSt15__new_allocatorIlE11_M_max_sizeEv, .-_ZNKSt15__new_allocatorIlE11_M_max_sizeEv
	.section	.text._ZSt4copyIPKlPlET0_T_S4_S3_,"axG",@progbits,_ZSt4copyIPKlPlET0_T_S4_S3_,comdat
	.weak	_ZSt4copyIPKlPlET0_T_S4_S3_
	.type	_ZSt4copyIPKlPlET0_T_S4_S3_, @function
_ZSt4copyIPKlPlET0_T_S4_S3_:
.LFB3245:
	.loc 4 611 5
	.cfi_startproc
	pushq	%rbp	#
	.cfi_def_cfa_offset 16
	.cfi_offset 6, -16
	movq	%rsp, %rbp	#,
	.cfi_def_cfa_register 6
	pushq	%rbx	#
	subq	$40, %rsp	#,
	.cfi_offset 3, -24
	movq	%rdi, -24(%rbp)	# __first, __first
	movq	%rsi, -32(%rbp)	# __last, __last
	movq	%rdx, -40(%rbp)	# __result, __result
# /usr/include/c++/12/bits/stl_algobase.h:620: 	     (std::__miter_base(__first), std::__miter_base(__last), __result);
	.loc 4 620 7
	movq	-32(%rbp), %rax	# __last, tmp86
	movq	%rax, %rdi	# tmp86,
	call	_ZSt12__miter_baseIPKlET_S2_	#
	movq	%rax, %rbx	#, _1
	movq	-24(%rbp), %rax	# __first, tmp87
	movq	%rax, %rdi	# tmp87,
	call	_ZSt12__miter_baseIPKlET_S2_	#
	movq	%rax, %rcx	#, _2
	movq	-40(%rbp), %rax	# __result, tmp88
	movq	%rax, %rdx	# tmp88,
	movq	%rbx, %rsi	# _1,
	movq	%rcx, %rdi	# _2,
	call	_ZSt13__copy_move_aILb0EPKlPlET1_T0_S4_S3_	#
# /usr/include/c++/12/bits/stl_algobase.h:621:     }
	.loc 4 621 5
	movq	-8(%rbp), %rbx	#,
	leave	
	.cfi_def_cfa 7, 8
	ret	
	.cfi_endproc
.LFE3245:
	.size	_ZSt4copyIPKlPlET0_T_S4_S3_, .-_ZSt4copyIPKlPlET0_T_S4_S3_
	.section	.text._ZNKSt15__new_allocatorIiE8max_sizeEv,"axG",@progbits,_ZNKSt15__new_allocatorIiE8max_sizeEv,comdat
	.align 2
	.weak	_ZNKSt15__new_allocatorIiE8max_sizeEv
	.type	_ZNKSt15__new_allocatorIiE8max_sizeEv, @function
_ZNKSt15__new_allocatorIiE8max_sizeEv:
.LFB3246:
	.loc 15 167 7
	.cfi_startproc
	pushq	%rbp	#
	.cfi_def_cfa_offset 16
	.cfi_offset 6, -16
	movq	%rsp, %rbp	#,
	.cfi_def_cfa_register 6
	subq	$16, %rsp	#,
	movq	%rdi, -8(%rbp)	# this, this
# /usr/include/c++/12/bits/new_allocator.h:168:       { return _M_max_size(); }
	.loc 15 168 27
	movq	-8(%rbp), %rax	# this, tmp84
	movq	%rax, %rdi	# tmp84,
	call	_ZNKSt15__new_allocatorIiE11_M_max_sizeEv	#
# /usr/include/c++/12/bits/new_allocator.h:168:       { return _M_max_size(); }
	.loc 15 168 31
	leave	
	.cfi_def_cfa 7, 8
	ret	
	.cfi_endproc
.LFE3246:
	.size	_ZNKSt15__new_allocatorIiE8max_sizeEv, .-_ZNKSt15__new_allocatorIiE8max_sizeEv
	.section	.text._ZSt11__addressofIiEPT_RS0_,"axG",@progbits,_ZSt11__addressofIiEPT_RS0_,comdat
	.weak	_ZSt11__addressofIiEPT_RS0_
	.type	_ZSt11__addressofIiEPT_RS0_, @function
_ZSt11__addressofIiEPT_RS0_:
.LFB3247:
	.file 22 "/usr/include/c++/12/bits/move.h"
	.loc 22 49 5
	.cfi_startproc
	pushq	%rbp	#
	.cfi_def_cfa_offset 16
	.cfi_offset 6, -16
	movq	%rsp, %rbp	#,
	.cfi_def_cfa_register 6
	movq	%rdi, -8(%rbp)	# __r, __r
# /usr/include/c++/12/bits/move.h:50:     { return __builtin_addressof(__r); }
	.loc 22 50 37
	movq	-8(%rbp), %rax	# __r, _2
# /usr/include/c++/12/bits/move.h:50:     { return __builtin_addressof(__r); }
	.loc 22 50 40
	popq	%rbp	#
	.cfi_def_cfa 7, 8
	ret	
	.cfi_endproc
.LFE3247:
	.size	_ZSt11__addressofIiEPT_RS0_, .-_ZSt11__addressofIiEPT_RS0_
	.section	.text._ZSt10_ConstructIiJEEvPT_DpOT0_,"axG",@progbits,_ZSt10_ConstructIiJEEvPT_DpOT0_,comdat
	.weak	_ZSt10_ConstructIiJEEvPT_DpOT0_
	.type	_ZSt10_ConstructIiJEEvPT_DpOT0_, @function
_ZSt10_ConstructIiJEEvPT_DpOT0_:
.LFB3248:
	.loc 19 109 5
	.cfi_startproc
	pushq	%rbp	#
	.cfi_def_cfa_offset 16
	.cfi_offset 6, -16
	movq	%rsp, %rbp	#,
	.cfi_def_cfa_register 6
	subq	$16, %rsp	#,
	movq	%rdi, -8(%rbp)	# __p, __p
# /usr/include/c++/12/bits/stl_construct.h:119:       ::new((void*)__p) _Tp(std::forward<_Args>(__args)...);
	.loc 19 119 13
	movq	-8(%rbp), %rax	# __p, _2
# /usr/include/c++/12/bits/stl_construct.h:119:       ::new((void*)__p) _Tp(std::forward<_Args>(__args)...);
	.loc 19 119 7
	movq	%rax, %rsi	# _2,
	movl	$4, %edi	#,
	call	_ZnwmPv	#
	movl	$0, (%rax)	#, MEM[(int *)_5]
# /usr/include/c++/12/bits/stl_construct.h:120:     }
	.loc 19 120 5
	nop	
	leave	
	.cfi_def_cfa 7, 8
	ret	
	.cfi_endproc
.LFE3248:
	.size	_ZSt10_ConstructIiJEEvPT_DpOT0_, .-_ZSt10_ConstructIiJEEvPT_DpOT0_
	.section	.text._ZSt6fill_nIPimiET_S1_T0_RKT1_,"axG",@progbits,_ZSt6fill_nIPimiET_S1_T0_RKT1_,comdat
	.weak	_ZSt6fill_nIPimiET_S1_T0_RKT1_
	.type	_ZSt6fill_nIPimiET_S1_T0_RKT1_, @function
_ZSt6fill_nIPimiET_S1_T0_RKT1_:
.LFB3249:
	.loc 4 1143 5
	.cfi_startproc
	pushq	%rbp	#
	.cfi_def_cfa_offset 16
	.cfi_offset 6, -16
	movq	%rsp, %rbp	#,
	.cfi_def_cfa_register 6
	subq	$32, %rsp	#,
	movq	%rdi, -8(%rbp)	# __first, __first
	movq	%rsi, -16(%rbp)	# __n, __n
	movq	%rdx, -24(%rbp)	# __value, __value
# /usr/include/c++/12/bits/stl_algobase.h:1149: 			       std::__iterator_category(__first));
	.loc 4 1149 35
	leaq	-8(%rbp), %rax	#, tmp87
	movq	%rax, %rdi	# tmp87,
	call	_ZSt19__iterator_categoryIPiENSt15iterator_traitsIT_E17iterator_categoryERKS2_	#
# /usr/include/c++/12/bits/stl_algobase.h:1148:       return std::__fill_n_a(__first, std::__size_to_integer(__n), __value,
	.loc 4 1148 29
	movq	-16(%rbp), %rax	# __n, tmp88
	movq	%rax, %rdi	# tmp88,
	call	_ZSt17__size_to_integerm	#
	movq	%rax, %rcx	#, _1
	movq	-8(%rbp), %rax	# __first, __first.32_2
	movq	-24(%rbp), %rdx	# __value, tmp89
	movq	%rcx, %rsi	# _1,
	movq	%rax, %rdi	# __first.32_2,
	call	_ZSt10__fill_n_aIPimiET_S1_T0_RKT1_St26random_access_iterator_tag	#
# /usr/include/c++/12/bits/stl_algobase.h:1150:     }
	.loc 4 1150 5
	leave	
	.cfi_def_cfa 7, 8
	ret	
	.cfi_endproc
.LFE3249:
	.size	_ZSt6fill_nIPimiET_S1_T0_RKT1_, .-_ZSt6fill_nIPimiET_S1_T0_RKT1_
	.section	.text._ZNKSt15__new_allocatorIiE11_M_max_sizeEv,"axG",@progbits,_ZNKSt15__new_allocatorIiE11_M_max_sizeEv,comdat
	.align 2
	.weak	_ZNKSt15__new_allocatorIiE11_M_max_sizeEv
	.type	_ZNKSt15__new_allocatorIiE11_M_max_sizeEv, @function
_ZNKSt15__new_allocatorIiE11_M_max_sizeEv:
.LFB3250:
	.loc 15 210 7
	.cfi_startproc
	pushq	%rbp	#
	.cfi_def_cfa_offset 16
	.cfi_offset 6, -16
	movq	%rsp, %rbp	#,
	.cfi_def_cfa_register 6
	movq	%rdi, -8(%rbp)	# this, this
# /usr/include/c++/12/bits/new_allocator.h:213: 	return std::size_t(__PTRDIFF_MAX__) / sizeof(_Tp);
	.loc 15 213 50
	movabsq	$2305843009213693951, %rax	#, _1
# /usr/include/c++/12/bits/new_allocator.h:217:       }
	.loc 15 217 7
	popq	%rbp	#
	.cfi_def_cfa 7, 8
	ret	
	.cfi_endproc
.LFE3250:
	.size	_ZNKSt15__new_allocatorIiE11_M_max_sizeEv, .-_ZNKSt15__new_allocatorIiE11_M_max_sizeEv
	.section	.text._ZSt12__miter_baseIPKlET_S2_,"axG",@progbits,_ZSt12__miter_baseIPKlET_S2_,comdat
	.weak	_ZSt12__miter_baseIPKlET_S2_
	.type	_ZSt12__miter_baseIPKlET_S2_, @function
_ZSt12__miter_baseIPKlET_S2_:
.LFB3251:
	.file 23 "/usr/include/c++/12/bits/cpp_type_traits.h"
	.loc 23 562 5
	.cfi_startproc
	pushq	%rbp	#
	.cfi_def_cfa_offset 16
	.cfi_offset 6, -16
	movq	%rsp, %rbp	#,
	.cfi_def_cfa_register 6
	movq	%rdi, -8(%rbp)	# __it, __it
# /usr/include/c++/12/bits/cpp_type_traits.h:563:     { return __it; }
	.loc 23 563 14
	movq	-8(%rbp), %rax	# __it, _2
# /usr/include/c++/12/bits/cpp_type_traits.h:563:     { return __it; }
	.loc 23 563 20
	popq	%rbp	#
	.cfi_def_cfa 7, 8
	ret	
	.cfi_endproc
.LFE3251:
	.size	_ZSt12__miter_baseIPKlET_S2_, .-_ZSt12__miter_baseIPKlET_S2_
	.section	.text._ZSt13__copy_move_aILb0EPKlPlET1_T0_S4_S3_,"axG",@progbits,_ZSt13__copy_move_aILb0EPKlPlET1_T0_S4_S3_,comdat
	.weak	_ZSt13__copy_move_aILb0EPKlPlET1_T0_S4_S3_
	.type	_ZSt13__copy_move_aILb0EPKlPlET1_T0_S4_S3_, @function
_ZSt13__copy_move_aILb0EPKlPlET1_T0_S4_S3_:
.LFB3252:
	.loc 4 527 5
	.cfi_startproc
	pushq	%rbp	#
	.cfi_def_cfa_offset 16
	.cfi_offset 6, -16
	movq	%rsp, %rbp	#,
	.cfi_def_cfa_register 6
	pushq	%r12	#
	pushq	%rbx	#
	subq	$32, %rsp	#,
	.cfi_offset 12, -24
	.cfi_offset 3, -32
	movq	%rdi, -24(%rbp)	# __first, __first
	movq	%rsi, -32(%rbp)	# __last, __last
	movq	%rdx, -40(%rbp)	# __result, __result
# /usr/include/c++/12/bits/stl_algobase.h:529:       return std::__niter_wrap(__result,
	.loc 4 529 31
	movq	-40(%rbp), %rax	# __result, __result.19_1
	movq	%rax, %rdi	# __result.19_1,
	call	_ZSt12__niter_baseIPlET_S1_	#
	movq	%rax, %r12	#, _2
	movq	-32(%rbp), %rax	# __last, tmp89
	movq	%rax, %rdi	# tmp89,
	call	_ZSt12__niter_baseIPKlET_S2_	#
	movq	%rax, %rbx	#, _3
	movq	-24(%rbp), %rax	# __first, tmp90
	movq	%rax, %rdi	# tmp90,
	call	_ZSt12__niter_baseIPKlET_S2_	#
	movq	%r12, %rdx	# _2,
	movq	%rbx, %rsi	# _3,
	movq	%rax, %rdi	# _4,
	call	_ZSt14__copy_move_a1ILb0EPKlPlET1_T0_S4_S3_	#
	movq	%rax, %rdx	#, _5
	leaq	-40(%rbp), %rax	#, tmp91
	movq	%rdx, %rsi	# _5,
	movq	%rax, %rdi	# tmp91,
	call	_ZSt12__niter_wrapIPlET_RKS1_S1_	#
# /usr/include/c++/12/bits/stl_algobase.h:533:     }
	.loc 4 533 5
	addq	$32, %rsp	#,
	popq	%rbx	#
	popq	%r12	#
	popq	%rbp	#
	.cfi_def_cfa 7, 8
	ret	
	.cfi_endproc
.LFE3252:
	.size	_ZSt13__copy_move_aILb0EPKlPlET1_T0_S4_S3_, .-_ZSt13__copy_move_aILb0EPKlPlET1_T0_S4_S3_
	.section	.text._ZSt19__iterator_categoryIPiENSt15iterator_traitsIT_E17iterator_categoryERKS2_,"axG",@progbits,_ZSt19__iterator_categoryIPiENSt15iterator_traitsIT_E17iterator_categoryERKS2_,comdat
	.weak	_ZSt19__iterator_categoryIPiENSt15iterator_traitsIT_E17iterator_categoryERKS2_
	.type	_ZSt19__iterator_categoryIPiENSt15iterator_traitsIT_E17iterator_categoryERKS2_, @function
_ZSt19__iterator_categoryIPiENSt15iterator_traitsIT_E17iterator_categoryERKS2_:
.LFB3255:
	.loc 20 238 5
	.cfi_startproc
	pushq	%rbp	#
	.cfi_def_cfa_offset 16
	.cfi_offset 6, -16
	movq	%rsp, %rbp	#,
	.cfi_def_cfa_register 6
	movq	%rdi, -8(%rbp)	# D.65646, D.65646
# /usr/include/c++/12/bits/stl_iterator_base_types.h:239:     { return typename iterator_traits<_Iter>::iterator_category(); }
	.loc 20 239 65
	nop	
# /usr/include/c++/12/bits/stl_iterator_base_types.h:239:     { return typename iterator_traits<_Iter>::iterator_category(); }
	.loc 20 239 68
	popq	%rbp	#
	.cfi_def_cfa 7, 8
	ret	
	.cfi_endproc
.LFE3255:
	.size	_ZSt19__iterator_categoryIPiENSt15iterator_traitsIT_E17iterator_categoryERKS2_, .-_ZSt19__iterator_categoryIPiENSt15iterator_traitsIT_E17iterator_categoryERKS2_
	.section	.text._ZSt10__fill_n_aIPimiET_S1_T0_RKT1_St26random_access_iterator_tag,"axG",@progbits,_ZSt10__fill_n_aIPimiET_S1_T0_RKT1_St26random_access_iterator_tag,comdat
	.weak	_ZSt10__fill_n_aIPimiET_S1_T0_RKT1_St26random_access_iterator_tag
	.type	_ZSt10__fill_n_aIPimiET_S1_T0_RKT1_St26random_access_iterator_tag, @function
_ZSt10__fill_n_aIPimiET_S1_T0_RKT1_St26random_access_iterator_tag:
.LFB3256:
	.loc 4 1108 5
	.cfi_startproc
	pushq	%rbp	#
	.cfi_def_cfa_offset 16
	.cfi_offset 6, -16
	movq	%rsp, %rbp	#,
	.cfi_def_cfa_register 6
	subq	$32, %rsp	#,
	movq	%rdi, -8(%rbp)	# __first, __first
	movq	%rsi, -16(%rbp)	# __n, __n
	movq	%rdx, -24(%rbp)	# __value, __value
# /usr/include/c++/12/bits/stl_algobase.h:1114:       if (__n <= 0)
	.loc 4 1114 7
	cmpq	$0, -16(%rbp)	#, __n
	jne	.L306	#,
# /usr/include/c++/12/bits/stl_algobase.h:1115: 	return __first;
	.loc 4 1115 9
	movq	-8(%rbp), %rax	# __first, _4
	jmp	.L307	#
.L306:
# /usr/include/c++/12/bits/stl_algobase.h:1119:       std::__fill_a(__first, __first + __n, __value);
	.loc 4 1119 38
	movq	-16(%rbp), %rax	# __n, tmp87
	leaq	0(,%rax,4), %rdx	#, _1
# /usr/include/c++/12/bits/stl_algobase.h:1119:       std::__fill_a(__first, __first + __n, __value);
	.loc 4 1119 20
	movq	-8(%rbp), %rax	# __first, tmp88
	leaq	(%rdx,%rax), %rcx	#, _2
	movq	-24(%rbp), %rdx	# __value, tmp89
	movq	-8(%rbp), %rax	# __first, tmp90
	movq	%rcx, %rsi	# _2,
	movq	%rax, %rdi	# tmp90,
	call	_ZSt8__fill_aIPiiEvT_S1_RKT0_	#
# /usr/include/c++/12/bits/stl_algobase.h:1120:       return __first + __n;
	.loc 4 1120 22
	movq	-16(%rbp), %rax	# __n, tmp91
	leaq	0(,%rax,4), %rdx	#, _3
# /usr/include/c++/12/bits/stl_algobase.h:1120:       return __first + __n;
	.loc 4 1120 24
	movq	-8(%rbp), %rax	# __first, tmp92
	addq	%rdx, %rax	# _3, _4
.L307:
# /usr/include/c++/12/bits/stl_algobase.h:1121:     }
	.loc 4 1121 5
	leave	
	.cfi_def_cfa 7, 8
	ret	
	.cfi_endproc
.LFE3256:
	.size	_ZSt10__fill_n_aIPimiET_S1_T0_RKT1_St26random_access_iterator_tag, .-_ZSt10__fill_n_aIPimiET_S1_T0_RKT1_St26random_access_iterator_tag
	.section	.text._ZSt12__niter_baseIPKlET_S2_,"axG",@progbits,_ZSt12__niter_baseIPKlET_S2_,comdat
	.weak	_ZSt12__niter_baseIPKlET_S2_
	.type	_ZSt12__niter_baseIPKlET_S2_, @function
_ZSt12__niter_baseIPKlET_S2_:
.LFB3257:
	.loc 4 313 5
	.cfi_startproc
	pushq	%rbp	#
	.cfi_def_cfa_offset 16
	.cfi_offset 6, -16
	movq	%rsp, %rbp	#,
	.cfi_def_cfa_register 6
	movq	%rdi, -8(%rbp)	# __it, __it
# /usr/include/c++/12/bits/stl_algobase.h:315:     { return __it; }
	.loc 4 315 14
	movq	-8(%rbp), %rax	# __it, _2
# /usr/include/c++/12/bits/stl_algobase.h:315:     { return __it; }
	.loc 4 315 20
	popq	%rbp	#
	.cfi_def_cfa 7, 8
	ret	
	.cfi_endproc
.LFE3257:
	.size	_ZSt12__niter_baseIPKlET_S2_, .-_ZSt12__niter_baseIPKlET_S2_
	.section	.text._ZSt12__niter_baseIPlET_S1_,"axG",@progbits,_ZSt12__niter_baseIPlET_S1_,comdat
	.weak	_ZSt12__niter_baseIPlET_S1_
	.type	_ZSt12__niter_baseIPlET_S1_, @function
_ZSt12__niter_baseIPlET_S1_:
.LFB3258:
	.loc 4 313 5
	.cfi_startproc
	pushq	%rbp	#
	.cfi_def_cfa_offset 16
	.cfi_offset 6, -16
	movq	%rsp, %rbp	#,
	.cfi_def_cfa_register 6
	movq	%rdi, -8(%rbp)	# __it, __it
# /usr/include/c++/12/bits/stl_algobase.h:315:     { return __it; }
	.loc 4 315 14
	movq	-8(%rbp), %rax	# __it, _2
# /usr/include/c++/12/bits/stl_algobase.h:315:     { return __it; }
	.loc 4 315 20
	popq	%rbp	#
	.cfi_def_cfa 7, 8
	ret	
	.cfi_endproc
.LFE3258:
	.size	_ZSt12__niter_baseIPlET_S1_, .-_ZSt12__niter_baseIPlET_S1_
	.section	.text._ZSt14__copy_move_a1ILb0EPKlPlET1_T0_S4_S3_,"axG",@progbits,_ZSt14__copy_move_a1ILb0EPKlPlET1_T0_S4_S3_,comdat
	.weak	_ZSt14__copy_move_a1ILb0EPKlPlET1_T0_S4_S3_
	.type	_ZSt14__copy_move_a1ILb0EPKlPlET1_T0_S4_S3_, @function
_ZSt14__copy_move_a1ILb0EPKlPlET1_T0_S4_S3_:
.LFB3259:
	.loc 4 521 5
	.cfi_startproc
	pushq	%rbp	#
	.cfi_def_cfa_offset 16
	.cfi_offset 6, -16
	movq	%rsp, %rbp	#,
	.cfi_def_cfa_register 6
	subq	$32, %rsp	#,
	movq	%rdi, -8(%rbp)	# __first, __first
	movq	%rsi, -16(%rbp)	# __last, __last
	movq	%rdx, -24(%rbp)	# __result, __result
# /usr/include/c++/12/bits/stl_algobase.h:522:     { return std::__copy_move_a2<_IsMove>(__first, __last, __result); }
	.loc 4 522 42
	movq	-24(%rbp), %rdx	# __result, tmp84
	movq	-16(%rbp), %rcx	# __last, tmp85
	movq	-8(%rbp), %rax	# __first, tmp86
	movq	%rcx, %rsi	# tmp85,
	movq	%rax, %rdi	# tmp86,
	call	_ZSt14__copy_move_a2ILb0EPKlPlET1_T0_S4_S3_	#
# /usr/include/c++/12/bits/stl_algobase.h:522:     { return std::__copy_move_a2<_IsMove>(__first, __last, __result); }
	.loc 4 522 71
	leave	
	.cfi_def_cfa 7, 8
	ret	
	.cfi_endproc
.LFE3259:
	.size	_ZSt14__copy_move_a1ILb0EPKlPlET1_T0_S4_S3_, .-_ZSt14__copy_move_a1ILb0EPKlPlET1_T0_S4_S3_
	.section	.text._ZSt12__niter_wrapIPlET_RKS1_S1_,"axG",@progbits,_ZSt12__niter_wrapIPlET_RKS1_S1_,comdat
	.weak	_ZSt12__niter_wrapIPlET_RKS1_S1_
	.type	_ZSt12__niter_wrapIPlET_RKS1_S1_, @function
_ZSt12__niter_wrapIPlET_RKS1_S1_:
.LFB3260:
	.loc 4 335 5
	.cfi_startproc
	pushq	%rbp	#
	.cfi_def_cfa_offset 16
	.cfi_offset 6, -16
	movq	%rsp, %rbp	#,
	.cfi_def_cfa_register 6
	movq	%rdi, -8(%rbp)	# D.65684, D.65684
	movq	%rsi, -16(%rbp)	# __res, __res
# /usr/include/c++/12/bits/stl_algobase.h:336:     { return __res; }
	.loc 4 336 14
	movq	-16(%rbp), %rax	# __res, _2
# /usr/include/c++/12/bits/stl_algobase.h:336:     { return __res; }
	.loc 4 336 21
	popq	%rbp	#
	.cfi_def_cfa 7, 8
	ret	
	.cfi_endproc
.LFE3260:
	.size	_ZSt12__niter_wrapIPlET_RKS1_S1_, .-_ZSt12__niter_wrapIPlET_RKS1_S1_
	.section	.text._ZSt8__fill_aIPiiEvT_S1_RKT0_,"axG",@progbits,_ZSt8__fill_aIPiiEvT_S1_RKT0_,comdat
	.weak	_ZSt8__fill_aIPiiEvT_S1_RKT0_
	.type	_ZSt8__fill_aIPiiEvT_S1_RKT0_, @function
_ZSt8__fill_aIPiiEvT_S1_RKT0_:
.LFB3261:
	.loc 4 967 5
	.cfi_startproc
	pushq	%rbp	#
	.cfi_def_cfa_offset 16
	.cfi_offset 6, -16
	movq	%rsp, %rbp	#,
	.cfi_def_cfa_register 6
	subq	$32, %rsp	#,
	movq	%rdi, -8(%rbp)	# __first, __first
	movq	%rsi, -16(%rbp)	# __last, __last
	movq	%rdx, -24(%rbp)	# __value, __value
# /usr/include/c++/12/bits/stl_algobase.h:968:     { std::__fill_a1(__first, __last, __value); }
	.loc 4 968 21
	movq	-24(%rbp), %rdx	# __value, tmp82
	movq	-16(%rbp), %rcx	# __last, tmp83
	movq	-8(%rbp), %rax	# __first, tmp84
	movq	%rcx, %rsi	# tmp83,
	movq	%rax, %rdi	# tmp84,
	call	_ZSt9__fill_a1IPiiEN9__gnu_cxx11__enable_ifIXsrSt11__is_scalarIT0_E7__valueEvE6__typeET_S8_RKS4_	#
# /usr/include/c++/12/bits/stl_algobase.h:968:     { std::__fill_a1(__first, __last, __value); }
	.loc 4 968 49
	nop	
	leave	
	.cfi_def_cfa 7, 8
	ret	
	.cfi_endproc
.LFE3261:
	.size	_ZSt8__fill_aIPiiEvT_S1_RKT0_, .-_ZSt8__fill_aIPiiEvT_S1_RKT0_
	.section	.text._ZSt14__copy_move_a2ILb0EPKlPlET1_T0_S4_S3_,"axG",@progbits,_ZSt14__copy_move_a2ILb0EPKlPlET1_T0_S4_S3_,comdat
	.weak	_ZSt14__copy_move_a2ILb0EPKlPlET1_T0_S4_S3_
	.type	_ZSt14__copy_move_a2ILb0EPKlPlET1_T0_S4_S3_, @function
_ZSt14__copy_move_a2ILb0EPKlPlET1_T0_S4_S3_:
.LFB3262:
	.loc 4 486 5
	.cfi_startproc
	pushq	%rbp	#
	.cfi_def_cfa_offset 16
	.cfi_offset 6, -16
	movq	%rsp, %rbp	#,
	.cfi_def_cfa_register 6
	subq	$32, %rsp	#,
	movq	%rdi, -8(%rbp)	# __first, __first
	movq	%rsi, -16(%rbp)	# __last, __last
	movq	%rdx, -24(%rbp)	# __result, __result
# /usr/include/c++/12/bits/stl_algobase.h:495: 			      _Category>::__copy_m(__first, __last, __result);
	.loc 4 495 30
	movq	-24(%rbp), %rdx	# __result, tmp84
	movq	-16(%rbp), %rcx	# __last, tmp85
	movq	-8(%rbp), %rax	# __first, tmp86
	movq	%rcx, %rsi	# tmp85,
	movq	%rax, %rdi	# tmp86,
	call	_ZNSt11__copy_moveILb0ELb1ESt26random_access_iterator_tagE8__copy_mIlEEPT_PKS3_S6_S4_	#
# /usr/include/c++/12/bits/stl_algobase.h:496:     }
	.loc 4 496 5
	leave	
	.cfi_def_cfa 7, 8
	ret	
	.cfi_endproc
.LFE3262:
	.size	_ZSt14__copy_move_a2ILb0EPKlPlET1_T0_S4_S3_, .-_ZSt14__copy_move_a2ILb0EPKlPlET1_T0_S4_S3_
	.section	.text._ZSt9__fill_a1IPiiEN9__gnu_cxx11__enable_ifIXsrSt11__is_scalarIT0_E7__valueEvE6__typeET_S8_RKS4_,"axG",@progbits,_ZSt9__fill_a1IPiiEN9__gnu_cxx11__enable_ifIXsrSt11__is_scalarIT0_E7__valueEvE6__typeET_S8_RKS4_,comdat
	.weak	_ZSt9__fill_a1IPiiEN9__gnu_cxx11__enable_ifIXsrSt11__is_scalarIT0_E7__valueEvE6__typeET_S8_RKS4_
	.type	_ZSt9__fill_a1IPiiEN9__gnu_cxx11__enable_ifIXsrSt11__is_scalarIT0_E7__valueEvE6__typeET_S8_RKS4_, @function
_ZSt9__fill_a1IPiiEN9__gnu_cxx11__enable_ifIXsrSt11__is_scalarIT0_E7__valueEvE6__typeET_S8_RKS4_:
.LFB3263:
	.loc 4 917 5
	.cfi_startproc
	pushq	%rbp	#
	.cfi_def_cfa_offset 16
	.cfi_offset 6, -16
	movq	%rsp, %rbp	#,
	.cfi_def_cfa_register 6
	movq	%rdi, -24(%rbp)	# __first, __first
	movq	%rsi, -32(%rbp)	# __last, __last
	movq	%rdx, -40(%rbp)	# __value, __value
# /usr/include/c++/12/bits/stl_algobase.h:920:       const _Tp __tmp = __value;
	.loc 4 920 17
	movq	-40(%rbp), %rax	# __value, tmp82
	movl	(%rax), %eax	# *__value_4(D), tmp83
	movl	%eax, -4(%rbp)	# tmp83, __tmp
# /usr/include/c++/12/bits/stl_algobase.h:921:       for (; __first != __last; ++__first)
	.loc 4 921 7
	jmp	.L320	#
.L321:
# /usr/include/c++/12/bits/stl_algobase.h:922: 	*__first = __tmp;
	.loc 4 922 11 discriminator 2
	movq	-24(%rbp), %rax	# __first, tmp84
	movl	-4(%rbp), %edx	# __tmp, tmp85
	movl	%edx, (%rax)	# tmp85, *__first_1
# /usr/include/c++/12/bits/stl_algobase.h:921:       for (; __first != __last; ++__first)
	.loc 4 921 7 discriminator 2
	addq	$4, -24(%rbp)	#, __first
.L320:
# /usr/include/c++/12/bits/stl_algobase.h:921:       for (; __first != __last; ++__first)
	.loc 4 921 22 discriminator 1
	movq	-24(%rbp), %rax	# __first, tmp86
	cmpq	-32(%rbp), %rax	# __last, tmp86
	jne	.L321	#,
# /usr/include/c++/12/bits/stl_algobase.h:923:     }
	.loc 4 923 5
	nop	
	nop	
	popq	%rbp	#
	.cfi_def_cfa 7, 8
	ret	
	.cfi_endproc
.LFE3263:
	.size	_ZSt9__fill_a1IPiiEN9__gnu_cxx11__enable_ifIXsrSt11__is_scalarIT0_E7__valueEvE6__typeET_S8_RKS4_, .-_ZSt9__fill_a1IPiiEN9__gnu_cxx11__enable_ifIXsrSt11__is_scalarIT0_E7__valueEvE6__typeET_S8_RKS4_
	.section	.text._ZNSt11__copy_moveILb0ELb1ESt26random_access_iterator_tagE8__copy_mIlEEPT_PKS3_S6_S4_,"axG",@progbits,_ZNSt11__copy_moveILb0ELb1ESt26random_access_iterator_tagE8__copy_mIlEEPT_PKS3_S6_S4_,comdat
	.weak	_ZNSt11__copy_moveILb0ELb1ESt26random_access_iterator_tagE8__copy_mIlEEPT_PKS3_S6_S4_
	.type	_ZNSt11__copy_moveILb0ELb1ESt26random_access_iterator_tagE8__copy_mIlEEPT_PKS3_S6_S4_, @function
_ZNSt11__copy_moveILb0ELb1ESt26random_access_iterator_tagE8__copy_mIlEEPT_PKS3_S6_S4_:
.LFB3264:
	.loc 4 420 2
	.cfi_startproc
	pushq	%rbp	#
	.cfi_def_cfa_offset 16
	.cfi_offset 6, -16
	movq	%rsp, %rbp	#,
	.cfi_def_cfa_register 6
	subq	$48, %rsp	#,
	movq	%rdi, -24(%rbp)	# __first, __first
	movq	%rsi, -32(%rbp)	# __last, __last
	movq	%rdx, -40(%rbp)	# __result, __result
# /usr/include/c++/12/bits/stl_algobase.h:429: 	  const ptrdiff_t _Num = __last - __first;
	.loc 4 429 34
	movq	-32(%rbp), %rax	# __last, tmp89
	subq	-24(%rbp), %rax	# __first, _1
# /usr/include/c++/12/bits/stl_algobase.h:429: 	  const ptrdiff_t _Num = __last - __first;
	.loc 4 429 20
	sarq	$3, %rax	#, tmp90
	movq	%rax, -8(%rbp)	# tmp90, _Num
# /usr/include/c++/12/bits/stl_algobase.h:430: 	  if (_Num)
	.loc 4 430 4
	cmpq	$0, -8(%rbp)	#, _Num
	je	.L323	#,
# /usr/include/c++/12/bits/stl_algobase.h:431: 	    __builtin_memmove(__result, __first, sizeof(_Tp) * _Num);
	.loc 4 431 57
	movq	-8(%rbp), %rax	# _Num, _Num.20_2
# /usr/include/c++/12/bits/stl_algobase.h:431: 	    __builtin_memmove(__result, __first, sizeof(_Tp) * _Num);
	.loc 4 431 23
	leaq	0(,%rax,8), %rdx	#, _3
	movq	-24(%rbp), %rcx	# __first, tmp93
	movq	-40(%rbp), %rax	# __result, tmp94
	movq	%rcx, %rsi	# tmp93,
	movq	%rax, %rdi	# tmp94,
	call	memmove@PLT	#
.L323:
# /usr/include/c++/12/bits/stl_algobase.h:432: 	  return __result + _Num;
	.loc 4 432 22
	movq	-8(%rbp), %rax	# _Num, _Num.21_4
# /usr/include/c++/12/bits/stl_algobase.h:432: 	  return __result + _Num;
	.loc 4 432 20
	leaq	0(,%rax,8), %rdx	#, _5
# /usr/include/c++/12/bits/stl_algobase.h:432: 	  return __result + _Num;
	.loc 4 432 22
	movq	-40(%rbp), %rax	# __result, tmp95
	addq	%rdx, %rax	# _5, _13
# /usr/include/c++/12/bits/stl_algobase.h:433: 	}
	.loc 4 433 2
	leave	
	.cfi_def_cfa 7, 8
	ret	
	.cfi_endproc
.LFE3264:
	.size	_ZNSt11__copy_moveILb0ELb1ESt26random_access_iterator_tagE8__copy_mIlEEPT_PKS3_S6_S4_, .-_ZNSt11__copy_moveILb0ELb1ESt26random_access_iterator_tagE8__copy_mIlEEPT_PKS3_S6_S4_
	.text
	.type	_Z41__static_initialization_and_destruction_0ii, @function
_Z41__static_initialization_and_destruction_0ii:
.LFB3265:
	.loc 7 19 1
	.cfi_startproc
	pushq	%rbp	#
	.cfi_def_cfa_offset 16
	.cfi_offset 6, -16
	movq	%rsp, %rbp	#,
	.cfi_def_cfa_register 6
	subq	$16, %rsp	#,
	movl	%edi, -4(%rbp)	# __initialize_p, __initialize_p
	movl	%esi, -8(%rbp)	# __priority, __priority
# Application.cpp:19: }
	.loc 7 19 1
	cmpl	$1, -4(%rbp)	#, __initialize_p
	jne	.L327	#,
# Application.cpp:19: }
	.loc 7 19 1 is_stmt 0 discriminator 1
	cmpl	$65535, -8(%rbp)	#, __priority
	jne	.L327	#,
# /usr/include/c++/12/iostream:74:   static ios_base::Init __ioinit;
	.file 24 "/usr/include/c++/12/iostream"
	.loc 24 74 25 is_stmt 1
	leaq	_ZStL8__ioinit(%rip), %rax	#, tmp82
	movq	%rax, %rdi	# tmp82,
	call	_ZNSt8ios_base4InitC1Ev@PLT	#
	leaq	__dso_handle(%rip), %rax	#, tmp83
	movq	%rax, %rdx	# tmp83,
	leaq	_ZStL8__ioinit(%rip), %rax	#, tmp84
	movq	%rax, %rsi	# tmp84,
	movq	_ZNSt8ios_base4InitD1Ev@GOTPCREL(%rip), %rax	#, tmp86
	movq	%rax, %rdi	# tmp85,
	call	__cxa_atexit@PLT	#
.L327:
# Application.cpp:19: }
	.loc 7 19 1
	nop	
	leave	
	.cfi_def_cfa 7, 8
	ret	
	.cfi_endproc
.LFE3265:
	.size	_Z41__static_initialization_and_destruction_0ii, .-_Z41__static_initialization_and_destruction_0ii
	.type	_GLOBAL__sub_I__ZN9exception17exception_messageEONSt7__cxx1112basic_stringIcSt11char_traitsIcESaIcEEE, @function
_GLOBAL__sub_I__ZN9exception17exception_messageEONSt7__cxx1112basic_stringIcSt11char_traitsIcESaIcEEE:
.LFB3266:
	.loc 7 19 1
	.cfi_startproc
	pushq	%rbp	#
	.cfi_def_cfa_offset 16
	.cfi_offset 6, -16
	movq	%rsp, %rbp	#,
	.cfi_def_cfa_register 6
# Application.cpp:19: }
	.loc 7 19 1
	movl	$65535, %esi	#,
	movl	$1, %edi	#,
	call	_Z41__static_initialization_and_destruction_0ii	#
	popq	%rbp	#
	.cfi_def_cfa 7, 8
	ret	
	.cfi_endproc
.LFE3266:
	.size	_GLOBAL__sub_I__ZN9exception17exception_messageEONSt7__cxx1112basic_stringIcSt11char_traitsIcESaIcEEE, .-_GLOBAL__sub_I__ZN9exception17exception_messageEONSt7__cxx1112basic_stringIcSt11char_traitsIcESaIcEEE
	.section	.init_array,"aw"
	.align 8
	.quad	_GLOBAL__sub_I__ZN9exception17exception_messageEONSt7__cxx1112basic_stringIcSt11char_traitsIcESaIcEEE
	.section	.rodata
	.align 32
	.type	C.12.0, @object
	.size	C.12.0, 32
C.12.0:
	.quad	2
	.quad	3
	.quad	4
	.quad	5
	.text
.Letext0:
	.file 25 "<built-in>"
	.file 26 "/usr/lib/gcc/x86_64-linux-gnu/12/include/stddef.h"
	.file 27 "/usr/include/x86_64-linux-gnu/bits/types/wint_t.h"
	.file 28 "/usr/include/x86_64-linux-gnu/bits/types/__mbstate_t.h"
	.file 29 "/usr/include/x86_64-linux-gnu/bits/types/mbstate_t.h"
	.file 30 "/usr/include/x86_64-linux-gnu/bits/types/__FILE.h"
	.file 31 "/usr/include/x86_64-linux-gnu/bits/types/struct_FILE.h"
	.file 32 "/usr/include/x86_64-linux-gnu/bits/types/FILE.h"
	.file 33 "/usr/include/c++/12/cwchar"
	.file 34 "/usr/include/c++/12/type_traits"
	.file 35 "/usr/include/c++/12/bits/exception_ptr.h"
	.file 36 "/usr/include/c++/12/cstdint"
	.file 37 "/usr/include/c++/12/clocale"
	.file 38 "/usr/include/c++/12/debug/debug.h"
	.file 39 "/usr/include/c++/12/string_view"
	.file 40 "/usr/include/c++/12/cstdlib"
	.file 41 "/usr/include/c++/12/cstdio"
	.file 42 "/usr/include/c++/12/bits/stringfwd.h"
	.file 43 "/usr/include/c++/12/bits/ios_base.h"
	.file 44 "/usr/include/c++/12/cwctype"
	.file 45 "/usr/include/c++/12/bits/ostream.tcc"
	.file 46 "/usr/include/c++/12/iosfwd"
	.file 47 "/usr/include/c++/12/stdexcept"
	.file 48 "/usr/include/c++/12/bits/functexcept.h"
	.file 49 "/usr/include/c++/12/ostream"
	.file 50 "/usr/include/wchar.h"
	.file 51 "/usr/include/x86_64-linux-gnu/bits/types/struct_tm.h"
	.file 52 "/usr/include/c++/12/bits/predefined_ops.h"
	.file 53 "/usr/include/c++/12/ext/alloc_traits.h"
	.file 54 "/usr/include/x86_64-linux-gnu/bits/types.h"
	.file 55 "/usr/include/x86_64-linux-gnu/bits/stdint-intn.h"
	.file 56 "/usr/include/x86_64-linux-gnu/bits/stdint-uintn.h"
	.file 57 "/usr/include/stdint.h"
	.file 58 "/usr/include/locale.h"
	.file 59 "/usr/include/stdlib.h"
	.file 60 "/usr/include/x86_64-linux-gnu/sys/types.h"
	.file 61 "/usr/include/x86_64-linux-gnu/bits/types/__fpos_t.h"
	.file 62 "/usr/include/stdio.h"
	.file 63 "/usr/include/x86_64-linux-gnu/bits/wctype-wchar.h"
	.file 64 "/usr/include/wctype.h"
	.file 65 "/usr/include/c++/12/pstl/execution_defs.h"
	.file 66 "/usr/include/c++/12/system_error"
	.section	.debug_info,"",@progbits
.Ldebug_info0:
	.long	0xbe3a
	.value	0x5
	.byte	0x1
	.byte	0x8
	.long	.Ldebug_abbrev0
	.uleb128 0x81
	.long	.LASF1486
	.byte	0x21
	.long	.LASF0
	.long	.LASF1
	.long	.LLRL2
	.quad	0
	.long	.Ldebug_line0
	.uleb128 0x25
	.byte	0x20
	.byte	0x3
	.long	.LASF2
	.uleb128 0x25
	.byte	0x10
	.byte	0x4
	.long	.LASF3
	.uleb128 0x25
	.byte	0x4
	.byte	0x4
	.long	.LASF4
	.uleb128 0x25
	.byte	0x8
	.byte	0x4
	.long	.LASF5
	.uleb128 0x25
	.byte	0x10
	.byte	0x4
	.long	.LASF6
	.uleb128 0x5
	.long	.LASF13
	.byte	0x1a
	.byte	0xd6
	.byte	0x17
	.long	0x5a
	.uleb128 0x25
	.byte	0x8
	.byte	0x7
	.long	.LASF7
	.uleb128 0x7
	.long	0x5a
	.uleb128 0x82
	.long	.LASF1487
	.byte	0x18
	.byte	0x19
	.byte	0
	.long	0x9c
	.uleb128 0x4a
	.long	.LASF8
	.long	0x9c
	.byte	0
	.uleb128 0x4a
	.long	.LASF9
	.long	0x9c
	.byte	0x4
	.uleb128 0x4a
	.long	.LASF10
	.long	0xa8
	.byte	0x8
	.uleb128 0x4a
	.long	.LASF11
	.long	0xa8
	.byte	0x10
	.byte	0
	.uleb128 0x25
	.byte	0x4
	.byte	0x7
	.long	.LASF12
	.uleb128 0x7
	.long	0x9c
	.uleb128 0x83
	.byte	0x8
	.uleb128 0x5
	.long	.LASF14
	.byte	0x1b
	.byte	0x14
	.byte	0x17
	.long	0x9c
	.uleb128 0x4b
	.byte	0x8
	.byte	0x1c
	.byte	0xe
	.byte	0x1
	.long	.LASF1233
	.long	0x101
	.uleb128 0x66
	.byte	0x4
	.byte	0x1c
	.byte	0x11
	.byte	0x3
	.long	0xe6
	.uleb128 0x4c
	.long	.LASF15
	.byte	0x1c
	.byte	0x12
	.byte	0x13
	.long	0x9c
	.uleb128 0x4c
	.long	.LASF16
	.byte	0x1c
	.byte	0x13
	.byte	0xa
	.long	0x101
	.byte	0
	.uleb128 0x8
	.long	.LASF17
	.byte	0x1c
	.byte	0xf
	.byte	0x7
	.long	0x11d
	.byte	0
	.uleb128 0x8
	.long	.LASF18
	.byte	0x1c
	.byte	0x14
	.byte	0x5
	.long	0xc4
	.byte	0x4
	.byte	0
	.uleb128 0x42
	.long	0x111
	.long	0x111
	.uleb128 0x43
	.long	0x5a
	.byte	0x3
	.byte	0
	.uleb128 0x25
	.byte	0x1
	.byte	0x6
	.long	.LASF19
	.uleb128 0x7
	.long	0x111
	.uleb128 0x84
	.byte	0x4
	.byte	0x5
	.string	"int"
	.uleb128 0x7
	.long	0x11d
	.uleb128 0x5
	.long	.LASF20
	.byte	0x1c
	.byte	0x15
	.byte	0x3
	.long	0xb7
	.uleb128 0x5
	.long	.LASF21
	.byte	0x1d
	.byte	0x6
	.byte	0x15
	.long	0x12a
	.uleb128 0x7
	.long	0x136
	.uleb128 0x5
	.long	.LASF22
	.byte	0x1e
	.byte	0x5
	.byte	0x19
	.long	0x153
	.uleb128 0x19
	.long	.LASF54
	.byte	0xd8
	.byte	0x1f
	.byte	0x31
	.byte	0x8
	.long	0x2da
	.uleb128 0x8
	.long	.LASF23
	.byte	0x1f
	.byte	0x33
	.byte	0x7
	.long	0x11d
	.byte	0
	.uleb128 0x8
	.long	.LASF24
	.byte	0x1f
	.byte	0x36
	.byte	0x9
	.long	0x6c96
	.byte	0x8
	.uleb128 0x8
	.long	.LASF25
	.byte	0x1f
	.byte	0x37
	.byte	0x9
	.long	0x6c96
	.byte	0x10
	.uleb128 0x8
	.long	.LASF26
	.byte	0x1f
	.byte	0x38
	.byte	0x9
	.long	0x6c96
	.byte	0x18
	.uleb128 0x8
	.long	.LASF27
	.byte	0x1f
	.byte	0x39
	.byte	0x9
	.long	0x6c96
	.byte	0x20
	.uleb128 0x8
	.long	.LASF28
	.byte	0x1f
	.byte	0x3a
	.byte	0x9
	.long	0x6c96
	.byte	0x28
	.uleb128 0x8
	.long	.LASF29
	.byte	0x1f
	.byte	0x3b
	.byte	0x9
	.long	0x6c96
	.byte	0x30
	.uleb128 0x8
	.long	.LASF30
	.byte	0x1f
	.byte	0x3c
	.byte	0x9
	.long	0x6c96
	.byte	0x38
	.uleb128 0x8
	.long	.LASF31
	.byte	0x1f
	.byte	0x3d
	.byte	0x9
	.long	0x6c96
	.byte	0x40
	.uleb128 0x8
	.long	.LASF32
	.byte	0x1f
	.byte	0x40
	.byte	0x9
	.long	0x6c96
	.byte	0x48
	.uleb128 0x8
	.long	.LASF33
	.byte	0x1f
	.byte	0x41
	.byte	0x9
	.long	0x6c96
	.byte	0x50
	.uleb128 0x8
	.long	.LASF34
	.byte	0x1f
	.byte	0x42
	.byte	0x9
	.long	0x6c96
	.byte	0x58
	.uleb128 0x8
	.long	.LASF35
	.byte	0x1f
	.byte	0x44
	.byte	0x16
	.long	0x877a
	.byte	0x60
	.uleb128 0x8
	.long	.LASF36
	.byte	0x1f
	.byte	0x46
	.byte	0x14
	.long	0x877f
	.byte	0x68
	.uleb128 0x8
	.long	.LASF37
	.byte	0x1f
	.byte	0x48
	.byte	0x7
	.long	0x11d
	.byte	0x70
	.uleb128 0x8
	.long	.LASF38
	.byte	0x1f
	.byte	0x49
	.byte	0x7
	.long	0x11d
	.byte	0x74
	.uleb128 0x8
	.long	.LASF39
	.byte	0x1f
	.byte	0x4a
	.byte	0xb
	.long	0x8004
	.byte	0x78
	.uleb128 0x8
	.long	.LASF40
	.byte	0x1f
	.byte	0x4d
	.byte	0x12
	.long	0x2e6
	.byte	0x80
	.uleb128 0x8
	.long	.LASF41
	.byte	0x1f
	.byte	0x4e
	.byte	0xf
	.long	0x7ebb
	.byte	0x82
	.uleb128 0x8
	.long	.LASF42
	.byte	0x1f
	.byte	0x4f
	.byte	0x8
	.long	0x8784
	.byte	0x83
	.uleb128 0x8
	.long	.LASF43
	.byte	0x1f
	.byte	0x51
	.byte	0xf
	.long	0x8794
	.byte	0x88
	.uleb128 0x8
	.long	.LASF44
	.byte	0x1f
	.byte	0x59
	.byte	0xd
	.long	0x8010
	.byte	0x90
	.uleb128 0x8
	.long	.LASF45
	.byte	0x1f
	.byte	0x5b
	.byte	0x17
	.long	0x879e
	.byte	0x98
	.uleb128 0x8
	.long	.LASF46
	.byte	0x1f
	.byte	0x5c
	.byte	0x19
	.long	0x87a8
	.byte	0xa0
	.uleb128 0x8
	.long	.LASF47
	.byte	0x1f
	.byte	0x5d
	.byte	0x14
	.long	0x877f
	.byte	0xa8
	.uleb128 0x8
	.long	.LASF48
	.byte	0x1f
	.byte	0x5e
	.byte	0x9
	.long	0xa8
	.byte	0xb0
	.uleb128 0x8
	.long	.LASF49
	.byte	0x1f
	.byte	0x5f
	.byte	0xa
	.long	0x4e
	.byte	0xb8
	.uleb128 0x8
	.long	.LASF50
	.byte	0x1f
	.byte	0x60
	.byte	0x7
	.long	0x11d
	.byte	0xc0
	.uleb128 0x8
	.long	.LASF51
	.byte	0x1f
	.byte	0x62
	.byte	0x8
	.long	0x87ad
	.byte	0xc4
	.byte	0
	.uleb128 0x5
	.long	.LASF52
	.byte	0x20
	.byte	0x7
	.byte	0x19
	.long	0x153
	.uleb128 0x25
	.byte	0x2
	.byte	0x7
	.long	.LASF53
	.uleb128 0x9
	.long	0x125
	.uleb128 0x9
	.long	0x118
	.uleb128 0x7
	.long	0x2f2
	.uleb128 0x85
	.string	"std"
	.byte	0x1
	.value	0x128
	.byte	0xb
	.long	0x695e
	.uleb128 0x4
	.byte	0x21
	.byte	0x40
	.byte	0xb
	.long	0x136
	.uleb128 0x4
	.byte	0x21
	.byte	0x8d
	.byte	0xb
	.long	0xab
	.uleb128 0x4
	.byte	0x21
	.byte	0x8f
	.byte	0xb
	.long	0x695e
	.uleb128 0x4
	.byte	0x21
	.byte	0x90
	.byte	0xb
	.long	0x6975
	.uleb128 0x4
	.byte	0x21
	.byte	0x91
	.byte	0xb
	.long	0x6991
	.uleb128 0x4
	.byte	0x21
	.byte	0x92
	.byte	0xb
	.long	0x69c3
	.uleb128 0x4
	.byte	0x21
	.byte	0x93
	.byte	0xb
	.long	0x69df
	.uleb128 0x4
	.byte	0x21
	.byte	0x94
	.byte	0xb
	.long	0x6a00
	.uleb128 0x4
	.byte	0x21
	.byte	0x95
	.byte	0xb
	.long	0x6a1c
	.uleb128 0x4
	.byte	0x21
	.byte	0x96
	.byte	0xb
	.long	0x6a39
	.uleb128 0x4
	.byte	0x21
	.byte	0x97
	.byte	0xb
	.long	0x6a5a
	.uleb128 0x4
	.byte	0x21
	.byte	0x98
	.byte	0xb
	.long	0x6a71
	.uleb128 0x4
	.byte	0x21
	.byte	0x99
	.byte	0xb
	.long	0x6a7e
	.uleb128 0x4
	.byte	0x21
	.byte	0x9a
	.byte	0xb
	.long	0x6aa4
	.uleb128 0x4
	.byte	0x21
	.byte	0x9b
	.byte	0xb
	.long	0x6aca
	.uleb128 0x4
	.byte	0x21
	.byte	0x9c
	.byte	0xb
	.long	0x6ae6
	.uleb128 0x4
	.byte	0x21
	.byte	0x9d
	.byte	0xb
	.long	0x6b11
	.uleb128 0x4
	.byte	0x21
	.byte	0x9e
	.byte	0xb
	.long	0x6b2d
	.uleb128 0x4
	.byte	0x21
	.byte	0xa0
	.byte	0xb
	.long	0x6b44
	.uleb128 0x4
	.byte	0x21
	.byte	0xa2
	.byte	0xb
	.long	0x6b66
	.uleb128 0x4
	.byte	0x21
	.byte	0xa3
	.byte	0xb
	.long	0x6b87
	.uleb128 0x4
	.byte	0x21
	.byte	0xa4
	.byte	0xb
	.long	0x6ba3
	.uleb128 0x4
	.byte	0x21
	.byte	0xa6
	.byte	0xb
	.long	0x6bc9
	.uleb128 0x4
	.byte	0x21
	.byte	0xa9
	.byte	0xb
	.long	0x6bee
	.uleb128 0x4
	.byte	0x21
	.byte	0xac
	.byte	0xb
	.long	0x6c14
	.uleb128 0x4
	.byte	0x21
	.byte	0xae
	.byte	0xb
	.long	0x6c39
	.uleb128 0x4
	.byte	0x21
	.byte	0xb0
	.byte	0xb
	.long	0x6c55
	.uleb128 0x4
	.byte	0x21
	.byte	0xb2
	.byte	0xb
	.long	0x6c75
	.uleb128 0x4
	.byte	0x21
	.byte	0xb3
	.byte	0xb
	.long	0x6ca0
	.uleb128 0x4
	.byte	0x21
	.byte	0xb4
	.byte	0xb
	.long	0x6cbb
	.uleb128 0x4
	.byte	0x21
	.byte	0xb5
	.byte	0xb
	.long	0x6cd6
	.uleb128 0x4
	.byte	0x21
	.byte	0xb6
	.byte	0xb
	.long	0x6cf1
	.uleb128 0x4
	.byte	0x21
	.byte	0xb7
	.byte	0xb
	.long	0x6d0c
	.uleb128 0x4
	.byte	0x21
	.byte	0xb8
	.byte	0xb
	.long	0x6d27
	.uleb128 0x4
	.byte	0x21
	.byte	0xb9
	.byte	0xb
	.long	0x6df4
	.uleb128 0x4
	.byte	0x21
	.byte	0xba
	.byte	0xb
	.long	0x6e0a
	.uleb128 0x4
	.byte	0x21
	.byte	0xbb
	.byte	0xb
	.long	0x6e2a
	.uleb128 0x4
	.byte	0x21
	.byte	0xbc
	.byte	0xb
	.long	0x6e4a
	.uleb128 0x4
	.byte	0x21
	.byte	0xbd
	.byte	0xb
	.long	0x6e6a
	.uleb128 0x4
	.byte	0x21
	.byte	0xbe
	.byte	0xb
	.long	0x6e95
	.uleb128 0x4
	.byte	0x21
	.byte	0xbf
	.byte	0xb
	.long	0x6eb0
	.uleb128 0x4
	.byte	0x21
	.byte	0xc1
	.byte	0xb
	.long	0x6ed1
	.uleb128 0x4
	.byte	0x21
	.byte	0xc3
	.byte	0xb
	.long	0x6eed
	.uleb128 0x4
	.byte	0x21
	.byte	0xc4
	.byte	0xb
	.long	0x6f0d
	.uleb128 0x4
	.byte	0x21
	.byte	0xc5
	.byte	0xb
	.long	0x6f3a
	.uleb128 0x4
	.byte	0x21
	.byte	0xc6
	.byte	0xb
	.long	0x6f5b
	.uleb128 0x4
	.byte	0x21
	.byte	0xc7
	.byte	0xb
	.long	0x6f7b
	.uleb128 0x4
	.byte	0x21
	.byte	0xc8
	.byte	0xb
	.long	0x6f92
	.uleb128 0x4
	.byte	0x21
	.byte	0xc9
	.byte	0xb
	.long	0x6fb3
	.uleb128 0x4
	.byte	0x21
	.byte	0xca
	.byte	0xb
	.long	0x6fd4
	.uleb128 0x4
	.byte	0x21
	.byte	0xcb
	.byte	0xb
	.long	0x6ff5
	.uleb128 0x4
	.byte	0x21
	.byte	0xcc
	.byte	0xb
	.long	0x7016
	.uleb128 0x4
	.byte	0x21
	.byte	0xcd
	.byte	0xb
	.long	0x702e
	.uleb128 0x4
	.byte	0x21
	.byte	0xce
	.byte	0xb
	.long	0x704a
	.uleb128 0x4
	.byte	0x21
	.byte	0xce
	.byte	0xb
	.long	0x7069
	.uleb128 0x4
	.byte	0x21
	.byte	0xcf
	.byte	0xb
	.long	0x7088
	.uleb128 0x4
	.byte	0x21
	.byte	0xcf
	.byte	0xb
	.long	0x70a7
	.uleb128 0x4
	.byte	0x21
	.byte	0xd0
	.byte	0xb
	.long	0x70c6
	.uleb128 0x4
	.byte	0x21
	.byte	0xd0
	.byte	0xb
	.long	0x70e5
	.uleb128 0x4
	.byte	0x21
	.byte	0xd1
	.byte	0xb
	.long	0x7104
	.uleb128 0x4
	.byte	0x21
	.byte	0xd1
	.byte	0xb
	.long	0x7123
	.uleb128 0x4
	.byte	0x21
	.byte	0xd2
	.byte	0xb
	.long	0x7142
	.uleb128 0x4
	.byte	0x21
	.byte	0xd2
	.byte	0xb
	.long	0x7166
	.uleb128 0x21
	.byte	0x21
	.value	0x10b
	.byte	0x16
	.long	0x7e2c
	.uleb128 0x21
	.byte	0x21
	.value	0x10c
	.byte	0x16
	.long	0x7e48
	.uleb128 0x21
	.byte	0x21
	.value	0x10d
	.byte	0x16
	.long	0x7e70
	.uleb128 0x21
	.byte	0x21
	.value	0x11b
	.byte	0xe
	.long	0x6ed1
	.uleb128 0x21
	.byte	0x21
	.value	0x11e
	.byte	0xe
	.long	0x6bc9
	.uleb128 0x21
	.byte	0x21
	.value	0x121
	.byte	0xe
	.long	0x6c14
	.uleb128 0x21
	.byte	0x21
	.value	0x124
	.byte	0xe
	.long	0x6c55
	.uleb128 0x21
	.byte	0x21
	.value	0x128
	.byte	0xe
	.long	0x7e2c
	.uleb128 0x21
	.byte	0x21
	.value	0x129
	.byte	0xe
	.long	0x7e48
	.uleb128 0x21
	.byte	0x21
	.value	0x12a
	.byte	0xe
	.long	0x7e70
	.uleb128 0x86
	.long	.LASF1488
	.byte	0x7
	.byte	0x8
	.long	0x5a
	.byte	0x2
	.byte	0x59
	.byte	0xe
	.uleb128 0x1e
	.long	.LASF13
	.byte	0x1
	.value	0x12a
	.byte	0x1a
	.long	0x5a
	.uleb128 0x7
	.long	0x56b
	.uleb128 0x19
	.long	.LASF55
	.byte	0x1
	.byte	0x22
	.byte	0x3e
	.byte	0xc
	.long	0x5e6
	.uleb128 0x5
	.long	.LASF56
	.byte	0x22
	.byte	0x41
	.byte	0x2d
	.long	0x7e9e
	.uleb128 0x35
	.long	.LASF57
	.byte	0x22
	.byte	0x43
	.byte	0x11
	.long	.LASF59
	.long	0x58a
	.long	0x5ae
	.long	0x5b4
	.uleb128 0x2
	.long	0x7eaa
	.byte	0
	.uleb128 0x35
	.long	.LASF58
	.byte	0x22
	.byte	0x48
	.byte	0x1c
	.long	.LASF60
	.long	0x58a
	.long	0x5cc
	.long	0x5d2
	.uleb128 0x2
	.long	0x7eaa
	.byte	0
	.uleb128 0xd
	.string	"_Tp"
	.long	0x7e9e
	.uleb128 0x67
	.string	"__v"
	.long	0x7e9e
	.byte	0
	.byte	0
	.uleb128 0x7
	.long	0x57d
	.uleb128 0x19
	.long	.LASF61
	.byte	0x1
	.byte	0x22
	.byte	0x3e
	.byte	0xc
	.long	0x654
	.uleb128 0x5
	.long	.LASF56
	.byte	0x22
	.byte	0x41
	.byte	0x2d
	.long	0x7e9e
	.uleb128 0x35
	.long	.LASF62
	.byte	0x22
	.byte	0x43
	.byte	0x11
	.long	.LASF63
	.long	0x5f8
	.long	0x61c
	.long	0x622
	.uleb128 0x2
	.long	0x7eaf
	.byte	0
	.uleb128 0x35
	.long	.LASF58
	.byte	0x22
	.byte	0x48
	.byte	0x1c
	.long	.LASF64
	.long	0x5f8
	.long	0x63a
	.long	0x640
	.uleb128 0x2
	.long	0x7eaf
	.byte	0
	.uleb128 0xd
	.string	"_Tp"
	.long	0x7e9e
	.uleb128 0x67
	.string	"__v"
	.long	0x7e9e
	.byte	0x1
	.byte	0
	.uleb128 0x7
	.long	0x5eb
	.uleb128 0x5
	.long	.LASF65
	.byte	0x22
	.byte	0x55
	.byte	0x9
	.long	0x57d
	.uleb128 0x68
	.long	.LASF66
	.value	0xa9f
	.uleb128 0x68
	.long	.LASF67
	.value	0xaf5
	.uleb128 0x44
	.long	.LASF68
	.byte	0x23
	.byte	0x3f
	.byte	0xd
	.long	0x852
	.uleb128 0x2a
	.long	.LASF70
	.byte	0x8
	.byte	0x23
	.byte	0x5a
	.byte	0xb
	.long	0x844
	.uleb128 0x8
	.long	.LASF69
	.byte	0x23
	.byte	0x5c
	.byte	0xd
	.long	0xa8
	.byte	0
	.uleb128 0x57
	.long	.LASF70
	.byte	0x23
	.byte	0x5e
	.byte	0x10
	.long	.LASF71
	.long	0x6ad
	.long	0x6b8
	.uleb128 0x2
	.long	0x7ed7
	.uleb128 0x1
	.long	0xa8
	.byte	0
	.uleb128 0x20
	.long	.LASF72
	.byte	0x23
	.byte	0x60
	.byte	0xc
	.long	.LASF74
	.long	0x6cc
	.long	0x6d2
	.uleb128 0x2
	.long	0x7ed7
	.byte	0
	.uleb128 0x20
	.long	.LASF73
	.byte	0x23
	.byte	0x61
	.byte	0xc
	.long	.LASF75
	.long	0x6e6
	.long	0x6ec
	.uleb128 0x2
	.long	0x7ed7
	.byte	0
	.uleb128 0x35
	.long	.LASF76
	.byte	0x23
	.byte	0x63
	.byte	0xd
	.long	.LASF77
	.long	0xa8
	.long	0x704
	.long	0x70a
	.uleb128 0x2
	.long	0x7edc
	.byte	0
	.uleb128 0x1d
	.long	.LASF70
	.byte	0x23
	.byte	0x6b
	.byte	0x7
	.long	.LASF78
	.long	0x71e
	.long	0x724
	.uleb128 0x2
	.long	0x7ed7
	.byte	0
	.uleb128 0x1d
	.long	.LASF70
	.byte	0x23
	.byte	0x6d
	.byte	0x7
	.long	.LASF79
	.long	0x738
	.long	0x743
	.uleb128 0x2
	.long	0x7ed7
	.uleb128 0x1
	.long	0x7ee1
	.byte	0
	.uleb128 0x1d
	.long	.LASF70
	.byte	0x23
	.byte	0x70
	.byte	0x7
	.long	.LASF80
	.long	0x757
	.long	0x762
	.uleb128 0x2
	.long	0x7ed7
	.uleb128 0x1
	.long	0x870
	.byte	0
	.uleb128 0x1d
	.long	.LASF70
	.byte	0x23
	.byte	0x74
	.byte	0x7
	.long	.LASF81
	.long	0x776
	.long	0x781
	.uleb128 0x2
	.long	0x7ed7
	.uleb128 0x1
	.long	0x7ee6
	.byte	0
	.uleb128 0x12
	.long	.LASF82
	.byte	0x23
	.byte	0x81
	.byte	0x7
	.long	.LASF83
	.long	0x7eeb
	.byte	0x1
	.long	0x79a
	.long	0x7a5
	.uleb128 0x2
	.long	0x7ed7
	.uleb128 0x1
	.long	0x7ee1
	.byte	0
	.uleb128 0x12
	.long	.LASF82
	.byte	0x23
	.byte	0x85
	.byte	0x7
	.long	.LASF84
	.long	0x7eeb
	.byte	0x1
	.long	0x7be
	.long	0x7c9
	.uleb128 0x2
	.long	0x7ed7
	.uleb128 0x1
	.long	0x7ee6
	.byte	0
	.uleb128 0x1d
	.long	.LASF85
	.byte	0x23
	.byte	0x8c
	.byte	0x7
	.long	.LASF86
	.long	0x7dd
	.long	0x7e8
	.uleb128 0x2
	.long	0x7ed7
	.uleb128 0x2
	.long	0x11d
	.byte	0
	.uleb128 0x1d
	.long	.LASF87
	.byte	0x23
	.byte	0x8f
	.byte	0x7
	.long	.LASF88
	.long	0x7fc
	.long	0x807
	.uleb128 0x2
	.long	0x7ed7
	.uleb128 0x1
	.long	0x7eeb
	.byte	0
	.uleb128 0x87
	.long	.LASF148
	.byte	0x23
	.byte	0x9b
	.byte	0x10
	.long	.LASF149
	.long	0x7e9e
	.byte	0x1
	.long	0x821
	.long	0x827
	.uleb128 0x2
	.long	0x7edc
	.byte	0
	.uleb128 0x88
	.long	.LASF89
	.byte	0x23
	.byte	0xb0
	.byte	0x7
	.long	.LASF90
	.long	0x7ef0
	.byte	0x1
	.long	0x83d
	.uleb128 0x2
	.long	0x7edc
	.byte	0
	.byte	0
	.uleb128 0x7
	.long	0x67f
	.uleb128 0x4
	.byte	0x23
	.byte	0x54
	.byte	0x10
	.long	0x85a
	.byte	0
	.uleb128 0x4
	.byte	0x23
	.byte	0x44
	.byte	0x1a
	.long	0x67f
	.uleb128 0x58
	.long	.LASF91
	.byte	0x23
	.byte	0x50
	.byte	0x8
	.long	.LASF92
	.long	0x870
	.uleb128 0x1
	.long	0x67f
	.byte	0
	.uleb128 0x1e
	.long	.LASF93
	.byte	0x1
	.value	0x12e
	.byte	0x1d
	.long	0x7e98
	.uleb128 0x31
	.long	.LASF246
	.uleb128 0x7
	.long	0x87d
	.uleb128 0x3e
	.long	.LASF94
	.byte	0x3
	.value	0x14f
	.long	0xa6e
	.uleb128 0x2c
	.long	.LASF108
	.byte	0x3
	.value	0x15b
	.byte	0x7
	.long	.LASF253
	.long	0x8af
	.uleb128 0x1
	.long	0x7ef5
	.uleb128 0x1
	.long	0x7efa
	.byte	0
	.uleb128 0x1e
	.long	.LASF95
	.byte	0x3
	.value	0x151
	.byte	0x21
	.long	0x111
	.uleb128 0x7
	.long	0x8af
	.uleb128 0x69
	.string	"eq"
	.value	0x166
	.long	.LASF96
	.long	0x7e9e
	.long	0x8de
	.uleb128 0x1
	.long	0x7efa
	.uleb128 0x1
	.long	0x7efa
	.byte	0
	.uleb128 0x69
	.string	"lt"
	.value	0x16a
	.long	.LASF97
	.long	0x7e9e
	.long	0x8fb
	.uleb128 0x1
	.long	0x7efa
	.uleb128 0x1
	.long	0x7efa
	.byte	0
	.uleb128 0xe
	.long	.LASF98
	.byte	0x3
	.value	0x172
	.byte	0x7
	.long	.LASF100
	.long	0x11d
	.long	0x920
	.uleb128 0x1
	.long	0x7eff
	.uleb128 0x1
	.long	0x7eff
	.uleb128 0x1
	.long	0x56b
	.byte	0
	.uleb128 0xe
	.long	.LASF99
	.byte	0x3
	.value	0x185
	.byte	0x7
	.long	.LASF101
	.long	0x56b
	.long	0x93b
	.uleb128 0x1
	.long	0x7eff
	.byte	0
	.uleb128 0xe
	.long	.LASF102
	.byte	0x3
	.value	0x18f
	.byte	0x7
	.long	.LASF103
	.long	0x7eff
	.long	0x960
	.uleb128 0x1
	.long	0x7eff
	.uleb128 0x1
	.long	0x56b
	.uleb128 0x1
	.long	0x7efa
	.byte	0
	.uleb128 0xe
	.long	.LASF104
	.byte	0x3
	.value	0x19b
	.byte	0x7
	.long	.LASF105
	.long	0x7f04
	.long	0x985
	.uleb128 0x1
	.long	0x7f04
	.uleb128 0x1
	.long	0x7eff
	.uleb128 0x1
	.long	0x56b
	.byte	0
	.uleb128 0xe
	.long	.LASF106
	.byte	0x3
	.value	0x1a7
	.byte	0x7
	.long	.LASF107
	.long	0x7f04
	.long	0x9aa
	.uleb128 0x1
	.long	0x7f04
	.uleb128 0x1
	.long	0x7eff
	.uleb128 0x1
	.long	0x56b
	.byte	0
	.uleb128 0xe
	.long	.LASF108
	.byte	0x3
	.value	0x1b3
	.byte	0x7
	.long	.LASF109
	.long	0x7f04
	.long	0x9cf
	.uleb128 0x1
	.long	0x7f04
	.uleb128 0x1
	.long	0x56b
	.uleb128 0x1
	.long	0x8af
	.byte	0
	.uleb128 0xe
	.long	.LASF110
	.byte	0x3
	.value	0x1bf
	.byte	0x7
	.long	.LASF111
	.long	0x8af
	.long	0x9ea
	.uleb128 0x1
	.long	0x7f09
	.byte	0
	.uleb128 0x1e
	.long	.LASF112
	.byte	0x3
	.value	0x152
	.byte	0x21
	.long	0x11d
	.uleb128 0x7
	.long	0x9ea
	.uleb128 0xe
	.long	.LASF113
	.byte	0x3
	.value	0x1c5
	.byte	0x7
	.long	.LASF114
	.long	0x9ea
	.long	0xa17
	.uleb128 0x1
	.long	0x7efa
	.byte	0
	.uleb128 0xe
	.long	.LASF115
	.byte	0x3
	.value	0x1c9
	.byte	0x7
	.long	.LASF116
	.long	0x7e9e
	.long	0xa37
	.uleb128 0x1
	.long	0x7f09
	.uleb128 0x1
	.long	0x7f09
	.byte	0
	.uleb128 0x89
	.string	"eof"
	.byte	0x3
	.value	0x1cd
	.byte	0x7
	.long	.LASF1489
	.long	0x9ea
	.uleb128 0xe
	.long	.LASF117
	.byte	0x3
	.value	0x1d1
	.byte	0x7
	.long	.LASF118
	.long	0x9ea
	.long	0xa64
	.uleb128 0x1
	.long	0x7f09
	.byte	0
	.uleb128 0x6
	.long	.LASF119
	.long	0x111
	.byte	0
	.uleb128 0x4
	.byte	0x24
	.byte	0x2f
	.byte	0xb
	.long	0x8028
	.uleb128 0x4
	.byte	0x24
	.byte	0x30
	.byte	0xb
	.long	0x8034
	.uleb128 0x4
	.byte	0x24
	.byte	0x31
	.byte	0xb
	.long	0x8040
	.uleb128 0x4
	.byte	0x24
	.byte	0x32
	.byte	0xb
	.long	0x804c
	.uleb128 0x4
	.byte	0x24
	.byte	0x34
	.byte	0xb
	.long	0x80e8
	.uleb128 0x4
	.byte	0x24
	.byte	0x35
	.byte	0xb
	.long	0x80f4
	.uleb128 0x4
	.byte	0x24
	.byte	0x36
	.byte	0xb
	.long	0x8100
	.uleb128 0x4
	.byte	0x24
	.byte	0x37
	.byte	0xb
	.long	0x810c
	.uleb128 0x4
	.byte	0x24
	.byte	0x39
	.byte	0xb
	.long	0x8088
	.uleb128 0x4
	.byte	0x24
	.byte	0x3a
	.byte	0xb
	.long	0x8094
	.uleb128 0x4
	.byte	0x24
	.byte	0x3b
	.byte	0xb
	.long	0x80a0
	.uleb128 0x4
	.byte	0x24
	.byte	0x3c
	.byte	0xb
	.long	0x80ac
	.uleb128 0x4
	.byte	0x24
	.byte	0x3e
	.byte	0xb
	.long	0x8160
	.uleb128 0x4
	.byte	0x24
	.byte	0x3f
	.byte	0xb
	.long	0x8148
	.uleb128 0x4
	.byte	0x24
	.byte	0x41
	.byte	0xb
	.long	0x8058
	.uleb128 0x4
	.byte	0x24
	.byte	0x42
	.byte	0xb
	.long	0x8064
	.uleb128 0x4
	.byte	0x24
	.byte	0x43
	.byte	0xb
	.long	0x8070
	.uleb128 0x4
	.byte	0x24
	.byte	0x44
	.byte	0xb
	.long	0x807c
	.uleb128 0x4
	.byte	0x24
	.byte	0x46
	.byte	0xb
	.long	0x8118
	.uleb128 0x4
	.byte	0x24
	.byte	0x47
	.byte	0xb
	.long	0x8124
	.uleb128 0x4
	.byte	0x24
	.byte	0x48
	.byte	0xb
	.long	0x8130
	.uleb128 0x4
	.byte	0x24
	.byte	0x49
	.byte	0xb
	.long	0x813c
	.uleb128 0x4
	.byte	0x24
	.byte	0x4b
	.byte	0xb
	.long	0x80b8
	.uleb128 0x4
	.byte	0x24
	.byte	0x4c
	.byte	0xb
	.long	0x80c4
	.uleb128 0x4
	.byte	0x24
	.byte	0x4d
	.byte	0xb
	.long	0x80d0
	.uleb128 0x4
	.byte	0x24
	.byte	0x4e
	.byte	0xb
	.long	0x80dc
	.uleb128 0x4
	.byte	0x24
	.byte	0x50
	.byte	0xb
	.long	0x816c
	.uleb128 0x4
	.byte	0x24
	.byte	0x51
	.byte	0xb
	.long	0x8154
	.uleb128 0x4
	.byte	0x25
	.byte	0x35
	.byte	0xb
	.long	0x8178
	.uleb128 0x4
	.byte	0x25
	.byte	0x36
	.byte	0xb
	.long	0x82be
	.uleb128 0x4
	.byte	0x25
	.byte	0x37
	.byte	0xb
	.long	0x82d9
	.uleb128 0x1e
	.long	.LASF120
	.byte	0x1
	.value	0x12b
	.byte	0x1c
	.long	0x6f2e
	.uleb128 0x7
	.long	0xb66
	.uleb128 0x5
	.long	.LASF121
	.byte	0x22
	.byte	0x52
	.byte	0x9
	.long	0x5eb
	.uleb128 0x2a
	.long	.LASF122
	.byte	0x1
	.byte	0xf
	.byte	0x38
	.byte	0xb
	.long	0xd06
	.uleb128 0x1d
	.long	.LASF123
	.byte	0xf
	.byte	0x50
	.byte	0x7
	.long	.LASF124
	.long	0xba5
	.long	0xbab
	.uleb128 0x2
	.long	0x8302
	.byte	0
	.uleb128 0x1d
	.long	.LASF123
	.byte	0xf
	.byte	0x53
	.byte	0x7
	.long	.LASF125
	.long	0xbbf
	.long	0xbca
	.uleb128 0x2
	.long	0x8302
	.uleb128 0x1
	.long	0x830c
	.byte	0
	.uleb128 0x1d
	.long	.LASF126
	.byte	0xf
	.byte	0x5a
	.byte	0x7
	.long	.LASF127
	.long	0xbde
	.long	0xbe9
	.uleb128 0x2
	.long	0x8302
	.uleb128 0x2
	.long	0x11d
	.byte	0
	.uleb128 0x14
	.long	.LASF130
	.byte	0xf
	.byte	0x3f
	.byte	0x1a
	.long	0x6c96
	.byte	0x1
	.uleb128 0x12
	.long	.LASF128
	.byte	0xf
	.byte	0x5d
	.byte	0x7
	.long	.LASF129
	.long	0xbe9
	.byte	0x1
	.long	0xc0f
	.long	0xc1a
	.uleb128 0x2
	.long	0x8311
	.uleb128 0x1
	.long	0xc1a
	.byte	0
	.uleb128 0x14
	.long	.LASF131
	.byte	0xf
	.byte	0x41
	.byte	0x1a
	.long	0x8316
	.byte	0x1
	.uleb128 0x14
	.long	.LASF132
	.byte	0xf
	.byte	0x40
	.byte	0x1a
	.long	0x2f2
	.byte	0x1
	.uleb128 0x12
	.long	.LASF128
	.byte	0xf
	.byte	0x61
	.byte	0x7
	.long	.LASF133
	.long	0xc27
	.byte	0x1
	.long	0xc4d
	.long	0xc58
	.uleb128 0x2
	.long	0x8311
	.uleb128 0x1
	.long	0xc58
	.byte	0
	.uleb128 0x14
	.long	.LASF134
	.byte	0xf
	.byte	0x42
	.byte	0x1a
	.long	0x831b
	.byte	0x1
	.uleb128 0x12
	.long	.LASF135
	.byte	0xf
	.byte	0x70
	.byte	0x7
	.long	.LASF136
	.long	0x6c96
	.byte	0x1
	.long	0xc7e
	.long	0xc8e
	.uleb128 0x2
	.long	0x8302
	.uleb128 0x1
	.long	0xc8e
	.uleb128 0x1
	.long	0x82fb
	.byte	0
	.uleb128 0x14
	.long	.LASF137
	.byte	0xf
	.byte	0x3c
	.byte	0x1f
	.long	0x56b
	.byte	0x1
	.uleb128 0x1d
	.long	.LASF138
	.byte	0xf
	.byte	0x8e
	.byte	0x7
	.long	.LASF139
	.long	0xcaf
	.long	0xcbf
	.uleb128 0x2
	.long	0x8302
	.uleb128 0x1
	.long	0x6c96
	.uleb128 0x1
	.long	0xc8e
	.byte	0
	.uleb128 0x12
	.long	.LASF140
	.byte	0xf
	.byte	0xa7
	.byte	0x7
	.long	.LASF141
	.long	0xc8e
	.byte	0x1
	.long	0xcd8
	.long	0xcde
	.uleb128 0x2
	.long	0x8311
	.byte	0
	.uleb128 0x35
	.long	.LASF142
	.byte	0xf
	.byte	0xd2
	.byte	0x7
	.long	.LASF143
	.long	0xc8e
	.long	0xcf6
	.long	0xcfc
	.uleb128 0x2
	.long	0x8311
	.byte	0
	.uleb128 0xd
	.string	"_Tp"
	.long	0x111
	.byte	0
	.uleb128 0x7
	.long	0xb84
	.uleb128 0x2a
	.long	.LASF144
	.byte	0x1
	.byte	0xb
	.byte	0x7c
	.byte	0xb
	.long	0xd93
	.uleb128 0x45
	.long	0xb84
	.byte	0x1
	.uleb128 0x1d
	.long	.LASF145
	.byte	0xb
	.byte	0x9c
	.byte	0x7
	.long	.LASF146
	.long	0xd32
	.long	0xd38
	.uleb128 0x2
	.long	0x8320
	.byte	0
	.uleb128 0x1d
	.long	.LASF145
	.byte	0xb
	.byte	0x9f
	.byte	0x7
	.long	.LASF147
	.long	0xd4c
	.long	0xd57
	.uleb128 0x2
	.long	0x8320
	.uleb128 0x1
	.long	0x832a
	.byte	0
	.uleb128 0x4d
	.long	.LASF82
	.byte	0xb
	.byte	0xa4
	.byte	0x12
	.long	.LASF150
	.long	0x832f
	.long	0xd6f
	.long	0xd7a
	.uleb128 0x2
	.long	0x8320
	.uleb128 0x1
	.long	0x832a
	.byte	0
	.uleb128 0x59
	.long	.LASF151
	.long	.LASF152
	.long	0xd87
	.uleb128 0x2
	.long	0x8320
	.uleb128 0x2
	.long	0x11d
	.byte	0
	.byte	0
	.uleb128 0x7
	.long	0xd0b
	.uleb128 0x8a
	.long	.LASF1490
	.byte	0x1
	.byte	0x14
	.byte	0x5d
	.byte	0xa
	.uleb128 0x19
	.long	.LASF153
	.byte	0x1
	.byte	0x14
	.byte	0x63
	.byte	0xa
	.long	0xdb5
	.uleb128 0x36
	.long	0xd98
	.byte	0
	.uleb128 0x19
	.long	.LASF154
	.byte	0x1
	.byte	0x14
	.byte	0x67
	.byte	0xa
	.long	0xdc8
	.uleb128 0x36
	.long	0xda2
	.byte	0
	.uleb128 0x19
	.long	.LASF155
	.byte	0x1
	.byte	0x14
	.byte	0x6b
	.byte	0xa
	.long	0xddb
	.uleb128 0x36
	.long	0xdb5
	.byte	0
	.uleb128 0x6a
	.long	.LASF156
	.byte	0x26
	.byte	0x32
	.byte	0xd
	.uleb128 0x19
	.long	.LASF157
	.byte	0x1
	.byte	0x13
	.byte	0xa8
	.byte	0xc
	.long	0xe36
	.uleb128 0x37
	.long	.LASF158
	.byte	0x13
	.byte	0xac
	.byte	0x9
	.long	.LASF558
	.long	0xe14
	.uleb128 0x6
	.long	.LASF159
	.long	0x8cd8
	.uleb128 0x1
	.long	0x8cd8
	.uleb128 0x1
	.long	0x8cd8
	.byte	0
	.uleb128 0x8b
	.long	.LASF1254
	.byte	0x13
	.byte	0xac
	.byte	0x9
	.long	.LASF1491
	.uleb128 0x6
	.long	.LASF159
	.long	0x8dc8
	.uleb128 0x1
	.long	0x8dc8
	.uleb128 0x1
	.long	0x8dc8
	.byte	0
	.byte	0
	.uleb128 0x2a
	.long	.LASF160
	.byte	0x10
	.byte	0x27
	.byte	0x64
	.byte	0xb
	.long	0x177c
	.uleb128 0x14
	.long	.LASF137
	.byte	0x27
	.byte	0x77
	.byte	0xd
	.long	0x56b
	.byte	0x1
	.uleb128 0x1d
	.long	.LASF161
	.byte	0x27
	.byte	0x7e
	.byte	0x7
	.long	.LASF162
	.long	0xe64
	.long	0xe6a
	.uleb128 0x2
	.long	0x834a
	.byte	0
	.uleb128 0x8c
	.long	.LASF161
	.byte	0x27
	.byte	0x82
	.byte	0x11
	.long	.LASF163
	.byte	0x1
	.byte	0x1
	.long	0xe81
	.long	0xe8c
	.uleb128 0x2
	.long	0x834a
	.uleb128 0x1
	.long	0x834f
	.byte	0
	.uleb128 0x1d
	.long	.LASF161
	.byte	0x27
	.byte	0x85
	.byte	0x7
	.long	.LASF164
	.long	0xea0
	.long	0xeab
	.uleb128 0x2
	.long	0x834a
	.uleb128 0x1
	.long	0x2f2
	.byte	0
	.uleb128 0x1d
	.long	.LASF161
	.byte	0x27
	.byte	0x8b
	.byte	0x7
	.long	.LASF165
	.long	0xebf
	.long	0xecf
	.uleb128 0x2
	.long	0x834a
	.uleb128 0x1
	.long	0x2f2
	.uleb128 0x1
	.long	0xe43
	.byte	0
	.uleb128 0x4d
	.long	.LASF82
	.byte	0x27
	.byte	0xb1
	.byte	0x7
	.long	.LASF166
	.long	0x8354
	.long	0xee7
	.long	0xef2
	.uleb128 0x2
	.long	0x834a
	.uleb128 0x1
	.long	0x834f
	.byte	0
	.uleb128 0x14
	.long	.LASF167
	.byte	0x27
	.byte	0x73
	.byte	0xd
	.long	0x8359
	.byte	0x1
	.uleb128 0x14
	.long	.LASF56
	.byte	0x27
	.byte	0x6e
	.byte	0xd
	.long	0x111
	.byte	0x1
	.uleb128 0x7
	.long	0xeff
	.uleb128 0x12
	.long	.LASF168
	.byte	0x27
	.byte	0xb6
	.byte	0x7
	.long	.LASF169
	.long	0xef2
	.byte	0x1
	.long	0xf2a
	.long	0xf30
	.uleb128 0x2
	.long	0x835e
	.byte	0
	.uleb128 0x4e
	.string	"end"
	.byte	0x27
	.byte	0xba
	.long	.LASF191
	.long	0xef2
	.long	0xf47
	.long	0xf4d
	.uleb128 0x2
	.long	0x835e
	.byte	0
	.uleb128 0x12
	.long	.LASF170
	.byte	0x27
	.byte	0xbe
	.byte	0x7
	.long	.LASF171
	.long	0xef2
	.byte	0x1
	.long	0xf66
	.long	0xf6c
	.uleb128 0x2
	.long	0x835e
	.byte	0
	.uleb128 0x12
	.long	.LASF172
	.byte	0x27
	.byte	0xc2
	.byte	0x7
	.long	.LASF173
	.long	0xef2
	.byte	0x1
	.long	0xf85
	.long	0xf8b
	.uleb128 0x2
	.long	0x835e
	.byte	0
	.uleb128 0x14
	.long	.LASF174
	.byte	0x27
	.byte	0x75
	.byte	0xd
	.long	0x1781
	.byte	0x1
	.uleb128 0x12
	.long	.LASF175
	.byte	0x27
	.byte	0xc6
	.byte	0x7
	.long	.LASF176
	.long	0xf8b
	.byte	0x1
	.long	0xfb1
	.long	0xfb7
	.uleb128 0x2
	.long	0x835e
	.byte	0
	.uleb128 0x12
	.long	.LASF177
	.byte	0x27
	.byte	0xca
	.byte	0x7
	.long	.LASF178
	.long	0xf8b
	.byte	0x1
	.long	0xfd0
	.long	0xfd6
	.uleb128 0x2
	.long	0x835e
	.byte	0
	.uleb128 0x12
	.long	.LASF179
	.byte	0x27
	.byte	0xce
	.byte	0x7
	.long	.LASF180
	.long	0xf8b
	.byte	0x1
	.long	0xfef
	.long	0xff5
	.uleb128 0x2
	.long	0x835e
	.byte	0
	.uleb128 0x12
	.long	.LASF181
	.byte	0x27
	.byte	0xd2
	.byte	0x7
	.long	.LASF182
	.long	0xf8b
	.byte	0x1
	.long	0x100e
	.long	0x1014
	.uleb128 0x2
	.long	0x835e
	.byte	0
	.uleb128 0x12
	.long	.LASF183
	.byte	0x27
	.byte	0xd8
	.byte	0x7
	.long	.LASF184
	.long	0xe43
	.byte	0x1
	.long	0x102d
	.long	0x1033
	.uleb128 0x2
	.long	0x835e
	.byte	0
	.uleb128 0x12
	.long	.LASF99
	.byte	0x27
	.byte	0xdc
	.byte	0x7
	.long	.LASF185
	.long	0xe43
	.byte	0x1
	.long	0x104c
	.long	0x1052
	.uleb128 0x2
	.long	0x835e
	.byte	0
	.uleb128 0x12
	.long	.LASF140
	.byte	0x27
	.byte	0xe0
	.byte	0x7
	.long	.LASF186
	.long	0xe43
	.byte	0x1
	.long	0x106b
	.long	0x1071
	.uleb128 0x2
	.long	0x835e
	.byte	0
	.uleb128 0x12
	.long	.LASF187
	.byte	0x27
	.byte	0xe7
	.byte	0x7
	.long	.LASF188
	.long	0x7e9e
	.byte	0x1
	.long	0x108a
	.long	0x1090
	.uleb128 0x2
	.long	0x835e
	.byte	0
	.uleb128 0x14
	.long	.LASF134
	.byte	0x27
	.byte	0x72
	.byte	0xd
	.long	0x8363
	.byte	0x1
	.uleb128 0x12
	.long	.LASF189
	.byte	0x27
	.byte	0xed
	.byte	0x7
	.long	.LASF190
	.long	0x1090
	.byte	0x1
	.long	0x10b6
	.long	0x10c1
	.uleb128 0x2
	.long	0x835e
	.uleb128 0x1
	.long	0xe43
	.byte	0
	.uleb128 0x4e
	.string	"at"
	.byte	0x27
	.byte	0xf4
	.long	.LASF192
	.long	0x1090
	.long	0x10d7
	.long	0x10e2
	.uleb128 0x2
	.long	0x835e
	.uleb128 0x1
	.long	0xe43
	.byte	0
	.uleb128 0x12
	.long	.LASF193
	.byte	0x27
	.byte	0xfe
	.byte	0x7
	.long	.LASF194
	.long	0x1090
	.byte	0x1
	.long	0x10fb
	.long	0x1101
	.uleb128 0x2
	.long	0x835e
	.byte	0
	.uleb128 0x3
	.long	.LASF195
	.byte	0x27
	.value	0x105
	.byte	0x7
	.long	.LASF197
	.long	0x1090
	.byte	0x1
	.long	0x111b
	.long	0x1121
	.uleb128 0x2
	.long	0x835e
	.byte	0
	.uleb128 0x14
	.long	.LASF132
	.byte	0x27
	.byte	0x70
	.byte	0xd
	.long	0x8359
	.byte	0x1
	.uleb128 0x3
	.long	.LASF196
	.byte	0x27
	.value	0x10c
	.byte	0x7
	.long	.LASF198
	.long	0x1121
	.byte	0x1
	.long	0x1148
	.long	0x114e
	.uleb128 0x2
	.long	0x835e
	.byte	0
	.uleb128 0xb
	.long	.LASF199
	.byte	0x27
	.value	0x112
	.byte	0x7
	.long	.LASF201
	.byte	0x1
	.long	0x1164
	.long	0x116f
	.uleb128 0x2
	.long	0x834a
	.uleb128 0x1
	.long	0xe43
	.byte	0
	.uleb128 0xb
	.long	.LASF200
	.byte	0x27
	.value	0x11a
	.byte	0x7
	.long	.LASF202
	.byte	0x1
	.long	0x1185
	.long	0x1190
	.uleb128 0x2
	.long	0x834a
	.uleb128 0x1
	.long	0xe43
	.byte	0
	.uleb128 0xb
	.long	.LASF87
	.byte	0x27
	.value	0x11e
	.byte	0x7
	.long	.LASF203
	.byte	0x1
	.long	0x11a6
	.long	0x11b1
	.uleb128 0x2
	.long	0x834a
	.uleb128 0x1
	.long	0x8354
	.byte	0
	.uleb128 0x3
	.long	.LASF106
	.byte	0x27
	.value	0x129
	.byte	0x7
	.long	.LASF204
	.long	0xe43
	.byte	0x1
	.long	0x11cb
	.long	0x11e0
	.uleb128 0x2
	.long	0x835e
	.uleb128 0x1
	.long	0x6c96
	.uleb128 0x1
	.long	0xe43
	.uleb128 0x1
	.long	0xe43
	.byte	0
	.uleb128 0x3
	.long	.LASF205
	.byte	0x27
	.value	0x135
	.byte	0x7
	.long	.LASF206
	.long	0xe36
	.byte	0x1
	.long	0x11fa
	.long	0x120a
	.uleb128 0x2
	.long	0x835e
	.uleb128 0x1
	.long	0xe43
	.uleb128 0x1
	.long	0xe43
	.byte	0
	.uleb128 0x3
	.long	.LASF98
	.byte	0x27
	.value	0x13d
	.byte	0x7
	.long	.LASF207
	.long	0x11d
	.byte	0x1
	.long	0x1224
	.long	0x122f
	.uleb128 0x2
	.long	0x835e
	.uleb128 0x1
	.long	0xe36
	.byte	0
	.uleb128 0x3
	.long	.LASF98
	.byte	0x27
	.value	0x147
	.byte	0x7
	.long	.LASF208
	.long	0x11d
	.byte	0x1
	.long	0x1249
	.long	0x125e
	.uleb128 0x2
	.long	0x835e
	.uleb128 0x1
	.long	0xe43
	.uleb128 0x1
	.long	0xe43
	.uleb128 0x1
	.long	0xe36
	.byte	0
	.uleb128 0x3
	.long	.LASF98
	.byte	0x27
	.value	0x14b
	.byte	0x7
	.long	.LASF209
	.long	0x11d
	.byte	0x1
	.long	0x1278
	.long	0x1297
	.uleb128 0x2
	.long	0x835e
	.uleb128 0x1
	.long	0xe43
	.uleb128 0x1
	.long	0xe43
	.uleb128 0x1
	.long	0xe36
	.uleb128 0x1
	.long	0xe43
	.uleb128 0x1
	.long	0xe43
	.byte	0
	.uleb128 0x3
	.long	.LASF98
	.byte	0x27
	.value	0x152
	.byte	0x7
	.long	.LASF210
	.long	0x11d
	.byte	0x1
	.long	0x12b1
	.long	0x12bc
	.uleb128 0x2
	.long	0x835e
	.uleb128 0x1
	.long	0x2f2
	.byte	0
	.uleb128 0x3
	.long	.LASF98
	.byte	0x27
	.value	0x156
	.byte	0x7
	.long	.LASF211
	.long	0x11d
	.byte	0x1
	.long	0x12d6
	.long	0x12eb
	.uleb128 0x2
	.long	0x835e
	.uleb128 0x1
	.long	0xe43
	.uleb128 0x1
	.long	0xe43
	.uleb128 0x1
	.long	0x2f2
	.byte	0
	.uleb128 0x3
	.long	.LASF98
	.byte	0x27
	.value	0x15a
	.byte	0x7
	.long	.LASF212
	.long	0x11d
	.byte	0x1
	.long	0x1305
	.long	0x131f
	.uleb128 0x2
	.long	0x835e
	.uleb128 0x1
	.long	0xe43
	.uleb128 0x1
	.long	0xe43
	.uleb128 0x1
	.long	0x2f2
	.uleb128 0x1
	.long	0xe43
	.byte	0
	.uleb128 0x3
	.long	.LASF102
	.byte	0x27
	.value	0x193
	.byte	0x7
	.long	.LASF213
	.long	0xe43
	.byte	0x1
	.long	0x1339
	.long	0x1349
	.uleb128 0x2
	.long	0x835e
	.uleb128 0x1
	.long	0xe36
	.uleb128 0x1
	.long	0xe43
	.byte	0
	.uleb128 0x3
	.long	.LASF102
	.byte	0x27
	.value	0x197
	.byte	0x7
	.long	.LASF214
	.long	0xe43
	.byte	0x1
	.long	0x1363
	.long	0x1373
	.uleb128 0x2
	.long	0x835e
	.uleb128 0x1
	.long	0x111
	.uleb128 0x1
	.long	0xe43
	.byte	0
	.uleb128 0x3
	.long	.LASF102
	.byte	0x27
	.value	0x19a
	.byte	0x7
	.long	.LASF215
	.long	0xe43
	.byte	0x1
	.long	0x138d
	.long	0x13a2
	.uleb128 0x2
	.long	0x835e
	.uleb128 0x1
	.long	0x2f2
	.uleb128 0x1
	.long	0xe43
	.uleb128 0x1
	.long	0xe43
	.byte	0
	.uleb128 0x3
	.long	.LASF102
	.byte	0x27
	.value	0x19d
	.byte	0x7
	.long	.LASF216
	.long	0xe43
	.byte	0x1
	.long	0x13bc
	.long	0x13cc
	.uleb128 0x2
	.long	0x835e
	.uleb128 0x1
	.long	0x2f2
	.uleb128 0x1
	.long	0xe43
	.byte	0
	.uleb128 0x3
	.long	.LASF217
	.byte	0x27
	.value	0x1a1
	.byte	0x7
	.long	.LASF218
	.long	0xe43
	.byte	0x1
	.long	0x13e6
	.long	0x13f6
	.uleb128 0x2
	.long	0x835e
	.uleb128 0x1
	.long	0xe36
	.uleb128 0x1
	.long	0xe43
	.byte	0
	.uleb128 0x3
	.long	.LASF217
	.byte	0x27
	.value	0x1a5
	.byte	0x7
	.long	.LASF219
	.long	0xe43
	.byte	0x1
	.long	0x1410
	.long	0x1420
	.uleb128 0x2
	.long	0x835e
	.uleb128 0x1
	.long	0x111
	.uleb128 0x1
	.long	0xe43
	.byte	0
	.uleb128 0x3
	.long	.LASF217
	.byte	0x27
	.value	0x1a8
	.byte	0x7
	.long	.LASF220
	.long	0xe43
	.byte	0x1
	.long	0x143a
	.long	0x144f
	.uleb128 0x2
	.long	0x835e
	.uleb128 0x1
	.long	0x2f2
	.uleb128 0x1
	.long	0xe43
	.uleb128 0x1
	.long	0xe43
	.byte	0
	.uleb128 0x3
	.long	.LASF217
	.byte	0x27
	.value	0x1ab
	.byte	0x7
	.long	.LASF221
	.long	0xe43
	.byte	0x1
	.long	0x1469
	.long	0x1479
	.uleb128 0x2
	.long	0x835e
	.uleb128 0x1
	.long	0x2f2
	.uleb128 0x1
	.long	0xe43
	.byte	0
	.uleb128 0x3
	.long	.LASF222
	.byte	0x27
	.value	0x1af
	.byte	0x7
	.long	.LASF223
	.long	0xe43
	.byte	0x1
	.long	0x1493
	.long	0x14a3
	.uleb128 0x2
	.long	0x835e
	.uleb128 0x1
	.long	0xe36
	.uleb128 0x1
	.long	0xe43
	.byte	0
	.uleb128 0x3
	.long	.LASF222
	.byte	0x27
	.value	0x1b3
	.byte	0x7
	.long	.LASF224
	.long	0xe43
	.byte	0x1
	.long	0x14bd
	.long	0x14cd
	.uleb128 0x2
	.long	0x835e
	.uleb128 0x1
	.long	0x111
	.uleb128 0x1
	.long	0xe43
	.byte	0
	.uleb128 0x3
	.long	.LASF222
	.byte	0x27
	.value	0x1b7
	.byte	0x7
	.long	.LASF225
	.long	0xe43
	.byte	0x1
	.long	0x14e7
	.long	0x14fc
	.uleb128 0x2
	.long	0x835e
	.uleb128 0x1
	.long	0x2f2
	.uleb128 0x1
	.long	0xe43
	.uleb128 0x1
	.long	0xe43
	.byte	0
	.uleb128 0x3
	.long	.LASF222
	.byte	0x27
	.value	0x1bb
	.byte	0x7
	.long	.LASF226
	.long	0xe43
	.byte	0x1
	.long	0x1516
	.long	0x1526
	.uleb128 0x2
	.long	0x835e
	.uleb128 0x1
	.long	0x2f2
	.uleb128 0x1
	.long	0xe43
	.byte	0
	.uleb128 0x3
	.long	.LASF227
	.byte	0x27
	.value	0x1bf
	.byte	0x7
	.long	.LASF228
	.long	0xe43
	.byte	0x1
	.long	0x1540
	.long	0x1550
	.uleb128 0x2
	.long	0x835e
	.uleb128 0x1
	.long	0xe36
	.uleb128 0x1
	.long	0xe43
	.byte	0
	.uleb128 0x3
	.long	.LASF227
	.byte	0x27
	.value	0x1c4
	.byte	0x7
	.long	.LASF229
	.long	0xe43
	.byte	0x1
	.long	0x156a
	.long	0x157a
	.uleb128 0x2
	.long	0x835e
	.uleb128 0x1
	.long	0x111
	.uleb128 0x1
	.long	0xe43
	.byte	0
	.uleb128 0x3
	.long	.LASF227
	.byte	0x27
	.value	0x1c8
	.byte	0x7
	.long	.LASF230
	.long	0xe43
	.byte	0x1
	.long	0x1594
	.long	0x15a9
	.uleb128 0x2
	.long	0x835e
	.uleb128 0x1
	.long	0x2f2
	.uleb128 0x1
	.long	0xe43
	.uleb128 0x1
	.long	0xe43
	.byte	0
	.uleb128 0x3
	.long	.LASF227
	.byte	0x27
	.value	0x1cc
	.byte	0x7
	.long	.LASF231
	.long	0xe43
	.byte	0x1
	.long	0x15c3
	.long	0x15d3
	.uleb128 0x2
	.long	0x835e
	.uleb128 0x1
	.long	0x2f2
	.uleb128 0x1
	.long	0xe43
	.byte	0
	.uleb128 0x3
	.long	.LASF232
	.byte	0x27
	.value	0x1d0
	.byte	0x7
	.long	.LASF233
	.long	0xe43
	.byte	0x1
	.long	0x15ed
	.long	0x15fd
	.uleb128 0x2
	.long	0x835e
	.uleb128 0x1
	.long	0xe36
	.uleb128 0x1
	.long	0xe43
	.byte	0
	.uleb128 0x3
	.long	.LASF232
	.byte	0x27
	.value	0x1d5
	.byte	0x7
	.long	.LASF234
	.long	0xe43
	.byte	0x1
	.long	0x1617
	.long	0x1627
	.uleb128 0x2
	.long	0x835e
	.uleb128 0x1
	.long	0x111
	.uleb128 0x1
	.long	0xe43
	.byte	0
	.uleb128 0x3
	.long	.LASF232
	.byte	0x27
	.value	0x1d8
	.byte	0x7
	.long	.LASF235
	.long	0xe43
	.byte	0x1
	.long	0x1641
	.long	0x1656
	.uleb128 0x2
	.long	0x835e
	.uleb128 0x1
	.long	0x2f2
	.uleb128 0x1
	.long	0xe43
	.uleb128 0x1
	.long	0xe43
	.byte	0
	.uleb128 0x3
	.long	.LASF232
	.byte	0x27
	.value	0x1dc
	.byte	0x7
	.long	.LASF236
	.long	0xe43
	.byte	0x1
	.long	0x1670
	.long	0x1680
	.uleb128 0x2
	.long	0x835e
	.uleb128 0x1
	.long	0x2f2
	.uleb128 0x1
	.long	0xe43
	.byte	0
	.uleb128 0x3
	.long	.LASF237
	.byte	0x27
	.value	0x1e3
	.byte	0x7
	.long	.LASF238
	.long	0xe43
	.byte	0x1
	.long	0x169a
	.long	0x16aa
	.uleb128 0x2
	.long	0x835e
	.uleb128 0x1
	.long	0xe36
	.uleb128 0x1
	.long	0xe43
	.byte	0
	.uleb128 0x3
	.long	.LASF237
	.byte	0x27
	.value	0x1e8
	.byte	0x7
	.long	.LASF239
	.long	0xe43
	.byte	0x1
	.long	0x16c4
	.long	0x16d4
	.uleb128 0x2
	.long	0x835e
	.uleb128 0x1
	.long	0x111
	.uleb128 0x1
	.long	0xe43
	.byte	0
	.uleb128 0x3
	.long	.LASF237
	.byte	0x27
	.value	0x1eb
	.byte	0x7
	.long	.LASF240
	.long	0xe43
	.byte	0x1
	.long	0x16ee
	.long	0x1703
	.uleb128 0x2
	.long	0x835e
	.uleb128 0x1
	.long	0x2f2
	.uleb128 0x1
	.long	0xe43
	.uleb128 0x1
	.long	0xe43
	.byte	0
	.uleb128 0x3
	.long	.LASF237
	.byte	0x27
	.value	0x1ef
	.byte	0x7
	.long	.LASF241
	.long	0xe43
	.byte	0x1
	.long	0x171d
	.long	0x172d
	.uleb128 0x2
	.long	0x835e
	.uleb128 0x1
	.long	0x2f2
	.uleb128 0x1
	.long	0xe43
	.byte	0
	.uleb128 0xe
	.long	.LASF242
	.byte	0x27
	.value	0x1f9
	.byte	0x7
	.long	.LASF243
	.long	0x11d
	.long	0x174d
	.uleb128 0x1
	.long	0xe43
	.uleb128 0x1
	.long	0xe43
	.byte	0
	.uleb128 0x4f
	.long	.LASF244
	.byte	0x27
	.value	0x204
	.byte	0x12
	.long	0x56b
	.byte	0
	.uleb128 0x4f
	.long	.LASF245
	.byte	0x27
	.value	0x205
	.byte	0x15
	.long	0x2f2
	.byte	0x8
	.uleb128 0x6
	.long	.LASF119
	.long	0x111
	.uleb128 0x46
	.long	.LASF491
	.long	0x887
	.byte	0
	.uleb128 0x7
	.long	0xe36
	.uleb128 0x31
	.long	.LASF247
	.uleb128 0x4
	.byte	0x28
	.byte	0x7f
	.byte	0xb
	.long	0x838f
	.uleb128 0x4
	.byte	0x28
	.byte	0x80
	.byte	0xb
	.long	0x83c2
	.uleb128 0x4
	.byte	0x28
	.byte	0x86
	.byte	0xb
	.long	0x8434
	.uleb128 0x4
	.byte	0x28
	.byte	0x89
	.byte	0xb
	.long	0x8452
	.uleb128 0x4
	.byte	0x28
	.byte	0x8c
	.byte	0xb
	.long	0x846d
	.uleb128 0x4
	.byte	0x28
	.byte	0x8d
	.byte	0xb
	.long	0x8483
	.uleb128 0x4
	.byte	0x28
	.byte	0x8e
	.byte	0xb
	.long	0x8499
	.uleb128 0x4
	.byte	0x28
	.byte	0x8f
	.byte	0xb
	.long	0x84af
	.uleb128 0x4
	.byte	0x28
	.byte	0x91
	.byte	0xb
	.long	0x84da
	.uleb128 0x4
	.byte	0x28
	.byte	0x94
	.byte	0xb
	.long	0x84f7
	.uleb128 0x4
	.byte	0x28
	.byte	0x96
	.byte	0xb
	.long	0x850e
	.uleb128 0x4
	.byte	0x28
	.byte	0x99
	.byte	0xb
	.long	0x852a
	.uleb128 0x4
	.byte	0x28
	.byte	0x9a
	.byte	0xb
	.long	0x8546
	.uleb128 0x4
	.byte	0x28
	.byte	0x9b
	.byte	0xb
	.long	0x8567
	.uleb128 0x4
	.byte	0x28
	.byte	0x9d
	.byte	0xb
	.long	0x8588
	.uleb128 0x4
	.byte	0x28
	.byte	0xa0
	.byte	0xb
	.long	0x85a9
	.uleb128 0x4
	.byte	0x28
	.byte	0xa3
	.byte	0xb
	.long	0x85bd
	.uleb128 0x4
	.byte	0x28
	.byte	0xa5
	.byte	0xb
	.long	0x85ca
	.uleb128 0x4
	.byte	0x28
	.byte	0xa6
	.byte	0xb
	.long	0x85dc
	.uleb128 0x4
	.byte	0x28
	.byte	0xa7
	.byte	0xb
	.long	0x85fc
	.uleb128 0x4
	.byte	0x28
	.byte	0xa8
	.byte	0xb
	.long	0x861c
	.uleb128 0x4
	.byte	0x28
	.byte	0xa9
	.byte	0xb
	.long	0x863c
	.uleb128 0x4
	.byte	0x28
	.byte	0xab
	.byte	0xb
	.long	0x8653
	.uleb128 0x4
	.byte	0x28
	.byte	0xac
	.byte	0xb
	.long	0x8674
	.uleb128 0x4
	.byte	0x28
	.byte	0xf0
	.byte	0x16
	.long	0x83f5
	.uleb128 0x4
	.byte	0x28
	.byte	0xf5
	.byte	0x16
	.long	0x73f1
	.uleb128 0x4
	.byte	0x28
	.byte	0xf6
	.byte	0x16
	.long	0x8690
	.uleb128 0x4
	.byte	0x28
	.byte	0xf8
	.byte	0x16
	.long	0x86ac
	.uleb128 0x4
	.byte	0x28
	.byte	0xf9
	.byte	0x16
	.long	0x8702
	.uleb128 0x4
	.byte	0x28
	.byte	0xfa
	.byte	0x16
	.long	0x86c2
	.uleb128 0x4
	.byte	0x28
	.byte	0xfb
	.byte	0x16
	.long	0x86e2
	.uleb128 0x4
	.byte	0x28
	.byte	0xfc
	.byte	0x16
	.long	0x871d
	.uleb128 0x4
	.byte	0x29
	.byte	0x62
	.byte	0xb
	.long	0x2da
	.uleb128 0x4
	.byte	0x29
	.byte	0x63
	.byte	0xb
	.long	0x87bd
	.uleb128 0x4
	.byte	0x29
	.byte	0x65
	.byte	0xb
	.long	0x87d3
	.uleb128 0x4
	.byte	0x29
	.byte	0x66
	.byte	0xb
	.long	0x87e5
	.uleb128 0x4
	.byte	0x29
	.byte	0x67
	.byte	0xb
	.long	0x87fb
	.uleb128 0x4
	.byte	0x29
	.byte	0x68
	.byte	0xb
	.long	0x8812
	.uleb128 0x4
	.byte	0x29
	.byte	0x69
	.byte	0xb
	.long	0x8829
	.uleb128 0x4
	.byte	0x29
	.byte	0x6a
	.byte	0xb
	.long	0x883f
	.uleb128 0x4
	.byte	0x29
	.byte	0x6b
	.byte	0xb
	.long	0x8856
	.uleb128 0x4
	.byte	0x29
	.byte	0x6c
	.byte	0xb
	.long	0x8877
	.uleb128 0x4
	.byte	0x29
	.byte	0x6d
	.byte	0xb
	.long	0x8898
	.uleb128 0x4
	.byte	0x29
	.byte	0x71
	.byte	0xb
	.long	0x88b4
	.uleb128 0x4
	.byte	0x29
	.byte	0x72
	.byte	0xb
	.long	0x88da
	.uleb128 0x4
	.byte	0x29
	.byte	0x74
	.byte	0xb
	.long	0x88fb
	.uleb128 0x4
	.byte	0x29
	.byte	0x75
	.byte	0xb
	.long	0x891c
	.uleb128 0x4
	.byte	0x29
	.byte	0x76
	.byte	0xb
	.long	0x893d
	.uleb128 0x4
	.byte	0x29
	.byte	0x78
	.byte	0xb
	.long	0x8954
	.uleb128 0x4
	.byte	0x29
	.byte	0x79
	.byte	0xb
	.long	0x896b
	.uleb128 0x4
	.byte	0x29
	.byte	0x7e
	.byte	0xb
	.long	0x8978
	.uleb128 0x4
	.byte	0x29
	.byte	0x83
	.byte	0xb
	.long	0x898a
	.uleb128 0x4
	.byte	0x29
	.byte	0x84
	.byte	0xb
	.long	0x89a0
	.uleb128 0x4
	.byte	0x29
	.byte	0x85
	.byte	0xb
	.long	0x89bb
	.uleb128 0x4
	.byte	0x29
	.byte	0x87
	.byte	0xb
	.long	0x89cd
	.uleb128 0x4
	.byte	0x29
	.byte	0x88
	.byte	0xb
	.long	0x89e4
	.uleb128 0x4
	.byte	0x29
	.byte	0x8b
	.byte	0xb
	.long	0x8a0a
	.uleb128 0x4
	.byte	0x29
	.byte	0x8d
	.byte	0xb
	.long	0x8a16
	.uleb128 0x4
	.byte	0x29
	.byte	0x8f
	.byte	0xb
	.long	0x8a2c
	.uleb128 0x3e
	.long	.LASF248
	.byte	0xd
	.value	0x19b
	.long	0x1a67
	.uleb128 0x1e
	.long	.LASF130
	.byte	0xd
	.value	0x1a4
	.byte	0xd
	.long	0x6c96
	.uleb128 0xe
	.long	.LASF135
	.byte	0xd
	.value	0x1cf
	.byte	0x7
	.long	.LASF249
	.long	0x196a
	.long	0x1997
	.uleb128 0x1
	.long	0x8a48
	.uleb128 0x1
	.long	0x19a9
	.byte	0
	.uleb128 0x1e
	.long	.LASF250
	.byte	0xd
	.value	0x19e
	.byte	0xd
	.long	0xd0b
	.uleb128 0x7
	.long	0x1997
	.uleb128 0x1e
	.long	.LASF137
	.byte	0xd
	.value	0x1b3
	.byte	0xd
	.long	0x56b
	.uleb128 0xe
	.long	.LASF135
	.byte	0xd
	.value	0x1dd
	.byte	0x7
	.long	.LASF251
	.long	0x196a
	.long	0x19db
	.uleb128 0x1
	.long	0x8a48
	.uleb128 0x1
	.long	0x19a9
	.uleb128 0x1
	.long	0x19db
	.byte	0
	.uleb128 0x1e
	.long	.LASF252
	.byte	0xd
	.value	0x1ad
	.byte	0xd
	.long	0x82fb
	.uleb128 0x2c
	.long	.LASF138
	.byte	0xd
	.value	0x1ef
	.byte	0x7
	.long	.LASF254
	.long	0x1a09
	.uleb128 0x1
	.long	0x8a48
	.uleb128 0x1
	.long	0x196a
	.uleb128 0x1
	.long	0x19a9
	.byte	0
	.uleb128 0xe
	.long	.LASF140
	.byte	0xd
	.value	0x223
	.byte	0x7
	.long	.LASF255
	.long	0x19a9
	.long	0x1a24
	.uleb128 0x1
	.long	0x8a4d
	.byte	0
	.uleb128 0xe
	.long	.LASF256
	.byte	0xd
	.value	0x232
	.byte	0x7
	.long	.LASF257
	.long	0x1997
	.long	0x1a3f
	.uleb128 0x1
	.long	0x8a4d
	.byte	0
	.uleb128 0x1e
	.long	.LASF56
	.byte	0xd
	.value	0x1a1
	.byte	0xd
	.long	0x111
	.uleb128 0x1e
	.long	.LASF132
	.byte	0xd
	.value	0x1a7
	.byte	0xd
	.long	0x2f2
	.uleb128 0x1e
	.long	.LASF258
	.byte	0xd
	.value	0x1c2
	.byte	0x8
	.long	0xd0b
	.byte	0
	.uleb128 0x8d
	.long	.LASF1492
	.byte	0x1
	.value	0x14b
	.byte	0x41
	.long	0x35cc
	.uleb128 0x2a
	.long	.LASF259
	.byte	0x20
	.byte	0x5
	.byte	0x55
	.byte	0xb
	.long	0x35af
	.uleb128 0x19
	.long	.LASF260
	.byte	0x8
	.byte	0x5
	.byte	0xc0
	.byte	0xe
	.long	0x1b02
	.uleb128 0x36
	.long	0xd0b
	.uleb128 0x20
	.long	.LASF260
	.byte	0x5
	.byte	0xc7
	.byte	0x2
	.long	.LASF261
	.long	0x1aa8
	.long	0x1ab8
	.uleb128 0x2
	.long	0x8a5c
	.uleb128 0x1
	.long	0x1b02
	.uleb128 0x1
	.long	0x832a
	.byte	0
	.uleb128 0x20
	.long	.LASF260
	.byte	0x5
	.byte	0xcb
	.byte	0x2
	.long	.LASF262
	.long	0x1acc
	.long	0x1adc
	.uleb128 0x2
	.long	0x8a5c
	.uleb128 0x1
	.long	0x1b02
	.uleb128 0x1
	.long	0x8a66
	.byte	0
	.uleb128 0x8
	.long	.LASF263
	.byte	0x5
	.byte	0xcf
	.byte	0xa
	.long	0x1b02
	.byte	0
	.uleb128 0x5a
	.long	.LASF566
	.long	.LASF568
	.long	0x1af6
	.uleb128 0x2
	.long	0x8a5c
	.uleb128 0x2
	.long	0x11d
	.byte	0
	.byte	0
	.uleb128 0x14
	.long	.LASF130
	.byte	0x5
	.byte	0x82
	.byte	0x30
	.long	0x74ce
	.byte	0x1
	.uleb128 0x8e
	.byte	0x7
	.byte	0x4
	.long	0x9c
	.byte	0x5
	.byte	0xd5
	.byte	0xc
	.long	0x1b26
	.uleb128 0x8f
	.long	.LASF1493
	.byte	0xf
	.byte	0
	.uleb128 0x66
	.byte	0x10
	.byte	0x5
	.byte	0xd8
	.byte	0x7
	.long	0x1b48
	.uleb128 0x4c
	.long	.LASF264
	.byte	0x5
	.byte	0xd9
	.byte	0x13
	.long	0x8a6b
	.uleb128 0x4c
	.long	.LASF265
	.byte	0x5
	.byte	0xda
	.byte	0x13
	.long	0x1b48
	.byte	0
	.uleb128 0x14
	.long	.LASF137
	.byte	0x5
	.byte	0x7e
	.byte	0x32
	.long	0x74e6
	.byte	0x1
	.uleb128 0x5
	.long	.LASF266
	.byte	0x5
	.byte	0x98
	.byte	0x32
	.long	0xe36
	.uleb128 0x16
	.long	.LASF267
	.byte	0x5
	.byte	0xa4
	.byte	0x7
	.long	.LASF268
	.long	0x1b55
	.long	0x1b7b
	.uleb128 0x1
	.long	0x1b55
	.byte	0
	.uleb128 0x57
	.long	.LASF269
	.byte	0x5
	.byte	0xbb
	.byte	0x7
	.long	.LASF270
	.long	0x1b8f
	.long	0x1b9f
	.uleb128 0x2
	.long	0x8a7b
	.uleb128 0x1
	.long	0x1b9f
	.uleb128 0x1
	.long	0x832a
	.byte	0
	.uleb128 0x19
	.long	.LASF271
	.byte	0x10
	.byte	0x5
	.byte	0xab
	.byte	0xe
	.long	0x1bd9
	.uleb128 0x57
	.long	.LASF271
	.byte	0x5
	.byte	0xae
	.byte	0x2
	.long	.LASF272
	.long	0x1bc0
	.long	0x1bcb
	.uleb128 0x2
	.long	0x8aad
	.uleb128 0x1
	.long	0x1b55
	.byte	0
	.uleb128 0x8
	.long	.LASF273
	.byte	0x5
	.byte	0xb0
	.byte	0xc
	.long	0x1b55
	.byte	0
	.byte	0
	.uleb128 0x8
	.long	.LASF274
	.byte	0x5
	.byte	0xd2
	.byte	0x14
	.long	0x1a82
	.byte	0
	.uleb128 0x8
	.long	.LASF275
	.byte	0x5
	.byte	0xd3
	.byte	0x12
	.long	0x1b48
	.byte	0x8
	.uleb128 0x90
	.long	0x1b26
	.byte	0x10
	.uleb128 0x20
	.long	.LASF276
	.byte	0x5
	.byte	0xdf
	.byte	0x7
	.long	.LASF277
	.long	0x1c0e
	.long	0x1c19
	.uleb128 0x2
	.long	0x8a7b
	.uleb128 0x1
	.long	0x1b02
	.byte	0
	.uleb128 0x20
	.long	.LASF278
	.byte	0x5
	.byte	0xe4
	.byte	0x7
	.long	.LASF279
	.long	0x1c2d
	.long	0x1c38
	.uleb128 0x2
	.long	0x8a7b
	.uleb128 0x1
	.long	0x1b48
	.byte	0
	.uleb128 0x35
	.long	.LASF276
	.byte	0x5
	.byte	0xe9
	.byte	0x7
	.long	.LASF280
	.long	0x1b02
	.long	0x1c50
	.long	0x1c56
	.uleb128 0x2
	.long	0x8a85
	.byte	0
	.uleb128 0x35
	.long	.LASF281
	.byte	0x5
	.byte	0xee
	.byte	0x7
	.long	.LASF282
	.long	0x1b02
	.long	0x1c6e
	.long	0x1c74
	.uleb128 0x2
	.long	0x8a7b
	.byte	0
	.uleb128 0x14
	.long	.LASF132
	.byte	0x5
	.byte	0x83
	.byte	0x35
	.long	0x74da
	.byte	0x1
	.uleb128 0x35
	.long	.LASF281
	.byte	0x5
	.byte	0xf9
	.byte	0x7
	.long	.LASF283
	.long	0x1c74
	.long	0x1c99
	.long	0x1c9f
	.uleb128 0x2
	.long	0x8a85
	.byte	0
	.uleb128 0x1a
	.long	.LASF284
	.byte	0x5
	.value	0x104
	.long	.LASF285
	.long	0x1cb3
	.long	0x1cbe
	.uleb128 0x2
	.long	0x8a7b
	.uleb128 0x1
	.long	0x1b48
	.byte	0
	.uleb128 0x1a
	.long	.LASF286
	.byte	0x5
	.value	0x109
	.long	.LASF287
	.long	0x1cd2
	.long	0x1cdd
	.uleb128 0x2
	.long	0x8a7b
	.uleb128 0x1
	.long	0x1b48
	.byte	0
	.uleb128 0x27
	.long	.LASF288
	.byte	0x5
	.value	0x111
	.long	.LASF289
	.long	0x7e9e
	.long	0x1cf5
	.long	0x1cfb
	.uleb128 0x2
	.long	0x8a85
	.byte	0
	.uleb128 0x27
	.long	.LASF290
	.byte	0x5
	.value	0x117
	.long	.LASF291
	.long	0x1b02
	.long	0x1d13
	.long	0x1d23
	.uleb128 0x2
	.long	0x8a7b
	.uleb128 0x1
	.long	0x8a8f
	.uleb128 0x1
	.long	0x1b48
	.byte	0
	.uleb128 0x1a
	.long	.LASF292
	.byte	0x5
	.value	0x11b
	.long	.LASF293
	.long	0x1d37
	.long	0x1d3d
	.uleb128 0x2
	.long	0x8a7b
	.byte	0
	.uleb128 0x1a
	.long	.LASF294
	.byte	0x5
	.value	0x123
	.long	.LASF295
	.long	0x1d51
	.long	0x1d5c
	.uleb128 0x2
	.long	0x8a7b
	.uleb128 0x1
	.long	0x1b48
	.byte	0
	.uleb128 0x1a
	.long	.LASF296
	.byte	0x5
	.value	0x14f
	.long	.LASF297
	.long	0x1d70
	.long	0x1d80
	.uleb128 0x2
	.long	0x8a7b
	.uleb128 0x1
	.long	0x1b48
	.uleb128 0x1
	.long	0x111
	.byte	0
	.uleb128 0x14
	.long	.LASF250
	.byte	0x5
	.byte	0x7d
	.byte	0x23
	.long	0x1d92
	.byte	0x1
	.uleb128 0x7
	.long	0x1d80
	.uleb128 0x5
	.long	.LASF298
	.byte	0x5
	.byte	0x58
	.byte	0x18
	.long	0x7517
	.uleb128 0x27
	.long	.LASF299
	.byte	0x5
	.value	0x153
	.long	.LASF300
	.long	0x8a94
	.long	0x1db6
	.long	0x1dbc
	.uleb128 0x2
	.long	0x8a7b
	.byte	0
	.uleb128 0x27
	.long	.LASF299
	.byte	0x5
	.value	0x158
	.long	.LASF301
	.long	0x8a99
	.long	0x1dd4
	.long	0x1dda
	.uleb128 0x2
	.long	0x8a85
	.byte	0
	.uleb128 0x27
	.long	.LASF302
	.byte	0x5
	.value	0x15f
	.long	.LASF303
	.long	0x1b02
	.long	0x1df2
	.long	0x1df8
	.uleb128 0x2
	.long	0x8a7b
	.byte	0
	.uleb128 0x27
	.long	.LASF304
	.byte	0x5
	.value	0x17b
	.long	.LASF305
	.long	0x1b48
	.long	0x1e10
	.long	0x1e20
	.uleb128 0x2
	.long	0x8a85
	.uleb128 0x1
	.long	0x1b48
	.uleb128 0x1
	.long	0x2f2
	.byte	0
	.uleb128 0x1a
	.long	.LASF306
	.byte	0x5
	.value	0x186
	.long	.LASF307
	.long	0x1e34
	.long	0x1e49
	.uleb128 0x2
	.long	0x8a85
	.uleb128 0x1
	.long	0x1b48
	.uleb128 0x1
	.long	0x1b48
	.uleb128 0x1
	.long	0x2f2
	.byte	0
	.uleb128 0x27
	.long	.LASF308
	.byte	0x5
	.value	0x190
	.long	.LASF309
	.long	0x1b48
	.long	0x1e61
	.long	0x1e71
	.uleb128 0x2
	.long	0x8a85
	.uleb128 0x1
	.long	0x1b48
	.uleb128 0x1
	.long	0x1b48
	.byte	0
	.uleb128 0x27
	.long	.LASF310
	.byte	0x5
	.value	0x198
	.long	.LASF311
	.long	0x7e9e
	.long	0x1e89
	.long	0x1e94
	.uleb128 0x2
	.long	0x8a85
	.uleb128 0x1
	.long	0x2f2
	.byte	0
	.uleb128 0x2c
	.long	.LASF312
	.byte	0x5
	.value	0x1a2
	.byte	0x7
	.long	.LASF313
	.long	0x1eb5
	.uleb128 0x1
	.long	0x6c96
	.uleb128 0x1
	.long	0x2f2
	.uleb128 0x1
	.long	0x1b48
	.byte	0
	.uleb128 0x2c
	.long	.LASF314
	.byte	0x5
	.value	0x1ac
	.byte	0x7
	.long	.LASF315
	.long	0x1ed6
	.uleb128 0x1
	.long	0x6c96
	.uleb128 0x1
	.long	0x2f2
	.uleb128 0x1
	.long	0x1b48
	.byte	0
	.uleb128 0x2c
	.long	.LASF316
	.byte	0x5
	.value	0x1b6
	.byte	0x7
	.long	.LASF317
	.long	0x1ef7
	.uleb128 0x1
	.long	0x6c96
	.uleb128 0x1
	.long	0x1b48
	.uleb128 0x1
	.long	0x111
	.byte	0
	.uleb128 0x2c
	.long	.LASF318
	.byte	0x5
	.value	0x1cb
	.byte	0x7
	.long	.LASF319
	.long	0x1f18
	.uleb128 0x1
	.long	0x6c96
	.uleb128 0x1
	.long	0x1f18
	.uleb128 0x1
	.long	0x1f18
	.byte	0
	.uleb128 0x14
	.long	.LASF320
	.byte	0x5
	.byte	0x84
	.byte	0x44
	.long	0x7537
	.byte	0x1
	.uleb128 0x2c
	.long	.LASF318
	.byte	0x5
	.value	0x1d0
	.byte	0x7
	.long	.LASF321
	.long	0x1f46
	.uleb128 0x1
	.long	0x6c96
	.uleb128 0x1
	.long	0x1f46
	.uleb128 0x1
	.long	0x1f46
	.byte	0
	.uleb128 0x14
	.long	.LASF167
	.byte	0x5
	.byte	0x86
	.byte	0x8
	.long	0x776a
	.byte	0x1
	.uleb128 0x2c
	.long	.LASF318
	.byte	0x5
	.value	0x1d6
	.byte	0x7
	.long	.LASF322
	.long	0x1f74
	.uleb128 0x1
	.long	0x6c96
	.uleb128 0x1
	.long	0x6c96
	.uleb128 0x1
	.long	0x6c96
	.byte	0
	.uleb128 0x2c
	.long	.LASF318
	.byte	0x5
	.value	0x1db
	.byte	0x7
	.long	.LASF323
	.long	0x1f95
	.uleb128 0x1
	.long	0x6c96
	.uleb128 0x1
	.long	0x2f2
	.uleb128 0x1
	.long	0x2f2
	.byte	0
	.uleb128 0xe
	.long	.LASF242
	.byte	0x5
	.value	0x1e1
	.byte	0x7
	.long	.LASF324
	.long	0x11d
	.long	0x1fb5
	.uleb128 0x1
	.long	0x1b48
	.uleb128 0x1
	.long	0x1b48
	.byte	0
	.uleb128 0x1a
	.long	.LASF325
	.byte	0x5
	.value	0x1ef
	.long	.LASF326
	.long	0x1fc9
	.long	0x1fd4
	.uleb128 0x2
	.long	0x8a7b
	.uleb128 0x1
	.long	0x8a9e
	.byte	0
	.uleb128 0x1a
	.long	.LASF327
	.byte	0x5
	.value	0x1f3
	.long	.LASF328
	.long	0x1fe8
	.long	0x2002
	.uleb128 0x2
	.long	0x8a7b
	.uleb128 0x1
	.long	0x1b48
	.uleb128 0x1
	.long	0x1b48
	.uleb128 0x1
	.long	0x2f2
	.uleb128 0x1
	.long	0x1b48
	.byte	0
	.uleb128 0x1a
	.long	.LASF329
	.byte	0x5
	.value	0x1f8
	.long	.LASF330
	.long	0x2016
	.long	0x2026
	.uleb128 0x2
	.long	0x8a7b
	.uleb128 0x1
	.long	0x1b48
	.uleb128 0x1
	.long	0x1b48
	.byte	0
	.uleb128 0xb
	.long	.LASF269
	.byte	0x5
	.value	0x203
	.byte	0x7
	.long	.LASF331
	.byte	0x1
	.long	0x203c
	.long	0x2042
	.uleb128 0x2
	.long	0x8a7b
	.byte	0
	.uleb128 0x3b
	.long	.LASF269
	.byte	0x5
	.value	0x210
	.long	.LASF332
	.long	0x2056
	.long	0x2061
	.uleb128 0x2
	.long	0x8a7b
	.uleb128 0x1
	.long	0x832a
	.byte	0
	.uleb128 0xb
	.long	.LASF269
	.byte	0x5
	.value	0x21c
	.byte	0x7
	.long	.LASF333
	.byte	0x1
	.long	0x2077
	.long	0x2082
	.uleb128 0x2
	.long	0x8a7b
	.uleb128 0x1
	.long	0x8a9e
	.byte	0
	.uleb128 0xb
	.long	.LASF269
	.byte	0x5
	.value	0x22d
	.byte	0x7
	.long	.LASF334
	.byte	0x1
	.long	0x2098
	.long	0x20ad
	.uleb128 0x2
	.long	0x8a7b
	.uleb128 0x1
	.long	0x8a9e
	.uleb128 0x1
	.long	0x1b48
	.uleb128 0x1
	.long	0x832a
	.byte	0
	.uleb128 0xb
	.long	.LASF269
	.byte	0x5
	.value	0x23e
	.byte	0x7
	.long	.LASF335
	.byte	0x1
	.long	0x20c3
	.long	0x20d8
	.uleb128 0x2
	.long	0x8a7b
	.uleb128 0x1
	.long	0x8a9e
	.uleb128 0x1
	.long	0x1b48
	.uleb128 0x1
	.long	0x1b48
	.byte	0
	.uleb128 0xb
	.long	.LASF269
	.byte	0x5
	.value	0x250
	.byte	0x7
	.long	.LASF336
	.byte	0x1
	.long	0x20ee
	.long	0x2108
	.uleb128 0x2
	.long	0x8a7b
	.uleb128 0x1
	.long	0x8a9e
	.uleb128 0x1
	.long	0x1b48
	.uleb128 0x1
	.long	0x1b48
	.uleb128 0x1
	.long	0x832a
	.byte	0
	.uleb128 0xb
	.long	.LASF269
	.byte	0x5
	.value	0x264
	.byte	0x7
	.long	.LASF337
	.byte	0x1
	.long	0x211e
	.long	0x2133
	.uleb128 0x2
	.long	0x8a7b
	.uleb128 0x1
	.long	0x2f2
	.uleb128 0x1
	.long	0x1b48
	.uleb128 0x1
	.long	0x832a
	.byte	0
	.uleb128 0xb
	.long	.LASF269
	.byte	0x5
	.value	0x29e
	.byte	0x7
	.long	.LASF338
	.byte	0x1
	.long	0x2149
	.long	0x2154
	.uleb128 0x2
	.long	0x8a7b
	.uleb128 0x1
	.long	0x8aa3
	.byte	0
	.uleb128 0xb
	.long	.LASF269
	.byte	0x5
	.value	0x2ba
	.byte	0x7
	.long	.LASF339
	.byte	0x1
	.long	0x216a
	.long	0x217a
	.uleb128 0x2
	.long	0x8a7b
	.uleb128 0x1
	.long	0x35cc
	.uleb128 0x1
	.long	0x832a
	.byte	0
	.uleb128 0xb
	.long	.LASF269
	.byte	0x5
	.value	0x2bf
	.byte	0x7
	.long	.LASF340
	.byte	0x1
	.long	0x2190
	.long	0x21a0
	.uleb128 0x2
	.long	0x8a7b
	.uleb128 0x1
	.long	0x8a9e
	.uleb128 0x1
	.long	0x832a
	.byte	0
	.uleb128 0xb
	.long	.LASF269
	.byte	0x5
	.value	0x2c4
	.byte	0x7
	.long	.LASF341
	.byte	0x1
	.long	0x21b6
	.long	0x21c6
	.uleb128 0x2
	.long	0x8a7b
	.uleb128 0x1
	.long	0x8aa3
	.uleb128 0x1
	.long	0x832a
	.byte	0
	.uleb128 0xb
	.long	.LASF342
	.byte	0x5
	.value	0x31a
	.byte	0x7
	.long	.LASF343
	.byte	0x1
	.long	0x21dc
	.long	0x21e7
	.uleb128 0x2
	.long	0x8a7b
	.uleb128 0x2
	.long	0x11d
	.byte	0
	.uleb128 0x3
	.long	.LASF82
	.byte	0x5
	.value	0x323
	.byte	0x7
	.long	.LASF344
	.long	0x8aa8
	.byte	0x1
	.long	0x2201
	.long	0x220c
	.uleb128 0x2
	.long	0x8a7b
	.uleb128 0x1
	.long	0x8a9e
	.byte	0
	.uleb128 0x3
	.long	.LASF82
	.byte	0x5
	.value	0x32e
	.byte	0x7
	.long	.LASF345
	.long	0x8aa8
	.byte	0x1
	.long	0x2226
	.long	0x2231
	.uleb128 0x2
	.long	0x8a7b
	.uleb128 0x1
	.long	0x2f2
	.byte	0
	.uleb128 0x3
	.long	.LASF82
	.byte	0x5
	.value	0x33a
	.byte	0x7
	.long	.LASF346
	.long	0x8aa8
	.byte	0x1
	.long	0x224b
	.long	0x2256
	.uleb128 0x2
	.long	0x8a7b
	.uleb128 0x1
	.long	0x111
	.byte	0
	.uleb128 0x3
	.long	.LASF82
	.byte	0x5
	.value	0x34c
	.byte	0x7
	.long	.LASF347
	.long	0x8aa8
	.byte	0x1
	.long	0x2270
	.long	0x227b
	.uleb128 0x2
	.long	0x8a7b
	.uleb128 0x1
	.long	0x8aa3
	.byte	0
	.uleb128 0x3
	.long	.LASF82
	.byte	0x5
	.value	0x391
	.byte	0x7
	.long	.LASF348
	.long	0x8aa8
	.byte	0x1
	.long	0x2295
	.long	0x22a0
	.uleb128 0x2
	.long	0x8a7b
	.uleb128 0x1
	.long	0x35cc
	.byte	0
	.uleb128 0x3
	.long	.LASF349
	.byte	0x5
	.value	0x3a8
	.byte	0x7
	.long	.LASF350
	.long	0x1b55
	.byte	0x1
	.long	0x22ba
	.long	0x22c0
	.uleb128 0x2
	.long	0x8a85
	.byte	0
	.uleb128 0x3
	.long	.LASF168
	.byte	0x5
	.value	0x3b3
	.byte	0x7
	.long	.LASF351
	.long	0x1f18
	.byte	0x1
	.long	0x22da
	.long	0x22e0
	.uleb128 0x2
	.long	0x8a7b
	.byte	0
	.uleb128 0x3
	.long	.LASF168
	.byte	0x5
	.value	0x3bc
	.byte	0x7
	.long	.LASF352
	.long	0x1f46
	.byte	0x1
	.long	0x22fa
	.long	0x2300
	.uleb128 0x2
	.long	0x8a85
	.byte	0
	.uleb128 0x32
	.string	"end"
	.byte	0x5
	.value	0x3c5
	.long	.LASF353
	.long	0x1f18
	.long	0x2318
	.long	0x231e
	.uleb128 0x2
	.long	0x8a7b
	.byte	0
	.uleb128 0x32
	.string	"end"
	.byte	0x5
	.value	0x3ce
	.long	.LASF354
	.long	0x1f46
	.long	0x2336
	.long	0x233c
	.uleb128 0x2
	.long	0x8a85
	.byte	0
	.uleb128 0x14
	.long	.LASF355
	.byte	0x5
	.byte	0x88
	.byte	0x30
	.long	0x36c1
	.byte	0x1
	.uleb128 0x3
	.long	.LASF175
	.byte	0x5
	.value	0x3d8
	.byte	0x7
	.long	.LASF356
	.long	0x233c
	.byte	0x1
	.long	0x2363
	.long	0x2369
	.uleb128 0x2
	.long	0x8a7b
	.byte	0
	.uleb128 0x14
	.long	.LASF174
	.byte	0x5
	.byte	0x87
	.byte	0x35
	.long	0x36c6
	.byte	0x1
	.uleb128 0x3
	.long	.LASF175
	.byte	0x5
	.value	0x3e2
	.byte	0x7
	.long	.LASF357
	.long	0x2369
	.byte	0x1
	.long	0x2390
	.long	0x2396
	.uleb128 0x2
	.long	0x8a85
	.byte	0
	.uleb128 0x3
	.long	.LASF177
	.byte	0x5
	.value	0x3ec
	.byte	0x7
	.long	.LASF358
	.long	0x233c
	.byte	0x1
	.long	0x23b0
	.long	0x23b6
	.uleb128 0x2
	.long	0x8a7b
	.byte	0
	.uleb128 0x3
	.long	.LASF177
	.byte	0x5
	.value	0x3f6
	.byte	0x7
	.long	.LASF359
	.long	0x2369
	.byte	0x1
	.long	0x23d0
	.long	0x23d6
	.uleb128 0x2
	.long	0x8a85
	.byte	0
	.uleb128 0x3
	.long	.LASF170
	.byte	0x5
	.value	0x400
	.byte	0x7
	.long	.LASF360
	.long	0x1f46
	.byte	0x1
	.long	0x23f0
	.long	0x23f6
	.uleb128 0x2
	.long	0x8a85
	.byte	0
	.uleb128 0x3
	.long	.LASF172
	.byte	0x5
	.value	0x409
	.byte	0x7
	.long	.LASF361
	.long	0x1f46
	.byte	0x1
	.long	0x2410
	.long	0x2416
	.uleb128 0x2
	.long	0x8a85
	.byte	0
	.uleb128 0x3
	.long	.LASF179
	.byte	0x5
	.value	0x413
	.byte	0x7
	.long	.LASF362
	.long	0x2369
	.byte	0x1
	.long	0x2430
	.long	0x2436
	.uleb128 0x2
	.long	0x8a85
	.byte	0
	.uleb128 0x3
	.long	.LASF181
	.byte	0x5
	.value	0x41d
	.byte	0x7
	.long	.LASF363
	.long	0x2369
	.byte	0x1
	.long	0x2450
	.long	0x2456
	.uleb128 0x2
	.long	0x8a85
	.byte	0
	.uleb128 0x3
	.long	.LASF183
	.byte	0x5
	.value	0x427
	.byte	0x7
	.long	.LASF364
	.long	0x1b48
	.byte	0x1
	.long	0x2470
	.long	0x2476
	.uleb128 0x2
	.long	0x8a85
	.byte	0
	.uleb128 0x3
	.long	.LASF99
	.byte	0x5
	.value	0x42e
	.byte	0x7
	.long	.LASF365
	.long	0x1b48
	.byte	0x1
	.long	0x2490
	.long	0x2496
	.uleb128 0x2
	.long	0x8a85
	.byte	0
	.uleb128 0x3
	.long	.LASF140
	.byte	0x5
	.value	0x434
	.byte	0x7
	.long	.LASF366
	.long	0x1b48
	.byte	0x1
	.long	0x24b0
	.long	0x24b6
	.uleb128 0x2
	.long	0x8a85
	.byte	0
	.uleb128 0xb
	.long	.LASF367
	.byte	0x5
	.value	0x443
	.byte	0x7
	.long	.LASF368
	.byte	0x1
	.long	0x24cc
	.long	0x24dc
	.uleb128 0x2
	.long	0x8a7b
	.uleb128 0x1
	.long	0x1b48
	.uleb128 0x1
	.long	0x111
	.byte	0
	.uleb128 0xb
	.long	.LASF367
	.byte	0x5
	.value	0x451
	.byte	0x7
	.long	.LASF369
	.byte	0x1
	.long	0x24f2
	.long	0x24fd
	.uleb128 0x2
	.long	0x8a7b
	.uleb128 0x1
	.long	0x1b48
	.byte	0
	.uleb128 0xb
	.long	.LASF370
	.byte	0x5
	.value	0x45a
	.byte	0x7
	.long	.LASF371
	.byte	0x1
	.long	0x2513
	.long	0x2519
	.uleb128 0x2
	.long	0x8a7b
	.byte	0
	.uleb128 0x3
	.long	.LASF372
	.byte	0x5
	.value	0x46c
	.byte	0x7
	.long	.LASF373
	.long	0x1b48
	.byte	0x1
	.long	0x2533
	.long	0x2539
	.uleb128 0x2
	.long	0x8a85
	.byte	0
	.uleb128 0xb
	.long	.LASF374
	.byte	0x5
	.value	0x485
	.byte	0x7
	.long	.LASF375
	.byte	0x1
	.long	0x254f
	.long	0x255a
	.uleb128 0x2
	.long	0x8a7b
	.uleb128 0x1
	.long	0x1b48
	.byte	0
	.uleb128 0xb
	.long	.LASF374
	.byte	0x5
	.value	0x48f
	.byte	0x7
	.long	.LASF376
	.byte	0x1
	.long	0x2570
	.long	0x2576
	.uleb128 0x2
	.long	0x8a7b
	.byte	0
	.uleb128 0xb
	.long	.LASF377
	.byte	0x5
	.value	0x496
	.byte	0x7
	.long	.LASF378
	.byte	0x1
	.long	0x258c
	.long	0x2592
	.uleb128 0x2
	.long	0x8a7b
	.byte	0
	.uleb128 0x3
	.long	.LASF187
	.byte	0x5
	.value	0x49f
	.byte	0x7
	.long	.LASF379
	.long	0x7e9e
	.byte	0x1
	.long	0x25ac
	.long	0x25b2
	.uleb128 0x2
	.long	0x8a85
	.byte	0
	.uleb128 0x14
	.long	.LASF134
	.byte	0x5
	.byte	0x81
	.byte	0x37
	.long	0x74fe
	.byte	0x1
	.uleb128 0x3
	.long	.LASF189
	.byte	0x5
	.value	0x4af
	.byte	0x7
	.long	.LASF380
	.long	0x25b2
	.byte	0x1
	.long	0x25d9
	.long	0x25e4
	.uleb128 0x2
	.long	0x8a85
	.uleb128 0x1
	.long	0x1b48
	.byte	0
	.uleb128 0x14
	.long	.LASF131
	.byte	0x5
	.byte	0x80
	.byte	0x32
	.long	0x74f2
	.byte	0x1
	.uleb128 0x3
	.long	.LASF189
	.byte	0x5
	.value	0x4c1
	.byte	0x7
	.long	.LASF381
	.long	0x25e4
	.byte	0x1
	.long	0x260b
	.long	0x2616
	.uleb128 0x2
	.long	0x8a7b
	.uleb128 0x1
	.long	0x1b48
	.byte	0
	.uleb128 0x32
	.string	"at"
	.byte	0x5
	.value	0x4d7
	.long	.LASF382
	.long	0x25b2
	.long	0x262d
	.long	0x2638
	.uleb128 0x2
	.long	0x8a85
	.uleb128 0x1
	.long	0x1b48
	.byte	0
	.uleb128 0x32
	.string	"at"
	.byte	0x5
	.value	0x4ed
	.long	.LASF383
	.long	0x25e4
	.long	0x264f
	.long	0x265a
	.uleb128 0x2
	.long	0x8a7b
	.uleb128 0x1
	.long	0x1b48
	.byte	0
	.uleb128 0x3
	.long	.LASF193
	.byte	0x5
	.value	0x4fe
	.byte	0x7
	.long	.LASF384
	.long	0x25e4
	.byte	0x1
	.long	0x2674
	.long	0x267a
	.uleb128 0x2
	.long	0x8a7b
	.byte	0
	.uleb128 0x3
	.long	.LASF193
	.byte	0x5
	.value	0x50a
	.byte	0x7
	.long	.LASF385
	.long	0x25b2
	.byte	0x1
	.long	0x2694
	.long	0x269a
	.uleb128 0x2
	.long	0x8a85
	.byte	0
	.uleb128 0x3
	.long	.LASF195
	.byte	0x5
	.value	0x516
	.byte	0x7
	.long	.LASF386
	.long	0x25e4
	.byte	0x1
	.long	0x26b4
	.long	0x26ba
	.uleb128 0x2
	.long	0x8a7b
	.byte	0
	.uleb128 0x3
	.long	.LASF195
	.byte	0x5
	.value	0x522
	.byte	0x7
	.long	.LASF387
	.long	0x25b2
	.byte	0x1
	.long	0x26d4
	.long	0x26da
	.uleb128 0x2
	.long	0x8a85
	.byte	0
	.uleb128 0x3
	.long	.LASF388
	.byte	0x5
	.value	0x531
	.byte	0x7
	.long	.LASF389
	.long	0x8aa8
	.byte	0x1
	.long	0x26f4
	.long	0x26ff
	.uleb128 0x2
	.long	0x8a7b
	.uleb128 0x1
	.long	0x8a9e
	.byte	0
	.uleb128 0x3
	.long	.LASF388
	.byte	0x5
	.value	0x53b
	.byte	0x7
	.long	.LASF390
	.long	0x8aa8
	.byte	0x1
	.long	0x2719
	.long	0x2724
	.uleb128 0x2
	.long	0x8a7b
	.uleb128 0x1
	.long	0x2f2
	.byte	0
	.uleb128 0x3
	.long	.LASF388
	.byte	0x5
	.value	0x545
	.byte	0x7
	.long	.LASF391
	.long	0x8aa8
	.byte	0x1
	.long	0x273e
	.long	0x2749
	.uleb128 0x2
	.long	0x8a7b
	.uleb128 0x1
	.long	0x111
	.byte	0
	.uleb128 0x3
	.long	.LASF388
	.byte	0x5
	.value	0x553
	.byte	0x7
	.long	.LASF392
	.long	0x8aa8
	.byte	0x1
	.long	0x2763
	.long	0x276e
	.uleb128 0x2
	.long	0x8a7b
	.uleb128 0x1
	.long	0x35cc
	.byte	0
	.uleb128 0x3
	.long	.LASF393
	.byte	0x5
	.value	0x56b
	.byte	0x7
	.long	.LASF394
	.long	0x8aa8
	.byte	0x1
	.long	0x2788
	.long	0x2793
	.uleb128 0x2
	.long	0x8a7b
	.uleb128 0x1
	.long	0x8a9e
	.byte	0
	.uleb128 0x3
	.long	.LASF393
	.byte	0x5
	.value	0x57d
	.byte	0x7
	.long	.LASF395
	.long	0x8aa8
	.byte	0x1
	.long	0x27ad
	.long	0x27c2
	.uleb128 0x2
	.long	0x8a7b
	.uleb128 0x1
	.long	0x8a9e
	.uleb128 0x1
	.long	0x1b48
	.uleb128 0x1
	.long	0x1b48
	.byte	0
	.uleb128 0x3
	.long	.LASF393
	.byte	0x5
	.value	0x58a
	.byte	0x7
	.long	.LASF396
	.long	0x8aa8
	.byte	0x1
	.long	0x27dc
	.long	0x27ec
	.uleb128 0x2
	.long	0x8a7b
	.uleb128 0x1
	.long	0x2f2
	.uleb128 0x1
	.long	0x1b48
	.byte	0
	.uleb128 0x3
	.long	.LASF393
	.byte	0x5
	.value	0x598
	.byte	0x7
	.long	.LASF397
	.long	0x8aa8
	.byte	0x1
	.long	0x2806
	.long	0x2811
	.uleb128 0x2
	.long	0x8a7b
	.uleb128 0x1
	.long	0x2f2
	.byte	0
	.uleb128 0x3
	.long	.LASF393
	.byte	0x5
	.value	0x5aa
	.byte	0x7
	.long	.LASF398
	.long	0x8aa8
	.byte	0x1
	.long	0x282b
	.long	0x283b
	.uleb128 0x2
	.long	0x8a7b
	.uleb128 0x1
	.long	0x1b48
	.uleb128 0x1
	.long	0x111
	.byte	0
	.uleb128 0x3
	.long	.LASF393
	.byte	0x5
	.value	0x5b5
	.byte	0x7
	.long	.LASF399
	.long	0x8aa8
	.byte	0x1
	.long	0x2855
	.long	0x2860
	.uleb128 0x2
	.long	0x8a7b
	.uleb128 0x1
	.long	0x35cc
	.byte	0
	.uleb128 0xb
	.long	.LASF400
	.byte	0x5
	.value	0x5f4
	.byte	0x7
	.long	.LASF401
	.byte	0x1
	.long	0x2876
	.long	0x2881
	.uleb128 0x2
	.long	0x8a7b
	.uleb128 0x1
	.long	0x111
	.byte	0
	.uleb128 0x3
	.long	.LASF108
	.byte	0x5
	.value	0x604
	.byte	0x7
	.long	.LASF402
	.long	0x8aa8
	.byte	0x1
	.long	0x289b
	.long	0x28a6
	.uleb128 0x2
	.long	0x8a7b
	.uleb128 0x1
	.long	0x8a9e
	.byte	0
	.uleb128 0x3
	.long	.LASF108
	.byte	0x5
	.value	0x632
	.byte	0x7
	.long	.LASF403
	.long	0x8aa8
	.byte	0x1
	.long	0x28c0
	.long	0x28cb
	.uleb128 0x2
	.long	0x8a7b
	.uleb128 0x1
	.long	0x8aa3
	.byte	0
	.uleb128 0x3
	.long	.LASF108
	.byte	0x5
	.value	0x64a
	.byte	0x7
	.long	.LASF404
	.long	0x8aa8
	.byte	0x1
	.long	0x28e5
	.long	0x28fa
	.uleb128 0x2
	.long	0x8a7b
	.uleb128 0x1
	.long	0x8a9e
	.uleb128 0x1
	.long	0x1b48
	.uleb128 0x1
	.long	0x1b48
	.byte	0
	.uleb128 0x3
	.long	.LASF108
	.byte	0x5
	.value	0x65b
	.byte	0x7
	.long	.LASF405
	.long	0x8aa8
	.byte	0x1
	.long	0x2914
	.long	0x2924
	.uleb128 0x2
	.long	0x8a7b
	.uleb128 0x1
	.long	0x2f2
	.uleb128 0x1
	.long	0x1b48
	.byte	0
	.uleb128 0x3
	.long	.LASF108
	.byte	0x5
	.value	0x66c
	.byte	0x7
	.long	.LASF406
	.long	0x8aa8
	.byte	0x1
	.long	0x293e
	.long	0x2949
	.uleb128 0x2
	.long	0x8a7b
	.uleb128 0x1
	.long	0x2f2
	.byte	0
	.uleb128 0x3
	.long	.LASF108
	.byte	0x5
	.value	0x67e
	.byte	0x7
	.long	.LASF407
	.long	0x8aa8
	.byte	0x1
	.long	0x2963
	.long	0x2973
	.uleb128 0x2
	.long	0x8a7b
	.uleb128 0x1
	.long	0x1b48
	.uleb128 0x1
	.long	0x111
	.byte	0
	.uleb128 0x3
	.long	.LASF108
	.byte	0x5
	.value	0x69c
	.byte	0x7
	.long	.LASF408
	.long	0x8aa8
	.byte	0x1
	.long	0x298d
	.long	0x2998
	.uleb128 0x2
	.long	0x8a7b
	.uleb128 0x1
	.long	0x35cc
	.byte	0
	.uleb128 0x3
	.long	.LASF409
	.byte	0x5
	.value	0x6d5
	.byte	0x7
	.long	.LASF410
	.long	0x1f18
	.byte	0x1
	.long	0x29b2
	.long	0x29c7
	.uleb128 0x2
	.long	0x8a7b
	.uleb128 0x1
	.long	0x1f46
	.uleb128 0x1
	.long	0x1b48
	.uleb128 0x1
	.long	0x111
	.byte	0
	.uleb128 0x3
	.long	.LASF409
	.byte	0x5
	.value	0x725
	.byte	0x7
	.long	.LASF411
	.long	0x1f18
	.byte	0x1
	.long	0x29e1
	.long	0x29f1
	.uleb128 0x2
	.long	0x8a7b
	.uleb128 0x1
	.long	0x1f46
	.uleb128 0x1
	.long	0x35cc
	.byte	0
	.uleb128 0x3
	.long	.LASF409
	.byte	0x5
	.value	0x741
	.byte	0x7
	.long	.LASF412
	.long	0x8aa8
	.byte	0x1
	.long	0x2a0b
	.long	0x2a1b
	.uleb128 0x2
	.long	0x8a7b
	.uleb128 0x1
	.long	0x1b48
	.uleb128 0x1
	.long	0x8a9e
	.byte	0
	.uleb128 0x3
	.long	.LASF409
	.byte	0x5
	.value	0x759
	.byte	0x7
	.long	.LASF413
	.long	0x8aa8
	.byte	0x1
	.long	0x2a35
	.long	0x2a4f
	.uleb128 0x2
	.long	0x8a7b
	.uleb128 0x1
	.long	0x1b48
	.uleb128 0x1
	.long	0x8a9e
	.uleb128 0x1
	.long	0x1b48
	.uleb128 0x1
	.long	0x1b48
	.byte	0
	.uleb128 0x3
	.long	.LASF409
	.byte	0x5
	.value	0x771
	.byte	0x7
	.long	.LASF414
	.long	0x8aa8
	.byte	0x1
	.long	0x2a69
	.long	0x2a7e
	.uleb128 0x2
	.long	0x8a7b
	.uleb128 0x1
	.long	0x1b48
	.uleb128 0x1
	.long	0x2f2
	.uleb128 0x1
	.long	0x1b48
	.byte	0
	.uleb128 0x3
	.long	.LASF409
	.byte	0x5
	.value	0x785
	.byte	0x7
	.long	.LASF415
	.long	0x8aa8
	.byte	0x1
	.long	0x2a98
	.long	0x2aa8
	.uleb128 0x2
	.long	0x8a7b
	.uleb128 0x1
	.long	0x1b48
	.uleb128 0x1
	.long	0x2f2
	.byte	0
	.uleb128 0x3
	.long	.LASF409
	.byte	0x5
	.value	0x79e
	.byte	0x7
	.long	.LASF416
	.long	0x8aa8
	.byte	0x1
	.long	0x2ac2
	.long	0x2ad7
	.uleb128 0x2
	.long	0x8a7b
	.uleb128 0x1
	.long	0x1b48
	.uleb128 0x1
	.long	0x1b48
	.uleb128 0x1
	.long	0x111
	.byte	0
	.uleb128 0x3
	.long	.LASF409
	.byte	0x5
	.value	0x7b1
	.byte	0x7
	.long	.LASF417
	.long	0x1f18
	.byte	0x1
	.long	0x2af1
	.long	0x2b01
	.uleb128 0x2
	.long	0x8a7b
	.uleb128 0x1
	.long	0x2b01
	.uleb128 0x1
	.long	0x111
	.byte	0
	.uleb128 0x14
	.long	.LASF418
	.byte	0x5
	.byte	0x92
	.byte	0x1e
	.long	0x1f46
	.byte	0x2
	.uleb128 0x3
	.long	.LASF419
	.byte	0x5
	.value	0x7f0
	.byte	0x7
	.long	.LASF420
	.long	0x8aa8
	.byte	0x1
	.long	0x2b28
	.long	0x2b38
	.uleb128 0x2
	.long	0x8a7b
	.uleb128 0x1
	.long	0x1b48
	.uleb128 0x1
	.long	0x1b48
	.byte	0
	.uleb128 0x3
	.long	.LASF419
	.byte	0x5
	.value	0x804
	.byte	0x7
	.long	.LASF421
	.long	0x1f18
	.byte	0x1
	.long	0x2b52
	.long	0x2b5d
	.uleb128 0x2
	.long	0x8a7b
	.uleb128 0x1
	.long	0x2b01
	.byte	0
	.uleb128 0x3
	.long	.LASF419
	.byte	0x5
	.value	0x818
	.byte	0x7
	.long	.LASF422
	.long	0x1f18
	.byte	0x1
	.long	0x2b77
	.long	0x2b87
	.uleb128 0x2
	.long	0x8a7b
	.uleb128 0x1
	.long	0x2b01
	.uleb128 0x1
	.long	0x2b01
	.byte	0
	.uleb128 0xb
	.long	.LASF423
	.byte	0x5
	.value	0x82c
	.byte	0x7
	.long	.LASF424
	.byte	0x1
	.long	0x2b9d
	.long	0x2ba3
	.uleb128 0x2
	.long	0x8a7b
	.byte	0
	.uleb128 0x3
	.long	.LASF425
	.byte	0x5
	.value	0x846
	.byte	0x7
	.long	.LASF426
	.long	0x8aa8
	.byte	0x1
	.long	0x2bbd
	.long	0x2bd2
	.uleb128 0x2
	.long	0x8a7b
	.uleb128 0x1
	.long	0x1b48
	.uleb128 0x1
	.long	0x1b48
	.uleb128 0x1
	.long	0x8a9e
	.byte	0
	.uleb128 0x3
	.long	.LASF425
	.byte	0x5
	.value	0x85d
	.byte	0x7
	.long	.LASF427
	.long	0x8aa8
	.byte	0x1
	.long	0x2bec
	.long	0x2c0b
	.uleb128 0x2
	.long	0x8a7b
	.uleb128 0x1
	.long	0x1b48
	.uleb128 0x1
	.long	0x1b48
	.uleb128 0x1
	.long	0x8a9e
	.uleb128 0x1
	.long	0x1b48
	.uleb128 0x1
	.long	0x1b48
	.byte	0
	.uleb128 0x3
	.long	.LASF425
	.byte	0x5
	.value	0x877
	.byte	0x7
	.long	.LASF428
	.long	0x8aa8
	.byte	0x1
	.long	0x2c25
	.long	0x2c3f
	.uleb128 0x2
	.long	0x8a7b
	.uleb128 0x1
	.long	0x1b48
	.uleb128 0x1
	.long	0x1b48
	.uleb128 0x1
	.long	0x2f2
	.uleb128 0x1
	.long	0x1b48
	.byte	0
	.uleb128 0x3
	.long	.LASF425
	.byte	0x5
	.value	0x891
	.byte	0x7
	.long	.LASF429
	.long	0x8aa8
	.byte	0x1
	.long	0x2c59
	.long	0x2c6e
	.uleb128 0x2
	.long	0x8a7b
	.uleb128 0x1
	.long	0x1b48
	.uleb128 0x1
	.long	0x1b48
	.uleb128 0x1
	.long	0x2f2
	.byte	0
	.uleb128 0x3
	.long	.LASF425
	.byte	0x5
	.value	0x8aa
	.byte	0x7
	.long	.LASF430
	.long	0x8aa8
	.byte	0x1
	.long	0x2c88
	.long	0x2ca2
	.uleb128 0x2
	.long	0x8a7b
	.uleb128 0x1
	.long	0x1b48
	.uleb128 0x1
	.long	0x1b48
	.uleb128 0x1
	.long	0x1b48
	.uleb128 0x1
	.long	0x111
	.byte	0
	.uleb128 0x3
	.long	.LASF425
	.byte	0x5
	.value	0x8bd
	.byte	0x7
	.long	.LASF431
	.long	0x8aa8
	.byte	0x1
	.long	0x2cbc
	.long	0x2cd1
	.uleb128 0x2
	.long	0x8a7b
	.uleb128 0x1
	.long	0x2b01
	.uleb128 0x1
	.long	0x2b01
	.uleb128 0x1
	.long	0x8a9e
	.byte	0
	.uleb128 0x3
	.long	.LASF425
	.byte	0x5
	.value	0x8d2
	.byte	0x7
	.long	.LASF432
	.long	0x8aa8
	.byte	0x1
	.long	0x2ceb
	.long	0x2d05
	.uleb128 0x2
	.long	0x8a7b
	.uleb128 0x1
	.long	0x2b01
	.uleb128 0x1
	.long	0x2b01
	.uleb128 0x1
	.long	0x2f2
	.uleb128 0x1
	.long	0x1b48
	.byte	0
	.uleb128 0x3
	.long	.LASF425
	.byte	0x5
	.value	0x8e9
	.byte	0x7
	.long	.LASF433
	.long	0x8aa8
	.byte	0x1
	.long	0x2d1f
	.long	0x2d34
	.uleb128 0x2
	.long	0x8a7b
	.uleb128 0x1
	.long	0x2b01
	.uleb128 0x1
	.long	0x2b01
	.uleb128 0x1
	.long	0x2f2
	.byte	0
	.uleb128 0x3
	.long	.LASF425
	.byte	0x5
	.value	0x8ff
	.byte	0x7
	.long	.LASF434
	.long	0x8aa8
	.byte	0x1
	.long	0x2d4e
	.long	0x2d68
	.uleb128 0x2
	.long	0x8a7b
	.uleb128 0x1
	.long	0x2b01
	.uleb128 0x1
	.long	0x2b01
	.uleb128 0x1
	.long	0x1b48
	.uleb128 0x1
	.long	0x111
	.byte	0
	.uleb128 0x3
	.long	.LASF425
	.byte	0x5
	.value	0x93a
	.byte	0x7
	.long	.LASF435
	.long	0x8aa8
	.byte	0x1
	.long	0x2d82
	.long	0x2d9c
	.uleb128 0x2
	.long	0x8a7b
	.uleb128 0x1
	.long	0x2b01
	.uleb128 0x1
	.long	0x2b01
	.uleb128 0x1
	.long	0x6c96
	.uleb128 0x1
	.long	0x6c96
	.byte	0
	.uleb128 0x3
	.long	.LASF425
	.byte	0x5
	.value	0x946
	.byte	0x7
	.long	.LASF436
	.long	0x8aa8
	.byte	0x1
	.long	0x2db6
	.long	0x2dd0
	.uleb128 0x2
	.long	0x8a7b
	.uleb128 0x1
	.long	0x2b01
	.uleb128 0x1
	.long	0x2b01
	.uleb128 0x1
	.long	0x2f2
	.uleb128 0x1
	.long	0x2f2
	.byte	0
	.uleb128 0x3
	.long	.LASF425
	.byte	0x5
	.value	0x952
	.byte	0x7
	.long	.LASF437
	.long	0x8aa8
	.byte	0x1
	.long	0x2dea
	.long	0x2e04
	.uleb128 0x2
	.long	0x8a7b
	.uleb128 0x1
	.long	0x2b01
	.uleb128 0x1
	.long	0x2b01
	.uleb128 0x1
	.long	0x1f18
	.uleb128 0x1
	.long	0x1f18
	.byte	0
	.uleb128 0x3
	.long	.LASF425
	.byte	0x5
	.value	0x95e
	.byte	0x7
	.long	.LASF438
	.long	0x8aa8
	.byte	0x1
	.long	0x2e1e
	.long	0x2e38
	.uleb128 0x2
	.long	0x8a7b
	.uleb128 0x1
	.long	0x2b01
	.uleb128 0x1
	.long	0x2b01
	.uleb128 0x1
	.long	0x1f46
	.uleb128 0x1
	.long	0x1f46
	.byte	0
	.uleb128 0x3
	.long	.LASF425
	.byte	0x5
	.value	0x978
	.byte	0x15
	.long	.LASF439
	.long	0x8aa8
	.byte	0x1
	.long	0x2e52
	.long	0x2e67
	.uleb128 0x2
	.long	0x8a7b
	.uleb128 0x1
	.long	0x1f46
	.uleb128 0x1
	.long	0x1f46
	.uleb128 0x1
	.long	0x35cc
	.byte	0
	.uleb128 0x27
	.long	.LASF440
	.byte	0x5
	.value	0x9c8
	.long	.LASF441
	.long	0x8aa8
	.long	0x2e7f
	.long	0x2e99
	.uleb128 0x2
	.long	0x8a7b
	.uleb128 0x1
	.long	0x1b48
	.uleb128 0x1
	.long	0x1b48
	.uleb128 0x1
	.long	0x1b48
	.uleb128 0x1
	.long	0x111
	.byte	0
	.uleb128 0x27
	.long	.LASF442
	.byte	0x5
	.value	0x9cd
	.long	.LASF443
	.long	0x8aa8
	.long	0x2eb1
	.long	0x2ecb
	.uleb128 0x2
	.long	0x8a7b
	.uleb128 0x1
	.long	0x1b48
	.uleb128 0x1
	.long	0x1b48
	.uleb128 0x1
	.long	0x2f2
	.uleb128 0x1
	.long	0x1b48
	.byte	0
	.uleb128 0x27
	.long	.LASF444
	.byte	0x5
	.value	0x9d2
	.long	.LASF445
	.long	0x8aa8
	.long	0x2ee3
	.long	0x2ef3
	.uleb128 0x2
	.long	0x8a7b
	.uleb128 0x1
	.long	0x2f2
	.uleb128 0x1
	.long	0x1b48
	.byte	0
	.uleb128 0x3
	.long	.LASF106
	.byte	0x5
	.value	0x9e4
	.byte	0x7
	.long	.LASF446
	.long	0x1b48
	.byte	0x1
	.long	0x2f0d
	.long	0x2f22
	.uleb128 0x2
	.long	0x8a85
	.uleb128 0x1
	.long	0x6c96
	.uleb128 0x1
	.long	0x1b48
	.uleb128 0x1
	.long	0x1b48
	.byte	0
	.uleb128 0xb
	.long	.LASF87
	.byte	0x5
	.value	0x9ef
	.byte	0x7
	.long	.LASF447
	.byte	0x1
	.long	0x2f38
	.long	0x2f43
	.uleb128 0x2
	.long	0x8a7b
	.uleb128 0x1
	.long	0x8aa8
	.byte	0
	.uleb128 0x3
	.long	.LASF448
	.byte	0x5
	.value	0x9fa
	.byte	0x7
	.long	.LASF449
	.long	0x2f2
	.byte	0x1
	.long	0x2f5d
	.long	0x2f63
	.uleb128 0x2
	.long	0x8a85
	.byte	0
	.uleb128 0x3
	.long	.LASF196
	.byte	0x5
	.value	0xa07
	.byte	0x7
	.long	.LASF450
	.long	0x2f2
	.byte	0x1
	.long	0x2f7d
	.long	0x2f83
	.uleb128 0x2
	.long	0x8a85
	.byte	0
	.uleb128 0x3
	.long	.LASF196
	.byte	0x5
	.value	0xa13
	.byte	0x7
	.long	.LASF451
	.long	0x6c96
	.byte	0x1
	.long	0x2f9d
	.long	0x2fa3
	.uleb128 0x2
	.long	0x8a7b
	.byte	0
	.uleb128 0x3
	.long	.LASF452
	.byte	0x5
	.value	0xa1c
	.byte	0x7
	.long	.LASF453
	.long	0x1d80
	.byte	0x1
	.long	0x2fbd
	.long	0x2fc3
	.uleb128 0x2
	.long	0x8a85
	.byte	0
	.uleb128 0x3
	.long	.LASF102
	.byte	0x5
	.value	0xa2d
	.byte	0x7
	.long	.LASF454
	.long	0x1b48
	.byte	0x1
	.long	0x2fdd
	.long	0x2ff2
	.uleb128 0x2
	.long	0x8a85
	.uleb128 0x1
	.long	0x2f2
	.uleb128 0x1
	.long	0x1b48
	.uleb128 0x1
	.long	0x1b48
	.byte	0
	.uleb128 0x3
	.long	.LASF102
	.byte	0x5
	.value	0xa3c
	.byte	0x7
	.long	.LASF455
	.long	0x1b48
	.byte	0x1
	.long	0x300c
	.long	0x301c
	.uleb128 0x2
	.long	0x8a85
	.uleb128 0x1
	.long	0x8a9e
	.uleb128 0x1
	.long	0x1b48
	.byte	0
	.uleb128 0x3
	.long	.LASF102
	.byte	0x5
	.value	0xa5e
	.byte	0x7
	.long	.LASF456
	.long	0x1b48
	.byte	0x1
	.long	0x3036
	.long	0x3046
	.uleb128 0x2
	.long	0x8a85
	.uleb128 0x1
	.long	0x2f2
	.uleb128 0x1
	.long	0x1b48
	.byte	0
	.uleb128 0x3
	.long	.LASF102
	.byte	0x5
	.value	0xa70
	.byte	0x7
	.long	.LASF457
	.long	0x1b48
	.byte	0x1
	.long	0x3060
	.long	0x3070
	.uleb128 0x2
	.long	0x8a85
	.uleb128 0x1
	.long	0x111
	.uleb128 0x1
	.long	0x1b48
	.byte	0
	.uleb128 0x3
	.long	.LASF217
	.byte	0x5
	.value	0xa7e
	.byte	0x7
	.long	.LASF458
	.long	0x1b48
	.byte	0x1
	.long	0x308a
	.long	0x309a
	.uleb128 0x2
	.long	0x8a85
	.uleb128 0x1
	.long	0x8a9e
	.uleb128 0x1
	.long	0x1b48
	.byte	0
	.uleb128 0x3
	.long	.LASF217
	.byte	0x5
	.value	0xaa2
	.byte	0x7
	.long	.LASF459
	.long	0x1b48
	.byte	0x1
	.long	0x30b4
	.long	0x30c9
	.uleb128 0x2
	.long	0x8a85
	.uleb128 0x1
	.long	0x2f2
	.uleb128 0x1
	.long	0x1b48
	.uleb128 0x1
	.long	0x1b48
	.byte	0
	.uleb128 0x3
	.long	.LASF217
	.byte	0x5
	.value	0xab1
	.byte	0x7
	.long	.LASF460
	.long	0x1b48
	.byte	0x1
	.long	0x30e3
	.long	0x30f3
	.uleb128 0x2
	.long	0x8a85
	.uleb128 0x1
	.long	0x2f2
	.uleb128 0x1
	.long	0x1b48
	.byte	0
	.uleb128 0x3
	.long	.LASF217
	.byte	0x5
	.value	0xac3
	.byte	0x7
	.long	.LASF461
	.long	0x1b48
	.byte	0x1
	.long	0x310d
	.long	0x311d
	.uleb128 0x2
	.long	0x8a85
	.uleb128 0x1
	.long	0x111
	.uleb128 0x1
	.long	0x1b48
	.byte	0
	.uleb128 0x3
	.long	.LASF222
	.byte	0x5
	.value	0xad2
	.byte	0x7
	.long	.LASF462
	.long	0x1b48
	.byte	0x1
	.long	0x3137
	.long	0x3147
	.uleb128 0x2
	.long	0x8a85
	.uleb128 0x1
	.long	0x8a9e
	.uleb128 0x1
	.long	0x1b48
	.byte	0
	.uleb128 0x3
	.long	.LASF222
	.byte	0x5
	.value	0xaf7
	.byte	0x7
	.long	.LASF463
	.long	0x1b48
	.byte	0x1
	.long	0x3161
	.long	0x3176
	.uleb128 0x2
	.long	0x8a85
	.uleb128 0x1
	.long	0x2f2
	.uleb128 0x1
	.long	0x1b48
	.uleb128 0x1
	.long	0x1b48
	.byte	0
	.uleb128 0x3
	.long	.LASF222
	.byte	0x5
	.value	0xb06
	.byte	0x7
	.long	.LASF464
	.long	0x1b48
	.byte	0x1
	.long	0x3190
	.long	0x31a0
	.uleb128 0x2
	.long	0x8a85
	.uleb128 0x1
	.long	0x2f2
	.uleb128 0x1
	.long	0x1b48
	.byte	0
	.uleb128 0x3
	.long	.LASF222
	.byte	0x5
	.value	0xb1b
	.byte	0x7
	.long	.LASF465
	.long	0x1b48
	.byte	0x1
	.long	0x31ba
	.long	0x31ca
	.uleb128 0x2
	.long	0x8a85
	.uleb128 0x1
	.long	0x111
	.uleb128 0x1
	.long	0x1b48
	.byte	0
	.uleb128 0x3
	.long	.LASF227
	.byte	0x5
	.value	0xb2b
	.byte	0x7
	.long	.LASF466
	.long	0x1b48
	.byte	0x1
	.long	0x31e4
	.long	0x31f4
	.uleb128 0x2
	.long	0x8a85
	.uleb128 0x1
	.long	0x8a9e
	.uleb128 0x1
	.long	0x1b48
	.byte	0
	.uleb128 0x3
	.long	.LASF227
	.byte	0x5
	.value	0xb50
	.byte	0x7
	.long	.LASF467
	.long	0x1b48
	.byte	0x1
	.long	0x320e
	.long	0x3223
	.uleb128 0x2
	.long	0x8a85
	.uleb128 0x1
	.long	0x2f2
	.uleb128 0x1
	.long	0x1b48
	.uleb128 0x1
	.long	0x1b48
	.byte	0
	.uleb128 0x3
	.long	.LASF227
	.byte	0x5
	.value	0xb5f
	.byte	0x7
	.long	.LASF468
	.long	0x1b48
	.byte	0x1
	.long	0x323d
	.long	0x324d
	.uleb128 0x2
	.long	0x8a85
	.uleb128 0x1
	.long	0x2f2
	.uleb128 0x1
	.long	0x1b48
	.byte	0
	.uleb128 0x3
	.long	.LASF227
	.byte	0x5
	.value	0xb74
	.byte	0x7
	.long	.LASF469
	.long	0x1b48
	.byte	0x1
	.long	0x3267
	.long	0x3277
	.uleb128 0x2
	.long	0x8a85
	.uleb128 0x1
	.long	0x111
	.uleb128 0x1
	.long	0x1b48
	.byte	0
	.uleb128 0x3
	.long	.LASF232
	.byte	0x5
	.value	0xb83
	.byte	0x7
	.long	.LASF470
	.long	0x1b48
	.byte	0x1
	.long	0x3291
	.long	0x32a1
	.uleb128 0x2
	.long	0x8a85
	.uleb128 0x1
	.long	0x8a9e
	.uleb128 0x1
	.long	0x1b48
	.byte	0
	.uleb128 0x3
	.long	.LASF232
	.byte	0x5
	.value	0xba8
	.byte	0x7
	.long	.LASF471
	.long	0x1b48
	.byte	0x1
	.long	0x32bb
	.long	0x32d0
	.uleb128 0x2
	.long	0x8a85
	.uleb128 0x1
	.long	0x2f2
	.uleb128 0x1
	.long	0x1b48
	.uleb128 0x1
	.long	0x1b48
	.byte	0
	.uleb128 0x3
	.long	.LASF232
	.byte	0x5
	.value	0xbb7
	.byte	0x7
	.long	.LASF472
	.long	0x1b48
	.byte	0x1
	.long	0x32ea
	.long	0x32fa
	.uleb128 0x2
	.long	0x8a85
	.uleb128 0x1
	.long	0x2f2
	.uleb128 0x1
	.long	0x1b48
	.byte	0
	.uleb128 0x3
	.long	.LASF232
	.byte	0x5
	.value	0xbca
	.byte	0x7
	.long	.LASF473
	.long	0x1b48
	.byte	0x1
	.long	0x3314
	.long	0x3324
	.uleb128 0x2
	.long	0x8a85
	.uleb128 0x1
	.long	0x111
	.uleb128 0x1
	.long	0x1b48
	.byte	0
	.uleb128 0x3
	.long	.LASF237
	.byte	0x5
	.value	0xbda
	.byte	0x7
	.long	.LASF474
	.long	0x1b48
	.byte	0x1
	.long	0x333e
	.long	0x334e
	.uleb128 0x2
	.long	0x8a85
	.uleb128 0x1
	.long	0x8a9e
	.uleb128 0x1
	.long	0x1b48
	.byte	0
	.uleb128 0x3
	.long	.LASF237
	.byte	0x5
	.value	0xbff
	.byte	0x7
	.long	.LASF475
	.long	0x1b48
	.byte	0x1
	.long	0x3368
	.long	0x337d
	.uleb128 0x2
	.long	0x8a85
	.uleb128 0x1
	.long	0x2f2
	.uleb128 0x1
	.long	0x1b48
	.uleb128 0x1
	.long	0x1b48
	.byte	0
	.uleb128 0x3
	.long	.LASF237
	.byte	0x5
	.value	0xc0e
	.byte	0x7
	.long	.LASF476
	.long	0x1b48
	.byte	0x1
	.long	0x3397
	.long	0x33a7
	.uleb128 0x2
	.long	0x8a85
	.uleb128 0x1
	.long	0x2f2
	.uleb128 0x1
	.long	0x1b48
	.byte	0
	.uleb128 0x3
	.long	.LASF237
	.byte	0x5
	.value	0xc21
	.byte	0x7
	.long	.LASF477
	.long	0x1b48
	.byte	0x1
	.long	0x33c1
	.long	0x33d1
	.uleb128 0x2
	.long	0x8a85
	.uleb128 0x1
	.long	0x111
	.uleb128 0x1
	.long	0x1b48
	.byte	0
	.uleb128 0x3
	.long	.LASF205
	.byte	0x5
	.value	0xc32
	.byte	0x7
	.long	.LASF478
	.long	0x1a75
	.byte	0x1
	.long	0x33eb
	.long	0x33fb
	.uleb128 0x2
	.long	0x8a85
	.uleb128 0x1
	.long	0x1b48
	.uleb128 0x1
	.long	0x1b48
	.byte	0
	.uleb128 0x3
	.long	.LASF98
	.byte	0x5
	.value	0xc46
	.byte	0x7
	.long	.LASF479
	.long	0x11d
	.byte	0x1
	.long	0x3415
	.long	0x3420
	.uleb128 0x2
	.long	0x8a85
	.uleb128 0x1
	.long	0x8a9e
	.byte	0
	.uleb128 0x3
	.long	.LASF98
	.byte	0x5
	.value	0xca7
	.byte	0x7
	.long	.LASF480
	.long	0x11d
	.byte	0x1
	.long	0x343a
	.long	0x344f
	.uleb128 0x2
	.long	0x8a85
	.uleb128 0x1
	.long	0x1b48
	.uleb128 0x1
	.long	0x1b48
	.uleb128 0x1
	.long	0x8a9e
	.byte	0
	.uleb128 0x3
	.long	.LASF98
	.byte	0x5
	.value	0xcc2
	.byte	0x7
	.long	.LASF481
	.long	0x11d
	.byte	0x1
	.long	0x3469
	.long	0x3488
	.uleb128 0x2
	.long	0x8a85
	.uleb128 0x1
	.long	0x1b48
	.uleb128 0x1
	.long	0x1b48
	.uleb128 0x1
	.long	0x8a9e
	.uleb128 0x1
	.long	0x1b48
	.uleb128 0x1
	.long	0x1b48
	.byte	0
	.uleb128 0x3
	.long	.LASF98
	.byte	0x5
	.value	0xcd5
	.byte	0x7
	.long	.LASF482
	.long	0x11d
	.byte	0x1
	.long	0x34a2
	.long	0x34ad
	.uleb128 0x2
	.long	0x8a85
	.uleb128 0x1
	.long	0x2f2
	.byte	0
	.uleb128 0x3
	.long	.LASF98
	.byte	0x5
	.value	0xcee
	.byte	0x7
	.long	.LASF483
	.long	0x11d
	.byte	0x1
	.long	0x34c7
	.long	0x34dc
	.uleb128 0x2
	.long	0x8a85
	.uleb128 0x1
	.long	0x1b48
	.uleb128 0x1
	.long	0x1b48
	.uleb128 0x1
	.long	0x2f2
	.byte	0
	.uleb128 0x3
	.long	.LASF98
	.byte	0x5
	.value	0xd0a
	.byte	0x7
	.long	.LASF484
	.long	0x11d
	.byte	0x1
	.long	0x34f6
	.long	0x3510
	.uleb128 0x2
	.long	0x8a85
	.uleb128 0x1
	.long	0x1b48
	.uleb128 0x1
	.long	0x1b48
	.uleb128 0x1
	.long	0x2f2
	.uleb128 0x1
	.long	0x1b48
	.byte	0
	.uleb128 0x20
	.long	.LASF485
	.byte	0xa
	.byte	0xd9
	.byte	0x7
	.long	.LASF486
	.long	0x352d
	.long	0x3542
	.uleb128 0x6
	.long	.LASF487
	.long	0x2f2
	.uleb128 0x2
	.long	0x8a7b
	.uleb128 0x1
	.long	0x2f2
	.uleb128 0x1
	.long	0x2f2
	.uleb128 0x1
	.long	0xda2
	.byte	0
	.uleb128 0xb
	.long	.LASF488
	.byte	0x5
	.value	0x27a
	.byte	0x7
	.long	.LASF489
	.byte	0x1
	.long	0x3558
	.long	0x3568
	.uleb128 0x2
	.long	0x8a7b
	.uleb128 0x1
	.long	0x2f2
	.uleb128 0x1
	.long	0x832a
	.byte	0
	.uleb128 0xb
	.long	.LASF488
	.byte	0x5
	.value	0x291
	.byte	0x7
	.long	.LASF490
	.byte	0x1
	.long	0x357e
	.long	0x3593
	.uleb128 0x2
	.long	0x8a7b
	.uleb128 0x1
	.long	0x1b48
	.uleb128 0x1
	.long	0x111
	.uleb128 0x1
	.long	0x832a
	.byte	0
	.uleb128 0x6
	.long	.LASF119
	.long	0x111
	.uleb128 0x46
	.long	.LASF491
	.long	0x887
	.uleb128 0x46
	.long	.LASF492
	.long	0xd0b
	.byte	0
	.uleb128 0x7
	.long	0x1a75
	.uleb128 0x6b
	.long	.LASF493
	.byte	0x5
	.value	0xfac
	.byte	0x3
	.long	.LASF494
	.long	0x36cb
	.uleb128 0x1
	.long	0x11d
	.byte	0
	.byte	0
	.uleb128 0x2a
	.long	.LASF495
	.byte	0x10
	.byte	0x10
	.byte	0x2f
	.byte	0xb
	.long	0x36bc
	.uleb128 0x14
	.long	.LASF320
	.byte	0x10
	.byte	0x36
	.byte	0x1a
	.long	0x2f2
	.byte	0x1
	.uleb128 0x8
	.long	.LASF496
	.byte	0x10
	.byte	0x3a
	.byte	0x12
	.long	0x35d9
	.byte	0
	.uleb128 0x14
	.long	.LASF137
	.byte	0x10
	.byte	0x35
	.byte	0x18
	.long	0x56b
	.byte	0x1
	.uleb128 0x8
	.long	.LASF244
	.byte	0x10
	.byte	0x3b
	.byte	0x13
	.long	0x35f3
	.byte	0x8
	.uleb128 0x20
	.long	.LASF497
	.byte	0x10
	.byte	0x3e
	.byte	0x11
	.long	.LASF498
	.long	0x3621
	.long	0x3631
	.uleb128 0x2
	.long	0x8ab2
	.uleb128 0x1
	.long	0x3631
	.uleb128 0x1
	.long	0x35f3
	.byte	0
	.uleb128 0x14
	.long	.LASF167
	.byte	0x10
	.byte	0x37
	.byte	0x1a
	.long	0x2f2
	.byte	0x1
	.uleb128 0x1d
	.long	.LASF497
	.byte	0x10
	.byte	0x42
	.byte	0x11
	.long	.LASF499
	.long	0x3652
	.long	0x3658
	.uleb128 0x2
	.long	0x8ab2
	.byte	0
	.uleb128 0x12
	.long	.LASF183
	.byte	0x10
	.byte	0x47
	.byte	0x7
	.long	.LASF500
	.long	0x35f3
	.byte	0x1
	.long	0x3671
	.long	0x3677
	.uleb128 0x2
	.long	0x8ab7
	.byte	0
	.uleb128 0x12
	.long	.LASF168
	.byte	0x10
	.byte	0x4b
	.byte	0x7
	.long	.LASF501
	.long	0x3631
	.byte	0x1
	.long	0x3690
	.long	0x3696
	.uleb128 0x2
	.long	0x8ab7
	.byte	0
	.uleb128 0x4e
	.string	"end"
	.byte	0x10
	.byte	0x4f
	.long	.LASF502
	.long	0x3631
	.long	0x36ad
	.long	0x36b3
	.uleb128 0x2
	.long	0x8ab7
	.byte	0
	.uleb128 0xd
	.string	"_E"
	.long	0x111
	.byte	0
	.uleb128 0x7
	.long	0x35cc
	.uleb128 0x31
	.long	.LASF503
	.uleb128 0x31
	.long	.LASF504
	.uleb128 0x5
	.long	.LASF505
	.byte	0x2a
	.byte	0x4d
	.byte	0x21
	.long	0x1a75
	.uleb128 0x7
	.long	0x36cb
	.uleb128 0x91
	.string	"_V2"
	.byte	0x42
	.byte	0x50
	.byte	0x14
	.uleb128 0x5b
	.long	.LASF512
	.long	0x377e
	.uleb128 0x92
	.long	.LASF506
	.byte	0x1
	.byte	0x2b
	.value	0x27b
	.byte	0xb
	.byte	0x1
	.long	0x3778
	.uleb128 0x6c
	.long	.LASF506
	.value	0x27f
	.long	.LASF507
	.long	0x3711
	.long	0x3717
	.uleb128 0x2
	.long	0x8ac1
	.byte	0
	.uleb128 0x6c
	.long	.LASF508
	.value	0x280
	.long	.LASF509
	.long	0x372a
	.long	0x3735
	.uleb128 0x2
	.long	0x8ac1
	.uleb128 0x2
	.long	0x11d
	.byte	0
	.uleb128 0x47
	.long	.LASF506
	.byte	0x2b
	.value	0x283
	.long	.LASF510
	.long	0x3749
	.long	0x3754
	.uleb128 0x2
	.long	0x8ac1
	.uleb128 0x1
	.long	0x8acb
	.byte	0
	.uleb128 0x93
	.long	.LASF82
	.byte	0x2b
	.value	0x284
	.byte	0xd
	.long	.LASF511
	.long	0x8ad0
	.byte	0x1
	.byte	0x1
	.long	0x376c
	.uleb128 0x2
	.long	0x8ac1
	.uleb128 0x1
	.long	0x8acb
	.byte	0
	.byte	0
	.uleb128 0x7
	.long	0x36ee
	.byte	0
	.uleb128 0x4
	.byte	0x2c
	.byte	0x52
	.byte	0xb
	.long	0x8ae1
	.uleb128 0x4
	.byte	0x2c
	.byte	0x53
	.byte	0xb
	.long	0x8ad5
	.uleb128 0x4
	.byte	0x2c
	.byte	0x54
	.byte	0xb
	.long	0xab
	.uleb128 0x4
	.byte	0x2c
	.byte	0x5c
	.byte	0xb
	.long	0x8af2
	.uleb128 0x4
	.byte	0x2c
	.byte	0x65
	.byte	0xb
	.long	0x8b0d
	.uleb128 0x4
	.byte	0x2c
	.byte	0x68
	.byte	0xb
	.long	0x8b28
	.uleb128 0x4
	.byte	0x2c
	.byte	0x69
	.byte	0xb
	.long	0x8b3e
	.uleb128 0x5b
	.long	.LASF513
	.long	0x37f6
	.uleb128 0x12
	.long	.LASF514
	.byte	0x2d
	.byte	0x69
	.byte	0x5
	.long	.LASF515
	.long	0x8b59
	.byte	0x1
	.long	0x37d8
	.long	0x37e3
	.uleb128 0x2
	.long	0x916a
	.uleb128 0x1
	.long	0x11d
	.byte	0
	.uleb128 0x6
	.long	.LASF119
	.long	0x111
	.uleb128 0x46
	.long	.LASF491
	.long	0x887
	.byte	0
	.uleb128 0x5
	.long	.LASF516
	.byte	0x2e
	.byte	0x8d
	.byte	0x21
	.long	0x37b6
	.uleb128 0x94
	.long	.LASF1330
	.byte	0x18
	.byte	0x3d
	.byte	0x12
	.long	.LASF1494
	.long	0x37f6
	.uleb128 0x95
	.long	.LASF1372
	.byte	0x18
	.byte	0x4a
	.byte	0x19
	.long	0x36ee
	.uleb128 0x19
	.long	.LASF517
	.byte	0x1
	.byte	0x15
	.byte	0x8d
	.byte	0xc
	.long	0x386e
	.uleb128 0x16
	.long	.LASF518
	.byte	0x15
	.byte	0x91
	.byte	0x9
	.long	.LASF519
	.long	0x8cd8
	.long	0x3863
	.uleb128 0x6
	.long	.LASF520
	.long	0x8cf1
	.uleb128 0x6
	.long	.LASF159
	.long	0x8cd8
	.uleb128 0x1
	.long	0x8cf1
	.uleb128 0x1
	.long	0x8cf1
	.uleb128 0x1
	.long	0x8cd8
	.byte	0
	.uleb128 0x38
	.long	.LASF521
	.long	0x7e9e
	.byte	0x1
	.byte	0
	.uleb128 0x3e
	.long	.LASF522
	.byte	0x15
	.value	0x28a
	.long	0x38b7
	.uleb128 0xe
	.long	.LASF523
	.byte	0x15
	.value	0x28f
	.byte	0x9
	.long	.LASF524
	.long	0x8dc8
	.long	0x38ac
	.uleb128 0x6
	.long	.LASF159
	.long	0x8dc8
	.uleb128 0x6
	.long	.LASF525
	.long	0x5a
	.uleb128 0x1
	.long	0x8dc8
	.uleb128 0x1
	.long	0x5a
	.byte	0
	.uleb128 0x38
	.long	.LASF526
	.long	0x7e9e
	.byte	0x1
	.byte	0
	.uleb128 0x2a
	.long	.LASF527
	.byte	0x1
	.byte	0xf
	.byte	0x38
	.byte	0xb
	.long	0x3a39
	.uleb128 0x1d
	.long	.LASF123
	.byte	0xf
	.byte	0x50
	.byte	0x7
	.long	.LASF528
	.long	0x38d8
	.long	0x38de
	.uleb128 0x2
	.long	0x8cc9
	.byte	0
	.uleb128 0x1d
	.long	.LASF123
	.byte	0xf
	.byte	0x53
	.byte	0x7
	.long	.LASF529
	.long	0x38f2
	.long	0x38fd
	.uleb128 0x2
	.long	0x8cc9
	.uleb128 0x1
	.long	0x8cd3
	.byte	0
	.uleb128 0x1d
	.long	.LASF126
	.byte	0xf
	.byte	0x5a
	.byte	0x7
	.long	.LASF530
	.long	0x3911
	.long	0x391c
	.uleb128 0x2
	.long	0x8cc9
	.uleb128 0x2
	.long	0x11d
	.byte	0
	.uleb128 0x14
	.long	.LASF130
	.byte	0xf
	.byte	0x3f
	.byte	0x1a
	.long	0x8cd8
	.byte	0x1
	.uleb128 0x12
	.long	.LASF128
	.byte	0xf
	.byte	0x5d
	.byte	0x7
	.long	.LASF531
	.long	0x391c
	.byte	0x1
	.long	0x3942
	.long	0x394d
	.uleb128 0x2
	.long	0x8ce2
	.uleb128 0x1
	.long	0x394d
	.byte	0
	.uleb128 0x14
	.long	.LASF131
	.byte	0xf
	.byte	0x41
	.byte	0x1a
	.long	0x8cec
	.byte	0x1
	.uleb128 0x14
	.long	.LASF132
	.byte	0xf
	.byte	0x40
	.byte	0x1a
	.long	0x8cf1
	.byte	0x1
	.uleb128 0x12
	.long	.LASF128
	.byte	0xf
	.byte	0x61
	.byte	0x7
	.long	.LASF532
	.long	0x395a
	.byte	0x1
	.long	0x3980
	.long	0x398b
	.uleb128 0x2
	.long	0x8ce2
	.uleb128 0x1
	.long	0x398b
	.byte	0
	.uleb128 0x14
	.long	.LASF134
	.byte	0xf
	.byte	0x42
	.byte	0x1a
	.long	0x8cfb
	.byte	0x1
	.uleb128 0x12
	.long	.LASF135
	.byte	0xf
	.byte	0x70
	.byte	0x7
	.long	.LASF533
	.long	0x8cd8
	.byte	0x1
	.long	0x39b1
	.long	0x39c1
	.uleb128 0x2
	.long	0x8cc9
	.uleb128 0x1
	.long	0x39c1
	.uleb128 0x1
	.long	0x82fb
	.byte	0
	.uleb128 0x14
	.long	.LASF137
	.byte	0xf
	.byte	0x3c
	.byte	0x1f
	.long	0x56b
	.byte	0x1
	.uleb128 0x1d
	.long	.LASF138
	.byte	0xf
	.byte	0x8e
	.byte	0x7
	.long	.LASF534
	.long	0x39e2
	.long	0x39f2
	.uleb128 0x2
	.long	0x8cc9
	.uleb128 0x1
	.long	0x8cd8
	.uleb128 0x1
	.long	0x39c1
	.byte	0
	.uleb128 0x12
	.long	.LASF140
	.byte	0xf
	.byte	0xa7
	.byte	0x7
	.long	.LASF535
	.long	0x39c1
	.byte	0x1
	.long	0x3a0b
	.long	0x3a11
	.uleb128 0x2
	.long	0x8ce2
	.byte	0
	.uleb128 0x35
	.long	.LASF142
	.byte	0xf
	.byte	0xd2
	.byte	0x7
	.long	.LASF536
	.long	0x39c1
	.long	0x3a29
	.long	0x3a2f
	.uleb128 0x2
	.long	0x8ce2
	.byte	0
	.uleb128 0xd
	.string	"_Tp"
	.long	0x6f2e
	.byte	0
	.uleb128 0x7
	.long	0x38b7
	.uleb128 0x2a
	.long	.LASF537
	.byte	0x1
	.byte	0xb
	.byte	0x7c
	.byte	0xb
	.long	0x3ac6
	.uleb128 0x45
	.long	0x38b7
	.byte	0x1
	.uleb128 0x1d
	.long	.LASF145
	.byte	0xb
	.byte	0x9c
	.byte	0x7
	.long	.LASF538
	.long	0x3a65
	.long	0x3a6b
	.uleb128 0x2
	.long	0x8d00
	.byte	0
	.uleb128 0x1d
	.long	.LASF145
	.byte	0xb
	.byte	0x9f
	.byte	0x7
	.long	.LASF539
	.long	0x3a7f
	.long	0x3a8a
	.uleb128 0x2
	.long	0x8d00
	.uleb128 0x1
	.long	0x8d0a
	.byte	0
	.uleb128 0x4d
	.long	.LASF82
	.byte	0xb
	.byte	0xa4
	.byte	0x12
	.long	.LASF540
	.long	0x8d0f
	.long	0x3aa2
	.long	0x3aad
	.uleb128 0x2
	.long	0x8d00
	.uleb128 0x1
	.long	0x8d0a
	.byte	0
	.uleb128 0x59
	.long	.LASF151
	.long	.LASF541
	.long	0x3aba
	.uleb128 0x2
	.long	0x8d00
	.uleb128 0x2
	.long	0x11d
	.byte	0
	.byte	0
	.uleb128 0x7
	.long	0x3a3e
	.uleb128 0x3e
	.long	.LASF542
	.byte	0xd
	.value	0x19b
	.long	0x3bc7
	.uleb128 0x1e
	.long	.LASF130
	.byte	0xd
	.value	0x1a4
	.byte	0xd
	.long	0x8cd8
	.uleb128 0xe
	.long	.LASF135
	.byte	0xd
	.value	0x1cf
	.byte	0x7
	.long	.LASF543
	.long	0x3ad7
	.long	0x3b04
	.uleb128 0x1
	.long	0x8d14
	.uleb128 0x1
	.long	0x3b16
	.byte	0
	.uleb128 0x1e
	.long	.LASF250
	.byte	0xd
	.value	0x19e
	.byte	0xd
	.long	0x3a3e
	.uleb128 0x7
	.long	0x3b04
	.uleb128 0x1e
	.long	.LASF137
	.byte	0xd
	.value	0x1b3
	.byte	0xd
	.long	0x56b
	.uleb128 0xe
	.long	.LASF135
	.byte	0xd
	.value	0x1dd
	.byte	0x7
	.long	.LASF544
	.long	0x3ad7
	.long	0x3b48
	.uleb128 0x1
	.long	0x8d14
	.uleb128 0x1
	.long	0x3b16
	.uleb128 0x1
	.long	0x3b48
	.byte	0
	.uleb128 0x1e
	.long	.LASF252
	.byte	0xd
	.value	0x1ad
	.byte	0xd
	.long	0x82fb
	.uleb128 0x2c
	.long	.LASF138
	.byte	0xd
	.value	0x1ef
	.byte	0x7
	.long	.LASF545
	.long	0x3b76
	.uleb128 0x1
	.long	0x8d14
	.uleb128 0x1
	.long	0x3ad7
	.uleb128 0x1
	.long	0x3b16
	.byte	0
	.uleb128 0xe
	.long	.LASF140
	.byte	0xd
	.value	0x223
	.byte	0x7
	.long	.LASF546
	.long	0x3b16
	.long	0x3b91
	.uleb128 0x1
	.long	0x8d19
	.byte	0
	.uleb128 0xe
	.long	.LASF256
	.byte	0xd
	.value	0x232
	.byte	0x7
	.long	.LASF547
	.long	0x3b04
	.long	0x3bac
	.uleb128 0x1
	.long	0x8d19
	.byte	0
	.uleb128 0x1e
	.long	.LASF56
	.byte	0xd
	.value	0x1a1
	.byte	0xd
	.long	0x6f2e
	.uleb128 0x1e
	.long	.LASF258
	.byte	0xd
	.value	0x1c2
	.byte	0x8
	.long	0x3a3e
	.byte	0
	.uleb128 0x19
	.long	.LASF548
	.byte	0x18
	.byte	0x9
	.byte	0x55
	.byte	0xc
	.long	0x3f7b
	.uleb128 0x19
	.long	.LASF549
	.byte	0x18
	.byte	0x9
	.byte	0x5c
	.byte	0xe
	.long	0x3c7a
	.uleb128 0x8
	.long	.LASF550
	.byte	0x9
	.byte	0x5e
	.byte	0xa
	.long	0x3c7f
	.byte	0
	.uleb128 0x8
	.long	.LASF551
	.byte	0x9
	.byte	0x5f
	.byte	0xa
	.long	0x3c7f
	.byte	0x8
	.uleb128 0x8
	.long	.LASF552
	.byte	0x9
	.byte	0x60
	.byte	0xa
	.long	0x3c7f
	.byte	0x10
	.uleb128 0x20
	.long	.LASF549
	.byte	0x9
	.byte	0x63
	.byte	0x2
	.long	.LASF553
	.long	0x3c1c
	.long	0x3c22
	.uleb128 0x2
	.long	0x8d28
	.byte	0
	.uleb128 0x20
	.long	.LASF549
	.byte	0x9
	.byte	0x69
	.byte	0x2
	.long	.LASF554
	.long	0x3c36
	.long	0x3c41
	.uleb128 0x2
	.long	0x8d28
	.uleb128 0x1
	.long	0x8d32
	.byte	0
	.uleb128 0x20
	.long	.LASF555
	.byte	0x9
	.byte	0x71
	.byte	0x2
	.long	.LASF556
	.long	0x3c55
	.long	0x3c60
	.uleb128 0x2
	.long	0x8d28
	.uleb128 0x1
	.long	0x8d37
	.byte	0
	.uleb128 0x6d
	.long	.LASF557
	.byte	0x7a
	.long	.LASF559
	.long	0x3c6e
	.uleb128 0x2
	.long	0x8d28
	.uleb128 0x1
	.long	0x8d3c
	.byte	0
	.byte	0
	.uleb128 0x7
	.long	0x3bd4
	.uleb128 0x5
	.long	.LASF130
	.byte	0x9
	.byte	0x5a
	.byte	0x9
	.long	0x7a5b
	.uleb128 0x19
	.long	.LASF560
	.byte	0x18
	.byte	0x9
	.byte	0x85
	.byte	0xe
	.long	0x3d56
	.uleb128 0x36
	.long	0x3a3e
	.uleb128 0x36
	.long	0x3bd4
	.uleb128 0x20
	.long	.LASF560
	.byte	0x9
	.byte	0x89
	.byte	0x2
	.long	.LASF561
	.long	0x3cb6
	.long	0x3cbc
	.uleb128 0x2
	.long	0x8d41
	.byte	0
	.uleb128 0x20
	.long	.LASF560
	.byte	0x9
	.byte	0x8f
	.byte	0x2
	.long	.LASF562
	.long	0x3cd0
	.long	0x3cdb
	.uleb128 0x2
	.long	0x8d41
	.uleb128 0x1
	.long	0x8d4b
	.byte	0
	.uleb128 0x20
	.long	.LASF560
	.byte	0x9
	.byte	0x97
	.byte	0x2
	.long	.LASF563
	.long	0x3cef
	.long	0x3cfa
	.uleb128 0x2
	.long	0x8d41
	.uleb128 0x1
	.long	0x8d50
	.byte	0
	.uleb128 0x20
	.long	.LASF560
	.byte	0x9
	.byte	0x9c
	.byte	0x2
	.long	.LASF564
	.long	0x3d0e
	.long	0x3d19
	.uleb128 0x2
	.long	0x8d41
	.uleb128 0x1
	.long	0x8d55
	.byte	0
	.uleb128 0x20
	.long	.LASF560
	.byte	0x9
	.byte	0xa1
	.byte	0x2
	.long	.LASF565
	.long	0x3d2d
	.long	0x3d3d
	.uleb128 0x2
	.long	0x8d41
	.uleb128 0x1
	.long	0x8d55
	.uleb128 0x1
	.long	0x8d50
	.byte	0
	.uleb128 0x5a
	.long	.LASF567
	.long	.LASF569
	.long	0x3d4a
	.uleb128 0x2
	.long	0x8d41
	.uleb128 0x2
	.long	0x11d
	.byte	0
	.byte	0
	.uleb128 0x5
	.long	.LASF570
	.byte	0x9
	.byte	0x58
	.byte	0x15
	.long	0x7a8c
	.uleb128 0x7
	.long	0x3d56
	.uleb128 0x27
	.long	.LASF571
	.byte	0x9
	.value	0x12a
	.long	.LASF572
	.long	0x8d5a
	.long	0x3d7f
	.long	0x3d85
	.uleb128 0x2
	.long	0x8d5f
	.byte	0
	.uleb128 0x27
	.long	.LASF571
	.byte	0x9
	.value	0x12f
	.long	.LASF573
	.long	0x8d4b
	.long	0x3d9d
	.long	0x3da3
	.uleb128 0x2
	.long	0x8d69
	.byte	0
	.uleb128 0x1e
	.long	.LASF250
	.byte	0x9
	.value	0x126
	.byte	0x16
	.long	0x3a3e
	.uleb128 0x7
	.long	0x3da3
	.uleb128 0x27
	.long	.LASF452
	.byte	0x9
	.value	0x134
	.long	.LASF574
	.long	0x3da3
	.long	0x3dcd
	.long	0x3dd3
	.uleb128 0x2
	.long	0x8d69
	.byte	0
	.uleb128 0x50
	.long	.LASF575
	.value	0x138
	.long	.LASF576
	.long	0x3de6
	.long	0x3dec
	.uleb128 0x2
	.long	0x8d5f
	.byte	0
	.uleb128 0x1a
	.long	.LASF575
	.byte	0x9
	.value	0x13e
	.long	.LASF577
	.long	0x3e00
	.long	0x3e0b
	.uleb128 0x2
	.long	0x8d5f
	.uleb128 0x1
	.long	0x8d6e
	.byte	0
	.uleb128 0x1a
	.long	.LASF575
	.byte	0x9
	.value	0x144
	.long	.LASF578
	.long	0x3e1f
	.long	0x3e2a
	.uleb128 0x2
	.long	0x8d5f
	.uleb128 0x1
	.long	0x56b
	.byte	0
	.uleb128 0x1a
	.long	.LASF575
	.byte	0x9
	.value	0x14a
	.long	.LASF579
	.long	0x3e3e
	.long	0x3e4e
	.uleb128 0x2
	.long	0x8d5f
	.uleb128 0x1
	.long	0x56b
	.uleb128 0x1
	.long	0x8d6e
	.byte	0
	.uleb128 0x50
	.long	.LASF575
	.value	0x14f
	.long	.LASF580
	.long	0x3e61
	.long	0x3e6c
	.uleb128 0x2
	.long	0x8d5f
	.uleb128 0x1
	.long	0x8d73
	.byte	0
	.uleb128 0x1a
	.long	.LASF575
	.byte	0x9
	.value	0x154
	.long	.LASF581
	.long	0x3e80
	.long	0x3e8b
	.uleb128 0x2
	.long	0x8d5f
	.uleb128 0x1
	.long	0x8d55
	.byte	0
	.uleb128 0x1a
	.long	.LASF575
	.byte	0x9
	.value	0x158
	.long	.LASF582
	.long	0x3e9f
	.long	0x3eaf
	.uleb128 0x2
	.long	0x8d5f
	.uleb128 0x1
	.long	0x8d73
	.uleb128 0x1
	.long	0x8d6e
	.byte	0
	.uleb128 0x1a
	.long	.LASF575
	.byte	0x9
	.value	0x166
	.long	.LASF583
	.long	0x3ec3
	.long	0x3ed3
	.uleb128 0x2
	.long	0x8d5f
	.uleb128 0x1
	.long	0x8d6e
	.uleb128 0x1
	.long	0x8d73
	.byte	0
	.uleb128 0x1a
	.long	.LASF584
	.byte	0x9
	.value	0x16c
	.long	.LASF585
	.long	0x3ee7
	.long	0x3ef2
	.uleb128 0x2
	.long	0x8d5f
	.uleb128 0x2
	.long	0x11d
	.byte	0
	.uleb128 0x4f
	.long	.LASF586
	.byte	0x9
	.value	0x173
	.byte	0x14
	.long	0x3c8b
	.byte	0
	.uleb128 0x27
	.long	.LASF587
	.byte	0x9
	.value	0x177
	.long	.LASF588
	.long	0x3c7f
	.long	0x3f18
	.long	0x3f23
	.uleb128 0x2
	.long	0x8d5f
	.uleb128 0x1
	.long	0x56b
	.byte	0
	.uleb128 0x1a
	.long	.LASF589
	.byte	0x9
	.value	0x17f
	.long	.LASF590
	.long	0x3f37
	.long	0x3f47
	.uleb128 0x2
	.long	0x8d5f
	.uleb128 0x1
	.long	0x3c7f
	.uleb128 0x1
	.long	0x56b
	.byte	0
	.uleb128 0xb
	.long	.LASF591
	.byte	0x9
	.value	0x189
	.byte	0x7
	.long	.LASF592
	.byte	0x2
	.long	0x3f5d
	.long	0x3f68
	.uleb128 0x2
	.long	0x8d5f
	.uleb128 0x1
	.long	0x56b
	.byte	0
	.uleb128 0xd
	.string	"_Tp"
	.long	0x6f2e
	.uleb128 0x6
	.long	.LASF492
	.long	0x3a3e
	.byte	0
	.uleb128 0x7
	.long	0x3bc7
	.uleb128 0x19
	.long	.LASF593
	.byte	0x1
	.byte	0x22
	.byte	0x7c
	.byte	0xc
	.long	0x3fa3
	.uleb128 0x5
	.long	.LASF594
	.byte	0x22
	.byte	0x7d
	.byte	0xd
	.long	0x3a3e
	.uleb128 0x6
	.long	.LASF595
	.long	0x3a3e
	.byte	0
	.uleb128 0x48
	.long	.LASF596
	.byte	0x18
	.byte	0x9
	.value	0x1a7
	.long	0x4bce
	.uleb128 0x21
	.byte	0x9
	.value	0x1a7
	.byte	0xb
	.long	0x3f00
	.uleb128 0x21
	.byte	0x9
	.value	0x1a7
	.byte	0xb
	.long	0x3f23
	.uleb128 0x21
	.byte	0x9
	.value	0x1a7
	.byte	0xb
	.long	0x3ef2
	.uleb128 0x21
	.byte	0x9
	.value	0x1a7
	.byte	0xb
	.long	0x3d85
	.uleb128 0x21
	.byte	0x9
	.value	0x1a7
	.byte	0xb
	.long	0x3d67
	.uleb128 0x21
	.byte	0x9
	.value	0x1a7
	.byte	0xb
	.long	0x3db5
	.uleb128 0x45
	.long	0x3bc7
	.byte	0x2
	.uleb128 0xe
	.long	.LASF597
	.byte	0x9
	.value	0x1d1
	.byte	0x7
	.long	.LASF598
	.long	0x7e9e
	.long	0x4007
	.uleb128 0x1
	.long	0xb78
	.byte	0
	.uleb128 0xe
	.long	.LASF597
	.byte	0x9
	.value	0x1da
	.byte	0x7
	.long	.LASF599
	.long	0x7e9e
	.long	0x4022
	.uleb128 0x1
	.long	0x659
	.byte	0
	.uleb128 0x5c
	.long	.LASF600
	.byte	0x9
	.value	0x1de
	.byte	0x7
	.long	.LASF759
	.long	0x7e9e
	.uleb128 0x1f
	.long	.LASF130
	.byte	0x9
	.value	0x1c1
	.byte	0x29
	.long	0x3c7f
	.uleb128 0xe
	.long	.LASF601
	.byte	0x9
	.value	0x1e7
	.byte	0x7
	.long	.LASF602
	.long	0x4033
	.long	0x406f
	.uleb128 0x1
	.long	0x4033
	.uleb128 0x1
	.long	0x4033
	.uleb128 0x1
	.long	0x4033
	.uleb128 0x1
	.long	0x8d78
	.uleb128 0x1
	.long	0xb78
	.byte	0
	.uleb128 0x1e
	.long	.LASF570
	.byte	0x9
	.value	0x1bc
	.byte	0x2f
	.long	0x3d56
	.uleb128 0x7
	.long	0x406f
	.uleb128 0xe
	.long	.LASF601
	.byte	0x9
	.value	0x1ee
	.byte	0x7
	.long	.LASF603
	.long	0x4033
	.long	0x40b0
	.uleb128 0x1
	.long	0x4033
	.uleb128 0x1
	.long	0x4033
	.uleb128 0x1
	.long	0x4033
	.uleb128 0x1
	.long	0x8d78
	.uleb128 0x1
	.long	0x659
	.byte	0
	.uleb128 0xe
	.long	.LASF604
	.byte	0x9
	.value	0x1f3
	.byte	0x7
	.long	.LASF605
	.long	0x4033
	.long	0x40da
	.uleb128 0x1
	.long	0x4033
	.uleb128 0x1
	.long	0x4033
	.uleb128 0x1
	.long	0x4033
	.uleb128 0x1
	.long	0x8d78
	.byte	0
	.uleb128 0x47
	.long	.LASF606
	.byte	0x9
	.value	0x20e
	.long	.LASF607
	.long	0x40ee
	.long	0x40f4
	.uleb128 0x2
	.long	0x8d7d
	.byte	0
	.uleb128 0x3b
	.long	.LASF606
	.byte	0x9
	.value	0x219
	.long	.LASF608
	.long	0x4108
	.long	0x4113
	.uleb128 0x2
	.long	0x8d7d
	.uleb128 0x1
	.long	0x8d87
	.byte	0
	.uleb128 0x1f
	.long	.LASF250
	.byte	0x9
	.value	0x1cc
	.byte	0x1a
	.long	0x3a3e
	.uleb128 0x7
	.long	0x4113
	.uleb128 0x3b
	.long	.LASF606
	.byte	0x9
	.value	0x227
	.long	.LASF609
	.long	0x4139
	.long	0x4149
	.uleb128 0x2
	.long	0x8d7d
	.uleb128 0x1
	.long	0x4149
	.uleb128 0x1
	.long	0x8d87
	.byte	0
	.uleb128 0x1f
	.long	.LASF137
	.byte	0x9
	.value	0x1ca
	.byte	0x1a
	.long	0x56b
	.uleb128 0x7
	.long	0x4149
	.uleb128 0xb
	.long	.LASF606
	.byte	0x9
	.value	0x234
	.byte	0x7
	.long	.LASF610
	.byte	0x1
	.long	0x4171
	.long	0x4186
	.uleb128 0x2
	.long	0x8d7d
	.uleb128 0x1
	.long	0x4149
	.uleb128 0x1
	.long	0x8d8c
	.uleb128 0x1
	.long	0x8d87
	.byte	0
	.uleb128 0x1f
	.long	.LASF56
	.byte	0x9
	.value	0x1c0
	.byte	0x17
	.long	0x6f2e
	.uleb128 0x7
	.long	0x4186
	.uleb128 0xb
	.long	.LASF606
	.byte	0x9
	.value	0x254
	.byte	0x7
	.long	.LASF611
	.byte	0x1
	.long	0x41ae
	.long	0x41b9
	.uleb128 0x2
	.long	0x8d7d
	.uleb128 0x1
	.long	0x8d91
	.byte	0
	.uleb128 0x47
	.long	.LASF606
	.byte	0x9
	.value	0x267
	.long	.LASF612
	.long	0x41cd
	.long	0x41d8
	.uleb128 0x2
	.long	0x8d7d
	.uleb128 0x1
	.long	0x8d96
	.byte	0
	.uleb128 0xb
	.long	.LASF606
	.byte	0x9
	.value	0x26b
	.byte	0x7
	.long	.LASF613
	.byte	0x1
	.long	0x41ee
	.long	0x41fe
	.uleb128 0x2
	.long	0x8d7d
	.uleb128 0x1
	.long	0x8d91
	.uleb128 0x1
	.long	0x8d9b
	.byte	0
	.uleb128 0x1a
	.long	.LASF606
	.byte	0x9
	.value	0x276
	.long	.LASF614
	.long	0x4212
	.long	0x4227
	.uleb128 0x2
	.long	0x8d7d
	.uleb128 0x1
	.long	0x8d96
	.uleb128 0x1
	.long	0x8d87
	.uleb128 0x1
	.long	0xb78
	.byte	0
	.uleb128 0x1a
	.long	.LASF606
	.byte	0x9
	.value	0x27b
	.long	.LASF615
	.long	0x423b
	.long	0x4250
	.uleb128 0x2
	.long	0x8d7d
	.uleb128 0x1
	.long	0x8d96
	.uleb128 0x1
	.long	0x8d87
	.uleb128 0x1
	.long	0x659
	.byte	0
	.uleb128 0xb
	.long	.LASF606
	.byte	0x9
	.value	0x28e
	.byte	0x7
	.long	.LASF616
	.byte	0x1
	.long	0x4266
	.long	0x4276
	.uleb128 0x2
	.long	0x8d7d
	.uleb128 0x1
	.long	0x8d96
	.uleb128 0x1
	.long	0x8d9b
	.byte	0
	.uleb128 0xb
	.long	.LASF606
	.byte	0x9
	.value	0x2a1
	.byte	0x7
	.long	.LASF617
	.byte	0x1
	.long	0x428c
	.long	0x429c
	.uleb128 0x2
	.long	0x8d7d
	.uleb128 0x1
	.long	0x4be4
	.uleb128 0x1
	.long	0x8d87
	.byte	0
	.uleb128 0xb
	.long	.LASF618
	.byte	0x9
	.value	0x2d8
	.byte	0x7
	.long	.LASF619
	.byte	0x1
	.long	0x42b2
	.long	0x42bd
	.uleb128 0x2
	.long	0x8d7d
	.uleb128 0x2
	.long	0x11d
	.byte	0
	.uleb128 0x12
	.long	.LASF82
	.byte	0x12
	.byte	0xcc
	.byte	0x5
	.long	.LASF620
	.long	0x8da0
	.byte	0x1
	.long	0x42d6
	.long	0x42e1
	.uleb128 0x2
	.long	0x8d7d
	.uleb128 0x1
	.long	0x8d91
	.byte	0
	.uleb128 0x3
	.long	.LASF82
	.byte	0x9
	.value	0x2f9
	.byte	0x7
	.long	.LASF621
	.long	0x8da0
	.byte	0x1
	.long	0x42fb
	.long	0x4306
	.uleb128 0x2
	.long	0x8d7d
	.uleb128 0x1
	.long	0x8d96
	.byte	0
	.uleb128 0x3
	.long	.LASF82
	.byte	0x9
	.value	0x30f
	.byte	0x7
	.long	.LASF622
	.long	0x8da0
	.byte	0x1
	.long	0x4320
	.long	0x432b
	.uleb128 0x2
	.long	0x8d7d
	.uleb128 0x1
	.long	0x4be4
	.byte	0
	.uleb128 0xb
	.long	.LASF108
	.byte	0x9
	.value	0x323
	.byte	0x7
	.long	.LASF623
	.byte	0x1
	.long	0x4341
	.long	0x4351
	.uleb128 0x2
	.long	0x8d7d
	.uleb128 0x1
	.long	0x4149
	.uleb128 0x1
	.long	0x8d8c
	.byte	0
	.uleb128 0xb
	.long	.LASF108
	.byte	0x9
	.value	0x352
	.byte	0x7
	.long	.LASF624
	.byte	0x1
	.long	0x4367
	.long	0x4372
	.uleb128 0x2
	.long	0x8d7d
	.uleb128 0x1
	.long	0x4be4
	.byte	0
	.uleb128 0x1f
	.long	.LASF320
	.byte	0x9
	.value	0x1c5
	.byte	0x3d
	.long	0x7aac
	.uleb128 0x3
	.long	.LASF168
	.byte	0x9
	.value	0x364
	.byte	0x7
	.long	.LASF625
	.long	0x4372
	.byte	0x1
	.long	0x4399
	.long	0x439f
	.uleb128 0x2
	.long	0x8d7d
	.byte	0
	.uleb128 0x1f
	.long	.LASF167
	.byte	0x9
	.value	0x1c7
	.byte	0x7
	.long	0x7cdf
	.uleb128 0x3
	.long	.LASF168
	.byte	0x9
	.value	0x36e
	.byte	0x7
	.long	.LASF626
	.long	0x439f
	.byte	0x1
	.long	0x43c6
	.long	0x43cc
	.uleb128 0x2
	.long	0x8da5
	.byte	0
	.uleb128 0x32
	.string	"end"
	.byte	0x9
	.value	0x378
	.long	.LASF627
	.long	0x4372
	.long	0x43e4
	.long	0x43ea
	.uleb128 0x2
	.long	0x8d7d
	.byte	0
	.uleb128 0x32
	.string	"end"
	.byte	0x9
	.value	0x382
	.long	.LASF628
	.long	0x439f
	.long	0x4402
	.long	0x4408
	.uleb128 0x2
	.long	0x8da5
	.byte	0
	.uleb128 0x1f
	.long	.LASF355
	.byte	0x9
	.value	0x1c9
	.byte	0x30
	.long	0x4cd9
	.uleb128 0x3
	.long	.LASF175
	.byte	0x9
	.value	0x38c
	.byte	0x7
	.long	.LASF629
	.long	0x4408
	.byte	0x1
	.long	0x442f
	.long	0x4435
	.uleb128 0x2
	.long	0x8d7d
	.byte	0
	.uleb128 0x1f
	.long	.LASF174
	.byte	0x9
	.value	0x1c8
	.byte	0x35
	.long	0x4cde
	.uleb128 0x3
	.long	.LASF175
	.byte	0x9
	.value	0x396
	.byte	0x7
	.long	.LASF630
	.long	0x4435
	.byte	0x1
	.long	0x445c
	.long	0x4462
	.uleb128 0x2
	.long	0x8da5
	.byte	0
	.uleb128 0x3
	.long	.LASF177
	.byte	0x9
	.value	0x3a0
	.byte	0x7
	.long	.LASF631
	.long	0x4408
	.byte	0x1
	.long	0x447c
	.long	0x4482
	.uleb128 0x2
	.long	0x8d7d
	.byte	0
	.uleb128 0x3
	.long	.LASF177
	.byte	0x9
	.value	0x3aa
	.byte	0x7
	.long	.LASF632
	.long	0x4435
	.byte	0x1
	.long	0x449c
	.long	0x44a2
	.uleb128 0x2
	.long	0x8da5
	.byte	0
	.uleb128 0x3
	.long	.LASF170
	.byte	0x9
	.value	0x3b5
	.byte	0x7
	.long	.LASF633
	.long	0x439f
	.byte	0x1
	.long	0x44bc
	.long	0x44c2
	.uleb128 0x2
	.long	0x8da5
	.byte	0
	.uleb128 0x3
	.long	.LASF172
	.byte	0x9
	.value	0x3bf
	.byte	0x7
	.long	.LASF634
	.long	0x439f
	.byte	0x1
	.long	0x44dc
	.long	0x44e2
	.uleb128 0x2
	.long	0x8da5
	.byte	0
	.uleb128 0x3
	.long	.LASF179
	.byte	0x9
	.value	0x3c9
	.byte	0x7
	.long	.LASF635
	.long	0x4435
	.byte	0x1
	.long	0x44fc
	.long	0x4502
	.uleb128 0x2
	.long	0x8da5
	.byte	0
	.uleb128 0x3
	.long	.LASF181
	.byte	0x9
	.value	0x3d3
	.byte	0x7
	.long	.LASF636
	.long	0x4435
	.byte	0x1
	.long	0x451c
	.long	0x4522
	.uleb128 0x2
	.long	0x8da5
	.byte	0
	.uleb128 0x3
	.long	.LASF183
	.byte	0x9
	.value	0x3db
	.byte	0x7
	.long	.LASF637
	.long	0x4149
	.byte	0x1
	.long	0x453c
	.long	0x4542
	.uleb128 0x2
	.long	0x8da5
	.byte	0
	.uleb128 0x3
	.long	.LASF140
	.byte	0x9
	.value	0x3e1
	.byte	0x7
	.long	.LASF638
	.long	0x4149
	.byte	0x1
	.long	0x455c
	.long	0x4562
	.uleb128 0x2
	.long	0x8da5
	.byte	0
	.uleb128 0xb
	.long	.LASF367
	.byte	0x9
	.value	0x3f0
	.byte	0x7
	.long	.LASF639
	.byte	0x1
	.long	0x4578
	.long	0x4583
	.uleb128 0x2
	.long	0x8d7d
	.uleb128 0x1
	.long	0x4149
	.byte	0
	.uleb128 0xb
	.long	.LASF367
	.byte	0x9
	.value	0x405
	.byte	0x7
	.long	.LASF640
	.byte	0x1
	.long	0x4599
	.long	0x45a9
	.uleb128 0x2
	.long	0x8d7d
	.uleb128 0x1
	.long	0x4149
	.uleb128 0x1
	.long	0x8d8c
	.byte	0
	.uleb128 0xb
	.long	.LASF370
	.byte	0x9
	.value	0x427
	.byte	0x7
	.long	.LASF641
	.byte	0x1
	.long	0x45bf
	.long	0x45c5
	.uleb128 0x2
	.long	0x8d7d
	.byte	0
	.uleb128 0x3
	.long	.LASF372
	.byte	0x9
	.value	0x431
	.byte	0x7
	.long	.LASF642
	.long	0x4149
	.byte	0x1
	.long	0x45df
	.long	0x45e5
	.uleb128 0x2
	.long	0x8da5
	.byte	0
	.uleb128 0x3
	.long	.LASF187
	.byte	0x9
	.value	0x43b
	.byte	0x7
	.long	.LASF643
	.long	0x7e9e
	.byte	0x1
	.long	0x45ff
	.long	0x4605
	.uleb128 0x2
	.long	0x8da5
	.byte	0
	.uleb128 0x1d
	.long	.LASF374
	.byte	0x12
	.byte	0x43
	.byte	0x5
	.long	.LASF644
	.long	0x4619
	.long	0x4624
	.uleb128 0x2
	.long	0x8d7d
	.uleb128 0x1
	.long	0x4149
	.byte	0
	.uleb128 0x1f
	.long	.LASF131
	.byte	0x9
	.value	0x1c3
	.byte	0x32
	.long	0x7a67
	.uleb128 0x3
	.long	.LASF189
	.byte	0x9
	.value	0x461
	.byte	0x7
	.long	.LASF645
	.long	0x4624
	.byte	0x1
	.long	0x464b
	.long	0x4656
	.uleb128 0x2
	.long	0x8d7d
	.uleb128 0x1
	.long	0x4149
	.byte	0
	.uleb128 0x1f
	.long	.LASF134
	.byte	0x9
	.value	0x1c4
	.byte	0x37
	.long	0x7a73
	.uleb128 0x3
	.long	.LASF189
	.byte	0x9
	.value	0x474
	.byte	0x7
	.long	.LASF646
	.long	0x4656
	.byte	0x1
	.long	0x467d
	.long	0x4688
	.uleb128 0x2
	.long	0x8da5
	.uleb128 0x1
	.long	0x4149
	.byte	0
	.uleb128 0xb
	.long	.LASF647
	.byte	0x9
	.value	0x47e
	.byte	0x7
	.long	.LASF648
	.byte	0x2
	.long	0x469e
	.long	0x46a9
	.uleb128 0x2
	.long	0x8da5
	.uleb128 0x1
	.long	0x4149
	.byte	0
	.uleb128 0x32
	.string	"at"
	.byte	0x9
	.value	0x495
	.long	.LASF649
	.long	0x4624
	.long	0x46c0
	.long	0x46cb
	.uleb128 0x2
	.long	0x8d7d
	.uleb128 0x1
	.long	0x4149
	.byte	0
	.uleb128 0x32
	.string	"at"
	.byte	0x9
	.value	0x4a8
	.long	.LASF650
	.long	0x4656
	.long	0x46e2
	.long	0x46ed
	.uleb128 0x2
	.long	0x8da5
	.uleb128 0x1
	.long	0x4149
	.byte	0
	.uleb128 0x3
	.long	.LASF193
	.byte	0x9
	.value	0x4b4
	.byte	0x7
	.long	.LASF651
	.long	0x4624
	.byte	0x1
	.long	0x4707
	.long	0x470d
	.uleb128 0x2
	.long	0x8d7d
	.byte	0
	.uleb128 0x3
	.long	.LASF193
	.byte	0x9
	.value	0x4c0
	.byte	0x7
	.long	.LASF652
	.long	0x4656
	.byte	0x1
	.long	0x4727
	.long	0x472d
	.uleb128 0x2
	.long	0x8da5
	.byte	0
	.uleb128 0x3
	.long	.LASF195
	.byte	0x9
	.value	0x4cc
	.byte	0x7
	.long	.LASF653
	.long	0x4624
	.byte	0x1
	.long	0x4747
	.long	0x474d
	.uleb128 0x2
	.long	0x8d7d
	.byte	0
	.uleb128 0x3
	.long	.LASF195
	.byte	0x9
	.value	0x4d8
	.byte	0x7
	.long	.LASF654
	.long	0x4656
	.byte	0x1
	.long	0x4767
	.long	0x476d
	.uleb128 0x2
	.long	0x8da5
	.byte	0
	.uleb128 0x3
	.long	.LASF196
	.byte	0x9
	.value	0x4e7
	.byte	0x7
	.long	.LASF655
	.long	0x8cd8
	.byte	0x1
	.long	0x4787
	.long	0x478d
	.uleb128 0x2
	.long	0x8d7d
	.byte	0
	.uleb128 0x3
	.long	.LASF196
	.byte	0x9
	.value	0x4ec
	.byte	0x7
	.long	.LASF656
	.long	0x8cf1
	.byte	0x1
	.long	0x47a7
	.long	0x47ad
	.uleb128 0x2
	.long	0x8da5
	.byte	0
	.uleb128 0xb
	.long	.LASF400
	.byte	0x9
	.value	0x4fc
	.byte	0x7
	.long	.LASF657
	.byte	0x1
	.long	0x47c3
	.long	0x47ce
	.uleb128 0x2
	.long	0x8d7d
	.uleb128 0x1
	.long	0x8d8c
	.byte	0
	.uleb128 0xb
	.long	.LASF400
	.byte	0x9
	.value	0x50d
	.byte	0x7
	.long	.LASF658
	.byte	0x1
	.long	0x47e4
	.long	0x47ef
	.uleb128 0x2
	.long	0x8d7d
	.uleb128 0x1
	.long	0x8daf
	.byte	0
	.uleb128 0xb
	.long	.LASF423
	.byte	0x9
	.value	0x525
	.byte	0x7
	.long	.LASF659
	.byte	0x1
	.long	0x4805
	.long	0x480b
	.uleb128 0x2
	.long	0x8d7d
	.byte	0
	.uleb128 0x12
	.long	.LASF409
	.byte	0x12
	.byte	0x85
	.byte	0x5
	.long	.LASF660
	.long	0x4372
	.byte	0x1
	.long	0x4824
	.long	0x4834
	.uleb128 0x2
	.long	0x8d7d
	.uleb128 0x1
	.long	0x439f
	.uleb128 0x1
	.long	0x8d8c
	.byte	0
	.uleb128 0x3
	.long	.LASF409
	.byte	0x9
	.value	0x56c
	.byte	0x7
	.long	.LASF661
	.long	0x4372
	.byte	0x1
	.long	0x484e
	.long	0x485e
	.uleb128 0x2
	.long	0x8d7d
	.uleb128 0x1
	.long	0x439f
	.uleb128 0x1
	.long	0x8daf
	.byte	0
	.uleb128 0x3
	.long	.LASF409
	.byte	0x9
	.value	0x57e
	.byte	0x7
	.long	.LASF662
	.long	0x4372
	.byte	0x1
	.long	0x4878
	.long	0x4888
	.uleb128 0x2
	.long	0x8d7d
	.uleb128 0x1
	.long	0x439f
	.uleb128 0x1
	.long	0x4be4
	.byte	0
	.uleb128 0x3
	.long	.LASF409
	.byte	0x9
	.value	0x598
	.byte	0x7
	.long	.LASF663
	.long	0x4372
	.byte	0x1
	.long	0x48a2
	.long	0x48b7
	.uleb128 0x2
	.long	0x8d7d
	.uleb128 0x1
	.long	0x439f
	.uleb128 0x1
	.long	0x4149
	.uleb128 0x1
	.long	0x8d8c
	.byte	0
	.uleb128 0x3
	.long	.LASF419
	.byte	0x9
	.value	0x5f9
	.byte	0x7
	.long	.LASF664
	.long	0x4372
	.byte	0x1
	.long	0x48d1
	.long	0x48dc
	.uleb128 0x2
	.long	0x8d7d
	.uleb128 0x1
	.long	0x439f
	.byte	0
	.uleb128 0x3
	.long	.LASF419
	.byte	0x9
	.value	0x615
	.byte	0x7
	.long	.LASF665
	.long	0x4372
	.byte	0x1
	.long	0x48f6
	.long	0x4906
	.uleb128 0x2
	.long	0x8d7d
	.uleb128 0x1
	.long	0x439f
	.uleb128 0x1
	.long	0x439f
	.byte	0
	.uleb128 0xb
	.long	.LASF87
	.byte	0x9
	.value	0x62d
	.byte	0x7
	.long	.LASF666
	.byte	0x1
	.long	0x491c
	.long	0x4927
	.uleb128 0x2
	.long	0x8d7d
	.uleb128 0x1
	.long	0x8da0
	.byte	0
	.uleb128 0xb
	.long	.LASF377
	.byte	0x9
	.value	0x640
	.byte	0x7
	.long	.LASF667
	.byte	0x1
	.long	0x493d
	.long	0x4943
	.uleb128 0x2
	.long	0x8d7d
	.byte	0
	.uleb128 0xb
	.long	.LASF668
	.byte	0x9
	.value	0x6a3
	.byte	0x7
	.long	.LASF669
	.byte	0x2
	.long	0x4959
	.long	0x4969
	.uleb128 0x2
	.long	0x8d7d
	.uleb128 0x1
	.long	0x4149
	.uleb128 0x1
	.long	0x8d8c
	.byte	0
	.uleb128 0xb
	.long	.LASF670
	.byte	0x9
	.value	0x6ae
	.byte	0x7
	.long	.LASF671
	.byte	0x2
	.long	0x497f
	.long	0x498a
	.uleb128 0x2
	.long	0x8d7d
	.uleb128 0x1
	.long	0x4149
	.byte	0
	.uleb128 0xb
	.long	.LASF672
	.byte	0x12
	.value	0x108
	.byte	0x5
	.long	.LASF673
	.byte	0x2
	.long	0x49a0
	.long	0x49b0
	.uleb128 0x2
	.long	0x8d7d
	.uleb128 0x1
	.long	0x56b
	.uleb128 0x1
	.long	0x8d8c
	.byte	0
	.uleb128 0xb
	.long	.LASF674
	.byte	0x12
	.value	0x20b
	.byte	0x5
	.long	.LASF675
	.byte	0x2
	.long	0x49c6
	.long	0x49db
	.uleb128 0x2
	.long	0x8d7d
	.uleb128 0x1
	.long	0x4372
	.uleb128 0x1
	.long	0x4149
	.uleb128 0x1
	.long	0x8d8c
	.byte	0
	.uleb128 0xb
	.long	.LASF676
	.byte	0x12
	.value	0x272
	.byte	0x5
	.long	.LASF677
	.byte	0x2
	.long	0x49f1
	.long	0x49fc
	.uleb128 0x2
	.long	0x8d7d
	.uleb128 0x1
	.long	0x4149
	.byte	0
	.uleb128 0x3
	.long	.LASF678
	.byte	0x12
	.value	0x2bf
	.byte	0x5
	.long	.LASF679
	.long	0x7e9e
	.byte	0x2
	.long	0x4a16
	.long	0x4a1c
	.uleb128 0x2
	.long	0x8d7d
	.byte	0
	.uleb128 0x3
	.long	.LASF680
	.byte	0x12
	.value	0x15e
	.byte	0x5
	.long	.LASF681
	.long	0x4372
	.byte	0x2
	.long	0x4a36
	.long	0x4a46
	.uleb128 0x2
	.long	0x8d7d
	.uleb128 0x1
	.long	0x439f
	.uleb128 0x1
	.long	0x8daf
	.byte	0
	.uleb128 0x3
	.long	.LASF682
	.byte	0x9
	.value	0x75c
	.byte	0x7
	.long	.LASF683
	.long	0x4372
	.byte	0x2
	.long	0x4a60
	.long	0x4a70
	.uleb128 0x2
	.long	0x8d7d
	.uleb128 0x1
	.long	0x439f
	.uleb128 0x1
	.long	0x8daf
	.byte	0
	.uleb128 0x3
	.long	.LASF684
	.byte	0x9
	.value	0x763
	.byte	0x7
	.long	.LASF685
	.long	0x4149
	.byte	0x2
	.long	0x4a8a
	.long	0x4a9a
	.uleb128 0x2
	.long	0x8da5
	.uleb128 0x1
	.long	0x4149
	.uleb128 0x1
	.long	0x2f2
	.byte	0
	.uleb128 0x51
	.long	.LASF686
	.value	0x76e
	.long	.LASF687
	.long	0x4149
	.long	0x4ab8
	.uleb128 0x1
	.long	0x4149
	.uleb128 0x1
	.long	0x8d87
	.byte	0
	.uleb128 0x51
	.long	.LASF688
	.value	0x777
	.long	.LASF689
	.long	0x4149
	.long	0x4ad1
	.uleb128 0x1
	.long	0x8db4
	.byte	0
	.uleb128 0xb
	.long	.LASF690
	.byte	0x9
	.value	0x788
	.byte	0x7
	.long	.LASF691
	.byte	0x2
	.long	0x4ae7
	.long	0x4af2
	.uleb128 0x2
	.long	0x8d7d
	.uleb128 0x1
	.long	0x4033
	.byte	0
	.uleb128 0x12
	.long	.LASF329
	.byte	0x12
	.byte	0xaf
	.byte	0x5
	.long	.LASF692
	.long	0x4372
	.byte	0x2
	.long	0x4b0b
	.long	0x4b16
	.uleb128 0x2
	.long	0x8d7d
	.uleb128 0x1
	.long	0x4372
	.byte	0
	.uleb128 0x12
	.long	.LASF329
	.byte	0x12
	.byte	0xbd
	.byte	0x5
	.long	.LASF693
	.long	0x4372
	.byte	0x2
	.long	0x4b2f
	.long	0x4b3f
	.uleb128 0x2
	.long	0x8d7d
	.uleb128 0x1
	.long	0x4372
	.uleb128 0x1
	.long	0x4372
	.byte	0
	.uleb128 0x1a
	.long	.LASF694
	.byte	0x9
	.value	0x7a2
	.long	.LASF695
	.long	0x4b53
	.long	0x4b63
	.uleb128 0x2
	.long	0x8d7d
	.uleb128 0x1
	.long	0x8d96
	.uleb128 0x1
	.long	0xb78
	.byte	0
	.uleb128 0x1a
	.long	.LASF694
	.byte	0x9
	.value	0x7ae
	.long	.LASF696
	.long	0x4b77
	.long	0x4b87
	.uleb128 0x2
	.long	0x8d7d
	.uleb128 0x1
	.long	0x8d96
	.uleb128 0x1
	.long	0x659
	.byte	0
	.uleb128 0xb
	.long	.LASF697
	.byte	0x9
	.value	0x692
	.byte	0x2
	.long	.LASF698
	.byte	0x2
	.long	0x4ba6
	.long	0x4bbb
	.uleb128 0x6
	.long	.LASF159
	.long	0x8cf1
	.uleb128 0x2
	.long	0x8d7d
	.uleb128 0x1
	.long	0x8cf1
	.uleb128 0x1
	.long	0x8cf1
	.uleb128 0x1
	.long	0xda2
	.byte	0
	.uleb128 0xd
	.string	"_Tp"
	.long	0x6f2e
	.uleb128 0x46
	.long	.LASF492
	.long	0x3a3e
	.byte	0
	.uleb128 0x7
	.long	0x3fa3
	.uleb128 0x5
	.long	.LASF699
	.byte	0x22
	.byte	0x80
	.byte	0xb
	.long	0x3f8d
	.uleb128 0x7
	.long	0x4bd3
	.uleb128 0x2a
	.long	.LASF700
	.byte	0x10
	.byte	0x10
	.byte	0x2f
	.byte	0xb
	.long	0x4cd4
	.uleb128 0x14
	.long	.LASF320
	.byte	0x10
	.byte	0x36
	.byte	0x1a
	.long	0x8cf1
	.byte	0x1
	.uleb128 0x8
	.long	.LASF496
	.byte	0x10
	.byte	0x3a
	.byte	0x12
	.long	0x4bf1
	.byte	0
	.uleb128 0x14
	.long	.LASF137
	.byte	0x10
	.byte	0x35
	.byte	0x18
	.long	0x56b
	.byte	0x1
	.uleb128 0x8
	.long	.LASF244
	.byte	0x10
	.byte	0x3b
	.byte	0x13
	.long	0x4c0b
	.byte	0x8
	.uleb128 0x20
	.long	.LASF497
	.byte	0x10
	.byte	0x3e
	.byte	0x11
	.long	.LASF701
	.long	0x4c39
	.long	0x4c49
	.uleb128 0x2
	.long	0x9069
	.uleb128 0x1
	.long	0x4c49
	.uleb128 0x1
	.long	0x4c0b
	.byte	0
	.uleb128 0x14
	.long	.LASF167
	.byte	0x10
	.byte	0x37
	.byte	0x1a
	.long	0x8cf1
	.byte	0x1
	.uleb128 0x1d
	.long	.LASF497
	.byte	0x10
	.byte	0x42
	.byte	0x11
	.long	.LASF702
	.long	0x4c6a
	.long	0x4c70
	.uleb128 0x2
	.long	0x9069
	.byte	0
	.uleb128 0x12
	.long	.LASF183
	.byte	0x10
	.byte	0x47
	.byte	0x7
	.long	.LASF703
	.long	0x4c0b
	.byte	0x1
	.long	0x4c89
	.long	0x4c8f
	.uleb128 0x2
	.long	0x906e
	.byte	0
	.uleb128 0x12
	.long	.LASF168
	.byte	0x10
	.byte	0x4b
	.byte	0x7
	.long	.LASF704
	.long	0x4c49
	.byte	0x1
	.long	0x4ca8
	.long	0x4cae
	.uleb128 0x2
	.long	0x906e
	.byte	0
	.uleb128 0x4e
	.string	"end"
	.byte	0x10
	.byte	0x4f
	.long	.LASF705
	.long	0x4c49
	.long	0x4cc5
	.long	0x4ccb
	.uleb128 0x2
	.long	0x906e
	.byte	0
	.uleb128 0xd
	.string	"_E"
	.long	0x6f2e
	.byte	0
	.uleb128 0x7
	.long	0x4be4
	.uleb128 0x31
	.long	.LASF706
	.uleb128 0x31
	.long	.LASF707
	.uleb128 0x2a
	.long	.LASF708
	.byte	0x1
	.byte	0xf
	.byte	0x38
	.byte	0xb
	.long	0x4e65
	.uleb128 0x1d
	.long	.LASF123
	.byte	0xf
	.byte	0x50
	.byte	0x7
	.long	.LASF709
	.long	0x4d04
	.long	0x4d0a
	.uleb128 0x2
	.long	0x8db9
	.byte	0
	.uleb128 0x1d
	.long	.LASF123
	.byte	0xf
	.byte	0x53
	.byte	0x7
	.long	.LASF710
	.long	0x4d1e
	.long	0x4d29
	.uleb128 0x2
	.long	0x8db9
	.uleb128 0x1
	.long	0x8dc3
	.byte	0
	.uleb128 0x1d
	.long	.LASF126
	.byte	0xf
	.byte	0x5a
	.byte	0x7
	.long	.LASF711
	.long	0x4d3d
	.long	0x4d48
	.uleb128 0x2
	.long	0x8db9
	.uleb128 0x2
	.long	0x11d
	.byte	0
	.uleb128 0x14
	.long	.LASF130
	.byte	0xf
	.byte	0x3f
	.byte	0x1a
	.long	0x8dc8
	.byte	0x1
	.uleb128 0x12
	.long	.LASF128
	.byte	0xf
	.byte	0x5d
	.byte	0x7
	.long	.LASF712
	.long	0x4d48
	.byte	0x1
	.long	0x4d6e
	.long	0x4d79
	.uleb128 0x2
	.long	0x8dd2
	.uleb128 0x1
	.long	0x4d79
	.byte	0
	.uleb128 0x14
	.long	.LASF131
	.byte	0xf
	.byte	0x41
	.byte	0x1a
	.long	0x8ddc
	.byte	0x1
	.uleb128 0x14
	.long	.LASF132
	.byte	0xf
	.byte	0x40
	.byte	0x1a
	.long	0x2ed
	.byte	0x1
	.uleb128 0x12
	.long	.LASF128
	.byte	0xf
	.byte	0x61
	.byte	0x7
	.long	.LASF713
	.long	0x4d86
	.byte	0x1
	.long	0x4dac
	.long	0x4db7
	.uleb128 0x2
	.long	0x8dd2
	.uleb128 0x1
	.long	0x4db7
	.byte	0
	.uleb128 0x14
	.long	.LASF134
	.byte	0xf
	.byte	0x42
	.byte	0x1a
	.long	0x8b54
	.byte	0x1
	.uleb128 0x12
	.long	.LASF135
	.byte	0xf
	.byte	0x70
	.byte	0x7
	.long	.LASF714
	.long	0x8dc8
	.byte	0x1
	.long	0x4ddd
	.long	0x4ded
	.uleb128 0x2
	.long	0x8db9
	.uleb128 0x1
	.long	0x4ded
	.uleb128 0x1
	.long	0x82fb
	.byte	0
	.uleb128 0x14
	.long	.LASF137
	.byte	0xf
	.byte	0x3c
	.byte	0x1f
	.long	0x56b
	.byte	0x1
	.uleb128 0x1d
	.long	.LASF138
	.byte	0xf
	.byte	0x8e
	.byte	0x7
	.long	.LASF715
	.long	0x4e0e
	.long	0x4e1e
	.uleb128 0x2
	.long	0x8db9
	.uleb128 0x1
	.long	0x8dc8
	.uleb128 0x1
	.long	0x4ded
	.byte	0
	.uleb128 0x12
	.long	.LASF140
	.byte	0xf
	.byte	0xa7
	.byte	0x7
	.long	.LASF716
	.long	0x4ded
	.byte	0x1
	.long	0x4e37
	.long	0x4e3d
	.uleb128 0x2
	.long	0x8dd2
	.byte	0
	.uleb128 0x35
	.long	.LASF142
	.byte	0xf
	.byte	0xd2
	.byte	0x7
	.long	.LASF717
	.long	0x4ded
	.long	0x4e55
	.long	0x4e5b
	.uleb128 0x2
	.long	0x8dd2
	.byte	0
	.uleb128 0xd
	.string	"_Tp"
	.long	0x11d
	.byte	0
	.uleb128 0x7
	.long	0x4ce3
	.uleb128 0x2a
	.long	.LASF718
	.byte	0x1
	.byte	0xb
	.byte	0x7c
	.byte	0xb
	.long	0x4ef2
	.uleb128 0x45
	.long	0x4ce3
	.byte	0x1
	.uleb128 0x1d
	.long	.LASF145
	.byte	0xb
	.byte	0x9c
	.byte	0x7
	.long	.LASF719
	.long	0x4e91
	.long	0x4e97
	.uleb128 0x2
	.long	0x8de1
	.byte	0
	.uleb128 0x1d
	.long	.LASF145
	.byte	0xb
	.byte	0x9f
	.byte	0x7
	.long	.LASF720
	.long	0x4eab
	.long	0x4eb6
	.uleb128 0x2
	.long	0x8de1
	.uleb128 0x1
	.long	0x8deb
	.byte	0
	.uleb128 0x4d
	.long	.LASF82
	.byte	0xb
	.byte	0xa4
	.byte	0x12
	.long	.LASF721
	.long	0x8df0
	.long	0x4ece
	.long	0x4ed9
	.uleb128 0x2
	.long	0x8de1
	.uleb128 0x1
	.long	0x8deb
	.byte	0
	.uleb128 0x59
	.long	.LASF151
	.long	.LASF722
	.long	0x4ee6
	.uleb128 0x2
	.long	0x8de1
	.uleb128 0x2
	.long	0x11d
	.byte	0
	.byte	0
	.uleb128 0x7
	.long	0x4e6a
	.uleb128 0x3e
	.long	.LASF723
	.byte	0xd
	.value	0x19b
	.long	0x4ff3
	.uleb128 0x1e
	.long	.LASF130
	.byte	0xd
	.value	0x1a4
	.byte	0xd
	.long	0x8dc8
	.uleb128 0xe
	.long	.LASF135
	.byte	0xd
	.value	0x1cf
	.byte	0x7
	.long	.LASF724
	.long	0x4f03
	.long	0x4f30
	.uleb128 0x1
	.long	0x8df5
	.uleb128 0x1
	.long	0x4f42
	.byte	0
	.uleb128 0x1e
	.long	.LASF250
	.byte	0xd
	.value	0x19e
	.byte	0xd
	.long	0x4e6a
	.uleb128 0x7
	.long	0x4f30
	.uleb128 0x1e
	.long	.LASF137
	.byte	0xd
	.value	0x1b3
	.byte	0xd
	.long	0x56b
	.uleb128 0xe
	.long	.LASF135
	.byte	0xd
	.value	0x1dd
	.byte	0x7
	.long	.LASF725
	.long	0x4f03
	.long	0x4f74
	.uleb128 0x1
	.long	0x8df5
	.uleb128 0x1
	.long	0x4f42
	.uleb128 0x1
	.long	0x4f74
	.byte	0
	.uleb128 0x1e
	.long	.LASF252
	.byte	0xd
	.value	0x1ad
	.byte	0xd
	.long	0x82fb
	.uleb128 0x2c
	.long	.LASF138
	.byte	0xd
	.value	0x1ef
	.byte	0x7
	.long	.LASF726
	.long	0x4fa2
	.uleb128 0x1
	.long	0x8df5
	.uleb128 0x1
	.long	0x4f03
	.uleb128 0x1
	.long	0x4f42
	.byte	0
	.uleb128 0xe
	.long	.LASF140
	.byte	0xd
	.value	0x223
	.byte	0x7
	.long	.LASF727
	.long	0x4f42
	.long	0x4fbd
	.uleb128 0x1
	.long	0x8dfa
	.byte	0
	.uleb128 0xe
	.long	.LASF256
	.byte	0xd
	.value	0x232
	.byte	0x7
	.long	.LASF728
	.long	0x4f30
	.long	0x4fd8
	.uleb128 0x1
	.long	0x8dfa
	.byte	0
	.uleb128 0x1e
	.long	.LASF56
	.byte	0xd
	.value	0x1a1
	.byte	0xd
	.long	0x11d
	.uleb128 0x1e
	.long	.LASF258
	.byte	0xd
	.value	0x1c2
	.byte	0x8
	.long	0x4e6a
	.byte	0
	.uleb128 0x19
	.long	.LASF729
	.byte	0x18
	.byte	0x9
	.byte	0x55
	.byte	0xc
	.long	0x53a7
	.uleb128 0x19
	.long	.LASF549
	.byte	0x18
	.byte	0x9
	.byte	0x5c
	.byte	0xe
	.long	0x50a6
	.uleb128 0x8
	.long	.LASF550
	.byte	0x9
	.byte	0x5e
	.byte	0xa
	.long	0x50ab
	.byte	0
	.uleb128 0x8
	.long	.LASF551
	.byte	0x9
	.byte	0x5f
	.byte	0xa
	.long	0x50ab
	.byte	0x8
	.uleb128 0x8
	.long	.LASF552
	.byte	0x9
	.byte	0x60
	.byte	0xa
	.long	0x50ab
	.byte	0x10
	.uleb128 0x20
	.long	.LASF549
	.byte	0x9
	.byte	0x63
	.byte	0x2
	.long	.LASF730
	.long	0x5048
	.long	0x504e
	.uleb128 0x2
	.long	0x8e09
	.byte	0
	.uleb128 0x20
	.long	.LASF549
	.byte	0x9
	.byte	0x69
	.byte	0x2
	.long	.LASF731
	.long	0x5062
	.long	0x506d
	.uleb128 0x2
	.long	0x8e09
	.uleb128 0x1
	.long	0x8e13
	.byte	0
	.uleb128 0x20
	.long	.LASF555
	.byte	0x9
	.byte	0x71
	.byte	0x2
	.long	.LASF732
	.long	0x5081
	.long	0x508c
	.uleb128 0x2
	.long	0x8e09
	.uleb128 0x1
	.long	0x8e18
	.byte	0
	.uleb128 0x6d
	.long	.LASF557
	.byte	0x7a
	.long	.LASF733
	.long	0x509a
	.uleb128 0x2
	.long	0x8e09
	.uleb128 0x1
	.long	0x8e1d
	.byte	0
	.byte	0
	.uleb128 0x7
	.long	0x5000
	.uleb128 0x5
	.long	.LASF130
	.byte	0x9
	.byte	0x5a
	.byte	0x9
	.long	0x7da2
	.uleb128 0x19
	.long	.LASF560
	.byte	0x18
	.byte	0x9
	.byte	0x85
	.byte	0xe
	.long	0x5182
	.uleb128 0x36
	.long	0x4e6a
	.uleb128 0x36
	.long	0x5000
	.uleb128 0x20
	.long	.LASF560
	.byte	0x9
	.byte	0x89
	.byte	0x2
	.long	.LASF734
	.long	0x50e2
	.long	0x50e8
	.uleb128 0x2
	.long	0x8e22
	.byte	0
	.uleb128 0x20
	.long	.LASF560
	.byte	0x9
	.byte	0x8f
	.byte	0x2
	.long	.LASF735
	.long	0x50fc
	.long	0x5107
	.uleb128 0x2
	.long	0x8e22
	.uleb128 0x1
	.long	0x8e2c
	.byte	0
	.uleb128 0x20
	.long	.LASF560
	.byte	0x9
	.byte	0x97
	.byte	0x2
	.long	.LASF736
	.long	0x511b
	.long	0x5126
	.uleb128 0x2
	.long	0x8e22
	.uleb128 0x1
	.long	0x8e31
	.byte	0
	.uleb128 0x20
	.long	.LASF560
	.byte	0x9
	.byte	0x9c
	.byte	0x2
	.long	.LASF737
	.long	0x513a
	.long	0x5145
	.uleb128 0x2
	.long	0x8e22
	.uleb128 0x1
	.long	0x8e36
	.byte	0
	.uleb128 0x20
	.long	.LASF560
	.byte	0x9
	.byte	0xa1
	.byte	0x2
	.long	.LASF738
	.long	0x5159
	.long	0x5169
	.uleb128 0x2
	.long	0x8e22
	.uleb128 0x1
	.long	0x8e36
	.uleb128 0x1
	.long	0x8e31
	.byte	0
	.uleb128 0x5a
	.long	.LASF567
	.long	.LASF739
	.long	0x5176
	.uleb128 0x2
	.long	0x8e22
	.uleb128 0x2
	.long	0x11d
	.byte	0
	.byte	0
	.uleb128 0x5
	.long	.LASF570
	.byte	0x9
	.byte	0x58
	.byte	0x15
	.long	0x7dd3
	.uleb128 0x7
	.long	0x5182
	.uleb128 0x27
	.long	.LASF571
	.byte	0x9
	.value	0x12a
	.long	.LASF740
	.long	0x8e3b
	.long	0x51ab
	.long	0x51b1
	.uleb128 0x2
	.long	0x8e40
	.byte	0
	.uleb128 0x27
	.long	.LASF571
	.byte	0x9
	.value	0x12f
	.long	.LASF741
	.long	0x8e2c
	.long	0x51c9
	.long	0x51cf
	.uleb128 0x2
	.long	0x8e4a
	.byte	0
	.uleb128 0x1e
	.long	.LASF250
	.byte	0x9
	.value	0x126
	.byte	0x16
	.long	0x4e6a
	.uleb128 0x7
	.long	0x51cf
	.uleb128 0x27
	.long	.LASF452
	.byte	0x9
	.value	0x134
	.long	.LASF742
	.long	0x51cf
	.long	0x51f9
	.long	0x51ff
	.uleb128 0x2
	.long	0x8e4a
	.byte	0
	.uleb128 0x50
	.long	.LASF575
	.value	0x138
	.long	.LASF743
	.long	0x5212
	.long	0x5218
	.uleb128 0x2
	.long	0x8e40
	.byte	0
	.uleb128 0x1a
	.long	.LASF575
	.byte	0x9
	.value	0x13e
	.long	.LASF744
	.long	0x522c
	.long	0x5237
	.uleb128 0x2
	.long	0x8e40
	.uleb128 0x1
	.long	0x8e54
	.byte	0
	.uleb128 0x1a
	.long	.LASF575
	.byte	0x9
	.value	0x144
	.long	.LASF745
	.long	0x524b
	.long	0x5256
	.uleb128 0x2
	.long	0x8e40
	.uleb128 0x1
	.long	0x56b
	.byte	0
	.uleb128 0x1a
	.long	.LASF575
	.byte	0x9
	.value	0x14a
	.long	.LASF746
	.long	0x526a
	.long	0x527a
	.uleb128 0x2
	.long	0x8e40
	.uleb128 0x1
	.long	0x56b
	.uleb128 0x1
	.long	0x8e54
	.byte	0
	.uleb128 0x50
	.long	.LASF575
	.value	0x14f
	.long	.LASF747
	.long	0x528d
	.long	0x5298
	.uleb128 0x2
	.long	0x8e40
	.uleb128 0x1
	.long	0x8e59
	.byte	0
	.uleb128 0x1a
	.long	.LASF575
	.byte	0x9
	.value	0x154
	.long	.LASF748
	.long	0x52ac
	.long	0x52b7
	.uleb128 0x2
	.long	0x8e40
	.uleb128 0x1
	.long	0x8e36
	.byte	0
	.uleb128 0x1a
	.long	.LASF575
	.byte	0x9
	.value	0x158
	.long	.LASF749
	.long	0x52cb
	.long	0x52db
	.uleb128 0x2
	.long	0x8e40
	.uleb128 0x1
	.long	0x8e59
	.uleb128 0x1
	.long	0x8e54
	.byte	0
	.uleb128 0x1a
	.long	.LASF575
	.byte	0x9
	.value	0x166
	.long	.LASF750
	.long	0x52ef
	.long	0x52ff
	.uleb128 0x2
	.long	0x8e40
	.uleb128 0x1
	.long	0x8e54
	.uleb128 0x1
	.long	0x8e59
	.byte	0
	.uleb128 0x1a
	.long	.LASF584
	.byte	0x9
	.value	0x16c
	.long	.LASF751
	.long	0x5313
	.long	0x531e
	.uleb128 0x2
	.long	0x8e40
	.uleb128 0x2
	.long	0x11d
	.byte	0
	.uleb128 0x4f
	.long	.LASF586
	.byte	0x9
	.value	0x173
	.byte	0x14
	.long	0x50b7
	.byte	0
	.uleb128 0x27
	.long	.LASF587
	.byte	0x9
	.value	0x177
	.long	.LASF752
	.long	0x50ab
	.long	0x5344
	.long	0x534f
	.uleb128 0x2
	.long	0x8e40
	.uleb128 0x1
	.long	0x56b
	.byte	0
	.uleb128 0x1a
	.long	.LASF589
	.byte	0x9
	.value	0x17f
	.long	.LASF753
	.long	0x5363
	.long	0x5373
	.uleb128 0x2
	.long	0x8e40
	.uleb128 0x1
	.long	0x50ab
	.uleb128 0x1
	.long	0x56b
	.byte	0
	.uleb128 0xb
	.long	.LASF591
	.byte	0x9
	.value	0x189
	.byte	0x7
	.long	.LASF754
	.byte	0x2
	.long	0x5389
	.long	0x5394
	.uleb128 0x2
	.long	0x8e40
	.uleb128 0x1
	.long	0x56b
	.byte	0
	.uleb128 0xd
	.string	"_Tp"
	.long	0x11d
	.uleb128 0x6
	.long	.LASF492
	.long	0x4e6a
	.byte	0
	.uleb128 0x7
	.long	0x4ff3
	.uleb128 0x19
	.long	.LASF755
	.byte	0x1
	.byte	0x22
	.byte	0x7c
	.byte	0xc
	.long	0x53cf
	.uleb128 0x5
	.long	.LASF594
	.byte	0x22
	.byte	0x7d
	.byte	0xd
	.long	0x4e6a
	.uleb128 0x6
	.long	.LASF595
	.long	0x4e6a
	.byte	0
	.uleb128 0x48
	.long	.LASF756
	.byte	0x18
	.byte	0x9
	.value	0x1a7
	.long	0x5fc6
	.uleb128 0x21
	.byte	0x9
	.value	0x1a7
	.byte	0xb
	.long	0x532c
	.uleb128 0x21
	.byte	0x9
	.value	0x1a7
	.byte	0xb
	.long	0x534f
	.uleb128 0x21
	.byte	0x9
	.value	0x1a7
	.byte	0xb
	.long	0x531e
	.uleb128 0x21
	.byte	0x9
	.value	0x1a7
	.byte	0xb
	.long	0x51b1
	.uleb128 0x21
	.byte	0x9
	.value	0x1a7
	.byte	0xb
	.long	0x5193
	.uleb128 0x21
	.byte	0x9
	.value	0x1a7
	.byte	0xb
	.long	0x51e1
	.uleb128 0x45
	.long	0x4ff3
	.byte	0x2
	.uleb128 0xe
	.long	.LASF597
	.byte	0x9
	.value	0x1d1
	.byte	0x7
	.long	.LASF757
	.long	0x7e9e
	.long	0x5433
	.uleb128 0x1
	.long	0xb78
	.byte	0
	.uleb128 0xe
	.long	.LASF597
	.byte	0x9
	.value	0x1da
	.byte	0x7
	.long	.LASF758
	.long	0x7e9e
	.long	0x544e
	.uleb128 0x1
	.long	0x659
	.byte	0
	.uleb128 0x5c
	.long	.LASF600
	.byte	0x9
	.value	0x1de
	.byte	0x7
	.long	.LASF760
	.long	0x7e9e
	.uleb128 0x1f
	.long	.LASF130
	.byte	0x9
	.value	0x1c1
	.byte	0x29
	.long	0x50ab
	.uleb128 0xe
	.long	.LASF601
	.byte	0x9
	.value	0x1e7
	.byte	0x7
	.long	.LASF761
	.long	0x545f
	.long	0x549b
	.uleb128 0x1
	.long	0x545f
	.uleb128 0x1
	.long	0x545f
	.uleb128 0x1
	.long	0x545f
	.uleb128 0x1
	.long	0x8e5e
	.uleb128 0x1
	.long	0xb78
	.byte	0
	.uleb128 0x1e
	.long	.LASF570
	.byte	0x9
	.value	0x1bc
	.byte	0x2f
	.long	0x5182
	.uleb128 0x7
	.long	0x549b
	.uleb128 0xe
	.long	.LASF601
	.byte	0x9
	.value	0x1ee
	.byte	0x7
	.long	.LASF762
	.long	0x545f
	.long	0x54dc
	.uleb128 0x1
	.long	0x545f
	.uleb128 0x1
	.long	0x545f
	.uleb128 0x1
	.long	0x545f
	.uleb128 0x1
	.long	0x8e5e
	.uleb128 0x1
	.long	0x659
	.byte	0
	.uleb128 0xe
	.long	.LASF604
	.byte	0x9
	.value	0x1f3
	.byte	0x7
	.long	.LASF763
	.long	0x545f
	.long	0x5506
	.uleb128 0x1
	.long	0x545f
	.uleb128 0x1
	.long	0x545f
	.uleb128 0x1
	.long	0x545f
	.uleb128 0x1
	.long	0x8e5e
	.byte	0
	.uleb128 0x47
	.long	.LASF606
	.byte	0x9
	.value	0x20e
	.long	.LASF764
	.long	0x551a
	.long	0x5520
	.uleb128 0x2
	.long	0x8e63
	.byte	0
	.uleb128 0x3b
	.long	.LASF606
	.byte	0x9
	.value	0x219
	.long	.LASF765
	.long	0x5534
	.long	0x553f
	.uleb128 0x2
	.long	0x8e63
	.uleb128 0x1
	.long	0x8e6d
	.byte	0
	.uleb128 0x1f
	.long	.LASF250
	.byte	0x9
	.value	0x1cc
	.byte	0x1a
	.long	0x4e6a
	.uleb128 0x7
	.long	0x553f
	.uleb128 0x3b
	.long	.LASF606
	.byte	0x9
	.value	0x227
	.long	.LASF766
	.long	0x5565
	.long	0x5575
	.uleb128 0x2
	.long	0x8e63
	.uleb128 0x1
	.long	0x5575
	.uleb128 0x1
	.long	0x8e6d
	.byte	0
	.uleb128 0x1f
	.long	.LASF137
	.byte	0x9
	.value	0x1ca
	.byte	0x1a
	.long	0x56b
	.uleb128 0x7
	.long	0x5575
	.uleb128 0xb
	.long	.LASF606
	.byte	0x9
	.value	0x234
	.byte	0x7
	.long	.LASF767
	.byte	0x1
	.long	0x559d
	.long	0x55b2
	.uleb128 0x2
	.long	0x8e63
	.uleb128 0x1
	.long	0x5575
	.uleb128 0x1
	.long	0x8e72
	.uleb128 0x1
	.long	0x8e6d
	.byte	0
	.uleb128 0x1f
	.long	.LASF56
	.byte	0x9
	.value	0x1c0
	.byte	0x17
	.long	0x11d
	.uleb128 0x7
	.long	0x55b2
	.uleb128 0xb
	.long	.LASF606
	.byte	0x9
	.value	0x254
	.byte	0x7
	.long	.LASF768
	.byte	0x1
	.long	0x55da
	.long	0x55e5
	.uleb128 0x2
	.long	0x8e63
	.uleb128 0x1
	.long	0x8e77
	.byte	0
	.uleb128 0x47
	.long	.LASF606
	.byte	0x9
	.value	0x267
	.long	.LASF769
	.long	0x55f9
	.long	0x5604
	.uleb128 0x2
	.long	0x8e63
	.uleb128 0x1
	.long	0x8e7c
	.byte	0
	.uleb128 0xb
	.long	.LASF606
	.byte	0x9
	.value	0x26b
	.byte	0x7
	.long	.LASF770
	.byte	0x1
	.long	0x561a
	.long	0x562a
	.uleb128 0x2
	.long	0x8e63
	.uleb128 0x1
	.long	0x8e77
	.uleb128 0x1
	.long	0x8e81
	.byte	0
	.uleb128 0x1a
	.long	.LASF606
	.byte	0x9
	.value	0x276
	.long	.LASF771
	.long	0x563e
	.long	0x5653
	.uleb128 0x2
	.long	0x8e63
	.uleb128 0x1
	.long	0x8e7c
	.uleb128 0x1
	.long	0x8e6d
	.uleb128 0x1
	.long	0xb78
	.byte	0
	.uleb128 0x1a
	.long	.LASF606
	.byte	0x9
	.value	0x27b
	.long	.LASF772
	.long	0x5667
	.long	0x567c
	.uleb128 0x2
	.long	0x8e63
	.uleb128 0x1
	.long	0x8e7c
	.uleb128 0x1
	.long	0x8e6d
	.uleb128 0x1
	.long	0x659
	.byte	0
	.uleb128 0xb
	.long	.LASF606
	.byte	0x9
	.value	0x28e
	.byte	0x7
	.long	.LASF773
	.byte	0x1
	.long	0x5692
	.long	0x56a2
	.uleb128 0x2
	.long	0x8e63
	.uleb128 0x1
	.long	0x8e7c
	.uleb128 0x1
	.long	0x8e81
	.byte	0
	.uleb128 0xb
	.long	.LASF606
	.byte	0x9
	.value	0x2a1
	.byte	0x7
	.long	.LASF774
	.byte	0x1
	.long	0x56b8
	.long	0x56c8
	.uleb128 0x2
	.long	0x8e63
	.uleb128 0x1
	.long	0x5fdc
	.uleb128 0x1
	.long	0x8e6d
	.byte	0
	.uleb128 0xb
	.long	.LASF618
	.byte	0x9
	.value	0x2d8
	.byte	0x7
	.long	.LASF775
	.byte	0x1
	.long	0x56de
	.long	0x56e9
	.uleb128 0x2
	.long	0x8e63
	.uleb128 0x2
	.long	0x11d
	.byte	0
	.uleb128 0x12
	.long	.LASF82
	.byte	0x12
	.byte	0xcc
	.byte	0x5
	.long	.LASF776
	.long	0x8e86
	.byte	0x1
	.long	0x5702
	.long	0x570d
	.uleb128 0x2
	.long	0x8e63
	.uleb128 0x1
	.long	0x8e77
	.byte	0
	.uleb128 0x3
	.long	.LASF82
	.byte	0x9
	.value	0x2f9
	.byte	0x7
	.long	.LASF777
	.long	0x8e86
	.byte	0x1
	.long	0x5727
	.long	0x5732
	.uleb128 0x2
	.long	0x8e63
	.uleb128 0x1
	.long	0x8e7c
	.byte	0
	.uleb128 0x3
	.long	.LASF82
	.byte	0x9
	.value	0x30f
	.byte	0x7
	.long	.LASF778
	.long	0x8e86
	.byte	0x1
	.long	0x574c
	.long	0x5757
	.uleb128 0x2
	.long	0x8e63
	.uleb128 0x1
	.long	0x5fdc
	.byte	0
	.uleb128 0xb
	.long	.LASF108
	.byte	0x9
	.value	0x323
	.byte	0x7
	.long	.LASF779
	.byte	0x1
	.long	0x576d
	.long	0x577d
	.uleb128 0x2
	.long	0x8e63
	.uleb128 0x1
	.long	0x5575
	.uleb128 0x1
	.long	0x8e72
	.byte	0
	.uleb128 0xb
	.long	.LASF108
	.byte	0x9
	.value	0x352
	.byte	0x7
	.long	.LASF780
	.byte	0x1
	.long	0x5793
	.long	0x579e
	.uleb128 0x2
	.long	0x8e63
	.uleb128 0x1
	.long	0x5fdc
	.byte	0
	.uleb128 0x1f
	.long	.LASF320
	.byte	0x9
	.value	0x1c5
	.byte	0x3d
	.long	0x7df3
	.uleb128 0x3
	.long	.LASF168
	.byte	0x9
	.value	0x364
	.byte	0x7
	.long	.LASF781
	.long	0x579e
	.byte	0x1
	.long	0x57c5
	.long	0x57cb
	.uleb128 0x2
	.long	0x8e63
	.byte	0
	.uleb128 0x1f
	.long	.LASF167
	.byte	0x9
	.value	0x1c7
	.byte	0x7
	.long	0x7df8
	.uleb128 0x3
	.long	.LASF168
	.byte	0x9
	.value	0x36e
	.byte	0x7
	.long	.LASF782
	.long	0x57cb
	.byte	0x1
	.long	0x57f2
	.long	0x57f8
	.uleb128 0x2
	.long	0x8e8b
	.byte	0
	.uleb128 0x32
	.string	"end"
	.byte	0x9
	.value	0x378
	.long	.LASF783
	.long	0x579e
	.long	0x5810
	.long	0x5816
	.uleb128 0x2
	.long	0x8e63
	.byte	0
	.uleb128 0x32
	.string	"end"
	.byte	0x9
	.value	0x382
	.long	.LASF784
	.long	0x57cb
	.long	0x582e
	.long	0x5834
	.uleb128 0x2
	.long	0x8e8b
	.byte	0
	.uleb128 0x1f
	.long	.LASF355
	.byte	0x9
	.value	0x1c9
	.byte	0x30
	.long	0x5fe1
	.uleb128 0x3
	.long	.LASF175
	.byte	0x9
	.value	0x38c
	.byte	0x7
	.long	.LASF785
	.long	0x5834
	.byte	0x1
	.long	0x585b
	.long	0x5861
	.uleb128 0x2
	.long	0x8e63
	.byte	0
	.uleb128 0x1f
	.long	.LASF174
	.byte	0x9
	.value	0x1c8
	.byte	0x35
	.long	0x5fe6
	.uleb128 0x3
	.long	.LASF175
	.byte	0x9
	.value	0x396
	.byte	0x7
	.long	.LASF786
	.long	0x5861
	.byte	0x1
	.long	0x5888
	.long	0x588e
	.uleb128 0x2
	.long	0x8e8b
	.byte	0
	.uleb128 0x3
	.long	.LASF177
	.byte	0x9
	.value	0x3a0
	.byte	0x7
	.long	.LASF787
	.long	0x5834
	.byte	0x1
	.long	0x58a8
	.long	0x58ae
	.uleb128 0x2
	.long	0x8e63
	.byte	0
	.uleb128 0x3
	.long	.LASF177
	.byte	0x9
	.value	0x3aa
	.byte	0x7
	.long	.LASF788
	.long	0x5861
	.byte	0x1
	.long	0x58c8
	.long	0x58ce
	.uleb128 0x2
	.long	0x8e8b
	.byte	0
	.uleb128 0x3
	.long	.LASF170
	.byte	0x9
	.value	0x3b5
	.byte	0x7
	.long	.LASF789
	.long	0x57cb
	.byte	0x1
	.long	0x58e8
	.long	0x58ee
	.uleb128 0x2
	.long	0x8e8b
	.byte	0
	.uleb128 0x3
	.long	.LASF172
	.byte	0x9
	.value	0x3bf
	.byte	0x7
	.long	.LASF790
	.long	0x57cb
	.byte	0x1
	.long	0x5908
	.long	0x590e
	.uleb128 0x2
	.long	0x8e8b
	.byte	0
	.uleb128 0x3
	.long	.LASF179
	.byte	0x9
	.value	0x3c9
	.byte	0x7
	.long	.LASF791
	.long	0x5861
	.byte	0x1
	.long	0x5928
	.long	0x592e
	.uleb128 0x2
	.long	0x8e8b
	.byte	0
	.uleb128 0x3
	.long	.LASF181
	.byte	0x9
	.value	0x3d3
	.byte	0x7
	.long	.LASF792
	.long	0x5861
	.byte	0x1
	.long	0x5948
	.long	0x594e
	.uleb128 0x2
	.long	0x8e8b
	.byte	0
	.uleb128 0x3
	.long	.LASF183
	.byte	0x9
	.value	0x3db
	.byte	0x7
	.long	.LASF793
	.long	0x5575
	.byte	0x1
	.long	0x5968
	.long	0x596e
	.uleb128 0x2
	.long	0x8e8b
	.byte	0
	.uleb128 0x3
	.long	.LASF140
	.byte	0x9
	.value	0x3e1
	.byte	0x7
	.long	.LASF794
	.long	0x5575
	.byte	0x1
	.long	0x5988
	.long	0x598e
	.uleb128 0x2
	.long	0x8e8b
	.byte	0
	.uleb128 0xb
	.long	.LASF367
	.byte	0x9
	.value	0x3f0
	.byte	0x7
	.long	.LASF795
	.byte	0x1
	.long	0x59a4
	.long	0x59af
	.uleb128 0x2
	.long	0x8e63
	.uleb128 0x1
	.long	0x5575
	.byte	0
	.uleb128 0xb
	.long	.LASF367
	.byte	0x9
	.value	0x405
	.byte	0x7
	.long	.LASF796
	.byte	0x1
	.long	0x59c5
	.long	0x59d5
	.uleb128 0x2
	.long	0x8e63
	.uleb128 0x1
	.long	0x5575
	.uleb128 0x1
	.long	0x8e72
	.byte	0
	.uleb128 0xb
	.long	.LASF370
	.byte	0x9
	.value	0x427
	.byte	0x7
	.long	.LASF797
	.byte	0x1
	.long	0x59eb
	.long	0x59f1
	.uleb128 0x2
	.long	0x8e63
	.byte	0
	.uleb128 0x3
	.long	.LASF372
	.byte	0x9
	.value	0x431
	.byte	0x7
	.long	.LASF798
	.long	0x5575
	.byte	0x1
	.long	0x5a0b
	.long	0x5a11
	.uleb128 0x2
	.long	0x8e8b
	.byte	0
	.uleb128 0x3
	.long	.LASF187
	.byte	0x9
	.value	0x43b
	.byte	0x7
	.long	.LASF799
	.long	0x7e9e
	.byte	0x1
	.long	0x5a2b
	.long	0x5a31
	.uleb128 0x2
	.long	0x8e8b
	.byte	0
	.uleb128 0x1d
	.long	.LASF374
	.byte	0x12
	.byte	0x43
	.byte	0x5
	.long	.LASF800
	.long	0x5a45
	.long	0x5a50
	.uleb128 0x2
	.long	0x8e63
	.uleb128 0x1
	.long	0x5575
	.byte	0
	.uleb128 0x1f
	.long	.LASF131
	.byte	0x9
	.value	0x1c3
	.byte	0x32
	.long	0x7dae
	.uleb128 0x3
	.long	.LASF189
	.byte	0x9
	.value	0x461
	.byte	0x7
	.long	.LASF801
	.long	0x5a50
	.byte	0x1
	.long	0x5a77
	.long	0x5a82
	.uleb128 0x2
	.long	0x8e63
	.uleb128 0x1
	.long	0x5575
	.byte	0
	.uleb128 0x1f
	.long	.LASF134
	.byte	0x9
	.value	0x1c4
	.byte	0x37
	.long	0x7dba
	.uleb128 0x3
	.long	.LASF189
	.byte	0x9
	.value	0x474
	.byte	0x7
	.long	.LASF802
	.long	0x5a82
	.byte	0x1
	.long	0x5aa9
	.long	0x5ab4
	.uleb128 0x2
	.long	0x8e8b
	.uleb128 0x1
	.long	0x5575
	.byte	0
	.uleb128 0xb
	.long	.LASF647
	.byte	0x9
	.value	0x47e
	.byte	0x7
	.long	.LASF803
	.byte	0x2
	.long	0x5aca
	.long	0x5ad5
	.uleb128 0x2
	.long	0x8e8b
	.uleb128 0x1
	.long	0x5575
	.byte	0
	.uleb128 0x32
	.string	"at"
	.byte	0x9
	.value	0x495
	.long	.LASF804
	.long	0x5a50
	.long	0x5aec
	.long	0x5af7
	.uleb128 0x2
	.long	0x8e63
	.uleb128 0x1
	.long	0x5575
	.byte	0
	.uleb128 0x32
	.string	"at"
	.byte	0x9
	.value	0x4a8
	.long	.LASF805
	.long	0x5a82
	.long	0x5b0e
	.long	0x5b19
	.uleb128 0x2
	.long	0x8e8b
	.uleb128 0x1
	.long	0x5575
	.byte	0
	.uleb128 0x3
	.long	.LASF193
	.byte	0x9
	.value	0x4b4
	.byte	0x7
	.long	.LASF806
	.long	0x5a50
	.byte	0x1
	.long	0x5b33
	.long	0x5b39
	.uleb128 0x2
	.long	0x8e63
	.byte	0
	.uleb128 0x3
	.long	.LASF193
	.byte	0x9
	.value	0x4c0
	.byte	0x7
	.long	.LASF807
	.long	0x5a82
	.byte	0x1
	.long	0x5b53
	.long	0x5b59
	.uleb128 0x2
	.long	0x8e8b
	.byte	0
	.uleb128 0x3
	.long	.LASF195
	.byte	0x9
	.value	0x4cc
	.byte	0x7
	.long	.LASF808
	.long	0x5a50
	.byte	0x1
	.long	0x5b73
	.long	0x5b79
	.uleb128 0x2
	.long	0x8e63
	.byte	0
	.uleb128 0x3
	.long	.LASF195
	.byte	0x9
	.value	0x4d8
	.byte	0x7
	.long	.LASF809
	.long	0x5a82
	.byte	0x1
	.long	0x5b93
	.long	0x5b99
	.uleb128 0x2
	.long	0x8e8b
	.byte	0
	.uleb128 0x3
	.long	.LASF196
	.byte	0x9
	.value	0x4e7
	.byte	0x7
	.long	.LASF810
	.long	0x8dc8
	.byte	0x1
	.long	0x5bb3
	.long	0x5bb9
	.uleb128 0x2
	.long	0x8e63
	.byte	0
	.uleb128 0x3
	.long	.LASF196
	.byte	0x9
	.value	0x4ec
	.byte	0x7
	.long	.LASF811
	.long	0x2ed
	.byte	0x1
	.long	0x5bd3
	.long	0x5bd9
	.uleb128 0x2
	.long	0x8e8b
	.byte	0
	.uleb128 0xb
	.long	.LASF400
	.byte	0x9
	.value	0x4fc
	.byte	0x7
	.long	.LASF812
	.byte	0x1
	.long	0x5bef
	.long	0x5bfa
	.uleb128 0x2
	.long	0x8e63
	.uleb128 0x1
	.long	0x8e72
	.byte	0
	.uleb128 0xb
	.long	.LASF400
	.byte	0x9
	.value	0x50d
	.byte	0x7
	.long	.LASF813
	.byte	0x1
	.long	0x5c10
	.long	0x5c1b
	.uleb128 0x2
	.long	0x8e63
	.uleb128 0x1
	.long	0x8e95
	.byte	0
	.uleb128 0xb
	.long	.LASF423
	.byte	0x9
	.value	0x525
	.byte	0x7
	.long	.LASF814
	.byte	0x1
	.long	0x5c31
	.long	0x5c37
	.uleb128 0x2
	.long	0x8e63
	.byte	0
	.uleb128 0x12
	.long	.LASF409
	.byte	0x12
	.byte	0x85
	.byte	0x5
	.long	.LASF815
	.long	0x579e
	.byte	0x1
	.long	0x5c50
	.long	0x5c60
	.uleb128 0x2
	.long	0x8e63
	.uleb128 0x1
	.long	0x57cb
	.uleb128 0x1
	.long	0x8e72
	.byte	0
	.uleb128 0x3
	.long	.LASF409
	.byte	0x9
	.value	0x56c
	.byte	0x7
	.long	.LASF816
	.long	0x579e
	.byte	0x1
	.long	0x5c7a
	.long	0x5c8a
	.uleb128 0x2
	.long	0x8e63
	.uleb128 0x1
	.long	0x57cb
	.uleb128 0x1
	.long	0x8e95
	.byte	0
	.uleb128 0x3
	.long	.LASF409
	.byte	0x9
	.value	0x57e
	.byte	0x7
	.long	.LASF817
	.long	0x579e
	.byte	0x1
	.long	0x5ca4
	.long	0x5cb4
	.uleb128 0x2
	.long	0x8e63
	.uleb128 0x1
	.long	0x57cb
	.uleb128 0x1
	.long	0x5fdc
	.byte	0
	.uleb128 0x3
	.long	.LASF409
	.byte	0x9
	.value	0x598
	.byte	0x7
	.long	.LASF818
	.long	0x579e
	.byte	0x1
	.long	0x5cce
	.long	0x5ce3
	.uleb128 0x2
	.long	0x8e63
	.uleb128 0x1
	.long	0x57cb
	.uleb128 0x1
	.long	0x5575
	.uleb128 0x1
	.long	0x8e72
	.byte	0
	.uleb128 0x3
	.long	.LASF419
	.byte	0x9
	.value	0x5f9
	.byte	0x7
	.long	.LASF819
	.long	0x579e
	.byte	0x1
	.long	0x5cfd
	.long	0x5d08
	.uleb128 0x2
	.long	0x8e63
	.uleb128 0x1
	.long	0x57cb
	.byte	0
	.uleb128 0x3
	.long	.LASF419
	.byte	0x9
	.value	0x615
	.byte	0x7
	.long	.LASF820
	.long	0x579e
	.byte	0x1
	.long	0x5d22
	.long	0x5d32
	.uleb128 0x2
	.long	0x8e63
	.uleb128 0x1
	.long	0x57cb
	.uleb128 0x1
	.long	0x57cb
	.byte	0
	.uleb128 0xb
	.long	.LASF87
	.byte	0x9
	.value	0x62d
	.byte	0x7
	.long	.LASF821
	.byte	0x1
	.long	0x5d48
	.long	0x5d53
	.uleb128 0x2
	.long	0x8e63
	.uleb128 0x1
	.long	0x8e86
	.byte	0
	.uleb128 0xb
	.long	.LASF377
	.byte	0x9
	.value	0x640
	.byte	0x7
	.long	.LASF822
	.byte	0x1
	.long	0x5d69
	.long	0x5d6f
	.uleb128 0x2
	.long	0x8e63
	.byte	0
	.uleb128 0xb
	.long	.LASF668
	.byte	0x9
	.value	0x6a3
	.byte	0x7
	.long	.LASF823
	.byte	0x2
	.long	0x5d85
	.long	0x5d95
	.uleb128 0x2
	.long	0x8e63
	.uleb128 0x1
	.long	0x5575
	.uleb128 0x1
	.long	0x8e72
	.byte	0
	.uleb128 0xb
	.long	.LASF670
	.byte	0x9
	.value	0x6ae
	.byte	0x7
	.long	.LASF824
	.byte	0x2
	.long	0x5dab
	.long	0x5db6
	.uleb128 0x2
	.long	0x8e63
	.uleb128 0x1
	.long	0x5575
	.byte	0
	.uleb128 0xb
	.long	.LASF672
	.byte	0x12
	.value	0x108
	.byte	0x5
	.long	.LASF825
	.byte	0x2
	.long	0x5dcc
	.long	0x5ddc
	.uleb128 0x2
	.long	0x8e63
	.uleb128 0x1
	.long	0x56b
	.uleb128 0x1
	.long	0x8e72
	.byte	0
	.uleb128 0xb
	.long	.LASF674
	.byte	0x12
	.value	0x20b
	.byte	0x5
	.long	.LASF826
	.byte	0x2
	.long	0x5df2
	.long	0x5e07
	.uleb128 0x2
	.long	0x8e63
	.uleb128 0x1
	.long	0x579e
	.uleb128 0x1
	.long	0x5575
	.uleb128 0x1
	.long	0x8e72
	.byte	0
	.uleb128 0xb
	.long	.LASF676
	.byte	0x12
	.value	0x272
	.byte	0x5
	.long	.LASF827
	.byte	0x2
	.long	0x5e1d
	.long	0x5e28
	.uleb128 0x2
	.long	0x8e63
	.uleb128 0x1
	.long	0x5575
	.byte	0
	.uleb128 0x3
	.long	.LASF678
	.byte	0x12
	.value	0x2bf
	.byte	0x5
	.long	.LASF828
	.long	0x7e9e
	.byte	0x2
	.long	0x5e42
	.long	0x5e48
	.uleb128 0x2
	.long	0x8e63
	.byte	0
	.uleb128 0x3
	.long	.LASF680
	.byte	0x12
	.value	0x15e
	.byte	0x5
	.long	.LASF829
	.long	0x579e
	.byte	0x2
	.long	0x5e62
	.long	0x5e72
	.uleb128 0x2
	.long	0x8e63
	.uleb128 0x1
	.long	0x57cb
	.uleb128 0x1
	.long	0x8e95
	.byte	0
	.uleb128 0x3
	.long	.LASF682
	.byte	0x9
	.value	0x75c
	.byte	0x7
	.long	.LASF830
	.long	0x579e
	.byte	0x2
	.long	0x5e8c
	.long	0x5e9c
	.uleb128 0x2
	.long	0x8e63
	.uleb128 0x1
	.long	0x57cb
	.uleb128 0x1
	.long	0x8e95
	.byte	0
	.uleb128 0x3
	.long	.LASF684
	.byte	0x9
	.value	0x763
	.byte	0x7
	.long	.LASF831
	.long	0x5575
	.byte	0x2
	.long	0x5eb6
	.long	0x5ec6
	.uleb128 0x2
	.long	0x8e8b
	.uleb128 0x1
	.long	0x5575
	.uleb128 0x1
	.long	0x2f2
	.byte	0
	.uleb128 0x51
	.long	.LASF686
	.value	0x76e
	.long	.LASF832
	.long	0x5575
	.long	0x5ee4
	.uleb128 0x1
	.long	0x5575
	.uleb128 0x1
	.long	0x8e6d
	.byte	0
	.uleb128 0x51
	.long	.LASF688
	.value	0x777
	.long	.LASF833
	.long	0x5575
	.long	0x5efd
	.uleb128 0x1
	.long	0x8e9a
	.byte	0
	.uleb128 0xb
	.long	.LASF690
	.byte	0x9
	.value	0x788
	.byte	0x7
	.long	.LASF834
	.byte	0x2
	.long	0x5f13
	.long	0x5f1e
	.uleb128 0x2
	.long	0x8e63
	.uleb128 0x1
	.long	0x545f
	.byte	0
	.uleb128 0x12
	.long	.LASF329
	.byte	0x12
	.byte	0xaf
	.byte	0x5
	.long	.LASF835
	.long	0x579e
	.byte	0x2
	.long	0x5f37
	.long	0x5f42
	.uleb128 0x2
	.long	0x8e63
	.uleb128 0x1
	.long	0x579e
	.byte	0
	.uleb128 0x12
	.long	.LASF329
	.byte	0x12
	.byte	0xbd
	.byte	0x5
	.long	.LASF836
	.long	0x579e
	.byte	0x2
	.long	0x5f5b
	.long	0x5f6b
	.uleb128 0x2
	.long	0x8e63
	.uleb128 0x1
	.long	0x579e
	.uleb128 0x1
	.long	0x579e
	.byte	0
	.uleb128 0x1a
	.long	.LASF694
	.byte	0x9
	.value	0x7a2
	.long	.LASF837
	.long	0x5f7f
	.long	0x5f8f
	.uleb128 0x2
	.long	0x8e63
	.uleb128 0x1
	.long	0x8e7c
	.uleb128 0x1
	.long	0xb78
	.byte	0
	.uleb128 0x1a
	.long	.LASF694
	.byte	0x9
	.value	0x7ae
	.long	.LASF838
	.long	0x5fa3
	.long	0x5fb3
	.uleb128 0x2
	.long	0x8e63
	.uleb128 0x1
	.long	0x8e7c
	.uleb128 0x1
	.long	0x659
	.byte	0
	.uleb128 0xd
	.string	"_Tp"
	.long	0x11d
	.uleb128 0x6
	.long	.LASF492
	.long	0x4e6a
	.byte	0
	.uleb128 0x7
	.long	0x53cf
	.uleb128 0x5
	.long	.LASF699
	.byte	0x22
	.byte	0x80
	.byte	0xb
	.long	0x53b9
	.uleb128 0x7
	.long	0x5fcb
	.uleb128 0x31
	.long	.LASF839
	.uleb128 0x31
	.long	.LASF840
	.uleb128 0x31
	.long	.LASF841
	.uleb128 0x19
	.long	.LASF842
	.byte	0x1
	.byte	0x14
	.byte	0xd2
	.byte	0xc
	.long	0x601d
	.uleb128 0x5
	.long	.LASF843
	.byte	0x14
	.byte	0xd6
	.byte	0x2b
	.long	0xb66
	.uleb128 0x5
	.long	.LASF130
	.byte	0x14
	.byte	0xd7
	.byte	0x2b
	.long	0x6c96
	.uleb128 0x5
	.long	.LASF131
	.byte	0x14
	.byte	0xd8
	.byte	0x2b
	.long	0x8316
	.byte	0
	.uleb128 0x19
	.long	.LASF844
	.byte	0x1
	.byte	0x14
	.byte	0xdd
	.byte	0xc
	.long	0x605b
	.uleb128 0x5
	.long	.LASF845
	.byte	0x14
	.byte	0xdf
	.byte	0x2a
	.long	0xdc8
	.uleb128 0x5
	.long	.LASF843
	.byte	0x14
	.byte	0xe1
	.byte	0x2b
	.long	0xb66
	.uleb128 0x5
	.long	.LASF130
	.byte	0x14
	.byte	0xe2
	.byte	0x2b
	.long	0x2f2
	.uleb128 0x5
	.long	.LASF131
	.byte	0x14
	.byte	0xe3
	.byte	0x2b
	.long	0x831b
	.byte	0
	.uleb128 0x19
	.long	.LASF846
	.byte	0x1
	.byte	0x14
	.byte	0xd2
	.byte	0xc
	.long	0x608d
	.uleb128 0x5
	.long	.LASF843
	.byte	0x14
	.byte	0xd6
	.byte	0x2b
	.long	0xb66
	.uleb128 0x5
	.long	.LASF130
	.byte	0x14
	.byte	0xd7
	.byte	0x2b
	.long	0x8cd8
	.uleb128 0x5
	.long	.LASF131
	.byte	0x14
	.byte	0xd8
	.byte	0x2b
	.long	0x8cec
	.byte	0
	.uleb128 0x19
	.long	.LASF847
	.byte	0x1
	.byte	0x14
	.byte	0xdd
	.byte	0xc
	.long	0x60b3
	.uleb128 0x5
	.long	.LASF845
	.byte	0x14
	.byte	0xdf
	.byte	0x2a
	.long	0xdc8
	.uleb128 0x5
	.long	.LASF843
	.byte	0x14
	.byte	0xe1
	.byte	0x2b
	.long	0xb66
	.byte	0
	.uleb128 0x3e
	.long	.LASF848
	.byte	0x22
	.value	0x8b9
	.long	0x60d6
	.uleb128 0x1e
	.long	.LASF594
	.byte	0x22
	.value	0x8ba
	.byte	0x13
	.long	0x8dc8
	.uleb128 0xd
	.string	"_Tp"
	.long	0x8dc8
	.byte	0
	.uleb128 0x19
	.long	.LASF849
	.byte	0x1
	.byte	0x14
	.byte	0xd2
	.byte	0xc
	.long	0x60fc
	.uleb128 0x5
	.long	.LASF845
	.byte	0x14
	.byte	0xd4
	.byte	0x2a
	.long	0xdc8
	.uleb128 0x5
	.long	.LASF56
	.byte	0x14
	.byte	0xd5
	.byte	0x2b
	.long	0x11d
	.byte	0
	.uleb128 0x3e
	.long	.LASF850
	.byte	0x4
	.value	0x19f
	.long	0x6154
	.uleb128 0xe
	.long	.LASF851
	.byte	0x4
	.value	0x1a4
	.byte	0x2
	.long	.LASF852
	.long	0x8cd8
	.long	0x6136
	.uleb128 0xd
	.string	"_Tp"
	.long	0x6f2e
	.uleb128 0x1
	.long	0x8cf1
	.uleb128 0x1
	.long	0x8cf1
	.uleb128 0x1
	.long	0x8cd8
	.byte	0
	.uleb128 0x38
	.long	.LASF853
	.long	0x7e9e
	.byte	0
	.uleb128 0x38
	.long	.LASF854
	.long	0x7e9e
	.byte	0x1
	.uleb128 0x6
	.long	.LASF855
	.long	0xdc8
	.byte	0
	.uleb128 0x5b
	.long	.LASF856
	.long	0x61c5
	.uleb128 0x96
	.long	.LASF856
	.byte	0x2f
	.byte	0xe2
	.byte	0x5
	.long	.LASF857
	.byte	0x1
	.long	0x6174
	.byte	0
	.long	0x617f
	.uleb128 0x2
	.long	0x90e5
	.uleb128 0x1
	.long	0x8abc
	.byte	0
	.uleb128 0x97
	.long	.LASF1495
	.byte	0x2f
	.byte	0xf4
	.byte	0xd
	.long	.LASF1496
	.byte	0x1
	.long	0x6154
	.byte	0x1
	.long	0x619b
	.byte	0
	.long	0x61a6
	.uleb128 0x2
	.long	0x90e5
	.uleb128 0x2
	.long	0x11d
	.byte	0
	.uleb128 0x98
	.long	.LASF856
	.byte	0x2f
	.byte	0xe6
	.byte	0x5
	.long	.LASF858
	.byte	0x1
	.long	0x61b9
	.byte	0
	.uleb128 0x2
	.long	0x90e5
	.uleb128 0x1
	.long	0x2f2
	.byte	0
	.byte	0
	.uleb128 0x6e
	.long	.LASF859
	.byte	0x34
	.long	.LASF861
	.uleb128 0x6e
	.long	.LASF860
	.byte	0x37
	.long	.LASF862
	.uleb128 0x58
	.long	.LASF863
	.byte	0x30
	.byte	0x4b
	.byte	0x3
	.long	.LASF864
	.long	0x61ef
	.uleb128 0x1
	.long	0x2f2
	.byte	0
	.uleb128 0x58
	.long	.LASF865
	.byte	0x30
	.byte	0x42
	.byte	0x3
	.long	.LASF866
	.long	0x6205
	.uleb128 0x1
	.long	0x2f2
	.byte	0
	.uleb128 0x2c
	.long	.LASF867
	.byte	0x4
	.value	0x395
	.byte	0x5
	.long	.LASF868
	.long	0x6238
	.uleb128 0x6
	.long	.LASF159
	.long	0x8dc8
	.uleb128 0xd
	.string	"_Tp"
	.long	0x11d
	.uleb128 0x1
	.long	0x8dc8
	.uleb128 0x1
	.long	0x8dc8
	.uleb128 0x1
	.long	0x8b54
	.byte	0
	.uleb128 0xe
	.long	.LASF869
	.byte	0x4
	.value	0x1e6
	.byte	0x5
	.long	.LASF870
	.long	0x8cd8
	.long	0x6279
	.uleb128 0x38
	.long	.LASF853
	.long	0x7e9e
	.byte	0
	.uleb128 0xd
	.string	"_II"
	.long	0x8cf1
	.uleb128 0xd
	.string	"_OI"
	.long	0x8cd8
	.uleb128 0x1
	.long	0x8cf1
	.uleb128 0x1
	.long	0x8cf1
	.uleb128 0x1
	.long	0x8cd8
	.byte	0
	.uleb128 0x2c
	.long	.LASF871
	.byte	0x4
	.value	0x3c7
	.byte	0x5
	.long	.LASF872
	.long	0x62ac
	.uleb128 0x6
	.long	.LASF873
	.long	0x8dc8
	.uleb128 0xd
	.string	"_Tp"
	.long	0x11d
	.uleb128 0x1
	.long	0x8dc8
	.uleb128 0x1
	.long	0x8dc8
	.uleb128 0x1
	.long	0x8b54
	.byte	0
	.uleb128 0xe
	.long	.LASF874
	.byte	0x4
	.value	0x14f
	.byte	0x5
	.long	.LASF875
	.long	0x8cd8
	.long	0x62d5
	.uleb128 0x6
	.long	.LASF876
	.long	0x8cd8
	.uleb128 0x1
	.long	0x9082
	.uleb128 0x1
	.long	0x8cd8
	.byte	0
	.uleb128 0xe
	.long	.LASF877
	.byte	0x4
	.value	0x209
	.byte	0x5
	.long	.LASF878
	.long	0x8cd8
	.long	0x6316
	.uleb128 0x38
	.long	.LASF853
	.long	0x7e9e
	.byte	0
	.uleb128 0xd
	.string	"_II"
	.long	0x8cf1
	.uleb128 0xd
	.string	"_OI"
	.long	0x8cd8
	.uleb128 0x1
	.long	0x8cf1
	.uleb128 0x1
	.long	0x8cf1
	.uleb128 0x1
	.long	0x8cd8
	.byte	0
	.uleb128 0xe
	.long	.LASF879
	.byte	0x4
	.value	0x139
	.byte	0x5
	.long	.LASF880
	.long	0x8cd8
	.long	0x633a
	.uleb128 0x6
	.long	.LASF876
	.long	0x8cd8
	.uleb128 0x1
	.long	0x8cd8
	.byte	0
	.uleb128 0xe
	.long	.LASF881
	.byte	0x4
	.value	0x139
	.byte	0x5
	.long	.LASF882
	.long	0x8cf1
	.long	0x635e
	.uleb128 0x6
	.long	.LASF876
	.long	0x8cf1
	.uleb128 0x1
	.long	0x8cf1
	.byte	0
	.uleb128 0xe
	.long	.LASF883
	.byte	0x4
	.value	0x454
	.byte	0x5
	.long	.LASF884
	.long	0x8dc8
	.long	0x63a3
	.uleb128 0x6
	.long	.LASF885
	.long	0x8dc8
	.uleb128 0x6
	.long	.LASF525
	.long	0x5a
	.uleb128 0xd
	.string	"_Tp"
	.long	0x11d
	.uleb128 0x1
	.long	0x8dc8
	.uleb128 0x1
	.long	0x5a
	.uleb128 0x1
	.long	0x8b54
	.uleb128 0x1
	.long	0xdc8
	.byte	0
	.uleb128 0x16
	.long	.LASF886
	.byte	0x14
	.byte	0xee
	.byte	0x5
	.long	.LASF887
	.long	0x60e3
	.long	0x63c6
	.uleb128 0x6
	.long	.LASF888
	.long	0x8dc8
	.uleb128 0x1
	.long	0x9551
	.byte	0
	.uleb128 0xe
	.long	.LASF889
	.byte	0x4
	.value	0x20f
	.byte	0x5
	.long	.LASF890
	.long	0x8cd8
	.long	0x6407
	.uleb128 0x38
	.long	.LASF853
	.long	0x7e9e
	.byte	0
	.uleb128 0xd
	.string	"_II"
	.long	0x8cf1
	.uleb128 0xd
	.string	"_OI"
	.long	0x8cd8
	.uleb128 0x1
	.long	0x8cf1
	.uleb128 0x1
	.long	0x8cf1
	.uleb128 0x1
	.long	0x8cd8
	.byte	0
	.uleb128 0xe
	.long	.LASF891
	.byte	0x17
	.value	0x232
	.byte	0x5
	.long	.LASF892
	.long	0x8cf1
	.long	0x642b
	.uleb128 0x6
	.long	.LASF876
	.long	0x8cf1
	.uleb128 0x1
	.long	0x8cf1
	.byte	0
	.uleb128 0xe
	.long	.LASF893
	.byte	0x4
	.value	0x477
	.byte	0x5
	.long	.LASF894
	.long	0x8dc8
	.long	0x646b
	.uleb128 0xd
	.string	"_OI"
	.long	0x8dc8
	.uleb128 0x6
	.long	.LASF525
	.long	0x5a
	.uleb128 0xd
	.string	"_Tp"
	.long	0x11d
	.uleb128 0x1
	.long	0x8dc8
	.uleb128 0x1
	.long	0x5a
	.uleb128 0x1
	.long	0x8b54
	.byte	0
	.uleb128 0x37
	.long	.LASF895
	.byte	0x13
	.byte	0x6d
	.byte	0x5
	.long	.LASF896
	.long	0x648f
	.uleb128 0xd
	.string	"_Tp"
	.long	0x11d
	.uleb128 0x6f
	.long	.LASF1377
	.uleb128 0x1
	.long	0x8dc8
	.byte	0
	.uleb128 0x16
	.long	.LASF897
	.byte	0x16
	.byte	0x31
	.byte	0x5
	.long	.LASF898
	.long	0x8dc8
	.long	0x64b2
	.uleb128 0xd
	.string	"_Tp"
	.long	0x11d
	.uleb128 0x1
	.long	0x8ddc
	.byte	0
	.uleb128 0xe
	.long	.LASF899
	.byte	0x4
	.value	0x263
	.byte	0x5
	.long	.LASF900
	.long	0x8cd8
	.long	0x64e9
	.uleb128 0xd
	.string	"_II"
	.long	0x8cf1
	.uleb128 0xd
	.string	"_OI"
	.long	0x8cd8
	.uleb128 0x1
	.long	0x8cf1
	.uleb128 0x1
	.long	0x8cf1
	.uleb128 0x1
	.long	0x8cd8
	.byte	0
	.uleb128 0x1e
	.long	.LASF901
	.byte	0x22
	.value	0x8c0
	.byte	0xb
	.long	0x60bf
	.uleb128 0xe
	.long	.LASF902
	.byte	0x15
	.value	0x44c
	.byte	0x5
	.long	.LASF903
	.long	0x64e9
	.long	0x6532
	.uleb128 0xd
	.string	"_Tp"
	.long	0x11d
	.uleb128 0xd
	.string	"_Up"
	.long	0x11d
	.uleb128 0x1
	.long	0x8dc8
	.uleb128 0x1
	.long	0x8dc8
	.uleb128 0x1
	.long	0x8dc8
	.uleb128 0x1
	.long	0x8df0
	.byte	0
	.uleb128 0xe
	.long	.LASF904
	.byte	0x4
	.value	0x139
	.byte	0x5
	.long	.LASF905
	.long	0x8dc8
	.long	0x6556
	.uleb128 0x6
	.long	.LASF876
	.long	0x8dc8
	.uleb128 0x1
	.long	0x8dc8
	.byte	0
	.uleb128 0x16
	.long	.LASF906
	.byte	0x4
	.byte	0xe6
	.byte	0x5
	.long	.LASF907
	.long	0x9a58
	.long	0x657e
	.uleb128 0xd
	.string	"_Tp"
	.long	0x5a
	.uleb128 0x1
	.long	0x9a58
	.uleb128 0x1
	.long	0x9a58
	.byte	0
	.uleb128 0xe
	.long	.LASF908
	.byte	0x15
	.value	0x467
	.byte	0x5
	.long	.LASF909
	.long	0x8dc8
	.long	0x65c3
	.uleb128 0x6
	.long	.LASF520
	.long	0x8dc8
	.uleb128 0x6
	.long	.LASF159
	.long	0x8dc8
	.uleb128 0x6
	.long	.LASF910
	.long	0x4e6a
	.uleb128 0x1
	.long	0x8dc8
	.uleb128 0x1
	.long	0x8dc8
	.uleb128 0x1
	.long	0x8dc8
	.uleb128 0x1
	.long	0x8df0
	.byte	0
	.uleb128 0x16
	.long	.LASF911
	.byte	0x4
	.byte	0xfe
	.byte	0x5
	.long	.LASF912
	.long	0x9a58
	.long	0x65eb
	.uleb128 0xd
	.string	"_Tp"
	.long	0x5a
	.uleb128 0x1
	.long	0x9a58
	.uleb128 0x1
	.long	0x9a58
	.byte	0
	.uleb128 0xe
	.long	.LASF913
	.byte	0x15
	.value	0x2b3
	.byte	0x5
	.long	.LASF914
	.long	0x8dc8
	.long	0x661d
	.uleb128 0x6
	.long	.LASF159
	.long	0x8dc8
	.uleb128 0x6
	.long	.LASF525
	.long	0x5a
	.uleb128 0x1
	.long	0x8dc8
	.uleb128 0x1
	.long	0x5a
	.byte	0
	.uleb128 0x16
	.long	.LASF915
	.byte	0x15
	.byte	0xa3
	.byte	0x5
	.long	.LASF916
	.long	0x8cd8
	.long	0x6653
	.uleb128 0x6
	.long	.LASF520
	.long	0x8cf1
	.uleb128 0x6
	.long	.LASF159
	.long	0x8cd8
	.uleb128 0x1
	.long	0x8cf1
	.uleb128 0x1
	.long	0x8cf1
	.uleb128 0x1
	.long	0x8cd8
	.byte	0
	.uleb128 0xe
	.long	.LASF917
	.byte	0x15
	.value	0x2fc
	.byte	0x5
	.long	.LASF918
	.long	0x8dc8
	.long	0x6693
	.uleb128 0x6
	.long	.LASF159
	.long	0x8dc8
	.uleb128 0x6
	.long	.LASF525
	.long	0x5a
	.uleb128 0xd
	.string	"_Tp"
	.long	0x11d
	.uleb128 0x1
	.long	0x8dc8
	.uleb128 0x1
	.long	0x5a
	.uleb128 0x1
	.long	0x8df0
	.byte	0
	.uleb128 0xe
	.long	.LASF919
	.byte	0x15
	.value	0x16d
	.byte	0x5
	.long	.LASF920
	.long	0x8cd8
	.long	0x66d8
	.uleb128 0x6
	.long	.LASF520
	.long	0x8cf1
	.uleb128 0x6
	.long	.LASF159
	.long	0x8cd8
	.uleb128 0xd
	.string	"_Tp"
	.long	0x6f2e
	.uleb128 0x1
	.long	0x8cf1
	.uleb128 0x1
	.long	0x8cf1
	.uleb128 0x1
	.long	0x8cd8
	.uleb128 0x1
	.long	0x8d0f
	.byte	0
	.uleb128 0x16
	.long	.LASF921
	.byte	0xe
	.byte	0x63
	.byte	0x5
	.long	.LASF922
	.long	0x60a6
	.long	0x6705
	.uleb128 0x6
	.long	.LASF923
	.long	0x8cf1
	.uleb128 0x1
	.long	0x8cf1
	.uleb128 0x1
	.long	0x8cf1
	.uleb128 0x1
	.long	0xdc8
	.byte	0
	.uleb128 0x16
	.long	.LASF924
	.byte	0x14
	.byte	0xee
	.byte	0x5
	.long	.LASF925
	.long	0x609a
	.long	0x6728
	.uleb128 0x6
	.long	.LASF888
	.long	0x8cf1
	.uleb128 0x1
	.long	0xa2af
	.byte	0
	.uleb128 0x16
	.long	.LASF926
	.byte	0xe
	.byte	0x63
	.byte	0x5
	.long	.LASF927
	.long	0x6036
	.long	0x6755
	.uleb128 0x6
	.long	.LASF923
	.long	0x2f2
	.uleb128 0x1
	.long	0x2f2
	.uleb128 0x1
	.long	0x2f2
	.uleb128 0x1
	.long	0xdc8
	.byte	0
	.uleb128 0x16
	.long	.LASF928
	.byte	0x14
	.byte	0xee
	.byte	0x5
	.long	.LASF929
	.long	0x602a
	.long	0x6778
	.uleb128 0x6
	.long	.LASF888
	.long	0x2f2
	.uleb128 0x1
	.long	0x905a
	.byte	0
	.uleb128 0x37
	.long	.LASF930
	.byte	0x13
	.byte	0xb6
	.byte	0x5
	.long	.LASF931
	.long	0x679c
	.uleb128 0x6
	.long	.LASF159
	.long	0x8cd8
	.uleb128 0x1
	.long	0x8cd8
	.uleb128 0x1
	.long	0x8cd8
	.byte	0
	.uleb128 0x37
	.long	.LASF932
	.byte	0x13
	.byte	0xb6
	.byte	0x5
	.long	.LASF933
	.long	0x67c0
	.uleb128 0x6
	.long	.LASF159
	.long	0x8dc8
	.uleb128 0x1
	.long	0x8dc8
	.uleb128 0x1
	.long	0x8dc8
	.byte	0
	.uleb128 0x16
	.long	.LASF934
	.byte	0xe
	.byte	0x93
	.byte	0x5
	.long	.LASF935
	.long	0x60a6
	.long	0x67e8
	.uleb128 0x6
	.long	.LASF520
	.long	0x8cf1
	.uleb128 0x1
	.long	0x8cf1
	.uleb128 0x1
	.long	0x8cf1
	.byte	0
	.uleb128 0x16
	.long	.LASF936
	.byte	0xe
	.byte	0x93
	.byte	0x5
	.long	.LASF937
	.long	0x6036
	.long	0x6810
	.uleb128 0x6
	.long	.LASF520
	.long	0x2f2
	.uleb128 0x1
	.long	0x2f2
	.uleb128 0x1
	.long	0x2f2
	.byte	0
	.uleb128 0x2c
	.long	.LASF938
	.byte	0xd
	.value	0x34f
	.byte	0x5
	.long	.LASF939
	.long	0x6843
	.uleb128 0x6
	.long	.LASF159
	.long	0x8cd8
	.uleb128 0xd
	.string	"_Tp"
	.long	0x6f2e
	.uleb128 0x1
	.long	0x8cd8
	.uleb128 0x1
	.long	0x8cd8
	.uleb128 0x1
	.long	0x8d0f
	.byte	0
	.uleb128 0x2c
	.long	.LASF940
	.byte	0xd
	.value	0x34f
	.byte	0x5
	.long	.LASF941
	.long	0x6876
	.uleb128 0x6
	.long	.LASF159
	.long	0x8dc8
	.uleb128 0xd
	.string	"_Tp"
	.long	0x11d
	.uleb128 0x1
	.long	0x8dc8
	.uleb128 0x1
	.long	0x8dc8
	.uleb128 0x1
	.long	0x8df0
	.byte	0
	.uleb128 0xe
	.long	.LASF942
	.byte	0xc
	.value	0xec5
	.byte	0x5
	.long	.LASF943
	.long	0xb56c
	.long	0x68ad
	.uleb128 0x6
	.long	.LASF944
	.long	0x7aac
	.uleb128 0x6
	.long	.LASF945
	.long	0xb56c
	.uleb128 0x1
	.long	0x7aac
	.uleb128 0x1
	.long	0x7aac
	.uleb128 0x1
	.long	0xb56c
	.byte	0
	.uleb128 0xe
	.long	.LASF946
	.byte	0x31
	.value	0x20b
	.byte	0x5
	.long	.LASF947
	.long	0x8b59
	.long	0x68d6
	.uleb128 0x6
	.long	.LASF491
	.long	0x887
	.uleb128 0x1
	.long	0x8b59
	.uleb128 0x1
	.long	0x111
	.byte	0
	.uleb128 0x70
	.long	.LASF948
	.byte	0x11
	.value	0x589
	.byte	0xd
	.long	0x6931
	.uleb128 0x37
	.long	.LASF949
	.byte	0x8
	.byte	0x48
	.byte	0x5
	.long	.LASF950
	.long	0x690c
	.uleb128 0xd
	.string	"_Tp"
	.long	0x9c
	.uleb128 0x1
	.long	0x6c96
	.uleb128 0x1
	.long	0x9c
	.uleb128 0x1
	.long	0x9c
	.byte	0
	.uleb128 0x5d
	.long	.LASF951
	.byte	0x8
	.byte	0x2f
	.byte	0x5
	.long	.LASF952
	.long	0x9c
	.uleb128 0xd
	.string	"_Tp"
	.long	0x9c
	.uleb128 0x1
	.long	0x9c
	.uleb128 0x1
	.long	0x11d
	.byte	0
	.byte	0
	.uleb128 0xe
	.long	.LASF953
	.byte	0x4
	.value	0x3f1
	.byte	0x3
	.long	.LASF954
	.long	0x5a
	.long	0x694c
	.uleb128 0x1
	.long	0x5a
	.byte	0
	.uleb128 0x5c
	.long	.LASF955
	.byte	0x1
	.value	0x204
	.byte	0x3
	.long	.LASF956
	.long	0x7e9e
	.byte	0
	.uleb128 0x10
	.long	.LASF957
	.byte	0x32
	.value	0x11d
	.byte	0xf
	.long	0xab
	.long	0x6975
	.uleb128 0x1
	.long	0x11d
	.byte	0
	.uleb128 0x10
	.long	.LASF958
	.byte	0x32
	.value	0x2e8
	.byte	0xf
	.long	0xab
	.long	0x698c
	.uleb128 0x1
	.long	0x698c
	.byte	0
	.uleb128 0x9
	.long	0x147
	.uleb128 0x10
	.long	.LASF959
	.byte	0x32
	.value	0x305
	.byte	0x11
	.long	0x69b2
	.long	0x69b2
	.uleb128 0x1
	.long	0x69b2
	.uleb128 0x1
	.long	0x11d
	.uleb128 0x1
	.long	0x698c
	.byte	0
	.uleb128 0x9
	.long	0x69b7
	.uleb128 0x25
	.byte	0x4
	.byte	0x5
	.long	.LASF960
	.uleb128 0x7
	.long	0x69b7
	.uleb128 0x10
	.long	.LASF961
	.byte	0x32
	.value	0x2f6
	.byte	0xf
	.long	0xab
	.long	0x69df
	.uleb128 0x1
	.long	0x69b7
	.uleb128 0x1
	.long	0x698c
	.byte	0
	.uleb128 0x10
	.long	.LASF962
	.byte	0x32
	.value	0x30c
	.byte	0xc
	.long	0x11d
	.long	0x69fb
	.uleb128 0x1
	.long	0x69fb
	.uleb128 0x1
	.long	0x698c
	.byte	0
	.uleb128 0x9
	.long	0x69be
	.uleb128 0x10
	.long	.LASF963
	.byte	0x32
	.value	0x24c
	.byte	0xc
	.long	0x11d
	.long	0x6a1c
	.uleb128 0x1
	.long	0x698c
	.uleb128 0x1
	.long	0x11d
	.byte	0
	.uleb128 0x10
	.long	.LASF964
	.byte	0x32
	.value	0x253
	.byte	0xc
	.long	0x11d
	.long	0x6a39
	.uleb128 0x1
	.long	0x698c
	.uleb128 0x1
	.long	0x69fb
	.uleb128 0x3f
	.byte	0
	.uleb128 0xe
	.long	.LASF965
	.byte	0x32
	.value	0x291
	.byte	0xc
	.long	.LASF966
	.long	0x11d
	.long	0x6a5a
	.uleb128 0x1
	.long	0x698c
	.uleb128 0x1
	.long	0x69fb
	.uleb128 0x3f
	.byte	0
	.uleb128 0x10
	.long	.LASF967
	.byte	0x32
	.value	0x2e9
	.byte	0xf
	.long	0xab
	.long	0x6a71
	.uleb128 0x1
	.long	0x698c
	.byte	0
	.uleb128 0x5e
	.long	.LASF1230
	.byte	0x32
	.value	0x2ef
	.byte	0xf
	.long	0xab
	.uleb128 0x10
	.long	.LASF968
	.byte	0x32
	.value	0x134
	.byte	0xf
	.long	0x4e
	.long	0x6a9f
	.uleb128 0x1
	.long	0x2f2
	.uleb128 0x1
	.long	0x4e
	.uleb128 0x1
	.long	0x6a9f
	.byte	0
	.uleb128 0x9
	.long	0x136
	.uleb128 0x10
	.long	.LASF969
	.byte	0x32
	.value	0x129
	.byte	0xf
	.long	0x4e
	.long	0x6aca
	.uleb128 0x1
	.long	0x69b2
	.uleb128 0x1
	.long	0x2f2
	.uleb128 0x1
	.long	0x4e
	.uleb128 0x1
	.long	0x6a9f
	.byte	0
	.uleb128 0x10
	.long	.LASF970
	.byte	0x32
	.value	0x125
	.byte	0xc
	.long	0x11d
	.long	0x6ae1
	.uleb128 0x1
	.long	0x6ae1
	.byte	0
	.uleb128 0x9
	.long	0x142
	.uleb128 0x10
	.long	.LASF971
	.byte	0x32
	.value	0x152
	.byte	0xf
	.long	0x4e
	.long	0x6b0c
	.uleb128 0x1
	.long	0x69b2
	.uleb128 0x1
	.long	0x6b0c
	.uleb128 0x1
	.long	0x4e
	.uleb128 0x1
	.long	0x6a9f
	.byte	0
	.uleb128 0x9
	.long	0x2f2
	.uleb128 0x10
	.long	.LASF972
	.byte	0x32
	.value	0x2f7
	.byte	0xf
	.long	0xab
	.long	0x6b2d
	.uleb128 0x1
	.long	0x69b7
	.uleb128 0x1
	.long	0x698c
	.byte	0
	.uleb128 0x10
	.long	.LASF973
	.byte	0x32
	.value	0x2fd
	.byte	0xf
	.long	0xab
	.long	0x6b44
	.uleb128 0x1
	.long	0x69b7
	.byte	0
	.uleb128 0x10
	.long	.LASF974
	.byte	0x32
	.value	0x25d
	.byte	0xc
	.long	0x11d
	.long	0x6b66
	.uleb128 0x1
	.long	0x69b2
	.uleb128 0x1
	.long	0x4e
	.uleb128 0x1
	.long	0x69fb
	.uleb128 0x3f
	.byte	0
	.uleb128 0xe
	.long	.LASF975
	.byte	0x32
	.value	0x298
	.byte	0xc
	.long	.LASF976
	.long	0x11d
	.long	0x6b87
	.uleb128 0x1
	.long	0x69fb
	.uleb128 0x1
	.long	0x69fb
	.uleb128 0x3f
	.byte	0
	.uleb128 0x10
	.long	.LASF977
	.byte	0x32
	.value	0x314
	.byte	0xf
	.long	0xab
	.long	0x6ba3
	.uleb128 0x1
	.long	0xab
	.uleb128 0x1
	.long	0x698c
	.byte	0
	.uleb128 0x10
	.long	.LASF978
	.byte	0x32
	.value	0x265
	.byte	0xc
	.long	0x11d
	.long	0x6bc4
	.uleb128 0x1
	.long	0x698c
	.uleb128 0x1
	.long	0x69fb
	.uleb128 0x1
	.long	0x6bc4
	.byte	0
	.uleb128 0x9
	.long	0x66
	.uleb128 0xe
	.long	.LASF979
	.byte	0x32
	.value	0x2c7
	.byte	0xc
	.long	.LASF980
	.long	0x11d
	.long	0x6bee
	.uleb128 0x1
	.long	0x698c
	.uleb128 0x1
	.long	0x69fb
	.uleb128 0x1
	.long	0x6bc4
	.byte	0
	.uleb128 0x10
	.long	.LASF981
	.byte	0x32
	.value	0x272
	.byte	0xc
	.long	0x11d
	.long	0x6c14
	.uleb128 0x1
	.long	0x69b2
	.uleb128 0x1
	.long	0x4e
	.uleb128 0x1
	.long	0x69fb
	.uleb128 0x1
	.long	0x6bc4
	.byte	0
	.uleb128 0xe
	.long	.LASF982
	.byte	0x32
	.value	0x2ce
	.byte	0xc
	.long	.LASF983
	.long	0x11d
	.long	0x6c39
	.uleb128 0x1
	.long	0x69fb
	.uleb128 0x1
	.long	0x69fb
	.uleb128 0x1
	.long	0x6bc4
	.byte	0
	.uleb128 0x10
	.long	.LASF984
	.byte	0x32
	.value	0x26d
	.byte	0xc
	.long	0x11d
	.long	0x6c55
	.uleb128 0x1
	.long	0x69fb
	.uleb128 0x1
	.long	0x6bc4
	.byte	0
	.uleb128 0xe
	.long	.LASF985
	.byte	0x32
	.value	0x2cb
	.byte	0xc
	.long	.LASF986
	.long	0x11d
	.long	0x6c75
	.uleb128 0x1
	.long	0x69fb
	.uleb128 0x1
	.long	0x6bc4
	.byte	0
	.uleb128 0x10
	.long	.LASF987
	.byte	0x32
	.value	0x12e
	.byte	0xf
	.long	0x4e
	.long	0x6c96
	.uleb128 0x1
	.long	0x6c96
	.uleb128 0x1
	.long	0x69b7
	.uleb128 0x1
	.long	0x6a9f
	.byte	0
	.uleb128 0x9
	.long	0x111
	.uleb128 0x7
	.long	0x6c96
	.uleb128 0x1b
	.long	.LASF988
	.byte	0x32
	.byte	0x61
	.byte	0x11
	.long	0x69b2
	.long	0x6cbb
	.uleb128 0x1
	.long	0x69b2
	.uleb128 0x1
	.long	0x69fb
	.byte	0
	.uleb128 0x1b
	.long	.LASF989
	.byte	0x32
	.byte	0x6a
	.byte	0xc
	.long	0x11d
	.long	0x6cd6
	.uleb128 0x1
	.long	0x69fb
	.uleb128 0x1
	.long	0x69fb
	.byte	0
	.uleb128 0x1b
	.long	.LASF990
	.byte	0x32
	.byte	0x83
	.byte	0xc
	.long	0x11d
	.long	0x6cf1
	.uleb128 0x1
	.long	0x69fb
	.uleb128 0x1
	.long	0x69fb
	.byte	0
	.uleb128 0x1b
	.long	.LASF991
	.byte	0x32
	.byte	0x57
	.byte	0x11
	.long	0x69b2
	.long	0x6d0c
	.uleb128 0x1
	.long	0x69b2
	.uleb128 0x1
	.long	0x69fb
	.byte	0
	.uleb128 0x1b
	.long	.LASF992
	.byte	0x32
	.byte	0xbc
	.byte	0xf
	.long	0x4e
	.long	0x6d27
	.uleb128 0x1
	.long	0x69fb
	.uleb128 0x1
	.long	0x69fb
	.byte	0
	.uleb128 0x10
	.long	.LASF993
	.byte	0x32
	.value	0x354
	.byte	0xf
	.long	0x4e
	.long	0x6d4d
	.uleb128 0x1
	.long	0x69b2
	.uleb128 0x1
	.long	0x4e
	.uleb128 0x1
	.long	0x69fb
	.uleb128 0x1
	.long	0x6d4d
	.byte	0
	.uleb128 0x9
	.long	0x6def
	.uleb128 0x99
	.string	"tm"
	.byte	0x38
	.byte	0x33
	.byte	0x7
	.byte	0x8
	.long	0x6def
	.uleb128 0x8
	.long	.LASF994
	.byte	0x33
	.byte	0x9
	.byte	0x7
	.long	0x11d
	.byte	0
	.uleb128 0x8
	.long	.LASF995
	.byte	0x33
	.byte	0xa
	.byte	0x7
	.long	0x11d
	.byte	0x4
	.uleb128 0x8
	.long	.LASF996
	.byte	0x33
	.byte	0xb
	.byte	0x7
	.long	0x11d
	.byte	0x8
	.uleb128 0x8
	.long	.LASF997
	.byte	0x33
	.byte	0xc
	.byte	0x7
	.long	0x11d
	.byte	0xc
	.uleb128 0x8
	.long	.LASF998
	.byte	0x33
	.byte	0xd
	.byte	0x7
	.long	0x11d
	.byte	0x10
	.uleb128 0x8
	.long	.LASF999
	.byte	0x33
	.byte	0xe
	.byte	0x7
	.long	0x11d
	.byte	0x14
	.uleb128 0x8
	.long	.LASF1000
	.byte	0x33
	.byte	0xf
	.byte	0x7
	.long	0x11d
	.byte	0x18
	.uleb128 0x8
	.long	.LASF1001
	.byte	0x33
	.byte	0x10
	.byte	0x7
	.long	0x11d
	.byte	0x1c
	.uleb128 0x8
	.long	.LASF1002
	.byte	0x33
	.byte	0x11
	.byte	0x7
	.long	0x11d
	.byte	0x20
	.uleb128 0x8
	.long	.LASF1003
	.byte	0x33
	.byte	0x14
	.byte	0xc
	.long	0x6f2e
	.byte	0x28
	.uleb128 0x8
	.long	.LASF1004
	.byte	0x33
	.byte	0x15
	.byte	0xf
	.long	0x2f2
	.byte	0x30
	.byte	0
	.uleb128 0x7
	.long	0x6d52
	.uleb128 0x1b
	.long	.LASF1005
	.byte	0x32
	.byte	0xdf
	.byte	0xf
	.long	0x4e
	.long	0x6e0a
	.uleb128 0x1
	.long	0x69fb
	.byte	0
	.uleb128 0x1b
	.long	.LASF1006
	.byte	0x32
	.byte	0x65
	.byte	0x11
	.long	0x69b2
	.long	0x6e2a
	.uleb128 0x1
	.long	0x69b2
	.uleb128 0x1
	.long	0x69fb
	.uleb128 0x1
	.long	0x4e
	.byte	0
	.uleb128 0x1b
	.long	.LASF1007
	.byte	0x32
	.byte	0x6d
	.byte	0xc
	.long	0x11d
	.long	0x6e4a
	.uleb128 0x1
	.long	0x69fb
	.uleb128 0x1
	.long	0x69fb
	.uleb128 0x1
	.long	0x4e
	.byte	0
	.uleb128 0x1b
	.long	.LASF1008
	.byte	0x32
	.byte	0x5c
	.byte	0x11
	.long	0x69b2
	.long	0x6e6a
	.uleb128 0x1
	.long	0x69b2
	.uleb128 0x1
	.long	0x69fb
	.uleb128 0x1
	.long	0x4e
	.byte	0
	.uleb128 0x10
	.long	.LASF1009
	.byte	0x32
	.value	0x158
	.byte	0xf
	.long	0x4e
	.long	0x6e90
	.uleb128 0x1
	.long	0x6c96
	.uleb128 0x1
	.long	0x6e90
	.uleb128 0x1
	.long	0x4e
	.uleb128 0x1
	.long	0x6a9f
	.byte	0
	.uleb128 0x9
	.long	0x69fb
	.uleb128 0x1b
	.long	.LASF1010
	.byte	0x32
	.byte	0xc0
	.byte	0xf
	.long	0x4e
	.long	0x6eb0
	.uleb128 0x1
	.long	0x69fb
	.uleb128 0x1
	.long	0x69fb
	.byte	0
	.uleb128 0x10
	.long	.LASF1011
	.byte	0x32
	.value	0x17a
	.byte	0xf
	.long	0x40
	.long	0x6ecc
	.uleb128 0x1
	.long	0x69fb
	.uleb128 0x1
	.long	0x6ecc
	.byte	0
	.uleb128 0x9
	.long	0x69b2
	.uleb128 0x10
	.long	.LASF1012
	.byte	0x32
	.value	0x17f
	.byte	0xe
	.long	0x39
	.long	0x6eed
	.uleb128 0x1
	.long	0x69fb
	.uleb128 0x1
	.long	0x6ecc
	.byte	0
	.uleb128 0x1b
	.long	.LASF1013
	.byte	0x32
	.byte	0xda
	.byte	0x11
	.long	0x69b2
	.long	0x6f0d
	.uleb128 0x1
	.long	0x69b2
	.uleb128 0x1
	.long	0x69fb
	.uleb128 0x1
	.long	0x6ecc
	.byte	0
	.uleb128 0x10
	.long	.LASF1014
	.byte	0x32
	.value	0x1ad
	.byte	0x11
	.long	0x6f2e
	.long	0x6f2e
	.uleb128 0x1
	.long	0x69fb
	.uleb128 0x1
	.long	0x6ecc
	.uleb128 0x1
	.long	0x11d
	.byte	0
	.uleb128 0x25
	.byte	0x8
	.byte	0x5
	.long	.LASF1015
	.uleb128 0x7
	.long	0x6f2e
	.uleb128 0x10
	.long	.LASF1016
	.byte	0x32
	.value	0x1b2
	.byte	0x1a
	.long	0x5a
	.long	0x6f5b
	.uleb128 0x1
	.long	0x69fb
	.uleb128 0x1
	.long	0x6ecc
	.uleb128 0x1
	.long	0x11d
	.byte	0
	.uleb128 0x1b
	.long	.LASF1017
	.byte	0x32
	.byte	0x87
	.byte	0xf
	.long	0x4e
	.long	0x6f7b
	.uleb128 0x1
	.long	0x69b2
	.uleb128 0x1
	.long	0x69fb
	.uleb128 0x1
	.long	0x4e
	.byte	0
	.uleb128 0x10
	.long	.LASF1018
	.byte	0x32
	.value	0x121
	.byte	0xc
	.long	0x11d
	.long	0x6f92
	.uleb128 0x1
	.long	0xab
	.byte	0
	.uleb128 0x10
	.long	.LASF1019
	.byte	0x32
	.value	0x103
	.byte	0xc
	.long	0x11d
	.long	0x6fb3
	.uleb128 0x1
	.long	0x69fb
	.uleb128 0x1
	.long	0x69fb
	.uleb128 0x1
	.long	0x4e
	.byte	0
	.uleb128 0x10
	.long	.LASF1020
	.byte	0x32
	.value	0x107
	.byte	0x11
	.long	0x69b2
	.long	0x6fd4
	.uleb128 0x1
	.long	0x69b2
	.uleb128 0x1
	.long	0x69fb
	.uleb128 0x1
	.long	0x4e
	.byte	0
	.uleb128 0x10
	.long	.LASF1021
	.byte	0x32
	.value	0x10c
	.byte	0x11
	.long	0x69b2
	.long	0x6ff5
	.uleb128 0x1
	.long	0x69b2
	.uleb128 0x1
	.long	0x69fb
	.uleb128 0x1
	.long	0x4e
	.byte	0
	.uleb128 0x10
	.long	.LASF1022
	.byte	0x32
	.value	0x110
	.byte	0x11
	.long	0x69b2
	.long	0x7016
	.uleb128 0x1
	.long	0x69b2
	.uleb128 0x1
	.long	0x69b7
	.uleb128 0x1
	.long	0x4e
	.byte	0
	.uleb128 0x10
	.long	.LASF1023
	.byte	0x32
	.value	0x25a
	.byte	0xc
	.long	0x11d
	.long	0x702e
	.uleb128 0x1
	.long	0x69fb
	.uleb128 0x3f
	.byte	0
	.uleb128 0xe
	.long	.LASF1024
	.byte	0x32
	.value	0x295
	.byte	0xc
	.long	.LASF1025
	.long	0x11d
	.long	0x704a
	.uleb128 0x1
	.long	0x69fb
	.uleb128 0x3f
	.byte	0
	.uleb128 0x16
	.long	.LASF1026
	.byte	0x32
	.byte	0xa2
	.byte	0x1d
	.long	.LASF1026
	.long	0x69fb
	.long	0x7069
	.uleb128 0x1
	.long	0x69fb
	.uleb128 0x1
	.long	0x69b7
	.byte	0
	.uleb128 0x16
	.long	.LASF1026
	.byte	0x32
	.byte	0xa0
	.byte	0x17
	.long	.LASF1026
	.long	0x69b2
	.long	0x7088
	.uleb128 0x1
	.long	0x69b2
	.uleb128 0x1
	.long	0x69b7
	.byte	0
	.uleb128 0x16
	.long	.LASF1027
	.byte	0x32
	.byte	0xc6
	.byte	0x1d
	.long	.LASF1027
	.long	0x69fb
	.long	0x70a7
	.uleb128 0x1
	.long	0x69fb
	.uleb128 0x1
	.long	0x69fb
	.byte	0
	.uleb128 0x16
	.long	.LASF1027
	.byte	0x32
	.byte	0xc4
	.byte	0x17
	.long	.LASF1027
	.long	0x69b2
	.long	0x70c6
	.uleb128 0x1
	.long	0x69b2
	.uleb128 0x1
	.long	0x69fb
	.byte	0
	.uleb128 0x16
	.long	.LASF1028
	.byte	0x32
	.byte	0xac
	.byte	0x1d
	.long	.LASF1028
	.long	0x69fb
	.long	0x70e5
	.uleb128 0x1
	.long	0x69fb
	.uleb128 0x1
	.long	0x69b7
	.byte	0
	.uleb128 0x16
	.long	.LASF1028
	.byte	0x32
	.byte	0xaa
	.byte	0x17
	.long	.LASF1028
	.long	0x69b2
	.long	0x7104
	.uleb128 0x1
	.long	0x69b2
	.uleb128 0x1
	.long	0x69b7
	.byte	0
	.uleb128 0x16
	.long	.LASF1029
	.byte	0x32
	.byte	0xd1
	.byte	0x1d
	.long	.LASF1029
	.long	0x69fb
	.long	0x7123
	.uleb128 0x1
	.long	0x69fb
	.uleb128 0x1
	.long	0x69fb
	.byte	0
	.uleb128 0x16
	.long	.LASF1029
	.byte	0x32
	.byte	0xcf
	.byte	0x17
	.long	.LASF1029
	.long	0x69b2
	.long	0x7142
	.uleb128 0x1
	.long	0x69b2
	.uleb128 0x1
	.long	0x69fb
	.byte	0
	.uleb128 0x16
	.long	.LASF1030
	.byte	0x32
	.byte	0xfa
	.byte	0x1d
	.long	.LASF1030
	.long	0x69fb
	.long	0x7166
	.uleb128 0x1
	.long	0x69fb
	.uleb128 0x1
	.long	0x69b7
	.uleb128 0x1
	.long	0x4e
	.byte	0
	.uleb128 0x16
	.long	.LASF1030
	.byte	0x32
	.byte	0xf8
	.byte	0x17
	.long	.LASF1030
	.long	0x69b2
	.long	0x718a
	.uleb128 0x1
	.long	0x69b2
	.uleb128 0x1
	.long	0x69b7
	.uleb128 0x1
	.long	0x4e
	.byte	0
	.uleb128 0x70
	.long	.LASF1031
	.byte	0x1
	.value	0x14d
	.byte	0xb
	.long	0x7e2c
	.uleb128 0x4
	.byte	0x21
	.byte	0xfb
	.byte	0xb
	.long	0x7e2c
	.uleb128 0x21
	.byte	0x21
	.value	0x104
	.byte	0xb
	.long	0x7e48
	.uleb128 0x21
	.byte	0x21
	.value	0x105
	.byte	0xb
	.long	0x7e70
	.uleb128 0x19
	.long	.LASF1032
	.byte	0x1
	.byte	0x3
	.byte	0x49
	.byte	0xc
	.long	0x71d4
	.uleb128 0x5
	.long	.LASF112
	.byte	0x3
	.byte	0x4b
	.byte	0x1f
	.long	0x5a
	.uleb128 0x6
	.long	.LASF119
	.long	0x111
	.byte	0
	.uleb128 0x19
	.long	.LASF94
	.byte	0x1
	.byte	0x3
	.byte	0x62
	.byte	0xc
	.long	0x73b1
	.uleb128 0x37
	.long	.LASF108
	.byte	0x3
	.byte	0x6e
	.byte	0x7
	.long	.LASF1033
	.long	0x71fc
	.uleb128 0x1
	.long	0x7f0e
	.uleb128 0x1
	.long	0x7f13
	.byte	0
	.uleb128 0x5
	.long	.LASF95
	.byte	0x3
	.byte	0x64
	.byte	0x39
	.long	0x111
	.uleb128 0x7
	.long	0x71fc
	.uleb128 0x5f
	.string	"eq"
	.byte	0x3
	.byte	0x79
	.byte	0x7
	.long	.LASF1034
	.long	0x7e9e
	.long	0x722b
	.uleb128 0x1
	.long	0x7f13
	.uleb128 0x1
	.long	0x7f13
	.byte	0
	.uleb128 0x5f
	.string	"lt"
	.byte	0x3
	.byte	0x7d
	.byte	0x7
	.long	.LASF1035
	.long	0x7e9e
	.long	0x7249
	.uleb128 0x1
	.long	0x7f13
	.uleb128 0x1
	.long	0x7f13
	.byte	0
	.uleb128 0x16
	.long	.LASF98
	.byte	0x3
	.byte	0xa9
	.byte	0x5
	.long	.LASF1036
	.long	0x11d
	.long	0x726d
	.uleb128 0x1
	.long	0x7f18
	.uleb128 0x1
	.long	0x7f18
	.uleb128 0x1
	.long	0x56b
	.byte	0
	.uleb128 0x16
	.long	.LASF99
	.byte	0x3
	.byte	0xb6
	.byte	0x5
	.long	.LASF1037
	.long	0x56b
	.long	0x7287
	.uleb128 0x1
	.long	0x7f18
	.byte	0
	.uleb128 0x16
	.long	.LASF102
	.byte	0x3
	.byte	0xc1
	.byte	0x5
	.long	.LASF1038
	.long	0x7f18
	.long	0x72ab
	.uleb128 0x1
	.long	0x7f18
	.uleb128 0x1
	.long	0x56b
	.uleb128 0x1
	.long	0x7f13
	.byte	0
	.uleb128 0x16
	.long	.LASF104
	.byte	0x3
	.byte	0xcd
	.byte	0x5
	.long	.LASF1039
	.long	0x7f1d
	.long	0x72cf
	.uleb128 0x1
	.long	0x7f1d
	.uleb128 0x1
	.long	0x7f18
	.uleb128 0x1
	.long	0x56b
	.byte	0
	.uleb128 0x16
	.long	.LASF106
	.byte	0x3
	.byte	0xff
	.byte	0x5
	.long	.LASF1040
	.long	0x7f1d
	.long	0x72f3
	.uleb128 0x1
	.long	0x7f1d
	.uleb128 0x1
	.long	0x7f18
	.uleb128 0x1
	.long	0x56b
	.byte	0
	.uleb128 0xe
	.long	.LASF108
	.byte	0x3
	.value	0x112
	.byte	0x5
	.long	.LASF1041
	.long	0x7f1d
	.long	0x7318
	.uleb128 0x1
	.long	0x7f1d
	.uleb128 0x1
	.long	0x56b
	.uleb128 0x1
	.long	0x71fc
	.byte	0
	.uleb128 0x16
	.long	.LASF110
	.byte	0x3
	.byte	0x93
	.byte	0x7
	.long	.LASF1042
	.long	0x71fc
	.long	0x7332
	.uleb128 0x1
	.long	0x7f22
	.byte	0
	.uleb128 0x5
	.long	.LASF112
	.byte	0x3
	.byte	0x65
	.byte	0x39
	.long	0x71be
	.uleb128 0x7
	.long	0x7332
	.uleb128 0x16
	.long	.LASF113
	.byte	0x3
	.byte	0x97
	.byte	0x7
	.long	.LASF1043
	.long	0x7332
	.long	0x735d
	.uleb128 0x1
	.long	0x7f13
	.byte	0
	.uleb128 0x16
	.long	.LASF115
	.byte	0x3
	.byte	0x9b
	.byte	0x7
	.long	.LASF1044
	.long	0x7e9e
	.long	0x737c
	.uleb128 0x1
	.long	0x7f22
	.uleb128 0x1
	.long	0x7f22
	.byte	0
	.uleb128 0x9a
	.string	"eof"
	.byte	0x3
	.byte	0x9f
	.byte	0x7
	.long	.LASF1497
	.long	0x7332
	.uleb128 0x16
	.long	.LASF117
	.byte	0x3
	.byte	0xa3
	.byte	0x7
	.long	.LASF1045
	.long	0x7332
	.long	0x73a7
	.uleb128 0x1
	.long	0x7f22
	.byte	0
	.uleb128 0x6
	.long	.LASF119
	.long	0x111
	.byte	0
	.uleb128 0x6a
	.long	.LASF1046
	.byte	0x34
	.byte	0x25
	.byte	0xb
	.uleb128 0x4
	.byte	0x28
	.byte	0xc8
	.byte	0xb
	.long	0x83f5
	.uleb128 0x4
	.byte	0x28
	.byte	0xd8
	.byte	0xb
	.long	0x8690
	.uleb128 0x4
	.byte	0x28
	.byte	0xe3
	.byte	0xb
	.long	0x86ac
	.uleb128 0x4
	.byte	0x28
	.byte	0xe4
	.byte	0xb
	.long	0x86c2
	.uleb128 0x4
	.byte	0x28
	.byte	0xe5
	.byte	0xb
	.long	0x86e2
	.uleb128 0x4
	.byte	0x28
	.byte	0xe7
	.byte	0xb
	.long	0x8702
	.uleb128 0x4
	.byte	0x28
	.byte	0xe8
	.byte	0xb
	.long	0x871d
	.uleb128 0x5f
	.string	"div"
	.byte	0x28
	.byte	0xd5
	.byte	0x3
	.long	.LASF1047
	.long	0x83f5
	.long	0x7410
	.uleb128 0x1
	.long	0x7e69
	.uleb128 0x1
	.long	0x7e69
	.byte	0
	.uleb128 0x19
	.long	.LASF1048
	.byte	0x1
	.byte	0x35
	.byte	0x30
	.byte	0xa
	.long	0x7537
	.uleb128 0x4
	.byte	0x35
	.byte	0x30
	.byte	0xa
	.long	0x19b6
	.uleb128 0x4
	.byte	0x35
	.byte	0x30
	.byte	0xa
	.long	0x1977
	.uleb128 0x4
	.byte	0x35
	.byte	0x30
	.byte	0xa
	.long	0x19e8
	.uleb128 0x4
	.byte	0x35
	.byte	0x30
	.byte	0xa
	.long	0x1a09
	.uleb128 0x36
	.long	0x195e
	.uleb128 0x16
	.long	.LASF1049
	.byte	0x35
	.byte	0x61
	.byte	0x1d
	.long	.LASF1050
	.long	0xd0b
	.long	0x745c
	.uleb128 0x1
	.long	0x832a
	.byte	0
	.uleb128 0x37
	.long	.LASF1051
	.byte	0x35
	.byte	0x64
	.byte	0x26
	.long	.LASF1052
	.long	0x7477
	.uleb128 0x1
	.long	0x832f
	.uleb128 0x1
	.long	0x832f
	.byte	0
	.uleb128 0x2d
	.long	.LASF1053
	.byte	0x67
	.long	.LASF1054
	.long	0x7e9e
	.uleb128 0x2d
	.long	.LASF1055
	.byte	0x6a
	.long	.LASF1056
	.long	0x7e9e
	.uleb128 0x2d
	.long	.LASF1057
	.byte	0x6d
	.long	.LASF1058
	.long	0x7e9e
	.uleb128 0x2d
	.long	.LASF1059
	.byte	0x70
	.long	.LASF1060
	.long	0x7e9e
	.uleb128 0x2d
	.long	.LASF1061
	.byte	0x73
	.long	.LASF1062
	.long	0x7e9e
	.uleb128 0x5
	.long	.LASF56
	.byte	0x35
	.byte	0x38
	.byte	0x35
	.long	0x1a3f
	.uleb128 0x7
	.long	0x74bd
	.uleb128 0x5
	.long	.LASF130
	.byte	0x35
	.byte	0x39
	.byte	0x35
	.long	0x196a
	.uleb128 0x5
	.long	.LASF132
	.byte	0x35
	.byte	0x3a
	.byte	0x35
	.long	0x1a4c
	.uleb128 0x5
	.long	.LASF137
	.byte	0x35
	.byte	0x3b
	.byte	0x35
	.long	0x19a9
	.uleb128 0x5
	.long	.LASF131
	.byte	0x35
	.byte	0x3e
	.byte	0x35
	.long	0x8a52
	.uleb128 0x5
	.long	.LASF134
	.byte	0x35
	.byte	0x3f
	.byte	0x35
	.long	0x8a57
	.uleb128 0x19
	.long	.LASF1063
	.byte	0x1
	.byte	0x35
	.byte	0x77
	.byte	0xe
	.long	0x752d
	.uleb128 0x5
	.long	.LASF1064
	.byte	0x35
	.byte	0x78
	.byte	0x41
	.long	0x1a59
	.uleb128 0xd
	.string	"_Tp"
	.long	0x111
	.byte	0
	.uleb128 0x6
	.long	.LASF492
	.long	0xd0b
	.byte	0
	.uleb128 0x48
	.long	.LASF1065
	.byte	0x8
	.byte	0x11
	.value	0x413
	.long	0x7765
	.uleb128 0x60
	.long	.LASF1091
	.long	0x6c96
	.uleb128 0xb
	.long	.LASF1066
	.byte	0x11
	.value	0x42c
	.byte	0x1a
	.long	.LASF1067
	.byte	0x1
	.long	0x7563
	.long	0x7569
	.uleb128 0x2
	.long	0x9096
	.byte	0
	.uleb128 0x3b
	.long	.LASF1066
	.byte	0x11
	.value	0x430
	.long	.LASF1068
	.long	0x757d
	.long	0x7588
	.uleb128 0x2
	.long	0x9096
	.uleb128 0x1
	.long	0x9050
	.byte	0
	.uleb128 0x1f
	.long	.LASF131
	.byte	0x11
	.value	0x425
	.byte	0x32
	.long	0x6010
	.uleb128 0x3
	.long	.LASF1069
	.byte	0x11
	.value	0x447
	.byte	0x7
	.long	.LASF1070
	.long	0x7588
	.byte	0x1
	.long	0x75af
	.long	0x75b5
	.uleb128 0x2
	.long	0x909b
	.byte	0
	.uleb128 0x1f
	.long	.LASF130
	.byte	0x11
	.value	0x426
	.byte	0x32
	.long	0x6004
	.uleb128 0x3
	.long	.LASF1071
	.byte	0x11
	.value	0x44c
	.byte	0x7
	.long	.LASF1072
	.long	0x75b5
	.byte	0x1
	.long	0x75dc
	.long	0x75e2
	.uleb128 0x2
	.long	0x909b
	.byte	0
	.uleb128 0x3
	.long	.LASF1073
	.byte	0x11
	.value	0x451
	.byte	0x7
	.long	.LASF1074
	.long	0x90a0
	.byte	0x1
	.long	0x75fc
	.long	0x7602
	.uleb128 0x2
	.long	0x9096
	.byte	0
	.uleb128 0x3
	.long	.LASF1073
	.byte	0x11
	.value	0x459
	.byte	0x7
	.long	.LASF1075
	.long	0x7537
	.byte	0x1
	.long	0x761c
	.long	0x7627
	.uleb128 0x2
	.long	0x9096
	.uleb128 0x1
	.long	0x11d
	.byte	0
	.uleb128 0x3
	.long	.LASF1076
	.byte	0x11
	.value	0x45f
	.byte	0x7
	.long	.LASF1077
	.long	0x90a0
	.byte	0x1
	.long	0x7641
	.long	0x7647
	.uleb128 0x2
	.long	0x9096
	.byte	0
	.uleb128 0x3
	.long	.LASF1076
	.byte	0x11
	.value	0x467
	.byte	0x7
	.long	.LASF1078
	.long	0x7537
	.byte	0x1
	.long	0x7661
	.long	0x766c
	.uleb128 0x2
	.long	0x9096
	.uleb128 0x1
	.long	0x11d
	.byte	0
	.uleb128 0x3
	.long	.LASF189
	.byte	0x11
	.value	0x46d
	.byte	0x7
	.long	.LASF1079
	.long	0x7588
	.byte	0x1
	.long	0x7686
	.long	0x7691
	.uleb128 0x2
	.long	0x909b
	.uleb128 0x1
	.long	0x7691
	.byte	0
	.uleb128 0x1f
	.long	.LASF843
	.byte	0x11
	.value	0x424
	.byte	0x38
	.long	0x5ff8
	.uleb128 0x3
	.long	.LASF388
	.byte	0x11
	.value	0x472
	.byte	0x7
	.long	.LASF1080
	.long	0x90a0
	.byte	0x1
	.long	0x76b8
	.long	0x76c3
	.uleb128 0x2
	.long	0x9096
	.uleb128 0x1
	.long	0x7691
	.byte	0
	.uleb128 0x3
	.long	.LASF1081
	.byte	0x11
	.value	0x477
	.byte	0x7
	.long	.LASF1082
	.long	0x7537
	.byte	0x1
	.long	0x76dd
	.long	0x76e8
	.uleb128 0x2
	.long	0x909b
	.uleb128 0x1
	.long	0x7691
	.byte	0
	.uleb128 0x3
	.long	.LASF1083
	.byte	0x11
	.value	0x47c
	.byte	0x7
	.long	.LASF1084
	.long	0x90a0
	.byte	0x1
	.long	0x7702
	.long	0x770d
	.uleb128 0x2
	.long	0x9096
	.uleb128 0x1
	.long	0x7691
	.byte	0
	.uleb128 0x3
	.long	.LASF1085
	.byte	0x11
	.value	0x481
	.byte	0x7
	.long	.LASF1086
	.long	0x7537
	.byte	0x1
	.long	0x7727
	.long	0x7732
	.uleb128 0x2
	.long	0x909b
	.uleb128 0x1
	.long	0x7691
	.byte	0
	.uleb128 0x3
	.long	.LASF1087
	.byte	0x11
	.value	0x486
	.byte	0x7
	.long	.LASF1088
	.long	0x9050
	.byte	0x1
	.long	0x774c
	.long	0x7752
	.uleb128 0x2
	.long	0x909b
	.byte	0
	.uleb128 0x6
	.long	.LASF876
	.long	0x6c96
	.uleb128 0x6
	.long	.LASF1089
	.long	0x1a75
	.byte	0
	.uleb128 0x7
	.long	0x7537
	.uleb128 0x48
	.long	.LASF1090
	.byte	0x8
	.byte	0x11
	.value	0x413
	.long	0x7998
	.uleb128 0x60
	.long	.LASF1091
	.long	0x2f2
	.uleb128 0xb
	.long	.LASF1066
	.byte	0x11
	.value	0x42c
	.byte	0x1a
	.long	.LASF1092
	.byte	0x1
	.long	0x7796
	.long	0x779c
	.uleb128 0x2
	.long	0x9055
	.byte	0
	.uleb128 0x3b
	.long	.LASF1066
	.byte	0x11
	.value	0x430
	.long	.LASF1093
	.long	0x77b0
	.long	0x77bb
	.uleb128 0x2
	.long	0x9055
	.uleb128 0x1
	.long	0x905a
	.byte	0
	.uleb128 0x1f
	.long	.LASF131
	.byte	0x11
	.value	0x425
	.byte	0x32
	.long	0x604e
	.uleb128 0x3
	.long	.LASF1069
	.byte	0x11
	.value	0x447
	.byte	0x7
	.long	.LASF1094
	.long	0x77bb
	.byte	0x1
	.long	0x77e2
	.long	0x77e8
	.uleb128 0x2
	.long	0x905f
	.byte	0
	.uleb128 0x1f
	.long	.LASF130
	.byte	0x11
	.value	0x426
	.byte	0x32
	.long	0x6042
	.uleb128 0x3
	.long	.LASF1071
	.byte	0x11
	.value	0x44c
	.byte	0x7
	.long	.LASF1095
	.long	0x77e8
	.byte	0x1
	.long	0x780f
	.long	0x7815
	.uleb128 0x2
	.long	0x905f
	.byte	0
	.uleb128 0x3
	.long	.LASF1073
	.byte	0x11
	.value	0x451
	.byte	0x7
	.long	.LASF1096
	.long	0x9064
	.byte	0x1
	.long	0x782f
	.long	0x7835
	.uleb128 0x2
	.long	0x9055
	.byte	0
	.uleb128 0x3
	.long	.LASF1073
	.byte	0x11
	.value	0x459
	.byte	0x7
	.long	.LASF1097
	.long	0x776a
	.byte	0x1
	.long	0x784f
	.long	0x785a
	.uleb128 0x2
	.long	0x9055
	.uleb128 0x1
	.long	0x11d
	.byte	0
	.uleb128 0x3
	.long	.LASF1076
	.byte	0x11
	.value	0x45f
	.byte	0x7
	.long	.LASF1098
	.long	0x9064
	.byte	0x1
	.long	0x7874
	.long	0x787a
	.uleb128 0x2
	.long	0x9055
	.byte	0
	.uleb128 0x3
	.long	.LASF1076
	.byte	0x11
	.value	0x467
	.byte	0x7
	.long	.LASF1099
	.long	0x776a
	.byte	0x1
	.long	0x7894
	.long	0x789f
	.uleb128 0x2
	.long	0x9055
	.uleb128 0x1
	.long	0x11d
	.byte	0
	.uleb128 0x3
	.long	.LASF189
	.byte	0x11
	.value	0x46d
	.byte	0x7
	.long	.LASF1100
	.long	0x77bb
	.byte	0x1
	.long	0x78b9
	.long	0x78c4
	.uleb128 0x2
	.long	0x905f
	.uleb128 0x1
	.long	0x78c4
	.byte	0
	.uleb128 0x1f
	.long	.LASF843
	.byte	0x11
	.value	0x424
	.byte	0x38
	.long	0x6036
	.uleb128 0x3
	.long	.LASF388
	.byte	0x11
	.value	0x472
	.byte	0x7
	.long	.LASF1101
	.long	0x9064
	.byte	0x1
	.long	0x78eb
	.long	0x78f6
	.uleb128 0x2
	.long	0x9055
	.uleb128 0x1
	.long	0x78c4
	.byte	0
	.uleb128 0x3
	.long	.LASF1081
	.byte	0x11
	.value	0x477
	.byte	0x7
	.long	.LASF1102
	.long	0x776a
	.byte	0x1
	.long	0x7910
	.long	0x791b
	.uleb128 0x2
	.long	0x905f
	.uleb128 0x1
	.long	0x78c4
	.byte	0
	.uleb128 0x3
	.long	.LASF1083
	.byte	0x11
	.value	0x47c
	.byte	0x7
	.long	.LASF1103
	.long	0x9064
	.byte	0x1
	.long	0x7935
	.long	0x7940
	.uleb128 0x2
	.long	0x9055
	.uleb128 0x1
	.long	0x78c4
	.byte	0
	.uleb128 0x3
	.long	.LASF1085
	.byte	0x11
	.value	0x481
	.byte	0x7
	.long	.LASF1104
	.long	0x776a
	.byte	0x1
	.long	0x795a
	.long	0x7965
	.uleb128 0x2
	.long	0x905f
	.uleb128 0x1
	.long	0x78c4
	.byte	0
	.uleb128 0x3
	.long	.LASF1087
	.byte	0x11
	.value	0x486
	.byte	0x7
	.long	.LASF1105
	.long	0x905a
	.byte	0x1
	.long	0x797f
	.long	0x7985
	.uleb128 0x2
	.long	0x905f
	.byte	0
	.uleb128 0x6
	.long	.LASF876
	.long	0x2f2
	.uleb128 0x6
	.long	.LASF1089
	.long	0x1a75
	.byte	0
	.uleb128 0x7
	.long	0x776a
	.uleb128 0x19
	.long	.LASF1106
	.byte	0x1
	.byte	0x35
	.byte	0x30
	.byte	0xa
	.long	0x7aac
	.uleb128 0x4
	.byte	0x35
	.byte	0x30
	.byte	0xa
	.long	0x3b23
	.uleb128 0x4
	.byte	0x35
	.byte	0x30
	.byte	0xa
	.long	0x3ae4
	.uleb128 0x4
	.byte	0x35
	.byte	0x30
	.byte	0xa
	.long	0x3b55
	.uleb128 0x4
	.byte	0x35
	.byte	0x30
	.byte	0xa
	.long	0x3b76
	.uleb128 0x36
	.long	0x3acb
	.uleb128 0x16
	.long	.LASF1049
	.byte	0x35
	.byte	0x61
	.byte	0x1d
	.long	.LASF1107
	.long	0x3a3e
	.long	0x79e9
	.uleb128 0x1
	.long	0x8d0a
	.byte	0
	.uleb128 0x37
	.long	.LASF1051
	.byte	0x35
	.byte	0x64
	.byte	0x26
	.long	.LASF1108
	.long	0x7a04
	.uleb128 0x1
	.long	0x8d0f
	.uleb128 0x1
	.long	0x8d0f
	.byte	0
	.uleb128 0x2d
	.long	.LASF1053
	.byte	0x67
	.long	.LASF1109
	.long	0x7e9e
	.uleb128 0x2d
	.long	.LASF1055
	.byte	0x6a
	.long	.LASF1110
	.long	0x7e9e
	.uleb128 0x2d
	.long	.LASF1057
	.byte	0x6d
	.long	.LASF1111
	.long	0x7e9e
	.uleb128 0x2d
	.long	.LASF1059
	.byte	0x70
	.long	.LASF1112
	.long	0x7e9e
	.uleb128 0x2d
	.long	.LASF1061
	.byte	0x73
	.long	.LASF1113
	.long	0x7e9e
	.uleb128 0x5
	.long	.LASF56
	.byte	0x35
	.byte	0x38
	.byte	0x35
	.long	0x3bac
	.uleb128 0x7
	.long	0x7a4a
	.uleb128 0x5
	.long	.LASF130
	.byte	0x35
	.byte	0x39
	.byte	0x35
	.long	0x3ad7
	.uleb128 0x5
	.long	.LASF131
	.byte	0x35
	.byte	0x3e
	.byte	0x35
	.long	0x8d1e
	.uleb128 0x5
	.long	.LASF134
	.byte	0x35
	.byte	0x3f
	.byte	0x35
	.long	0x8d23
	.uleb128 0x19
	.long	.LASF1114
	.byte	0x1
	.byte	0x35
	.byte	0x77
	.byte	0xe
	.long	0x7aa2
	.uleb128 0x5
	.long	.LASF1064
	.byte	0x35
	.byte	0x78
	.byte	0x41
	.long	0x3bb9
	.uleb128 0xd
	.string	"_Tp"
	.long	0x6f2e
	.byte	0
	.uleb128 0x6
	.long	.LASF492
	.long	0x3a3e
	.byte	0
	.uleb128 0x48
	.long	.LASF1115
	.byte	0x8
	.byte	0x11
	.value	0x413
	.long	0x7cda
	.uleb128 0x60
	.long	.LASF1091
	.long	0x8cd8
	.uleb128 0xb
	.long	.LASF1066
	.byte	0x11
	.value	0x42c
	.byte	0x1a
	.long	.LASF1116
	.byte	0x1
	.long	0x7ad8
	.long	0x7ade
	.uleb128 0x2
	.long	0x9078
	.byte	0
	.uleb128 0x3b
	.long	.LASF1066
	.byte	0x11
	.value	0x430
	.long	.LASF1117
	.long	0x7af2
	.long	0x7afd
	.uleb128 0x2
	.long	0x9078
	.uleb128 0x1
	.long	0x9082
	.byte	0
	.uleb128 0x1f
	.long	.LASF131
	.byte	0x11
	.value	0x425
	.byte	0x32
	.long	0x6080
	.uleb128 0x3
	.long	.LASF1069
	.byte	0x11
	.value	0x447
	.byte	0x7
	.long	.LASF1118
	.long	0x7afd
	.byte	0x1
	.long	0x7b24
	.long	0x7b2a
	.uleb128 0x2
	.long	0x9087
	.byte	0
	.uleb128 0x1f
	.long	.LASF130
	.byte	0x11
	.value	0x426
	.byte	0x32
	.long	0x6074
	.uleb128 0x3
	.long	.LASF1071
	.byte	0x11
	.value	0x44c
	.byte	0x7
	.long	.LASF1119
	.long	0x7b2a
	.byte	0x1
	.long	0x7b51
	.long	0x7b57
	.uleb128 0x2
	.long	0x9087
	.byte	0
	.uleb128 0x3
	.long	.LASF1073
	.byte	0x11
	.value	0x451
	.byte	0x7
	.long	.LASF1120
	.long	0x9091
	.byte	0x1
	.long	0x7b71
	.long	0x7b77
	.uleb128 0x2
	.long	0x9078
	.byte	0
	.uleb128 0x3
	.long	.LASF1073
	.byte	0x11
	.value	0x459
	.byte	0x7
	.long	.LASF1121
	.long	0x7aac
	.byte	0x1
	.long	0x7b91
	.long	0x7b9c
	.uleb128 0x2
	.long	0x9078
	.uleb128 0x1
	.long	0x11d
	.byte	0
	.uleb128 0x3
	.long	.LASF1076
	.byte	0x11
	.value	0x45f
	.byte	0x7
	.long	.LASF1122
	.long	0x9091
	.byte	0x1
	.long	0x7bb6
	.long	0x7bbc
	.uleb128 0x2
	.long	0x9078
	.byte	0
	.uleb128 0x3
	.long	.LASF1076
	.byte	0x11
	.value	0x467
	.byte	0x7
	.long	.LASF1123
	.long	0x7aac
	.byte	0x1
	.long	0x7bd6
	.long	0x7be1
	.uleb128 0x2
	.long	0x9078
	.uleb128 0x1
	.long	0x11d
	.byte	0
	.uleb128 0x3
	.long	.LASF189
	.byte	0x11
	.value	0x46d
	.byte	0x7
	.long	.LASF1124
	.long	0x7afd
	.byte	0x1
	.long	0x7bfb
	.long	0x7c06
	.uleb128 0x2
	.long	0x9087
	.uleb128 0x1
	.long	0x7c06
	.byte	0
	.uleb128 0x1f
	.long	.LASF843
	.byte	0x11
	.value	0x424
	.byte	0x38
	.long	0x6068
	.uleb128 0x3
	.long	.LASF388
	.byte	0x11
	.value	0x472
	.byte	0x7
	.long	.LASF1125
	.long	0x9091
	.byte	0x1
	.long	0x7c2d
	.long	0x7c38
	.uleb128 0x2
	.long	0x9078
	.uleb128 0x1
	.long	0x7c06
	.byte	0
	.uleb128 0x3
	.long	.LASF1081
	.byte	0x11
	.value	0x477
	.byte	0x7
	.long	.LASF1126
	.long	0x7aac
	.byte	0x1
	.long	0x7c52
	.long	0x7c5d
	.uleb128 0x2
	.long	0x9087
	.uleb128 0x1
	.long	0x7c06
	.byte	0
	.uleb128 0x3
	.long	.LASF1083
	.byte	0x11
	.value	0x47c
	.byte	0x7
	.long	.LASF1127
	.long	0x9091
	.byte	0x1
	.long	0x7c77
	.long	0x7c82
	.uleb128 0x2
	.long	0x9078
	.uleb128 0x1
	.long	0x7c06
	.byte	0
	.uleb128 0x3
	.long	.LASF1085
	.byte	0x11
	.value	0x481
	.byte	0x7
	.long	.LASF1128
	.long	0x7aac
	.byte	0x1
	.long	0x7c9c
	.long	0x7ca7
	.uleb128 0x2
	.long	0x9087
	.uleb128 0x1
	.long	0x7c06
	.byte	0
	.uleb128 0x3
	.long	.LASF1087
	.byte	0x11
	.value	0x486
	.byte	0x7
	.long	.LASF1129
	.long	0x9082
	.byte	0x1
	.long	0x7cc1
	.long	0x7cc7
	.uleb128 0x2
	.long	0x9087
	.byte	0
	.uleb128 0x6
	.long	.LASF876
	.long	0x8cd8
	.uleb128 0x6
	.long	.LASF1089
	.long	0x3fa3
	.byte	0
	.uleb128 0x7
	.long	0x7aac
	.uleb128 0x31
	.long	.LASF1130
	.uleb128 0x19
	.long	.LASF1131
	.byte	0x1
	.byte	0x35
	.byte	0x30
	.byte	0xa
	.long	0x7df3
	.uleb128 0x4
	.byte	0x35
	.byte	0x30
	.byte	0xa
	.long	0x4f4f
	.uleb128 0x4
	.byte	0x35
	.byte	0x30
	.byte	0xa
	.long	0x4f10
	.uleb128 0x4
	.byte	0x35
	.byte	0x30
	.byte	0xa
	.long	0x4f81
	.uleb128 0x4
	.byte	0x35
	.byte	0x30
	.byte	0xa
	.long	0x4fa2
	.uleb128 0x36
	.long	0x4ef7
	.uleb128 0x16
	.long	.LASF1049
	.byte	0x35
	.byte	0x61
	.byte	0x1d
	.long	.LASF1132
	.long	0x4e6a
	.long	0x7d30
	.uleb128 0x1
	.long	0x8deb
	.byte	0
	.uleb128 0x37
	.long	.LASF1051
	.byte	0x35
	.byte	0x64
	.byte	0x26
	.long	.LASF1133
	.long	0x7d4b
	.uleb128 0x1
	.long	0x8df0
	.uleb128 0x1
	.long	0x8df0
	.byte	0
	.uleb128 0x2d
	.long	.LASF1053
	.byte	0x67
	.long	.LASF1134
	.long	0x7e9e
	.uleb128 0x2d
	.long	.LASF1055
	.byte	0x6a
	.long	.LASF1135
	.long	0x7e9e
	.uleb128 0x2d
	.long	.LASF1057
	.byte	0x6d
	.long	.LASF1136
	.long	0x7e9e
	.uleb128 0x2d
	.long	.LASF1059
	.byte	0x70
	.long	.LASF1137
	.long	0x7e9e
	.uleb128 0x2d
	.long	.LASF1061
	.byte	0x73
	.long	.LASF1138
	.long	0x7e9e
	.uleb128 0x5
	.long	.LASF56
	.byte	0x35
	.byte	0x38
	.byte	0x35
	.long	0x4fd8
	.uleb128 0x7
	.long	0x7d91
	.uleb128 0x5
	.long	.LASF130
	.byte	0x35
	.byte	0x39
	.byte	0x35
	.long	0x4f03
	.uleb128 0x5
	.long	.LASF131
	.byte	0x35
	.byte	0x3e
	.byte	0x35
	.long	0x8dff
	.uleb128 0x5
	.long	.LASF134
	.byte	0x35
	.byte	0x3f
	.byte	0x35
	.long	0x8e04
	.uleb128 0x19
	.long	.LASF1139
	.byte	0x1
	.byte	0x35
	.byte	0x77
	.byte	0xe
	.long	0x7de9
	.uleb128 0x5
	.long	.LASF1064
	.byte	0x35
	.byte	0x78
	.byte	0x41
	.long	0x4fe5
	.uleb128 0xd
	.string	"_Tp"
	.long	0x11d
	.byte	0
	.uleb128 0x6
	.long	.LASF492
	.long	0x4e6a
	.byte	0
	.uleb128 0x31
	.long	.LASF1140
	.uleb128 0x31
	.long	.LASF1141
	.uleb128 0x6b
	.long	.LASF1142
	.byte	0x11
	.value	0x4d5
	.byte	0x5
	.long	.LASF1143
	.long	0x7e9e
	.uleb128 0x6
	.long	.LASF876
	.long	0x8cd8
	.uleb128 0x6
	.long	.LASF1089
	.long	0x3fa3
	.uleb128 0x1
	.long	0xa6aa
	.uleb128 0x1
	.long	0xa6aa
	.byte	0
	.byte	0
	.uleb128 0x10
	.long	.LASF1144
	.byte	0x32
	.value	0x181
	.byte	0x14
	.long	0x47
	.long	0x7e48
	.uleb128 0x1
	.long	0x69fb
	.uleb128 0x1
	.long	0x6ecc
	.byte	0
	.uleb128 0x10
	.long	.LASF1145
	.byte	0x32
	.value	0x1ba
	.byte	0x16
	.long	0x7e69
	.long	0x7e69
	.uleb128 0x1
	.long	0x69fb
	.uleb128 0x1
	.long	0x6ecc
	.uleb128 0x1
	.long	0x11d
	.byte	0
	.uleb128 0x25
	.byte	0x8
	.byte	0x5
	.long	.LASF1146
	.uleb128 0x10
	.long	.LASF1147
	.byte	0x32
	.value	0x1c1
	.byte	0x1f
	.long	0x7e91
	.long	0x7e91
	.uleb128 0x1
	.long	0x69fb
	.uleb128 0x1
	.long	0x6ecc
	.uleb128 0x1
	.long	0x11d
	.byte	0
	.uleb128 0x25
	.byte	0x8
	.byte	0x7
	.long	.LASF1148
	.uleb128 0x9b
	.long	.LASF1498
	.uleb128 0x25
	.byte	0x1
	.byte	0x2
	.long	.LASF1149
	.uleb128 0x7
	.long	0x7e9e
	.uleb128 0x9
	.long	0x5e6
	.uleb128 0x9
	.long	0x654
	.uleb128 0x25
	.byte	0x1
	.byte	0x8
	.long	.LASF1150
	.uleb128 0x25
	.byte	0x1
	.byte	0x6
	.long	.LASF1151
	.uleb128 0x25
	.byte	0x2
	.byte	0x5
	.long	.LASF1152
	.uleb128 0x25
	.byte	0x2
	.byte	0x10
	.long	.LASF1153
	.uleb128 0x25
	.byte	0x4
	.byte	0x10
	.long	.LASF1154
	.uleb128 0x9
	.long	0x67f
	.uleb128 0x9
	.long	0x844
	.uleb128 0xa
	.long	0x844
	.uleb128 0x28
	.long	0x67f
	.uleb128 0xa
	.long	0x67f
	.uleb128 0x9
	.long	0x882
	.uleb128 0xa
	.long	0x8af
	.uleb128 0xa
	.long	0x8bc
	.uleb128 0x9
	.long	0x8bc
	.uleb128 0x9
	.long	0x8af
	.uleb128 0xa
	.long	0x9f7
	.uleb128 0xa
	.long	0x71fc
	.uleb128 0xa
	.long	0x7208
	.uleb128 0x9
	.long	0x7208
	.uleb128 0x9
	.long	0x71fc
	.uleb128 0xa
	.long	0x733e
	.uleb128 0x5
	.long	.LASF1155
	.byte	0x36
	.byte	0x25
	.byte	0x15
	.long	0x7ebb
	.uleb128 0x5
	.long	.LASF1156
	.byte	0x36
	.byte	0x26
	.byte	0x17
	.long	0x7eb4
	.uleb128 0x5
	.long	.LASF1157
	.byte	0x36
	.byte	0x27
	.byte	0x1a
	.long	0x7ec2
	.uleb128 0x5
	.long	.LASF1158
	.byte	0x36
	.byte	0x28
	.byte	0x1c
	.long	0x2e6
	.uleb128 0x5
	.long	.LASF1159
	.byte	0x36
	.byte	0x29
	.byte	0x14
	.long	0x11d
	.uleb128 0x7
	.long	0x7f57
	.uleb128 0x5
	.long	.LASF1160
	.byte	0x36
	.byte	0x2a
	.byte	0x16
	.long	0x9c
	.uleb128 0x5
	.long	.LASF1161
	.byte	0x36
	.byte	0x2c
	.byte	0x19
	.long	0x6f2e
	.uleb128 0x5
	.long	.LASF1162
	.byte	0x36
	.byte	0x2d
	.byte	0x1b
	.long	0x5a
	.uleb128 0x5
	.long	.LASF1163
	.byte	0x36
	.byte	0x34
	.byte	0x12
	.long	0x7f27
	.uleb128 0x5
	.long	.LASF1164
	.byte	0x36
	.byte	0x35
	.byte	0x13
	.long	0x7f33
	.uleb128 0x5
	.long	.LASF1165
	.byte	0x36
	.byte	0x36
	.byte	0x13
	.long	0x7f3f
	.uleb128 0x5
	.long	.LASF1166
	.byte	0x36
	.byte	0x37
	.byte	0x14
	.long	0x7f4b
	.uleb128 0x5
	.long	.LASF1167
	.byte	0x36
	.byte	0x38
	.byte	0x13
	.long	0x7f57
	.uleb128 0x5
	.long	.LASF1168
	.byte	0x36
	.byte	0x39
	.byte	0x14
	.long	0x7f68
	.uleb128 0x5
	.long	.LASF1169
	.byte	0x36
	.byte	0x3a
	.byte	0x13
	.long	0x7f74
	.uleb128 0x5
	.long	.LASF1170
	.byte	0x36
	.byte	0x3b
	.byte	0x14
	.long	0x7f80
	.uleb128 0x5
	.long	.LASF1171
	.byte	0x36
	.byte	0x48
	.byte	0x12
	.long	0x6f2e
	.uleb128 0x5
	.long	.LASF1172
	.byte	0x36
	.byte	0x49
	.byte	0x1b
	.long	0x5a
	.uleb128 0x5
	.long	.LASF1173
	.byte	0x36
	.byte	0x98
	.byte	0x19
	.long	0x6f2e
	.uleb128 0x5
	.long	.LASF1174
	.byte	0x36
	.byte	0x99
	.byte	0x1b
	.long	0x6f2e
	.uleb128 0x5
	.long	.LASF1175
	.byte	0x36
	.byte	0xc2
	.byte	0x1b
	.long	0x6f2e
	.uleb128 0x5
	.long	.LASF1176
	.byte	0x37
	.byte	0x18
	.byte	0x12
	.long	0x7f27
	.uleb128 0x5
	.long	.LASF1177
	.byte	0x37
	.byte	0x19
	.byte	0x13
	.long	0x7f3f
	.uleb128 0x5
	.long	.LASF1178
	.byte	0x37
	.byte	0x1a
	.byte	0x13
	.long	0x7f57
	.uleb128 0x5
	.long	.LASF1179
	.byte	0x37
	.byte	0x1b
	.byte	0x13
	.long	0x7f74
	.uleb128 0x5
	.long	.LASF1180
	.byte	0x38
	.byte	0x18
	.byte	0x13
	.long	0x7f33
	.uleb128 0x5
	.long	.LASF1181
	.byte	0x38
	.byte	0x19
	.byte	0x14
	.long	0x7f4b
	.uleb128 0x5
	.long	.LASF1182
	.byte	0x38
	.byte	0x1a
	.byte	0x14
	.long	0x7f68
	.uleb128 0x5
	.long	.LASF1183
	.byte	0x38
	.byte	0x1b
	.byte	0x14
	.long	0x7f80
	.uleb128 0x5
	.long	.LASF1184
	.byte	0x39
	.byte	0x2b
	.byte	0x18
	.long	0x7f8c
	.uleb128 0x5
	.long	.LASF1185
	.byte	0x39
	.byte	0x2c
	.byte	0x19
	.long	0x7fa4
	.uleb128 0x5
	.long	.LASF1186
	.byte	0x39
	.byte	0x2d
	.byte	0x19
	.long	0x7fbc
	.uleb128 0x5
	.long	.LASF1187
	.byte	0x39
	.byte	0x2e
	.byte	0x19
	.long	0x7fd4
	.uleb128 0x5
	.long	.LASF1188
	.byte	0x39
	.byte	0x31
	.byte	0x19
	.long	0x7f98
	.uleb128 0x5
	.long	.LASF1189
	.byte	0x39
	.byte	0x32
	.byte	0x1a
	.long	0x7fb0
	.uleb128 0x5
	.long	.LASF1190
	.byte	0x39
	.byte	0x33
	.byte	0x1a
	.long	0x7fc8
	.uleb128 0x5
	.long	.LASF1191
	.byte	0x39
	.byte	0x34
	.byte	0x1a
	.long	0x7fe0
	.uleb128 0x5
	.long	.LASF1192
	.byte	0x39
	.byte	0x3a
	.byte	0x16
	.long	0x7ebb
	.uleb128 0x5
	.long	.LASF1193
	.byte	0x39
	.byte	0x3c
	.byte	0x13
	.long	0x6f2e
	.uleb128 0x5
	.long	.LASF1194
	.byte	0x39
	.byte	0x3d
	.byte	0x13
	.long	0x6f2e
	.uleb128 0x5
	.long	.LASF1195
	.byte	0x39
	.byte	0x3e
	.byte	0x13
	.long	0x6f2e
	.uleb128 0x5
	.long	.LASF1196
	.byte	0x39
	.byte	0x47
	.byte	0x18
	.long	0x7eb4
	.uleb128 0x5
	.long	.LASF1197
	.byte	0x39
	.byte	0x49
	.byte	0x1b
	.long	0x5a
	.uleb128 0x5
	.long	.LASF1198
	.byte	0x39
	.byte	0x4a
	.byte	0x1b
	.long	0x5a
	.uleb128 0x5
	.long	.LASF1199
	.byte	0x39
	.byte	0x4b
	.byte	0x1b
	.long	0x5a
	.uleb128 0x5
	.long	.LASF1200
	.byte	0x39
	.byte	0x57
	.byte	0x13
	.long	0x6f2e
	.uleb128 0x5
	.long	.LASF1201
	.byte	0x39
	.byte	0x5a
	.byte	0x1b
	.long	0x5a
	.uleb128 0x5
	.long	.LASF1202
	.byte	0x39
	.byte	0x65
	.byte	0x15
	.long	0x7fec
	.uleb128 0x5
	.long	.LASF1203
	.byte	0x39
	.byte	0x66
	.byte	0x16
	.long	0x7ff8
	.uleb128 0x19
	.long	.LASF1204
	.byte	0x60
	.byte	0x3a
	.byte	0x33
	.byte	0x8
	.long	0x82be
	.uleb128 0x8
	.long	.LASF1205
	.byte	0x3a
	.byte	0x37
	.byte	0x9
	.long	0x6c96
	.byte	0
	.uleb128 0x8
	.long	.LASF1206
	.byte	0x3a
	.byte	0x38
	.byte	0x9
	.long	0x6c96
	.byte	0x8
	.uleb128 0x8
	.long	.LASF1207
	.byte	0x3a
	.byte	0x3e
	.byte	0x9
	.long	0x6c96
	.byte	0x10
	.uleb128 0x8
	.long	.LASF1208
	.byte	0x3a
	.byte	0x44
	.byte	0x9
	.long	0x6c96
	.byte	0x18
	.uleb128 0x8
	.long	.LASF1209
	.byte	0x3a
	.byte	0x45
	.byte	0x9
	.long	0x6c96
	.byte	0x20
	.uleb128 0x8
	.long	.LASF1210
	.byte	0x3a
	.byte	0x46
	.byte	0x9
	.long	0x6c96
	.byte	0x28
	.uleb128 0x8
	.long	.LASF1211
	.byte	0x3a
	.byte	0x47
	.byte	0x9
	.long	0x6c96
	.byte	0x30
	.uleb128 0x8
	.long	.LASF1212
	.byte	0x3a
	.byte	0x48
	.byte	0x9
	.long	0x6c96
	.byte	0x38
	.uleb128 0x8
	.long	.LASF1213
	.byte	0x3a
	.byte	0x49
	.byte	0x9
	.long	0x6c96
	.byte	0x40
	.uleb128 0x8
	.long	.LASF1214
	.byte	0x3a
	.byte	0x4a
	.byte	0x9
	.long	0x6c96
	.byte	0x48
	.uleb128 0x8
	.long	.LASF1215
	.byte	0x3a
	.byte	0x4b
	.byte	0x8
	.long	0x111
	.byte	0x50
	.uleb128 0x8
	.long	.LASF1216
	.byte	0x3a
	.byte	0x4c
	.byte	0x8
	.long	0x111
	.byte	0x51
	.uleb128 0x8
	.long	.LASF1217
	.byte	0x3a
	.byte	0x4e
	.byte	0x8
	.long	0x111
	.byte	0x52
	.uleb128 0x8
	.long	.LASF1218
	.byte	0x3a
	.byte	0x50
	.byte	0x8
	.long	0x111
	.byte	0x53
	.uleb128 0x8
	.long	.LASF1219
	.byte	0x3a
	.byte	0x52
	.byte	0x8
	.long	0x111
	.byte	0x54
	.uleb128 0x8
	.long	.LASF1220
	.byte	0x3a
	.byte	0x54
	.byte	0x8
	.long	0x111
	.byte	0x55
	.uleb128 0x8
	.long	.LASF1221
	.byte	0x3a
	.byte	0x5b
	.byte	0x8
	.long	0x111
	.byte	0x56
	.uleb128 0x8
	.long	.LASF1222
	.byte	0x3a
	.byte	0x5c
	.byte	0x8
	.long	0x111
	.byte	0x57
	.uleb128 0x8
	.long	.LASF1223
	.byte	0x3a
	.byte	0x5f
	.byte	0x8
	.long	0x111
	.byte	0x58
	.uleb128 0x8
	.long	.LASF1224
	.byte	0x3a
	.byte	0x61
	.byte	0x8
	.long	0x111
	.byte	0x59
	.uleb128 0x8
	.long	.LASF1225
	.byte	0x3a
	.byte	0x63
	.byte	0x8
	.long	0x111
	.byte	0x5a
	.uleb128 0x8
	.long	.LASF1226
	.byte	0x3a
	.byte	0x65
	.byte	0x8
	.long	0x111
	.byte	0x5b
	.uleb128 0x8
	.long	.LASF1227
	.byte	0x3a
	.byte	0x6c
	.byte	0x8
	.long	0x111
	.byte	0x5c
	.uleb128 0x8
	.long	.LASF1228
	.byte	0x3a
	.byte	0x6d
	.byte	0x8
	.long	0x111
	.byte	0x5d
	.byte	0
	.uleb128 0x1b
	.long	.LASF1229
	.byte	0x3a
	.byte	0x7a
	.byte	0xe
	.long	0x6c96
	.long	0x82d9
	.uleb128 0x1
	.long	0x11d
	.uleb128 0x1
	.long	0x2f2
	.byte	0
	.uleb128 0x71
	.long	.LASF1231
	.byte	0x3a
	.byte	0x7d
	.byte	0x16
	.long	0x82e5
	.uleb128 0x9
	.long	0x8178
	.uleb128 0x9c
	.long	0x82f6
	.uleb128 0x1
	.long	0xa8
	.byte	0
	.uleb128 0x9
	.long	0x82ea
	.uleb128 0x9
	.long	0x8300
	.uleb128 0x9d
	.uleb128 0x9
	.long	0xb84
	.uleb128 0x7
	.long	0x8302
	.uleb128 0xa
	.long	0xd06
	.uleb128 0x9
	.long	0xd06
	.uleb128 0xa
	.long	0x111
	.uleb128 0xa
	.long	0x118
	.uleb128 0x9
	.long	0xd0b
	.uleb128 0x7
	.long	0x8320
	.uleb128 0xa
	.long	0xd93
	.uleb128 0xa
	.long	0xd0b
	.uleb128 0x44
	.long	.LASF1232
	.byte	0x26
	.byte	0x38
	.byte	0xb
	.long	0x834a
	.uleb128 0x9e
	.byte	0x26
	.byte	0x3a
	.byte	0x18
	.long	0xddb
	.byte	0
	.uleb128 0x9
	.long	0xe36
	.uleb128 0xa
	.long	0x177c
	.uleb128 0xa
	.long	0xe36
	.uleb128 0x9
	.long	0xf0c
	.uleb128 0x9
	.long	0x177c
	.uleb128 0xa
	.long	0xf0c
	.uleb128 0x4b
	.byte	0x8
	.byte	0x3b
	.byte	0x3c
	.byte	0x3
	.long	.LASF1234
	.long	0x838f
	.uleb128 0x8
	.long	.LASF1235
	.byte	0x3b
	.byte	0x3d
	.byte	0x9
	.long	0x11d
	.byte	0
	.uleb128 0x61
	.string	"rem"
	.byte	0x3e
	.byte	0x9
	.long	0x11d
	.byte	0x4
	.byte	0
	.uleb128 0x5
	.long	.LASF1236
	.byte	0x3b
	.byte	0x3f
	.byte	0x5
	.long	0x8368
	.uleb128 0x4b
	.byte	0x10
	.byte	0x3b
	.byte	0x44
	.byte	0x3
	.long	.LASF1237
	.long	0x83c2
	.uleb128 0x8
	.long	.LASF1235
	.byte	0x3b
	.byte	0x45
	.byte	0xe
	.long	0x6f2e
	.byte	0
	.uleb128 0x61
	.string	"rem"
	.byte	0x46
	.byte	0xe
	.long	0x6f2e
	.byte	0x8
	.byte	0
	.uleb128 0x5
	.long	.LASF1238
	.byte	0x3b
	.byte	0x47
	.byte	0x5
	.long	0x839b
	.uleb128 0x4b
	.byte	0x10
	.byte	0x3b
	.byte	0x4e
	.byte	0x3
	.long	.LASF1239
	.long	0x83f5
	.uleb128 0x8
	.long	.LASF1235
	.byte	0x3b
	.byte	0x4f
	.byte	0x13
	.long	0x7e69
	.byte	0
	.uleb128 0x61
	.string	"rem"
	.byte	0x50
	.byte	0x13
	.long	0x7e69
	.byte	0x8
	.byte	0
	.uleb128 0x5
	.long	.LASF1240
	.byte	0x3b
	.byte	0x51
	.byte	0x5
	.long	0x83ce
	.uleb128 0x5
	.long	.LASF1241
	.byte	0x3c
	.byte	0x6c
	.byte	0x13
	.long	0x801c
	.uleb128 0x1e
	.long	.LASF1242
	.byte	0x3b
	.value	0x330
	.byte	0xf
	.long	0x841a
	.uleb128 0x9
	.long	0x841f
	.uleb128 0x9f
	.long	0x11d
	.long	0x8434
	.uleb128 0x1
	.long	0x82fb
	.uleb128 0x1
	.long	0x82fb
	.byte	0
	.uleb128 0x10
	.long	.LASF1243
	.byte	0x3b
	.value	0x25a
	.byte	0xc
	.long	0x11d
	.long	0x844b
	.uleb128 0x1
	.long	0x844b
	.byte	0
	.uleb128 0x9
	.long	0x8450
	.uleb128 0xa0
	.uleb128 0xe
	.long	.LASF1244
	.byte	0x3b
	.value	0x25f
	.byte	0x12
	.long	.LASF1244
	.long	0x11d
	.long	0x846d
	.uleb128 0x1
	.long	0x844b
	.byte	0
	.uleb128 0x1b
	.long	.LASF1245
	.byte	0x3b
	.byte	0x66
	.byte	0xf
	.long	0x40
	.long	0x8483
	.uleb128 0x1
	.long	0x2f2
	.byte	0
	.uleb128 0x1b
	.long	.LASF1246
	.byte	0x3b
	.byte	0x69
	.byte	0xc
	.long	0x11d
	.long	0x8499
	.uleb128 0x1
	.long	0x2f2
	.byte	0
	.uleb128 0x1b
	.long	.LASF1247
	.byte	0x3b
	.byte	0x6c
	.byte	0x11
	.long	0x6f2e
	.long	0x84af
	.uleb128 0x1
	.long	0x2f2
	.byte	0
	.uleb128 0x10
	.long	.LASF1248
	.byte	0x3b
	.value	0x33c
	.byte	0xe
	.long	0xa8
	.long	0x84da
	.uleb128 0x1
	.long	0x82fb
	.uleb128 0x1
	.long	0x82fb
	.uleb128 0x1
	.long	0x4e
	.uleb128 0x1
	.long	0x4e
	.uleb128 0x1
	.long	0x840d
	.byte	0
	.uleb128 0xa1
	.string	"div"
	.byte	0x3b
	.value	0x35c
	.byte	0xe
	.long	0x838f
	.long	0x84f7
	.uleb128 0x1
	.long	0x11d
	.uleb128 0x1
	.long	0x11d
	.byte	0
	.uleb128 0x10
	.long	.LASF1249
	.byte	0x3b
	.value	0x281
	.byte	0xe
	.long	0x6c96
	.long	0x850e
	.uleb128 0x1
	.long	0x2f2
	.byte	0
	.uleb128 0x10
	.long	.LASF1250
	.byte	0x3b
	.value	0x35e
	.byte	0xf
	.long	0x83c2
	.long	0x852a
	.uleb128 0x1
	.long	0x6f2e
	.uleb128 0x1
	.long	0x6f2e
	.byte	0
	.uleb128 0x10
	.long	.LASF1251
	.byte	0x3b
	.value	0x3a2
	.byte	0xc
	.long	0x11d
	.long	0x8546
	.uleb128 0x1
	.long	0x2f2
	.uleb128 0x1
	.long	0x4e
	.byte	0
	.uleb128 0x10
	.long	.LASF1252
	.byte	0x3b
	.value	0x3ad
	.byte	0xf
	.long	0x4e
	.long	0x8567
	.uleb128 0x1
	.long	0x69b2
	.uleb128 0x1
	.long	0x2f2
	.uleb128 0x1
	.long	0x4e
	.byte	0
	.uleb128 0x10
	.long	.LASF1253
	.byte	0x3b
	.value	0x3a5
	.byte	0xc
	.long	0x11d
	.long	0x8588
	.uleb128 0x1
	.long	0x69b2
	.uleb128 0x1
	.long	0x2f2
	.uleb128 0x1
	.long	0x4e
	.byte	0
	.uleb128 0x40
	.long	.LASF1255
	.byte	0x3b
	.value	0x346
	.long	0x85a9
	.uleb128 0x1
	.long	0xa8
	.uleb128 0x1
	.long	0x4e
	.uleb128 0x1
	.long	0x4e
	.uleb128 0x1
	.long	0x840d
	.byte	0
	.uleb128 0xa2
	.long	.LASF1256
	.byte	0x3b
	.value	0x276
	.byte	0xd
	.long	0x85bd
	.uleb128 0x1
	.long	0x11d
	.byte	0
	.uleb128 0x5e
	.long	.LASF1257
	.byte	0x3b
	.value	0x1c6
	.byte	0xc
	.long	0x11d
	.uleb128 0x40
	.long	.LASF1258
	.byte	0x3b
	.value	0x1c8
	.long	0x85dc
	.uleb128 0x1
	.long	0x9c
	.byte	0
	.uleb128 0x1b
	.long	.LASF1259
	.byte	0x3b
	.byte	0x76
	.byte	0xf
	.long	0x40
	.long	0x85f7
	.uleb128 0x1
	.long	0x2f2
	.uleb128 0x1
	.long	0x85f7
	.byte	0
	.uleb128 0x9
	.long	0x6c96
	.uleb128 0x1b
	.long	.LASF1260
	.byte	0x3b
	.byte	0xb1
	.byte	0x11
	.long	0x6f2e
	.long	0x861c
	.uleb128 0x1
	.long	0x2f2
	.uleb128 0x1
	.long	0x85f7
	.uleb128 0x1
	.long	0x11d
	.byte	0
	.uleb128 0x1b
	.long	.LASF1261
	.byte	0x3b
	.byte	0xb5
	.byte	0x1a
	.long	0x5a
	.long	0x863c
	.uleb128 0x1
	.long	0x2f2
	.uleb128 0x1
	.long	0x85f7
	.uleb128 0x1
	.long	0x11d
	.byte	0
	.uleb128 0x10
	.long	.LASF1262
	.byte	0x3b
	.value	0x317
	.byte	0xc
	.long	0x11d
	.long	0x8653
	.uleb128 0x1
	.long	0x2f2
	.byte	0
	.uleb128 0x10
	.long	.LASF1263
	.byte	0x3b
	.value	0x3b1
	.byte	0xf
	.long	0x4e
	.long	0x8674
	.uleb128 0x1
	.long	0x6c96
	.uleb128 0x1
	.long	0x69fb
	.uleb128 0x1
	.long	0x4e
	.byte	0
	.uleb128 0x10
	.long	.LASF1264
	.byte	0x3b
	.value	0x3a9
	.byte	0xc
	.long	0x11d
	.long	0x8690
	.uleb128 0x1
	.long	0x6c96
	.uleb128 0x1
	.long	0x69b7
	.byte	0
	.uleb128 0x10
	.long	.LASF1265
	.byte	0x3b
	.value	0x362
	.byte	0x1e
	.long	0x83f5
	.long	0x86ac
	.uleb128 0x1
	.long	0x7e69
	.uleb128 0x1
	.long	0x7e69
	.byte	0
	.uleb128 0x1b
	.long	.LASF1266
	.byte	0x3b
	.byte	0x71
	.byte	0x24
	.long	0x7e69
	.long	0x86c2
	.uleb128 0x1
	.long	0x2f2
	.byte	0
	.uleb128 0x1b
	.long	.LASF1267
	.byte	0x3b
	.byte	0xc9
	.byte	0x16
	.long	0x7e69
	.long	0x86e2
	.uleb128 0x1
	.long	0x2f2
	.uleb128 0x1
	.long	0x85f7
	.uleb128 0x1
	.long	0x11d
	.byte	0
	.uleb128 0x1b
	.long	.LASF1268
	.byte	0x3b
	.byte	0xce
	.byte	0x1f
	.long	0x7e91
	.long	0x8702
	.uleb128 0x1
	.long	0x2f2
	.uleb128 0x1
	.long	0x85f7
	.uleb128 0x1
	.long	0x11d
	.byte	0
	.uleb128 0x1b
	.long	.LASF1269
	.byte	0x3b
	.byte	0x7c
	.byte	0xe
	.long	0x39
	.long	0x871d
	.uleb128 0x1
	.long	0x2f2
	.uleb128 0x1
	.long	0x85f7
	.byte	0
	.uleb128 0x1b
	.long	.LASF1270
	.byte	0x3b
	.byte	0x7f
	.byte	0x14
	.long	0x47
	.long	0x8738
	.uleb128 0x1
	.long	0x2f2
	.uleb128 0x1
	.long	0x85f7
	.byte	0
	.uleb128 0x19
	.long	.LASF1271
	.byte	0x10
	.byte	0x3d
	.byte	0xa
	.byte	0x10
	.long	0x8760
	.uleb128 0x8
	.long	.LASF1272
	.byte	0x3d
	.byte	0xc
	.byte	0xb
	.long	0x8004
	.byte	0
	.uleb128 0x8
	.long	.LASF1273
	.byte	0x3d
	.byte	0xd
	.byte	0xf
	.long	0x12a
	.byte	0x8
	.byte	0
	.uleb128 0x5
	.long	.LASF1274
	.byte	0x3d
	.byte	0xe
	.byte	0x3
	.long	0x8738
	.uleb128 0xa3
	.long	.LASF1499
	.byte	0x1f
	.byte	0x2b
	.byte	0xe
	.uleb128 0x62
	.long	.LASF1275
	.uleb128 0x9
	.long	0x8775
	.uleb128 0x9
	.long	0x153
	.uleb128 0x42
	.long	0x111
	.long	0x8794
	.uleb128 0x43
	.long	0x5a
	.byte	0
	.byte	0
	.uleb128 0x9
	.long	0x876c
	.uleb128 0x62
	.long	.LASF1276
	.uleb128 0x9
	.long	0x8799
	.uleb128 0x62
	.long	.LASF1277
	.uleb128 0x9
	.long	0x87a3
	.uleb128 0x42
	.long	0x111
	.long	0x87bd
	.uleb128 0x43
	.long	0x5a
	.byte	0x13
	.byte	0
	.uleb128 0x5
	.long	.LASF1278
	.byte	0x3e
	.byte	0x54
	.byte	0x12
	.long	0x8760
	.uleb128 0x7
	.long	0x87bd
	.uleb128 0x9
	.long	0x2da
	.uleb128 0x40
	.long	.LASF1279
	.byte	0x3e
	.value	0x312
	.long	0x87e5
	.uleb128 0x1
	.long	0x87ce
	.byte	0
	.uleb128 0x1b
	.long	.LASF1280
	.byte	0x3e
	.byte	0xb2
	.byte	0xc
	.long	0x11d
	.long	0x87fb
	.uleb128 0x1
	.long	0x87ce
	.byte	0
	.uleb128 0x10
	.long	.LASF1281
	.byte	0x3e
	.value	0x314
	.byte	0xc
	.long	0x11d
	.long	0x8812
	.uleb128 0x1
	.long	0x87ce
	.byte	0
	.uleb128 0x10
	.long	.LASF1282
	.byte	0x3e
	.value	0x316
	.byte	0xc
	.long	0x11d
	.long	0x8829
	.uleb128 0x1
	.long	0x87ce
	.byte	0
	.uleb128 0x1b
	.long	.LASF1283
	.byte	0x3e
	.byte	0xe6
	.byte	0xc
	.long	0x11d
	.long	0x883f
	.uleb128 0x1
	.long	0x87ce
	.byte	0
	.uleb128 0x10
	.long	.LASF1284
	.byte	0x3e
	.value	0x201
	.byte	0xc
	.long	0x11d
	.long	0x8856
	.uleb128 0x1
	.long	0x87ce
	.byte	0
	.uleb128 0x10
	.long	.LASF1285
	.byte	0x3e
	.value	0x2f8
	.byte	0xc
	.long	0x11d
	.long	0x8872
	.uleb128 0x1
	.long	0x87ce
	.uleb128 0x1
	.long	0x8872
	.byte	0
	.uleb128 0x9
	.long	0x87bd
	.uleb128 0x10
	.long	.LASF1286
	.byte	0x3e
	.value	0x250
	.byte	0xe
	.long	0x6c96
	.long	0x8898
	.uleb128 0x1
	.long	0x6c96
	.uleb128 0x1
	.long	0x11d
	.uleb128 0x1
	.long	0x87ce
	.byte	0
	.uleb128 0x10
	.long	.LASF1287
	.byte	0x3e
	.value	0x102
	.byte	0xe
	.long	0x87ce
	.long	0x88b4
	.uleb128 0x1
	.long	0x2f2
	.uleb128 0x1
	.long	0x2f2
	.byte	0
	.uleb128 0x10
	.long	.LASF1288
	.byte	0x3e
	.value	0x2a3
	.byte	0xf
	.long	0x4e
	.long	0x88da
	.uleb128 0x1
	.long	0xa8
	.uleb128 0x1
	.long	0x4e
	.uleb128 0x1
	.long	0x4e
	.uleb128 0x1
	.long	0x87ce
	.byte	0
	.uleb128 0x10
	.long	.LASF1289
	.byte	0x3e
	.value	0x109
	.byte	0xe
	.long	0x87ce
	.long	0x88fb
	.uleb128 0x1
	.long	0x2f2
	.uleb128 0x1
	.long	0x2f2
	.uleb128 0x1
	.long	0x87ce
	.byte	0
	.uleb128 0x10
	.long	.LASF1290
	.byte	0x3e
	.value	0x2c9
	.byte	0xc
	.long	0x11d
	.long	0x891c
	.uleb128 0x1
	.long	0x87ce
	.uleb128 0x1
	.long	0x6f2e
	.uleb128 0x1
	.long	0x11d
	.byte	0
	.uleb128 0x10
	.long	.LASF1291
	.byte	0x3e
	.value	0x2fd
	.byte	0xc
	.long	0x11d
	.long	0x8938
	.uleb128 0x1
	.long	0x87ce
	.uleb128 0x1
	.long	0x8938
	.byte	0
	.uleb128 0x9
	.long	0x87c9
	.uleb128 0x10
	.long	.LASF1292
	.byte	0x3e
	.value	0x2ce
	.byte	0x11
	.long	0x6f2e
	.long	0x8954
	.uleb128 0x1
	.long	0x87ce
	.byte	0
	.uleb128 0x10
	.long	.LASF1293
	.byte	0x3e
	.value	0x202
	.byte	0xc
	.long	0x11d
	.long	0x896b
	.uleb128 0x1
	.long	0x87ce
	.byte	0
	.uleb128 0x5e
	.long	.LASF1294
	.byte	0x3e
	.value	0x208
	.byte	0xc
	.long	0x11d
	.uleb128 0x40
	.long	.LASF1295
	.byte	0x3e
	.value	0x324
	.long	0x898a
	.uleb128 0x1
	.long	0x2f2
	.byte	0
	.uleb128 0x1b
	.long	.LASF1296
	.byte	0x3e
	.byte	0x98
	.byte	0xc
	.long	0x11d
	.long	0x89a0
	.uleb128 0x1
	.long	0x2f2
	.byte	0
	.uleb128 0x1b
	.long	.LASF1297
	.byte	0x3e
	.byte	0x9a
	.byte	0xc
	.long	0x11d
	.long	0x89bb
	.uleb128 0x1
	.long	0x2f2
	.uleb128 0x1
	.long	0x2f2
	.byte	0
	.uleb128 0x40
	.long	.LASF1298
	.byte	0x3e
	.value	0x2d3
	.long	0x89cd
	.uleb128 0x1
	.long	0x87ce
	.byte	0
	.uleb128 0x40
	.long	.LASF1299
	.byte	0x3e
	.value	0x148
	.long	0x89e4
	.uleb128 0x1
	.long	0x87ce
	.uleb128 0x1
	.long	0x6c96
	.byte	0
	.uleb128 0x10
	.long	.LASF1300
	.byte	0x3e
	.value	0x14c
	.byte	0xc
	.long	0x11d
	.long	0x8a0a
	.uleb128 0x1
	.long	0x87ce
	.uleb128 0x1
	.long	0x6c96
	.uleb128 0x1
	.long	0x11d
	.uleb128 0x1
	.long	0x4e
	.byte	0
	.uleb128 0x71
	.long	.LASF1301
	.byte	0x3e
	.byte	0xbc
	.byte	0xe
	.long	0x87ce
	.uleb128 0x1b
	.long	.LASF1302
	.byte	0x3e
	.byte	0xcd
	.byte	0xe
	.long	0x6c96
	.long	0x8a2c
	.uleb128 0x1
	.long	0x6c96
	.byte	0
	.uleb128 0x10
	.long	.LASF1303
	.byte	0x3e
	.value	0x29c
	.byte	0xc
	.long	0x11d
	.long	0x8a48
	.uleb128 0x1
	.long	0x11d
	.uleb128 0x1
	.long	0x87ce
	.byte	0
	.uleb128 0xa
	.long	0x1997
	.uleb128 0xa
	.long	0x19a4
	.uleb128 0xa
	.long	0x74bd
	.uleb128 0xa
	.long	0x74c9
	.uleb128 0x9
	.long	0x1a82
	.uleb128 0x7
	.long	0x8a5c
	.uleb128 0x28
	.long	0xd0b
	.uleb128 0x42
	.long	0x111
	.long	0x8a7b
	.uleb128 0x43
	.long	0x5a
	.byte	0xf
	.byte	0
	.uleb128 0x9
	.long	0x1a75
	.uleb128 0x7
	.long	0x8a7b
	.uleb128 0x9
	.long	0x35af
	.uleb128 0x7
	.long	0x8a85
	.uleb128 0xa
	.long	0x1b48
	.uleb128 0xa
	.long	0x1d80
	.uleb128 0xa
	.long	0x1d8d
	.uleb128 0xa
	.long	0x35af
	.uleb128 0x28
	.long	0x1a75
	.uleb128 0xa
	.long	0x1a75
	.uleb128 0x9
	.long	0x1b9f
	.uleb128 0x9
	.long	0x35cc
	.uleb128 0x9
	.long	0x36bc
	.uleb128 0xa
	.long	0x36d7
	.uleb128 0x9
	.long	0x36ee
	.uleb128 0x7
	.long	0x8ac1
	.uleb128 0xa
	.long	0x3778
	.uleb128 0xa
	.long	0x36ee
	.uleb128 0x5
	.long	.LASF1304
	.byte	0x3f
	.byte	0x26
	.byte	0x1b
	.long	0x5a
	.uleb128 0x5
	.long	.LASF1305
	.byte	0x40
	.byte	0x30
	.byte	0x1a
	.long	0x8aed
	.uleb128 0x9
	.long	0x7f63
	.uleb128 0x1b
	.long	.LASF1306
	.byte	0x3f
	.byte	0x9f
	.byte	0xc
	.long	0x11d
	.long	0x8b0d
	.uleb128 0x1
	.long	0xab
	.uleb128 0x1
	.long	0x8ad5
	.byte	0
	.uleb128 0x1b
	.long	.LASF1307
	.byte	0x40
	.byte	0x37
	.byte	0xf
	.long	0xab
	.long	0x8b28
	.uleb128 0x1
	.long	0xab
	.uleb128 0x1
	.long	0x8ae1
	.byte	0
	.uleb128 0x1b
	.long	.LASF1308
	.byte	0x40
	.byte	0x34
	.byte	0x12
	.long	0x8ae1
	.long	0x8b3e
	.uleb128 0x1
	.long	0x2f2
	.byte	0
	.uleb128 0x1b
	.long	.LASF1309
	.byte	0x3f
	.byte	0x9b
	.byte	0x11
	.long	0x8ad5
	.long	0x8b54
	.uleb128 0x1
	.long	0x2f2
	.byte	0
	.uleb128 0xa
	.long	0x125
	.uleb128 0xa
	.long	0x37b6
	.uleb128 0xa4
	.long	0x3813
	.uleb128 0x9
	.byte	0x3
	.quad	_ZStL8__ioinit
	.uleb128 0x44
	.long	.LASF1310
	.byte	0x41
	.byte	0xf
	.byte	0xb
	.long	0x8cb5
	.uleb128 0x72
	.long	.LASF1334
	.byte	0x41
	.byte	0x11
	.byte	0xb
	.uleb128 0xa5
	.string	"v1"
	.byte	0x41
	.byte	0x13
	.byte	0x12
	.uleb128 0x2a
	.long	.LASF1311
	.byte	0x1
	.byte	0x41
	.byte	0x17
	.byte	0x7
	.long	0x8bc2
	.uleb128 0x33
	.long	.LASF1312
	.byte	0x1c
	.long	.LASF1314
	.long	0x659
	.uleb128 0x33
	.long	.LASF1313
	.byte	0x21
	.long	.LASF1315
	.long	0x659
	.uleb128 0x33
	.long	.LASF1316
	.byte	0x26
	.long	.LASF1317
	.long	0x659
	.byte	0
	.uleb128 0x7
	.long	0x8b8a
	.uleb128 0x2a
	.long	.LASF1318
	.byte	0x1
	.byte	0x41
	.byte	0x2d
	.byte	0x7
	.long	0x8bff
	.uleb128 0x33
	.long	.LASF1312
	.byte	0x32
	.long	.LASF1319
	.long	0x659
	.uleb128 0x33
	.long	.LASF1313
	.byte	0x37
	.long	.LASF1320
	.long	0x659
	.uleb128 0x33
	.long	.LASF1316
	.byte	0x3c
	.long	.LASF1321
	.long	0xb78
	.byte	0
	.uleb128 0x7
	.long	0x8bc7
	.uleb128 0x2a
	.long	.LASF1322
	.byte	0x1
	.byte	0x41
	.byte	0x43
	.byte	0x7
	.long	0x8c3c
	.uleb128 0x33
	.long	.LASF1312
	.byte	0x48
	.long	.LASF1323
	.long	0xb78
	.uleb128 0x33
	.long	.LASF1313
	.byte	0x4d
	.long	.LASF1324
	.long	0xb78
	.uleb128 0x33
	.long	.LASF1316
	.byte	0x52
	.long	.LASF1325
	.long	0xb78
	.byte	0
	.uleb128 0x7
	.long	0x8c04
	.uleb128 0x2a
	.long	.LASF1326
	.byte	0x1
	.byte	0x41
	.byte	0x58
	.byte	0x7
	.long	0x8c79
	.uleb128 0x33
	.long	.LASF1312
	.byte	0x5d
	.long	.LASF1327
	.long	0xb78
	.uleb128 0x33
	.long	.LASF1313
	.byte	0x62
	.long	.LASF1328
	.long	0xb78
	.uleb128 0x33
	.long	.LASF1316
	.byte	0x67
	.long	.LASF1329
	.long	0x659
	.byte	0
	.uleb128 0x7
	.long	0x8c41
	.uleb128 0x73
	.string	"seq"
	.byte	0x6e
	.byte	0x1c
	.long	0x8bc2
	.byte	0x1
	.byte	0
	.uleb128 0x73
	.string	"par"
	.byte	0x6f
	.byte	0x1b
	.long	0x8bff
	.byte	0x1
	.byte	0
	.uleb128 0x74
	.long	.LASF1331
	.byte	0x70
	.byte	0x27
	.long	0x8c3c
	.byte	0x1
	.byte	0
	.uleb128 0x74
	.long	.LASF1332
	.byte	0x71
	.byte	0x1e
	.long	0x8c79
	.byte	0x1
	.byte	0
	.byte	0
	.byte	0
	.byte	0
	.uleb128 0x52
	.long	0x8c7e
	.uleb128 0x52
	.long	0x8c8b
	.uleb128 0x52
	.long	0x8c98
	.uleb128 0x52
	.long	0x8ca5
	.uleb128 0x9
	.long	0x38b7
	.uleb128 0x7
	.long	0x8cc9
	.uleb128 0xa
	.long	0x3a39
	.uleb128 0x9
	.long	0x6f2e
	.uleb128 0x7
	.long	0x8cd8
	.uleb128 0x9
	.long	0x3a39
	.uleb128 0x7
	.long	0x8ce2
	.uleb128 0xa
	.long	0x6f2e
	.uleb128 0x9
	.long	0x6f35
	.uleb128 0x7
	.long	0x8cf1
	.uleb128 0xa
	.long	0x6f35
	.uleb128 0x9
	.long	0x3a3e
	.uleb128 0x7
	.long	0x8d00
	.uleb128 0xa
	.long	0x3ac6
	.uleb128 0xa
	.long	0x3a3e
	.uleb128 0xa
	.long	0x3b04
	.uleb128 0xa
	.long	0x3b11
	.uleb128 0xa
	.long	0x7a4a
	.uleb128 0xa
	.long	0x7a56
	.uleb128 0x9
	.long	0x3bd4
	.uleb128 0x7
	.long	0x8d28
	.uleb128 0x28
	.long	0x3bd4
	.uleb128 0xa
	.long	0x3c7a
	.uleb128 0xa
	.long	0x3bd4
	.uleb128 0x9
	.long	0x3c8b
	.uleb128 0x7
	.long	0x8d41
	.uleb128 0xa
	.long	0x3d62
	.uleb128 0x28
	.long	0x3c8b
	.uleb128 0x28
	.long	0x3d56
	.uleb128 0xa
	.long	0x3d56
	.uleb128 0x9
	.long	0x3bc7
	.uleb128 0x7
	.long	0x8d5f
	.uleb128 0x9
	.long	0x3f7b
	.uleb128 0xa
	.long	0x3db0
	.uleb128 0x28
	.long	0x3bc7
	.uleb128 0xa
	.long	0x406f
	.uleb128 0x9
	.long	0x3fa3
	.uleb128 0x7
	.long	0x8d7d
	.uleb128 0xa
	.long	0x4120
	.uleb128 0xa
	.long	0x4193
	.uleb128 0xa
	.long	0x4bce
	.uleb128 0x28
	.long	0x3fa3
	.uleb128 0xa
	.long	0x4bdf
	.uleb128 0xa
	.long	0x3fa3
	.uleb128 0x9
	.long	0x4bce
	.uleb128 0x7
	.long	0x8da5
	.uleb128 0x28
	.long	0x4186
	.uleb128 0xa
	.long	0x407c
	.uleb128 0x9
	.long	0x4ce3
	.uleb128 0x7
	.long	0x8db9
	.uleb128 0xa
	.long	0x4e65
	.uleb128 0x9
	.long	0x11d
	.uleb128 0x7
	.long	0x8dc8
	.uleb128 0x9
	.long	0x4e65
	.uleb128 0x7
	.long	0x8dd2
	.uleb128 0xa
	.long	0x11d
	.uleb128 0x9
	.long	0x4e6a
	.uleb128 0x7
	.long	0x8de1
	.uleb128 0xa
	.long	0x4ef2
	.uleb128 0xa
	.long	0x4e6a
	.uleb128 0xa
	.long	0x4f30
	.uleb128 0xa
	.long	0x4f3d
	.uleb128 0xa
	.long	0x7d91
	.uleb128 0xa
	.long	0x7d9d
	.uleb128 0x9
	.long	0x5000
	.uleb128 0x7
	.long	0x8e09
	.uleb128 0x28
	.long	0x5000
	.uleb128 0xa
	.long	0x50a6
	.uleb128 0xa
	.long	0x5000
	.uleb128 0x9
	.long	0x50b7
	.uleb128 0x7
	.long	0x8e22
	.uleb128 0xa
	.long	0x518e
	.uleb128 0x28
	.long	0x50b7
	.uleb128 0x28
	.long	0x5182
	.uleb128 0xa
	.long	0x5182
	.uleb128 0x9
	.long	0x4ff3
	.uleb128 0x7
	.long	0x8e40
	.uleb128 0x9
	.long	0x53a7
	.uleb128 0x7
	.long	0x8e4a
	.uleb128 0xa
	.long	0x51dc
	.uleb128 0x28
	.long	0x4ff3
	.uleb128 0xa
	.long	0x549b
	.uleb128 0x9
	.long	0x53cf
	.uleb128 0x7
	.long	0x8e63
	.uleb128 0xa
	.long	0x554c
	.uleb128 0xa
	.long	0x55bf
	.uleb128 0xa
	.long	0x5fc6
	.uleb128 0x28
	.long	0x53cf
	.uleb128 0xa
	.long	0x5fd7
	.uleb128 0xa
	.long	0x53cf
	.uleb128 0x9
	.long	0x5fc6
	.uleb128 0x7
	.long	0x8e8b
	.uleb128 0x28
	.long	0x55b2
	.uleb128 0xa
	.long	0x54a8
	.uleb128 0x44
	.long	.LASF1333
	.byte	0x6
	.byte	0x1a
	.byte	0xb
	.long	0x903c
	.uleb128 0x72
	.long	.LASF1335
	.byte	0x6
	.byte	0x1c
	.byte	0xf
	.uleb128 0x2a
	.long	.LASF1336
	.byte	0x30
	.byte	0x6
	.byte	0x36
	.byte	0xf
	.long	0x900e
	.uleb128 0x1d
	.long	.LASF1337
	.byte	0x6
	.byte	0x39
	.byte	0xd
	.long	.LASF1338
	.long	0x8ed4
	.long	0x8eda
	.uleb128 0x2
	.long	0x903c
	.byte	0
	.uleb128 0x12
	.long	.LASF1339
	.byte	0x6
	.byte	0x41
	.byte	0x21
	.long	.LASF1340
	.long	0x9013
	.byte	0x1
	.long	0x8ef3
	.long	0x8ef9
	.uleb128 0x2
	.long	0x9046
	.byte	0
	.uleb128 0x12
	.long	.LASF183
	.byte	0x6
	.byte	0x46
	.byte	0x21
	.long	.LASF1341
	.long	0x9013
	.byte	0x1
	.long	0x8f12
	.long	0x8f18
	.uleb128 0x2
	.long	0x9046
	.byte	0
	.uleb128 0x12
	.long	.LASF1342
	.byte	0x6
	.byte	0x4b
	.byte	0x2e
	.long	.LASF1343
	.long	0x3fa3
	.byte	0x1
	.long	0x8f31
	.long	0x8f37
	.uleb128 0x2
	.long	0x9046
	.byte	0
	.uleb128 0x12
	.long	.LASF1342
	.byte	0x6
	.byte	0x50
	.byte	0x21
	.long	.LASF1344
	.long	0x9013
	.byte	0x1
	.long	0x8f50
	.long	0x8f5b
	.uleb128 0x2
	.long	0x9046
	.uleb128 0x1
	.long	0x9013
	.byte	0
	.uleb128 0x75
	.long	.LASF1345
	.byte	0x6e
	.byte	0x24
	.long	0x53cf
	.byte	0
	.byte	0x1
	.uleb128 0x75
	.long	.LASF1346
	.byte	0x71
	.byte	0x2e
	.long	0x3fa3
	.byte	0x18
	.byte	0x2
	.uleb128 0x12
	.long	.LASF1347
	.byte	0x6
	.byte	0x56
	.byte	0x18
	.long	.LASF1348
	.long	0x8ddc
	.byte	0x1
	.long	0x8faa
	.long	0x8fc4
	.uleb128 0x76
	.string	"T"
	.long	0x8faa
	.uleb128 0x3c
	.long	0x11d
	.uleb128 0x3c
	.long	0x11d
	.uleb128 0x3c
	.long	0x11d
	.uleb128 0x3c
	.long	0x11d
	.byte	0
	.uleb128 0x2
	.long	0x903c
	.uleb128 0x1
	.long	0x11d
	.uleb128 0x1
	.long	0x11d
	.uleb128 0x1
	.long	0x11d
	.uleb128 0x1
	.long	0x11d
	.byte	0
	.uleb128 0xa6
	.long	.LASF1349
	.long	.LASF1447
	.byte	0x1
	.long	0x8fd7
	.long	0x8fe2
	.uleb128 0x2
	.long	0x903c
	.uleb128 0x2
	.long	0x11d
	.byte	0
	.uleb128 0x6
	.long	.LASF1350
	.long	0x11d
	.uleb128 0xa7
	.long	.LASF1500
	.byte	0x6
	.byte	0x35
	.byte	0x3e
	.uleb128 0x53
	.long	0x6f2e
	.byte	0x2
	.uleb128 0x53
	.long	0x6f2e
	.byte	0x3
	.uleb128 0x53
	.long	0x6f2e
	.byte	0x4
	.uleb128 0x53
	.long	0x6f2e
	.byte	0x5
	.byte	0
	.byte	0
	.uleb128 0x7
	.long	0x8eb3
	.uleb128 0x5
	.long	.LASF1351
	.byte	0x6
	.byte	0x21
	.byte	0x19
	.long	0x8401
	.uleb128 0x5d
	.long	.LASF1352
	.byte	0x6
	.byte	0x2c
	.byte	0x1d
	.long	.LASF1353
	.long	0x9013
	.uleb128 0x1
	.long	0x9013
	.uleb128 0x1
	.long	0x9013
	.byte	0
	.byte	0
	.byte	0
	.uleb128 0x9
	.long	0x8eb3
	.uleb128 0x7
	.long	0x903c
	.uleb128 0x9
	.long	0x900e
	.uleb128 0x7
	.long	0x9046
	.uleb128 0xa
	.long	0x6c9b
	.uleb128 0x9
	.long	0x776a
	.uleb128 0xa
	.long	0x2f7
	.uleb128 0x9
	.long	0x7998
	.uleb128 0xa
	.long	0x776a
	.uleb128 0x9
	.long	0x4be4
	.uleb128 0x9
	.long	0x4cd4
	.uleb128 0x7
	.long	0x906e
	.uleb128 0x9
	.long	0x7aac
	.uleb128 0x7
	.long	0x9078
	.uleb128 0xa
	.long	0x8cdd
	.uleb128 0x9
	.long	0x7cda
	.uleb128 0x7
	.long	0x9087
	.uleb128 0xa
	.long	0x7aac
	.uleb128 0x9
	.long	0x7537
	.uleb128 0x9
	.long	0x7765
	.uleb128 0xa
	.long	0x7537
	.uleb128 0xa8
	.long	.LASF1379
	.long	0xa8
	.uleb128 0x34
	.long	0x3717
	.long	.LASF1354
	.long	0x90c0
	.long	0x90ca
	.uleb128 0xc
	.long	.LASF1356
	.long	0x8ac6
	.byte	0
	.uleb128 0x34
	.long	0x36fe
	.long	.LASF1355
	.long	0x90db
	.long	0x90e5
	.uleb128 0xc
	.long	.LASF1356
	.long	0x8ac6
	.byte	0
	.uleb128 0x9
	.long	0x6154
	.uleb128 0x7
	.long	0x90e5
	.uleb128 0x34
	.long	0x615d
	.long	.LASF1357
	.long	0x9100
	.long	0x9116
	.uleb128 0xc
	.long	.LASF1356
	.long	0x90ea
	.uleb128 0x77
	.long	.LASF1388
	.byte	0x2f
	.byte	0xe2
	.byte	0x21
	.long	0x8abc
	.byte	0
	.uleb128 0xa9
	.long	.LASF1501
	.uleb128 0xaa
	.long	.LASF1502
	.uleb128 0x78
	.long	.LASF1358
	.long	0xa8
	.long	0x9135
	.uleb128 0x1
	.long	0xa8
	.byte	0
	.uleb128 0x37
	.long	.LASF1359
	.byte	0x2
	.byte	0x87
	.byte	0x6
	.long	.LASF1360
	.long	0x9150
	.uleb128 0x1
	.long	0xa8
	.uleb128 0x1
	.long	0x56b
	.byte	0
	.uleb128 0x16
	.long	.LASF1361
	.byte	0x2
	.byte	0x7e
	.byte	0x1a
	.long	.LASF1362
	.long	0xa8
	.long	0x916a
	.uleb128 0x1
	.long	0x56b
	.byte	0
	.uleb128 0x9
	.long	0x37b6
	.uleb128 0xab
	.long	.LASF1503
	.long	0x917f
	.uleb128 0x1
	.long	0xa8
	.byte	0
	.uleb128 0x34
	.long	0x617f
	.long	.LASF1363
	.long	0x9190
	.long	0x919a
	.uleb128 0xc
	.long	.LASF1356
	.long	0x90ea
	.byte	0
	.uleb128 0xac
	.long	.LASF1364
	.long	0x91b4
	.uleb128 0x1
	.long	0xa8
	.uleb128 0x1
	.long	0xa8
	.uleb128 0x1
	.long	0x82f6
	.byte	0
	.uleb128 0x34
	.long	0x61a6
	.long	.LASF1365
	.long	0x91c5
	.long	0x91d4
	.uleb128 0xc
	.long	.LASF1356
	.long	0x90ea
	.uleb128 0x1
	.long	0x2f2
	.byte	0
	.uleb128 0x78
	.long	.LASF1366
	.long	0xa8
	.long	0x91e7
	.uleb128 0x1
	.long	0x5a
	.byte	0
	.uleb128 0xad
	.long	.LASF1504
	.quad	.LFB3266
	.quad	.LFE3266-.LFB3266
	.uleb128 0x1
	.byte	0x9c
	.uleb128 0xae
	.long	.LASF1505
	.quad	.LFB3265
	.quad	.LFE3265-.LFB3265
	.uleb128 0x1
	.byte	0x9c
	.long	0x923a
	.uleb128 0x17
	.long	.LASF1367
	.byte	0x7
	.byte	0x13
	.byte	0x1
	.long	0x11d
	.uleb128 0x2
	.byte	0x91
	.sleb128 -20
	.uleb128 0x17
	.long	.LASF1368
	.byte	0x7
	.byte	0x13
	.byte	0x1
	.long	0x11d
	.uleb128 0x2
	.byte	0x91
	.sleb128 -24
	.byte	0
	.uleb128 0x13
	.long	0x6108
	.quad	.LFB3264
	.quad	.LFE3264-.LFB3264
	.uleb128 0x1
	.byte	0x9c
	.long	0x929f
	.uleb128 0xd
	.string	"_Tp"
	.long	0x6f2e
	.uleb128 0xf
	.long	.LASF1369
	.byte	0x4
	.value	0x1a4
	.byte	0x16
	.long	0x8cf1
	.uleb128 0x2
	.byte	0x91
	.sleb128 -40
	.uleb128 0xf
	.long	.LASF1370
	.byte	0x4
	.value	0x1a4
	.byte	0x2a
	.long	0x8cf1
	.uleb128 0x2
	.byte	0x91
	.sleb128 -48
	.uleb128 0xf
	.long	.LASF1371
	.byte	0x4
	.value	0x1a4
	.byte	0x37
	.long	0x8cd8
	.uleb128 0x2
	.byte	0x91
	.sleb128 -56
	.uleb128 0x29
	.long	.LASF1373
	.byte	0x4
	.value	0x1ad
	.byte	0x14
	.long	0xb73
	.uleb128 0x2
	.byte	0x91
	.sleb128 -24
	.byte	0
	.uleb128 0x26
	.long	0x6205
	.quad	.LFB3263
	.quad	.LFE3263-.LFB3263
	.uleb128 0x1
	.byte	0x9c
	.long	0x930d
	.uleb128 0x6
	.long	.LASF159
	.long	0x8dc8
	.uleb128 0xd
	.string	"_Tp"
	.long	0x11d
	.uleb128 0xf
	.long	.LASF1369
	.byte	0x4
	.value	0x395
	.byte	0x20
	.long	0x8dc8
	.uleb128 0x2
	.byte	0x91
	.sleb128 -40
	.uleb128 0xf
	.long	.LASF1370
	.byte	0x4
	.value	0x395
	.byte	0x3a
	.long	0x8dc8
	.uleb128 0x2
	.byte	0x91
	.sleb128 -48
	.uleb128 0xf
	.long	.LASF18
	.byte	0x4
	.value	0x396
	.byte	0x13
	.long	0x8b54
	.uleb128 0x2
	.byte	0x91
	.sleb128 -56
	.uleb128 0x29
	.long	.LASF1374
	.byte	0x4
	.value	0x398
	.byte	0x11
	.long	0x125
	.uleb128 0x2
	.byte	0x91
	.sleb128 -20
	.byte	0
	.uleb128 0x13
	.long	0x6238
	.quad	.LFB3262
	.quad	.LFE3262-.LFB3262
	.uleb128 0x1
	.byte	0x9c
	.long	0x9375
	.uleb128 0x38
	.long	.LASF853
	.long	0x7e9e
	.byte	0
	.uleb128 0xd
	.string	"_II"
	.long	0x8cf1
	.uleb128 0xd
	.string	"_OI"
	.long	0x8cd8
	.uleb128 0xf
	.long	.LASF1369
	.byte	0x4
	.value	0x1e6
	.byte	0x18
	.long	0x8cf1
	.uleb128 0x2
	.byte	0x91
	.sleb128 -24
	.uleb128 0xf
	.long	.LASF1370
	.byte	0x4
	.value	0x1e6
	.byte	0x25
	.long	0x8cf1
	.uleb128 0x2
	.byte	0x91
	.sleb128 -32
	.uleb128 0xf
	.long	.LASF1371
	.byte	0x4
	.value	0x1e6
	.byte	0x31
	.long	0x8cd8
	.uleb128 0x2
	.byte	0x91
	.sleb128 -40
	.byte	0
	.uleb128 0x13
	.long	0x6279
	.quad	.LFB3261
	.quad	.LFE3261-.LFB3261
	.uleb128 0x1
	.byte	0x9c
	.long	0x93d3
	.uleb128 0x6
	.long	.LASF873
	.long	0x8dc8
	.uleb128 0xd
	.string	"_Tp"
	.long	0x11d
	.uleb128 0xf
	.long	.LASF1369
	.byte	0x4
	.value	0x3c7
	.byte	0x14
	.long	0x8dc8
	.uleb128 0x2
	.byte	0x91
	.sleb128 -24
	.uleb128 0xf
	.long	.LASF1370
	.byte	0x4
	.value	0x3c7
	.byte	0x23
	.long	0x8dc8
	.uleb128 0x2
	.byte	0x91
	.sleb128 -32
	.uleb128 0xf
	.long	.LASF18
	.byte	0x4
	.value	0x3c7
	.byte	0x36
	.long	0x8b54
	.uleb128 0x2
	.byte	0x91
	.sleb128 -40
	.byte	0
	.uleb128 0x26
	.long	0x62ac
	.quad	.LFB3260
	.quad	.LFE3260-.LFB3260
	.uleb128 0x1
	.byte	0x9c
	.long	0x9410
	.uleb128 0x6
	.long	.LASF876
	.long	0x8cd8
	.uleb128 0x22
	.long	0x9082
	.uleb128 0x2
	.byte	0x91
	.sleb128 -24
	.uleb128 0xf
	.long	.LASF1375
	.byte	0x4
	.value	0x14f
	.byte	0x2e
	.long	0x8cd8
	.uleb128 0x2
	.byte	0x91
	.sleb128 -32
	.byte	0
	.uleb128 0x13
	.long	0x62d5
	.quad	.LFB3259
	.quad	.LFE3259-.LFB3259
	.uleb128 0x1
	.byte	0x9c
	.long	0x9478
	.uleb128 0x38
	.long	.LASF853
	.long	0x7e9e
	.byte	0
	.uleb128 0xd
	.string	"_II"
	.long	0x8cf1
	.uleb128 0xd
	.string	"_OI"
	.long	0x8cd8
	.uleb128 0xf
	.long	.LASF1369
	.byte	0x4
	.value	0x209
	.byte	0x18
	.long	0x8cf1
	.uleb128 0x2
	.byte	0x91
	.sleb128 -24
	.uleb128 0xf
	.long	.LASF1370
	.byte	0x4
	.value	0x209
	.byte	0x25
	.long	0x8cf1
	.uleb128 0x2
	.byte	0x91
	.sleb128 -32
	.uleb128 0xf
	.long	.LASF1371
	.byte	0x4
	.value	0x209
	.byte	0x31
	.long	0x8cd8
	.uleb128 0x2
	.byte	0x91
	.sleb128 -40
	.byte	0
	.uleb128 0x26
	.long	0x6316
	.quad	.LFB3258
	.quad	.LFE3258-.LFB3258
	.uleb128 0x1
	.byte	0x9c
	.long	0x94ad
	.uleb128 0x6
	.long	.LASF876
	.long	0x8cd8
	.uleb128 0xf
	.long	.LASF1376
	.byte	0x4
	.value	0x139
	.byte	0x1c
	.long	0x8cd8
	.uleb128 0x2
	.byte	0x91
	.sleb128 -24
	.byte	0
	.uleb128 0x26
	.long	0x633a
	.quad	.LFB3257
	.quad	.LFE3257-.LFB3257
	.uleb128 0x1
	.byte	0x9c
	.long	0x94e2
	.uleb128 0x6
	.long	.LASF876
	.long	0x8cf1
	.uleb128 0xf
	.long	.LASF1376
	.byte	0x4
	.value	0x139
	.byte	0x1c
	.long	0x8cf1
	.uleb128 0x2
	.byte	0x91
	.sleb128 -24
	.byte	0
	.uleb128 0x13
	.long	0x635e
	.quad	.LFB3256
	.quad	.LFE3256-.LFB3256
	.uleb128 0x1
	.byte	0x9c
	.long	0x9551
	.uleb128 0x6
	.long	.LASF885
	.long	0x8dc8
	.uleb128 0x6
	.long	.LASF525
	.long	0x5a
	.uleb128 0xd
	.string	"_Tp"
	.long	0x11d
	.uleb128 0xf
	.long	.LASF1369
	.byte	0x4
	.value	0x454
	.byte	0x20
	.long	0x8dc8
	.uleb128 0x2
	.byte	0x91
	.sleb128 -24
	.uleb128 0x18
	.string	"__n"
	.byte	0x4
	.value	0x454
	.byte	0x2f
	.long	0x5a
	.uleb128 0x2
	.byte	0x91
	.sleb128 -32
	.uleb128 0xf
	.long	.LASF18
	.byte	0x4
	.value	0x454
	.byte	0x3f
	.long	0x8b54
	.uleb128 0x2
	.byte	0x91
	.sleb128 -40
	.uleb128 0x22
	.long	0xdc8
	.uleb128 0x2
	.byte	0x91
	.sleb128 0
	.byte	0
	.uleb128 0xa
	.long	0x8dcd
	.uleb128 0x26
	.long	0x63a3
	.quad	.LFB3255
	.quad	.LFE3255-.LFB3255
	.uleb128 0x1
	.byte	0x9c
	.long	0x9583
	.uleb128 0x6
	.long	.LASF888
	.long	0x8dc8
	.uleb128 0x22
	.long	0x9551
	.uleb128 0x2
	.byte	0x91
	.sleb128 -24
	.byte	0
	.uleb128 0x13
	.long	0x63c6
	.quad	.LFB3252
	.quad	.LFE3252-.LFB3252
	.uleb128 0x1
	.byte	0x9c
	.long	0x95eb
	.uleb128 0x38
	.long	.LASF853
	.long	0x7e9e
	.byte	0
	.uleb128 0xd
	.string	"_II"
	.long	0x8cf1
	.uleb128 0xd
	.string	"_OI"
	.long	0x8cd8
	.uleb128 0xf
	.long	.LASF1369
	.byte	0x4
	.value	0x20f
	.byte	0x17
	.long	0x8cf1
	.uleb128 0x2
	.byte	0x91
	.sleb128 -40
	.uleb128 0xf
	.long	.LASF1370
	.byte	0x4
	.value	0x20f
	.byte	0x24
	.long	0x8cf1
	.uleb128 0x2
	.byte	0x91
	.sleb128 -48
	.uleb128 0xf
	.long	.LASF1371
	.byte	0x4
	.value	0x20f
	.byte	0x30
	.long	0x8cd8
	.uleb128 0x2
	.byte	0x91
	.sleb128 -56
	.byte	0
	.uleb128 0x26
	.long	0x6407
	.quad	.LFB3251
	.quad	.LFE3251-.LFB3251
	.uleb128 0x1
	.byte	0x9c
	.long	0x9620
	.uleb128 0x6
	.long	.LASF876
	.long	0x8cf1
	.uleb128 0xf
	.long	.LASF1376
	.byte	0x17
	.value	0x232
	.byte	0x1c
	.long	0x8cf1
	.uleb128 0x2
	.byte	0x91
	.sleb128 -24
	.byte	0
	.uleb128 0x2e
	.long	0x4e3d
	.long	0x963f
	.quad	.LFB3250
	.quad	.LFE3250-.LFB3250
	.uleb128 0x1
	.byte	0x9c
	.long	0x964c
	.uleb128 0x15
	.long	.LASF1356
	.long	0x8dd7
	.uleb128 0x2
	.byte	0x91
	.sleb128 -24
	.byte	0
	.uleb128 0x13
	.long	0x642b
	.quad	.LFB3249
	.quad	.LFE3249-.LFB3249
	.uleb128 0x1
	.byte	0x9c
	.long	0x96b3
	.uleb128 0xd
	.string	"_OI"
	.long	0x8dc8
	.uleb128 0x6
	.long	.LASF525
	.long	0x5a
	.uleb128 0xd
	.string	"_Tp"
	.long	0x11d
	.uleb128 0xf
	.long	.LASF1369
	.byte	0x4
	.value	0x477
	.byte	0x10
	.long	0x8dc8
	.uleb128 0x2
	.byte	0x91
	.sleb128 -24
	.uleb128 0x18
	.string	"__n"
	.byte	0x4
	.value	0x477
	.byte	0x1f
	.long	0x5a
	.uleb128 0x2
	.byte	0x91
	.sleb128 -32
	.uleb128 0xf
	.long	.LASF18
	.byte	0x4
	.value	0x477
	.byte	0x2f
	.long	0x8b54
	.uleb128 0x2
	.byte	0x91
	.sleb128 -40
	.byte	0
	.uleb128 0x13
	.long	0x646b
	.quad	.LFB3248
	.quad	.LFE3248-.LFB3248
	.uleb128 0x1
	.byte	0x9c
	.long	0x96f1
	.uleb128 0xd
	.string	"_Tp"
	.long	0x11d
	.uleb128 0x6f
	.long	.LASF1377
	.uleb128 0x2f
	.string	"__p"
	.byte	0x13
	.byte	0x6d
	.byte	0x15
	.long	0x8dc8
	.uleb128 0x2
	.byte	0x91
	.sleb128 -24
	.uleb128 0xaf
	.byte	0x13
	.byte	0x6d
	.byte	0x21
	.byte	0
	.uleb128 0x26
	.long	0x648f
	.quad	.LFB3247
	.quad	.LFE3247-.LFB3247
	.uleb128 0x1
	.byte	0x9c
	.long	0x9725
	.uleb128 0xd
	.string	"_Tp"
	.long	0x11d
	.uleb128 0x2f
	.string	"__r"
	.byte	0x16
	.byte	0x31
	.byte	0x16
	.long	0x8ddc
	.uleb128 0x2
	.byte	0x91
	.sleb128 -24
	.byte	0
	.uleb128 0x23
	.long	0x4e1e
	.long	0x9744
	.quad	.LFB3246
	.quad	.LFE3246-.LFB3246
	.uleb128 0x1
	.byte	0x9c
	.long	0x9751
	.uleb128 0x15
	.long	.LASF1356
	.long	0x8dd7
	.uleb128 0x2
	.byte	0x91
	.sleb128 -24
	.byte	0
	.uleb128 0x13
	.long	0x64b2
	.quad	.LFB3245
	.quad	.LFE3245-.LFB3245
	.uleb128 0x1
	.byte	0x9c
	.long	0x97af
	.uleb128 0xd
	.string	"_II"
	.long	0x8cf1
	.uleb128 0xd
	.string	"_OI"
	.long	0x8cd8
	.uleb128 0xf
	.long	.LASF1369
	.byte	0x4
	.value	0x263
	.byte	0xe
	.long	0x8cf1
	.uleb128 0x2
	.byte	0x91
	.sleb128 -40
	.uleb128 0xf
	.long	.LASF1370
	.byte	0x4
	.value	0x263
	.byte	0x1b
	.long	0x8cf1
	.uleb128 0x2
	.byte	0x91
	.sleb128 -48
	.uleb128 0xf
	.long	.LASF1371
	.byte	0x4
	.value	0x263
	.byte	0x27
	.long	0x8cd8
	.uleb128 0x2
	.byte	0x91
	.sleb128 -56
	.byte	0
	.uleb128 0x2e
	.long	0x3a11
	.long	0x97ce
	.quad	.LFB3244
	.quad	.LFE3244-.LFB3244
	.uleb128 0x1
	.byte	0x9c
	.long	0x97db
	.uleb128 0x15
	.long	.LASF1356
	.long	0x8ce7
	.uleb128 0x2
	.byte	0x91
	.sleb128 -24
	.byte	0
	.uleb128 0x23
	.long	0x39f2
	.long	0x97fa
	.quad	.LFB3243
	.quad	.LFE3243-.LFB3243
	.uleb128 0x1
	.byte	0x9c
	.long	0x9807
	.uleb128 0x15
	.long	.LASF1356
	.long	0x8ce7
	.uleb128 0x2
	.byte	0x91
	.sleb128 -24
	.byte	0
	.uleb128 0x13
	.long	0x64f6
	.quad	.LFB3238
	.quad	.LFE3238-.LFB3238
	.uleb128 0x1
	.byte	0x9c
	.long	0x9885
	.uleb128 0xd
	.string	"_Tp"
	.long	0x11d
	.uleb128 0xd
	.string	"_Up"
	.long	0x11d
	.uleb128 0xf
	.long	.LASF1369
	.byte	0x15
	.value	0x44c
	.byte	0x19
	.long	0x8dc8
	.uleb128 0x2
	.byte	0x91
	.sleb128 -40
	.uleb128 0xf
	.long	.LASF1370
	.byte	0x15
	.value	0x44c
	.byte	0x27
	.long	0x8dc8
	.uleb128 0x2
	.byte	0x91
	.sleb128 -48
	.uleb128 0xf
	.long	.LASF1371
	.byte	0x15
	.value	0x44d
	.byte	0xb
	.long	0x8dc8
	.uleb128 0x2
	.byte	0x91
	.sleb128 -56
	.uleb128 0xf
	.long	.LASF1378
	.byte	0x15
	.value	0x44e
	.byte	0x2b
	.long	0x8df0
	.uleb128 0x2
	.byte	0x91
	.sleb128 -64
	.uleb128 0x29
	.long	.LASF17
	.byte	0x15
	.value	0x450
	.byte	0x11
	.long	0xb66
	.uleb128 0x2
	.byte	0x91
	.sleb128 -24
	.byte	0
	.uleb128 0x26
	.long	0x6532
	.quad	.LFB3237
	.quad	.LFE3237-.LFB3237
	.uleb128 0x1
	.byte	0x9c
	.long	0x98ba
	.uleb128 0x6
	.long	.LASF876
	.long	0x8dc8
	.uleb128 0xf
	.long	.LASF1376
	.byte	0x4
	.value	0x139
	.byte	0x1c
	.long	0x8dc8
	.uleb128 0x2
	.byte	0x91
	.sleb128 -24
	.byte	0
	.uleb128 0x23
	.long	0x4dc4
	.long	0x98d9
	.quad	.LFB3236
	.quad	.LFE3236-.LFB3236
	.uleb128 0x1
	.byte	0x9c
	.long	0x990b
	.uleb128 0x15
	.long	.LASF1356
	.long	0x8dbe
	.uleb128 0x2
	.byte	0x91
	.sleb128 -24
	.uleb128 0x2f
	.string	"__n"
	.byte	0xf
	.byte	0x70
	.byte	0x1a
	.long	0x4ded
	.uleb128 0x2
	.byte	0x91
	.sleb128 -32
	.uleb128 0x22
	.long	0x82fb
	.uleb128 0x2
	.byte	0x91
	.sleb128 -40
	.uleb128 0x54
	.uleb128 0x63
	.long	.LASF1380
	.byte	0xf
	.byte	0x84
	.byte	0x17
	.long	0x55c
	.byte	0
	.byte	0
	.uleb128 0x13
	.long	0x387a
	.quad	.LFB3235
	.quad	.LFE3235-.LFB3235
	.uleb128 0x1
	.byte	0x9c
	.long	0x997b
	.uleb128 0x6
	.long	.LASF159
	.long	0x8dc8
	.uleb128 0x6
	.long	.LASF525
	.long	0x5a
	.uleb128 0xf
	.long	.LASF1369
	.byte	0x15
	.value	0x28f
	.byte	0x2d
	.long	0x8dc8
	.uleb128 0x2
	.byte	0x91
	.sleb128 -40
	.uleb128 0x18
	.string	"__n"
	.byte	0x15
	.value	0x28f
	.byte	0x3c
	.long	0x5a
	.uleb128 0x2
	.byte	0x91
	.sleb128 -48
	.uleb128 0x64
	.quad	.LBB56
	.quad	.LBE56-.LBB56
	.uleb128 0x29
	.long	.LASF1381
	.byte	0x15
	.value	0x293
	.byte	0x40
	.long	0x997b
	.uleb128 0x2
	.byte	0x91
	.sleb128 -24
	.byte	0
	.byte	0
	.uleb128 0x9
	.long	0x60ef
	.uleb128 0x13
	.long	0x4fa2
	.quad	.LFB3234
	.quad	.LFE3234-.LFB3234
	.uleb128 0x1
	.byte	0x9c
	.long	0x99ac
	.uleb128 0x18
	.string	"__a"
	.byte	0xd
	.value	0x223
	.byte	0x26
	.long	0x8dfa
	.uleb128 0x2
	.byte	0x91
	.sleb128 -24
	.byte	0
	.uleb128 0x13
	.long	0x382d
	.quad	.LFB3233
	.quad	.LFE3233-.LFB3233
	.uleb128 0x1
	.byte	0x9c
	.long	0x9a07
	.uleb128 0x6
	.long	.LASF520
	.long	0x8cf1
	.uleb128 0x6
	.long	.LASF159
	.long	0x8cd8
	.uleb128 0x17
	.long	.LASF1369
	.byte	0x15
	.byte	0x91
	.byte	0x26
	.long	0x8cf1
	.uleb128 0x2
	.byte	0x91
	.sleb128 -24
	.uleb128 0x17
	.long	.LASF1370
	.byte	0x15
	.byte	0x91
	.byte	0x3e
	.long	0x8cf1
	.uleb128 0x2
	.byte	0x91
	.sleb128 -32
	.uleb128 0x17
	.long	.LASF1371
	.byte	0x15
	.byte	0x92
	.byte	0x1a
	.long	0x8cd8
	.uleb128 0x2
	.byte	0x91
	.sleb128 -40
	.byte	0
	.uleb128 0x23
	.long	0x3998
	.long	0x9a26
	.quad	.LFB3232
	.quad	.LFE3232-.LFB3232
	.uleb128 0x1
	.byte	0x9c
	.long	0x9a58
	.uleb128 0x15
	.long	.LASF1356
	.long	0x8cce
	.uleb128 0x2
	.byte	0x91
	.sleb128 -24
	.uleb128 0x2f
	.string	"__n"
	.byte	0xf
	.byte	0x70
	.byte	0x1a
	.long	0x39c1
	.uleb128 0x2
	.byte	0x91
	.sleb128 -32
	.uleb128 0x22
	.long	0x82fb
	.uleb128 0x2
	.byte	0x91
	.sleb128 -40
	.uleb128 0x54
	.uleb128 0x63
	.long	.LASF1380
	.byte	0xf
	.byte	0x84
	.byte	0x17
	.long	0x55c
	.byte	0
	.byte	0
	.uleb128 0xa
	.long	0x61
	.uleb128 0x26
	.long	0x6556
	.quad	.LFB3231
	.quad	.LFE3231-.LFB3231
	.uleb128 0x1
	.byte	0x9c
	.long	0x9aa0
	.uleb128 0xd
	.string	"_Tp"
	.long	0x5a
	.uleb128 0x2f
	.string	"__a"
	.byte	0x4
	.byte	0xe6
	.byte	0x14
	.long	0x9a58
	.uleb128 0x2
	.byte	0x91
	.sleb128 -24
	.uleb128 0x2f
	.string	"__b"
	.byte	0x4
	.byte	0xe6
	.byte	0x24
	.long	0x9a58
	.uleb128 0x2
	.byte	0x91
	.sleb128 -32
	.byte	0
	.uleb128 0x13
	.long	0x3b76
	.quad	.LFB3230
	.quad	.LFE3230-.LFB3230
	.uleb128 0x1
	.byte	0x9c
	.long	0x9acc
	.uleb128 0x18
	.string	"__a"
	.byte	0xd
	.value	0x223
	.byte	0x26
	.long	0x8d19
	.uleb128 0x2
	.byte	0x91
	.sleb128 -24
	.byte	0
	.uleb128 0x1c
	.long	0x38de
	.long	0x9ada
	.byte	0x2
	.long	0x9ae9
	.uleb128 0xc
	.long	.LASF1356
	.long	0x8cce
	.uleb128 0x1
	.long	0x8cd3
	.byte	0
	.uleb128 0x3a
	.long	0x9acc
	.long	.LASF1386
	.long	0x9b0c
	.quad	.LFB3228
	.quad	.LFE3228-.LFB3228
	.uleb128 0x1
	.byte	0x9c
	.long	0x9b1d
	.uleb128 0x11
	.long	0x9ada
	.uleb128 0x2
	.byte	0x91
	.sleb128 -24
	.uleb128 0x11
	.long	0x9ae3
	.uleb128 0x2
	.byte	0x91
	.sleb128 -32
	.byte	0
	.uleb128 0x23
	.long	0x39ce
	.long	0x9b3c
	.quad	.LFB3217
	.quad	.LFE3217-.LFB3217
	.uleb128 0x1
	.byte	0x9c
	.long	0x9b67
	.uleb128 0x15
	.long	.LASF1356
	.long	0x8cce
	.uleb128 0x2
	.byte	0x91
	.sleb128 -24
	.uleb128 0x2f
	.string	"__p"
	.byte	0xf
	.byte	0x8e
	.byte	0x17
	.long	0x8cd8
	.uleb128 0x2
	.byte	0x91
	.sleb128 -32
	.uleb128 0x2f
	.string	"__n"
	.byte	0xf
	.byte	0x8e
	.byte	0x26
	.long	0x39c1
	.uleb128 0x2
	.byte	0x91
	.sleb128 -40
	.byte	0
	.uleb128 0x13
	.long	0x657e
	.quad	.LFB3216
	.quad	.LFE3216-.LFB3216
	.uleb128 0x1
	.byte	0x9c
	.long	0x9bde
	.uleb128 0x6
	.long	.LASF520
	.long	0x8dc8
	.uleb128 0x6
	.long	.LASF159
	.long	0x8dc8
	.uleb128 0x6
	.long	.LASF910
	.long	0x4e6a
	.uleb128 0xf
	.long	.LASF1369
	.byte	0x15
	.value	0x467
	.byte	0x21
	.long	0x8dc8
	.uleb128 0x2
	.byte	0x91
	.sleb128 -40
	.uleb128 0xf
	.long	.LASF1370
	.byte	0x15
	.value	0x467
	.byte	0x39
	.long	0x8dc8
	.uleb128 0x2
	.byte	0x91
	.sleb128 -48
	.uleb128 0xf
	.long	.LASF1371
	.byte	0x15
	.value	0x468
	.byte	0x15
	.long	0x8dc8
	.uleb128 0x2
	.byte	0x91
	.sleb128 -56
	.uleb128 0xf
	.long	.LASF1378
	.byte	0x15
	.value	0x468
	.byte	0x2b
	.long	0x8df0
	.uleb128 0x2
	.byte	0x91
	.sleb128 -64
	.byte	0
	.uleb128 0x13
	.long	0x4f10
	.quad	.LFB3215
	.quad	.LFE3215-.LFB3215
	.uleb128 0x1
	.byte	0x9c
	.long	0x9c1a
	.uleb128 0x18
	.string	"__a"
	.byte	0xd
	.value	0x1cf
	.byte	0x20
	.long	0x8df5
	.uleb128 0x2
	.byte	0x91
	.sleb128 -24
	.uleb128 0x18
	.string	"__n"
	.byte	0xd
	.value	0x1cf
	.byte	0x2f
	.long	0x4f42
	.uleb128 0x2
	.byte	0x91
	.sleb128 -32
	.byte	0
	.uleb128 0x26
	.long	0x65c3
	.quad	.LFB3214
	.quad	.LFE3214-.LFB3214
	.uleb128 0x1
	.byte	0x9c
	.long	0x9c5d
	.uleb128 0xd
	.string	"_Tp"
	.long	0x5a
	.uleb128 0x2f
	.string	"__a"
	.byte	0x4
	.byte	0xfe
	.byte	0x14
	.long	0x9a58
	.uleb128 0x2
	.byte	0x91
	.sleb128 -24
	.uleb128 0x2f
	.string	"__b"
	.byte	0x4
	.byte	0xfe
	.byte	0x24
	.long	0x9a58
	.uleb128 0x2
	.byte	0x91
	.sleb128 -32
	.byte	0
	.uleb128 0x13
	.long	0x65eb
	.quad	.LFB3213
	.quad	.LFE3213-.LFB3213
	.uleb128 0x1
	.byte	0x9c
	.long	0x9cbc
	.uleb128 0x6
	.long	.LASF159
	.long	0x8dc8
	.uleb128 0x6
	.long	.LASF525
	.long	0x5a
	.uleb128 0xf
	.long	.LASF1369
	.byte	0x15
	.value	0x2b3
	.byte	0x30
	.long	0x8dc8
	.uleb128 0x2
	.byte	0x91
	.sleb128 -40
	.uleb128 0x18
	.string	"__n"
	.byte	0x15
	.value	0x2b3
	.byte	0x3f
	.long	0x5a
	.uleb128 0x2
	.byte	0x91
	.sleb128 -48
	.uleb128 0xb0
	.long	.LASF1506
	.byte	0x15
	.value	0x2b8
	.byte	0x16
	.long	0x7ea5
	.uleb128 0x2
	.byte	0x91
	.sleb128 -17
	.byte	0
	.uleb128 0x2e
	.long	0x51b1
	.long	0x9cdb
	.quad	.LFB3212
	.quad	.LFE3212-.LFB3212
	.uleb128 0x1
	.byte	0x9c
	.long	0x9ce8
	.uleb128 0x15
	.long	.LASF1356
	.long	0x8e4f
	.uleb128 0x2
	.byte	0x91
	.sleb128 -24
	.byte	0
	.uleb128 0x13
	.long	0x5ee4
	.quad	.LFB3211
	.quad	.LFE3211-.LFB3211
	.uleb128 0x1
	.byte	0x9c
	.long	0x9d34
	.uleb128 0x18
	.string	"__a"
	.byte	0x9
	.value	0x777
	.byte	0x29
	.long	0x8e9a
	.uleb128 0x2
	.byte	0x91
	.sleb128 -40
	.uleb128 0x29
	.long	.LASF1382
	.byte	0x9
	.value	0x77c
	.byte	0xf
	.long	0x578
	.uleb128 0x2
	.byte	0x91
	.sleb128 -24
	.uleb128 0x29
	.long	.LASF1383
	.byte	0x9
	.value	0x77e
	.byte	0xf
	.long	0x578
	.uleb128 0x2
	.byte	0x91
	.sleb128 -32
	.byte	0
	.uleb128 0x13
	.long	0x661d
	.quad	.LFB3209
	.quad	.LFE3209-.LFB3209
	.uleb128 0x1
	.byte	0x9c
	.long	0x9dad
	.uleb128 0x6
	.long	.LASF520
	.long	0x8cf1
	.uleb128 0x6
	.long	.LASF159
	.long	0x8cd8
	.uleb128 0x17
	.long	.LASF1369
	.byte	0x15
	.byte	0xa3
	.byte	0x27
	.long	0x8cf1
	.uleb128 0x2
	.byte	0x91
	.sleb128 -40
	.uleb128 0x17
	.long	.LASF1370
	.byte	0x15
	.byte	0xa3
	.byte	0x3f
	.long	0x8cf1
	.uleb128 0x2
	.byte	0x91
	.sleb128 -48
	.uleb128 0x17
	.long	.LASF1371
	.byte	0x15
	.byte	0xa4
	.byte	0x1b
	.long	0x8cd8
	.uleb128 0x2
	.byte	0x91
	.sleb128 -56
	.uleb128 0x2b
	.long	.LASF1384
	.byte	0x15
	.byte	0xae
	.byte	0x12
	.long	0x7ea5
	.uleb128 0x2
	.byte	0x91
	.sleb128 -17
	.uleb128 0x2b
	.long	.LASF1385
	.byte	0x15
	.byte	0xb5
	.byte	0x12
	.long	0x7ea5
	.uleb128 0x2
	.byte	0x91
	.sleb128 -18
	.byte	0
	.uleb128 0x13
	.long	0x3ae4
	.quad	.LFB3208
	.quad	.LFE3208-.LFB3208
	.uleb128 0x1
	.byte	0x9c
	.long	0x9de9
	.uleb128 0x18
	.string	"__a"
	.byte	0xd
	.value	0x1cf
	.byte	0x20
	.long	0x8d14
	.uleb128 0x2
	.byte	0x91
	.sleb128 -24
	.uleb128 0x18
	.string	"__n"
	.byte	0xd
	.value	0x1cf
	.byte	0x2f
	.long	0x3b16
	.uleb128 0x2
	.byte	0x91
	.sleb128 -32
	.byte	0
	.uleb128 0x13
	.long	0x4ab8
	.quad	.LFB3207
	.quad	.LFE3207-.LFB3207
	.uleb128 0x1
	.byte	0x9c
	.long	0x9e35
	.uleb128 0x18
	.string	"__a"
	.byte	0x9
	.value	0x777
	.byte	0x29
	.long	0x8db4
	.uleb128 0x2
	.byte	0x91
	.sleb128 -40
	.uleb128 0x29
	.long	.LASF1382
	.byte	0x9
	.value	0x77c
	.byte	0xf
	.long	0x578
	.uleb128 0x2
	.byte	0x91
	.sleb128 -24
	.uleb128 0x29
	.long	.LASF1383
	.byte	0x9
	.value	0x77e
	.byte	0xf
	.long	0x578
	.uleb128 0x2
	.byte	0x91
	.sleb128 -32
	.byte	0
	.uleb128 0x1c
	.long	0x3c08
	.long	0x9e43
	.byte	0x2
	.long	0x9e4d
	.uleb128 0xc
	.long	.LASF1356
	.long	0x8d2d
	.byte	0
	.uleb128 0x3a
	.long	0x9e35
	.long	.LASF1387
	.long	0x9e70
	.quad	.LFB3205
	.quad	.LFE3205-.LFB3205
	.uleb128 0x1
	.byte	0x9c
	.long	0x9e79
	.uleb128 0x11
	.long	0x9e43
	.uleb128 0x2
	.byte	0x91
	.sleb128 -24
	.byte	0
	.uleb128 0x1c
	.long	0x3a6b
	.long	0x9e87
	.byte	0x2
	.long	0x9e9d
	.uleb128 0xc
	.long	.LASF1356
	.long	0x8d05
	.uleb128 0x49
	.string	"__a"
	.byte	0xb
	.byte	0x9f
	.byte	0x22
	.long	0x8d0a
	.byte	0
	.uleb128 0x24
	.long	0x9e79
	.long	.LASF1389
	.long	0x9ec0
	.quad	.LFB3202
	.quad	.LFE3202-.LFB3202
	.uleb128 0x1
	.byte	0x9c
	.long	0x9ed1
	.uleb128 0x11
	.long	0x9e87
	.uleb128 0x2
	.byte	0x91
	.sleb128 -24
	.uleb128 0x11
	.long	0x9e90
	.uleb128 0x2
	.byte	0x91
	.sleb128 -32
	.byte	0
	.uleb128 0x23
	.long	0x4dfa
	.long	0x9ef0
	.quad	.LFB3200
	.quad	.LFE3200-.LFB3200
	.uleb128 0x1
	.byte	0x9c
	.long	0x9f1b
	.uleb128 0x15
	.long	.LASF1356
	.long	0x8dbe
	.uleb128 0x2
	.byte	0x91
	.sleb128 -24
	.uleb128 0x2f
	.string	"__p"
	.byte	0xf
	.byte	0x8e
	.byte	0x17
	.long	0x8dc8
	.uleb128 0x2
	.byte	0x91
	.sleb128 -32
	.uleb128 0x2f
	.string	"__n"
	.byte	0xf
	.byte	0x8e
	.byte	0x26
	.long	0x4ded
	.uleb128 0x2
	.byte	0x91
	.sleb128 -40
	.byte	0
	.uleb128 0x26
	.long	0xdf0
	.quad	.LFB3178
	.quad	.LFE3178-.LFB3178
	.uleb128 0x1
	.byte	0x9c
	.long	0x9f50
	.uleb128 0x6
	.long	.LASF159
	.long	0x8cd8
	.uleb128 0x22
	.long	0x8cd8
	.uleb128 0x2
	.byte	0x91
	.sleb128 -24
	.uleb128 0x22
	.long	0x8cd8
	.uleb128 0x2
	.byte	0x91
	.sleb128 -32
	.byte	0
	.uleb128 0x13
	.long	0x3b55
	.quad	.LFB3177
	.quad	.LFE3177-.LFB3177
	.uleb128 0x1
	.byte	0x9c
	.long	0x9f9c
	.uleb128 0x18
	.string	"__a"
	.byte	0xd
	.value	0x1ef
	.byte	0x22
	.long	0x8d14
	.uleb128 0x2
	.byte	0x91
	.sleb128 -24
	.uleb128 0x18
	.string	"__p"
	.byte	0xd
	.value	0x1ef
	.byte	0x2f
	.long	0x3ad7
	.uleb128 0x2
	.byte	0x91
	.sleb128 -32
	.uleb128 0x18
	.string	"__n"
	.byte	0xd
	.value	0x1ef
	.byte	0x3e
	.long	0x3b16
	.uleb128 0x2
	.byte	0x91
	.sleb128 -40
	.byte	0
	.uleb128 0x26
	.long	0xe14
	.quad	.LFB3176
	.quad	.LFE3176-.LFB3176
	.uleb128 0x1
	.byte	0x9c
	.long	0x9fd1
	.uleb128 0x6
	.long	.LASF159
	.long	0x8dc8
	.uleb128 0x22
	.long	0x8dc8
	.uleb128 0x2
	.byte	0x91
	.sleb128 -24
	.uleb128 0x22
	.long	0x8dc8
	.uleb128 0x2
	.byte	0x91
	.sleb128 -32
	.byte	0
	.uleb128 0x13
	.long	0x54dc
	.quad	.LFB3175
	.quad	.LFE3175-.LFB3175
	.uleb128 0x1
	.byte	0x9c
	.long	0xa02d
	.uleb128 0xf
	.long	.LASF1369
	.byte	0x9
	.value	0x1f3
	.byte	0x1b
	.long	0x545f
	.uleb128 0x2
	.byte	0x91
	.sleb128 -24
	.uleb128 0xf
	.long	.LASF1370
	.byte	0x9
	.value	0x1f3
	.byte	0x2c
	.long	0x545f
	.uleb128 0x2
	.byte	0x91
	.sleb128 -32
	.uleb128 0xf
	.long	.LASF1371
	.byte	0x9
	.value	0x1f3
	.byte	0x3c
	.long	0x545f
	.uleb128 0x2
	.byte	0x91
	.sleb128 -40
	.uleb128 0xf
	.long	.LASF1378
	.byte	0x9
	.value	0x1f4
	.byte	0x15
	.long	0x8e5e
	.uleb128 0x2
	.byte	0x91
	.sleb128 -48
	.byte	0
	.uleb128 0x23
	.long	0x532c
	.long	0xa04c
	.quad	.LFB3174
	.quad	.LFE3174-.LFB3174
	.uleb128 0x1
	.byte	0x9c
	.long	0xa069
	.uleb128 0x15
	.long	.LASF1356
	.long	0x8e45
	.uleb128 0x2
	.byte	0x91
	.sleb128 -24
	.uleb128 0x18
	.string	"__n"
	.byte	0x9
	.value	0x177
	.byte	0x1a
	.long	0x56b
	.uleb128 0x2
	.byte	0x91
	.sleb128 -32
	.byte	0
	.uleb128 0x23
	.long	0x5e9c
	.long	0xa088
	.quad	.LFB3173
	.quad	.LFE3173-.LFB3173
	.uleb128 0x1
	.byte	0x9c
	.long	0xa0c6
	.uleb128 0x15
	.long	.LASF1356
	.long	0x8e90
	.uleb128 0x2
	.byte	0x91
	.sleb128 -56
	.uleb128 0x18
	.string	"__n"
	.byte	0x9
	.value	0x763
	.byte	0x1e
	.long	0x5575
	.uleb128 0x2
	.byte	0x91
	.sleb128 -64
	.uleb128 0x18
	.string	"__s"
	.byte	0x9
	.value	0x763
	.byte	0x2f
	.long	0x2f2
	.uleb128 0x3
	.byte	0x91
	.sleb128 -72
	.uleb128 0x29
	.long	.LASF1390
	.byte	0x9
	.value	0x768
	.byte	0x12
	.long	0x5582
	.uleb128 0x2
	.byte	0x91
	.sleb128 -40
	.byte	0
	.uleb128 0x13
	.long	0x6653
	.quad	.LFB3172
	.quad	.LFE3172-.LFB3172
	.uleb128 0x1
	.byte	0x9c
	.long	0xa125
	.uleb128 0x6
	.long	.LASF159
	.long	0x8dc8
	.uleb128 0x6
	.long	.LASF525
	.long	0x5a
	.uleb128 0xd
	.string	"_Tp"
	.long	0x11d
	.uleb128 0xf
	.long	.LASF1369
	.byte	0x15
	.value	0x2fc
	.byte	0x32
	.long	0x8dc8
	.uleb128 0x2
	.byte	0x91
	.sleb128 -24
	.uleb128 0x18
	.string	"__n"
	.byte	0x15
	.value	0x2fc
	.byte	0x41
	.long	0x5a
	.uleb128 0x2
	.byte	0x91
	.sleb128 -32
	.uleb128 0x22
	.long	0x8df0
	.uleb128 0x2
	.byte	0x91
	.sleb128 -40
	.byte	0
	.uleb128 0x23
	.long	0x596e
	.long	0xa144
	.quad	.LFB3171
	.quad	.LFE3171-.LFB3171
	.uleb128 0x1
	.byte	0x9c
	.long	0xa151
	.uleb128 0x15
	.long	.LASF1356
	.long	0x8e90
	.uleb128 0x2
	.byte	0x91
	.sleb128 -24
	.byte	0
	.uleb128 0x2e
	.long	0x7ca7
	.long	0xa170
	.quad	.LFB3170
	.quad	.LFE3170-.LFB3170
	.uleb128 0x1
	.byte	0x9c
	.long	0xa17d
	.uleb128 0x15
	.long	.LASF1356
	.long	0x908c
	.uleb128 0x2
	.byte	0x91
	.sleb128 -24
	.byte	0
	.uleb128 0x13
	.long	0x6693
	.quad	.LFB3169
	.quad	.LFE3169-.LFB3169
	.uleb128 0x1
	.byte	0x9c
	.long	0xa1ec
	.uleb128 0x6
	.long	.LASF520
	.long	0x8cf1
	.uleb128 0x6
	.long	.LASF159
	.long	0x8cd8
	.uleb128 0xd
	.string	"_Tp"
	.long	0x6f2e
	.uleb128 0xf
	.long	.LASF1369
	.byte	0x15
	.value	0x16d
	.byte	0x2b
	.long	0x8cf1
	.uleb128 0x2
	.byte	0x91
	.sleb128 -24
	.uleb128 0xf
	.long	.LASF1370
	.byte	0x15
	.value	0x16d
	.byte	0x43
	.long	0x8cf1
	.uleb128 0x2
	.byte	0x91
	.sleb128 -32
	.uleb128 0xf
	.long	.LASF1371
	.byte	0x15
	.value	0x16e
	.byte	0x18
	.long	0x8cd8
	.uleb128 0x2
	.byte	0x91
	.sleb128 -40
	.uleb128 0x22
	.long	0x8d0f
	.uleb128 0x2
	.byte	0x91
	.sleb128 -48
	.byte	0
	.uleb128 0x23
	.long	0x3f00
	.long	0xa20b
	.quad	.LFB3168
	.quad	.LFE3168-.LFB3168
	.uleb128 0x1
	.byte	0x9c
	.long	0xa228
	.uleb128 0x15
	.long	.LASF1356
	.long	0x8d64
	.uleb128 0x2
	.byte	0x91
	.sleb128 -24
	.uleb128 0x18
	.string	"__n"
	.byte	0x9
	.value	0x177
	.byte	0x1a
	.long	0x56b
	.uleb128 0x2
	.byte	0x91
	.sleb128 -32
	.byte	0
	.uleb128 0x13
	.long	0x4a9a
	.quad	.LFB3167
	.quad	.LFE3167-.LFB3167
	.uleb128 0x1
	.byte	0x9c
	.long	0xa264
	.uleb128 0x18
	.string	"__n"
	.byte	0x9
	.value	0x76e
	.byte	0x23
	.long	0x4149
	.uleb128 0x2
	.byte	0x91
	.sleb128 -56
	.uleb128 0x18
	.string	"__a"
	.byte	0x9
	.value	0x76e
	.byte	0x3e
	.long	0x8d87
	.uleb128 0x2
	.byte	0x91
	.sleb128 -64
	.byte	0
	.uleb128 0x26
	.long	0x66d8
	.quad	.LFB3166
	.quad	.LFE3166-.LFB3166
	.uleb128 0x1
	.byte	0x9c
	.long	0xa2af
	.uleb128 0x6
	.long	.LASF923
	.long	0x8cf1
	.uleb128 0x17
	.long	.LASF1369
	.byte	0xe
	.byte	0x63
	.byte	0x26
	.long	0x8cf1
	.uleb128 0x2
	.byte	0x91
	.sleb128 -24
	.uleb128 0x17
	.long	.LASF1370
	.byte	0xe
	.byte	0x63
	.byte	0x45
	.long	0x8cf1
	.uleb128 0x2
	.byte	0x91
	.sleb128 -32
	.uleb128 0x22
	.long	0xdc8
	.uleb128 0x2
	.byte	0x91
	.sleb128 0
	.byte	0
	.uleb128 0xa
	.long	0x8cf6
	.uleb128 0x26
	.long	0x6705
	.quad	.LFB3165
	.quad	.LFE3165-.LFB3165
	.uleb128 0x1
	.byte	0x9c
	.long	0xa2e1
	.uleb128 0x6
	.long	.LASF888
	.long	0x8cf1
	.uleb128 0x22
	.long	0xa2af
	.uleb128 0x2
	.byte	0x91
	.sleb128 -24
	.byte	0
	.uleb128 0x2e
	.long	0x4c70
	.long	0xa300
	.quad	.LFB3164
	.quad	.LFE3164-.LFB3164
	.uleb128 0x1
	.byte	0x9c
	.long	0xa30d
	.uleb128 0x15
	.long	.LASF1356
	.long	0x9073
	.uleb128 0x2
	.byte	0x91
	.sleb128 -24
	.byte	0
	.uleb128 0x1c
	.long	0x3cbc
	.long	0xa31b
	.byte	0x2
	.long	0xa331
	.uleb128 0xc
	.long	.LASF1356
	.long	0x8d46
	.uleb128 0x49
	.string	"__a"
	.byte	0x9
	.byte	0x8f
	.byte	0x25
	.long	0x8d4b
	.byte	0
	.uleb128 0x24
	.long	0xa30d
	.long	.LASF1391
	.long	0xa354
	.quad	.LFB3162
	.quad	.LFE3162-.LFB3162
	.uleb128 0x1
	.byte	0x9c
	.long	0xa365
	.uleb128 0x11
	.long	0xa31b
	.uleb128 0x2
	.byte	0x91
	.sleb128 -24
	.uleb128 0x11
	.long	0xa324
	.uleb128 0x2
	.byte	0x91
	.sleb128 -32
	.byte	0
	.uleb128 0x13
	.long	0x4f81
	.quad	.LFB3160
	.quad	.LFE3160-.LFB3160
	.uleb128 0x1
	.byte	0x9c
	.long	0xa3b1
	.uleb128 0x18
	.string	"__a"
	.byte	0xd
	.value	0x1ef
	.byte	0x22
	.long	0x8df5
	.uleb128 0x2
	.byte	0x91
	.sleb128 -24
	.uleb128 0x18
	.string	"__p"
	.byte	0xd
	.value	0x1ef
	.byte	0x2f
	.long	0x4f03
	.uleb128 0x2
	.byte	0x91
	.sleb128 -32
	.uleb128 0x18
	.string	"__n"
	.byte	0xd
	.value	0x1ef
	.byte	0x3e
	.long	0x4f42
	.uleb128 0x2
	.byte	0x91
	.sleb128 -40
	.byte	0
	.uleb128 0x1c
	.long	0x4cf0
	.long	0xa3bf
	.byte	0x2
	.long	0xa3c9
	.uleb128 0xc
	.long	.LASF1356
	.long	0x8dbe
	.byte	0
	.uleb128 0x3a
	.long	0xa3b1
	.long	.LASF1392
	.long	0xa3ec
	.quad	.LFB3158
	.quad	.LFE3158-.LFB3158
	.uleb128 0x1
	.byte	0x9c
	.long	0xa3f5
	.uleb128 0x11
	.long	0xa3bf
	.uleb128 0x2
	.byte	0x91
	.sleb128 -24
	.byte	0
	.uleb128 0x26
	.long	0x6728
	.quad	.LFB3117
	.quad	.LFE3117-.LFB3117
	.uleb128 0x1
	.byte	0x9c
	.long	0xa440
	.uleb128 0x6
	.long	.LASF923
	.long	0x2f2
	.uleb128 0x17
	.long	.LASF1369
	.byte	0xe
	.byte	0x63
	.byte	0x26
	.long	0x2f2
	.uleb128 0x2
	.byte	0x91
	.sleb128 -24
	.uleb128 0x17
	.long	.LASF1370
	.byte	0xe
	.byte	0x63
	.byte	0x45
	.long	0x2f2
	.uleb128 0x2
	.byte	0x91
	.sleb128 -32
	.uleb128 0x22
	.long	0xdc8
	.uleb128 0x2
	.byte	0x91
	.sleb128 0
	.byte	0
	.uleb128 0x26
	.long	0x6755
	.quad	.LFB3116
	.quad	.LFE3116-.LFB3116
	.uleb128 0x1
	.byte	0x9c
	.long	0xa46d
	.uleb128 0x6
	.long	.LASF888
	.long	0x2f2
	.uleb128 0x22
	.long	0x905a
	.uleb128 0x2
	.byte	0x91
	.sleb128 -24
	.byte	0
	.uleb128 0x13
	.long	0x6778
	.quad	.LFB3102
	.quad	.LFE3102-.LFB3102
	.uleb128 0x1
	.byte	0x9c
	.long	0xa4b0
	.uleb128 0x6
	.long	.LASF159
	.long	0x8cd8
	.uleb128 0x17
	.long	.LASF1369
	.byte	0x13
	.byte	0xb6
	.byte	0x1f
	.long	0x8cd8
	.uleb128 0x2
	.byte	0x91
	.sleb128 -24
	.uleb128 0x17
	.long	.LASF1370
	.byte	0x13
	.byte	0xb6
	.byte	0x39
	.long	0x8cd8
	.uleb128 0x2
	.byte	0x91
	.sleb128 -32
	.byte	0
	.uleb128 0x23
	.long	0x3f23
	.long	0xa4cf
	.quad	.LFB3101
	.quad	.LFE3101-.LFB3101
	.uleb128 0x1
	.byte	0x9c
	.long	0xa4fc
	.uleb128 0x15
	.long	.LASF1356
	.long	0x8d64
	.uleb128 0x2
	.byte	0x91
	.sleb128 -24
	.uleb128 0x18
	.string	"__p"
	.byte	0x9
	.value	0x17f
	.byte	0x1d
	.long	0x3c7f
	.uleb128 0x2
	.byte	0x91
	.sleb128 -32
	.uleb128 0x18
	.string	"__n"
	.byte	0x9
	.value	0x17f
	.byte	0x29
	.long	0x56b
	.uleb128 0x2
	.byte	0x91
	.sleb128 -40
	.byte	0
	.uleb128 0x13
	.long	0x679c
	.quad	.LFB3100
	.quad	.LFE3100-.LFB3100
	.uleb128 0x1
	.byte	0x9c
	.long	0xa53f
	.uleb128 0x6
	.long	.LASF159
	.long	0x8dc8
	.uleb128 0x17
	.long	.LASF1369
	.byte	0x13
	.byte	0xb6
	.byte	0x1f
	.long	0x8dc8
	.uleb128 0x2
	.byte	0x91
	.sleb128 -24
	.uleb128 0x17
	.long	.LASF1370
	.byte	0x13
	.byte	0xb6
	.byte	0x39
	.long	0x8dc8
	.uleb128 0x2
	.byte	0x91
	.sleb128 -32
	.byte	0
	.uleb128 0x23
	.long	0x5efd
	.long	0xa55e
	.quad	.LFB3099
	.quad	.LFE3099-.LFB3099
	.uleb128 0x1
	.byte	0x9c
	.long	0xa59c
	.uleb128 0x15
	.long	.LASF1356
	.long	0x8e68
	.uleb128 0x2
	.byte	0x91
	.sleb128 -40
	.uleb128 0xf
	.long	.LASF1272
	.byte	0x9
	.value	0x788
	.byte	0x1f
	.long	0x545f
	.uleb128 0x2
	.byte	0x91
	.sleb128 -48
	.uleb128 0x64
	.quad	.LBB51
	.quad	.LBE51-.LBB51
	.uleb128 0x79
	.string	"__n"
	.value	0x78a
	.byte	0x10
	.long	0x5575
	.uleb128 0x2
	.byte	0x91
	.sleb128 -24
	.byte	0
	.byte	0
	.uleb128 0x23
	.long	0x5e07
	.long	0xa5bb
	.quad	.LFB3094
	.quad	.LFE3094-.LFB3094
	.uleb128 0x1
	.byte	0x9c
	.long	0xa626
	.uleb128 0x15
	.long	.LASF1356
	.long	0x8e68
	.uleb128 0x3
	.byte	0x91
	.sleb128 -72
	.uleb128 0x18
	.string	"__n"
	.byte	0x12
	.value	0x273
	.byte	0x21
	.long	0x5575
	.uleb128 0x3
	.byte	0x91
	.sleb128 -80
	.uleb128 0x7a
	.long	.LLRL0
	.uleb128 0x29
	.long	.LASF1393
	.byte	0x12
	.value	0x277
	.byte	0x14
	.long	0x5582
	.uleb128 0x2
	.byte	0x91
	.sleb128 -40
	.uleb128 0x29
	.long	.LASF1394
	.byte	0x12
	.value	0x278
	.byte	0xe
	.long	0x5575
	.uleb128 0x2
	.byte	0x91
	.sleb128 -48
	.uleb128 0x7a
	.long	.LLRL1
	.uleb128 0x29
	.long	.LASF1390
	.byte	0x12
	.value	0x288
	.byte	0x18
	.long	0x5582
	.uleb128 0x2
	.byte	0x91
	.sleb128 -56
	.uleb128 0x29
	.long	.LASF1395
	.byte	0x12
	.value	0x28a
	.byte	0x10
	.long	0x545f
	.uleb128 0x2
	.byte	0x91
	.sleb128 -64
	.byte	0
	.byte	0
	.byte	0
	.uleb128 0x2e
	.long	0x594e
	.long	0xa645
	.quad	.LFB3093
	.quad	.LFE3093-.LFB3093
	.uleb128 0x1
	.byte	0x9c
	.long	0xa652
	.uleb128 0x15
	.long	.LASF1356
	.long	0x8e90
	.uleb128 0x2
	.byte	0x91
	.sleb128 -24
	.byte	0
	.uleb128 0x2e
	.long	0x7b0a
	.long	0xa671
	.quad	.LFB3092
	.quad	.LFE3092-.LFB3092
	.uleb128 0x1
	.byte	0x9c
	.long	0xa67e
	.uleb128 0x15
	.long	.LASF1356
	.long	0x908c
	.uleb128 0x2
	.byte	0x91
	.sleb128 -24
	.byte	0
	.uleb128 0x2e
	.long	0x7b57
	.long	0xa69d
	.quad	.LFB3091
	.quad	.LFE3091-.LFB3091
	.uleb128 0x1
	.byte	0x9c
	.long	0xa6aa
	.uleb128 0x15
	.long	.LASF1356
	.long	0x907d
	.uleb128 0x2
	.byte	0x91
	.sleb128 -24
	.byte	0
	.uleb128 0xa
	.long	0x7cda
	.uleb128 0x13
	.long	0x7dfd
	.quad	.LFB3090
	.quad	.LFE3090-.LFB3090
	.uleb128 0x1
	.byte	0x9c
	.long	0xa6fd
	.uleb128 0x6
	.long	.LASF876
	.long	0x8cd8
	.uleb128 0x6
	.long	.LASF1089
	.long	0x3fa3
	.uleb128 0xf
	.long	.LASF1396
	.byte	0x11
	.value	0x4d5
	.byte	0x40
	.long	0xa6aa
	.uleb128 0x2
	.byte	0x91
	.sleb128 -40
	.uleb128 0xf
	.long	.LASF1397
	.byte	0x11
	.value	0x4d6
	.byte	0x39
	.long	0xa6aa
	.uleb128 0x2
	.byte	0x91
	.sleb128 -48
	.byte	0
	.uleb128 0x1c
	.long	0x7ade
	.long	0xa70b
	.byte	0x2
	.long	0xa722
	.uleb128 0xc
	.long	.LASF1356
	.long	0x907d
	.uleb128 0x30
	.string	"__i"
	.byte	0x11
	.value	0x430
	.byte	0x2a
	.long	0x9082
	.byte	0
	.uleb128 0x3a
	.long	0xa6fd
	.long	.LASF1398
	.long	0xa745
	.quad	.LFB3088
	.quad	.LFE3088-.LFB3088
	.uleb128 0x1
	.byte	0x9c
	.long	0xa756
	.uleb128 0x11
	.long	0xa70b
	.uleb128 0x2
	.byte	0x91
	.sleb128 -24
	.uleb128 0x11
	.long	0xa714
	.uleb128 0x2
	.byte	0x91
	.sleb128 -32
	.byte	0
	.uleb128 0x23
	.long	0x4b87
	.long	0xa77e
	.quad	.LFB3085
	.quad	.LFE3085-.LFB3085
	.uleb128 0x1
	.byte	0x9c
	.long	0xa7c3
	.uleb128 0x6
	.long	.LASF159
	.long	0x8cf1
	.uleb128 0x15
	.long	.LASF1356
	.long	0x8d82
	.uleb128 0x2
	.byte	0x91
	.sleb128 -56
	.uleb128 0xf
	.long	.LASF1369
	.byte	0x9
	.value	0x692
	.byte	0x27
	.long	0x8cf1
	.uleb128 0x2
	.byte	0x91
	.sleb128 -64
	.uleb128 0xf
	.long	.LASF1370
	.byte	0x9
	.value	0x692
	.byte	0x41
	.long	0x8cf1
	.uleb128 0x3
	.byte	0x91
	.sleb128 -72
	.uleb128 0x22
	.long	0xda2
	.uleb128 0x2
	.byte	0x91
	.sleb128 0
	.uleb128 0x79
	.string	"__n"
	.value	0x695
	.byte	0x14
	.long	0x4156
	.uleb128 0x2
	.byte	0x91
	.sleb128 -40
	.byte	0
	.uleb128 0x13
	.long	0x67c0
	.quad	.LFB3086
	.quad	.LFE3086-.LFB3086
	.uleb128 0x1
	.byte	0x9c
	.long	0xa806
	.uleb128 0x6
	.long	.LASF520
	.long	0x8cf1
	.uleb128 0x17
	.long	.LASF1369
	.byte	0xe
	.byte	0x93
	.byte	0x1d
	.long	0x8cf1
	.uleb128 0x2
	.byte	0x91
	.sleb128 -24
	.uleb128 0x17
	.long	.LASF1370
	.byte	0xe
	.byte	0x93
	.byte	0x35
	.long	0x8cf1
	.uleb128 0x2
	.byte	0x91
	.sleb128 -32
	.byte	0
	.uleb128 0x23
	.long	0x4cae
	.long	0xa825
	.quad	.LFB3084
	.quad	.LFE3084-.LFB3084
	.uleb128 0x1
	.byte	0x9c
	.long	0xa832
	.uleb128 0x15
	.long	.LASF1356
	.long	0x9073
	.uleb128 0x2
	.byte	0x91
	.sleb128 -40
	.byte	0
	.uleb128 0x2e
	.long	0x4c8f
	.long	0xa851
	.quad	.LFB3083
	.quad	.LFE3083-.LFB3083
	.uleb128 0x1
	.byte	0x9c
	.long	0xa85e
	.uleb128 0x15
	.long	.LASF1356
	.long	0x9073
	.uleb128 0x2
	.byte	0x91
	.sleb128 -24
	.byte	0
	.uleb128 0x1c
	.long	0x3dec
	.long	0xa86c
	.byte	0x2
	.long	0xa883
	.uleb128 0xc
	.long	.LASF1356
	.long	0x8d64
	.uleb128 0x30
	.string	"__a"
	.byte	0x9
	.value	0x13e
	.byte	0x2a
	.long	0x8d6e
	.byte	0
	.uleb128 0x24
	.long	0xa85e
	.long	.LASF1399
	.long	0xa8a6
	.quad	.LFB3081
	.quad	.LFE3081-.LFB3081
	.uleb128 0x1
	.byte	0x9c
	.long	0xa8b7
	.uleb128 0x11
	.long	0xa86c
	.uleb128 0x2
	.byte	0x91
	.sleb128 -24
	.uleb128 0x11
	.long	0xa875
	.uleb128 0x2
	.byte	0x91
	.sleb128 -32
	.byte	0
	.uleb128 0x1c
	.long	0x38fd
	.long	0xa8c5
	.byte	0x2
	.long	0xa8d8
	.uleb128 0xc
	.long	.LASF1356
	.long	0x8cce
	.uleb128 0xc
	.long	.LASF1400
	.long	0x125
	.byte	0
	.uleb128 0x3a
	.long	0xa8b7
	.long	.LASF1401
	.long	0xa8fb
	.quad	.LFB3078
	.quad	.LFE3078-.LFB3078
	.uleb128 0x1
	.byte	0x9c
	.long	0xa904
	.uleb128 0x11
	.long	0xa8c5
	.uleb128 0x2
	.byte	0x91
	.sleb128 -24
	.byte	0
	.uleb128 0x1c
	.long	0x38c4
	.long	0xa912
	.byte	0x2
	.long	0xa91c
	.uleb128 0xc
	.long	.LASF1356
	.long	0x8cce
	.byte	0
	.uleb128 0x3a
	.long	0xa904
	.long	.LASF1402
	.long	0xa93f
	.quad	.LFB3075
	.quad	.LFE3075-.LFB3075
	.uleb128 0x1
	.byte	0x9c
	.long	0xa948
	.uleb128 0x11
	.long	0xa912
	.uleb128 0x2
	.byte	0x91
	.sleb128 -24
	.byte	0
	.uleb128 0x23
	.long	0x534f
	.long	0xa967
	.quad	.LFB3073
	.quad	.LFE3073-.LFB3073
	.uleb128 0x1
	.byte	0x9c
	.long	0xa994
	.uleb128 0x15
	.long	.LASF1356
	.long	0x8e45
	.uleb128 0x2
	.byte	0x91
	.sleb128 -24
	.uleb128 0x18
	.string	"__p"
	.byte	0x9
	.value	0x17f
	.byte	0x1d
	.long	0x50ab
	.uleb128 0x2
	.byte	0x91
	.sleb128 -32
	.uleb128 0x18
	.string	"__n"
	.byte	0x9
	.value	0x17f
	.byte	0x29
	.long	0x56b
	.uleb128 0x2
	.byte	0x91
	.sleb128 -40
	.byte	0
	.uleb128 0x1c
	.long	0x4d29
	.long	0xa9a2
	.byte	0x2
	.long	0xa9b5
	.uleb128 0xc
	.long	.LASF1356
	.long	0x8dbe
	.uleb128 0xc
	.long	.LASF1400
	.long	0x125
	.byte	0
	.uleb128 0x3a
	.long	0xa994
	.long	.LASF1403
	.long	0xa9d8
	.quad	.LFB3071
	.quad	.LFE3071-.LFB3071
	.uleb128 0x1
	.byte	0x9c
	.long	0xa9e1
	.uleb128 0x11
	.long	0xa9a2
	.uleb128 0x2
	.byte	0x91
	.sleb128 -24
	.byte	0
	.uleb128 0x1c
	.long	0x5034
	.long	0xa9ef
	.byte	0x2
	.long	0xa9f9
	.uleb128 0xc
	.long	.LASF1356
	.long	0x8e0e
	.byte	0
	.uleb128 0x3a
	.long	0xa9e1
	.long	.LASF1404
	.long	0xaa1c
	.quad	.LFB3068
	.quad	.LFE3068-.LFB3068
	.uleb128 0x1
	.byte	0x9c
	.long	0xaa25
	.uleb128 0x11
	.long	0xa9ef
	.uleb128 0x2
	.byte	0x91
	.sleb128 -24
	.byte	0
	.uleb128 0x1c
	.long	0x4e7d
	.long	0xaa33
	.byte	0x2
	.long	0xaa3d
	.uleb128 0xc
	.long	.LASF1356
	.long	0x8de6
	.byte	0
	.uleb128 0x24
	.long	0xaa25
	.long	.LASF1405
	.long	0xaa60
	.quad	.LFB3065
	.quad	.LFE3065-.LFB3065
	.uleb128 0x1
	.byte	0x9c
	.long	0xaa69
	.uleb128 0x11
	.long	0xaa33
	.uleb128 0x2
	.byte	0x91
	.sleb128 -24
	.byte	0
	.uleb128 0x7b
	.long	0x1f74
	.long	0xaa9a
	.uleb128 0x30
	.string	"__p"
	.byte	0x5
	.value	0x1db
	.byte	0x1d
	.long	0x6c96
	.uleb128 0x41
	.long	.LASF1406
	.byte	0x5
	.value	0x1db
	.byte	0x30
	.long	0x2f2
	.uleb128 0x41
	.long	.LASF1407
	.byte	0x5
	.value	0x1db
	.byte	0x44
	.long	0x2f2
	.byte	0
	.uleb128 0x1c
	.long	0x1dda
	.long	0xaaa8
	.byte	0x3
	.long	0xaab2
	.uleb128 0xc
	.long	.LASF1356
	.long	0x8a80
	.byte	0
	.uleb128 0x13
	.long	0x67e8
	.quad	.LFB3020
	.quad	.LFE3020-.LFB3020
	.uleb128 0x1
	.byte	0x9c
	.long	0xaaf5
	.uleb128 0x6
	.long	.LASF520
	.long	0x2f2
	.uleb128 0x17
	.long	.LASF1369
	.byte	0xe
	.byte	0x93
	.byte	0x1d
	.long	0x2f2
	.uleb128 0x2
	.byte	0x91
	.sleb128 -24
	.uleb128 0x17
	.long	.LASF1370
	.byte	0xe
	.byte	0x93
	.byte	0x35
	.long	0x2f2
	.uleb128 0x2
	.byte	0x91
	.sleb128 -32
	.byte	0
	.uleb128 0xb1
	.long	0xd38
	.byte	0x2
	.uleb128 0x34
	.long	0xaaf5
	.long	.LASF1408
	.long	0xab0d
	.long	0xab10
	.uleb128 0x7c
	.uleb128 0x7c
	.byte	0
	.uleb128 0x2e
	.long	0x4631
	.long	0xab2f
	.quad	.LFB2995
	.quad	.LFE2995-.LFB2995
	.uleb128 0x1
	.byte	0x9c
	.long	0xab4c
	.uleb128 0x15
	.long	.LASF1356
	.long	0x8d82
	.uleb128 0x2
	.byte	0x91
	.sleb128 -24
	.uleb128 0x18
	.string	"__n"
	.byte	0x9
	.value	0x461
	.byte	0x1c
	.long	0x4149
	.uleb128 0x2
	.byte	0x91
	.sleb128 -32
	.byte	0
	.uleb128 0x23
	.long	0x8ef9
	.long	0xab6b
	.quad	.LFB2994
	.quad	.LFE2994-.LFB2994
	.uleb128 0x1
	.byte	0x9c
	.long	0xab78
	.uleb128 0x15
	.long	.LASF1356
	.long	0x904b
	.uleb128 0x2
	.byte	0x91
	.sleb128 -24
	.byte	0
	.uleb128 0x23
	.long	0x8eda
	.long	0xab97
	.quad	.LFB2993
	.quad	.LFE2993-.LFB2993
	.uleb128 0x1
	.byte	0x9c
	.long	0xaba4
	.uleb128 0x15
	.long	.LASF1356
	.long	0x904b
	.uleb128 0x2
	.byte	0x91
	.sleb128 -24
	.byte	0
	.uleb128 0x2e
	.long	0x4522
	.long	0xabc3
	.quad	.LFB2992
	.quad	.LFE2992-.LFB2992
	.uleb128 0x1
	.byte	0x9c
	.long	0xabd0
	.uleb128 0x15
	.long	.LASF1356
	.long	0x8daa
	.uleb128 0x2
	.byte	0x91
	.sleb128 -24
	.byte	0
	.uleb128 0x13
	.long	0x6810
	.quad	.LFB2991
	.quad	.LFE2991-.LFB2991
	.uleb128 0x1
	.byte	0x9c
	.long	0xac26
	.uleb128 0x6
	.long	.LASF159
	.long	0x8cd8
	.uleb128 0xd
	.string	"_Tp"
	.long	0x6f2e
	.uleb128 0xf
	.long	.LASF1369
	.byte	0xd
	.value	0x34f
	.byte	0x1f
	.long	0x8cd8
	.uleb128 0x2
	.byte	0x91
	.sleb128 -24
	.uleb128 0xf
	.long	.LASF1370
	.byte	0xd
	.value	0x34f
	.byte	0x39
	.long	0x8cd8
	.uleb128 0x2
	.byte	0x91
	.sleb128 -32
	.uleb128 0x22
	.long	0x8d0f
	.uleb128 0x2
	.byte	0x91
	.sleb128 -40
	.byte	0
	.uleb128 0x2e
	.long	0x3d67
	.long	0xac45
	.quad	.LFB2990
	.quad	.LFE2990-.LFB2990
	.uleb128 0x1
	.byte	0x9c
	.long	0xac52
	.uleb128 0x15
	.long	.LASF1356
	.long	0x8d64
	.uleb128 0x2
	.byte	0x91
	.sleb128 -24
	.byte	0
	.uleb128 0x1c
	.long	0x3ed3
	.long	0xac60
	.byte	0x2
	.long	0xac73
	.uleb128 0xc
	.long	.LASF1356
	.long	0x8d64
	.uleb128 0xc
	.long	.LASF1400
	.long	0x125
	.byte	0
	.uleb128 0x24
	.long	0xac52
	.long	.LASF1409
	.long	0xac96
	.quad	.LFB2988
	.quad	.LFE2988-.LFB2988
	.uleb128 0x1
	.byte	0x9c
	.long	0xac9f
	.uleb128 0x11
	.long	0xac60
	.uleb128 0x2
	.byte	0x91
	.sleb128 -24
	.byte	0
	.uleb128 0x55
	.long	0x3d3d
	.byte	0x9
	.byte	0x85
	.byte	0xe
	.long	0xacaf
	.long	0xacc2
	.uleb128 0xc
	.long	.LASF1356
	.long	0x8d46
	.uleb128 0xc
	.long	.LASF1400
	.long	0x125
	.byte	0
	.uleb128 0x24
	.long	0xac9f
	.long	.LASF1410
	.long	0xace5
	.quad	.LFB2986
	.quad	.LFE2986-.LFB2986
	.uleb128 0x1
	.byte	0x9c
	.long	0xacee
	.uleb128 0x11
	.long	0xacaf
	.uleb128 0x2
	.byte	0x91
	.sleb128 -24
	.byte	0
	.uleb128 0x13
	.long	0x6843
	.quad	.LFB2983
	.quad	.LFE2983-.LFB2983
	.uleb128 0x1
	.byte	0x9c
	.long	0xad44
	.uleb128 0x6
	.long	.LASF159
	.long	0x8dc8
	.uleb128 0xd
	.string	"_Tp"
	.long	0x11d
	.uleb128 0xf
	.long	.LASF1369
	.byte	0xd
	.value	0x34f
	.byte	0x1f
	.long	0x8dc8
	.uleb128 0x2
	.byte	0x91
	.sleb128 -24
	.uleb128 0xf
	.long	.LASF1370
	.byte	0xd
	.value	0x34f
	.byte	0x39
	.long	0x8dc8
	.uleb128 0x2
	.byte	0x91
	.sleb128 -32
	.uleb128 0x22
	.long	0x8df0
	.uleb128 0x2
	.byte	0x91
	.sleb128 -40
	.byte	0
	.uleb128 0x2e
	.long	0x5193
	.long	0xad63
	.quad	.LFB2982
	.quad	.LFE2982-.LFB2982
	.uleb128 0x1
	.byte	0x9c
	.long	0xad70
	.uleb128 0x15
	.long	.LASF1356
	.long	0x8e45
	.uleb128 0x2
	.byte	0x91
	.sleb128 -24
	.byte	0
	.uleb128 0x23
	.long	0x598e
	.long	0xad8f
	.quad	.LFB2981
	.quad	.LFE2981-.LFB2981
	.uleb128 0x1
	.byte	0x9c
	.long	0xadac
	.uleb128 0x15
	.long	.LASF1356
	.long	0x8e68
	.uleb128 0x2
	.byte	0x91
	.sleb128 -24
	.uleb128 0xf
	.long	.LASF1411
	.byte	0x9
	.value	0x3f0
	.byte	0x18
	.long	0x5575
	.uleb128 0x2
	.byte	0x91
	.sleb128 -32
	.byte	0
	.uleb128 0xa
	.long	0x9013
	.uleb128 0x13
	.long	0x6876
	.quad	.LFB2980
	.quad	.LFE2980-.LFB2980
	.uleb128 0x1
	.byte	0x9c
	.long	0xae0f
	.uleb128 0x6
	.long	.LASF944
	.long	0x7aac
	.uleb128 0x6
	.long	.LASF945
	.long	0xb56c
	.uleb128 0xf
	.long	.LASF1369
	.byte	0xc
	.value	0xec5
	.byte	0x1d
	.long	0x7aac
	.uleb128 0x2
	.byte	0x91
	.sleb128 -24
	.uleb128 0xf
	.long	.LASF1370
	.byte	0xc
	.value	0xec5
	.byte	0x35
	.long	0x7aac
	.uleb128 0x2
	.byte	0x91
	.sleb128 -32
	.uleb128 0x18
	.string	"__f"
	.byte	0xc
	.value	0xec5
	.byte	0x47
	.long	0xb56c
	.uleb128 0x2
	.byte	0x91
	.sleb128 -40
	.byte	0
	.uleb128 0x23
	.long	0x43cc
	.long	0xae2e
	.quad	.LFB2979
	.quad	.LFE2979-.LFB2979
	.uleb128 0x1
	.byte	0x9c
	.long	0xae3b
	.uleb128 0x15
	.long	.LASF1356
	.long	0x8d82
	.uleb128 0x2
	.byte	0x91
	.sleb128 -40
	.byte	0
	.uleb128 0x23
	.long	0x437f
	.long	0xae5a
	.quad	.LFB2978
	.quad	.LFE2978-.LFB2978
	.uleb128 0x1
	.byte	0x9c
	.long	0xae67
	.uleb128 0x15
	.long	.LASF1356
	.long	0x8d82
	.uleb128 0x2
	.byte	0x91
	.sleb128 -40
	.byte	0
	.uleb128 0x1c
	.long	0x4276
	.long	0xae75
	.byte	0x2
	.long	0xae99
	.uleb128 0xc
	.long	.LASF1356
	.long	0x8d82
	.uleb128 0x30
	.string	"__l"
	.byte	0x9
	.value	0x2a1
	.byte	0x2b
	.long	0x4be4
	.uleb128 0x30
	.string	"__a"
	.byte	0x9
	.value	0x2a2
	.byte	0x1d
	.long	0x8d87
	.byte	0
	.uleb128 0x24
	.long	0xae67
	.long	.LASF1412
	.long	0xaebc
	.quad	.LFB2976
	.quad	.LFE2976-.LFB2976
	.uleb128 0x1
	.byte	0x9c
	.long	0xaed6
	.uleb128 0x11
	.long	0xae75
	.uleb128 0x2
	.byte	0x91
	.sleb128 -56
	.uleb128 0x11
	.long	0xae7e
	.uleb128 0x3
	.byte	0x91
	.sleb128 -80
	.uleb128 0x11
	.long	0xae8b
	.uleb128 0x2
	.byte	0x91
	.sleb128 -64
	.byte	0
	.uleb128 0x1c
	.long	0x3aad
	.long	0xaee4
	.byte	0x2
	.long	0xaef7
	.uleb128 0xc
	.long	.LASF1356
	.long	0x8d05
	.uleb128 0xc
	.long	.LASF1400
	.long	0x125
	.byte	0
	.uleb128 0x24
	.long	0xaed6
	.long	.LASF1413
	.long	0xaf1a
	.quad	.LFB2973
	.quad	.LFE2973-.LFB2973
	.uleb128 0x1
	.byte	0x9c
	.long	0xaf23
	.uleb128 0x11
	.long	0xaee4
	.uleb128 0x2
	.byte	0x91
	.sleb128 -24
	.byte	0
	.uleb128 0x1c
	.long	0x3a51
	.long	0xaf31
	.byte	0x2
	.long	0xaf3b
	.uleb128 0xc
	.long	.LASF1356
	.long	0x8d05
	.byte	0
	.uleb128 0x24
	.long	0xaf23
	.long	.LASF1414
	.long	0xaf5e
	.quad	.LFB2970
	.quad	.LFE2970-.LFB2970
	.uleb128 0x1
	.byte	0x9c
	.long	0xaf67
	.uleb128 0x11
	.long	0xaf31
	.uleb128 0x2
	.byte	0x91
	.sleb128 -24
	.byte	0
	.uleb128 0x1c
	.long	0x52ff
	.long	0xaf75
	.byte	0x2
	.long	0xaf88
	.uleb128 0xc
	.long	.LASF1356
	.long	0x8e45
	.uleb128 0xc
	.long	.LASF1400
	.long	0x125
	.byte	0
	.uleb128 0x24
	.long	0xaf67
	.long	.LASF1415
	.long	0xafab
	.quad	.LFB2967
	.quad	.LFE2967-.LFB2967
	.uleb128 0x1
	.byte	0x9c
	.long	0xafb4
	.uleb128 0x11
	.long	0xaf75
	.uleb128 0x2
	.byte	0x91
	.sleb128 -24
	.byte	0
	.uleb128 0x1c
	.long	0x4ed9
	.long	0xafc2
	.byte	0x2
	.long	0xafd5
	.uleb128 0xc
	.long	.LASF1356
	.long	0x8de6
	.uleb128 0xc
	.long	.LASF1400
	.long	0x125
	.byte	0
	.uleb128 0x24
	.long	0xafb4
	.long	.LASF1416
	.long	0xaff8
	.quad	.LFB2964
	.quad	.LFE2964-.LFB2964
	.uleb128 0x1
	.byte	0x9c
	.long	0xb001
	.uleb128 0x11
	.long	0xafc2
	.uleb128 0x2
	.byte	0x91
	.sleb128 -24
	.byte	0
	.uleb128 0x1c
	.long	0x50ce
	.long	0xb00f
	.byte	0x2
	.long	0xb019
	.uleb128 0xc
	.long	.LASF1356
	.long	0x8e27
	.byte	0
	.uleb128 0x24
	.long	0xb001
	.long	.LASF1417
	.long	0xb03c
	.quad	.LFB2961
	.quad	.LFE2961-.LFB2961
	.uleb128 0x1
	.byte	0x9c
	.long	0xb045
	.uleb128 0x11
	.long	0xb00f
	.uleb128 0x2
	.byte	0x91
	.sleb128 -24
	.byte	0
	.uleb128 0x23
	.long	0x3510
	.long	0xb06d
	.quad	.LFB2890
	.quad	.LFE2890-.LFB2890
	.uleb128 0x1
	.byte	0x9c
	.long	0xb1de
	.uleb128 0x6
	.long	.LASF487
	.long	0x2f2
	.uleb128 0x15
	.long	.LASF1356
	.long	0x8a80
	.uleb128 0x2
	.byte	0x91
	.sleb128 -56
	.uleb128 0x17
	.long	.LASF1418
	.byte	0xa
	.byte	0xda
	.byte	0x20
	.long	0x2f2
	.uleb128 0x2
	.byte	0x91
	.sleb128 -64
	.uleb128 0x17
	.long	.LASF1419
	.byte	0xa
	.byte	0xda
	.byte	0x33
	.long	0x2f2
	.uleb128 0x3
	.byte	0x91
	.sleb128 -72
	.uleb128 0x22
	.long	0xda2
	.uleb128 0x2
	.byte	0x91
	.sleb128 0
	.uleb128 0x2b
	.long	.LASF1420
	.byte	0xa
	.byte	0xdd
	.byte	0xc
	.long	0x1b48
	.uleb128 0x2
	.byte	0x91
	.sleb128 -32
	.uleb128 0x19
	.long	.LASF1421
	.byte	0x8
	.byte	0xa
	.byte	0xe8
	.byte	0x9
	.long	0xb1ac
	.uleb128 0x56
	.long	.LASF1421
	.long	.LASF1444
	.long	0xb0cd
	.long	0xb0e7
	.uleb128 0x2
	.long	0xb0d2
	.uleb128 0x9
	.long	0xb0af
	.uleb128 0x1
	.long	0xb0dc
	.uleb128 0xa
	.long	0xb0e1
	.uleb128 0x7
	.long	0xb0af
	.byte	0
	.uleb128 0xb2
	.long	.LASF1421
	.byte	0xa
	.byte	0xeb
	.byte	0xd
	.long	.LASF1422
	.long	0xb0fd
	.byte	0x2
	.long	0xb113
	.uleb128 0xc
	.long	.LASF1356
	.long	0xb132
	.uleb128 0x49
	.string	"__s"
	.byte	0xa
	.byte	0xeb
	.byte	0x22
	.long	0x8a7b
	.byte	0
	.uleb128 0xb3
	.long	.LASF1423
	.byte	0xa
	.byte	0xee
	.byte	0x4
	.long	.LASF1424
	.long	0xb129
	.byte	0x2
	.long	0xb141
	.uleb128 0xc
	.long	.LASF1356
	.long	0xb132
	.uleb128 0x7
	.long	0xb0d2
	.uleb128 0xc
	.long	.LASF1400
	.long	0x125
	.byte	0
	.uleb128 0x8
	.long	.LASF1425
	.byte	0xa
	.byte	0xf0
	.byte	0x12
	.long	0x8a7b
	.byte	0
	.uleb128 0x3a
	.long	0xb0e7
	.long	.LASF1426
	.long	0xb171
	.quad	.LFB2892
	.quad	.LFE2892-.LFB2892
	.uleb128 0x1
	.byte	0x9c
	.long	0xb182
	.uleb128 0x11
	.long	0xb0fd
	.uleb128 0x2
	.byte	0x91
	.sleb128 -24
	.uleb128 0x11
	.long	0xb106
	.uleb128 0x2
	.byte	0x91
	.sleb128 -32
	.byte	0
	.uleb128 0xb4
	.long	0xb113
	.long	.LASF1507
	.long	0xb1a2
	.quad	.LFB2895
	.quad	.LFE2895-.LFB2895
	.uleb128 0x1
	.byte	0x9c
	.uleb128 0x11
	.long	0xb129
	.uleb128 0x2
	.byte	0x91
	.sleb128 -24
	.byte	0
	.byte	0
	.uleb128 0x2b
	.long	.LASF1427
	.byte	0xa
	.byte	0xf1
	.byte	0x4
	.long	0xb0af
	.uleb128 0x2
	.byte	0x91
	.sleb128 -40
	.uleb128 0xb5
	.long	0xaa9a
	.quad	.LBB25
	.quad	.LBE25-.LBB25
	.byte	0xa
	.byte	0xe5
	.byte	0x15
	.uleb128 0x11
	.long	0xaaa8
	.uleb128 0x2
	.byte	0x91
	.sleb128 -24
	.byte	0
	.byte	0
	.uleb128 0x39
	.long	0x1cbe
	.long	0xb1eb
	.long	0xb202
	.uleb128 0xc
	.long	.LASF1356
	.long	0x8a80
	.uleb128 0x30
	.string	"__n"
	.byte	0x5
	.value	0x109
	.byte	0x1f
	.long	0x1b48
	.byte	0
	.uleb128 0x39
	.long	0x1c9f
	.long	0xb20f
	.long	0xb226
	.uleb128 0xc
	.long	.LASF1356
	.long	0x8a80
	.uleb128 0x41
	.long	.LASF1428
	.byte	0x5
	.value	0x104
	.byte	0x1d
	.long	0x1b48
	.byte	0
	.uleb128 0x39
	.long	0x1bfa
	.long	0xb233
	.long	0xb249
	.uleb128 0xc
	.long	.LASF1356
	.long	0x8a80
	.uleb128 0x49
	.string	"__p"
	.byte	0x5
	.byte	0xdf
	.byte	0x17
	.long	0x1b02
	.byte	0
	.uleb128 0x39
	.long	0x1d23
	.long	0xb256
	.long	0xb260
	.uleb128 0xc
	.long	.LASF1356
	.long	0x8a80
	.byte	0
	.uleb128 0x1c
	.long	0x1a94
	.long	0xb26e
	.byte	0x2
	.long	0xb290
	.uleb128 0xc
	.long	.LASF1356
	.long	0x8a61
	.uleb128 0x77
	.long	.LASF1429
	.byte	0x5
	.byte	0xc7
	.byte	0x17
	.long	0x1b02
	.uleb128 0x49
	.string	"__a"
	.byte	0x5
	.byte	0xc7
	.byte	0x2c
	.long	0x832a
	.byte	0
	.uleb128 0x34
	.long	0xb260
	.long	.LASF1430
	.long	0xb2a1
	.long	0xb2b1
	.uleb128 0x3d
	.long	0xb26e
	.uleb128 0x3d
	.long	0xb277
	.uleb128 0x3d
	.long	0xb283
	.byte	0
	.uleb128 0x39
	.long	0x1c56
	.long	0xb2be
	.long	0xb2c8
	.uleb128 0xc
	.long	.LASF1356
	.long	0x8a80
	.byte	0
	.uleb128 0x1c
	.long	0xbca
	.long	0xb2d6
	.byte	0x2
	.long	0xb2e9
	.uleb128 0xc
	.long	.LASF1356
	.long	0x8307
	.uleb128 0xc
	.long	.LASF1400
	.long	0x125
	.byte	0
	.uleb128 0x34
	.long	0xb2c8
	.long	.LASF1431
	.long	0xb2fa
	.long	0xb300
	.uleb128 0x3d
	.long	0xb2d6
	.byte	0
	.uleb128 0x1c
	.long	0xb91
	.long	0xb30e
	.byte	0x2
	.long	0xb318
	.uleb128 0xc
	.long	.LASF1356
	.long	0x8307
	.byte	0
	.uleb128 0x34
	.long	0xb300
	.long	.LASF1432
	.long	0xb329
	.long	0xb32f
	.uleb128 0x3d
	.long	0xb30e
	.byte	0
	.uleb128 0x39
	.long	0x1c38
	.long	0xb33c
	.long	0xb346
	.uleb128 0xc
	.long	.LASF1356
	.long	0x8a8a
	.byte	0
	.uleb128 0x26
	.long	0x720d
	.quad	.LFB2855
	.quad	.LFE2855-.LFB2855
	.uleb128 0x1
	.byte	0x9c
	.long	0xb380
	.uleb128 0x17
	.long	.LASF1433
	.byte	0x3
	.byte	0x79
	.byte	0x1b
	.long	0x7f13
	.uleb128 0x2
	.byte	0x91
	.sleb128 -24
	.uleb128 0x17
	.long	.LASF1434
	.byte	0x3
	.byte	0x79
	.byte	0x32
	.long	0x7f13
	.uleb128 0x2
	.byte	0x91
	.sleb128 -32
	.byte	0
	.uleb128 0x7b
	.long	0x68ad
	.long	0xb3ad
	.uleb128 0x6
	.long	.LASF491
	.long	0x887
	.uleb128 0x41
	.long	.LASF1435
	.byte	0x31
	.value	0x20b
	.byte	0x2e
	.long	0x8b59
	.uleb128 0x30
	.string	"__c"
	.byte	0x31
	.value	0x20b
	.byte	0x3a
	.long	0x111
	.byte	0
	.uleb128 0x23
	.long	0x8f75
	.long	0xb3e8
	.quad	.LFB2853
	.quad	.LFE2853-.LFB2853
	.uleb128 0x1
	.byte	0x9c
	.long	0xb472
	.uleb128 0x76
	.string	"T"
	.long	0xb3e8
	.uleb128 0x3c
	.long	0x11d
	.uleb128 0x3c
	.long	0x11d
	.uleb128 0x3c
	.long	0x11d
	.uleb128 0x3c
	.long	0x11d
	.byte	0
	.uleb128 0x15
	.long	.LASF1356
	.long	0x9041
	.uleb128 0x3
	.byte	0x91
	.sleb128 -248
	.uleb128 0xb6
	.byte	0x6
	.byte	0x56
	.byte	0x24
	.long	0xb423
	.uleb128 0x22
	.long	0x11d
	.uleb128 0x3
	.byte	0x91
	.sleb128 -252
	.uleb128 0x22
	.long	0x11d
	.uleb128 0x3
	.byte	0x91
	.sleb128 -256
	.uleb128 0x22
	.long	0x11d
	.uleb128 0x3
	.byte	0x91
	.sleb128 -260
	.uleb128 0x22
	.long	0x11d
	.uleb128 0x3
	.byte	0x91
	.sleb128 -264
	.byte	0
	.uleb128 0x2b
	.long	.LASF1436
	.byte	0x6
	.byte	0x59
	.byte	0x32
	.long	0x3fa3
	.uleb128 0x3
	.byte	0x91
	.sleb128 -240
	.uleb128 0x2b
	.long	.LASF1437
	.byte	0x6
	.byte	0x5a
	.byte	0x25
	.long	0x9013
	.uleb128 0x3
	.byte	0x91
	.sleb128 -80
	.uleb128 0x2b
	.long	.LASF1438
	.byte	0x6
	.byte	0x5f
	.byte	0x25
	.long	0x9013
	.uleb128 0x2
	.byte	0x91
	.sleb128 -56
	.uleb128 0x2b
	.long	.LASF1439
	.byte	0x6
	.byte	0x60
	.byte	0x25
	.long	0x9013
	.uleb128 0x2
	.byte	0x91
	.sleb128 -64
	.uleb128 0x2b
	.long	.LASF1440
	.byte	0x6
	.byte	0x61
	.byte	0x25
	.long	0x9013
	.uleb128 0x3
	.byte	0x91
	.sleb128 -72
	.byte	0
	.uleb128 0x2e
	.long	0x5a5d
	.long	0xb491
	.quad	.LFB2852
	.quad	.LFE2852-.LFB2852
	.uleb128 0x1
	.byte	0x9c
	.long	0xb4ae
	.uleb128 0x15
	.long	.LASF1356
	.long	0x8e68
	.uleb128 0x2
	.byte	0x91
	.sleb128 -24
	.uleb128 0x18
	.string	"__n"
	.byte	0x9
	.value	0x461
	.byte	0x1c
	.long	0x5575
	.uleb128 0x2
	.byte	0x91
	.sleb128 -32
	.byte	0
	.uleb128 0x1c
	.long	0x429c
	.long	0xb4bc
	.byte	0x2
	.long	0xb4cf
	.uleb128 0xc
	.long	.LASF1356
	.long	0x8d82
	.uleb128 0xc
	.long	.LASF1400
	.long	0x125
	.byte	0
	.uleb128 0x24
	.long	0xb4ae
	.long	.LASF1441
	.long	0xb4f2
	.quad	.LFB2850
	.quad	.LFE2850-.LFB2850
	.uleb128 0x1
	.byte	0x9c
	.long	0xb4fb
	.uleb128 0x11
	.long	0xb4bc
	.uleb128 0x2
	.byte	0x91
	.sleb128 -24
	.byte	0
	.uleb128 0x1c
	.long	0x56c8
	.long	0xb509
	.byte	0x2
	.long	0xb51c
	.uleb128 0xc
	.long	.LASF1356
	.long	0x8e68
	.uleb128 0xc
	.long	.LASF1400
	.long	0x125
	.byte	0
	.uleb128 0x24
	.long	0xb4fb
	.long	.LASF1442
	.long	0xb53f
	.quad	.LFB2847
	.quad	.LFE2847-.LFB2847
	.uleb128 0x1
	.byte	0x9c
	.long	0xb548
	.uleb128 0x11
	.long	0xb509
	.uleb128 0x2
	.byte	0x91
	.sleb128 -24
	.byte	0
	.uleb128 0x1c
	.long	0x8ec0
	.long	0xb556
	.byte	0x2
	.long	0xb656
	.uleb128 0xc
	.long	.LASF1356
	.long	0x9041
	.uleb128 0x54
	.uleb128 0x63
	.long	.LASF1439
	.byte	0x6
	.byte	0x3b
	.byte	0x25
	.long	0x9013
	.uleb128 0xb7
	.byte	0x8
	.byte	0x6
	.byte	0x3c
	.byte	0x3b
	.uleb128 0x56
	.long	.LASF1443
	.long	.LASF1445
	.long	0xb583
	.long	0xb598
	.uleb128 0x2
	.long	0xb588
	.uleb128 0x9
	.long	0xb56c
	.uleb128 0x1
	.long	0xb592
	.uleb128 0x28
	.long	0xb56c
	.byte	0
	.uleb128 0x56
	.long	.LASF1443
	.long	.LASF1446
	.long	0xb5a9
	.long	0xb5be
	.uleb128 0x2
	.long	0xb588
	.uleb128 0x1
	.long	0xb5b3
	.uleb128 0xa
	.long	0xb5b8
	.uleb128 0x7
	.long	0xb56c
	.byte	0
	.uleb128 0xb8
	.long	.LASF1443
	.long	.LASF1448
	.long	0xb5d0
	.long	0xb5d6
	.uleb128 0x2
	.long	0xb588
	.byte	0
	.uleb128 0x56
	.long	.LASF1449
	.long	.LASF1450
	.long	0xb5e7
	.long	0xb5f2
	.uleb128 0x2
	.long	0xb588
	.uleb128 0x2
	.long	0x11d
	.byte	0
	.uleb128 0x8
	.long	.LASF1451
	.byte	0x6
	.byte	0x3d
	.byte	0x21
	.long	0xadac
	.byte	0
	.uleb128 0xb9
	.long	.LASF58
	.long	.LASF1508
	.long	0xb629
	.quad	.LFB2843
	.quad	.LFE2843-.LFB2843
	.uleb128 0x1
	.byte	0x9c
	.uleb128 0x9
	.long	0xb5b8
	.uleb128 0x7
	.long	0xb61f
	.uleb128 0x15
	.long	.LASF1452
	.long	0xb624
	.uleb128 0x2
	.byte	0x91
	.sleb128 -24
	.uleb128 0x17
	.long	.LASF183
	.byte	0x6
	.byte	0x3c
	.byte	0x43
	.long	0x11d
	.uleb128 0x2
	.byte	0x91
	.sleb128 -28
	.uleb128 0xba
	.long	.LASF1439
	.long	0xadac
	.uleb128 0x3
	.byte	0x91
	.sleb128 -24
	.byte	0x6
	.byte	0
	.byte	0
	.byte	0
	.byte	0
	.uleb128 0x24
	.long	0xb548
	.long	.LASF1453
	.long	0xb679
	.quad	.LFB2844
	.quad	.LFE2844-.LFB2844
	.uleb128 0x1
	.byte	0x9c
	.long	0xb6b1
	.uleb128 0x11
	.long	0xb556
	.uleb128 0x3
	.byte	0x91
	.sleb128 -72
	.uleb128 0x7d
	.long	0xb55f
	.long	0xb691
	.uleb128 0x7e
	.long	0xb560
	.byte	0
	.uleb128 0x7f
	.long	0xb55f
	.quad	.LBB19
	.quad	.LBE19-.LBB19
	.uleb128 0x80
	.long	0xb560
	.uleb128 0x2
	.byte	0x91
	.sleb128 -64
	.byte	0
	.byte	0
	.uleb128 0x1c
	.long	0x5506
	.long	0xb6bf
	.byte	0x2
	.long	0xb6c9
	.uleb128 0xc
	.long	.LASF1356
	.long	0x8e68
	.byte	0
	.uleb128 0x24
	.long	0xb6b1
	.long	.LASF1454
	.long	0xb6ec
	.quad	.LFB2841
	.quad	.LFE2841-.LFB2841
	.uleb128 0x1
	.byte	0x9c
	.long	0xb6f5
	.uleb128 0x11
	.long	0xb6bf
	.uleb128 0x2
	.byte	0x91
	.sleb128 -24
	.byte	0
	.uleb128 0x1c
	.long	0x51ff
	.long	0xb703
	.byte	0x2
	.long	0xb70d
	.uleb128 0xc
	.long	.LASF1356
	.long	0x8e45
	.byte	0
	.uleb128 0x24
	.long	0xb6f5
	.long	.LASF1455
	.long	0xb730
	.quad	.LFB2839
	.quad	.LFE2839-.LFB2839
	.uleb128 0x1
	.byte	0x9c
	.long	0xb739
	.uleb128 0x11
	.long	0xb703
	.uleb128 0x2
	.byte	0x91
	.sleb128 -24
	.byte	0
	.uleb128 0x55
	.long	0x5169
	.byte	0x9
	.byte	0x85
	.byte	0xe
	.long	0xb749
	.long	0xb75c
	.uleb128 0xc
	.long	.LASF1356
	.long	0x8e27
	.uleb128 0xc
	.long	.LASF1400
	.long	0x125
	.byte	0
	.uleb128 0x24
	.long	0xb739
	.long	.LASF1456
	.long	0xb77f
	.quad	.LFB2837
	.quad	.LFE2837-.LFB2837
	.uleb128 0x1
	.byte	0x9c
	.long	0xb788
	.uleb128 0x11
	.long	0xb749
	.uleb128 0x2
	.byte	0x91
	.sleb128 -24
	.byte	0
	.uleb128 0x39
	.long	0x26ff
	.long	0xb795
	.long	0xb7ac
	.uleb128 0xc
	.long	.LASF1356
	.long	0x8a80
	.uleb128 0x30
	.string	"__s"
	.byte	0x5
	.value	0x53b
	.byte	0x20
	.long	0x2f2
	.byte	0
	.uleb128 0x39
	.long	0x26da
	.long	0xb7b9
	.long	0xb7d0
	.uleb128 0xc
	.long	.LASF1356
	.long	0x8a80
	.uleb128 0x41
	.long	.LASF1457
	.byte	0x5
	.value	0x531
	.byte	0x26
	.long	0x8a9e
	.byte	0
	.uleb128 0x39
	.long	0x2724
	.long	0xb7dd
	.long	0xb7f4
	.uleb128 0xc
	.long	.LASF1356
	.long	0x8a80
	.uleb128 0x30
	.string	"__c"
	.byte	0x5
	.value	0x545
	.byte	0x19
	.long	0x111
	.byte	0
	.uleb128 0x1c
	.long	0x3542
	.long	0xb802
	.byte	0x2
	.long	0xb836
	.uleb128 0xc
	.long	.LASF1356
	.long	0x8a80
	.uleb128 0x30
	.string	"__s"
	.byte	0x5
	.value	0x27a
	.byte	0x22
	.long	0x2f2
	.uleb128 0x30
	.string	"__a"
	.byte	0x5
	.value	0x27a
	.byte	0x35
	.long	0x832a
	.uleb128 0x54
	.uleb128 0xbb
	.long	.LASF1419
	.byte	0x5
	.value	0x281
	.byte	0x10
	.long	0x2f2
	.byte	0
	.byte	0
	.uleb128 0x24
	.long	0xb7f4
	.long	.LASF1458
	.long	0xb859
	.quad	.LFB2827
	.quad	.LFE2827-.LFB2827
	.uleb128 0x1
	.byte	0x9c
	.long	0xb8a1
	.uleb128 0x11
	.long	0xb802
	.uleb128 0x2
	.byte	0x91
	.sleb128 -56
	.uleb128 0x11
	.long	0xb80b
	.uleb128 0x2
	.byte	0x91
	.sleb128 -64
	.uleb128 0x11
	.long	0xb818
	.uleb128 0x3
	.byte	0x91
	.sleb128 -72
	.uleb128 0x7d
	.long	0xb825
	.long	0xb881
	.uleb128 0x7e
	.long	0xb826
	.byte	0
	.uleb128 0x7f
	.long	0xb825
	.quad	.LBB13
	.quad	.LBE13-.LBB13
	.uleb128 0x80
	.long	0xb826
	.uleb128 0x2
	.byte	0x91
	.sleb128 -40
	.byte	0
	.byte	0
	.uleb128 0x26
	.long	0x68e3
	.quad	.LFB2680
	.quad	.LFE2680-.LFB2680
	.uleb128 0x1
	.byte	0x9c
	.long	0xb964
	.uleb128 0xd
	.string	"_Tp"
	.long	0x9c
	.uleb128 0x17
	.long	.LASF1369
	.byte	0x8
	.byte	0x48
	.byte	0x1e
	.long	0x6c96
	.uleb128 0x2
	.byte	0x91
	.sleb128 -40
	.uleb128 0x17
	.long	.LASF1390
	.byte	0x8
	.byte	0x48
	.byte	0x30
	.long	0x9c
	.uleb128 0x2
	.byte	0x91
	.sleb128 -44
	.uleb128 0x17
	.long	.LASF1381
	.byte	0x8
	.byte	0x48
	.byte	0x3b
	.long	0x9c
	.uleb128 0x2
	.byte	0x91
	.sleb128 -48
	.uleb128 0xbc
	.long	.LASF1509
	.byte	0x8
	.byte	0x4d
	.byte	0x1d
	.long	.LASF1510
	.long	0xb974
	.uleb128 0x9
	.byte	0x3
	.quad	_ZZNSt8__detail18__to_chars_10_implIjEEvPcjT_E8__digits
	.uleb128 0x2b
	.long	.LASF1272
	.byte	0x8
	.byte	0x53
	.byte	0x10
	.long	0x9c
	.uleb128 0x2
	.byte	0x91
	.sleb128 -20
	.uleb128 0xbd
	.quad	.LBB8
	.quad	.LBE8-.LBB8
	.long	0xb942
	.uleb128 0x2b
	.long	.LASF1459
	.byte	0x8
	.byte	0x56
	.byte	0xf
	.long	0xa3
	.uleb128 0x2
	.byte	0x91
	.sleb128 -28
	.byte	0
	.uleb128 0x64
	.quad	.LBB10
	.quad	.LBE10-.LBB10
	.uleb128 0x2b
	.long	.LASF1459
	.byte	0x8
	.byte	0x5e
	.byte	0xf
	.long	0xa3
	.uleb128 0x2
	.byte	0x91
	.sleb128 -24
	.byte	0
	.byte	0
	.uleb128 0x42
	.long	0x118
	.long	0xb974
	.uleb128 0x43
	.long	0x5a
	.byte	0xc8
	.byte	0
	.uleb128 0x7
	.long	0xb964
	.uleb128 0x39
	.long	0x25f1
	.long	0xb986
	.long	0xb99d
	.uleb128 0xc
	.long	.LASF1356
	.long	0x8a80
	.uleb128 0x41
	.long	.LASF1272
	.byte	0x5
	.value	0x4c1
	.byte	0x1c
	.long	0x1b48
	.byte	0
	.uleb128 0x1c
	.long	0x21c6
	.long	0xb9ab
	.byte	0x2
	.long	0xb9be
	.uleb128 0xc
	.long	.LASF1356
	.long	0x8a80
	.uleb128 0xc
	.long	.LASF1400
	.long	0x125
	.byte	0
	.uleb128 0x34
	.long	0xb99d
	.long	.LASF1460
	.long	0xb9cf
	.long	0xb9d5
	.uleb128 0x3d
	.long	0xb9ab
	.byte	0
	.uleb128 0x1c
	.long	0x3568
	.long	0xb9e3
	.byte	0x2
	.long	0xba14
	.uleb128 0xc
	.long	.LASF1356
	.long	0x8a80
	.uleb128 0x30
	.string	"__n"
	.byte	0x5
	.value	0x291
	.byte	0x1e
	.long	0x1b48
	.uleb128 0x30
	.string	"__c"
	.byte	0x5
	.value	0x291
	.byte	0x2a
	.long	0x111
	.uleb128 0x30
	.string	"__a"
	.byte	0x5
	.value	0x291
	.byte	0x3d
	.long	0x832a
	.byte	0
	.uleb128 0x24
	.long	0xb9d5
	.long	.LASF1461
	.long	0xba37
	.quad	.LFB2674
	.quad	.LFE2674-.LFB2674
	.uleb128 0x1
	.byte	0x9c
	.long	0xba58
	.uleb128 0x11
	.long	0xb9e3
	.uleb128 0x2
	.byte	0x91
	.sleb128 -40
	.uleb128 0x11
	.long	0xb9ec
	.uleb128 0x2
	.byte	0x91
	.sleb128 -48
	.uleb128 0x11
	.long	0xb9f9
	.uleb128 0x2
	.byte	0x91
	.sleb128 -52
	.uleb128 0x11
	.long	0xba06
	.uleb128 0x2
	.byte	0x91
	.sleb128 -64
	.byte	0
	.uleb128 0x55
	.long	0x1ae9
	.byte	0x5
	.byte	0xc0
	.byte	0xe
	.long	0xba68
	.long	0xba7b
	.uleb128 0xc
	.long	.LASF1356
	.long	0x8a61
	.uleb128 0xc
	.long	.LASF1400
	.long	0x125
	.byte	0
	.uleb128 0x24
	.long	0xba58
	.long	.LASF1462
	.long	0xba9e
	.quad	.LFB2672
	.quad	.LFE2672-.LFB2672
	.uleb128 0x1
	.byte	0x9c
	.long	0xbaa7
	.uleb128 0x11
	.long	0xba68
	.uleb128 0x2
	.byte	0x91
	.sleb128 -24
	.byte	0
	.uleb128 0x1c
	.long	0xd7a
	.long	0xbab5
	.byte	0x2
	.long	0xbac8
	.uleb128 0xc
	.long	.LASF1356
	.long	0x8325
	.uleb128 0xc
	.long	.LASF1400
	.long	0x125
	.byte	0
	.uleb128 0x34
	.long	0xbaa7
	.long	.LASF1463
	.long	0xbad9
	.long	0xbadf
	.uleb128 0x3d
	.long	0xbab5
	.byte	0
	.uleb128 0x1c
	.long	0xd1e
	.long	0xbaed
	.byte	0x2
	.long	0xbaf7
	.uleb128 0xc
	.long	.LASF1356
	.long	0x8325
	.byte	0
	.uleb128 0x34
	.long	0xbadf
	.long	.LASF1464
	.long	0xbb08
	.long	0xbb0e
	.uleb128 0x3d
	.long	0xbaed
	.byte	0
	.uleb128 0x26
	.long	0x690c
	.quad	.LFB2663
	.quad	.LFE2663-.LFB2663
	.uleb128 0x1
	.byte	0x9c
	.long	0xbb8d
	.uleb128 0xd
	.string	"_Tp"
	.long	0x9c
	.uleb128 0x17
	.long	.LASF18
	.byte	0x8
	.byte	0x2f
	.byte	0x18
	.long	0x9c
	.uleb128 0x2
	.byte	0x91
	.sleb128 -52
	.uleb128 0x17
	.long	.LASF1465
	.byte	0x8
	.byte	0x2f
	.byte	0x25
	.long	0x11d
	.uleb128 0x2
	.byte	0x91
	.sleb128 -56
	.uleb128 0x65
	.string	"__n"
	.byte	0x8
	.byte	0x34
	.byte	0x10
	.long	0x9c
	.uleb128 0x2
	.byte	0x91
	.sleb128 -20
	.uleb128 0x2b
	.long	.LASF1466
	.byte	0x8
	.byte	0x35
	.byte	0x16
	.long	0xa3
	.uleb128 0x2
	.byte	0x91
	.sleb128 -24
	.uleb128 0x2b
	.long	.LASF1467
	.byte	0x8
	.byte	0x36
	.byte	0x16
	.long	0xa3
	.uleb128 0x2
	.byte	0x91
	.sleb128 -28
	.uleb128 0x2b
	.long	.LASF1468
	.byte	0x8
	.byte	0x37
	.byte	0x1b
	.long	0x61
	.uleb128 0x2
	.byte	0x91
	.sleb128 -40
	.byte	0
	.uleb128 0x13
	.long	0x726d
	.quad	.LFB2563
	.quad	.LFE2563-.LFB2563
	.uleb128 0x1
	.byte	0x9c
	.long	0xbbc7
	.uleb128 0x2f
	.string	"__p"
	.byte	0x3
	.byte	0xb7
	.byte	0x1d
	.long	0x7f18
	.uleb128 0x2
	.byte	0x91
	.sleb128 -40
	.uleb128 0x65
	.string	"__i"
	.byte	0x3
	.byte	0xb9
	.byte	0x13
	.long	0x56b
	.uleb128 0x2
	.byte	0x91
	.sleb128 -24
	.byte	0
	.uleb128 0xbe
	.long	.LASF1469
	.byte	0x7
	.byte	0x9
	.byte	0x5
	.long	0x11d
	.quad	.LFB2559
	.quad	.LFE2559-.LFB2559
	.uleb128 0x1
	.byte	0x9c
	.long	0xbc19
	.uleb128 0x17
	.long	.LASF1470
	.byte	0x7
	.byte	0x9
	.byte	0xe
	.long	0x11d
	.uleb128 0x3
	.byte	0x91
	.sleb128 -84
	.uleb128 0x17
	.long	.LASF1471
	.byte	0x7
	.byte	0x9
	.byte	0x1b
	.long	0x85f7
	.uleb128 0x3
	.byte	0x91
	.sleb128 -96
	.uleb128 0x65
	.string	"t"
	.byte	0x7
	.byte	0xc
	.byte	0x1d
	.long	0xbc19
	.uleb128 0x3
	.byte	0x91
	.sleb128 -80
	.byte	0
	.uleb128 0x5
	.long	.LASF1472
	.byte	0x7
	.byte	0x7
	.byte	0x7
	.long	0x8eb3
	.uleb128 0x55
	.long	0x8fc4
	.byte	0x6
	.byte	0x36
	.byte	0xf
	.long	0xbc35
	.long	0xbc48
	.uleb128 0xc
	.long	.LASF1356
	.long	0x9041
	.uleb128 0xc
	.long	.LASF1400
	.long	0x125
	.byte	0
	.uleb128 0x24
	.long	0xbc25
	.long	.LASF1473
	.long	0xbc6b
	.quad	.LFB2561
	.quad	.LFE2561-.LFB2561
	.uleb128 0x1
	.byte	0x9c
	.long	0xbc74
	.uleb128 0x11
	.long	0xbc35
	.uleb128 0x2
	.byte	0x91
	.sleb128 -24
	.byte	0
	.uleb128 0x13
	.long	0x901f
	.quad	.LFB2550
	.quad	.LFE2550-.LFB2550
	.uleb128 0x1
	.byte	0x9c
	.long	0xbcae
	.uleb128 0x17
	.long	.LASF1474
	.byte	0x6
	.byte	0x2c
	.byte	0x3d
	.long	0x9013
	.uleb128 0x2
	.byte	0x91
	.sleb128 -40
	.uleb128 0x17
	.long	.LASF1475
	.byte	0x6
	.byte	0x2d
	.byte	0x3d
	.long	0x9013
	.uleb128 0x2
	.byte	0x91
	.sleb128 -48
	.byte	0
	.uleb128 0x44
	.long	.LASF1476
	.byte	0x6
	.byte	0xc
	.byte	0xb
	.long	0xbcd1
	.uleb128 0x5d
	.long	.LASF1477
	.byte	0x6
	.byte	0xe
	.byte	0x11
	.long	.LASF1478
	.long	0x36cb
	.uleb128 0x1
	.long	0xbcd1
	.byte	0
	.byte	0
	.uleb128 0x28
	.long	0x36cb
	.uleb128 0x13
	.long	0xbcba
	.quad	.LFB2549
	.quad	.LFE2549-.LFB2549
	.uleb128 0x1
	.byte	0x9c
	.long	0xbd13
	.uleb128 0x17
	.long	.LASF1479
	.byte	0x6
	.byte	0xe
	.byte	0x31
	.long	0xbcd1
	.uleb128 0x3
	.byte	0x91
	.sleb128 -96
	.uleb128 0x2b
	.long	.LASF1480
	.byte	0x6
	.byte	0x10
	.byte	0x15
	.long	0x36cb
	.uleb128 0x4
	.byte	0x91
	.sleb128 -88
	.byte	0x6
	.byte	0
	.uleb128 0x13
	.long	0x35b4
	.quad	.LFB1163
	.quad	.LFE1163-.LFB1163
	.uleb128 0x1
	.byte	0x9c
	.long	0xbd80
	.uleb128 0xf
	.long	.LASF1381
	.byte	0x5
	.value	0xfac
	.byte	0x11
	.long	0x11d
	.uleb128 0x2
	.byte	0x91
	.sleb128 -44
	.uleb128 0x29
	.long	.LASF1481
	.byte	0x5
	.value	0xfb1
	.byte	0x10
	.long	0x7ea5
	.uleb128 0x2
	.byte	0x91
	.sleb128 -17
	.uleb128 0x29
	.long	.LASF1482
	.byte	0x5
	.value	0xfb2
	.byte	0x14
	.long	0xa3
	.uleb128 0x2
	.byte	0x91
	.sleb128 -24
	.uleb128 0x29
	.long	.LASF1390
	.byte	0x5
	.value	0xfb3
	.byte	0x10
	.long	0xa3
	.uleb128 0x2
	.byte	0x91
	.sleb128 -28
	.uleb128 0x29
	.long	.LASF1457
	.byte	0x5
	.value	0xfb4
	.byte	0xc
	.long	0x36cb
	.uleb128 0x3
	.byte	0x91
	.sleb128 -40
	.byte	0x6
	.byte	0
	.uleb128 0x26
	.long	0x6931
	.quad	.LFB652
	.quad	.LFE652-.LFB652
	.uleb128 0x1
	.byte	0x9c
	.long	0xbdac
	.uleb128 0x18
	.string	"__n"
	.byte	0x4
	.value	0x3f1
	.byte	0x23
	.long	0x5a
	.uleb128 0x2
	.byte	0x91
	.sleb128 -24
	.byte	0
	.uleb128 0x13
	.long	0x920
	.quad	.LFB119
	.quad	.LFE119-.LFB119
	.uleb128 0x1
	.byte	0x9c
	.long	0xbdd8
	.uleb128 0x18
	.string	"__s"
	.byte	0x3
	.value	0x185
	.byte	0x1f
	.long	0x7eff
	.uleb128 0x2
	.byte	0x91
	.sleb128 -24
	.byte	0
	.uleb128 0xbf
	.long	.LASF1361
	.byte	0x2
	.byte	0xae
	.byte	0x21
	.long	.LASF1483
	.long	0xa8
	.quad	.LFB40
	.quad	.LFE40-.LFB40
	.uleb128 0x1
	.byte	0x9c
	.long	0xbe17
	.uleb128 0x22
	.long	0x56b
	.uleb128 0x2
	.byte	0x91
	.sleb128 -24
	.uleb128 0x2f
	.string	"__p"
	.byte	0x2
	.byte	0xae
	.byte	0x41
	.long	0xa8
	.uleb128 0x2
	.byte	0x91
	.sleb128 -32
	.byte	0
	.uleb128 0xc0
	.long	0x694c
	.quad	.LFB1
	.quad	.LFE1-.LFB1
	.uleb128 0x1
	.byte	0x9c
	.uleb128 0x25
	.byte	0x10
	.byte	0x5
	.long	.LASF1484
	.uleb128 0x25
	.byte	0x10
	.byte	0x7
	.long	.LASF1485
	.byte	0
	.section	.debug_abbrev,"",@progbits
.Ldebug_abbrev0:
	.uleb128 0x1
	.uleb128 0x5
	.byte	0
	.uleb128 0x49
	.uleb128 0x13
	.byte	0
	.byte	0
	.uleb128 0x2
	.uleb128 0x5
	.byte	0
	.uleb128 0x49
	.uleb128 0x13
	.uleb128 0x34
	.uleb128 0x19
	.byte	0
	.byte	0
	.uleb128 0x3
	.uleb128 0x2e
	.byte	0x1
	.uleb128 0x3f
	.uleb128 0x19
	.uleb128 0x3
	.uleb128 0xe
	.uleb128 0x3a
	.uleb128 0xb
	.uleb128 0x3b
	.uleb128 0x5
	.uleb128 0x39
	.uleb128 0xb
	.uleb128 0x6e
	.uleb128 0xe
	.uleb128 0x49
	.uleb128 0x13
	.uleb128 0x32
	.uleb128 0xb
	.uleb128 0x3c
	.uleb128 0x19
	.uleb128 0x64
	.uleb128 0x13
	.uleb128 0x1
	.uleb128 0x13
	.byte	0
	.byte	0
	.uleb128 0x4
	.uleb128 0x8
	.byte	0
	.uleb128 0x3a
	.uleb128 0xb
	.uleb128 0x3b
	.uleb128 0xb
	.uleb128 0x39
	.uleb128 0xb
	.uleb128 0x18
	.uleb128 0x13
	.byte	0
	.byte	0
	.uleb128 0x5
	.uleb128 0x16
	.byte	0
	.uleb128 0x3
	.uleb128 0xe
	.uleb128 0x3a
	.uleb128 0xb
	.uleb128 0x3b
	.uleb128 0xb
	.uleb128 0x39
	.uleb128 0xb
	.uleb128 0x49
	.uleb128 0x13
	.byte	0
	.byte	0
	.uleb128 0x6
	.uleb128 0x2f
	.byte	0
	.uleb128 0x3
	.uleb128 0xe
	.uleb128 0x49
	.uleb128 0x13
	.byte	0
	.byte	0
	.uleb128 0x7
	.uleb128 0x26
	.byte	0
	.uleb128 0x49
	.uleb128 0x13
	.byte	0
	.byte	0
	.uleb128 0x8
	.uleb128 0xd
	.byte	0
	.uleb128 0x3
	.uleb128 0xe
	.uleb128 0x3a
	.uleb128 0xb
	.uleb128 0x3b
	.uleb128 0xb
	.uleb128 0x39
	.uleb128 0xb
	.uleb128 0x49
	.uleb128 0x13
	.uleb128 0x38
	.uleb128 0xb
	.byte	0
	.byte	0
	.uleb128 0x9
	.uleb128 0xf
	.byte	0
	.uleb128 0xb
	.uleb128 0x21
	.sleb128 8
	.uleb128 0x49
	.uleb128 0x13
	.byte	0
	.byte	0
	.uleb128 0xa
	.uleb128 0x10
	.byte	0
	.uleb128 0xb
	.uleb128 0x21
	.sleb128 8
	.uleb128 0x49
	.uleb128 0x13
	.byte	0
	.byte	0
	.uleb128 0xb
	.uleb128 0x2e
	.byte	0x1
	.uleb128 0x3f
	.uleb128 0x19
	.uleb128 0x3
	.uleb128 0xe
	.uleb128 0x3a
	.uleb128 0xb
	.uleb128 0x3b
	.uleb128 0x5
	.uleb128 0x39
	.uleb128 0xb
	.uleb128 0x6e
	.uleb128 0xe
	.uleb128 0x32
	.uleb128 0xb
	.uleb128 0x3c
	.uleb128 0x19
	.uleb128 0x64
	.uleb128 0x13
	.uleb128 0x1
	.uleb128 0x13
	.byte	0
	.byte	0
	.uleb128 0xc
	.uleb128 0x5
	.byte	0
	.uleb128 0x3
	.uleb128 0xe
	.uleb128 0x49
	.uleb128 0x13
	.uleb128 0x34
	.uleb128 0x19
	.byte	0
	.byte	0
	.uleb128 0xd
	.uleb128 0x2f
	.byte	0
	.uleb128 0x3
	.uleb128 0x8
	.uleb128 0x49
	.uleb128 0x13
	.byte	0
	.byte	0
	.uleb128 0xe
	.uleb128 0x2e
	.byte	0x1
	.uleb128 0x3f
	.uleb128 0x19
	.uleb128 0x3
	.uleb128 0xe
	.uleb128 0x3a
	.uleb128 0xb
	.uleb128 0x3b
	.uleb128 0x5
	.uleb128 0x39
	.uleb128 0xb
	.uleb128 0x6e
	.uleb128 0xe
	.uleb128 0x49
	.uleb128 0x13
	.uleb128 0x3c
	.uleb128 0x19
	.uleb128 0x1
	.uleb128 0x13
	.byte	0
	.byte	0
	.uleb128 0xf
	.uleb128 0x5
	.byte	0
	.uleb128 0x3
	.uleb128 0xe
	.uleb128 0x3a
	.uleb128 0xb
	.uleb128 0x3b
	.uleb128 0x5
	.uleb128 0x39
	.uleb128 0xb
	.uleb128 0x49
	.uleb128 0x13
	.uleb128 0x2
	.uleb128 0x18
	.byte	0
	.byte	0
	.uleb128 0x10
	.uleb128 0x2e
	.byte	0x1
	.uleb128 0x3f
	.uleb128 0x19
	.uleb128 0x3
	.uleb128 0xe
	.uleb128 0x3a
	.uleb128 0xb
	.uleb128 0x3b
	.uleb128 0x5
	.uleb128 0x39
	.uleb128 0xb
	.uleb128 0x49
	.uleb128 0x13
	.uleb128 0x3c
	.uleb128 0x19
	.uleb128 0x1
	.uleb128 0x13
	.byte	0
	.byte	0
	.uleb128 0x11
	.uleb128 0x5
	.byte	0
	.uleb128 0x31
	.uleb128 0x13
	.uleb128 0x2
	.uleb128 0x18
	.byte	0
	.byte	0
	.uleb128 0x12
	.uleb128 0x2e
	.byte	0x1
	.uleb128 0x3f
	.uleb128 0x19
	.uleb128 0x3
	.uleb128 0xe
	.uleb128 0x3a
	.uleb128 0xb
	.uleb128 0x3b
	.uleb128 0xb
	.uleb128 0x39
	.uleb128 0xb
	.uleb128 0x6e
	.uleb128 0xe
	.uleb128 0x49
	.uleb128 0x13
	.uleb128 0x32
	.uleb128 0xb
	.uleb128 0x3c
	.uleb128 0x19
	.uleb128 0x64
	.uleb128 0x13
	.uleb128 0x1
	.uleb128 0x13
	.byte	0
	.byte	0
	.uleb128 0x13
	.uleb128 0x2e
	.byte	0x1
	.uleb128 0x47
	.uleb128 0x13
	.uleb128 0x11
	.uleb128 0x1
	.uleb128 0x12
	.uleb128 0x7
	.uleb128 0x40
	.uleb128 0x18
	.uleb128 0x7c
	.uleb128 0x19
	.uleb128 0x1
	.uleb128 0x13
	.byte	0
	.byte	0
	.uleb128 0x14
	.uleb128 0x16
	.byte	0
	.uleb128 0x3
	.uleb128 0xe
	.uleb128 0x3a
	.uleb128 0xb
	.uleb128 0x3b
	.uleb128 0xb
	.uleb128 0x39
	.uleb128 0xb
	.uleb128 0x49
	.uleb128 0x13
	.uleb128 0x32
	.uleb128 0xb
	.byte	0
	.byte	0
	.uleb128 0x15
	.uleb128 0x5
	.byte	0
	.uleb128 0x3
	.uleb128 0xe
	.uleb128 0x49
	.uleb128 0x13
	.uleb128 0x34
	.uleb128 0x19
	.uleb128 0x2
	.uleb128 0x18
	.byte	0
	.byte	0
	.uleb128 0x16
	.uleb128 0x2e
	.byte	0x1
	.uleb128 0x3f
	.uleb128 0x19
	.uleb128 0x3
	.uleb128 0xe
	.uleb128 0x3a
	.uleb128 0xb
	.uleb128 0x3b
	.uleb128 0xb
	.uleb128 0x39
	.uleb128 0xb
	.uleb128 0x6e
	.uleb128 0xe
	.uleb128 0x49
	.uleb128 0x13
	.uleb128 0x3c
	.uleb128 0x19
	.uleb128 0x1
	.uleb128 0x13
	.byte	0
	.byte	0
	.uleb128 0x17
	.uleb128 0x5
	.byte	0
	.uleb128 0x3
	.uleb128 0xe
	.uleb128 0x3a
	.uleb128 0xb
	.uleb128 0x3b
	.uleb128 0xb
	.uleb128 0x39
	.uleb128 0xb
	.uleb128 0x49
	.uleb128 0x13
	.uleb128 0x2
	.uleb128 0x18
	.byte	0
	.byte	0
	.uleb128 0x18
	.uleb128 0x5
	.byte	0
	.uleb128 0x3
	.uleb128 0x8
	.uleb128 0x3a
	.uleb128 0xb
	.uleb128 0x3b
	.uleb128 0x5
	.uleb128 0x39
	.uleb128 0xb
	.uleb128 0x49
	.uleb128 0x13
	.uleb128 0x2
	.uleb128 0x18
	.byte	0
	.byte	0
	.uleb128 0x19
	.uleb128 0x13
	.byte	0x1
	.uleb128 0x3
	.uleb128 0xe
	.uleb128 0xb
	.uleb128 0xb
	.uleb128 0x3a
	.uleb128 0xb
	.uleb128 0x3b
	.uleb128 0xb
	.uleb128 0x39
	.uleb128 0xb
	.uleb128 0x1
	.uleb128 0x13
	.byte	0
	.byte	0
	.uleb128 0x1a
	.uleb128 0x2e
	.byte	0x1
	.uleb128 0x3f
	.uleb128 0x19
	.uleb128 0x3
	.uleb128 0xe
	.uleb128 0x3a
	.uleb128 0xb
	.uleb128 0x3b
	.uleb128 0x5
	.uleb128 0x39
	.uleb128 0x21
	.sleb128 7
	.uleb128 0x6e
	.uleb128 0xe
	.uleb128 0x3c
	.uleb128 0x19
	.uleb128 0x64
	.uleb128 0x13
	.uleb128 0x1
	.uleb128 0x13
	.byte	0
	.byte	0
	.uleb128 0x1b
	.uleb128 0x2e
	.byte	0x1
	.uleb128 0x3f
	.uleb128 0x19
	.uleb128 0x3
	.uleb128 0xe
	.uleb128 0x3a
	.uleb128 0xb
	.uleb128 0x3b
	.uleb128 0xb
	.uleb128 0x39
	.uleb128 0xb
	.uleb128 0x49
	.uleb128 0x13
	.uleb128 0x3c
	.uleb128 0x19
	.uleb128 0x1
	.uleb128 0x13
	.byte	0
	.byte	0
	.uleb128 0x1c
	.uleb128 0x2e
	.byte	0x1
	.uleb128 0x47
	.uleb128 0x13
	.uleb128 0x64
	.uleb128 0x13
	.uleb128 0x20
	.uleb128 0xb
	.uleb128 0x1
	.uleb128 0x13
	.byte	0
	.byte	0
	.uleb128 0x1d
	.uleb128 0x2e
	.byte	0x1
	.uleb128 0x3f
	.uleb128 0x19
	.uleb128 0x3
	.uleb128 0xe
	.uleb128 0x3a
	.uleb128 0xb
	.uleb128 0x3b
	.uleb128 0xb
	.uleb128 0x39
	.uleb128 0xb
	.uleb128 0x6e
	.uleb128 0xe
	.uleb128 0x32
	.uleb128 0x21
	.sleb128 1
	.uleb128 0x3c
	.uleb128 0x19
	.uleb128 0x64
	.uleb128 0x13
	.uleb128 0x1
	.uleb128 0x13
	.byte	0
	.byte	0
	.uleb128 0x1e
	.uleb128 0x16
	.byte	0
	.uleb128 0x3
	.uleb128 0xe
	.uleb128 0x3a
	.uleb128 0xb
	.uleb128 0x3b
	.uleb128 0x5
	.uleb128 0x39
	.uleb128 0xb
	.uleb128 0x49
	.uleb128 0x13
	.byte	0
	.byte	0
	.uleb128 0x1f
	.uleb128 0x16
	.byte	0
	.uleb128 0x3
	.uleb128 0xe
	.uleb128 0x3a
	.uleb128 0xb
	.uleb128 0x3b
	.uleb128 0x5
	.uleb128 0x39
	.uleb128 0xb
	.uleb128 0x49
	.uleb128 0x13
	.uleb128 0x32
	.uleb128 0x21
	.sleb128 1
	.byte	0
	.byte	0
	.uleb128 0x20
	.uleb128 0x2e
	.byte	0x1
	.uleb128 0x3f
	.uleb128 0x19
	.uleb128 0x3
	.uleb128 0xe
	.uleb128 0x3a
	.uleb128 0xb
	.uleb128 0x3b
	.uleb128 0xb
	.uleb128 0x39
	.uleb128 0xb
	.uleb128 0x6e
	.uleb128 0xe
	.uleb128 0x3c
	.uleb128 0x19
	.uleb128 0x64
	.uleb128 0x13
	.uleb128 0x1
	.uleb128 0x13
	.byte	0
	.byte	0
	.uleb128 0x21
	.uleb128 0x8
	.byte	0
	.uleb128 0x3a
	.uleb128 0xb
	.uleb128 0x3b
	.uleb128 0x5
	.uleb128 0x39
	.uleb128 0xb
	.uleb128 0x18
	.uleb128 0x13
	.byte	0
	.byte	0
	.uleb128 0x22
	.uleb128 0x5
	.byte	0
	.uleb128 0x49
	.uleb128 0x13
	.uleb128 0x2
	.uleb128 0x18
	.byte	0
	.byte	0
	.uleb128 0x23
	.uleb128 0x2e
	.byte	0x1
	.uleb128 0x47
	.uleb128 0x13
	.uleb128 0x64
	.uleb128 0x13
	.uleb128 0x11
	.uleb128 0x1
	.uleb128 0x12
	.uleb128 0x7
	.uleb128 0x40
	.uleb128 0x18
	.uleb128 0x7c
	.uleb128 0x19
	.uleb128 0x1
	.uleb128 0x13
	.byte	0
	.byte	0
	.uleb128 0x24
	.uleb128 0x2e
	.byte	0x1
	.uleb128 0x31
	.uleb128 0x13
	.uleb128 0x6e
	.uleb128 0xe
	.uleb128 0x64
	.uleb128 0x13
	.uleb128 0x11
	.uleb128 0x1
	.uleb128 0x12
	.uleb128 0x7
	.uleb128 0x40
	.uleb128 0x18
	.uleb128 0x7c
	.uleb128 0x19
	.uleb128 0x1
	.uleb128 0x13
	.byte	0
	.byte	0
	.uleb128 0x25
	.uleb128 0x24
	.byte	0
	.uleb128 0xb
	.uleb128 0xb
	.uleb128 0x3e
	.uleb128 0xb
	.uleb128 0x3
	.uleb128 0xe
	.byte	0
	.byte	0
	.uleb128 0x26
	.uleb128 0x2e
	.byte	0x1
	.uleb128 0x47
	.uleb128 0x13
	.uleb128 0x11
	.uleb128 0x1
	.uleb128 0x12
	.uleb128 0x7
	.uleb128 0x40
	.uleb128 0x18
	.uleb128 0x7a
	.uleb128 0x19
	.uleb128 0x1
	.uleb128 0x13
	.byte	0
	.byte	0
	.uleb128 0x27
	.uleb128 0x2e
	.byte	0x1
	.uleb128 0x3f
	.uleb128 0x19
	.uleb128 0x3
	.uleb128 0xe
	.uleb128 0x3a
	.uleb128 0xb
	.uleb128 0x3b
	.uleb128 0x5
	.uleb128 0x39
	.uleb128 0x21
	.sleb128 7
	.uleb128 0x6e
	.uleb128 0xe
	.uleb128 0x49
	.uleb128 0x13
	.uleb128 0x3c
	.uleb128 0x19
	.uleb128 0x64
	.uleb128 0x13
	.uleb128 0x1
	.uleb128 0x13
	.byte	0
	.byte	0
	.uleb128 0x28
	.uleb128 0x42
	.byte	0
	.uleb128 0xb
	.uleb128 0x21
	.sleb128 8
	.uleb128 0x49
	.uleb128 0x13
	.byte	0
	.byte	0
	.uleb128 0x29
	.uleb128 0x34
	.byte	0
	.uleb128 0x3
	.uleb128 0xe
	.uleb128 0x3a
	.uleb128 0xb
	.uleb128 0x3b
	.uleb128 0x5
	.uleb128 0x39
	.uleb128 0xb
	.uleb128 0x49
	.uleb128 0x13
	.uleb128 0x2
	.uleb128 0x18
	.byte	0
	.byte	0
	.uleb128 0x2a
	.uleb128 0x2
	.byte	0x1
	.uleb128 0x3
	.uleb128 0xe
	.uleb128 0xb
	.uleb128 0xb
	.uleb128 0x3a
	.uleb128 0xb
	.uleb128 0x3b
	.uleb128 0xb
	.uleb128 0x39
	.uleb128 0xb
	.uleb128 0x1
	.uleb128 0x13
	.byte	0
	.byte	0
	.uleb128 0x2b
	.uleb128 0x34
	.byte	0
	.uleb128 0x3
	.uleb128 0xe
	.uleb128 0x3a
	.uleb128 0xb
	.uleb128 0x3b
	.uleb128 0xb
	.uleb128 0x39
	.uleb128 0xb
	.uleb128 0x49
	.uleb128 0x13
	.uleb128 0x2
	.uleb128 0x18
	.byte	0
	.byte	0
	.uleb128 0x2c
	.uleb128 0x2e
	.byte	0x1
	.uleb128 0x3f
	.uleb128 0x19
	.uleb128 0x3
	.uleb128 0xe
	.uleb128 0x3a
	.uleb128 0xb
	.uleb128 0x3b
	.uleb128 0x5
	.uleb128 0x39
	.uleb128 0xb
	.uleb128 0x6e
	.uleb128 0xe
	.uleb128 0x3c
	.uleb128 0x19
	.uleb128 0x1
	.uleb128 0x13
	.byte	0
	.byte	0
	.uleb128 0x2d
	.uleb128 0x2e
	.byte	0
	.uleb128 0x3f
	.uleb128 0x19
	.uleb128 0x3
	.uleb128 0xe
	.uleb128 0x3a
	.uleb128 0x21
	.sleb128 53
	.uleb128 0x3b
	.uleb128 0xb
	.uleb128 0x39
	.uleb128 0x21
	.sleb128 27
	.uleb128 0x6e
	.uleb128 0xe
	.uleb128 0x49
	.uleb128 0x13
	.uleb128 0x3c
	.uleb128 0x19
	.byte	0
	.byte	0
	.uleb128 0x2e
	.uleb128 0x2e
	.byte	0x1
	.uleb128 0x47
	.uleb128 0x13
	.uleb128 0x64
	.uleb128 0x13
	.uleb128 0x11
	.uleb128 0x1
	.uleb128 0x12
	.uleb128 0x7
	.uleb128 0x40
	.uleb128 0x18
	.uleb128 0x7a
	.uleb128 0x19
	.uleb128 0x1
	.uleb128 0x13
	.byte	0
	.byte	0
	.uleb128 0x2f
	.uleb128 0x5
	.byte	0
	.uleb128 0x3
	.uleb128 0x8
	.uleb128 0x3a
	.uleb128 0xb
	.uleb128 0x3b
	.uleb128 0xb
	.uleb128 0x39
	.uleb128 0xb
	.uleb128 0x49
	.uleb128 0x13
	.uleb128 0x2
	.uleb128 0x18
	.byte	0
	.byte	0
	.uleb128 0x30
	.uleb128 0x5
	.byte	0
	.uleb128 0x3
	.uleb128 0x8
	.uleb128 0x3a
	.uleb128 0xb
	.uleb128 0x3b
	.uleb128 0x5
	.uleb128 0x39
	.uleb128 0xb
	.uleb128 0x49
	.uleb128 0x13
	.byte	0
	.byte	0
	.uleb128 0x31
	.uleb128 0x2
	.byte	0
	.uleb128 0x3
	.uleb128 0xe
	.uleb128 0x3c
	.uleb128 0x19
	.byte	0
	.byte	0
	.uleb128 0x32
	.uleb128 0x2e
	.byte	0x1
	.uleb128 0x3f
	.uleb128 0x19
	.uleb128 0x3
	.uleb128 0x8
	.uleb128 0x3a
	.uleb128 0xb
	.uleb128 0x3b
	.uleb128 0x5
	.uleb128 0x39
	.uleb128 0x21
	.sleb128 7
	.uleb128 0x6e
	.uleb128 0xe
	.uleb128 0x49
	.uleb128 0x13
	.uleb128 0x32
	.uleb128 0x21
	.sleb128 1
	.uleb128 0x3c
	.uleb128 0x19
	.uleb128 0x64
	.uleb128 0x13
	.uleb128 0x1
	.uleb128 0x13
	.byte	0
	.byte	0
	.uleb128 0x33
	.uleb128 0x2e
	.byte	0
	.uleb128 0x3f
	.uleb128 0x19
	.uleb128 0x3
	.uleb128 0xe
	.uleb128 0x3a
	.uleb128 0x21
	.sleb128 65
	.uleb128 0x3b
	.uleb128 0xb
	.uleb128 0x39
	.uleb128 0x21
	.sleb128 5
	.uleb128 0x6e
	.uleb128 0xe
	.uleb128 0x49
	.uleb128 0x13
	.uleb128 0x32
	.uleb128 0x21
	.sleb128 1
	.uleb128 0x3c
	.uleb128 0x19
	.byte	0
	.byte	0
	.uleb128 0x34
	.uleb128 0x2e
	.byte	0x1
	.uleb128 0x31
	.uleb128 0x13
	.uleb128 0x6e
	.uleb128 0xe
	.uleb128 0x64
	.uleb128 0x13
	.uleb128 0x1
	.uleb128 0x13
	.byte	0
	.byte	0
	.uleb128 0x35
	.uleb128 0x2e
	.byte	0x1
	.uleb128 0x3f
	.uleb128 0x19
	.uleb128 0x3
	.uleb128 0xe
	.uleb128 0x3a
	.uleb128 0xb
	.uleb128 0x3b
	.uleb128 0xb
	.uleb128 0x39
	.uleb128 0xb
	.uleb128 0x6e
	.uleb128 0xe
	.uleb128 0x49
	.uleb128 0x13
	.uleb128 0x3c
	.uleb128 0x19
	.uleb128 0x64
	.uleb128 0x13
	.uleb128 0x1
	.uleb128 0x13
	.byte	0
	.byte	0
	.uleb128 0x36
	.uleb128 0x1c
	.byte	0
	.uleb128 0x49
	.uleb128 0x13
	.uleb128 0x38
	.uleb128 0x21
	.sleb128 0
	.byte	0
	.byte	0
	.uleb128 0x37
	.uleb128 0x2e
	.byte	0x1
	.uleb128 0x3f
	.uleb128 0x19
	.uleb128 0x3
	.uleb128 0xe
	.uleb128 0x3a
	.uleb128 0xb
	.uleb128 0x3b
	.uleb128 0xb
	.uleb128 0x39
	.uleb128 0xb
	.uleb128 0x6e
	.uleb128 0xe
	.uleb128 0x3c
	.uleb128 0x19
	.uleb128 0x1
	.uleb128 0x13
	.byte	0
	.byte	0
	.uleb128 0x38
	.uleb128 0x30
	.byte	0
	.uleb128 0x3
	.uleb128 0xe
	.uleb128 0x49
	.uleb128 0x13
	.uleb128 0x1c
	.uleb128 0xb
	.byte	0
	.byte	0
	.uleb128 0x39
	.uleb128 0x2e
	.byte	0x1
	.uleb128 0x47
	.uleb128 0x13
	.uleb128 0x64
	.uleb128 0x13
	.uleb128 0x1
	.uleb128 0x13
	.byte	0
	.byte	0
	.uleb128 0x3a
	.uleb128 0x2e
	.byte	0x1
	.uleb128 0x31
	.uleb128 0x13
	.uleb128 0x6e
	.uleb128 0xe
	.uleb128 0x64
	.uleb128 0x13
	.uleb128 0x11
	.uleb128 0x1
	.uleb128 0x12
	.uleb128 0x7
	.uleb128 0x40
	.uleb128 0x18
	.uleb128 0x7a
	.uleb128 0x19
	.uleb128 0x1
	.uleb128 0x13
	.byte	0
	.byte	0
	.uleb128 0x3b
	.uleb128 0x2e
	.byte	0x1
	.uleb128 0x3f
	.uleb128 0x19
	.uleb128 0x3
	.uleb128 0xe
	.uleb128 0x3a
	.uleb128 0xb
	.uleb128 0x3b
	.uleb128 0x5
	.uleb128 0x39
	.uleb128 0x21
	.sleb128 7
	.uleb128 0x6e
	.uleb128 0xe
	.uleb128 0x32
	.uleb128 0x21
	.sleb128 1
	.uleb128 0x3c
	.uleb128 0x19
	.uleb128 0x63
	.uleb128 0x19
	.uleb128 0x64
	.uleb128 0x13
	.uleb128 0x1
	.uleb128 0x13
	.byte	0
	.byte	0
	.uleb128 0x3c
	.uleb128 0x2f
	.byte	0
	.uleb128 0x49
	.uleb128 0x13
	.byte	0
	.byte	0
	.uleb128 0x3d
	.uleb128 0x5
	.byte	0
	.uleb128 0x31
	.uleb128 0x13
	.byte	0
	.byte	0
	.uleb128 0x3e
	.uleb128 0x13
	.byte	0x1
	.uleb128 0x3
	.uleb128 0xe
	.uleb128 0xb
	.uleb128 0x21
	.sleb128 1
	.uleb128 0x3a
	.uleb128 0xb
	.uleb128 0x3b
	.uleb128 0x5
	.uleb128 0x39
	.uleb128 0x21
	.sleb128 12
	.uleb128 0x1
	.uleb128 0x13
	.byte	0
	.byte	0
	.uleb128 0x3f
	.uleb128 0x18
	.byte	0
	.byte	0
	.byte	0
	.uleb128 0x40
	.uleb128 0x2e
	.byte	0x1
	.uleb128 0x3f
	.uleb128 0x19
	.uleb128 0x3
	.uleb128 0xe
	.uleb128 0x3a
	.uleb128 0xb
	.uleb128 0x3b
	.uleb128 0x5
	.uleb128 0x39
	.uleb128 0x21
	.sleb128 13
	.uleb128 0x3c
	.uleb128 0x19
	.uleb128 0x1
	.uleb128 0x13
	.byte	0
	.byte	0
	.uleb128 0x41
	.uleb128 0x5
	.byte	0
	.uleb128 0x3
	.uleb128 0xe
	.uleb128 0x3a
	.uleb128 0xb
	.uleb128 0x3b
	.uleb128 0x5
	.uleb128 0x39
	.uleb128 0xb
	.uleb128 0x49
	.uleb128 0x13
	.byte	0
	.byte	0
	.uleb128 0x42
	.uleb128 0x1
	.byte	0x1
	.uleb128 0x49
	.uleb128 0x13
	.uleb128 0x1
	.uleb128 0x13
	.byte	0
	.byte	0
	.uleb128 0x43
	.uleb128 0x21
	.byte	0
	.uleb128 0x49
	.uleb128 0x13
	.uleb128 0x2f
	.uleb128 0xb
	.byte	0
	.byte	0
	.uleb128 0x44
	.uleb128 0x39
	.byte	0x1
	.uleb128 0x3
	.uleb128 0xe
	.uleb128 0x3a
	.uleb128 0xb
	.uleb128 0x3b
	.uleb128 0xb
	.uleb128 0x39
	.uleb128 0xb
	.uleb128 0x1
	.uleb128 0x13
	.byte	0
	.byte	0
	.uleb128 0x45
	.uleb128 0x1c
	.byte	0
	.uleb128 0x49
	.uleb128 0x13
	.uleb128 0x38
	.uleb128 0x21
	.sleb128 0
	.uleb128 0x32
	.uleb128 0xb
	.byte	0
	.byte	0
	.uleb128 0x46
	.uleb128 0x2f
	.byte	0
	.uleb128 0x3
	.uleb128 0xe
	.uleb128 0x49
	.uleb128 0x13
	.uleb128 0x1e
	.uleb128 0x19
	.byte	0
	.byte	0
	.uleb128 0x47
	.uleb128 0x2e
	.byte	0x1
	.uleb128 0x3f
	.uleb128 0x19
	.uleb128 0x3
	.uleb128 0xe
	.uleb128 0x3a
	.uleb128 0xb
	.uleb128 0x3b
	.uleb128 0x5
	.uleb128 0x39
	.uleb128 0x21
	.sleb128 7
	.uleb128 0x6e
	.uleb128 0xe
	.uleb128 0x32
	.uleb128 0x21
	.sleb128 1
	.uleb128 0x3c
	.uleb128 0x19
	.uleb128 0x8b
	.uleb128 0x21
	.sleb128 1
	.uleb128 0x64
	.uleb128 0x13
	.uleb128 0x1
	.uleb128 0x13
	.byte	0
	.byte	0
	.uleb128 0x48
	.uleb128 0x2
	.byte	0x1
	.uleb128 0x3
	.uleb128 0xe
	.uleb128 0xb
	.uleb128 0xb
	.uleb128 0x3a
	.uleb128 0xb
	.uleb128 0x3b
	.uleb128 0x5
	.uleb128 0x39
	.uleb128 0x21
	.sleb128 11
	.uleb128 0x1
	.uleb128 0x13
	.byte	0
	.byte	0
	.uleb128 0x49
	.uleb128 0x5
	.byte	0
	.uleb128 0x3
	.uleb128 0x8
	.uleb128 0x3a
	.uleb128 0xb
	.uleb128 0x3b
	.uleb128 0xb
	.uleb128 0x39
	.uleb128 0xb
	.uleb128 0x49
	.uleb128 0x13
	.byte	0
	.byte	0
	.uleb128 0x4a
	.uleb128 0xd
	.byte	0
	.uleb128 0x3
	.uleb128 0xe
	.uleb128 0x3a
	.uleb128 0x21
	.sleb128 25
	.uleb128 0x3b
	.uleb128 0x21
	.sleb128 0
	.uleb128 0x49
	.uleb128 0x13
	.uleb128 0x38
	.uleb128 0xb
	.byte	0
	.byte	0
	.uleb128 0x4b
	.uleb128 0x13
	.byte	0x1
	.uleb128 0xb
	.uleb128 0xb
	.uleb128 0x3a
	.uleb128 0xb
	.uleb128 0x3b
	.uleb128 0xb
	.uleb128 0x39
	.uleb128 0xb
	.uleb128 0x6e
	.uleb128 0xe
	.uleb128 0x1
	.uleb128 0x13
	.byte	0
	.byte	0
	.uleb128 0x4c
	.uleb128 0xd
	.byte	0
	.uleb128 0x3
	.uleb128 0xe
	.uleb128 0x3a
	.uleb128 0xb
	.uleb128 0x3b
	.uleb128 0xb
	.uleb128 0x39
	.uleb128 0xb
	.uleb128 0x49
	.uleb128 0x13
	.byte	0
	.byte	0
	.uleb128 0x4d
	.uleb128 0x2e
	.byte	0x1
	.uleb128 0x3f
	.uleb128 0x19
	.uleb128 0x3
	.uleb128 0xe
	.uleb128 0x3a
	.uleb128 0xb
	.uleb128 0x3b
	.uleb128 0xb
	.uleb128 0x39
	.uleb128 0xb
	.uleb128 0x6e
	.uleb128 0xe
	.uleb128 0x49
	.uleb128 0x13
	.uleb128 0x32
	.uleb128 0x21
	.sleb128 1
	.uleb128 0x3c
	.uleb128 0x19
	.uleb128 0x8b
	.uleb128 0x21
	.sleb128 1
	.uleb128 0x64
	.uleb128 0x13
	.uleb128 0x1
	.uleb128 0x13
	.byte	0
	.byte	0
	.uleb128 0x4e
	.uleb128 0x2e
	.byte	0x1
	.uleb128 0x3f
	.uleb128 0x19
	.uleb128 0x3
	.uleb128 0x8
	.uleb128 0x3a
	.uleb128 0xb
	.uleb128 0x3b
	.uleb128 0xb
	.uleb128 0x39
	.uleb128 0x21
	.sleb128 7
	.uleb128 0x6e
	.uleb128 0xe
	.uleb128 0x49
	.uleb128 0x13
	.uleb128 0x32
	.uleb128 0x21
	.sleb128 1
	.uleb128 0x3c
	.uleb128 0x19
	.uleb128 0x64
	.uleb128 0x13
	.uleb128 0x1
	.uleb128 0x13
	.byte	0
	.byte	0
	.uleb128 0x4f
	.uleb128 0xd
	.byte	0
	.uleb128 0x3
	.uleb128 0xe
	.uleb128 0x3a
	.uleb128 0xb
	.uleb128 0x3b
	.uleb128 0x5
	.uleb128 0x39
	.uleb128 0xb
	.uleb128 0x49
	.uleb128 0x13
	.uleb128 0x38
	.uleb128 0xb
	.byte	0
	.byte	0
	.uleb128 0x50
	.uleb128 0x2e
	.byte	0x1
	.uleb128 0x3f
	.uleb128 0x19
	.uleb128 0x3
	.uleb128 0xe
	.uleb128 0x3a
	.uleb128 0x21
	.sleb128 9
	.uleb128 0x3b
	.uleb128 0x5
	.uleb128 0x39
	.uleb128 0x21
	.sleb128 7
	.uleb128 0x6e
	.uleb128 0xe
	.uleb128 0x3c
	.uleb128 0x19
	.uleb128 0x8b
	.uleb128 0x21
	.sleb128 1
	.uleb128 0x64
	.uleb128 0x13
	.uleb128 0x1
	.uleb128 0x13
	.byte	0
	.byte	0
	.uleb128 0x51
	.uleb128 0x2e
	.byte	0x1
	.uleb128 0x3f
	.uleb128 0x19
	.uleb128 0x3
	.uleb128 0xe
	.uleb128 0x3a
	.uleb128 0x21
	.sleb128 9
	.uleb128 0x3b
	.uleb128 0x5
	.uleb128 0x39
	.uleb128 0x21
	.sleb128 7
	.uleb128 0x6e
	.uleb128 0xe
	.uleb128 0x49
	.uleb128 0x13
	.uleb128 0x32
	.uleb128 0x21
	.sleb128 2
	.uleb128 0x3c
	.uleb128 0x19
	.uleb128 0x1
	.uleb128 0x13
	.byte	0
	.byte	0
	.uleb128 0x52
	.uleb128 0x34
	.byte	0
	.uleb128 0x47
	.uleb128 0x13
	.byte	0
	.byte	0
	.uleb128 0x53
	.uleb128 0x30
	.byte	0
	.uleb128 0x49
	.uleb128 0x13
	.uleb128 0x1c
	.uleb128 0xb
	.byte	0
	.byte	0
	.uleb128 0x54
	.uleb128 0xb
	.byte	0x1
	.byte	0
	.byte	0
	.uleb128 0x55
	.uleb128 0x2e
	.byte	0x1
	.uleb128 0x47
	.uleb128 0x13
	.uleb128 0x3a
	.uleb128 0xb
	.uleb128 0x3b
	.uleb128 0xb
	.uleb128 0x39
	.uleb128 0xb
	.uleb128 0x64
	.uleb128 0x13
	.uleb128 0x20
	.uleb128 0x21
	.sleb128 2
	.uleb128 0x1
	.uleb128 0x13
	.byte	0
	.byte	0
	.uleb128 0x56
	.uleb128 0x2e
	.byte	0x1
	.uleb128 0x3f
	.uleb128 0x19
	.uleb128 0x3
	.uleb128 0xe
	.uleb128 0x6e
	.uleb128 0xe
	.uleb128 0x34
	.uleb128 0x19
	.uleb128 0x3c
	.uleb128 0x19
	.uleb128 0x64
	.uleb128 0x13
	.uleb128 0x1
	.uleb128 0x13
	.byte	0
	.byte	0
	.uleb128 0x57
	.uleb128 0x2e
	.byte	0x1
	.uleb128 0x3f
	.uleb128 0x19
	.uleb128 0x3
	.uleb128 0xe
	.uleb128 0x3a
	.uleb128 0xb
	.uleb128 0x3b
	.uleb128 0xb
	.uleb128 0x39
	.uleb128 0xb
	.uleb128 0x6e
	.uleb128 0xe
	.uleb128 0x3c
	.uleb128 0x19
	.uleb128 0x63
	.uleb128 0x19
	.uleb128 0x64
	.uleb128 0x13
	.uleb128 0x1
	.uleb128 0x13
	.byte	0
	.byte	0
	.uleb128 0x58
	.uleb128 0x2e
	.byte	0x1
	.uleb128 0x3f
	.uleb128 0x19
	.uleb128 0x3
	.uleb128 0xe
	.uleb128 0x3a
	.uleb128 0xb
	.uleb128 0x3b
	.uleb128 0xb
	.uleb128 0x39
	.uleb128 0xb
	.uleb128 0x6e
	.uleb128 0xe
	.uleb128 0x87
	.uleb128 0x19
	.uleb128 0x3c
	.uleb128 0x19
	.uleb128 0x1
	.uleb128 0x13
	.byte	0
	.byte	0
	.uleb128 0x59
	.uleb128 0x2e
	.byte	0x1
	.uleb128 0x3f
	.uleb128 0x19
	.uleb128 0x3
	.uleb128 0xe
	.uleb128 0x3a
	.uleb128 0x21
	.sleb128 11
	.uleb128 0x3b
	.uleb128 0x21
	.sleb128 174
	.uleb128 0x39
	.uleb128 0x21
	.sleb128 7
	.uleb128 0x6e
	.uleb128 0xe
	.uleb128 0x32
	.uleb128 0x21
	.sleb128 1
	.uleb128 0x3c
	.uleb128 0x19
	.uleb128 0x64
	.uleb128 0x13
	.byte	0
	.byte	0
	.uleb128 0x5a
	.uleb128 0x2e
	.byte	0x1
	.uleb128 0x3f
	.uleb128 0x19
	.uleb128 0x3
	.uleb128 0xe
	.uleb128 0x6e
	.uleb128 0xe
	.uleb128 0x34
	.uleb128 0x19
	.uleb128 0x3c
	.uleb128 0x19
	.uleb128 0x64
	.uleb128 0x13
	.byte	0
	.byte	0
	.uleb128 0x5b
	.uleb128 0x2
	.byte	0x1
	.uleb128 0x3
	.uleb128 0xe
	.uleb128 0x3c
	.uleb128 0x19
	.uleb128 0x1
	.uleb128 0x13
	.byte	0
	.byte	0
	.uleb128 0x5c
	.uleb128 0x2e
	.byte	0
	.uleb128 0x3f
	.uleb128 0x19
	.uleb128 0x3
	.uleb128 0xe
	.uleb128 0x3a
	.uleb128 0xb
	.uleb128 0x3b
	.uleb128 0x5
	.uleb128 0x39
	.uleb128 0xb
	.uleb128 0x6e
	.uleb128 0xe
	.uleb128 0x49
	.uleb128 0x13
	.uleb128 0x3c
	.uleb128 0x19
	.byte	0
	.byte	0
	.uleb128 0x5d
	.uleb128 0x2e
	.byte	0x1
	.uleb128 0x3f
	.uleb128 0x19
	.uleb128 0x3
	.uleb128 0xe
	.uleb128 0x3a
	.uleb128 0xb
	.uleb128 0x3b
	.uleb128 0xb
	.uleb128 0x39
	.uleb128 0xb
	.uleb128 0x6e
	.uleb128 0xe
	.uleb128 0x49
	.uleb128 0x13
	.uleb128 0x3c
	.uleb128 0x19
	.byte	0
	.byte	0
	.uleb128 0x5e
	.uleb128 0x2e
	.byte	0
	.uleb128 0x3f
	.uleb128 0x19
	.uleb128 0x3
	.uleb128 0xe
	.uleb128 0x3a
	.uleb128 0xb
	.uleb128 0x3b
	.uleb128 0x5
	.uleb128 0x39
	.uleb128 0xb
	.uleb128 0x49
	.uleb128 0x13
	.uleb128 0x3c
	.uleb128 0x19
	.byte	0
	.byte	0
	.uleb128 0x5f
	.uleb128 0x2e
	.byte	0x1
	.uleb128 0x3f
	.uleb128 0x19
	.uleb128 0x3
	.uleb128 0x8
	.uleb128 0x3a
	.uleb128 0xb
	.uleb128 0x3b
	.uleb128 0xb
	.uleb128 0x39
	.uleb128 0xb
	.uleb128 0x6e
	.uleb128 0xe
	.uleb128 0x49
	.uleb128 0x13
	.uleb128 0x3c
	.uleb128 0x19
	.uleb128 0x1
	.uleb128 0x13
	.byte	0
	.byte	0
	.uleb128 0x60
	.uleb128 0xd
	.byte	0
	.uleb128 0x3
	.uleb128 0xe
	.uleb128 0x3a
	.uleb128 0x21
	.sleb128 17
	.uleb128 0x3b
	.uleb128 0x21
	.sleb128 1046
	.uleb128 0x39
	.uleb128 0x21
	.sleb128 17
	.uleb128 0x49
	.uleb128 0x13
	.uleb128 0x38
	.uleb128 0x21
	.sleb128 0
	.uleb128 0x32
	.uleb128 0x21
	.sleb128 2
	.byte	0
	.byte	0
	.uleb128 0x61
	.uleb128 0xd
	.byte	0
	.uleb128 0x3
	.uleb128 0x8
	.uleb128 0x3a
	.uleb128 0x21
	.sleb128 59
	.uleb128 0x3b
	.uleb128 0xb
	.uleb128 0x39
	.uleb128 0xb
	.uleb128 0x49
	.uleb128 0x13
	.uleb128 0x38
	.uleb128 0xb
	.byte	0
	.byte	0
	.uleb128 0x62
	.uleb128 0x13
	.byte	0
	.uleb128 0x3
	.uleb128 0xe
	.uleb128 0x3c
	.uleb128 0x19
	.byte	0
	.byte	0
	.uleb128 0x63
	.uleb128 0x34
	.byte	0
	.uleb128 0x3
	.uleb128 0xe
	.uleb128 0x3a
	.uleb128 0xb
	.uleb128 0x3b
	.uleb128 0xb
	.uleb128 0x39
	.uleb128 0xb
	.uleb128 0x49
	.uleb128 0x13
	.byte	0
	.byte	0
	.uleb128 0x64
	.uleb128 0xb
	.byte	0x1
	.uleb128 0x11
	.uleb128 0x1
	.uleb128 0x12
	.uleb128 0x7
	.byte	0
	.byte	0
	.uleb128 0x65
	.uleb128 0x34
	.byte	0
	.uleb128 0x3
	.uleb128 0x8
	.uleb128 0x3a
	.uleb128 0xb
	.uleb128 0x3b
	.uleb128 0xb
	.uleb128 0x39
	.uleb128 0xb
	.uleb128 0x49
	.uleb128 0x13
	.uleb128 0x2
	.uleb128 0x18
	.byte	0
	.byte	0
	.uleb128 0x66
	.uleb128 0x17
	.byte	0x1
	.uleb128 0xb
	.uleb128 0xb
	.uleb128 0x3a
	.uleb128 0xb
	.uleb128 0x3b
	.uleb128 0xb
	.uleb128 0x39
	.uleb128 0xb
	.uleb128 0x1
	.uleb128 0x13
	.byte	0
	.byte	0
	.uleb128 0x67
	.uleb128 0x30
	.byte	0
	.uleb128 0x3
	.uleb128 0x8
	.uleb128 0x49
	.uleb128 0x13
	.uleb128 0x1c
	.uleb128 0xb
	.byte	0
	.byte	0
	.uleb128 0x68
	.uleb128 0x39
	.byte	0
	.uleb128 0x3
	.uleb128 0xe
	.uleb128 0x3a
	.uleb128 0x21
	.sleb128 34
	.uleb128 0x3b
	.uleb128 0x5
	.uleb128 0x39
	.uleb128 0x21
	.sleb128 13
	.byte	0
	.byte	0
	.uleb128 0x69
	.uleb128 0x2e
	.byte	0x1
	.uleb128 0x3f
	.uleb128 0x19
	.uleb128 0x3
	.uleb128 0x8
	.uleb128 0x3a
	.uleb128 0x21
	.sleb128 3
	.uleb128 0x3b
	.uleb128 0x5
	.uleb128 0x39
	.uleb128 0x21
	.sleb128 7
	.uleb128 0x6e
	.uleb128 0xe
	.uleb128 0x49
	.uleb128 0x13
	.uleb128 0x3c
	.uleb128 0x19
	.uleb128 0x1
	.uleb128 0x13
	.byte	0
	.byte	0
	.uleb128 0x6a
	.uleb128 0x39
	.byte	0
	.uleb128 0x3
	.uleb128 0xe
	.uleb128 0x3a
	.uleb128 0xb
	.uleb128 0x3b
	.uleb128 0xb
	.uleb128 0x39
	.uleb128 0xb
	.byte	0
	.byte	0
	.uleb128 0x6b
	.uleb128 0x2e
	.byte	0x1
	.uleb128 0x3f
	.uleb128 0x19
	.uleb128 0x3
	.uleb128 0xe
	.uleb128 0x3a
	.uleb128 0xb
	.uleb128 0x3b
	.uleb128 0x5
	.uleb128 0x39
	.uleb128 0xb
	.uleb128 0x6e
	.uleb128 0xe
	.uleb128 0x49
	.uleb128 0x13
	.uleb128 0x3c
	.uleb128 0x19
	.byte	0
	.byte	0
	.uleb128 0x6c
	.uleb128 0x2e
	.byte	0x1
	.uleb128 0x3f
	.uleb128 0x19
	.uleb128 0x3
	.uleb128 0xe
	.uleb128 0x3a
	.uleb128 0x21
	.sleb128 43
	.uleb128 0x3b
	.uleb128 0x5
	.uleb128 0x39
	.uleb128 0x21
	.sleb128 7
	.uleb128 0x6e
	.uleb128 0xe
	.uleb128 0x32
	.uleb128 0x21
	.sleb128 1
	.uleb128 0x3c
	.uleb128 0x19
	.uleb128 0x64
	.uleb128 0x13
	.uleb128 0x20
	.uleb128 0x21
	.sleb128 0
	.uleb128 0x1
	.uleb128 0x13
	.byte	0
	.byte	0
	.uleb128 0x6d
	.uleb128 0x2e
	.byte	0x1
	.uleb128 0x3f
	.uleb128 0x19
	.uleb128 0x3
	.uleb128 0xe
	.uleb128 0x3a
	.uleb128 0x21
	.sleb128 9
	.uleb128 0x3b
	.uleb128 0xb
	.uleb128 0x39
	.uleb128 0x21
	.sleb128 2
	.uleb128 0x6e
	.uleb128 0xe
	.uleb128 0x3c
	.uleb128 0x19
	.uleb128 0x64
	.uleb128 0x13
	.byte	0
	.byte	0
	.uleb128 0x6e
	.uleb128 0x2e
	.byte	0
	.uleb128 0x3f
	.uleb128 0x19
	.uleb128 0x3
	.uleb128 0xe
	.uleb128 0x3a
	.uleb128 0x21
	.sleb128 48
	.uleb128 0x3b
	.uleb128 0xb
	.uleb128 0x39
	.uleb128 0x21
	.sleb128 3
	.uleb128 0x6e
	.uleb128 0xe
	.uleb128 0x87
	.uleb128 0x19
	.uleb128 0x3c
	.uleb128 0x19
	.byte	0
	.byte	0
	.uleb128 0x6f
	.uleb128 0x4107
	.byte	0
	.uleb128 0x3
	.uleb128 0xe
	.byte	0
	.byte	0
	.uleb128 0x70
	.uleb128 0x39
	.byte	0x1
	.uleb128 0x3
	.uleb128 0xe
	.uleb128 0x3a
	.uleb128 0xb
	.uleb128 0x3b
	.uleb128 0x5
	.uleb128 0x39
	.uleb128 0xb
	.uleb128 0x1
	.uleb128 0x13
	.byte	0
	.byte	0
	.uleb128 0x71
	.uleb128 0x2e
	.byte	0
	.uleb128 0x3f
	.uleb128 0x19
	.uleb128 0x3
	.uleb128 0xe
	.uleb128 0x3a
	.uleb128 0xb
	.uleb128 0x3b
	.uleb128 0xb
	.uleb128 0x39
	.uleb128 0xb
	.uleb128 0x49
	.uleb128 0x13
	.uleb128 0x3c
	.uleb128 0x19
	.byte	0
	.byte	0
	.uleb128 0x72
	.uleb128 0x39
	.byte	0x1
	.uleb128 0x3
	.uleb128 0xe
	.uleb128 0x3a
	.uleb128 0xb
	.uleb128 0x3b
	.uleb128 0xb
	.uleb128 0x39
	.uleb128 0xb
	.byte	0
	.byte	0
	.uleb128 0x73
	.uleb128 0x34
	.byte	0
	.uleb128 0x3
	.uleb128 0x8
	.uleb128 0x3a
	.uleb128 0x21
	.sleb128 65
	.uleb128 0x3b
	.uleb128 0xb
	.uleb128 0x39
	.uleb128 0xb
	.uleb128 0x49
	.uleb128 0x13
	.uleb128 0x3c
	.uleb128 0x19
	.uleb128 0x1c
	.uleb128 0xa
	.uleb128 0x6c
	.uleb128 0x19
	.byte	0
	.byte	0
	.uleb128 0x74
	.uleb128 0x34
	.byte	0
	.uleb128 0x3
	.uleb128 0xe
	.uleb128 0x3a
	.uleb128 0x21
	.sleb128 65
	.uleb128 0x3b
	.uleb128 0xb
	.uleb128 0x39
	.uleb128 0xb
	.uleb128 0x49
	.uleb128 0x13
	.uleb128 0x3c
	.uleb128 0x19
	.uleb128 0x1c
	.uleb128 0xa
	.uleb128 0x6c
	.uleb128 0x19
	.byte	0
	.byte	0
	.uleb128 0x75
	.uleb128 0xd
	.byte	0
	.uleb128 0x3
	.uleb128 0xe
	.uleb128 0x3a
	.uleb128 0x21
	.sleb128 6
	.uleb128 0x3b
	.uleb128 0xb
	.uleb128 0x39
	.uleb128 0xb
	.uleb128 0x49
	.uleb128 0x13
	.uleb128 0x38
	.uleb128 0xb
	.uleb128 0x32
	.uleb128 0xb
	.byte	0
	.byte	0
	.uleb128 0x76
	.uleb128 0x4107
	.byte	0x1
	.uleb128 0x3
	.uleb128 0x8
	.uleb128 0x1
	.uleb128 0x13
	.byte	0
	.byte	0
	.uleb128 0x77
	.uleb128 0x5
	.byte	0
	.uleb128 0x3
	.uleb128 0xe
	.uleb128 0x3a
	.uleb128 0xb
	.uleb128 0x3b
	.uleb128 0xb
	.uleb128 0x39
	.uleb128 0xb
	.uleb128 0x49
	.uleb128 0x13
	.byte	0
	.byte	0
	.uleb128 0x78
	.uleb128 0x2e
	.byte	0x1
	.uleb128 0x3f
	.uleb128 0x19
	.uleb128 0x3
	.uleb128 0xe
	.uleb128 0x49
	.uleb128 0x13
	.uleb128 0x34
	.uleb128 0x19
	.uleb128 0x3c
	.uleb128 0x19
	.uleb128 0x1
	.uleb128 0x13
	.byte	0
	.byte	0
	.uleb128 0x79
	.uleb128 0x34
	.byte	0
	.uleb128 0x3
	.uleb128 0x8
	.uleb128 0x3a
	.uleb128 0x21
	.sleb128 9
	.uleb128 0x3b
	.uleb128 0x5
	.uleb128 0x39
	.uleb128 0xb
	.uleb128 0x49
	.uleb128 0x13
	.uleb128 0x2
	.uleb128 0x18
	.byte	0
	.byte	0
	.uleb128 0x7a
	.uleb128 0xb
	.byte	0x1
	.uleb128 0x55
	.uleb128 0x17
	.byte	0
	.byte	0
	.uleb128 0x7b
	.uleb128 0x2e
	.byte	0x1
	.uleb128 0x47
	.uleb128 0x13
	.uleb128 0x1
	.uleb128 0x13
	.byte	0
	.byte	0
	.uleb128 0x7c
	.uleb128 0x5
	.byte	0
	.byte	0
	.byte	0
	.uleb128 0x7d
	.uleb128 0xb
	.byte	0x1
	.uleb128 0x31
	.uleb128 0x13
	.uleb128 0x1
	.uleb128 0x13
	.byte	0
	.byte	0
	.uleb128 0x7e
	.uleb128 0x34
	.byte	0
	.uleb128 0x31
	.uleb128 0x13
	.byte	0
	.byte	0
	.uleb128 0x7f
	.uleb128 0xb
	.byte	0x1
	.uleb128 0x31
	.uleb128 0x13
	.uleb128 0x11
	.uleb128 0x1
	.uleb128 0x12
	.uleb128 0x7
	.byte	0
	.byte	0
	.uleb128 0x80
	.uleb128 0x34
	.byte	0
	.uleb128 0x31
	.uleb128 0x13
	.uleb128 0x2
	.uleb128 0x18
	.byte	0
	.byte	0
	.uleb128 0x81
	.uleb128 0x11
	.byte	0x1
	.uleb128 0x25
	.uleb128 0xe
	.uleb128 0x13
	.uleb128 0xb
	.uleb128 0x3
	.uleb128 0x1f
	.uleb128 0x1b
	.uleb128 0x1f
	.uleb128 0x55
	.uleb128 0x17
	.uleb128 0x11
	.uleb128 0x1
	.uleb128 0x10
	.uleb128 0x17
	.byte	0
	.byte	0
	.uleb128 0x82
	.uleb128 0x13
	.byte	0x1
	.uleb128 0x3
	.uleb128 0xe
	.uleb128 0xb
	.uleb128 0xb
	.uleb128 0x3a
	.uleb128 0xb
	.uleb128 0x3b
	.uleb128 0xb
	.uleb128 0x1
	.uleb128 0x13
	.byte	0
	.byte	0
	.uleb128 0x83
	.uleb128 0xf
	.byte	0
	.uleb128 0xb
	.uleb128 0xb
	.byte	0
	.byte	0
	.uleb128 0x84
	.uleb128 0x24
	.byte	0
	.uleb128 0xb
	.uleb128 0xb
	.uleb128 0x3e
	.uleb128 0xb
	.uleb128 0x3
	.uleb128 0x8
	.byte	0
	.byte	0
	.uleb128 0x85
	.uleb128 0x39
	.byte	0x1
	.uleb128 0x3
	.uleb128 0x8
	.uleb128 0x3a
	.uleb128 0xb
	.uleb128 0x3b
	.uleb128 0x5
	.uleb128 0x39
	.uleb128 0xb
	.uleb128 0x1
	.uleb128 0x13
	.byte	0
	.byte	0
	.uleb128 0x86
	.uleb128 0x4
	.byte	0
	.uleb128 0x3
	.uleb128 0xe
	.uleb128 0x6d
	.uleb128 0x19
	.uleb128 0x3e
	.uleb128 0xb
	.uleb128 0xb
	.uleb128 0xb
	.uleb128 0x49
	.uleb128 0x13
	.uleb128 0x3a
	.uleb128 0xb
	.uleb128 0x3b
	.uleb128 0xb
	.uleb128 0x39
	.uleb128 0xb
	.byte	0
	.byte	0
	.uleb128 0x87
	.uleb128 0x2e
	.byte	0x1
	.uleb128 0x3f
	.uleb128 0x19
	.uleb128 0x3
	.uleb128 0xe
	.uleb128 0x3a
	.uleb128 0xb
	.uleb128 0x3b
	.uleb128 0xb
	.uleb128 0x39
	.uleb128 0xb
	.uleb128 0x6e
	.uleb128 0xe
	.uleb128 0x49
	.uleb128 0x13
	.uleb128 0x32
	.uleb128 0xb
	.uleb128 0x3c
	.uleb128 0x19
	.uleb128 0x63
	.uleb128 0x19
	.uleb128 0x64
	.uleb128 0x13
	.uleb128 0x1
	.uleb128 0x13
	.byte	0
	.byte	0
	.uleb128 0x88
	.uleb128 0x2e
	.byte	0x1
	.uleb128 0x3f
	.uleb128 0x19
	.uleb128 0x3
	.uleb128 0xe
	.uleb128 0x3a
	.uleb128 0xb
	.uleb128 0x3b
	.uleb128 0xb
	.uleb128 0x39
	.uleb128 0xb
	.uleb128 0x6e
	.uleb128 0xe
	.uleb128 0x49
	.uleb128 0x13
	.uleb128 0x32
	.uleb128 0xb
	.uleb128 0x3c
	.uleb128 0x19
	.uleb128 0x64
	.uleb128 0x13
	.byte	0
	.byte	0
	.uleb128 0x89
	.uleb128 0x2e
	.byte	0
	.uleb128 0x3f
	.uleb128 0x19
	.uleb128 0x3
	.uleb128 0x8
	.uleb128 0x3a
	.uleb128 0xb
	.uleb128 0x3b
	.uleb128 0x5
	.uleb128 0x39
	.uleb128 0xb
	.uleb128 0x6e
	.uleb128 0xe
	.uleb128 0x49
	.uleb128 0x13
	.uleb128 0x3c
	.uleb128 0x19
	.byte	0
	.byte	0
	.uleb128 0x8a
	.uleb128 0x13
	.byte	0
	.uleb128 0x3
	.uleb128 0xe
	.uleb128 0xb
	.uleb128 0xb
	.uleb128 0x3a
	.uleb128 0xb
	.uleb128 0x3b
	.uleb128 0xb
	.uleb128 0x39
	.uleb128 0xb
	.byte	0
	.byte	0
	.uleb128 0x8b
	.uleb128 0x2e
	.byte	0x1
	.uleb128 0x3f
	.uleb128 0x19
	.uleb128 0x3
	.uleb128 0xe
	.uleb128 0x3a
	.uleb128 0xb
	.uleb128 0x3b
	.uleb128 0xb
	.uleb128 0x39
	.uleb128 0xb
	.uleb128 0x6e
	.uleb128 0xe
	.uleb128 0x3c
	.uleb128 0x19
	.byte	0
	.byte	0
	.uleb128 0x8c
	.uleb128 0x2e
	.byte	0x1
	.uleb128 0x3f
	.uleb128 0x19
	.uleb128 0x3
	.uleb128 0xe
	.uleb128 0x3a
	.uleb128 0xb
	.uleb128 0x3b
	.uleb128 0xb
	.uleb128 0x39
	.uleb128 0xb
	.uleb128 0x6e
	.uleb128 0xe
	.uleb128 0x32
	.uleb128 0xb
	.uleb128 0x3c
	.uleb128 0x19
	.uleb128 0x8b
	.uleb128 0xb
	.uleb128 0x64
	.uleb128 0x13
	.uleb128 0x1
	.uleb128 0x13
	.byte	0
	.byte	0
	.uleb128 0x8d
	.uleb128 0x39
	.byte	0x1
	.uleb128 0x3
	.uleb128 0xe
	.uleb128 0x3a
	.uleb128 0xb
	.uleb128 0x3b
	.uleb128 0x5
	.uleb128 0x39
	.uleb128 0xb
	.uleb128 0x89
	.uleb128 0x19
	.uleb128 0x1
	.uleb128 0x13
	.byte	0
	.byte	0
	.uleb128 0x8e
	.uleb128 0x4
	.byte	0x1
	.uleb128 0x3e
	.uleb128 0xb
	.uleb128 0xb
	.uleb128 0xb
	.uleb128 0x49
	.uleb128 0x13
	.uleb128 0x3a
	.uleb128 0xb
	.uleb128 0x3b
	.uleb128 0xb
	.uleb128 0x39
	.uleb128 0xb
	.uleb128 0x1
	.uleb128 0x13
	.byte	0
	.byte	0
	.uleb128 0x8f
	.uleb128 0x28
	.byte	0
	.uleb128 0x3
	.uleb128 0xe
	.uleb128 0x1c
	.uleb128 0xb
	.byte	0
	.byte	0
	.uleb128 0x90
	.uleb128 0xd
	.byte	0
	.uleb128 0x49
	.uleb128 0x13
	.uleb128 0x38
	.uleb128 0xb
	.byte	0
	.byte	0
	.uleb128 0x91
	.uleb128 0x39
	.byte	0
	.uleb128 0x3
	.uleb128 0x8
	.uleb128 0x3a
	.uleb128 0xb
	.uleb128 0x3b
	.uleb128 0xb
	.uleb128 0x39
	.uleb128 0xb
	.uleb128 0x89
	.uleb128 0x19
	.byte	0
	.byte	0
	.uleb128 0x92
	.uleb128 0x2
	.byte	0x1
	.uleb128 0x3
	.uleb128 0xe
	.uleb128 0xb
	.uleb128 0xb
	.uleb128 0x3a
	.uleb128 0xb
	.uleb128 0x3b
	.uleb128 0x5
	.uleb128 0x39
	.uleb128 0xb
	.uleb128 0x32
	.uleb128 0xb
	.uleb128 0x1
	.uleb128 0x13
	.byte	0
	.byte	0
	.uleb128 0x93
	.uleb128 0x2e
	.byte	0x1
	.uleb128 0x3f
	.uleb128 0x19
	.uleb128 0x3
	.uleb128 0xe
	.uleb128 0x3a
	.uleb128 0xb
	.uleb128 0x3b
	.uleb128 0x5
	.uleb128 0x39
	.uleb128 0xb
	.uleb128 0x6e
	.uleb128 0xe
	.uleb128 0x49
	.uleb128 0x13
	.uleb128 0x32
	.uleb128 0xb
	.uleb128 0x3c
	.uleb128 0x19
	.uleb128 0x8b
	.uleb128 0xb
	.uleb128 0x64
	.uleb128 0x13
	.byte	0
	.byte	0
	.uleb128 0x94
	.uleb128 0x34
	.byte	0
	.uleb128 0x3
	.uleb128 0xe
	.uleb128 0x3a
	.uleb128 0xb
	.uleb128 0x3b
	.uleb128 0xb
	.uleb128 0x39
	.uleb128 0xb
	.uleb128 0x6e
	.uleb128 0xe
	.uleb128 0x49
	.uleb128 0x13
	.uleb128 0x3f
	.uleb128 0x19
	.uleb128 0x3c
	.uleb128 0x19
	.byte	0
	.byte	0
	.uleb128 0x95
	.uleb128 0x34
	.byte	0
	.uleb128 0x3
	.uleb128 0xe
	.uleb128 0x3a
	.uleb128 0xb
	.uleb128 0x3b
	.uleb128 0xb
	.uleb128 0x39
	.uleb128 0xb
	.uleb128 0x49
	.uleb128 0x13
	.uleb128 0x3c
	.uleb128 0x19
	.byte	0
	.byte	0
	.uleb128 0x96
	.uleb128 0x2e
	.byte	0x1
	.uleb128 0x3f
	.uleb128 0x19
	.uleb128 0x3
	.uleb128 0xe
	.uleb128 0x3a
	.uleb128 0xb
	.uleb128 0x3b
	.uleb128 0xb
	.uleb128 0x39
	.uleb128 0xb
	.uleb128 0x6e
	.uleb128 0xe
	.uleb128 0x32
	.uleb128 0xb
	.uleb128 0x3c
	.uleb128 0x19
	.uleb128 0x63
	.uleb128 0x19
	.uleb128 0x64
	.uleb128 0x13
	.uleb128 0x20
	.uleb128 0xb
	.uleb128 0x1
	.uleb128 0x13
	.byte	0
	.byte	0
	.uleb128 0x97
	.uleb128 0x2e
	.byte	0x1
	.uleb128 0x3f
	.uleb128 0x19
	.uleb128 0x3
	.uleb128 0xe
	.uleb128 0x3a
	.uleb128 0xb
	.uleb128 0x3b
	.uleb128 0xb
	.uleb128 0x39
	.uleb128 0xb
	.uleb128 0x6e
	.uleb128 0xe
	.uleb128 0x4c
	.uleb128 0xb
	.uleb128 0x1d
	.uleb128 0x13
	.uleb128 0x32
	.uleb128 0xb
	.uleb128 0x3c
	.uleb128 0x19
	.uleb128 0x64
	.uleb128 0x13
	.uleb128 0x20
	.uleb128 0xb
	.uleb128 0x1
	.uleb128 0x13
	.byte	0
	.byte	0
	.uleb128 0x98
	.uleb128 0x2e
	.byte	0x1
	.uleb128 0x3f
	.uleb128 0x19
	.uleb128 0x3
	.uleb128 0xe
	.uleb128 0x3a
	.uleb128 0xb
	.uleb128 0x3b
	.uleb128 0xb
	.uleb128 0x39
	.uleb128 0xb
	.uleb128 0x6e
	.uleb128 0xe
	.uleb128 0x32
	.uleb128 0xb
	.uleb128 0x3c
	.uleb128 0x19
	.uleb128 0x63
	.uleb128 0x19
	.uleb128 0x64
	.uleb128 0x13
	.uleb128 0x20
	.uleb128 0xb
	.byte	0
	.byte	0
	.uleb128 0x99
	.uleb128 0x13
	.byte	0x1
	.uleb128 0x3
	.uleb128 0x8
	.uleb128 0xb
	.uleb128 0xb
	.uleb128 0x3a
	.uleb128 0xb
	.uleb128 0x3b
	.uleb128 0xb
	.uleb128 0x39
	.uleb128 0xb
	.uleb128 0x1
	.uleb128 0x13
	.byte	0
	.byte	0
	.uleb128 0x9a
	.uleb128 0x2e
	.byte	0
	.uleb128 0x3f
	.uleb128 0x19
	.uleb128 0x3
	.uleb128 0x8
	.uleb128 0x3a
	.uleb128 0xb
	.uleb128 0x3b
	.uleb128 0xb
	.uleb128 0x39
	.uleb128 0xb
	.uleb128 0x6e
	.uleb128 0xe
	.uleb128 0x49
	.uleb128 0x13
	.uleb128 0x3c
	.uleb128 0x19
	.byte	0
	.byte	0
	.uleb128 0x9b
	.uleb128 0x3b
	.byte	0
	.uleb128 0x3
	.uleb128 0xe
	.byte	0
	.byte	0
	.uleb128 0x9c
	.uleb128 0x15
	.byte	0x1
	.uleb128 0x1
	.uleb128 0x13
	.byte	0
	.byte	0
	.uleb128 0x9d
	.uleb128 0x26
	.byte	0
	.byte	0
	.byte	0
	.uleb128 0x9e
	.uleb128 0x3a
	.byte	0
	.uleb128 0x3a
	.uleb128 0xb
	.uleb128 0x3b
	.uleb128 0xb
	.uleb128 0x39
	.uleb128 0xb
	.uleb128 0x18
	.uleb128 0x13
	.byte	0
	.byte	0
	.uleb128 0x9f
	.uleb128 0x15
	.byte	0x1
	.uleb128 0x49
	.uleb128 0x13
	.uleb128 0x1
	.uleb128 0x13
	.byte	0
	.byte	0
	.uleb128 0xa0
	.uleb128 0x15
	.byte	0
	.byte	0
	.byte	0
	.uleb128 0xa1
	.uleb128 0x2e
	.byte	0x1
	.uleb128 0x3f
	.uleb128 0x19
	.uleb128 0x3
	.uleb128 0x8
	.uleb128 0x3a
	.uleb128 0xb
	.uleb128 0x3b
	.uleb128 0x5
	.uleb128 0x39
	.uleb128 0xb
	.uleb128 0x49
	.uleb128 0x13
	.uleb128 0x3c
	.uleb128 0x19
	.uleb128 0x1
	.uleb128 0x13
	.byte	0
	.byte	0
	.uleb128 0xa2
	.uleb128 0x2e
	.byte	0x1
	.uleb128 0x3f
	.uleb128 0x19
	.uleb128 0x3
	.uleb128 0xe
	.uleb128 0x3a
	.uleb128 0xb
	.uleb128 0x3b
	.uleb128 0x5
	.uleb128 0x39
	.uleb128 0xb
	.uleb128 0x87
	.uleb128 0x19
	.uleb128 0x3c
	.uleb128 0x19
	.uleb128 0x1
	.uleb128 0x13
	.byte	0
	.byte	0
	.uleb128 0xa3
	.uleb128 0x16
	.byte	0
	.uleb128 0x3
	.uleb128 0xe
	.uleb128 0x3a
	.uleb128 0xb
	.uleb128 0x3b
	.uleb128 0xb
	.uleb128 0x39
	.uleb128 0xb
	.byte	0
	.byte	0
	.uleb128 0xa4
	.uleb128 0x34
	.byte	0
	.uleb128 0x47
	.uleb128 0x13
	.uleb128 0x2
	.uleb128 0x18
	.byte	0
	.byte	0
	.uleb128 0xa5
	.uleb128 0x39
	.byte	0x1
	.uleb128 0x3
	.uleb128 0x8
	.uleb128 0x3a
	.uleb128 0xb
	.uleb128 0x3b
	.uleb128 0xb
	.uleb128 0x39
	.uleb128 0xb
	.uleb128 0x89
	.uleb128 0x19
	.byte	0
	.byte	0
	.uleb128 0xa6
	.uleb128 0x2e
	.byte	0x1
	.uleb128 0x3f
	.uleb128 0x19
	.uleb128 0x3
	.uleb128 0xe
	.uleb128 0x6e
	.uleb128 0xe
	.uleb128 0x34
	.uleb128 0x19
	.uleb128 0x32
	.uleb128 0xb
	.uleb128 0x3c
	.uleb128 0x19
	.uleb128 0x64
	.uleb128 0x13
	.uleb128 0x1
	.uleb128 0x13
	.byte	0
	.byte	0
	.uleb128 0xa7
	.uleb128 0x4107
	.byte	0x1
	.uleb128 0x3
	.uleb128 0xe
	.uleb128 0x3a
	.uleb128 0xb
	.uleb128 0x3b
	.uleb128 0xb
	.uleb128 0x39
	.uleb128 0xb
	.byte	0
	.byte	0
	.uleb128 0xa8
	.uleb128 0x34
	.byte	0
	.uleb128 0x3
	.uleb128 0xe
	.uleb128 0x49
	.uleb128 0x13
	.uleb128 0x3f
	.uleb128 0x19
	.uleb128 0x34
	.uleb128 0x19
	.uleb128 0x3c
	.uleb128 0x19
	.byte	0
	.byte	0
	.uleb128 0xa9
	.uleb128 0x2e
	.byte	0
	.uleb128 0x3f
	.uleb128 0x19
	.uleb128 0x3
	.uleb128 0xe
	.uleb128 0x34
	.uleb128 0x19
	.uleb128 0x3c
	.uleb128 0x19
	.byte	0
	.byte	0
	.uleb128 0xaa
	.uleb128 0x2e
	.byte	0
	.uleb128 0x3f
	.uleb128 0x19
	.uleb128 0x3
	.uleb128 0xe
	.uleb128 0x34
	.uleb128 0x19
	.uleb128 0x87
	.uleb128 0x19
	.uleb128 0x3c
	.uleb128 0x19
	.byte	0
	.byte	0
	.uleb128 0xab
	.uleb128 0x2e
	.byte	0x1
	.uleb128 0x3f
	.uleb128 0x19
	.uleb128 0x3
	.uleb128 0xe
	.uleb128 0x34
	.uleb128 0x19
	.uleb128 0x3c
	.uleb128 0x19
	.uleb128 0x1
	.uleb128 0x13
	.byte	0
	.byte	0
	.uleb128 0xac
	.uleb128 0x2e
	.byte	0x1
	.uleb128 0x3f
	.uleb128 0x19
	.uleb128 0x3
	.uleb128 0xe
	.uleb128 0x34
	.uleb128 0x19
	.uleb128 0x87
	.uleb128 0x19
	.uleb128 0x3c
	.uleb128 0x19
	.uleb128 0x1
	.uleb128 0x13
	.byte	0
	.byte	0
	.uleb128 0xad
	.uleb128 0x2e
	.byte	0
	.uleb128 0x3
	.uleb128 0xe
	.uleb128 0x34
	.uleb128 0x19
	.uleb128 0x11
	.uleb128 0x1
	.uleb128 0x12
	.uleb128 0x7
	.uleb128 0x40
	.uleb128 0x18
	.uleb128 0x7c
	.uleb128 0x19
	.byte	0
	.byte	0
	.uleb128 0xae
	.uleb128 0x2e
	.byte	0x1
	.uleb128 0x3
	.uleb128 0xe
	.uleb128 0x34
	.uleb128 0x19
	.uleb128 0x11
	.uleb128 0x1
	.uleb128 0x12
	.uleb128 0x7
	.uleb128 0x40
	.uleb128 0x18
	.uleb128 0x7c
	.uleb128 0x19
	.uleb128 0x1
	.uleb128 0x13
	.byte	0
	.byte	0
	.uleb128 0xaf
	.uleb128 0x4108
	.byte	0
	.uleb128 0x3a
	.uleb128 0xb
	.uleb128 0x3b
	.uleb128 0xb
	.uleb128 0x39
	.uleb128 0xb
	.byte	0
	.byte	0
	.uleb128 0xb0
	.uleb128 0x34
	.byte	0
	.uleb128 0x3
	.uleb128 0xe
	.uleb128 0x3a
	.uleb128 0xb
	.uleb128 0x3b
	.uleb128 0x5
	.uleb128 0x39
	.uleb128 0xb
	.uleb128 0x49
	.uleb128 0x13
	.uleb128 0x6c
	.uleb128 0x19
	.uleb128 0x2
	.uleb128 0x18
	.byte	0
	.byte	0
	.uleb128 0xb1
	.uleb128 0x2e
	.byte	0
	.uleb128 0x47
	.uleb128 0x13
	.uleb128 0x20
	.uleb128 0xb
	.byte	0
	.byte	0
	.uleb128 0xb2
	.uleb128 0x2e
	.byte	0x1
	.uleb128 0x3f
	.uleb128 0x19
	.uleb128 0x3
	.uleb128 0xe
	.uleb128 0x3a
	.uleb128 0xb
	.uleb128 0x3b
	.uleb128 0xb
	.uleb128 0x39
	.uleb128 0xb
	.uleb128 0x6e
	.uleb128 0xe
	.uleb128 0x63
	.uleb128 0x19
	.uleb128 0x64
	.uleb128 0x13
	.uleb128 0x20
	.uleb128 0xb
	.uleb128 0x1
	.uleb128 0x13
	.byte	0
	.byte	0
	.uleb128 0xb3
	.uleb128 0x2e
	.byte	0x1
	.uleb128 0x3f
	.uleb128 0x19
	.uleb128 0x3
	.uleb128 0xe
	.uleb128 0x3a
	.uleb128 0xb
	.uleb128 0x3b
	.uleb128 0xb
	.uleb128 0x39
	.uleb128 0xb
	.uleb128 0x6e
	.uleb128 0xe
	.uleb128 0x64
	.uleb128 0x13
	.uleb128 0x20
	.uleb128 0xb
	.uleb128 0x1
	.uleb128 0x13
	.byte	0
	.byte	0
	.uleb128 0xb4
	.uleb128 0x2e
	.byte	0x1
	.uleb128 0x31
	.uleb128 0x13
	.uleb128 0x6e
	.uleb128 0xe
	.uleb128 0x64
	.uleb128 0x13
	.uleb128 0x11
	.uleb128 0x1
	.uleb128 0x12
	.uleb128 0x7
	.uleb128 0x40
	.uleb128 0x18
	.uleb128 0x7c
	.uleb128 0x19
	.byte	0
	.byte	0
	.uleb128 0xb5
	.uleb128 0x1d
	.byte	0x1
	.uleb128 0x31
	.uleb128 0x13
	.uleb128 0x11
	.uleb128 0x1
	.uleb128 0x12
	.uleb128 0x7
	.uleb128 0x58
	.uleb128 0xb
	.uleb128 0x59
	.uleb128 0xb
	.uleb128 0x57
	.uleb128 0xb
	.byte	0
	.byte	0
	.uleb128 0xb6
	.uleb128 0x4108
	.byte	0x1
	.uleb128 0x3a
	.uleb128 0xb
	.uleb128 0x3b
	.uleb128 0xb
	.uleb128 0x39
	.uleb128 0xb
	.uleb128 0x1
	.uleb128 0x13
	.byte	0
	.byte	0
	.uleb128 0xb7
	.uleb128 0x13
	.byte	0x1
	.uleb128 0xb
	.uleb128 0xb
	.uleb128 0x3a
	.uleb128 0xb
	.uleb128 0x3b
	.uleb128 0xb
	.uleb128 0x39
	.uleb128 0xb
	.byte	0
	.byte	0
	.uleb128 0xb8
	.uleb128 0x2e
	.byte	0x1
	.uleb128 0x3f
	.uleb128 0x19
	.uleb128 0x3
	.uleb128 0xe
	.uleb128 0x6e
	.uleb128 0xe
	.uleb128 0x34
	.uleb128 0x19
	.uleb128 0x3c
	.uleb128 0x19
	.uleb128 0x8a
	.uleb128 0x19
	.uleb128 0x64
	.uleb128 0x13
	.uleb128 0x1
	.uleb128 0x13
	.byte	0
	.byte	0
	.uleb128 0xb9
	.uleb128 0x2e
	.byte	0x1
	.uleb128 0x3f
	.uleb128 0x19
	.uleb128 0x3
	.uleb128 0xe
	.uleb128 0x6e
	.uleb128 0xe
	.uleb128 0x34
	.uleb128 0x19
	.uleb128 0x64
	.uleb128 0x13
	.uleb128 0x11
	.uleb128 0x1
	.uleb128 0x12
	.uleb128 0x7
	.uleb128 0x40
	.uleb128 0x18
	.uleb128 0x7a
	.uleb128 0x19
	.byte	0
	.byte	0
	.uleb128 0xba
	.uleb128 0x34
	.byte	0
	.uleb128 0x3
	.uleb128 0xe
	.uleb128 0x49
	.uleb128 0x13
	.uleb128 0x34
	.uleb128 0x19
	.uleb128 0x2
	.uleb128 0x18
	.byte	0
	.byte	0
	.uleb128 0xbb
	.uleb128 0x34
	.byte	0
	.uleb128 0x3
	.uleb128 0xe
	.uleb128 0x3a
	.uleb128 0xb
	.uleb128 0x3b
	.uleb128 0x5
	.uleb128 0x39
	.uleb128 0xb
	.uleb128 0x49
	.uleb128 0x13
	.byte	0
	.byte	0
	.uleb128 0xbc
	.uleb128 0x34
	.byte	0
	.uleb128 0x3
	.uleb128 0xe
	.uleb128 0x3a
	.uleb128 0xb
	.uleb128 0x3b
	.uleb128 0xb
	.uleb128 0x39
	.uleb128 0xb
	.uleb128 0x6e
	.uleb128 0xe
	.uleb128 0x49
	.uleb128 0x13
	.uleb128 0x3f
	.uleb128 0x19
	.uleb128 0x6c
	.uleb128 0x19
	.uleb128 0x2
	.uleb128 0x18
	.byte	0
	.byte	0
	.uleb128 0xbd
	.uleb128 0xb
	.byte	0x1
	.uleb128 0x11
	.uleb128 0x1
	.uleb128 0x12
	.uleb128 0x7
	.uleb128 0x1
	.uleb128 0x13
	.byte	0
	.byte	0
	.uleb128 0xbe
	.uleb128 0x2e
	.byte	0x1
	.uleb128 0x3f
	.uleb128 0x19
	.uleb128 0x3
	.uleb128 0xe
	.uleb128 0x3a
	.uleb128 0xb
	.uleb128 0x3b
	.uleb128 0xb
	.uleb128 0x39
	.uleb128 0xb
	.uleb128 0x49
	.uleb128 0x13
	.uleb128 0x11
	.uleb128 0x1
	.uleb128 0x12
	.uleb128 0x7
	.uleb128 0x40
	.uleb128 0x18
	.uleb128 0x7c
	.uleb128 0x19
	.uleb128 0x1
	.uleb128 0x13
	.byte	0
	.byte	0
	.uleb128 0xbf
	.uleb128 0x2e
	.byte	0x1
	.uleb128 0x3f
	.uleb128 0x19
	.uleb128 0x3
	.uleb128 0xe
	.uleb128 0x3a
	.uleb128 0xb
	.uleb128 0x3b
	.uleb128 0xb
	.uleb128 0x39
	.uleb128 0xb
	.uleb128 0x6e
	.uleb128 0xe
	.uleb128 0x49
	.uleb128 0x13
	.uleb128 0x11
	.uleb128 0x1
	.uleb128 0x12
	.uleb128 0x7
	.uleb128 0x40
	.uleb128 0x18
	.uleb128 0x7a
	.uleb128 0x19
	.uleb128 0x1
	.uleb128 0x13
	.byte	0
	.byte	0
	.uleb128 0xc0
	.uleb128 0x2e
	.byte	0
	.uleb128 0x47
	.uleb128 0x13
	.uleb128 0x11
	.uleb128 0x1
	.uleb128 0x12
	.uleb128 0x7
	.uleb128 0x40
	.uleb128 0x18
	.uleb128 0x7a
	.uleb128 0x19
	.byte	0
	.byte	0
	.byte	0
	.section	.debug_aranges,"",@progbits
	.long	0x84c
	.value	0x2
	.long	.Ldebug_info0
	.byte	0x8
	.byte	0
	.value	0
	.value	0
	.quad	.Ltext0
	.quad	.Letext0-.Ltext0
	.quad	.LFB1
	.quad	.LFE1-.LFB1
	.quad	.LFB40
	.quad	.LFE40-.LFB40
	.quad	.LFB119
	.quad	.LFE119-.LFB119
	.quad	.LFB652
	.quad	.LFE652-.LFB652
	.quad	.LFB1163
	.quad	.LFE1163-.LFB1163
	.quad	.LFB2561
	.quad	.LFE2561-.LFB2561
	.quad	.LFB2563
	.quad	.LFE2563-.LFB2563
	.quad	.LFB2663
	.quad	.LFE2663-.LFB2663
	.quad	.LFB2672
	.quad	.LFE2672-.LFB2672
	.quad	.LFB2674
	.quad	.LFE2674-.LFB2674
	.quad	.LFB2680
	.quad	.LFE2680-.LFB2680
	.quad	.LFB2827
	.quad	.LFE2827-.LFB2827
	.quad	.LFB2837
	.quad	.LFE2837-.LFB2837
	.quad	.LFB2839
	.quad	.LFE2839-.LFB2839
	.quad	.LFB2841
	.quad	.LFE2841-.LFB2841
	.quad	.LFB2843
	.quad	.LFE2843-.LFB2843
	.quad	.LFB2844
	.quad	.LFE2844-.LFB2844
	.quad	.LFB2847
	.quad	.LFE2847-.LFB2847
	.quad	.LFB2850
	.quad	.LFE2850-.LFB2850
	.quad	.LFB2852
	.quad	.LFE2852-.LFB2852
	.quad	.LFB2853
	.quad	.LFE2853-.LFB2853
	.quad	.LFB2855
	.quad	.LFE2855-.LFB2855
	.quad	.LFB2892
	.quad	.LFE2892-.LFB2892
	.quad	.LFB2895
	.quad	.LFE2895-.LFB2895
	.quad	.LFB2890
	.quad	.LFE2890-.LFB2890
	.quad	.LFB2961
	.quad	.LFE2961-.LFB2961
	.quad	.LFB2964
	.quad	.LFE2964-.LFB2964
	.quad	.LFB2967
	.quad	.LFE2967-.LFB2967
	.quad	.LFB2970
	.quad	.LFE2970-.LFB2970
	.quad	.LFB2973
	.quad	.LFE2973-.LFB2973
	.quad	.LFB2976
	.quad	.LFE2976-.LFB2976
	.quad	.LFB2978
	.quad	.LFE2978-.LFB2978
	.quad	.LFB2979
	.quad	.LFE2979-.LFB2979
	.quad	.LFB2980
	.quad	.LFE2980-.LFB2980
	.quad	.LFB2981
	.quad	.LFE2981-.LFB2981
	.quad	.LFB2982
	.quad	.LFE2982-.LFB2982
	.quad	.LFB2983
	.quad	.LFE2983-.LFB2983
	.quad	.LFB2986
	.quad	.LFE2986-.LFB2986
	.quad	.LFB2988
	.quad	.LFE2988-.LFB2988
	.quad	.LFB2990
	.quad	.LFE2990-.LFB2990
	.quad	.LFB2991
	.quad	.LFE2991-.LFB2991
	.quad	.LFB2992
	.quad	.LFE2992-.LFB2992
	.quad	.LFB2993
	.quad	.LFE2993-.LFB2993
	.quad	.LFB2994
	.quad	.LFE2994-.LFB2994
	.quad	.LFB2995
	.quad	.LFE2995-.LFB2995
	.quad	.LFB3020
	.quad	.LFE3020-.LFB3020
	.quad	.LFB3065
	.quad	.LFE3065-.LFB3065
	.quad	.LFB3068
	.quad	.LFE3068-.LFB3068
	.quad	.LFB3071
	.quad	.LFE3071-.LFB3071
	.quad	.LFB3073
	.quad	.LFE3073-.LFB3073
	.quad	.LFB3075
	.quad	.LFE3075-.LFB3075
	.quad	.LFB3078
	.quad	.LFE3078-.LFB3078
	.quad	.LFB3081
	.quad	.LFE3081-.LFB3081
	.quad	.LFB3083
	.quad	.LFE3083-.LFB3083
	.quad	.LFB3084
	.quad	.LFE3084-.LFB3084
	.quad	.LFB3086
	.quad	.LFE3086-.LFB3086
	.quad	.LFB3085
	.quad	.LFE3085-.LFB3085
	.quad	.LFB3088
	.quad	.LFE3088-.LFB3088
	.quad	.LFB3090
	.quad	.LFE3090-.LFB3090
	.quad	.LFB3091
	.quad	.LFE3091-.LFB3091
	.quad	.LFB3092
	.quad	.LFE3092-.LFB3092
	.quad	.LFB3093
	.quad	.LFE3093-.LFB3093
	.quad	.LFB3094
	.quad	.LFE3094-.LFB3094
	.quad	.LFB3099
	.quad	.LFE3099-.LFB3099
	.quad	.LFB3100
	.quad	.LFE3100-.LFB3100
	.quad	.LFB3101
	.quad	.LFE3101-.LFB3101
	.quad	.LFB3102
	.quad	.LFE3102-.LFB3102
	.quad	.LFB3116
	.quad	.LFE3116-.LFB3116
	.quad	.LFB3117
	.quad	.LFE3117-.LFB3117
	.quad	.LFB3158
	.quad	.LFE3158-.LFB3158
	.quad	.LFB3160
	.quad	.LFE3160-.LFB3160
	.quad	.LFB3162
	.quad	.LFE3162-.LFB3162
	.quad	.LFB3164
	.quad	.LFE3164-.LFB3164
	.quad	.LFB3165
	.quad	.LFE3165-.LFB3165
	.quad	.LFB3166
	.quad	.LFE3166-.LFB3166
	.quad	.LFB3167
	.quad	.LFE3167-.LFB3167
	.quad	.LFB3168
	.quad	.LFE3168-.LFB3168
	.quad	.LFB3169
	.quad	.LFE3169-.LFB3169
	.quad	.LFB3170
	.quad	.LFE3170-.LFB3170
	.quad	.LFB3171
	.quad	.LFE3171-.LFB3171
	.quad	.LFB3172
	.quad	.LFE3172-.LFB3172
	.quad	.LFB3173
	.quad	.LFE3173-.LFB3173
	.quad	.LFB3174
	.quad	.LFE3174-.LFB3174
	.quad	.LFB3175
	.quad	.LFE3175-.LFB3175
	.quad	.LFB3176
	.quad	.LFE3176-.LFB3176
	.quad	.LFB3177
	.quad	.LFE3177-.LFB3177
	.quad	.LFB3178
	.quad	.LFE3178-.LFB3178
	.quad	.LFB3200
	.quad	.LFE3200-.LFB3200
	.quad	.LFB3202
	.quad	.LFE3202-.LFB3202
	.quad	.LFB3205
	.quad	.LFE3205-.LFB3205
	.quad	.LFB3207
	.quad	.LFE3207-.LFB3207
	.quad	.LFB3208
	.quad	.LFE3208-.LFB3208
	.quad	.LFB3209
	.quad	.LFE3209-.LFB3209
	.quad	.LFB3211
	.quad	.LFE3211-.LFB3211
	.quad	.LFB3212
	.quad	.LFE3212-.LFB3212
	.quad	.LFB3213
	.quad	.LFE3213-.LFB3213
	.quad	.LFB3214
	.quad	.LFE3214-.LFB3214
	.quad	.LFB3215
	.quad	.LFE3215-.LFB3215
	.quad	.LFB3216
	.quad	.LFE3216-.LFB3216
	.quad	.LFB3217
	.quad	.LFE3217-.LFB3217
	.quad	.LFB3228
	.quad	.LFE3228-.LFB3228
	.quad	.LFB3230
	.quad	.LFE3230-.LFB3230
	.quad	.LFB3231
	.quad	.LFE3231-.LFB3231
	.quad	.LFB3232
	.quad	.LFE3232-.LFB3232
	.quad	.LFB3233
	.quad	.LFE3233-.LFB3233
	.quad	.LFB3234
	.quad	.LFE3234-.LFB3234
	.quad	.LFB3235
	.quad	.LFE3235-.LFB3235
	.quad	.LFB3236
	.quad	.LFE3236-.LFB3236
	.quad	.LFB3237
	.quad	.LFE3237-.LFB3237
	.quad	.LFB3238
	.quad	.LFE3238-.LFB3238
	.quad	.LFB3243
	.quad	.LFE3243-.LFB3243
	.quad	.LFB3244
	.quad	.LFE3244-.LFB3244
	.quad	.LFB3245
	.quad	.LFE3245-.LFB3245
	.quad	.LFB3246
	.quad	.LFE3246-.LFB3246
	.quad	.LFB3247
	.quad	.LFE3247-.LFB3247
	.quad	.LFB3248
	.quad	.LFE3248-.LFB3248
	.quad	.LFB3249
	.quad	.LFE3249-.LFB3249
	.quad	.LFB3250
	.quad	.LFE3250-.LFB3250
	.quad	.LFB3251
	.quad	.LFE3251-.LFB3251
	.quad	.LFB3252
	.quad	.LFE3252-.LFB3252
	.quad	.LFB3255
	.quad	.LFE3255-.LFB3255
	.quad	.LFB3256
	.quad	.LFE3256-.LFB3256
	.quad	.LFB3257
	.quad	.LFE3257-.LFB3257
	.quad	.LFB3258
	.quad	.LFE3258-.LFB3258
	.quad	.LFB3259
	.quad	.LFE3259-.LFB3259
	.quad	.LFB3260
	.quad	.LFE3260-.LFB3260
	.quad	.LFB3261
	.quad	.LFE3261-.LFB3261
	.quad	.LFB3262
	.quad	.LFE3262-.LFB3262
	.quad	.LFB3263
	.quad	.LFE3263-.LFB3263
	.quad	.LFB3264
	.quad	.LFE3264-.LFB3264
	.quad	0
	.quad	0
	.section	.debug_rnglists,"",@progbits
.Ldebug_ranges0:
	.long	.Ldebug_ranges3-.Ldebug_ranges2
.Ldebug_ranges2:
	.value	0x5
	.byte	0x8
	.byte	0
	.long	0
.LLRL0:
	.byte	0x5
	.quad	.LBB41
	.byte	0x4
	.uleb128 .LBB41-.LBB41
	.uleb128 .LBE41-.LBB41
	.byte	0x4
	.uleb128 .LBB47-.LBB41
	.uleb128 .LBE47-.LBB41
	.byte	0x4
	.uleb128 .LBB48-.LBB41
	.uleb128 .LBE48-.LBB41
	.byte	0
.LLRL1:
	.byte	0x5
	.quad	.LBB43
	.byte	0x4
	.uleb128 .LBB43-.LBB43
	.uleb128 .LBE43-.LBB43
	.byte	0x4
	.uleb128 .LBB44-.LBB43
	.uleb128 .LBE44-.LBB43
	.byte	0
.LLRL2:
	.byte	0x7
	.quad	.Ltext0
	.uleb128 .Letext0-.Ltext0
	.byte	0x7
	.quad	.LFB1
	.uleb128 .LFE1-.LFB1
	.byte	0x7
	.quad	.LFB40
	.uleb128 .LFE40-.LFB40
	.byte	0x7
	.quad	.LFB119
	.uleb128 .LFE119-.LFB119
	.byte	0x7
	.quad	.LFB652
	.uleb128 .LFE652-.LFB652
	.byte	0x7
	.quad	.LFB1163
	.uleb128 .LFE1163-.LFB1163
	.byte	0x7
	.quad	.LFB2561
	.uleb128 .LFE2561-.LFB2561
	.byte	0x7
	.quad	.LFB2563
	.uleb128 .LFE2563-.LFB2563
	.byte	0x7
	.quad	.LFB2663
	.uleb128 .LFE2663-.LFB2663
	.byte	0x7
	.quad	.LFB2672
	.uleb128 .LFE2672-.LFB2672
	.byte	0x7
	.quad	.LFB2674
	.uleb128 .LFE2674-.LFB2674
	.byte	0x7
	.quad	.LFB2680
	.uleb128 .LFE2680-.LFB2680
	.byte	0x7
	.quad	.LFB2827
	.uleb128 .LFE2827-.LFB2827
	.byte	0x7
	.quad	.LFB2837
	.uleb128 .LFE2837-.LFB2837
	.byte	0x7
	.quad	.LFB2839
	.uleb128 .LFE2839-.LFB2839
	.byte	0x7
	.quad	.LFB2841
	.uleb128 .LFE2841-.LFB2841
	.byte	0x7
	.quad	.LFB2843
	.uleb128 .LFE2843-.LFB2843
	.byte	0x7
	.quad	.LFB2844
	.uleb128 .LFE2844-.LFB2844
	.byte	0x7
	.quad	.LFB2847
	.uleb128 .LFE2847-.LFB2847
	.byte	0x7
	.quad	.LFB2850
	.uleb128 .LFE2850-.LFB2850
	.byte	0x7
	.quad	.LFB2852
	.uleb128 .LFE2852-.LFB2852
	.byte	0x7
	.quad	.LFB2853
	.uleb128 .LFE2853-.LFB2853
	.byte	0x7
	.quad	.LFB2855
	.uleb128 .LFE2855-.LFB2855
	.byte	0x7
	.quad	.LFB2892
	.uleb128 .LFE2892-.LFB2892
	.byte	0x7
	.quad	.LFB2895
	.uleb128 .LFE2895-.LFB2895
	.byte	0x7
	.quad	.LFB2890
	.uleb128 .LFE2890-.LFB2890
	.byte	0x7
	.quad	.LFB2961
	.uleb128 .LFE2961-.LFB2961
	.byte	0x7
	.quad	.LFB2964
	.uleb128 .LFE2964-.LFB2964
	.byte	0x7
	.quad	.LFB2967
	.uleb128 .LFE2967-.LFB2967
	.byte	0x7
	.quad	.LFB2970
	.uleb128 .LFE2970-.LFB2970
	.byte	0x7
	.quad	.LFB2973
	.uleb128 .LFE2973-.LFB2973
	.byte	0x7
	.quad	.LFB2976
	.uleb128 .LFE2976-.LFB2976
	.byte	0x7
	.quad	.LFB2978
	.uleb128 .LFE2978-.LFB2978
	.byte	0x7
	.quad	.LFB2979
	.uleb128 .LFE2979-.LFB2979
	.byte	0x7
	.quad	.LFB2980
	.uleb128 .LFE2980-.LFB2980
	.byte	0x7
	.quad	.LFB2981
	.uleb128 .LFE2981-.LFB2981
	.byte	0x7
	.quad	.LFB2982
	.uleb128 .LFE2982-.LFB2982
	.byte	0x7
	.quad	.LFB2983
	.uleb128 .LFE2983-.LFB2983
	.byte	0x7
	.quad	.LFB2986
	.uleb128 .LFE2986-.LFB2986
	.byte	0x7
	.quad	.LFB2988
	.uleb128 .LFE2988-.LFB2988
	.byte	0x7
	.quad	.LFB2990
	.uleb128 .LFE2990-.LFB2990
	.byte	0x7
	.quad	.LFB2991
	.uleb128 .LFE2991-.LFB2991
	.byte	0x7
	.quad	.LFB2992
	.uleb128 .LFE2992-.LFB2992
	.byte	0x7
	.quad	.LFB2993
	.uleb128 .LFE2993-.LFB2993
	.byte	0x7
	.quad	.LFB2994
	.uleb128 .LFE2994-.LFB2994
	.byte	0x7
	.quad	.LFB2995
	.uleb128 .LFE2995-.LFB2995
	.byte	0x7
	.quad	.LFB3020
	.uleb128 .LFE3020-.LFB3020
	.byte	0x7
	.quad	.LFB3065
	.uleb128 .LFE3065-.LFB3065
	.byte	0x7
	.quad	.LFB3068
	.uleb128 .LFE3068-.LFB3068
	.byte	0x7
	.quad	.LFB3071
	.uleb128 .LFE3071-.LFB3071
	.byte	0x7
	.quad	.LFB3073
	.uleb128 .LFE3073-.LFB3073
	.byte	0x7
	.quad	.LFB3075
	.uleb128 .LFE3075-.LFB3075
	.byte	0x7
	.quad	.LFB3078
	.uleb128 .LFE3078-.LFB3078
	.byte	0x7
	.quad	.LFB3081
	.uleb128 .LFE3081-.LFB3081
	.byte	0x7
	.quad	.LFB3083
	.uleb128 .LFE3083-.LFB3083
	.byte	0x7
	.quad	.LFB3084
	.uleb128 .LFE3084-.LFB3084
	.byte	0x7
	.quad	.LFB3086
	.uleb128 .LFE3086-.LFB3086
	.byte	0x7
	.quad	.LFB3085
	.uleb128 .LFE3085-.LFB3085
	.byte	0x7
	.quad	.LFB3088
	.uleb128 .LFE3088-.LFB3088
	.byte	0x7
	.quad	.LFB3090
	.uleb128 .LFE3090-.LFB3090
	.byte	0x7
	.quad	.LFB3091
	.uleb128 .LFE3091-.LFB3091
	.byte	0x7
	.quad	.LFB3092
	.uleb128 .LFE3092-.LFB3092
	.byte	0x7
	.quad	.LFB3093
	.uleb128 .LFE3093-.LFB3093
	.byte	0x7
	.quad	.LFB3094
	.uleb128 .LFE3094-.LFB3094
	.byte	0x7
	.quad	.LFB3099
	.uleb128 .LFE3099-.LFB3099
	.byte	0x7
	.quad	.LFB3100
	.uleb128 .LFE3100-.LFB3100
	.byte	0x7
	.quad	.LFB3101
	.uleb128 .LFE3101-.LFB3101
	.byte	0x7
	.quad	.LFB3102
	.uleb128 .LFE3102-.LFB3102
	.byte	0x7
	.quad	.LFB3116
	.uleb128 .LFE3116-.LFB3116
	.byte	0x7
	.quad	.LFB3117
	.uleb128 .LFE3117-.LFB3117
	.byte	0x7
	.quad	.LFB3158
	.uleb128 .LFE3158-.LFB3158
	.byte	0x7
	.quad	.LFB3160
	.uleb128 .LFE3160-.LFB3160
	.byte	0x7
	.quad	.LFB3162
	.uleb128 .LFE3162-.LFB3162
	.byte	0x7
	.quad	.LFB3164
	.uleb128 .LFE3164-.LFB3164
	.byte	0x7
	.quad	.LFB3165
	.uleb128 .LFE3165-.LFB3165
	.byte	0x7
	.quad	.LFB3166
	.uleb128 .LFE3166-.LFB3166
	.byte	0x7
	.quad	.LFB3167
	.uleb128 .LFE3167-.LFB3167
	.byte	0x7
	.quad	.LFB3168
	.uleb128 .LFE3168-.LFB3168
	.byte	0x7
	.quad	.LFB3169
	.uleb128 .LFE3169-.LFB3169
	.byte	0x7
	.quad	.LFB3170
	.uleb128 .LFE3170-.LFB3170
	.byte	0x7
	.quad	.LFB3171
	.uleb128 .LFE3171-.LFB3171
	.byte	0x7
	.quad	.LFB3172
	.uleb128 .LFE3172-.LFB3172
	.byte	0x7
	.quad	.LFB3173
	.uleb128 .LFE3173-.LFB3173
	.byte	0x7
	.quad	.LFB3174
	.uleb128 .LFE3174-.LFB3174
	.byte	0x7
	.quad	.LFB3175
	.uleb128 .LFE3175-.LFB3175
	.byte	0x7
	.quad	.LFB3176
	.uleb128 .LFE3176-.LFB3176
	.byte	0x7
	.quad	.LFB3177
	.uleb128 .LFE3177-.LFB3177
	.byte	0x7
	.quad	.LFB3178
	.uleb128 .LFE3178-.LFB3178
	.byte	0x7
	.quad	.LFB3200
	.uleb128 .LFE3200-.LFB3200
	.byte	0x7
	.quad	.LFB3202
	.uleb128 .LFE3202-.LFB3202
	.byte	0x7
	.quad	.LFB3205
	.uleb128 .LFE3205-.LFB3205
	.byte	0x7
	.quad	.LFB3207
	.uleb128 .LFE3207-.LFB3207
	.byte	0x7
	.quad	.LFB3208
	.uleb128 .LFE3208-.LFB3208
	.byte	0x7
	.quad	.LFB3209
	.uleb128 .LFE3209-.LFB3209
	.byte	0x7
	.quad	.LFB3211
	.uleb128 .LFE3211-.LFB3211
	.byte	0x7
	.quad	.LFB3212
	.uleb128 .LFE3212-.LFB3212
	.byte	0x7
	.quad	.LFB3213
	.uleb128 .LFE3213-.LFB3213
	.byte	0x7
	.quad	.LFB3214
	.uleb128 .LFE3214-.LFB3214
	.byte	0x7
	.quad	.LFB3215
	.uleb128 .LFE3215-.LFB3215
	.byte	0x7
	.quad	.LFB3216
	.uleb128 .LFE3216-.LFB3216
	.byte	0x7
	.quad	.LFB3217
	.uleb128 .LFE3217-.LFB3217
	.byte	0x7
	.quad	.LFB3228
	.uleb128 .LFE3228-.LFB3228
	.byte	0x7
	.quad	.LFB3230
	.uleb128 .LFE3230-.LFB3230
	.byte	0x7
	.quad	.LFB3231
	.uleb128 .LFE3231-.LFB3231
	.byte	0x7
	.quad	.LFB3232
	.uleb128 .LFE3232-.LFB3232
	.byte	0x7
	.quad	.LFB3233
	.uleb128 .LFE3233-.LFB3233
	.byte	0x7
	.quad	.LFB3234
	.uleb128 .LFE3234-.LFB3234
	.byte	0x7
	.quad	.LFB3235
	.uleb128 .LFE3235-.LFB3235
	.byte	0x7
	.quad	.LFB3236
	.uleb128 .LFE3236-.LFB3236
	.byte	0x7
	.quad	.LFB3237
	.uleb128 .LFE3237-.LFB3237
	.byte	0x7
	.quad	.LFB3238
	.uleb128 .LFE3238-.LFB3238
	.byte	0x7
	.quad	.LFB3243
	.uleb128 .LFE3243-.LFB3243
	.byte	0x7
	.quad	.LFB3244
	.uleb128 .LFE3244-.LFB3244
	.byte	0x7
	.quad	.LFB3245
	.uleb128 .LFE3245-.LFB3245
	.byte	0x7
	.quad	.LFB3246
	.uleb128 .LFE3246-.LFB3246
	.byte	0x7
	.quad	.LFB3247
	.uleb128 .LFE3247-.LFB3247
	.byte	0x7
	.quad	.LFB3248
	.uleb128 .LFE3248-.LFB3248
	.byte	0x7
	.quad	.LFB3249
	.uleb128 .LFE3249-.LFB3249
	.byte	0x7
	.quad	.LFB3250
	.uleb128 .LFE3250-.LFB3250
	.byte	0x7
	.quad	.LFB3251
	.uleb128 .LFE3251-.LFB3251
	.byte	0x7
	.quad	.LFB3252
	.uleb128 .LFE3252-.LFB3252
	.byte	0x7
	.quad	.LFB3255
	.uleb128 .LFE3255-.LFB3255
	.byte	0x7
	.quad	.LFB3256
	.uleb128 .LFE3256-.LFB3256
	.byte	0x7
	.quad	.LFB3257
	.uleb128 .LFE3257-.LFB3257
	.byte	0x7
	.quad	.LFB3258
	.uleb128 .LFE3258-.LFB3258
	.byte	0x7
	.quad	.LFB3259
	.uleb128 .LFE3259-.LFB3259
	.byte	0x7
	.quad	.LFB3260
	.uleb128 .LFE3260-.LFB3260
	.byte	0x7
	.quad	.LFB3261
	.uleb128 .LFE3261-.LFB3261
	.byte	0x7
	.quad	.LFB3262
	.uleb128 .LFE3262-.LFB3262
	.byte	0x7
	.quad	.LFB3263
	.uleb128 .LFE3263-.LFB3263
	.byte	0x7
	.quad	.LFB3264
	.uleb128 .LFE3264-.LFB3264
	.byte	0
.Ldebug_ranges3:
	.section	.debug_line,"",@progbits
.Ldebug_line0:
	.section	.debug_str,"MS",@progbits,1
.LASF188:
	.string	"_ZNKSt17basic_string_viewIcSt11char_traitsIcEE5emptyEv"
.LASF577:
	.string	"_ZNSt12_Vector_baseIlSaIlEEC4ERKS0_"
.LASF1146:
	.string	"long long int"
.LASF213:
	.string	"_ZNKSt17basic_string_viewIcSt11char_traitsIcEE4findES2_m"
.LASF1213:
	.string	"positive_sign"
.LASF704:
	.string	"_ZNKSt16initializer_listIlE5beginEv"
.LASF840:
	.string	"reverse_iterator<__gnu_cxx::__normal_iterator<int*, std::vector<int, std::allocator<int> > > >"
.LASF1034:
	.string	"_ZN9__gnu_cxx11char_traitsIcE2eqERKcS3_"
.LASF447:
	.string	"_ZNSt7__cxx1112basic_stringIcSt11char_traitsIcESaIcEE4swapERS4_"
.LASF1252:
	.string	"mbstowcs"
.LASF441:
	.string	"_ZNSt7__cxx1112basic_stringIcSt11char_traitsIcESaIcEE14_M_replace_auxEmmmc"
.LASF802:
	.string	"_ZNKSt6vectorIiSaIiEEixEm"
.LASF1240:
	.string	"lldiv_t"
.LASF797:
	.string	"_ZNSt6vectorIiSaIiEE13shrink_to_fitEv"
.LASF49:
	.string	"__pad5"
.LASF176:
	.string	"_ZNKSt17basic_string_viewIcSt11char_traitsIcEE6rbeginEv"
.LASF1261:
	.string	"strtoul"
.LASF1230:
	.string	"getwchar"
.LASF7:
	.string	"long unsigned int"
.LASF581:
	.string	"_ZNSt12_Vector_baseIlSaIlEEC4EOS0_"
.LASF1116:
	.string	"_ZN9__gnu_cxx17__normal_iteratorIPlSt6vectorIlSaIlEEEC4Ev"
.LASF948:
	.string	"__detail"
.LASF313:
	.string	"_ZNSt7__cxx1112basic_stringIcSt11char_traitsIcESaIcEE7_S_copyEPcPKcm"
.LASF520:
	.string	"_InputIterator"
.LASF1301:
	.string	"tmpfile"
.LASF875:
	.string	"_ZSt12__niter_wrapIPlET_RKS1_S1_"
.LASF1323:
	.string	"_ZN6__pstl9execution2v127parallel_unsequenced_policy19__allow_unsequencedEv"
.LASF561:
	.string	"_ZNSt12_Vector_baseIlSaIlEE12_Vector_implC4Ev"
.LASF497:
	.string	"initializer_list"
.LASF48:
	.string	"_freeres_buf"
.LASF287:
	.string	"_ZNSt7__cxx1112basic_stringIcSt11char_traitsIcESaIcEE13_M_set_lengthEm"
.LASF370:
	.string	"shrink_to_fit"
.LASF745:
	.string	"_ZNSt12_Vector_baseIiSaIiEEC4Em"
.LASF500:
	.string	"_ZNKSt16initializer_listIcE4sizeEv"
.LASF743:
	.string	"_ZNSt12_Vector_baseIiSaIiEEC4Ev"
.LASF467:
	.string	"_ZNKSt7__cxx1112basic_stringIcSt11char_traitsIcESaIcEE12find_last_ofEPKcmm"
.LASF580:
	.string	"_ZNSt12_Vector_baseIlSaIlEEC4EOS1_"
.LASF366:
	.string	"_ZNKSt7__cxx1112basic_stringIcSt11char_traitsIcESaIcEE8max_sizeEv"
.LASF815:
	.string	"_ZNSt6vectorIiSaIiEE6insertEN9__gnu_cxx17__normal_iteratorIPKiS1_EERS4_"
.LASF374:
	.string	"reserve"
.LASF944:
	.string	"_IIter"
.LASF1474:
	.string	"index"
.LASF118:
	.string	"_ZNSt11char_traitsIcE7not_eofERKi"
.LASF679:
	.string	"_ZNSt6vectorIlSaIlEE16_M_shrink_to_fitEv"
.LASF953:
	.string	"__size_to_integer"
.LASF245:
	.string	"_M_str"
.LASF572:
	.string	"_ZNSt12_Vector_baseIlSaIlEE19_M_get_Tp_allocatorEv"
.LASF362:
	.string	"_ZNKSt7__cxx1112basic_stringIcSt11char_traitsIcESaIcEE7crbeginEv"
.LASF472:
	.string	"_ZNKSt7__cxx1112basic_stringIcSt11char_traitsIcESaIcEE17find_first_not_ofEPKcm"
.LASF293:
	.string	"_ZNSt7__cxx1112basic_stringIcSt11char_traitsIcESaIcEE10_M_disposeEv"
.LASF461:
	.string	"_ZNKSt7__cxx1112basic_stringIcSt11char_traitsIcESaIcEE5rfindEcm"
.LASF695:
	.string	"_ZNSt6vectorIlSaIlEE14_M_move_assignEOS1_St17integral_constantIbLb1EE"
.LASF631:
	.string	"_ZNSt6vectorIlSaIlEE4rendEv"
.LASF718:
	.string	"allocator<int>"
.LASF1421:
	.string	"_Guard"
.LASF668:
	.string	"_M_fill_initialize"
.LASF847:
	.string	"iterator_traits<long int const*>"
.LASF729:
	.string	"_Vector_base<int, std::allocator<int> >"
.LASF179:
	.string	"crbegin"
.LASF902:
	.string	"__relocate_a_1<int, int>"
.LASF1201:
	.string	"uintptr_t"
.LASF1066:
	.string	"__normal_iterator"
.LASF924:
	.string	"__iterator_category<long int const*>"
.LASF888:
	.string	"_Iter"
.LASF280:
	.string	"_ZNKSt7__cxx1112basic_stringIcSt11char_traitsIcESaIcEE7_M_dataEv"
.LASF331:
	.string	"_ZNSt7__cxx1112basic_stringIcSt11char_traitsIcESaIcEEC4Ev"
.LASF1326:
	.string	"unsequenced_policy"
.LASF189:
	.string	"operator[]"
.LASF448:
	.string	"c_str"
.LASF1205:
	.string	"decimal_point"
.LASF654:
	.string	"_ZNKSt6vectorIlSaIlEE4backEv"
.LASF315:
	.string	"_ZNSt7__cxx1112basic_stringIcSt11char_traitsIcESaIcEE7_S_moveEPcPKcm"
.LASF1140:
	.string	"__normal_iterator<int*, std::vector<int, std::allocator<int> > >"
.LASF237:
	.string	"find_last_not_of"
.LASF192:
	.string	"_ZNKSt17basic_string_viewIcSt11char_traitsIcEE2atEm"
.LASF1369:
	.string	"__first"
.LASF342:
	.string	"~basic_string"
.LASF1429:
	.string	"__dat"
.LASF826:
	.string	"_ZNSt6vectorIiSaIiEE14_M_fill_insertEN9__gnu_cxx17__normal_iteratorIPiS1_EEmRKi"
.LASF462:
	.string	"_ZNKSt7__cxx1112basic_stringIcSt11char_traitsIcESaIcEE13find_first_ofERKS4_m"
.LASF323:
	.string	"_ZNSt7__cxx1112basic_stringIcSt11char_traitsIcESaIcEE13_S_copy_charsEPcPKcS7_"
.LASF812:
	.string	"_ZNSt6vectorIiSaIiEE9push_backERKi"
.LASF723:
	.string	"allocator_traits<std::allocator<int> >"
.LASF861:
	.string	"_ZSt17__throw_bad_allocv"
.LASF1094:
	.string	"_ZNK9__gnu_cxx17__normal_iteratorIPKcNSt7__cxx1112basic_stringIcSt11char_traitsIcESaIcEEEEdeEv"
.LASF786:
	.string	"_ZNKSt6vectorIiSaIiEE6rbeginEv"
.LASF265:
	.string	"_M_allocated_capacity"
.LASF271:
	.string	"__sv_wrapper"
.LASF1171:
	.string	"__intmax_t"
.LASF1100:
	.string	"_ZNK9__gnu_cxx17__normal_iteratorIPKcNSt7__cxx1112basic_stringIcSt11char_traitsIcESaIcEEEEixEl"
.LASF301:
	.string	"_ZNKSt7__cxx1112basic_stringIcSt11char_traitsIcESaIcEE16_M_get_allocatorEv"
.LASF726:
	.string	"_ZNSt16allocator_traitsISaIiEE10deallocateERS0_Pim"
.LASF917:
	.string	"__uninitialized_default_n_a<int*, long unsigned int, int>"
.LASF1204:
	.string	"lconv"
.LASF1207:
	.string	"grouping"
.LASF746:
	.string	"_ZNSt12_Vector_baseIiSaIiEEC4EmRKS0_"
.LASF983:
	.string	"__isoc99_vswscanf"
.LASF1225:
	.string	"int_n_cs_precedes"
.LASF1396:
	.string	"__lhs"
.LASF1075:
	.string	"_ZN9__gnu_cxx17__normal_iteratorIPcNSt7__cxx1112basic_stringIcSt11char_traitsIcESaIcEEEEppEi"
.LASF715:
	.string	"_ZNSt15__new_allocatorIiE10deallocateEPim"
.LASF1074:
	.string	"_ZN9__gnu_cxx17__normal_iteratorIPcNSt7__cxx1112basic_stringIcSt11char_traitsIcESaIcEEEEppEv"
.LASF976:
	.string	"__isoc99_swscanf"
.LASF1342:
	.string	"shape"
.LASF667:
	.string	"_ZNSt6vectorIlSaIlEE5clearEv"
.LASF1437:
	.string	"n_indices"
.LASF893:
	.string	"fill_n<int*, long unsigned int, int>"
.LASF473:
	.string	"_ZNKSt7__cxx1112basic_stringIcSt11char_traitsIcESaIcEE17find_first_not_ofEcm"
.LASF1275:
	.string	"_IO_marker"
.LASF244:
	.string	"_M_len"
.LASF1334:
	.string	"execution"
.LASF470:
	.string	"_ZNKSt7__cxx1112basic_stringIcSt11char_traitsIcESaIcEE17find_first_not_ofERKS4_m"
.LASF119:
	.string	"_CharT"
.LASF997:
	.string	"tm_mday"
.LASF1142:
	.string	"operator!=<long int*, std::vector<long int> >"
.LASF1503:
	.string	"__cxa_free_exception"
.LASF884:
	.string	"_ZSt10__fill_n_aIPimiET_S1_T0_RKT1_St26random_access_iterator_tag"
.LASF77:
	.string	"_ZNKSt15__exception_ptr13exception_ptr6_M_getEv"
.LASF330:
	.string	"_ZNSt7__cxx1112basic_stringIcSt11char_traitsIcESaIcEE8_M_eraseEmm"
.LASF560:
	.string	"_Vector_impl"
.LASF792:
	.string	"_ZNKSt6vectorIiSaIiEE5crendEv"
.LASF1182:
	.string	"uint32_t"
.LASF131:
	.string	"reference"
.LASF951:
	.string	"__to_chars_len<unsigned int>"
.LASF1466:
	.string	"__b2"
.LASF1467:
	.string	"__b3"
.LASF1468:
	.string	"__b4"
.LASF104:
	.string	"move"
.LASF1290:
	.string	"fseek"
.LASF383:
	.string	"_ZNSt7__cxx1112basic_stringIcSt11char_traitsIcESaIcEE2atEm"
.LASF600:
	.string	"_S_use_relocate"
.LASF980:
	.string	"__isoc99_vfwscanf"
.LASF1004:
	.string	"tm_zone"
.LASF1465:
	.string	"__base"
.LASF883:
	.string	"__fill_n_a<int*, long unsigned int, int>"
.LASF744:
	.string	"_ZNSt12_Vector_baseIiSaIiEEC4ERKS0_"
.LASF1433:
	.string	"__c1"
.LASF1434:
	.string	"__c2"
.LASF1255:
	.string	"qsort"
.LASF284:
	.string	"_M_capacity"
.LASF320:
	.string	"iterator"
.LASF753:
	.string	"_ZNSt12_Vector_baseIiSaIiEE13_M_deallocateEPim"
.LASF6:
	.string	"long double"
.LASF1096:
	.string	"_ZN9__gnu_cxx17__normal_iteratorIPKcNSt7__cxx1112basic_stringIcSt11char_traitsIcESaIcEEEEppEv"
.LASF226:
	.string	"_ZNKSt17basic_string_viewIcSt11char_traitsIcEE13find_first_ofEPKcm"
.LASF1476:
	.string	"exception"
.LASF1416:
	.string	"_ZNSaIiED2Ev"
.LASF1489:
	.string	"_ZNSt11char_traitsIcE3eofEv"
.LASF1277:
	.string	"_IO_wide_data"
.LASF327:
	.string	"_M_mutate"
.LASF958:
	.string	"fgetwc"
.LASF959:
	.string	"fgetws"
.LASF1188:
	.string	"uint_least8_t"
.LASF454:
	.string	"_ZNKSt7__cxx1112basic_stringIcSt11char_traitsIcESaIcEE4findEPKcmm"
.LASF238:
	.string	"_ZNKSt17basic_string_viewIcSt11char_traitsIcEE16find_last_not_ofES2_m"
.LASF1492:
	.string	"__cxx11"
.LASF749:
	.string	"_ZNSt12_Vector_baseIiSaIiEEC4EOS1_RKS0_"
.LASF154:
	.string	"bidirectional_iterator_tag"
.LASF542:
	.string	"allocator_traits<std::allocator<long int> >"
.LASF345:
	.string	"_ZNSt7__cxx1112basic_stringIcSt11char_traitsIcESaIcEEaSEPKc"
.LASF880:
	.string	"_ZSt12__niter_baseIPlET_S1_"
.LASF559:
	.string	"_ZNSt12_Vector_baseIlSaIlEE17_Vector_impl_data12_M_swap_dataERS2_"
.LASF156:
	.string	"__debug"
.LASF161:
	.string	"basic_string_view"
.LASF134:
	.string	"const_reference"
.LASF1447:
	.string	"_ZN9container7details18tensor_base_staticIiJLl2ELl3ELl4ELl5EEED4Ev"
.LASF1118:
	.string	"_ZNK9__gnu_cxx17__normal_iteratorIPlSt6vectorIlSaIlEEEdeEv"
.LASF565:
	.string	"_ZNSt12_Vector_baseIlSaIlEE12_Vector_implC4EOS0_OS2_"
.LASF80:
	.string	"_ZNSt15__exception_ptr13exception_ptrC4EDn"
.LASF1362:
	.string	"_Znwm"
.LASF368:
	.string	"_ZNSt7__cxx1112basic_stringIcSt11char_traitsIcESaIcEE6resizeEmc"
.LASF1124:
	.string	"_ZNK9__gnu_cxx17__normal_iteratorIPlSt6vectorIlSaIlEEEixEl"
.LASF1149:
	.string	"bool"
.LASF604:
	.string	"_S_relocate"
.LASF177:
	.string	"rend"
.LASF1366:
	.string	"__cxa_allocate_exception"
.LASF731:
	.string	"_ZNSt12_Vector_baseIiSaIiEE17_Vector_impl_dataC4EOS2_"
.LASF587:
	.string	"_M_allocate"
.LASF1386:
	.string	"_ZNSt15__new_allocatorIlEC2ERKS0_"
.LASF1143:
	.string	"_ZN9__gnu_cxxneIPlSt6vectorIlSaIlEEEEbRKNS_17__normal_iteratorIT_T0_EESA_"
.LASF834:
	.string	"_ZNSt6vectorIiSaIiEE15_M_erase_at_endEPi"
.LASF805:
	.string	"_ZNKSt6vectorIiSaIiEE2atEm"
.LASF437:
	.string	"_ZNSt7__cxx1112basic_stringIcSt11char_traitsIcESaIcEE7replaceEN9__gnu_cxx17__normal_iteratorIPKcS4_EES9_NS6_IPcS4_EESB_"
.LASF1168:
	.string	"__uint_least32_t"
.LASF651:
	.string	"_ZNSt6vectorIlSaIlEE5frontEv"
.LASF183:
	.string	"size"
.LASF419:
	.string	"erase"
.LASF513:
	.string	"basic_ostream<char, std::char_traits<char> >"
.LASF178:
	.string	"_ZNKSt17basic_string_viewIcSt11char_traitsIcEE4rendEv"
.LASF911:
	.string	"max<long unsigned int>"
.LASF551:
	.string	"_M_finish"
.LASF541:
	.string	"_ZNSaIlED4Ev"
.LASF1092:
	.string	"_ZN9__gnu_cxx17__normal_iteratorIPKcNSt7__cxx1112basic_stringIcSt11char_traitsIcESaIcEEEEC4Ev"
.LASF392:
	.string	"_ZNSt7__cxx1112basic_stringIcSt11char_traitsIcESaIcEEpLESt16initializer_listIcE"
.LASF141:
	.string	"_ZNKSt15__new_allocatorIcE8max_sizeEv"
.LASF328:
	.string	"_ZNSt7__cxx1112basic_stringIcSt11char_traitsIcESaIcEE9_M_mutateEmmPKcm"
.LASF248:
	.string	"allocator_traits<std::allocator<char> >"
.LASF242:
	.string	"_S_compare"
.LASF465:
	.string	"_ZNKSt7__cxx1112basic_stringIcSt11char_traitsIcESaIcEE13find_first_ofEcm"
.LASF1256:
	.string	"quick_exit"
.LASF1163:
	.string	"__int_least8_t"
.LASF995:
	.string	"tm_min"
.LASF1209:
	.string	"currency_symbol"
.LASF1408:
	.string	"_ZNSaIcEC2ERKS_"
.LASF963:
	.string	"fwide"
.LASF1245:
	.string	"atof"
.LASF380:
	.string	"_ZNKSt7__cxx1112basic_stringIcSt11char_traitsIcESaIcEEixEm"
.LASF1037:
	.string	"_ZN9__gnu_cxx11char_traitsIcE6lengthEPKc"
.LASF554:
	.string	"_ZNSt12_Vector_baseIlSaIlEE17_Vector_impl_dataC4EOS2_"
.LASF311:
	.string	"_ZNKSt7__cxx1112basic_stringIcSt11char_traitsIcESaIcEE11_M_disjunctEPKc"
.LASF408:
	.string	"_ZNSt7__cxx1112basic_stringIcSt11char_traitsIcESaIcEE6assignESt16initializer_listIcE"
.LASF817:
	.string	"_ZNSt6vectorIiSaIiEE6insertEN9__gnu_cxx17__normal_iteratorIPKiS1_EESt16initializer_listIiE"
.LASF463:
	.string	"_ZNKSt7__cxx1112basic_stringIcSt11char_traitsIcESaIcEE13find_first_ofEPKcmm"
.LASF1052:
	.string	"_ZN9__gnu_cxx14__alloc_traitsISaIcEcE10_S_on_swapERS1_S3_"
.LASF1445:
	.string	"_ZZN9container7details18tensor_base_staticIiJLl2ELl3ELl4ELl5EEEC4EvENUliE_C4EOS3_"
.LASF51:
	.string	"_unused2"
.LASF808:
	.string	"_ZNSt6vectorIiSaIiEE4backEv"
.LASF795:
	.string	"_ZNSt6vectorIiSaIiEE6resizeEm"
.LASF1376:
	.string	"__it"
.LASF566:
	.string	"~_Alloc_hider"
.LASF13:
	.string	"size_t"
.LASF673:
	.string	"_ZNSt6vectorIlSaIlEE14_M_fill_assignEmRKl"
.LASF683:
	.string	"_ZNSt6vectorIlSaIlEE14_M_emplace_auxEN9__gnu_cxx17__normal_iteratorIPKlS1_EEOl"
.LASF822:
	.string	"_ZNSt6vectorIiSaIiEE5clearEv"
.LASF701:
	.string	"_ZNSt16initializer_listIlEC4EPKlm"
.LASF947:
	.string	"_ZStlsISt11char_traitsIcEERSt13basic_ostreamIcT_ES5_c"
.LASF358:
	.string	"_ZNSt7__cxx1112basic_stringIcSt11char_traitsIcESaIcEE4rendEv"
.LASF148:
	.string	"operator bool"
.LASF1345:
	.string	"_data"
.LASF813:
	.string	"_ZNSt6vectorIiSaIiEE9push_backEOi"
.LASF1406:
	.string	"__k1"
.LASF1407:
	.string	"__k2"
.LASF615:
	.string	"_ZNSt6vectorIlSaIlEEC4EOS1_RKS0_St17integral_constantIbLb0EE"
.LASF1025:
	.string	"__isoc99_wscanf"
.LASF222:
	.string	"find_first_of"
.LASF268:
	.string	"_ZNSt7__cxx1112basic_stringIcSt11char_traitsIcESaIcEE17_S_to_string_viewESt17basic_string_viewIcS2_E"
.LASF93:
	.string	"nullptr_t"
.LASF423:
	.string	"pop_back"
.LASF975:
	.string	"swscanf"
.LASF170:
	.string	"cbegin"
.LASF1190:
	.string	"uint_least32_t"
.LASF450:
	.string	"_ZNKSt7__cxx1112basic_stringIcSt11char_traitsIcESaIcEE4dataEv"
.LASF300:
	.string	"_ZNSt7__cxx1112basic_stringIcSt11char_traitsIcESaIcEE16_M_get_allocatorEv"
.LASF706:
	.string	"reverse_iterator<__gnu_cxx::__normal_iterator<long int*, std::vector<long int, std::allocator<long int> > > >"
.LASF50:
	.string	"_mode"
.LASF1356:
	.string	"this"
.LASF1337:
	.string	"tensor_base_static"
.LASF149:
	.string	"_ZNKSt15__exception_ptr13exception_ptrcvbEv"
.LASF1303:
	.string	"ungetc"
.LASF59:
	.string	"_ZNKSt17integral_constantIbLb0EEcvbEv"
.LASF821:
	.string	"_ZNSt6vectorIiSaIiEE4swapERS1_"
.LASF681:
	.string	"_ZNSt6vectorIlSaIlEE14_M_insert_rvalEN9__gnu_cxx17__normal_iteratorIPKlS1_EEOl"
.LASF866:
	.string	"_ZSt19__throw_logic_errorPKc"
.LASF434:
	.string	"_ZNSt7__cxx1112basic_stringIcSt11char_traitsIcESaIcEE7replaceEN9__gnu_cxx17__normal_iteratorIPKcS4_EES9_mc"
.LASF208:
	.string	"_ZNKSt17basic_string_viewIcSt11char_traitsIcEE7compareEmmS2_"
.LASF1355:
	.string	"_ZNSt8ios_base4InitC1Ev"
.LASF1399:
	.string	"_ZNSt12_Vector_baseIlSaIlEEC2ERKS0_"
.LASF774:
	.string	"_ZNSt6vectorIiSaIiEEC4ESt16initializer_listIiERKS0_"
.LASF618:
	.string	"~vector"
.LASF1234:
	.string	"5div_t"
.LASF1107:
	.string	"_ZN9__gnu_cxx14__alloc_traitsISaIlElE17_S_select_on_copyERKS1_"
.LASF1482:
	.string	"__uval"
.LASF518:
	.string	"__uninit_copy<long int const*, long int*>"
.LASF1130:
	.string	"__normal_iterator<long int const*, std::vector<long int, std::allocator<long int> > >"
.LASF966:
	.string	"__isoc99_fwscanf"
.LASF121:
	.string	"true_type"
.LASF129:
	.string	"_ZNKSt15__new_allocatorIcE7addressERc"
.LASF1115:
	.string	"__normal_iterator<long int*, std::vector<long int, std::allocator<long int> > >"
.LASF439:
	.string	"_ZNSt7__cxx1112basic_stringIcSt11char_traitsIcESaIcEE7replaceEN9__gnu_cxx17__normal_iteratorIPKcS4_EES9_St16initializer_listIcE"
.LASF1227:
	.string	"int_p_sign_posn"
.LASF1235:
	.string	"quot"
.LASF180:
	.string	"_ZNKSt17basic_string_viewIcSt11char_traitsIcEE7crbeginEv"
.LASF16:
	.string	"__wchb"
.LASF107:
	.string	"_ZNSt11char_traitsIcE4copyEPcPKcm"
.LASF552:
	.string	"_M_end_of_storage"
.LASF1505:
	.string	"__static_initialization_and_destruction_0"
.LASF925:
	.string	"_ZSt19__iterator_categoryIPKlENSt15iterator_traitsIT_E17iterator_categoryERKS3_"
.LASF937:
	.string	"_ZSt8distanceIPKcENSt15iterator_traitsIT_E15difference_typeES3_S3_"
.LASF998:
	.string	"tm_mon"
.LASF1134:
	.string	"_ZN9__gnu_cxx14__alloc_traitsISaIiEiE27_S_propagate_on_copy_assignEv"
.LASF1263:
	.string	"wcstombs"
.LASF1307:
	.string	"towctrans"
.LASF162:
	.string	"_ZNSt17basic_string_viewIcSt11char_traitsIcEEC4Ev"
.LASF1246:
	.string	"atoi"
.LASF738:
	.string	"_ZNSt12_Vector_baseIiSaIiEE12_Vector_implC4EOS0_OS2_"
.LASF460:
	.string	"_ZNKSt7__cxx1112basic_stringIcSt11char_traitsIcESaIcEE5rfindEPKcm"
.LASF371:
	.string	"_ZNSt7__cxx1112basic_stringIcSt11char_traitsIcESaIcEE13shrink_to_fitEv"
.LASF722:
	.string	"_ZNSaIiED4Ev"
.LASF496:
	.string	"_M_array"
.LASF263:
	.string	"_M_p"
.LASF1484:
	.string	"__int128"
.LASF1082:
	.string	"_ZNK9__gnu_cxx17__normal_iteratorIPcNSt7__cxx1112basic_stringIcSt11char_traitsIcESaIcEEEEplEl"
.LASF1046:
	.string	"__ops"
.LASF1339:
	.string	"order"
.LASF936:
	.string	"distance<char const*>"
.LASF1197:
	.string	"uint_fast16_t"
.LASF258:
	.string	"rebind_alloc"
.LASF1156:
	.string	"__uint8_t"
.LASF996:
	.string	"tm_hour"
.LASF1496:
	.string	"_ZNSt13runtime_errorD4Ev"
.LASF832:
	.string	"_ZNSt6vectorIiSaIiEE17_S_check_init_lenEmRKS0_"
.LASF105:
	.string	"_ZNSt11char_traitsIcE4moveEPcPKcm"
.LASF1462:
	.string	"_ZNSt7__cxx1112basic_stringIcSt11char_traitsIcESaIcEE12_Alloc_hiderD2Ev"
.LASF304:
	.string	"_M_check"
.LASF1203:
	.string	"uintmax_t"
.LASF421:
	.string	"_ZNSt7__cxx1112basic_stringIcSt11char_traitsIcESaIcEE5eraseEN9__gnu_cxx17__normal_iteratorIPKcS4_EE"
.LASF41:
	.string	"_vtable_offset"
.LASF1377:
	.string	"_Args"
.LASF510:
	.string	"_ZNSt8ios_base4InitC4ERKS0_"
.LASF720:
	.string	"_ZNSaIiEC4ERKS_"
.LASF656:
	.string	"_ZNKSt6vectorIlSaIlEE4dataEv"
.LASF529:
	.string	"_ZNSt15__new_allocatorIlEC4ERKS0_"
.LASF305:
	.string	"_ZNKSt7__cxx1112basic_stringIcSt11char_traitsIcESaIcEE8_M_checkEmPKc"
.LASF344:
	.string	"_ZNSt7__cxx1112basic_stringIcSt11char_traitsIcESaIcEEaSERKS4_"
.LASF71:
	.string	"_ZNSt15__exception_ptr13exception_ptrC4EPv"
.LASF1365:
	.string	"_ZNSt13runtime_errorC1EPKc"
.LASF1060:
	.string	"_ZN9__gnu_cxx14__alloc_traitsISaIcEcE15_S_always_equalEv"
.LASF626:
	.string	"_ZNKSt6vectorIlSaIlEE5beginEv"
.LASF1132:
	.string	"_ZN9__gnu_cxx14__alloc_traitsISaIiEiE17_S_select_on_copyERKS1_"
.LASF863:
	.string	"__throw_length_error"
.LASF1139:
	.string	"rebind<int>"
.LASF1443:
	.string	"<lambda>"
.LASF855:
	.string	"_Category"
.LASF597:
	.string	"_S_nothrow_relocate"
.LASF687:
	.string	"_ZNSt6vectorIlSaIlEE17_S_check_init_lenEmRKS0_"
.LASF182:
	.string	"_ZNKSt17basic_string_viewIcSt11char_traitsIcEE5crendEv"
.LASF382:
	.string	"_ZNKSt7__cxx1112basic_stringIcSt11char_traitsIcESaIcEE2atEm"
.LASF427:
	.string	"_ZNSt7__cxx1112basic_stringIcSt11char_traitsIcESaIcEE7replaceEmmRKS4_mm"
.LASF827:
	.string	"_ZNSt6vectorIiSaIiEE17_M_default_appendEm"
.LASF1253:
	.string	"mbtowc"
.LASF550:
	.string	"_M_start"
.LASF1250:
	.string	"ldiv"
.LASF56:
	.string	"value_type"
.LASF1001:
	.string	"tm_yday"
.LASF184:
	.string	"_ZNKSt17basic_string_viewIcSt11char_traitsIcEE4sizeEv"
.LASF1287:
	.string	"fopen"
.LASF645:
	.string	"_ZNSt6vectorIlSaIlEEixEm"
.LASF1446:
	.string	"_ZZN9container7details18tensor_base_staticIiJLl2ELl3ELl4ELl5EEEC4EvENUliE_C4ERKS3_"
.LASF644:
	.string	"_ZNSt6vectorIlSaIlEE7reserveEm"
.LASF932:
	.string	"_Destroy<int*>"
.LASF73:
	.string	"_M_release"
.LASF1179:
	.string	"int64_t"
.LASF898:
	.string	"_ZSt11__addressofIiEPT_RS0_"
.LASF394:
	.string	"_ZNSt7__cxx1112basic_stringIcSt11char_traitsIcESaIcEE6appendERKS4_"
.LASF990:
	.string	"wcscoll"
.LASF852:
	.string	"_ZNSt11__copy_moveILb0ELb1ESt26random_access_iterator_tagE8__copy_mIlEEPT_PKS3_S6_S4_"
.LASF494:
	.string	"_ZNSt7__cxx119to_stringEi"
.LASF1154:
	.string	"char32_t"
.LASF1121:
	.string	"_ZN9__gnu_cxx17__normal_iteratorIPlSt6vectorIlSaIlEEEppEi"
.LASF613:
	.string	"_ZNSt6vectorIlSaIlEEC4ERKS1_RKS0_"
.LASF661:
	.string	"_ZNSt6vectorIlSaIlEE6insertEN9__gnu_cxx17__normal_iteratorIPKlS1_EEOl"
.LASF1120:
	.string	"_ZN9__gnu_cxx17__normal_iteratorIPlSt6vectorIlSaIlEEEppEv"
.LASF1113:
	.string	"_ZN9__gnu_cxx14__alloc_traitsISaIlElE15_S_nothrow_moveEv"
.LASF939:
	.string	"_ZSt8_DestroyIPllEvT_S1_RSaIT0_E"
.LASF243:
	.string	"_ZNSt17basic_string_viewIcSt11char_traitsIcEE10_S_compareEmm"
.LASF312:
	.string	"_S_copy"
.LASF862:
	.string	"_ZSt28__throw_bad_array_new_lengthv"
.LASF1247:
	.string	"atol"
.LASF638:
	.string	"_ZNKSt6vectorIlSaIlEE8max_sizeEv"
.LASF23:
	.string	"_flags"
.LASF1500:
	.string	"dims"
.LASF1216:
	.string	"frac_digits"
.LASF379:
	.string	"_ZNKSt7__cxx1112basic_stringIcSt11char_traitsIcESaIcEE5emptyEv"
.LASF1010:
	.string	"wcsspn"
.LASF868:
	.string	"_ZSt9__fill_a1IPiiEN9__gnu_cxx11__enable_ifIXsrSt11__is_scalarIT0_E7__valueEvE6__typeET_S8_RKS4_"
.LASF977:
	.string	"ungetwc"
.LASF316:
	.string	"_S_assign"
.LASF5:
	.string	"double"
.LASF1088:
	.string	"_ZNK9__gnu_cxx17__normal_iteratorIPcNSt7__cxx1112basic_stringIcSt11char_traitsIcESaIcEEEE4baseEv"
.LASF133:
	.string	"_ZNKSt15__new_allocatorIcE7addressERKc"
.LASF584:
	.string	"~_Vector_base"
.LASF1309:
	.string	"wctype"
.LASF33:
	.string	"_IO_backup_base"
.LASF895:
	.string	"_Construct<int>"
.LASF1078:
	.string	"_ZN9__gnu_cxx17__normal_iteratorIPcNSt7__cxx1112basic_stringIcSt11char_traitsIcESaIcEEEEmmEi"
.LASF1077:
	.string	"_ZN9__gnu_cxx17__normal_iteratorIPcNSt7__cxx1112basic_stringIcSt11char_traitsIcESaIcEEEEmmEv"
.LASF1244:
	.string	"at_quick_exit"
.LASF240:
	.string	"_ZNKSt17basic_string_viewIcSt11char_traitsIcEE16find_last_not_ofEPKcmm"
.LASF20:
	.string	"__mbstate_t"
.LASF1340:
	.string	"_ZNK9container7details18tensor_base_staticIiJLl2ELl3ELl4ELl5EEE5orderEv"
.LASF609:
	.string	"_ZNSt6vectorIlSaIlEEC4EmRKS0_"
.LASF252:
	.string	"const_void_pointer"
.LASF1233:
	.string	"11__mbstate_t"
.LASF879:
	.string	"__niter_base<long int*>"
.LASF912:
	.string	"_ZSt3maxImERKT_S2_S2_"
.LASF486:
	.string	"_ZNSt7__cxx1112basic_stringIcSt11char_traitsIcESaIcEE12_M_constructIPKcEEvT_S8_St20forward_iterator_tag"
.LASF357:
	.string	"_ZNKSt7__cxx1112basic_stringIcSt11char_traitsIcESaIcEE6rbeginEv"
.LASF1383:
	.string	"__allocmax"
.LASF1426:
	.string	"_ZZNSt7__cxx1112basic_stringIcSt11char_traitsIcESaIcEE12_M_constructIPKcEEvT_S8_St20forward_iterator_tagEN6_GuardC2EPS4_"
.LASF95:
	.string	"char_type"
.LASF259:
	.string	"basic_string<char, std::char_traits<char>, std::allocator<char> >"
.LASF1370:
	.string	"__last"
.LASF517:
	.string	"__uninitialized_copy<true>"
.LASF1226:
	.string	"int_n_sep_by_space"
.LASF64:
	.string	"_ZNKSt17integral_constantIbLb1EEclEv"
.LASF516:
	.string	"ostream"
.LASF307:
	.string	"_ZNKSt7__cxx1112basic_stringIcSt11char_traitsIcESaIcEE15_M_check_lengthEmmPKc"
.LASF698:
	.string	"_ZNSt6vectorIlSaIlEE19_M_range_initializeIPKlEEvT_S5_St20forward_iterator_tag"
.LASF194:
	.string	"_ZNKSt17basic_string_viewIcSt11char_traitsIcEE5frontEv"
.LASF1050:
	.string	"_ZN9__gnu_cxx14__alloc_traitsISaIcEcE17_S_select_on_copyERKS1_"
.LASF582:
	.string	"_ZNSt12_Vector_baseIlSaIlEEC4EOS1_RKS0_"
.LASF1441:
	.string	"_ZNSt6vectorIlSaIlEED2Ev"
.LASF890:
	.string	"_ZSt13__copy_move_aILb0EPKlPlET1_T0_S4_S3_"
.LASF633:
	.string	"_ZNKSt6vectorIlSaIlEE6cbeginEv"
.LASF522:
	.string	"__uninitialized_default_n_1<true>"
.LASF269:
	.string	"basic_string"
.LASF25:
	.string	"_IO_read_end"
.LASF400:
	.string	"push_back"
.LASF1029:
	.string	"wcsstr"
.LASF1043:
	.string	"_ZN9__gnu_cxx11char_traitsIcE11to_int_typeERKc"
.LASF606:
	.string	"vector"
.LASF1510:
	.string	"_ZZNSt8__detail18__to_chars_10_implIjEEvPcjT_E8__digits"
.LASF1404:
	.string	"_ZNSt12_Vector_baseIiSaIiEE17_Vector_impl_dataC2Ev"
.LASF1238:
	.string	"ldiv_t"
.LASF532:
	.string	"_ZNKSt15__new_allocatorIlE7addressERKl"
.LASF209:
	.string	"_ZNKSt17basic_string_viewIcSt11char_traitsIcEE7compareEmmS2_mm"
.LASF1401:
	.string	"_ZNSt15__new_allocatorIlED2Ev"
.LASF122:
	.string	"__new_allocator<char>"
.LASF32:
	.string	"_IO_save_base"
.LASF933:
	.string	"_ZSt8_DestroyIPiEvT_S1_"
.LASF108:
	.string	"assign"
.LASF1453:
	.string	"_ZN9container7details18tensor_base_staticIiJLl2ELl3ELl4ELl5EEEC2Ev"
.LASF782:
	.string	"_ZNKSt6vectorIiSaIiEE5beginEv"
.LASF101:
	.string	"_ZNSt11char_traitsIcE6lengthEPKc"
.LASF512:
	.string	"ios_base"
.LASF1211:
	.string	"mon_thousands_sep"
.LASF350:
	.string	"_ZNKSt7__cxx1112basic_stringIcSt11char_traitsIcESaIcEEcvSt17basic_string_viewIcS2_EEv"
.LASF901:
	.string	"__enable_if_t"
.LASF29:
	.string	"_IO_write_end"
.LASF688:
	.string	"_S_max_size"
.LASF660:
	.string	"_ZNSt6vectorIlSaIlEE6insertEN9__gnu_cxx17__normal_iteratorIPKlS1_EERS4_"
.LASF562:
	.string	"_ZNSt12_Vector_baseIlSaIlEE12_Vector_implC4ERKS0_"
.LASF843:
	.string	"difference_type"
.LASF784:
	.string	"_ZNKSt6vectorIiSaIiEE3endEv"
.LASF771:
	.string	"_ZNSt6vectorIiSaIiEEC4EOS1_RKS0_St17integral_constantIbLb1EE"
.LASF278:
	.string	"_M_length"
.LASF987:
	.string	"wcrtomb"
.LASF335:
	.string	"_ZNSt7__cxx1112basic_stringIcSt11char_traitsIcESaIcEEC4ERKS4_mm"
.LASF231:
	.string	"_ZNKSt17basic_string_viewIcSt11char_traitsIcEE12find_last_ofEPKcm"
.LASF903:
	.string	"_ZSt14__relocate_a_1IiiENSt9enable_ifIXsrSt24__is_bitwise_relocatableIT_vE5valueEPS2_E4typeES4_S4_S4_RSaIT0_E"
.LASF251:
	.string	"_ZNSt16allocator_traitsISaIcEE8allocateERS0_mPKv"
.LASF110:
	.string	"to_char_type"
.LASF126:
	.string	"~__new_allocator"
.LASF940:
	.string	"_Destroy<int*, int>"
.LASF1409:
	.string	"_ZNSt12_Vector_baseIlSaIlEED2Ev"
.LASF30:
	.string	"_IO_buf_base"
.LASF754:
	.string	"_ZNSt12_Vector_baseIiSaIiEE17_M_create_storageEm"
.LASF1414:
	.string	"_ZNSaIlEC2Ev"
.LASF760:
	.string	"_ZNSt6vectorIiSaIiEE15_S_use_relocateEv"
.LASF44:
	.string	"_offset"
.LASF1158:
	.string	"__uint16_t"
.LASF1291:
	.string	"fsetpos"
.LASF721:
	.string	"_ZNSaIiEaSERKS_"
.LASF261:
	.string	"_ZNSt7__cxx1112basic_stringIcSt11char_traitsIcESaIcEE12_Alloc_hiderC4EPcRKS3_"
.LASF796:
	.string	"_ZNSt6vectorIiSaIiEE6resizeEmRKi"
.LASF152:
	.string	"_ZNSaIcED4Ev"
.LASF1478:
	.string	"_ZN9exception17exception_messageEONSt7__cxx1112basic_stringIcSt11char_traitsIcESaIcEEE"
.LASF788:
	.string	"_ZNKSt6vectorIiSaIiEE4rendEv"
.LASF533:
	.string	"_ZNSt15__new_allocatorIlE8allocateEmPKv"
.LASF878:
	.string	"_ZSt14__copy_move_a1ILb0EPKlPlET1_T0_S4_S3_"
.LASF730:
	.string	"_ZNSt12_Vector_baseIiSaIiEE17_Vector_impl_dataC4Ev"
.LASF159:
	.string	"_ForwardIterator"
.LASF865:
	.string	"__throw_logic_error"
.LASF254:
	.string	"_ZNSt16allocator_traitsISaIcEE10deallocateERS0_Pcm"
.LASF1475:
	.string	"oor_index"
.LASF1288:
	.string	"fread"
.LASF1508:
	.string	"_ZZN9container7details18tensor_base_staticIiJLl2ELl3ELl4ELl5EEEC4EvENKUliE_clEi"
.LASF250:
	.string	"allocator_type"
.LASF1289:
	.string	"freopen"
.LASF76:
	.string	"_M_get"
.LASF1183:
	.string	"uint64_t"
.LASF1114:
	.string	"rebind<long int>"
.LASF292:
	.string	"_M_dispose"
.LASF968:
	.string	"mbrlen"
.LASF1237:
	.string	"6ldiv_t"
.LASF1080:
	.string	"_ZN9__gnu_cxx17__normal_iteratorIPcNSt7__cxx1112basic_stringIcSt11char_traitsIcESaIcEEEEpLEl"
.LASF1395:
	.string	"__new_start"
.LASF1372:
	.string	"__ioinit"
.LASF1024:
	.string	"wscanf"
.LASF372:
	.string	"capacity"
.LASF819:
	.string	"_ZNSt6vectorIiSaIiEE5eraseEN9__gnu_cxx17__normal_iteratorIPKiS1_EE"
.LASF214:
	.string	"_ZNKSt17basic_string_viewIcSt11char_traitsIcEE4findEcm"
.LASF1181:
	.string	"uint16_t"
.LASF1494:
	.string	"_ZSt4cout"
.LASF984:
	.string	"vwprintf"
.LASF850:
	.string	"__copy_move<false, true, std::random_access_iterator_tag>"
.LASF91:
	.string	"rethrow_exception"
.LASF1361:
	.string	"operator new"
.LASF546:
	.string	"_ZNSt16allocator_traitsISaIlEE8max_sizeERKS0_"
.LASF837:
	.string	"_ZNSt6vectorIiSaIiEE14_M_move_assignEOS1_St17integral_constantIbLb1EE"
.LASF172:
	.string	"cend"
.LASF571:
	.string	"_M_get_Tp_allocator"
.LASF692:
	.string	"_ZNSt6vectorIlSaIlEE8_M_eraseEN9__gnu_cxx17__normal_iteratorIPlS1_EE"
.LASF674:
	.string	"_M_fill_insert"
.LASF1335:
	.string	"details"
.LASF557:
	.string	"_M_swap_data"
.LASF710:
	.string	"_ZNSt15__new_allocatorIiEC4ERKS0_"
.LASF375:
	.string	"_ZNSt7__cxx1112basic_stringIcSt11char_traitsIcESaIcEE7reserveEm"
.LASF1425:
	.string	"_M_guarded"
.LASF174:
	.string	"const_reverse_iterator"
.LASF376:
	.string	"_ZNSt7__cxx1112basic_stringIcSt11char_traitsIcESaIcEE7reserveEv"
.LASF653:
	.string	"_ZNSt6vectorIlSaIlEE4backEv"
.LASF1038:
	.string	"_ZN9__gnu_cxx11char_traitsIcE4findEPKcmRS2_"
.LASF282:
	.string	"_ZNSt7__cxx1112basic_stringIcSt11char_traitsIcESaIcEE13_M_local_dataEv"
.LASF725:
	.string	"_ZNSt16allocator_traitsISaIiEE8allocateERS0_mPKv"
.LASF1403:
	.string	"_ZNSt15__new_allocatorIiED2Ev"
.LASF919:
	.string	"__uninitialized_copy_a<long int const*, long int*, long int>"
.LASF833:
	.string	"_ZNSt6vectorIiSaIiEE11_S_max_sizeERKS0_"
.LASF1097:
	.string	"_ZN9__gnu_cxx17__normal_iteratorIPKcNSt7__cxx1112basic_stringIcSt11char_traitsIcESaIcEEEEppEi"
.LASF399:
	.string	"_ZNSt7__cxx1112basic_stringIcSt11char_traitsIcESaIcEE6appendESt16initializer_listIcE"
.LASF1341:
	.string	"_ZNK9container7details18tensor_base_staticIiJLl2ELl3ELl4ELl5EEE4sizeEv"
.LASF1039:
	.string	"_ZN9__gnu_cxx11char_traitsIcE4moveEPcPKcm"
.LASF61:
	.string	"integral_constant<bool, true>"
.LASF324:
	.string	"_ZNSt7__cxx1112basic_stringIcSt11char_traitsIcESaIcEE10_S_compareEmm"
.LASF657:
	.string	"_ZNSt6vectorIlSaIlEE9push_backERKl"
.LASF588:
	.string	"_ZNSt12_Vector_baseIlSaIlEE11_M_allocateEm"
.LASF535:
	.string	"_ZNKSt15__new_allocatorIlE8max_sizeEv"
.LASF60:
	.string	"_ZNKSt17integral_constantIbLb0EEclEv"
.LASF135:
	.string	"allocate"
.LASF988:
	.string	"wcscat"
.LASF914:
	.string	"_ZSt25__uninitialized_default_nIPimET_S1_T0_"
.LASF905:
	.string	"_ZSt12__niter_baseIPiET_S1_"
.LASF1499:
	.string	"_IO_lock_t"
.LASF138:
	.string	"deallocate"
.LASF24:
	.string	"_IO_read_ptr"
.LASF3:
	.string	"__float128"
.LASF1431:
	.string	"_ZNSt15__new_allocatorIcED2Ev"
.LASF267:
	.string	"_S_to_string_view"
.LASF525:
	.string	"_Size"
.LASF1351:
	.string	"container_size_type"
.LASF1322:
	.string	"parallel_unsequenced_policy"
.LASF477:
	.string	"_ZNKSt7__cxx1112basic_stringIcSt11char_traitsIcESaIcEE16find_last_not_ofEcm"
.LASF38:
	.string	"_flags2"
.LASF544:
	.string	"_ZNSt16allocator_traitsISaIlEE8allocateERS0_mPKv"
.LASF1298:
	.string	"rewind"
.LASF199:
	.string	"remove_prefix"
.LASF1110:
	.string	"_ZN9__gnu_cxx14__alloc_traitsISaIlElE27_S_propagate_on_move_assignEv"
.LASF676:
	.string	"_M_default_append"
.LASF1493:
	.string	"_S_local_capacity"
.LASF1219:
	.string	"n_cs_precedes"
.LASF45:
	.string	"_codecvt"
.LASF619:
	.string	"_ZNSt6vectorIlSaIlEED4Ev"
.LASF627:
	.string	"_ZNSt6vectorIlSaIlEE3endEv"
.LASF1170:
	.string	"__uint_least64_t"
.LASF89:
	.string	"__cxa_exception_type"
.LASF260:
	.string	"_Alloc_hider"
.LASF1405:
	.string	"_ZNSaIiEC2Ev"
.LASF28:
	.string	"_IO_write_ptr"
.LASF471:
	.string	"_ZNKSt7__cxx1112basic_stringIcSt11char_traitsIcESaIcEE17find_first_not_ofEPKcmm"
.LASF436:
	.string	"_ZNSt7__cxx1112basic_stringIcSt11char_traitsIcESaIcEE7replaceEN9__gnu_cxx17__normal_iteratorIPKcS4_EES9_S8_S8_"
.LASF794:
	.string	"_ZNKSt6vectorIiSaIiEE8max_sizeEv"
.LASF83:
	.string	"_ZNSt15__exception_ptr13exception_ptraSERKS0_"
.LASF285:
	.string	"_ZNSt7__cxx1112basic_stringIcSt11char_traitsIcESaIcEE11_M_capacityEm"
.LASF864:
	.string	"_ZSt20__throw_length_errorPKc"
.LASF155:
	.string	"random_access_iterator_tag"
.LASF530:
	.string	"_ZNSt15__new_allocatorIlED4Ev"
.LASF384:
	.string	"_ZNSt7__cxx1112basic_stringIcSt11char_traitsIcESaIcEE5frontEv"
.LASF570:
	.string	"_Tp_alloc_type"
.LASF761:
	.string	"_ZNSt6vectorIiSaIiEE14_S_do_relocateEPiS2_S2_RS0_St17integral_constantIbLb1EE"
.LASF823:
	.string	"_ZNSt6vectorIiSaIiEE18_M_fill_initializeEmRKi"
.LASF234:
	.string	"_ZNKSt17basic_string_viewIcSt11char_traitsIcEE17find_first_not_ofEcm"
.LASF1338:
	.string	"_ZN9container7details18tensor_base_staticIiJLl2ELl3ELl4ELl5EEEC4Ev"
.LASF767:
	.string	"_ZNSt6vectorIiSaIiEEC4EmRKiRKS0_"
.LASF949:
	.string	"__to_chars_10_impl<unsigned int>"
.LASF952:
	.string	"_ZNSt8__detail14__to_chars_lenIjEEjT_i"
.LASF1086:
	.string	"_ZNK9__gnu_cxx17__normal_iteratorIPcNSt7__cxx1112basic_stringIcSt11char_traitsIcESaIcEEEEmiEl"
.LASF1056:
	.string	"_ZN9__gnu_cxx14__alloc_traitsISaIcEcE27_S_propagate_on_move_assignEv"
.LASF697:
	.string	"_M_range_initialize<long int const*>"
.LASF630:
	.string	"_ZNKSt6vectorIlSaIlEE6rbeginEv"
.LASF1324:
	.string	"_ZN6__pstl9execution2v127parallel_unsequenced_policy14__allow_vectorEv"
.LASF505:
	.string	"string"
.LASF531:
	.string	"_ZNKSt15__new_allocatorIlE7addressERl"
.LASF1428:
	.string	"__capacity"
.LASF1200:
	.string	"intptr_t"
.LASF1498:
	.string	"decltype(nullptr)"
.LASF498:
	.string	"_ZNSt16initializer_listIcEC4EPKcm"
.LASF1155:
	.string	"__int8_t"
.LASF455:
	.string	"_ZNKSt7__cxx1112basic_stringIcSt11char_traitsIcESaIcEE4findERKS4_m"
.LASF585:
	.string	"_ZNSt12_Vector_baseIlSaIlEED4Ev"
.LASF1220:
	.string	"n_sep_by_space"
.LASF579:
	.string	"_ZNSt12_Vector_baseIlSaIlEEC4EmRKS0_"
.LASF538:
	.string	"_ZNSaIlEC4Ev"
.LASF501:
	.string	"_ZNKSt16initializer_listIcE5beginEv"
.LASF954:
	.string	"_ZSt17__size_to_integerm"
.LASF1206:
	.string	"thousands_sep"
.LASF1041:
	.string	"_ZN9__gnu_cxx11char_traitsIcE6assignEPcmc"
.LASF264:
	.string	"_M_local_buf"
.LASF1448:
	.string	"_ZZN9container7details18tensor_base_staticIiJLl2ELl3ELl4ELl5EEEC4EvENUliE_C4Ev"
.LASF602:
	.string	"_ZNSt6vectorIlSaIlEE14_S_do_relocateEPlS2_S2_RS0_St17integral_constantIbLb1EE"
.LASF1026:
	.string	"wcschr"
.LASF793:
	.string	"_ZNKSt6vectorIiSaIiEE4sizeEv"
.LASF860:
	.string	"__throw_bad_array_new_length"
.LASF693:
	.string	"_ZNSt6vectorIlSaIlEE8_M_eraseEN9__gnu_cxx17__normal_iteratorIPlS1_EES5_"
.LASF1382:
	.string	"__diffmax"
.LASF972:
	.string	"putwc"
.LASF685:
	.string	"_ZNKSt6vectorIlSaIlEE12_M_check_lenEmPKc"
.LASF132:
	.string	"const_pointer"
.LASF417:
	.string	"_ZNSt7__cxx1112basic_stringIcSt11char_traitsIcESaIcEE6insertEN9__gnu_cxx17__normal_iteratorIPKcS4_EEc"
.LASF166:
	.string	"_ZNSt17basic_string_viewIcSt11char_traitsIcEEaSERKS2_"
.LASF373:
	.string	"_ZNKSt7__cxx1112basic_stringIcSt11char_traitsIcESaIcEE8capacityEv"
.LASF236:
	.string	"_ZNKSt17basic_string_viewIcSt11char_traitsIcEE17find_first_not_ofEPKcm"
.LASF915:
	.string	"uninitialized_copy<long int const*, long int*>"
.LASF1105:
	.string	"_ZNK9__gnu_cxx17__normal_iteratorIPKcNSt7__cxx1112basic_stringIcSt11char_traitsIcESaIcEEEE4baseEv"
.LASF539:
	.string	"_ZNSaIlEC4ERKS_"
.LASF1451:
	.string	"__size_1d"
.LASF72:
	.string	"_M_addref"
.LASF431:
	.string	"_ZNSt7__cxx1112basic_stringIcSt11char_traitsIcESaIcEE7replaceEN9__gnu_cxx17__normal_iteratorIPKcS4_EES9_RKS4_"
.LASF1196:
	.string	"uint_fast8_t"
.LASF43:
	.string	"_lock"
.LASF873:
	.string	"_FIte"
.LASF941:
	.string	"_ZSt8_DestroyIPiiEvT_S1_RSaIT0_E"
.LASF1033:
	.string	"_ZN9__gnu_cxx11char_traitsIcE6assignERcRKc"
.LASF1318:
	.string	"parallel_policy"
.LASF717:
	.string	"_ZNKSt15__new_allocatorIiE11_M_max_sizeEv"
.LASF1184:
	.string	"int_least8_t"
.LASF369:
	.string	"_ZNSt7__cxx1112basic_stringIcSt11char_traitsIcESaIcEE6resizeEm"
.LASF1259:
	.string	"strtod"
.LASF1269:
	.string	"strtof"
.LASF404:
	.string	"_ZNSt7__cxx1112basic_stringIcSt11char_traitsIcESaIcEE6assignERKS4_mm"
.LASF1123:
	.string	"_ZN9__gnu_cxx17__normal_iteratorIPlSt6vectorIlSaIlEEEmmEi"
.LASF593:
	.string	"__type_identity<std::allocator<long int> >"
.LASF750:
	.string	"_ZNSt12_Vector_baseIiSaIiEEC4ERKS0_OS1_"
.LASF1260:
	.string	"strtol"
.LASF1165:
	.string	"__int_least16_t"
.LASF100:
	.string	"_ZNSt11char_traitsIcE7compareEPKcS2_m"
.LASF360:
	.string	"_ZNKSt7__cxx1112basic_stringIcSt11char_traitsIcESaIcEE6cbeginEv"
.LASF1122:
	.string	"_ZN9__gnu_cxx17__normal_iteratorIPlSt6vectorIlSaIlEEEmmEv"
.LASF456:
	.string	"_ZNKSt7__cxx1112basic_stringIcSt11char_traitsIcESaIcEE4findEPKcm"
.LASF63:
	.string	"_ZNKSt17integral_constantIbLb1EEcvbEv"
.LASF1198:
	.string	"uint_fast32_t"
.LASF169:
	.string	"_ZNKSt17basic_string_viewIcSt11char_traitsIcEE5beginEv"
.LASF950:
	.string	"_ZNSt8__detail18__to_chars_10_implIjEEvPcjT_"
.LASF68:
	.string	"__exception_ptr"
.LASF1017:
	.string	"wcsxfrm"
.LASF276:
	.string	"_M_data"
.LASF173:
	.string	"_ZNKSt17basic_string_viewIcSt11char_traitsIcEE4cendEv"
.LASF1502:
	.string	"__cxa_rethrow"
.LASF711:
	.string	"_ZNSt15__new_allocatorIiED4Ev"
.LASF487:
	.string	"_FwdIterator"
.LASF31:
	.string	"_IO_buf_end"
.LASF53:
	.string	"short unsigned int"
.LASF1144:
	.string	"wcstold"
.LASF1185:
	.string	"int_least16_t"
.LASF67:
	.string	"__swappable_with_details"
.LASF620:
	.string	"_ZNSt6vectorIlSaIlEEaSERKS1_"
.LASF1145:
	.string	"wcstoll"
.LASF1320:
	.string	"_ZN6__pstl9execution2v115parallel_policy14__allow_vectorEv"
.LASF778:
	.string	"_ZNSt6vectorIiSaIiEEaSESt16initializer_listIiE"
.LASF235:
	.string	"_ZNKSt17basic_string_viewIcSt11char_traitsIcEE17find_first_not_ofEPKcmm"
.LASF854:
	.string	"_IsSimple"
.LASF1009:
	.string	"wcsrtombs"
.LASF1276:
	.string	"_IO_codecvt"
.LASF830:
	.string	"_ZNSt6vectorIiSaIiEE14_M_emplace_auxEN9__gnu_cxx17__normal_iteratorIPKiS1_EEOi"
.LASF490:
	.string	"_ZNSt7__cxx1112basic_stringIcSt11char_traitsIcESaIcEEC4IS3_EEmcRKS3_"
.LASF70:
	.string	"exception_ptr"
.LASF926:
	.string	"__distance<char const*>"
.LASF989:
	.string	"wcscmp"
.LASF1157:
	.string	"__int16_t"
.LASF1332:
	.string	"unseq"
.LASF992:
	.string	"wcscspn"
.LASF617:
	.string	"_ZNSt6vectorIlSaIlEEC4ESt16initializer_listIlERKS0_"
.LASF909:
	.string	"_ZSt12__relocate_aIPiS0_SaIiEET0_T_S3_S2_RT1_"
.LASF886:
	.string	"__iterator_category<int*>"
.LASF543:
	.string	"_ZNSt16allocator_traitsISaIlEE8allocateERS0_m"
.LASF26:
	.string	"_IO_read_base"
.LASF1390:
	.string	"__len"
.LASF363:
	.string	"_ZNKSt7__cxx1112basic_stringIcSt11char_traitsIcESaIcEE5crendEv"
.LASF1384:
	.string	"__can_memmove"
.LASF537:
	.string	"allocator<long int>"
.LASF733:
	.string	"_ZNSt12_Vector_baseIiSaIiEE17_Vector_impl_data12_M_swap_dataERS2_"
.LASF502:
	.string	"_ZNKSt16initializer_listIcE3endEv"
.LASF386:
	.string	"_ZNSt7__cxx1112basic_stringIcSt11char_traitsIcESaIcEE4backEv"
.LASF326:
	.string	"_ZNSt7__cxx1112basic_stringIcSt11char_traitsIcESaIcEE9_M_assignERKS4_"
.LASF598:
	.string	"_ZNSt6vectorIlSaIlEE19_S_nothrow_relocateESt17integral_constantIbLb1EE"
.LASF1391:
	.string	"_ZNSt12_Vector_baseIlSaIlEE12_Vector_implC2ERKS0_"
.LASF965:
	.string	"fwscanf"
.LASF574:
	.string	"_ZNKSt12_Vector_baseIlSaIlEE13get_allocatorEv"
.LASF15:
	.string	"__wch"
.LASF684:
	.string	"_M_check_len"
.LASF719:
	.string	"_ZNSaIiEC4Ev"
.LASF1006:
	.string	"wcsncat"
.LASF128:
	.string	"address"
.LASF314:
	.string	"_S_move"
.LASF1221:
	.string	"p_sign_posn"
.LASF359:
	.string	"_ZNKSt7__cxx1112basic_stringIcSt11char_traitsIcESaIcEE4rendEv"
.LASF1180:
	.string	"uint8_t"
.LASF1346:
	.string	"_dims"
.LASF818:
	.string	"_ZNSt6vectorIiSaIiEE6insertEN9__gnu_cxx17__normal_iteratorIPKiS1_EEmRS4_"
.LASF829:
	.string	"_ZNSt6vectorIiSaIiEE14_M_insert_rvalEN9__gnu_cxx17__normal_iteratorIPKiS1_EEOi"
.LASF22:
	.string	"__FILE"
.LASF1172:
	.string	"__uintmax_t"
.LASF435:
	.string	"_ZNSt7__cxx1112basic_stringIcSt11char_traitsIcESaIcEE7replaceEN9__gnu_cxx17__normal_iteratorIPKcS4_EES9_PcSA_"
.LASF98:
	.string	"compare"
.LASF1495:
	.string	"~runtime_error"
.LASF397:
	.string	"_ZNSt7__cxx1112basic_stringIcSt11char_traitsIcESaIcEE6appendEPKc"
.LASF446:
	.string	"_ZNKSt7__cxx1112basic_stringIcSt11char_traitsIcESaIcEE4copyEPcmm"
.LASF696:
	.string	"_ZNSt6vectorIlSaIlEE14_M_move_assignEOS1_St17integral_constantIbLb0EE"
.LASF991:
	.string	"wcscpy"
.LASF1138:
	.string	"_ZN9__gnu_cxx14__alloc_traitsISaIiEiE15_S_nothrow_moveEv"
.LASF18:
	.string	"__value"
.LASF412:
	.string	"_ZNSt7__cxx1112basic_stringIcSt11char_traitsIcESaIcEE6insertEmRKS4_"
.LASF42:
	.string	"_shortbuf"
.LASF69:
	.string	"_M_exception_object"
.LASF200:
	.string	"remove_suffix"
.LASF1112:
	.string	"_ZN9__gnu_cxx14__alloc_traitsISaIlElE15_S_always_equalEv"
.LASF1018:
	.string	"wctob"
.LASF930:
	.string	"_Destroy<long int*>"
.LASF575:
	.string	"_Vector_base"
.LASF1283:
	.string	"fflush"
.LASF640:
	.string	"_ZNSt6vectorIlSaIlEE6resizeEmRKl"
.LASF92:
	.string	"_ZSt17rethrow_exceptionNSt15__exception_ptr13exception_ptrE"
.LASF221:
	.string	"_ZNKSt17basic_string_viewIcSt11char_traitsIcEE5rfindEPKcm"
.LASF639:
	.string	"_ZNSt6vectorIlSaIlEE6resizeEm"
.LASF4:
	.string	"float"
.LASF1427:
	.string	"__guard"
.LASF337:
	.string	"_ZNSt7__cxx1112basic_stringIcSt11char_traitsIcESaIcEEC4EPKcmRKS3_"
.LASF418:
	.string	"__const_iterator"
.LASF17:
	.string	"__count"
.LASF1150:
	.string	"unsigned char"
.LASF849:
	.string	"iterator_traits<int*>"
.LASF1295:
	.string	"perror"
.LASF769:
	.string	"_ZNSt6vectorIiSaIiEEC4EOS1_"
.LASF202:
	.string	"_ZNSt17basic_string_viewIcSt11char_traitsIcEE13remove_suffixEm"
.LASF810:
	.string	"_ZNSt6vectorIiSaIiEE4dataEv"
.LASF610:
	.string	"_ZNSt6vectorIlSaIlEEC4EmRKlRKS0_"
.LASF1027:
	.string	"wcspbrk"
.LASF1413:
	.string	"_ZNSaIlED2Ev"
.LASF1385:
	.string	"__assignable"
.LASF622:
	.string	"_ZNSt6vectorIlSaIlEEaSESt16initializer_listIlE"
.LASF1430:
	.string	"_ZNSt7__cxx1112basic_stringIcSt11char_traitsIcESaIcEE12_Alloc_hiderC2EPcRKS3_"
.LASF1224:
	.string	"int_p_sep_by_space"
.LASF1464:
	.string	"_ZNSaIcEC2Ev"
.LASF246:
	.string	"type_info"
.LASF1293:
	.string	"getc"
.LASF1223:
	.string	"int_p_cs_precedes"
.LASF576:
	.string	"_ZNSt12_Vector_baseIlSaIlEEC4Ev"
.LASF1202:
	.string	"intmax_t"
.LASF1456:
	.string	"_ZNSt12_Vector_baseIiSaIiEE12_Vector_implD2Ev"
.LASF1125:
	.string	"_ZN9__gnu_cxx17__normal_iteratorIPlSt6vectorIlSaIlEEEpLEl"
.LASF1281:
	.string	"feof"
.LASF230:
	.string	"_ZNKSt17basic_string_viewIcSt11char_traitsIcEE12find_last_ofEPKcmm"
.LASF1297:
	.string	"rename"
.LASF1102:
	.string	"_ZNK9__gnu_cxx17__normal_iteratorIPKcNSt7__cxx1112basic_stringIcSt11char_traitsIcESaIcEEEEplEl"
.LASF1208:
	.string	"int_curr_symbol"
.LASF970:
	.string	"mbsinit"
.LASF334:
	.string	"_ZNSt7__cxx1112basic_stringIcSt11char_traitsIcESaIcEEC4ERKS4_mRKS3_"
.LASF974:
	.string	"swprintf"
.LASF699:
	.string	"__type_identity_t"
.LASF1449:
	.string	"~<lambda>"
.LASF223:
	.string	"_ZNKSt17basic_string_viewIcSt11char_traitsIcEE13find_first_ofES2_m"
.LASF257:
	.string	"_ZNSt16allocator_traitsISaIcEE37select_on_container_copy_constructionERKS0_"
.LASF1131:
	.string	"__alloc_traits<std::allocator<int>, int>"
.LASF1308:
	.string	"wctrans"
.LASF385:
	.string	"_ZNKSt7__cxx1112basic_stringIcSt11char_traitsIcESaIcEE5frontEv"
.LASF273:
	.string	"_M_sv"
.LASF1022:
	.string	"wmemset"
.LASF993:
	.string	"wcsftime"
.LASF1274:
	.string	"__fpos_t"
.LASF167:
	.string	"const_iterator"
.LASF935:
	.string	"_ZSt8distanceIPKlENSt15iterator_traitsIT_E15difference_typeES3_S3_"
.LASF1229:
	.string	"setlocale"
.LASF677:
	.string	"_ZNSt6vectorIlSaIlEE17_M_default_appendEm"
.LASF624:
	.string	"_ZNSt6vectorIlSaIlEE6assignESt16initializer_listIlE"
.LASF1279:
	.string	"clearerr"
.LASF1016:
	.string	"wcstoul"
.LASF1444:
	.string	"_ZZNSt7__cxx1112basic_stringIcSt11char_traitsIcESaIcEE12_M_constructIPKcEEvT_S8_St20forward_iterator_tagEN6_GuardC4ERKSA_"
.LASF670:
	.string	"_M_default_initialize"
.LASF789:
	.string	"_ZNKSt6vectorIiSaIiEE6cbeginEv"
.LASF391:
	.string	"_ZNSt7__cxx1112basic_stringIcSt11char_traitsIcESaIcEEpLEc"
.LASF168:
	.string	"begin"
.LASF1420:
	.string	"__dnew"
.LASF1061:
	.string	"_S_nothrow_move"
.LASF772:
	.string	"_ZNSt6vectorIiSaIiEEC4EOS1_RKS0_St17integral_constantIbLb0EE"
.LASF1084:
	.string	"_ZN9__gnu_cxx17__normal_iteratorIPcNSt7__cxx1112basic_stringIcSt11char_traitsIcESaIcEEEEmIEl"
.LASF632:
	.string	"_ZNKSt6vectorIlSaIlEE4rendEv"
.LASF601:
	.string	"_S_do_relocate"
.LASF1450:
	.string	"_ZZN9container7details18tensor_base_staticIiJLl2ELl3ELl4ELl5EEEC4EvENUliE_D4Ev"
.LASF1106:
	.string	"__alloc_traits<std::allocator<long int>, long int>"
.LASF594:
	.string	"type"
.LASF982:
	.string	"vswscanf"
.LASF1173:
	.string	"__off_t"
.LASF800:
	.string	"_ZNSt6vectorIiSaIiEE7reserveEm"
.LASF310:
	.string	"_M_disjunct"
.LASF509:
	.string	"_ZNSt8ios_base4InitD4Ev"
.LASF406:
	.string	"_ZNSt7__cxx1112basic_stringIcSt11char_traitsIcESaIcEE6assignEPKc"
.LASF1344:
	.string	"_ZNK9container7details18tensor_base_staticIiJLl2ELl3ELl4ELl5EEE5shapeEl"
.LASF967:
	.string	"getwc"
.LASF1343:
	.string	"_ZNK9container7details18tensor_base_staticIiJLl2ELl3ELl4ELl5EEE5shapeEv"
.LASF1296:
	.string	"remove"
.LASF185:
	.string	"_ZNKSt17basic_string_viewIcSt11char_traitsIcEE6lengthEv"
.LASF393:
	.string	"append"
.LASF1388:
	.string	"__arg"
.LASF425:
	.string	"replace"
.LASF540:
	.string	"_ZNSaIlEaSERKS_"
.LASF735:
	.string	"_ZNSt12_Vector_baseIiSaIiEE12_Vector_implC4ERKS0_"
.LASF438:
	.string	"_ZNSt7__cxx1112basic_stringIcSt11char_traitsIcESaIcEE7replaceEN9__gnu_cxx17__normal_iteratorIPKcS4_EES9_S9_S9_"
.LASF649:
	.string	"_ZNSt6vectorIlSaIlEE2atEm"
.LASF1321:
	.string	"_ZN6__pstl9execution2v115parallel_policy16__allow_parallelEv"
.LASF508:
	.string	"~Init"
.LASF443:
	.string	"_ZNSt7__cxx1112basic_stringIcSt11char_traitsIcESaIcEE10_M_replaceEmmPKcm"
.LASF440:
	.string	"_M_replace_aux"
.LASF981:
	.string	"vswprintf"
.LASF891:
	.string	"__miter_base<long int const*>"
.LASF506:
	.string	"Init"
.LASF773:
	.string	"_ZNSt6vectorIiSaIiEEC4EOS1_RKS0_"
.LASF1352:
	.string	"index_check"
.LASF756:
	.string	"vector<int, std::allocator<int> >"
.LASF1099:
	.string	"_ZN9__gnu_cxx17__normal_iteratorIPKcNSt7__cxx1112basic_stringIcSt11char_traitsIcESaIcEEEEmmEi"
.LASF377:
	.string	"clear"
.LASF872:
	.string	"_ZSt8__fill_aIPiiEvT_S1_RKT0_"
.LASF1098:
	.string	"_ZN9__gnu_cxx17__normal_iteratorIPKcNSt7__cxx1112basic_stringIcSt11char_traitsIcESaIcEEEEmmEv"
.LASF700:
	.string	"initializer_list<long int>"
.LASF484:
	.string	"_ZNKSt7__cxx1112basic_stringIcSt11char_traitsIcESaIcEE7compareEmmPKcm"
.LASF1049:
	.string	"_S_select_on_copy"
.LASF946:
	.string	"operator<< <std::char_traits<char> >"
.LASF1387:
	.string	"_ZNSt12_Vector_baseIlSaIlEE17_Vector_impl_dataC2Ev"
.LASF1228:
	.string	"int_n_sign_posn"
.LASF210:
	.string	"_ZNKSt17basic_string_viewIcSt11char_traitsIcEE7compareEPKc"
.LASF1481:
	.string	"__neg"
.LASF779:
	.string	"_ZNSt6vectorIiSaIiEE6assignEmRKi"
.LASF1363:
	.string	"_ZNSt13runtime_errorD1Ev"
.LASF432:
	.string	"_ZNSt7__cxx1112basic_stringIcSt11char_traitsIcESaIcEE7replaceEN9__gnu_cxx17__normal_iteratorIPKcS4_EES9_S8_m"
.LASF737:
	.string	"_ZNSt12_Vector_baseIiSaIiEE12_Vector_implC4EOS0_"
.LASF9:
	.string	"fp_offset"
.LASF869:
	.string	"__copy_move_a2<false, long int const*, long int*>"
.LASF1435:
	.string	"__out"
.LASF351:
	.string	"_ZNSt7__cxx1112basic_stringIcSt11char_traitsIcESaIcEE5beginEv"
.LASF336:
	.string	"_ZNSt7__cxx1112basic_stringIcSt11char_traitsIcESaIcEEC4ERKS4_mmRKS3_"
.LASF1160:
	.string	"__uint32_t"
.LASF1047:
	.string	"_ZN9__gnu_cxx3divExx"
.LASF801:
	.string	"_ZNSt6vectorIiSaIiEEixEm"
.LASF1266:
	.string	"atoll"
.LASF117:
	.string	"not_eof"
.LASF1285:
	.string	"fgetpos"
.LASF142:
	.string	"_M_max_size"
.LASF279:
	.string	"_ZNSt7__cxx1112basic_stringIcSt11char_traitsIcESaIcEE9_M_lengthEm"
.LASF1402:
	.string	"_ZNSt15__new_allocatorIlEC2Ev"
.LASF1126:
	.string	"_ZNK9__gnu_cxx17__normal_iteratorIPlSt6vectorIlSaIlEEEplEl"
.LASF364:
	.string	"_ZNKSt7__cxx1112basic_stringIcSt11char_traitsIcESaIcEE4sizeEv"
.LASF46:
	.string	"_wide_data"
.LASF1325:
	.string	"_ZN6__pstl9execution2v127parallel_unsequenced_policy16__allow_parallelEv"
.LASF1472:
	.string	"tensor"
.LASF1284:
	.string	"fgetc"
.LASF229:
	.string	"_ZNKSt17basic_string_viewIcSt11char_traitsIcEE12find_last_ofEcm"
.LASF349:
	.string	"operator std::__cxx11::basic_string<char>::__sv_type"
.LASF296:
	.string	"_M_construct"
.LASF127:
	.string	"_ZNSt15__new_allocatorIcED4Ev"
.LASF736:
	.string	"_ZNSt12_Vector_baseIiSaIiEE12_Vector_implC4EOS2_"
.LASF835:
	.string	"_ZNSt6vectorIiSaIiEE8_M_eraseEN9__gnu_cxx17__normal_iteratorIPiS1_EE"
.LASF1286:
	.string	"fgets"
.LASF457:
	.string	"_ZNKSt7__cxx1112basic_stringIcSt11char_traitsIcESaIcEE4findEcm"
.LASF407:
	.string	"_ZNSt7__cxx1112basic_stringIcSt11char_traitsIcESaIcEE6assignEmc"
.LASF1304:
	.string	"wctype_t"
.LASF88:
	.string	"_ZNSt15__exception_ptr13exception_ptr4swapERS0_"
.LASF889:
	.string	"__copy_move_a<false, long int const*, long int*>"
.LASF216:
	.string	"_ZNKSt17basic_string_viewIcSt11char_traitsIcEE4findEPKcm"
.LASF1093:
	.string	"_ZN9__gnu_cxx17__normal_iteratorIPKcNSt7__cxx1112basic_stringIcSt11char_traitsIcESaIcEEEEC4ERKS2_"
.LASF469:
	.string	"_ZNKSt7__cxx1112basic_stringIcSt11char_traitsIcESaIcEE12find_last_ofEcm"
.LASF346:
	.string	"_ZNSt7__cxx1112basic_stringIcSt11char_traitsIcESaIcEEaSEc"
.LASF586:
	.string	"_M_impl"
.LASF665:
	.string	"_ZNSt6vectorIlSaIlEE5eraseEN9__gnu_cxx17__normal_iteratorIPKlS1_EES6_"
.LASF205:
	.string	"substr"
.LASF1458:
	.string	"_ZNSt7__cxx1112basic_stringIcSt11char_traitsIcESaIcEEC2IS3_EEPKcRKS3_"
.LASF1214:
	.string	"negative_sign"
.LASF1045:
	.string	"_ZN9__gnu_cxx11char_traitsIcE7not_eofERKm"
.LASF367:
	.string	"resize"
.LASF39:
	.string	"_old_offset"
.LASF1249:
	.string	"getenv"
.LASF971:
	.string	"mbsrtowcs"
.LASF87:
	.string	"swap"
.LASF1271:
	.string	"_G_fpos_t"
.LASF1008:
	.string	"wcsncpy"
.LASF680:
	.string	"_M_insert_rval"
.LASF1353:
	.string	"_ZN9container7details11index_checkEll"
.LASF1273:
	.string	"__state"
.LASF319:
	.string	"_ZNSt7__cxx1112basic_stringIcSt11char_traitsIcESaIcEE13_S_copy_charsEPcN9__gnu_cxx17__normal_iteratorIS5_S4_EES8_"
.LASF1312:
	.string	"__allow_unsequenced"
.LASF146:
	.string	"_ZNSaIcEC4Ev"
.LASF1191:
	.string	"uint_least64_t"
.LASF741:
	.string	"_ZNKSt12_Vector_baseIiSaIiEE19_M_get_Tp_allocatorEv"
.LASF97:
	.string	"_ZNSt11char_traitsIcE2ltERKcS2_"
.LASF464:
	.string	"_ZNKSt7__cxx1112basic_stringIcSt11char_traitsIcESaIcEE13find_first_ofEPKcm"
.LASF1072:
	.string	"_ZNK9__gnu_cxx17__normal_iteratorIPcNSt7__cxx1112basic_stringIcSt11char_traitsIcESaIcEEEEptEv"
.LASF739:
	.string	"_ZNSt12_Vector_baseIiSaIiEE12_Vector_implD4Ev"
.LASF1232:
	.string	"__gnu_debug"
.LASF592:
	.string	"_ZNSt12_Vector_baseIlSaIlEE17_M_create_storageEm"
.LASF332:
	.string	"_ZNSt7__cxx1112basic_stringIcSt11char_traitsIcESaIcEEC4ERKS3_"
.LASF458:
	.string	"_ZNKSt7__cxx1112basic_stringIcSt11char_traitsIcESaIcEE5rfindERKS4_m"
.LASF325:
	.string	"_M_assign"
.LASF534:
	.string	"_ZNSt15__new_allocatorIlE10deallocateEPlm"
.LASF568:
	.string	"_ZNSt7__cxx1112basic_stringIcSt11char_traitsIcESaIcEE12_Alloc_hiderD4Ev"
.LASF433:
	.string	"_ZNSt7__cxx1112basic_stringIcSt11char_traitsIcESaIcEE7replaceEN9__gnu_cxx17__normal_iteratorIPKcS4_EES9_S8_"
.LASF274:
	.string	"_M_dataplus"
.LASF493:
	.string	"to_string"
.LASF1111:
	.string	"_ZN9__gnu_cxx14__alloc_traitsISaIlElE20_S_propagate_on_swapEv"
.LASF1442:
	.string	"_ZNSt6vectorIiSaIiEED2Ev"
.LASF1153:
	.string	"char16_t"
.LASF777:
	.string	"_ZNSt6vectorIiSaIiEEaSEOS1_"
.LASF583:
	.string	"_ZNSt12_Vector_baseIlSaIlEEC4ERKS0_OS1_"
.LASF428:
	.string	"_ZNSt7__cxx1112basic_stringIcSt11char_traitsIcESaIcEE7replaceEmmPKcm"
.LASF34:
	.string	"_IO_save_end"
.LASF381:
	.string	"_ZNSt7__cxx1112basic_stringIcSt11char_traitsIcESaIcEEixEm"
.LASF58:
	.string	"operator()"
.LASF195:
	.string	"back"
.LASF201:
	.string	"_ZNSt17basic_string_viewIcSt11char_traitsIcEE13remove_prefixEm"
.LASF333:
	.string	"_ZNSt7__cxx1112basic_stringIcSt11char_traitsIcESaIcEEC4ERKS4_"
.LASF1090:
	.string	"__normal_iterator<char const*, std::__cxx11::basic_string<char, std::char_traits<char>, std::allocator<char> > >"
.LASF1461:
	.string	"_ZNSt7__cxx1112basic_stringIcSt11char_traitsIcESaIcEEC2IS3_EEmcRKS3_"
.LASF702:
	.string	"_ZNSt16initializer_listIlEC4Ev"
.LASF1129:
	.string	"_ZNK9__gnu_cxx17__normal_iteratorIPlSt6vectorIlSaIlEEE4baseEv"
.LASF1359:
	.string	"operator delete"
.LASF125:
	.string	"_ZNSt15__new_allocatorIcEC4ERKS0_"
.LASF1336:
	.string	"tensor_base_static<int, 2, 3, 4, 5>"
.LASF1243:
	.string	"atexit"
.LASF641:
	.string	"_ZNSt6vectorIlSaIlEE13shrink_to_fitEv"
.LASF130:
	.string	"pointer"
.LASF1101:
	.string	"_ZN9__gnu_cxx17__normal_iteratorIPKcNSt7__cxx1112basic_stringIcSt11char_traitsIcESaIcEEEEpLEl"
.LASF842:
	.string	"iterator_traits<char*>"
.LASF637:
	.string	"_ZNKSt6vectorIlSaIlEE4sizeEv"
.LASF1311:
	.string	"sequenced_policy"
.LASF1135:
	.string	"_ZN9__gnu_cxx14__alloc_traitsISaIiEiE27_S_propagate_on_move_assignEv"
.LASF1348:
	.string	"_ZN9container7details18tensor_base_staticIiJLl2ELl3ELl4ELl5EEEclIJiiiiEEERiDpT_"
.LASF144:
	.string	"allocator<char>"
.LASF1357:
	.string	"_ZNSt13runtime_errorC1ERKNSt7__cxx1112basic_stringIcSt11char_traitsIcESaIcEEE"
.LASF275:
	.string	"_M_string_length"
.LASF424:
	.string	"_ZNSt7__cxx1112basic_stringIcSt11char_traitsIcESaIcEE8pop_backEv"
.LASF1358:
	.string	"__cxa_begin_catch"
.LASF973:
	.string	"putwchar"
.LASF853:
	.string	"_IsMove"
.LASF1504:
	.string	"_GLOBAL__sub_I__ZN9exception17exception_messageEONSt7__cxx1112basic_stringIcSt11char_traitsIcESaIcEEE"
.LASF204:
	.string	"_ZNKSt17basic_string_viewIcSt11char_traitsIcEE4copyEPcmm"
.LASF927:
	.string	"_ZSt10__distanceIPKcENSt15iterator_traitsIT_E15difference_typeES3_S3_St26random_access_iterator_tag"
.LASF1392:
	.string	"_ZNSt15__new_allocatorIiEC2Ev"
.LASF790:
	.string	"_ZNKSt6vectorIiSaIiEE4cendEv"
.LASF807:
	.string	"_ZNKSt6vectorIiSaIiEE5frontEv"
.LASF151:
	.string	"~allocator"
.LASF66:
	.string	"__swappable_details"
.LASF1073:
	.string	"operator++"
.LASF589:
	.string	"_M_deallocate"
.LASF329:
	.string	"_M_erase"
.LASF388:
	.string	"operator+="
.LASF158:
	.string	"__destroy<long int*>"
.LASF86:
	.string	"_ZNSt15__exception_ptr13exception_ptrD4Ev"
.LASF1410:
	.string	"_ZNSt12_Vector_baseIlSaIlEE12_Vector_implD2Ev"
.LASF848:
	.string	"enable_if<true, int*>"
.LASF401:
	.string	"_ZNSt7__cxx1112basic_stringIcSt11char_traitsIcESaIcEE9push_backEc"
.LASF809:
	.string	"_ZNKSt6vectorIiSaIiEE4backEv"
.LASF960:
	.string	"wchar_t"
.LASF1218:
	.string	"p_sep_by_space"
.LASF492:
	.string	"_Alloc"
.LASF1059:
	.string	"_S_always_equal"
.LASF882:
	.string	"_ZSt12__niter_baseIPKlET_S2_"
.LASF303:
	.string	"_ZNSt7__cxx1112basic_stringIcSt11char_traitsIcESaIcEE17_M_use_local_dataEv"
.LASF220:
	.string	"_ZNKSt17basic_string_viewIcSt11char_traitsIcEE5rfindEPKcmm"
.LASF1415:
	.string	"_ZNSt12_Vector_baseIiSaIiEED2Ev"
.LASF979:
	.string	"vfwscanf"
.LASF1199:
	.string	"uint_fast64_t"
.LASF770:
	.string	"_ZNSt6vectorIiSaIiEEC4ERKS1_RKS0_"
.LASF1378:
	.string	"__alloc"
.LASF841:
	.string	"reverse_iterator<__gnu_cxx::__normal_iterator<int const*, std::vector<int, std::allocator<int> > > >"
.LASF1371:
	.string	"__result"
.LASF923:
	.string	"_RandomAccessIterator"
.LASF1147:
	.string	"wcstoull"
.LASF916:
	.string	"_ZSt18uninitialized_copyIPKlPlET0_T_S4_S3_"
.LASF1002:
	.string	"tm_isdst"
.LASF642:
	.string	"_ZNKSt6vectorIlSaIlEE8capacityEv"
.LASF1217:
	.string	"p_cs_precedes"
.LASF354:
	.string	"_ZNKSt7__cxx1112basic_stringIcSt11char_traitsIcESaIcEE3endEv"
.LASF504:
	.string	"reverse_iterator<__gnu_cxx::__normal_iterator<char const*, std::__cxx11::basic_string<char, std::char_traits<char>, std::allocator<char> > > >"
.LASF553:
	.string	"_ZNSt12_Vector_baseIlSaIlEE17_Vector_impl_dataC4Ev"
.LASF398:
	.string	"_ZNSt7__cxx1112basic_stringIcSt11char_traitsIcESaIcEE6appendEmc"
.LASF81:
	.string	"_ZNSt15__exception_ptr13exception_ptrC4EOS0_"
.LASF1076:
	.string	"operator--"
.LASF607:
	.string	"_ZNSt6vectorIlSaIlEEC4Ev"
.LASF1488:
	.string	"align_val_t"
.LASF1083:
	.string	"operator-="
.LASF1071:
	.string	"operator->"
.LASF635:
	.string	"_ZNKSt6vectorIlSaIlEE7crbeginEv"
.LASF846:
	.string	"iterator_traits<long int*>"
.LASF1460:
	.string	"_ZNSt7__cxx1112basic_stringIcSt11char_traitsIcESaIcEED2Ev"
.LASF422:
	.string	"_ZNSt7__cxx1112basic_stringIcSt11char_traitsIcESaIcEE5eraseEN9__gnu_cxx17__normal_iteratorIPKcS4_EES9_"
.LASF1485:
	.string	"__int128 unsigned"
.LASF931:
	.string	"_ZSt8_DestroyIPlEvT_S1_"
.LASF1013:
	.string	"wcstok"
.LASF1398:
	.string	"_ZN9__gnu_cxx17__normal_iteratorIPlSt6vectorIlSaIlEEEC2ERKS1_"
.LASF482:
	.string	"_ZNKSt7__cxx1112basic_stringIcSt11char_traitsIcESaIcEE7compareEPKc"
.LASF1152:
	.string	"short int"
.LASF528:
	.string	"_ZNSt15__new_allocatorIlEC4Ev"
.LASF896:
	.string	"_ZSt10_ConstructIiJEEvPT_DpOT0_"
.LASF1141:
	.string	"__normal_iterator<int const*, std::vector<int, std::allocator<int> > >"
.LASF590:
	.string	"_ZNSt12_Vector_baseIlSaIlEE13_M_deallocateEPlm"
.LASF934:
	.string	"distance<long int const*>"
.LASF289:
	.string	"_ZNKSt7__cxx1112basic_stringIcSt11char_traitsIcESaIcEE11_M_is_localEv"
.LASF894:
	.string	"_ZSt6fill_nIPimiET_S1_T0_RKT1_"
.LASF449:
	.string	"_ZNKSt7__cxx1112basic_stringIcSt11char_traitsIcESaIcEE5c_strEv"
.LASF1036:
	.string	"_ZN9__gnu_cxx11char_traitsIcE7compareEPKcS3_m"
.LASF858:
	.string	"_ZNSt13runtime_errorC4EPKc"
.LASF1258:
	.string	"srand"
.LASF928:
	.string	"__iterator_category<char const*>"
.LASF910:
	.string	"_Allocator"
.LASF1231:
	.string	"localeconv"
.LASF416:
	.string	"_ZNSt7__cxx1112basic_stringIcSt11char_traitsIcESaIcEE6insertEmmc"
.LASF705:
	.string	"_ZNKSt16initializer_listIlE3endEv"
.LASF646:
	.string	"_ZNKSt6vectorIlSaIlEEixEm"
.LASF241:
	.string	"_ZNKSt17basic_string_viewIcSt11char_traitsIcEE16find_last_not_ofEPKcm"
.LASF35:
	.string	"_markers"
.LASF1477:
	.string	"exception_message"
.LASF37:
	.string	"_fileno"
.LASF57:
	.string	"operator std::integral_constant<bool, false>::value_type"
.LASF1167:
	.string	"__int_least32_t"
.LASF352:
	.string	"_ZNKSt7__cxx1112basic_stringIcSt11char_traitsIcESaIcEE5beginEv"
.LASF1136:
	.string	"_ZN9__gnu_cxx14__alloc_traitsISaIiEiE20_S_propagate_on_swapEv"
.LASF291:
	.string	"_ZNSt7__cxx1112basic_stringIcSt11char_traitsIcESaIcEE9_M_createERmm"
.LASF1368:
	.string	"__priority"
.LASF1035:
	.string	"_ZN9__gnu_cxx11char_traitsIcE2ltERKcS3_"
.LASF549:
	.string	"_Vector_impl_data"
.LASF703:
	.string	"_ZNKSt16initializer_listIlE4sizeEv"
.LASF690:
	.string	"_M_erase_at_end"
.LASF578:
	.string	"_ZNSt12_Vector_baseIlSaIlEEC4Em"
.LASF1459:
	.string	"__num"
.LASF426:
	.string	"_ZNSt7__cxx1112basic_stringIcSt11char_traitsIcESaIcEE7replaceEmmRKS4_"
.LASF755:
	.string	"__type_identity<std::allocator<int> >"
.LASF405:
	.string	"_ZNSt7__cxx1112basic_stringIcSt11char_traitsIcESaIcEE6assignEPKcm"
.LASF1452:
	.string	"__closure"
.LASF102:
	.string	"find"
.LASF1316:
	.string	"__allow_parallel"
.LASF190:
	.string	"_ZNKSt17basic_string_viewIcSt11char_traitsIcEEixEm"
.LASF675:
	.string	"_ZNSt6vectorIlSaIlEE14_M_fill_insertEN9__gnu_cxx17__normal_iteratorIPlS1_EEmRKl"
.LASF955:
	.string	"__is_constant_evaluated"
.LASF1175:
	.string	"__ssize_t"
.LASF1186:
	.string	"int_least32_t"
.LASF728:
	.string	"_ZNSt16allocator_traitsISaIiEE37select_on_container_copy_constructionERKS0_"
.LASF1294:
	.string	"getchar"
.LASF1367:
	.string	"__initialize_p"
.LASF1063:
	.string	"rebind<char>"
.LASF1419:
	.string	"__end"
.LASF614:
	.string	"_ZNSt6vectorIlSaIlEEC4EOS1_RKS0_St17integral_constantIbLb1EE"
.LASF227:
	.string	"find_last_of"
.LASF1015:
	.string	"long int"
.LASF340:
	.string	"_ZNSt7__cxx1112basic_stringIcSt11char_traitsIcESaIcEEC4ERKS4_RKS3_"
.LASF612:
	.string	"_ZNSt6vectorIlSaIlEEC4EOS1_"
.LASF1054:
	.string	"_ZN9__gnu_cxx14__alloc_traitsISaIcEcE27_S_propagate_on_copy_assignEv"
.LASF1159:
	.string	"__int32_t"
.LASF1021:
	.string	"wmemmove"
.LASF322:
	.string	"_ZNSt7__cxx1112basic_stringIcSt11char_traitsIcESaIcEE13_S_copy_charsEPcS5_S5_"
.LASF253:
	.string	"_ZNSt11char_traitsIcE6assignERcRKc"
.LASF775:
	.string	"_ZNSt6vectorIiSaIiEED4Ev"
.LASF390:
	.string	"_ZNSt7__cxx1112basic_stringIcSt11char_traitsIcESaIcEEpLEPKc"
.LASF1127:
	.string	"_ZN9__gnu_cxx17__normal_iteratorIPlSt6vectorIlSaIlEEEmIEl"
.LASF224:
	.string	"_ZNKSt17basic_string_viewIcSt11char_traitsIcEE13find_first_ofEcm"
.LASF1439:
	.string	"size_1d"
.LASF1104:
	.string	"_ZNK9__gnu_cxx17__normal_iteratorIPKcNSt7__cxx1112basic_stringIcSt11char_traitsIcESaIcEEEEmiEl"
.LASF1031:
	.string	"__gnu_cxx"
.LASF655:
	.string	"_ZNSt6vectorIlSaIlEE4dataEv"
.LASF1193:
	.string	"int_fast16_t"
.LASF1051:
	.string	"_S_on_swap"
.LASF225:
	.string	"_ZNKSt17basic_string_viewIcSt11char_traitsIcEE13find_first_ofEPKcmm"
.LASF1313:
	.string	"__allow_vector"
.LASF671:
	.string	"_ZNSt6vectorIlSaIlEE21_M_default_initializeEm"
.LASF294:
	.string	"_M_destroy"
.LASF555:
	.string	"_M_copy_data"
.LASF480:
	.string	"_ZNKSt7__cxx1112basic_stringIcSt11char_traitsIcESaIcEE7compareEmmRKS4_"
.LASF672:
	.string	"_M_fill_assign"
.LASF1400:
	.string	"__in_chrg"
.LASF803:
	.string	"_ZNKSt6vectorIiSaIiEE14_M_range_checkEm"
.LASF429:
	.string	"_ZNSt7__cxx1112basic_stringIcSt11char_traitsIcESaIcEE7replaceEmmPKc"
.LASF605:
	.string	"_ZNSt6vectorIlSaIlEE11_S_relocateEPlS2_S2_RS0_"
.LASF1412:
	.string	"_ZNSt6vectorIlSaIlEEC2ESt16initializer_listIlERKS0_"
.LASF321:
	.string	"_ZNSt7__cxx1112basic_stringIcSt11char_traitsIcESaIcEE13_S_copy_charsEPcN9__gnu_cxx17__normal_iteratorIPKcS4_EESA_"
.LASF844:
	.string	"iterator_traits<char const*>"
.LASF663:
	.string	"_ZNSt6vectorIlSaIlEE6insertEN9__gnu_cxx17__normal_iteratorIPKlS1_EEmRS4_"
.LASF295:
	.string	"_ZNSt7__cxx1112basic_stringIcSt11char_traitsIcESaIcEE10_M_destroyEm"
.LASF27:
	.string	"_IO_write_base"
.LASF1360:
	.string	"_ZdlPvm"
.LASF616:
	.string	"_ZNSt6vectorIlSaIlEEC4EOS1_RKS0_"
.LASF103:
	.string	"_ZNSt11char_traitsIcE4findEPKcmRS1_"
.LASF536:
	.string	"_ZNKSt15__new_allocatorIlE11_M_max_sizeEv"
.LASF709:
	.string	"_ZNSt15__new_allocatorIiEC4Ev"
.LASF1005:
	.string	"wcslen"
.LASF228:
	.string	"_ZNKSt17basic_string_viewIcSt11char_traitsIcEE12find_last_ofES2_m"
.LASF1329:
	.string	"_ZN6__pstl9execution2v118unsequenced_policy16__allow_parallelEv"
.LASF623:
	.string	"_ZNSt6vectorIlSaIlEE6assignEmRKl"
.LASF55:
	.string	"integral_constant<bool, false>"
.LASF411:
	.string	"_ZNSt7__cxx1112basic_stringIcSt11char_traitsIcESaIcEE6insertEN9__gnu_cxx17__normal_iteratorIPKcS4_EESt16initializer_listIcE"
.LASF816:
	.string	"_ZNSt6vectorIiSaIiEE6insertEN9__gnu_cxx17__normal_iteratorIPKiS1_EEOi"
.LASF1137:
	.string	"_ZN9__gnu_cxx14__alloc_traitsISaIiEiE15_S_always_equalEv"
.LASF211:
	.string	"_ZNKSt17basic_string_viewIcSt11char_traitsIcEE7compareEmmPKc"
.LASF658:
	.string	"_ZNSt6vectorIlSaIlEE9push_backEOl"
.LASF290:
	.string	"_M_create"
.LASF115:
	.string	"eq_int_type"
.LASF356:
	.string	"_ZNSt7__cxx1112basic_stringIcSt11char_traitsIcESaIcEE6rbeginEv"
.LASF164:
	.string	"_ZNSt17basic_string_viewIcSt11char_traitsIcEEC4EPKc"
.LASF1177:
	.string	"int16_t"
.LASF1272:
	.string	"__pos"
.LASF569:
	.string	"_ZNSt12_Vector_baseIlSaIlEE12_Vector_implD4Ev"
.LASF1070:
	.string	"_ZNK9__gnu_cxx17__normal_iteratorIPcNSt7__cxx1112basic_stringIcSt11char_traitsIcESaIcEEEEdeEv"
.LASF1393:
	.string	"__size"
.LASF564:
	.string	"_ZNSt12_Vector_baseIlSaIlEE12_Vector_implC4EOS0_"
.LASF596:
	.string	"vector<long int, std::allocator<long int> >"
.LASF1280:
	.string	"fclose"
.LASF806:
	.string	"_ZNSt6vectorIiSaIiEE5frontEv"
.LASF824:
	.string	"_ZNSt6vectorIiSaIiEE21_M_default_initializeEm"
.LASF664:
	.string	"_ZNSt6vectorIlSaIlEE5eraseEN9__gnu_cxx17__normal_iteratorIPKlS1_EE"
.LASF410:
	.string	"_ZNSt7__cxx1112basic_stringIcSt11char_traitsIcESaIcEE6insertEN9__gnu_cxx17__normal_iteratorIPKcS4_EEmc"
.LASF308:
	.string	"_M_limit"
.LASF839:
	.string	"initializer_list<int>"
.LASF783:
	.string	"_ZNSt6vectorIiSaIiEE3endEv"
.LASF1040:
	.string	"_ZN9__gnu_cxx11char_traitsIcE4copyEPcPKcm"
.LASF867:
	.string	"__fill_a1<int*, int>"
.LASF1315:
	.string	"_ZN6__pstl9execution2v116sequenced_policy14__allow_vectorEv"
.LASF474:
	.string	"_ZNKSt7__cxx1112basic_stringIcSt11char_traitsIcESaIcEE16find_last_not_ofERKS4_m"
.LASF476:
	.string	"_ZNKSt7__cxx1112basic_stringIcSt11char_traitsIcESaIcEE16find_last_not_ofEPKcm"
.LASF776:
	.string	"_ZNSt6vectorIiSaIiEEaSERKS1_"
.LASF740:
	.string	"_ZNSt12_Vector_baseIiSaIiEE19_M_get_Tp_allocatorEv"
.LASF442:
	.string	"_M_replace"
.LASF1057:
	.string	"_S_propagate_on_swap"
.LASF1299:
	.string	"setbuf"
.LASF1195:
	.string	"int_fast64_t"
.LASF1375:
	.string	"__res"
.LASF1264:
	.string	"wctomb"
.LASF459:
	.string	"_ZNKSt7__cxx1112basic_stringIcSt11char_traitsIcESaIcEE5rfindEPKcmm"
.LASF1497:
	.string	"_ZN9__gnu_cxx11char_traitsIcE3eofEv"
.LASF1483:
	.string	"_ZnwmPv"
.LASF343:
	.string	"_ZNSt7__cxx1112basic_stringIcSt11char_traitsIcESaIcEED4Ev"
.LASF694:
	.string	"_M_move_assign"
.LASF186:
	.string	"_ZNKSt17basic_string_viewIcSt11char_traitsIcEE8max_sizeEv"
.LASF591:
	.string	"_M_create_storage"
.LASF123:
	.string	"__new_allocator"
.LASF40:
	.string	"_cur_column"
.LASF281:
	.string	"_M_local_data"
.LASF1432:
	.string	"_ZNSt15__new_allocatorIcEC2Ev"
.LASF112:
	.string	"int_type"
.LASF691:
	.string	"_ZNSt6vectorIlSaIlEE15_M_erase_at_endEPl"
.LASF1411:
	.string	"__new_size"
.LASF1507:
	.string	"_ZZNSt7__cxx1112basic_stringIcSt11char_traitsIcESaIcEE12_M_constructIPKcEEvT_S8_St20forward_iterator_tagEN6_GuardD2Ev"
.LASF84:
	.string	"_ZNSt15__exception_ptr13exception_ptraSEOS0_"
.LASF187:
	.string	"empty"
.LASF468:
	.string	"_ZNKSt7__cxx1112basic_stringIcSt11char_traitsIcESaIcEE12find_last_ofEPKcm"
.LASF147:
	.string	"_ZNSaIcEC4ERKS_"
.LASF526:
	.string	"_TrivialValueType"
.LASF1463:
	.string	"_ZNSaIcED2Ev"
.LASF1042:
	.string	"_ZN9__gnu_cxx11char_traitsIcE12to_char_typeERKm"
.LASF288:
	.string	"_M_is_local"
.LASF1423:
	.string	"~_Guard"
.LASF1089:
	.string	"_Container"
.LASF255:
	.string	"_ZNSt16allocator_traitsISaIcEE8max_sizeERKS0_"
.LASF1128:
	.string	"_ZNK9__gnu_cxx17__normal_iteratorIPlSt6vectorIlSaIlEEEmiEl"
.LASF1212:
	.string	"mon_grouping"
.LASF595:
	.string	"_Type"
.LASF763:
	.string	"_ZNSt6vectorIiSaIiEE11_S_relocateEPiS2_S2_RS0_"
.LASF643:
	.string	"_ZNKSt6vectorIlSaIlEE5emptyEv"
.LASF1032:
	.string	"_Char_types<char>"
.LASF1030:
	.string	"wmemchr"
.LASF1364:
	.string	"__cxa_throw"
.LASF479:
	.string	"_ZNKSt7__cxx1112basic_stringIcSt11char_traitsIcESaIcEE7compareERKS4_"
.LASF1490:
	.string	"input_iterator_tag"
.LASF1251:
	.string	"mblen"
.LASF453:
	.string	"_ZNKSt7__cxx1112basic_stringIcSt11char_traitsIcESaIcEE13get_allocatorEv"
.LASF503:
	.string	"reverse_iterator<__gnu_cxx::__normal_iterator<char*, std::__cxx11::basic_string<char, std::char_traits<char>, std::allocator<char> > > >"
.LASF942:
	.string	"for_each<__gnu_cxx::__normal_iterator<long int*, std::vector<long int> >, container::details::tensor_base_static<int, 2, 3, 4, 5>::tensor_base_static()::<lambda(int)> >"
.LASF999:
	.string	"tm_year"
.LASF478:
	.string	"_ZNKSt7__cxx1112basic_stringIcSt11char_traitsIcESaIcEE6substrEmm"
.LASF219:
	.string	"_ZNKSt17basic_string_viewIcSt11char_traitsIcEE5rfindEcm"
.LASF1397:
	.string	"__rhs"
.LASF1239:
	.string	"7lldiv_t"
.LASF938:
	.string	"_Destroy<long int*, long int>"
.LASF908:
	.string	"__relocate_a<int*, int*, std::allocator<int> >"
.LASF113:
	.string	"to_int_type"
.LASF317:
	.string	"_ZNSt7__cxx1112basic_stringIcSt11char_traitsIcESaIcEE9_S_assignEPcmc"
.LASF514:
	.string	"operator<<"
.LASF396:
	.string	"_ZNSt7__cxx1112basic_stringIcSt11char_traitsIcESaIcEE6appendEPKcm"
.LASF153:
	.string	"forward_iterator_tag"
.LASF1486:
	.string	"GNU C++17 12.2.0 -mtune=generic -march=x86-64 -g -std=c++17 -fasynchronous-unwind-tables"
.LASF798:
	.string	"_ZNKSt6vectorIiSaIiEE8capacityEv"
.LASF79:
	.string	"_ZNSt15__exception_ptr13exception_ptrC4ERKS0_"
.LASF836:
	.string	"_ZNSt6vectorIiSaIiEE8_M_eraseEN9__gnu_cxx17__normal_iteratorIPiS1_EES5_"
.LASF757:
	.string	"_ZNSt6vectorIiSaIiEE19_S_nothrow_relocateESt17integral_constantIbLb1EE"
.LASF136:
	.string	"_ZNSt15__new_allocatorIcE8allocateEmPKv"
.LASF1268:
	.string	"strtoull"
.LASF491:
	.string	"_Traits"
.LASF877:
	.string	"__copy_move_a1<false, long int const*, long int*>"
.LASF298:
	.string	"_Char_alloc_type"
.LASF361:
	.string	"_ZNKSt7__cxx1112basic_stringIcSt11char_traitsIcESaIcEE4cendEv"
.LASF1174:
	.string	"__off64_t"
.LASF1011:
	.string	"wcstod"
.LASF65:
	.string	"false_type"
.LASF1012:
	.string	"wcstof"
.LASF1000:
	.string	"tm_wday"
.LASF1014:
	.string	"wcstol"
.LASF629:
	.string	"_ZNSt6vectorIlSaIlEE6rbeginEv"
.LASF365:
	.string	"_ZNKSt7__cxx1112basic_stringIcSt11char_traitsIcESaIcEE6lengthEv"
.LASF519:
	.string	"_ZNSt20__uninitialized_copyILb1EE13__uninit_copyIPKlPlEET0_T_S6_S5_"
.LASF318:
	.string	"_S_copy_chars"
.LASF838:
	.string	"_ZNSt6vectorIiSaIiEE14_M_move_assignEOS1_St17integral_constantIbLb0EE"
.LASF650:
	.string	"_ZNKSt6vectorIlSaIlEE2atEm"
.LASF75:
	.string	"_ZNSt15__exception_ptr13exception_ptr10_M_releaseEv"
.LASF1151:
	.string	"signed char"
.LASF920:
	.string	"_ZSt22__uninitialized_copy_aIPKlPllET0_T_S4_S3_RSaIT1_E"
.LASF1327:
	.string	"_ZN6__pstl9execution2v118unsequenced_policy19__allow_unsequencedEv"
.LASF387:
	.string	"_ZNKSt7__cxx1112basic_stringIcSt11char_traitsIcESaIcEE4backEv"
.LASF378:
	.string	"_ZNSt7__cxx1112basic_stringIcSt11char_traitsIcESaIcEE5clearEv"
.LASF1491:
	.string	"_ZNSt12_Destroy_auxILb1EE9__destroyIPiEEvT_S3_"
.LASF262:
	.string	"_ZNSt7__cxx1112basic_stringIcSt11char_traitsIcESaIcEE12_Alloc_hiderC4EPcOS3_"
.LASF707:
	.string	"reverse_iterator<__gnu_cxx::__normal_iterator<long int const*, std::vector<long int, std::allocator<long int> > > >"
.LASF1389:
	.string	"_ZNSaIlEC2ERKS_"
.LASF913:
	.string	"__uninitialized_default_n<int*, long unsigned int>"
.LASF1438:
	.string	"index_1d"
.LASF413:
	.string	"_ZNSt7__cxx1112basic_stringIcSt11char_traitsIcESaIcEE6insertEmRKS4_mm"
.LASF659:
	.string	"_ZNSt6vectorIlSaIlEE8pop_backEv"
.LASF921:
	.string	"__distance<long int const*>"
.LASF874:
	.string	"__niter_wrap<long int*>"
.LASF511:
	.string	"_ZNSt8ios_base4InitaSERKS0_"
.LASF499:
	.string	"_ZNSt16initializer_listIcEC4Ev"
.LASF748:
	.string	"_ZNSt12_Vector_baseIiSaIiEEC4EOS0_"
.LASF1319:
	.string	"_ZN6__pstl9execution2v115parallel_policy19__allow_unsequencedEv"
.LASF986:
	.string	"__isoc99_vwscanf"
.LASF957:
	.string	"btowc"
.LASF714:
	.string	"_ZNSt15__new_allocatorIiE8allocateEmPKv"
.LASF943:
	.string	"_ZSt8for_eachIN9__gnu_cxx17__normal_iteratorIPlSt6vectorIlSaIlEEEEZN9container7details18tensor_base_staticIiJLl2ELl3ELl4ELl5EEEC4EvEUliE_ET0_T_SD_SC_"
.LASF488:
	.string	"basic_string<>"
.LASF751:
	.string	"_ZNSt12_Vector_baseIiSaIiEED4Ev"
.LASF256:
	.string	"select_on_container_copy_construction"
.LASF74:
	.string	"_ZNSt15__exception_ptr13exception_ptr9_M_addrefEv"
.LASF1019:
	.string	"wmemcmp"
.LASF1053:
	.string	"_S_propagate_on_copy_assign"
.LASF198:
	.string	"_ZNKSt17basic_string_viewIcSt11char_traitsIcEE4dataEv"
.LASF1162:
	.string	"__uint64_t"
.LASF747:
	.string	"_ZNSt12_Vector_baseIiSaIiEEC4EOS1_"
.LASF140:
	.string	"max_size"
.LASF897:
	.string	"__addressof<int>"
.LASF507:
	.string	"_ZNSt8ios_base4InitC4Ev"
.LASF515:
	.string	"_ZNSolsEi"
.LASF94:
	.string	"char_traits<char>"
.LASF647:
	.string	"_M_range_check"
.LASF545:
	.string	"_ZNSt16allocator_traitsISaIlEE10deallocateERS0_Plm"
.LASF621:
	.string	"_ZNSt6vectorIlSaIlEEaSEOS1_"
.LASF203:
	.string	"_ZNSt17basic_string_viewIcSt11char_traitsIcEE4swapERS2_"
.LASF727:
	.string	"_ZNSt16allocator_traitsISaIiEE8max_sizeERKS0_"
.LASF1350:
	.string	"data_type"
.LASF787:
	.string	"_ZNSt6vectorIiSaIiEE4rendEv"
.LASF523:
	.string	"__uninit_default_n<int*, long unsigned int>"
.LASF306:
	.string	"_M_check_length"
.LASF556:
	.string	"_ZNSt12_Vector_baseIlSaIlEE17_Vector_impl_data12_M_copy_dataERKS2_"
.LASF625:
	.string	"_ZNSt6vectorIlSaIlEE5beginEv"
.LASF451:
	.string	"_ZNSt7__cxx1112basic_stringIcSt11char_traitsIcESaIcEE4dataEv"
.LASF1064:
	.string	"other"
.LASF270:
	.string	"_ZNSt7__cxx1112basic_stringIcSt11char_traitsIcESaIcEEC4ENS4_12__sv_wrapperERKS3_"
.LASF918:
	.string	"_ZSt27__uninitialized_default_n_aIPimiET_S1_T0_RSaIT1_E"
.LASF845:
	.string	"iterator_category"
.LASF929:
	.string	"_ZSt19__iterator_categoryIPKcENSt15iterator_traitsIT_E17iterator_categoryERKS3_"
.LASF870:
	.string	"_ZSt14__copy_move_a2ILb0EPKlPlET1_T0_S4_S3_"
.LASF302:
	.string	"_M_use_local_data"
.LASF445:
	.string	"_ZNSt7__cxx1112basic_stringIcSt11char_traitsIcESaIcEE9_M_appendEPKcm"
.LASF215:
	.string	"_ZNKSt17basic_string_viewIcSt11char_traitsIcEE4findEPKcmm"
.LASF1302:
	.string	"tmpnam"
.LASF1058:
	.string	"_ZN9__gnu_cxx14__alloc_traitsISaIcEcE20_S_propagate_on_swapEv"
.LASF175:
	.string	"rbegin"
.LASF1148:
	.string	"long long unsigned int"
.LASF163:
	.string	"_ZNSt17basic_string_viewIcSt11char_traitsIcEEC4ERKS2_"
.LASF1055:
	.string	"_S_propagate_on_move_assign"
.LASF1044:
	.string	"_ZN9__gnu_cxx11char_traitsIcE11eq_int_typeERKmS3_"
.LASF1020:
	.string	"wmemcpy"
.LASF217:
	.string	"rfind"
.LASF762:
	.string	"_ZNSt6vectorIiSaIiEE14_S_do_relocateEPiS2_S2_RS0_St17integral_constantIbLb0EE"
.LASF567:
	.string	"~_Vector_impl"
.LASF732:
	.string	"_ZNSt12_Vector_baseIiSaIiEE17_Vector_impl_data12_M_copy_dataERKS2_"
.LASF338:
	.string	"_ZNSt7__cxx1112basic_stringIcSt11char_traitsIcESaIcEEC4EOS4_"
.LASF634:
	.string	"_ZNKSt6vectorIlSaIlEE4cendEv"
.LASF106:
	.string	"copy"
.LASF825:
	.string	"_ZNSt6vectorIiSaIiEE14_M_fill_assignEmRKi"
.LASF1262:
	.string	"system"
.LASF851:
	.string	"__copy_m<long int>"
.LASF1048:
	.string	"__alloc_traits<std::allocator<char>, char>"
.LASF682:
	.string	"_M_emplace_aux"
.LASF109:
	.string	"_ZNSt11char_traitsIcE6assignEPcmc"
.LASF1069:
	.string	"operator*"
.LASF233:
	.string	"_ZNKSt17basic_string_viewIcSt11char_traitsIcEE17find_first_not_ofES2_m"
.LASF309:
	.string	"_ZNKSt7__cxx1112basic_stringIcSt11char_traitsIcESaIcEE8_M_limitEmm"
.LASF1085:
	.string	"operator-"
.LASF871:
	.string	"__fill_a<int*, int>"
.LASF648:
	.string	"_ZNKSt6vectorIlSaIlEE14_M_range_checkEm"
.LASF1317:
	.string	"_ZN6__pstl9execution2v116sequenced_policy16__allow_parallelEv"
.LASF1236:
	.string	"div_t"
.LASF82:
	.string	"operator="
.LASF444:
	.string	"_M_append"
.LASF1292:
	.string	"ftell"
.LASF62:
	.string	"operator std::integral_constant<bool, true>::value_type"
.LASF799:
	.string	"_ZNKSt6vectorIiSaIiEE5emptyEv"
.LASF608:
	.string	"_ZNSt6vectorIlSaIlEEC4ERKS0_"
.LASF820:
	.string	"_ZNSt6vectorIiSaIiEE5eraseEN9__gnu_cxx17__normal_iteratorIPKiS1_EES6_"
.LASF143:
	.string	"_ZNKSt15__new_allocatorIcE11_M_max_sizeEv"
.LASF1257:
	.string	"rand"
.LASF475:
	.string	"_ZNKSt7__cxx1112basic_stringIcSt11char_traitsIcESaIcEE16find_last_not_ofEPKcmm"
.LASF299:
	.string	"_M_get_allocator"
.LASF547:
	.string	"_ZNSt16allocator_traitsISaIlEE37select_on_container_copy_constructionERKS0_"
.LASF124:
	.string	"_ZNSt15__new_allocatorIcEC4Ev"
.LASF887:
	.string	"_ZSt19__iterator_categoryIPiENSt15iterator_traitsIT_E17iterator_categoryERKS2_"
.LASF1424:
	.string	"_ZZNSt7__cxx1112basic_stringIcSt11char_traitsIcESaIcEE12_M_constructIPKcEEvT_S8_St20forward_iterator_tagEN6_GuardD4Ev"
.LASF1065:
	.string	"__normal_iterator<char*, std::__cxx11::basic_string<char, std::char_traits<char>, std::allocator<char> > >"
.LASF1079:
	.string	"_ZNK9__gnu_cxx17__normal_iteratorIPcNSt7__cxx1112basic_stringIcSt11char_traitsIcESaIcEEEEixEl"
.LASF742:
	.string	"_ZNKSt12_Vector_baseIiSaIiEE13get_allocatorEv"
.LASF611:
	.string	"_ZNSt6vectorIlSaIlEEC4ERKS1_"
.LASF759:
	.string	"_ZNSt6vectorIlSaIlEE15_S_use_relocateEv"
.LASF1222:
	.string	"n_sign_posn"
.LASF831:
	.string	"_ZNKSt6vectorIiSaIiEE12_M_check_lenEmPKc"
.LASF603:
	.string	"_ZNSt6vectorIlSaIlEE14_S_do_relocateEPlS2_S2_RS0_St17integral_constantIbLb0EE"
.LASF1328:
	.string	"_ZN6__pstl9execution2v118unsequenced_policy14__allow_vectorEv"
.LASF666:
	.string	"_ZNSt6vectorIlSaIlEE4swapERS1_"
.LASF686:
	.string	"_S_check_init_len"
.LASF563:
	.string	"_ZNSt12_Vector_baseIlSaIlEE12_Vector_implC4EOS2_"
.LASF402:
	.string	"_ZNSt7__cxx1112basic_stringIcSt11char_traitsIcESaIcEE6assignERKS4_"
.LASF137:
	.string	"size_type"
.LASF2:
	.string	"__unknown__"
.LASF1068:
	.string	"_ZN9__gnu_cxx17__normal_iteratorIPcNSt7__cxx1112basic_stringIcSt11char_traitsIcESaIcEEEEC4ERKS1_"
.LASF1509:
	.string	"__digits"
.LASF785:
	.string	"_ZNSt6vectorIiSaIiEE6rbeginEv"
.LASF1087:
	.string	"base"
.LASF348:
	.string	"_ZNSt7__cxx1112basic_stringIcSt11char_traitsIcESaIcEEaSESt16initializer_listIcE"
.LASF52:
	.string	"FILE"
.LASF150:
	.string	"_ZNSaIcEaSERKS_"
.LASF1067:
	.string	"_ZN9__gnu_cxx17__normal_iteratorIPcNSt7__cxx1112basic_stringIcSt11char_traitsIcESaIcEEEEC4Ev"
.LASF708:
	.string	"__new_allocator<int>"
.LASF804:
	.string	"_ZNSt6vectorIiSaIiEE2atEm"
.LASF558:
	.string	"_ZNSt12_Destroy_auxILb1EE9__destroyIPlEEvT_S3_"
.LASF414:
	.string	"_ZNSt7__cxx1112basic_stringIcSt11char_traitsIcESaIcEE6insertEmPKcm"
.LASF1166:
	.string	"__uint_least16_t"
.LASF283:
	.string	"_ZNKSt7__cxx1112basic_stringIcSt11char_traitsIcESaIcEE13_M_local_dataEv"
.LASF266:
	.string	"__sv_type"
.LASF1473:
	.string	"_ZN9container7details18tensor_base_staticIiJLl2ELl3ELl4ELl5EEED2Ev"
.LASF249:
	.string	"_ZNSt16allocator_traitsISaIcEE8allocateERS0_m"
.LASF1379:
	.string	"__dso_handle"
.LASF573:
	.string	"_ZNKSt12_Vector_baseIlSaIlEE19_M_get_Tp_allocatorEv"
.LASF945:
	.string	"_Funct"
.LASF272:
	.string	"_ZNSt7__cxx1112basic_stringIcSt11char_traitsIcESaIcEE12__sv_wrapperC4ESt17basic_string_viewIcS2_E"
.LASF19:
	.string	"char"
.LASF1330:
	.string	"cout"
.LASF734:
	.string	"_ZNSt12_Vector_baseIiSaIiEE12_Vector_implC4Ev"
.LASF859:
	.string	"__throw_bad_alloc"
.LASF1422:
	.string	"_ZZNSt7__cxx1112basic_stringIcSt11char_traitsIcESaIcEE12_M_constructIPKcEEvT_S8_St20forward_iterator_tagEN6_GuardC4EPS4_"
.LASF1306:
	.string	"iswctype"
.LASF1354:
	.string	"_ZNSt8ios_base4InitD1Ev"
.LASF145:
	.string	"allocator"
.LASF1454:
	.string	"_ZNSt6vectorIiSaIiEEC2Ev"
.LASF171:
	.string	"_ZNKSt17basic_string_viewIcSt11char_traitsIcEE6cbeginEv"
.LASF197:
	.string	"_ZNKSt17basic_string_viewIcSt11char_traitsIcEE4backEv"
.LASF353:
	.string	"_ZNSt7__cxx1112basic_stringIcSt11char_traitsIcESaIcEE3endEv"
.LASF1095:
	.string	"_ZNK9__gnu_cxx17__normal_iteratorIPKcNSt7__cxx1112basic_stringIcSt11char_traitsIcESaIcEEEEptEv"
.LASF669:
	.string	"_ZNSt6vectorIlSaIlEE18_M_fill_initializeEmRKl"
.LASF1003:
	.string	"tm_gmtoff"
.LASF1254:
	.string	"__destroy<int*>"
.LASF395:
	.string	"_ZNSt7__cxx1112basic_stringIcSt11char_traitsIcESaIcEE6appendERKS4_mm"
.LASF521:
	.string	"_TrivialValueTypes"
.LASF985:
	.string	"vwscanf"
.LASF116:
	.string	"_ZNSt11char_traitsIcE11eq_int_typeERKiS2_"
.LASF689:
	.string	"_ZNSt6vectorIlSaIlEE11_S_max_sizeERKS0_"
.LASF111:
	.string	"_ZNSt11char_traitsIcE12to_char_typeERKi"
.LASF548:
	.string	"_Vector_base<long int, std::allocator<long int> >"
.LASF452:
	.string	"get_allocator"
.LASF885:
	.string	"_OutputIterator"
.LASF1480:
	.string	"full_error_message"
.LASF1194:
	.string	"int_fast32_t"
.LASF481:
	.string	"_ZNKSt7__cxx1112basic_stringIcSt11char_traitsIcESaIcEE7compareEmmRKS4_mm"
.LASF956:
	.string	"_ZSt23__is_constant_evaluatedv"
.LASF527:
	.string	"__new_allocator<long int>"
.LASF277:
	.string	"_ZNSt7__cxx1112basic_stringIcSt11char_traitsIcESaIcEE7_M_dataEPc"
.LASF899:
	.string	"copy<long int const*, long int*>"
.LASF781:
	.string	"_ZNSt6vectorIiSaIiEE5beginEv"
.LASF1381:
	.string	"__val"
.LASF483:
	.string	"_ZNKSt7__cxx1112basic_stringIcSt11char_traitsIcESaIcEE7compareEmmPKc"
.LASF1189:
	.string	"uint_least16_t"
.LASF1479:
	.string	"error_message"
.LASF766:
	.string	"_ZNSt6vectorIiSaIiEEC4EmRKS0_"
.LASF1374:
	.string	"__tmp"
.LASF662:
	.string	"_ZNSt6vectorIlSaIlEE6insertEN9__gnu_cxx17__normal_iteratorIPKlS1_EESt16initializer_listIlE"
.LASF193:
	.string	"front"
.LASF489:
	.string	"_ZNSt7__cxx1112basic_stringIcSt11char_traitsIcESaIcEEC4IS3_EEPKcRKS3_"
.LASF409:
	.string	"insert"
.LASF218:
	.string	"_ZNKSt17basic_string_viewIcSt11char_traitsIcEE5rfindES2_m"
.LASF524:
	.string	"_ZNSt27__uninitialized_default_n_1ILb1EE18__uninit_default_nIPimEET_S3_T0_"
.LASF1108:
	.string	"_ZN9__gnu_cxx14__alloc_traitsISaIlElE10_S_on_swapERS1_S3_"
.LASF196:
	.string	"data"
.LASF90:
	.string	"_ZNKSt15__exception_ptr13exception_ptr20__cxa_exception_typeEv"
.LASF78:
	.string	"_ZNSt15__exception_ptr13exception_ptrC4Ev"
.LASF969:
	.string	"mbrtowc"
.LASF599:
	.string	"_ZNSt6vectorIlSaIlEE19_S_nothrow_relocateESt17integral_constantIbLb0EE"
.LASF232:
	.string	"find_first_not_of"
.LASF1373:
	.string	"_Num"
.LASF1265:
	.string	"lldiv"
.LASF1210:
	.string	"mon_decimal_point"
.LASF389:
	.string	"_ZNSt7__cxx1112basic_stringIcSt11char_traitsIcESaIcEEpLERKS4_"
.LASF96:
	.string	"_ZNSt11char_traitsIcE2eqERKcS2_"
.LASF206:
	.string	"_ZNKSt17basic_string_viewIcSt11char_traitsIcEE6substrEmm"
.LASF904:
	.string	"__niter_base<int*>"
.LASF1455:
	.string	"_ZNSt12_Vector_baseIiSaIiEEC2Ev"
.LASF36:
	.string	"_chain"
.LASF1487:
	.string	"typedef __va_list_tag __va_list_tag"
.LASF430:
	.string	"_ZNSt7__cxx1112basic_stringIcSt11char_traitsIcESaIcEE7replaceEmmmc"
.LASF1242:
	.string	"__compar_fn_t"
.LASF1109:
	.string	"_ZN9__gnu_cxx14__alloc_traitsISaIlElE27_S_propagate_on_copy_assignEv"
.LASF1501:
	.string	"__cxa_end_catch"
.LASF1457:
	.string	"__str"
.LASF906:
	.string	"min<long unsigned int>"
.LASF1278:
	.string	"fpos_t"
.LASF1091:
	.string	"_M_current"
.LASF724:
	.string	"_ZNSt16allocator_traitsISaIiEE8allocateERS0_m"
.LASF415:
	.string	"_ZNSt7__cxx1112basic_stringIcSt11char_traitsIcESaIcEE6insertEmPKc"
.LASF628:
	.string	"_ZNKSt6vectorIlSaIlEE3endEv"
.LASF814:
	.string	"_ZNSt6vectorIiSaIiEE8pop_backEv"
.LASF10:
	.string	"overflow_arg_area"
.LASF11:
	.string	"reg_save_area"
.LASF1169:
	.string	"__int_least64_t"
.LASF765:
	.string	"_ZNSt6vectorIiSaIiEEC4ERKS0_"
.LASF341:
	.string	"_ZNSt7__cxx1112basic_stringIcSt11char_traitsIcESaIcEEC4EOS4_RKS3_"
.LASF239:
	.string	"_ZNKSt17basic_string_viewIcSt11char_traitsIcEE16find_last_not_ofEcm"
.LASF1267:
	.string	"strtoll"
.LASF713:
	.string	"_ZNKSt15__new_allocatorIiE7addressERKi"
.LASF1349:
	.string	"~tensor_base_static"
.LASF339:
	.string	"_ZNSt7__cxx1112basic_stringIcSt11char_traitsIcESaIcEEC4ESt16initializer_listIcERKS3_"
.LASF964:
	.string	"fwprintf"
.LASF1469:
	.string	"main"
.LASF768:
	.string	"_ZNSt6vectorIiSaIiEEC4ERKS1_"
.LASF85:
	.string	"~exception_ptr"
.LASF286:
	.string	"_M_set_length"
.LASF716:
	.string	"_ZNKSt15__new_allocatorIiE8max_sizeEv"
.LASF1187:
	.string	"int_least64_t"
.LASF1215:
	.string	"int_frac_digits"
.LASF466:
	.string	"_ZNKSt7__cxx1112basic_stringIcSt11char_traitsIcESaIcEE12find_last_ofERKS4_m"
.LASF892:
	.string	"_ZSt12__miter_baseIPKlET_S2_"
.LASF495:
	.string	"initializer_list<char>"
.LASF191:
	.string	"_ZNKSt17basic_string_viewIcSt11char_traitsIcEE3endEv"
.LASF1300:
	.string	"setvbuf"
.LASF1436:
	.string	"index_list"
.LASF47:
	.string	"_freeres_list"
.LASF1119:
	.string	"_ZNK9__gnu_cxx17__normal_iteratorIPlSt6vectorIlSaIlEEEptEv"
.LASF1331:
	.string	"par_unseq"
.LASF1161:
	.string	"__int64_t"
.LASF758:
	.string	"_ZNSt6vectorIiSaIiEE19_S_nothrow_relocateESt17integral_constantIbLb0EE"
.LASF485:
	.string	"_M_construct<char const*>"
.LASF652:
	.string	"_ZNKSt6vectorIlSaIlEE5frontEv"
.LASF1440:
	.string	"current_dim"
.LASF780:
	.string	"_ZNSt6vectorIiSaIiEE6assignESt16initializer_listIiE"
.LASF1270:
	.string	"strtold"
.LASF791:
	.string	"_ZNKSt6vectorIiSaIiEE7crbeginEv"
.LASF1394:
	.string	"__navail"
.LASF1023:
	.string	"wprintf"
.LASF347:
	.string	"_ZNSt7__cxx1112basic_stringIcSt11char_traitsIcESaIcEEaSEOS4_"
.LASF54:
	.string	"_IO_FILE"
.LASF139:
	.string	"_ZNSt15__new_allocatorIcE10deallocateEPcm"
.LASF900:
	.string	"_ZSt4copyIPKlPlET0_T_S4_S3_"
.LASF1310:
	.string	"__pstl"
.LASF1062:
	.string	"_ZN9__gnu_cxx14__alloc_traitsISaIcEcE15_S_nothrow_moveEv"
.LASF120:
	.string	"ptrdiff_t"
.LASF1117:
	.string	"_ZN9__gnu_cxx17__normal_iteratorIPlSt6vectorIlSaIlEEEC4ERKS1_"
.LASF876:
	.string	"_Iterator"
.LASF247:
	.string	"reverse_iterator<char const*>"
.LASF160:
	.string	"basic_string_view<char, std::char_traits<char> >"
.LASF8:
	.string	"gp_offset"
.LASF420:
	.string	"_ZNSt7__cxx1112basic_stringIcSt11char_traitsIcESaIcEE5eraseEmm"
.LASF181:
	.string	"crend"
.LASF1164:
	.string	"__uint_least8_t"
.LASF828:
	.string	"_ZNSt6vectorIiSaIiEE16_M_shrink_to_fitEv"
.LASF403:
	.string	"_ZNSt7__cxx1112basic_stringIcSt11char_traitsIcESaIcEE6assignEOS4_"
.LASF1506:
	.string	"__can_fill"
.LASF165:
	.string	"_ZNSt17basic_string_viewIcSt11char_traitsIcEEC4EPKcm"
.LASF212:
	.string	"_ZNKSt17basic_string_viewIcSt11char_traitsIcEE7compareEmmPKcm"
.LASF1241:
	.string	"ssize_t"
.LASF1470:
	.string	"argc"
.LASF1282:
	.string	"ferror"
.LASF922:
	.string	"_ZSt10__distanceIPKlENSt15iterator_traitsIT_E15difference_typeES3_S3_St26random_access_iterator_tag"
.LASF678:
	.string	"_M_shrink_to_fit"
.LASF1314:
	.string	"_ZN6__pstl9execution2v116sequenced_policy19__allow_unsequencedEv"
.LASF1471:
	.string	"argv"
.LASF857:
	.string	"_ZNSt13runtime_errorC4ERKNSt7__cxx1112basic_stringIcSt11char_traitsIcESaIcEEE"
.LASF114:
	.string	"_ZNSt11char_traitsIcE11to_int_typeERKc"
.LASF978:
	.string	"vfwprintf"
.LASF881:
	.string	"__niter_base<long int const*>"
.LASF1178:
	.string	"int32_t"
.LASF994:
	.string	"tm_sec"
.LASF1418:
	.string	"__beg"
.LASF1081:
	.string	"operator+"
.LASF99:
	.string	"length"
.LASF1192:
	.string	"int_fast8_t"
.LASF1028:
	.string	"wcsrchr"
.LASF961:
	.string	"fputwc"
.LASF1176:
	.string	"int8_t"
.LASF1133:
	.string	"_ZN9__gnu_cxx14__alloc_traitsISaIiEiE10_S_on_swapERS1_S3_"
.LASF962:
	.string	"fputws"
.LASF1007:
	.string	"wcsncmp"
.LASF764:
	.string	"_ZNSt6vectorIiSaIiEEC4Ev"
.LASF21:
	.string	"mbstate_t"
.LASF1347:
	.string	"operator()<int, int, int, int>"
.LASF297:
	.string	"_ZNSt7__cxx1112basic_stringIcSt11char_traitsIcESaIcEE12_M_constructEmc"
.LASF14:
	.string	"wint_t"
.LASF1305:
	.string	"wctrans_t"
.LASF856:
	.string	"runtime_error"
.LASF1417:
	.string	"_ZNSt12_Vector_baseIiSaIiEE12_Vector_implC2Ev"
.LASF1333:
	.string	"container"
.LASF636:
	.string	"_ZNKSt6vectorIlSaIlEE5crendEv"
.LASF712:
	.string	"_ZNKSt15__new_allocatorIiE7addressERi"
.LASF1103:
	.string	"_ZN9__gnu_cxx17__normal_iteratorIPKcNSt7__cxx1112basic_stringIcSt11char_traitsIcESaIcEEEEmIEl"
.LASF1380:
	.string	"__al"
.LASF752:
	.string	"_ZNSt12_Vector_baseIiSaIiEE11_M_allocateEm"
.LASF207:
	.string	"_ZNKSt17basic_string_viewIcSt11char_traitsIcEE7compareES2_"
.LASF907:
	.string	"_ZSt3minImERKT_S2_S2_"
.LASF12:
	.string	"unsigned int"
.LASF355:
	.string	"reverse_iterator"
.LASF157:
	.string	"_Destroy_aux<true>"
.LASF1248:
	.string	"bsearch"
.LASF811:
	.string	"_ZNKSt6vectorIiSaIiEE4dataEv"
	.section	.debug_line_str,"MS",@progbits,1
.LASF1:
	.string	"/home/xunililak/Code/Projects/10-Tensor"
.LASF0:
	.string	"Application.cpp"
	.hidden	DW.ref.__gxx_personality_v0
	.weak	DW.ref.__gxx_personality_v0
	.section	.data.rel.local.DW.ref.__gxx_personality_v0,"awG",@progbits,DW.ref.__gxx_personality_v0,comdat
	.align 8
	.type	DW.ref.__gxx_personality_v0, @object
	.size	DW.ref.__gxx_personality_v0, 8
DW.ref.__gxx_personality_v0:
	.quad	__gxx_personality_v0
	.hidden	__dso_handle
	.ident	"GCC: (Debian 12.2.0-3) 12.2.0"
	.section	.note.GNU-stack,"",@progbits
