	.file	"Application.cpp"
# GNU C++17 (Debian 12.2.0-3) version 12.2.0 (x86_64-linux-gnu)
#	compiled by GNU C version 12.2.0, GMP version 6.2.1, MPFR version 4.1.0, MPC version 1.2.1, isl version isl-0.25-GMP

# GGC heuristics: --param ggc-min-expand=100 --param ggc-min-heapsize=131072
# options passed: -mtune=generic -march=x86-64 -g -std=c++17 -fasynchronous-unwind-tables
	.text
.Ltext0:
	.file 0 "/home/xunililak/Code/Projects/10-Tensor" "Application.cpp"
	.section	.text._ZnwmPv,"axG",@progbits,_ZnwmPv,comdat
	.weak	_ZnwmPv
	.type	_ZnwmPv, @function
_ZnwmPv:
.LFB40:
	.file 1 "/usr/include/c++/12/new"
	.loc 1 175 1
	.cfi_startproc
	pushq	%rbp	#
	.cfi_def_cfa_offset 16
	.cfi_offset 6, -16
	movq	%rsp, %rbp	#,
	.cfi_def_cfa_register 6
	movq	%rdi, -8(%rbp)	# D.3371, D.3371
	movq	%rsi, -16(%rbp)	# __p, __p
# /usr/include/c++/12/new:175: { return __p; }
	.loc 1 175 10
	movq	-16(%rbp), %rax	# __p, _2
# /usr/include/c++/12/new:175: { return __p; }
	.loc 1 175 15
	popq	%rbp	#
	.cfi_def_cfa 7, 8
	ret	
	.cfi_endproc
.LFE40:
	.size	_ZnwmPv, .-_ZnwmPv
	.section	.text._ZSt17__size_to_integerm,"axG",@progbits,_ZSt17__size_to_integerm,comdat
	.weak	_ZSt17__size_to_integerm
	.type	_ZSt17__size_to_integerm, @function
_ZSt17__size_to_integerm:
.LFB652:
	.file 2 "/usr/include/c++/12/bits/stl_algobase.h"
	.loc 2 1009 40
	.cfi_startproc
	pushq	%rbp	#
	.cfi_def_cfa_offset 16
	.cfi_offset 6, -16
	movq	%rsp, %rbp	#,
	.cfi_def_cfa_register 6
	movq	%rdi, -8(%rbp)	# __n, __n
# /usr/include/c++/12/bits/stl_algobase.h:1009:   __size_to_integer(unsigned long __n) { return __n; }
	.loc 2 1009 49
	movq	-8(%rbp), %rax	# __n, _2
# /usr/include/c++/12/bits/stl_algobase.h:1009:   __size_to_integer(unsigned long __n) { return __n; }
	.loc 2 1009 54
	popq	%rbp	#
	.cfi_def_cfa 7, 8
	ret	
	.cfi_endproc
.LFE652:
	.size	_ZSt17__size_to_integerm, .-_ZSt17__size_to_integerm
	.section	.text._ZNKSt17integral_constantIbLb1EEcvbEv,"axG",@progbits,_ZNKSt17integral_constantIbLb1EEcvbEv,comdat
	.align 2
	.weak	_ZNKSt17integral_constantIbLb1EEcvbEv
	.type	_ZNKSt17integral_constantIbLb1EEcvbEv, @function
_ZNKSt17integral_constantIbLb1EEcvbEv:
.LFB907:
	.file 3 "/usr/include/c++/12/type_traits"
	.loc 3 67 17
	.cfi_startproc
	pushq	%rbp	#
	.cfi_def_cfa_offset 16
	.cfi_offset 6, -16
	movq	%rsp, %rbp	#,
	.cfi_def_cfa_register 6
	movq	%rdi, -8(%rbp)	# this, this
# /usr/include/c++/12/type_traits:67:       constexpr operator value_type() const noexcept { return value; }
	.loc 3 67 63
	movl	$1, %eax	#, _1
# /usr/include/c++/12/type_traits:67:       constexpr operator value_type() const noexcept { return value; }
	.loc 3 67 70
	popq	%rbp	#
	.cfi_def_cfa 7, 8
	ret	
	.cfi_endproc
.LFE907:
	.size	_ZNKSt17integral_constantIbLb1EEcvbEv, .-_ZNKSt17integral_constantIbLb1EEcvbEv
	.local	_ZStL8__ioinit
	.comm	_ZStL8__ioinit,1,1
	.section	.rodata
.LC0:
	.string	"Index out of range."
	.text
	.globl	_ZN9container7details11index_checkEll
	.type	_ZN9container7details11index_checkEll, @function
_ZN9container7details11index_checkEll:
.LFB1754:
	.file 4 "src/Tensor/../Utils/Utils.hpp"
	.loc 4 26 9
	.cfi_startproc
	.cfi_personality 0x9b,DW.ref.__gxx_personality_v0
	.cfi_lsda 0x1b,.LLSDA1754
	pushq	%rbp	#
	.cfi_def_cfa_offset 16
	.cfi_offset 6, -16
	movq	%rsp, %rbp	#,
	.cfi_def_cfa_register 6
	pushq	%r12	#
	pushq	%rbx	#
	subq	$16, %rsp	#,
	.cfi_offset 12, -24
	.cfi_offset 3, -32
	movq	%rdi, -24(%rbp)	# index, index
	movq	%rsi, -32(%rbp)	# oor_index, oor_index
# src/Tensor/../Utils/Utils.hpp:27:             if (index >= oor_index || index < -oor_index)
	.loc 4 27 13
	movq	-24(%rbp), %rax	# index, tmp87
	cmpq	-32(%rbp), %rax	# oor_index, tmp87
	jge	.L8	#,
# src/Tensor/../Utils/Utils.hpp:27:             if (index >= oor_index || index < -oor_index)
	.loc 4 27 47 discriminator 1
	movq	-32(%rbp), %rax	# oor_index, tmp88
	negq	%rax	# _1
# src/Tensor/../Utils/Utils.hpp:27:             if (index >= oor_index || index < -oor_index)
	.loc 4 27 36 discriminator 1
	cmpq	%rax, -24(%rbp)	# _1, index
	jge	.L9	#,
.L8:
# src/Tensor/../Utils/Utils.hpp:28:                 throw std::runtime_error("Index out of range.");
	.loc 4 28 63
	movl	$16, %edi	#,
	call	__cxa_allocate_exception@PLT	#
	movq	%rax, %rbx	# tmp89, _10
# src/Tensor/../Utils/Utils.hpp:28:                 throw std::runtime_error("Index out of range.");
	.loc 4 28 17
	leaq	.LC0(%rip), %rax	#, tmp90
	movq	%rax, %rsi	# tmp90,
	movq	%rbx, %rdi	# _10,
.LEHB0:
	call	_ZNSt13runtime_errorC1EPKc@PLT	#
.LEHE0:
# src/Tensor/../Utils/Utils.hpp:28:                 throw std::runtime_error("Index out of range.");
	.loc 4 28 63 discriminator 2
	movq	_ZNSt13runtime_errorD1Ev@GOTPCREL(%rip), %rax	#, tmp92
	movq	%rax, %rdx	# tmp91,
	leaq	_ZTISt13runtime_error(%rip), %rax	#, tmp93
	movq	%rax, %rsi	# tmp93,
	movq	%rbx, %rdi	# _10,
.LEHB1:
	call	__cxa_throw@PLT	#
.L9:
# src/Tensor/../Utils/Utils.hpp:29:             return index >= 0 ? index : oor_index + index;
	.loc 4 29 31
	cmpq	$0, -24(%rbp)	#, index
	jns	.L10	#,
# src/Tensor/../Utils/Utils.hpp:29:             return index >= 0 ? index : oor_index + index;
	.loc 4 29 31 is_stmt 0 discriminator 1
	movq	-32(%rbp), %rdx	# oor_index, tmp94
	movq	-24(%rbp), %rax	# index, tmp95
	addq	%rdx, %rax	# tmp94, iftmp.0_2
# src/Tensor/../Utils/Utils.hpp:29:             return index >= 0 ? index : oor_index + index;
	.loc 4 29 53 is_stmt 1 discriminator 1
	jmp	.L15	#
.L10:
# src/Tensor/../Utils/Utils.hpp:29:             return index >= 0 ? index : oor_index + index;
	.loc 4 29 31 discriminator 2
	movq	-24(%rbp), %rax	# index, iftmp.0_2
# src/Tensor/../Utils/Utils.hpp:29:             return index >= 0 ? index : oor_index + index;
	.loc 4 29 53 discriminator 2
	jmp	.L15	#
.L14:
# src/Tensor/../Utils/Utils.hpp:28:                 throw std::runtime_error("Index out of range.");
	.loc 4 28 63
	movq	%rax, %r12	#, tmp97
	movq	%rbx, %rdi	# _10,
	call	__cxa_free_exception@PLT	#
	movq	%r12, %rax	# tmp97, D.68824
	movq	%rax, %rdi	# D.68824,
	call	_Unwind_Resume@PLT	#
.LEHE1:
.L15:
# src/Tensor/../Utils/Utils.hpp:30:         }
	.loc 4 30 9
	addq	$16, %rsp	#,
	popq	%rbx	#
	popq	%r12	#
	popq	%rbp	#
	.cfi_def_cfa 7, 8
	ret	
	.cfi_endproc
.LFE1754:
	.globl	__gxx_personality_v0
	.section	.gcc_except_table,"a",@progbits
.LLSDA1754:
	.byte	0xff
	.byte	0xff
	.byte	0x1
	.uleb128 .LLSDACSE1754-.LLSDACSB1754
.LLSDACSB1754:
	.uleb128 .LEHB0-.LFB1754
	.uleb128 .LEHE0-.LEHB0
	.uleb128 .L14-.LFB1754
	.uleb128 0
	.uleb128 .LEHB1-.LFB1754
	.uleb128 .LEHE1-.LEHB1
	.uleb128 0
	.uleb128 0
.LLSDACSE1754:
	.text
	.size	_ZN9container7details11index_checkEll, .-_ZN9container7details11index_checkEll
	.section	.rodata
	.type	_ZN6__pstl9execution2v1L3seqE, @object
	.size	_ZN6__pstl9execution2v1L3seqE, 1
_ZN6__pstl9execution2v1L3seqE:
	.zero	1
	.type	_ZN6__pstl9execution2v1L3parE, @object
	.size	_ZN6__pstl9execution2v1L3parE, 1
_ZN6__pstl9execution2v1L3parE:
	.zero	1
	.type	_ZN6__pstl9execution2v1L9par_unseqE, @object
	.size	_ZN6__pstl9execution2v1L9par_unseqE, 1
_ZN6__pstl9execution2v1L9par_unseqE:
	.zero	1
	.type	_ZN6__pstl9execution2v1L5unseqE, @object
	.size	_ZN6__pstl9execution2v1L5unseqE, 1
_ZN6__pstl9execution2v1L5unseqE:
	.zero	1
	.section	.text._ZN9container6tensorIdJLl2ELl3ELl5EEED2Ev,"axG",@progbits,_ZN9container6tensorIdJLl2ELl3ELl5EEED5Ev,comdat
	.align 2
	.weak	_ZN9container6tensorIdJLl2ELl3ELl5EEED2Ev
	.type	_ZN9container6tensorIdJLl2ELl3ELl5EEED2Ev, @function
_ZN9container6tensorIdJLl2ELl3ELl5EEED2Ev:
.LFB2572:
	.file 5 "src/Tensor/Tensor.hpp"
	.loc 5 74 9
	.cfi_startproc
	pushq	%rbp	#
	.cfi_def_cfa_offset 16
	.cfi_offset 6, -16
	movq	%rsp, %rbp	#,
	.cfi_def_cfa_register 6
	subq	$16, %rsp	#,
	movq	%rdi, -8(%rbp)	# this, this
.LBB2:
# src/Tensor/Tensor.hpp:74:         ~tensor() = default;
	.loc 5 74 9
	movq	-8(%rbp), %rax	# this, tmp84
	addq	$24, %rax	#, _1
	movq	%rax, %rdi	# _1,
	call	_ZNSt6vectorIlSaIlEED1Ev	#
	movq	-8(%rbp), %rax	# this, _2
	movq	%rax, %rdi	# _2,
	call	_ZNSt6vectorIdSaIdEED1Ev	#
.LBE2:
	nop	
	leave	
	.cfi_def_cfa 7, 8
	ret	
	.cfi_endproc
.LFE2572:
	.size	_ZN9container6tensorIdJLl2ELl3ELl5EEED2Ev, .-_ZN9container6tensorIdJLl2ELl3ELl5EEED2Ev
	.weak	_ZN9container6tensorIdJLl2ELl3ELl5EEED1Ev
	.set	_ZN9container6tensorIdJLl2ELl3ELl5EEED1Ev,_ZN9container6tensorIdJLl2ELl3ELl5EEED2Ev
	.section	.text._ZN9container6tensorIdJEED2Ev,"axG",@progbits,_ZN9container6tensorIdJEED5Ev,comdat
	.align 2
	.weak	_ZN9container6tensorIdJEED2Ev
	.type	_ZN9container6tensorIdJEED2Ev, @function
_ZN9container6tensorIdJEED2Ev:
.LFB2575:
	.loc 5 74 9
	.cfi_startproc
	pushq	%rbp	#
	.cfi_def_cfa_offset 16
	.cfi_offset 6, -16
	movq	%rsp, %rbp	#,
	.cfi_def_cfa_register 6
	subq	$16, %rsp	#,
	movq	%rdi, -8(%rbp)	# this, this
.LBB3:
# src/Tensor/Tensor.hpp:74:         ~tensor() = default;
	.loc 5 74 9
	movq	-8(%rbp), %rax	# this, tmp84
	addq	$24, %rax	#, _1
	movq	%rax, %rdi	# _1,
	call	_ZNSt6vectorIlSaIlEED1Ev	#
	movq	-8(%rbp), %rax	# this, _2
	movq	%rax, %rdi	# _2,
	call	_ZNSt6vectorIdSaIdEED1Ev	#
.LBE3:
	nop	
	leave	
	.cfi_def_cfa 7, 8
	ret	
	.cfi_endproc
.LFE2575:
	.size	_ZN9container6tensorIdJEED2Ev, .-_ZN9container6tensorIdJEED2Ev
	.weak	_ZN9container6tensorIdJEED1Ev
	.set	_ZN9container6tensorIdJEED1Ev,_ZN9container6tensorIdJEED2Ev
	.section	.text._ZN9container6tensorIdJLl2ELl3ELl55EEED2Ev,"axG",@progbits,_ZN9container6tensorIdJLl2ELl3ELl55EEED5Ev,comdat
	.align 2
	.weak	_ZN9container6tensorIdJLl2ELl3ELl55EEED2Ev
	.type	_ZN9container6tensorIdJLl2ELl3ELl55EEED2Ev, @function
_ZN9container6tensorIdJLl2ELl3ELl55EEED2Ev:
.LFB2578:
	.loc 5 74 9
	.cfi_startproc
	pushq	%rbp	#
	.cfi_def_cfa_offset 16
	.cfi_offset 6, -16
	movq	%rsp, %rbp	#,
	.cfi_def_cfa_register 6
	subq	$16, %rsp	#,
	movq	%rdi, -8(%rbp)	# this, this
.LBB4:
# src/Tensor/Tensor.hpp:74:         ~tensor() = default;
	.loc 5 74 9
	movq	-8(%rbp), %rax	# this, tmp84
	addq	$24, %rax	#, _1
	movq	%rax, %rdi	# _1,
	call	_ZNSt6vectorIlSaIlEED1Ev	#
	movq	-8(%rbp), %rax	# this, _2
	movq	%rax, %rdi	# _2,
	call	_ZNSt6vectorIdSaIdEED1Ev	#
.LBE4:
	nop	
	leave	
	.cfi_def_cfa 7, 8
	ret	
	.cfi_endproc
.LFE2578:
	.size	_ZN9container6tensorIdJLl2ELl3ELl55EEED2Ev, .-_ZN9container6tensorIdJLl2ELl3ELl55EEED2Ev
	.weak	_ZN9container6tensorIdJLl2ELl3ELl55EEED1Ev
	.set	_ZN9container6tensorIdJLl2ELl3ELl55EEED1Ev,_ZN9container6tensorIdJLl2ELl3ELl55EEED2Ev
	.text
	.globl	main
	.type	main, @function
main:
.LFB2570:
	.file 6 "Application.cpp"
	.loc 6 9 1
	.cfi_startproc
	.cfi_personality 0x9b,DW.ref.__gxx_personality_v0
	.cfi_lsda 0x1b,.LLSDA2570
	pushq	%rbp	#
	.cfi_def_cfa_offset 16
	.cfi_offset 6, -16
	movq	%rsp, %rbp	#,
	.cfi_def_cfa_register 6
	pushq	%rbx	#
	subq	$168, %rsp	#,
	.cfi_offset 3, -24
	movl	%edi, -164(%rbp)	# argc, argc
	movq	%rsi, -176(%rbp)	# argv, argv
# Application.cpp:10:     tensor<double, 2, 3, 5> t1{};
	.loc 6 10 32
	leaq	-64(%rbp), %rax	#, tmp88
	movq	%rax, %rdi	# tmp88,
.LEHB2:
	call	_ZN9container6tensorIdJLl2ELl3ELl5EEEC1Ev	#
.LEHE2:
# Application.cpp:11:     t1(0, 0, 0) = 99;
	.loc 6 11 7
	leaq	-64(%rbp), %rax	#, tmp89
	movl	$0, %ecx	#,
	movl	$0, %edx	#,
	movl	$0, %esi	#,
	movq	%rax, %rdi	# tmp89,
.LEHB3:
	call	_ZN9container6tensorIdJLl2ELl3ELl5EEEclIJiiiEEERdDpT_	#
# Application.cpp:11:     t1(0, 0, 0) = 99;
	.loc 6 11 17
	movsd	.LC1(%rip), %xmm0	#, tmp90
	movsd	%xmm0, (%rax)	# tmp90, *_1
# Application.cpp:12:     tensor<double> t2{t1};
	.loc 6 12 25
	leaq	-64(%rbp), %rdx	#, tmp91
	leaq	-112(%rbp), %rax	#, tmp92
	movq	%rdx, %rsi	# tmp91,
	movq	%rax, %rdi	# tmp92,
	call	_ZN9container6tensorIdJEEC1IJLl2ELl3ELl5EEEERKNS0_IdJXspT_EEEE	#
.LEHE3:
# Application.cpp:14:     tensor<double, 2, 3, 55> t3{};
	.loc 6 14 33
	leaq	-160(%rbp), %rax	#, tmp93
	movq	%rax, %rdi	# tmp93,
.LEHB4:
	call	_ZN9container6tensorIdJLl2ELl3ELl55EEEC1Ev	#
.LEHE4:
# Application.cpp:16:     t2 = t3;
	.loc 6 16 10
	leaq	-160(%rbp), %rdx	#, tmp94
	leaq	-112(%rbp), %rax	#, tmp95
	movq	%rdx, %rsi	# tmp94,
	movq	%rax, %rdi	# tmp95,
.LEHB5:
	call	_ZN9container6tensorIdJEEaSIJLl2ELl3ELl55EEEERS1_RKNS0_IdJXspT_EEEE	#
# Application.cpp:18:     std::cout << t2.size() << '\n';
	.loc 6 18 26
	leaq	-112(%rbp), %rax	#, tmp96
	movq	%rax, %rdi	# tmp96,
	call	_ZNK9container6tensorIdJEE4sizeEv	#
	movq	%rax, %rsi	# _2,
	leaq	_ZSt4cout(%rip), %rax	#, tmp97
	movq	%rax, %rdi	# tmp97,
	call	_ZNSolsEl@PLT	#
# Application.cpp:18:     std::cout << t2.size() << '\n';
	.loc 6 18 31
	movl	$10, %esi	#,
	movq	%rax, %rdi	# _3,
	call	_ZStlsISt11char_traitsIcEERSt13basic_ostreamIcT_ES5_c@PLT	#
.LEHE5:
# Application.cpp:20:     return 0;
	.loc 6 20 12
	movl	$0, %ebx	#, _20
# Application.cpp:21: }
	.loc 6 21 1
	leaq	-160(%rbp), %rax	#, tmp98
	movq	%rax, %rdi	# tmp98,
	call	_ZN9container6tensorIdJLl2ELl3ELl55EEED1Ev	#
	leaq	-112(%rbp), %rax	#, tmp99
	movq	%rax, %rdi	# tmp99,
	call	_ZN9container6tensorIdJEED1Ev	#
	leaq	-64(%rbp), %rax	#, tmp100
	movq	%rax, %rdi	# tmp100,
	call	_ZN9container6tensorIdJLl2ELl3ELl5EEED1Ev	#
	movl	%ebx, %eax	# _20, <retval>
	jmp	.L27	#
.L26:
	movq	%rax, %rbx	#, tmp104
	leaq	-160(%rbp), %rax	#, tmp102
	movq	%rax, %rdi	# tmp102,
	call	_ZN9container6tensorIdJLl2ELl3ELl55EEED1Ev	#
	jmp	.L22	#
.L25:
	movq	%rax, %rbx	#, tmp103
.L22:
	leaq	-112(%rbp), %rax	#, tmp107
	movq	%rax, %rdi	# tmp107,
	call	_ZN9container6tensorIdJEED1Ev	#
	jmp	.L23	#
.L24:
	movq	%rax, %rbx	#, tmp108
.L23:
	leaq	-64(%rbp), %rax	#, tmp110
	movq	%rax, %rdi	# tmp110,
	call	_ZN9container6tensorIdJLl2ELl3ELl5EEED1Ev	#
	movq	%rbx, %rax	# tmp108, D.68826
	movq	%rax, %rdi	# D.68826,
.LEHB6:
	call	_Unwind_Resume@PLT	#
.LEHE6:
.L27:
	movq	-8(%rbp), %rbx	#,
	leave	
	.cfi_def_cfa 7, 8
	ret	
	.cfi_endproc
.LFE2570:
	.section	.gcc_except_table
.LLSDA2570:
	.byte	0xff
	.byte	0xff
	.byte	0x1
	.uleb128 .LLSDACSE2570-.LLSDACSB2570
.LLSDACSB2570:
	.uleb128 .LEHB2-.LFB2570
	.uleb128 .LEHE2-.LEHB2
	.uleb128 0
	.uleb128 0
	.uleb128 .LEHB3-.LFB2570
	.uleb128 .LEHE3-.LEHB3
	.uleb128 .L24-.LFB2570
	.uleb128 0
	.uleb128 .LEHB4-.LFB2570
	.uleb128 .LEHE4-.LEHB4
	.uleb128 .L25-.LFB2570
	.uleb128 0
	.uleb128 .LEHB5-.LFB2570
	.uleb128 .LEHE5-.LEHB5
	.uleb128 .L26-.LFB2570
	.uleb128 0
	.uleb128 .LEHB6-.LFB2570
	.uleb128 .LEHE6-.LEHB6
	.uleb128 0
	.uleb128 0
.LLSDACSE2570:
	.text
	.size	main, .-main
	.section	.text._ZNSt12_Vector_baseIdSaIdEE12_Vector_implD2Ev,"axG",@progbits,_ZNSt12_Vector_baseIdSaIdEE12_Vector_implD5Ev,comdat
	.align 2
	.weak	_ZNSt12_Vector_baseIdSaIdEE12_Vector_implD2Ev
	.type	_ZNSt12_Vector_baseIdSaIdEE12_Vector_implD2Ev, @function
_ZNSt12_Vector_baseIdSaIdEE12_Vector_implD2Ev:
.LFB2848:
	.file 7 "/usr/include/c++/12/bits/stl_vector.h"
	.loc 7 133 14
	.cfi_startproc
	pushq	%rbp	#
	.cfi_def_cfa_offset 16
	.cfi_offset 6, -16
	movq	%rsp, %rbp	#,
	.cfi_def_cfa_register 6
	subq	$16, %rsp	#,
	movq	%rdi, -8(%rbp)	# this, this
.LBB5:
# /usr/include/c++/12/bits/stl_vector.h:133:       struct _Vector_impl
	.loc 7 133 14
	movq	-8(%rbp), %rax	# this, tmp82
	movq	%rax, %rdi	# tmp82,
	call	_ZNSaIdED2Ev	#
.LBE5:
	nop	
	leave	
	.cfi_def_cfa 7, 8
	ret	
	.cfi_endproc
.LFE2848:
	.size	_ZNSt12_Vector_baseIdSaIdEE12_Vector_implD2Ev, .-_ZNSt12_Vector_baseIdSaIdEE12_Vector_implD2Ev
	.weak	_ZNSt12_Vector_baseIdSaIdEE12_Vector_implD1Ev
	.set	_ZNSt12_Vector_baseIdSaIdEE12_Vector_implD1Ev,_ZNSt12_Vector_baseIdSaIdEE12_Vector_implD2Ev
	.section	.text._ZNSt12_Vector_baseIdSaIdEEC2Ev,"axG",@progbits,_ZNSt12_Vector_baseIdSaIdEEC5Ev,comdat
	.align 2
	.weak	_ZNSt12_Vector_baseIdSaIdEEC2Ev
	.type	_ZNSt12_Vector_baseIdSaIdEEC2Ev, @function
_ZNSt12_Vector_baseIdSaIdEEC2Ev:
.LFB2850:
	.loc 7 312 7
	.cfi_startproc
	pushq	%rbp	#
	.cfi_def_cfa_offset 16
	.cfi_offset 6, -16
	movq	%rsp, %rbp	#,
	.cfi_def_cfa_register 6
	subq	$16, %rsp	#,
	movq	%rdi, -8(%rbp)	# this, this
.LBB6:
# /usr/include/c++/12/bits/stl_vector.h:312:       _Vector_base() = default;
	.loc 7 312 7
	movq	-8(%rbp), %rax	# this, _1
	movq	%rax, %rdi	# _1,
	call	_ZNSt12_Vector_baseIdSaIdEE12_Vector_implC1Ev	#
.LBE6:
	nop	
	leave	
	.cfi_def_cfa 7, 8
	ret	
	.cfi_endproc
.LFE2850:
	.size	_ZNSt12_Vector_baseIdSaIdEEC2Ev, .-_ZNSt12_Vector_baseIdSaIdEEC2Ev
	.weak	_ZNSt12_Vector_baseIdSaIdEEC1Ev
	.set	_ZNSt12_Vector_baseIdSaIdEEC1Ev,_ZNSt12_Vector_baseIdSaIdEEC2Ev
	.section	.text._ZNSt6vectorIdSaIdEEC2Ev,"axG",@progbits,_ZNSt6vectorIdSaIdEEC5Ev,comdat
	.align 2
	.weak	_ZNSt6vectorIdSaIdEEC2Ev
	.type	_ZNSt6vectorIdSaIdEEC2Ev, @function
_ZNSt6vectorIdSaIdEEC2Ev:
.LFB2852:
	.loc 7 526 7
	.cfi_startproc
	pushq	%rbp	#
	.cfi_def_cfa_offset 16
	.cfi_offset 6, -16
	movq	%rsp, %rbp	#,
	.cfi_def_cfa_register 6
	subq	$16, %rsp	#,
	movq	%rdi, -8(%rbp)	# this, this
.LBB7:
# /usr/include/c++/12/bits/stl_vector.h:526:       vector() = default;
	.loc 7 526 7
	movq	-8(%rbp), %rax	# this, _1
	movq	%rax, %rdi	# _1,
	call	_ZNSt12_Vector_baseIdSaIdEEC2Ev	#
.LBE7:
	nop	
	leave	
	.cfi_def_cfa 7, 8
	ret	
	.cfi_endproc
.LFE2852:
	.size	_ZNSt6vectorIdSaIdEEC2Ev, .-_ZNSt6vectorIdSaIdEEC2Ev
	.weak	_ZNSt6vectorIdSaIdEEC1Ev
	.set	_ZNSt6vectorIdSaIdEEC1Ev,_ZNSt6vectorIdSaIdEEC2Ev
	.section	.text._ZN9container6tensorIdJLl2ELl3ELl5EEEC2Ev,"axG",@progbits,_ZN9container6tensorIdJLl2ELl3ELl5EEEC5Ev,comdat
	.align 2
	.weak	_ZN9container6tensorIdJLl2ELl3ELl5EEEC2Ev
	.type	_ZN9container6tensorIdJLl2ELl3ELl5EEEC2Ev, @function
_ZN9container6tensorIdJLl2ELl3ELl5EEEC2Ev:
.LFB2854:
	.loc 5 26 9
	.cfi_startproc
	.cfi_personality 0x9b,DW.ref.__gxx_personality_v0
	.cfi_lsda 0x1b,.LLSDA2854
	pushq	%rbp	#
	.cfi_def_cfa_offset 16
	.cfi_offset 6, -16
	movq	%rsp, %rbp	#,
	.cfi_def_cfa_register 6
	pushq	%r13	#
	pushq	%r12	#
	pushq	%rbx	#
	subq	$56, %rsp	#,
	.cfi_offset 13, -24
	.cfi_offset 12, -32
	.cfi_offset 3, -40
	movq	%rdi, -72(%rbp)	# this, this
.LBB8:
# src/Tensor/Tensor.hpp:26:         tensor() : _dims{dims...}
	.loc 5 26 33
	movq	-72(%rbp), %rax	# this, _1
	movq	%rax, %rdi	# _1,
	call	_ZNSt6vectorIdSaIdEEC1Ev	#
# src/Tensor/Tensor.hpp:26:         tensor() : _dims{dims...}
	.loc 5 26 20
	movq	-72(%rbp), %rax	# this, tmp88
	leaq	24(%rax), %rbx	#, _2
	movq	$2, -64(%rbp)	#, D.62424[0]
	movq	$3, -56(%rbp)	#, D.62424[1]
	movq	$5, -48(%rbp)	#, D.62424[2]
	leaq	-64(%rbp), %rax	#, tmp89
	movq	%rax, %r12	# tmp89, D.62423
	movl	$3, %r13d	#, D.62423
	leaq	-33(%rbp), %rax	#, tmp90
	movq	%rax, %rdi	# tmp90,
	call	_ZNSaIlEC1Ev	#
	leaq	-33(%rbp), %rax	#, tmp91
	movq	%r12, %r8	# D.62423, tmp92
	movq	%r13, %r9	# D.62423,
	movq	%r12, %rsi	# D.62423, tmp93
	movq	%r13, %rdi	# D.62423,
	movq	%rdi, %rdx	#, tmp95
	movq	%rax, %rcx	# tmp91,
	movq	%r8, %rsi	# tmp94,
	movq	%rbx, %rdi	# _2,
.LEHB7:
	call	_ZNSt6vectorIlSaIlEEC1ESt16initializer_listIlERKS0_	#
.LEHE7:
# src/Tensor/Tensor.hpp:26:         tensor() : _dims{dims...}
	.loc 5 26 20 is_stmt 0 discriminator 2
	leaq	-33(%rbp), %rax	#, tmp96
	movq	%rax, %rdi	# tmp96,
	call	_ZNSaIlED1Ev	#
# src/Tensor/Tensor.hpp:29:                 this->_initialize();
	.loc 5 29 34 is_stmt 1 discriminator 2
	movq	-72(%rbp), %rax	# this, tmp97
	movq	%rax, %rdi	# tmp97,
.LEHB8:
	call	_ZN9container6tensorIdJLl2ELl3ELl5EEE11_initializeEv	#
.LEHE8:
.LBE8:
# src/Tensor/Tensor.hpp:30:         }
	.loc 5 30 9
	jmp	.L37	#
.L35:
.LBB9:
# src/Tensor/Tensor.hpp:26:         tensor() : _dims{dims...}
	.loc 5 26 20
	movq	%rax, %rbx	#, tmp100
	leaq	-33(%rbp), %rax	#, tmp98
	movq	%rax, %rdi	# tmp98,
	call	_ZNSaIlED1Ev	#
	jmp	.L33	#
.L36:
# src/Tensor/Tensor.hpp:30:         }
	.loc 5 30 9
	movq	%rax, %rbx	#, tmp104
	movq	-72(%rbp), %rax	# this, tmp103
	addq	$24, %rax	#, _3
	movq	%rax, %rdi	# _3,
	call	_ZNSt6vectorIlSaIlEED1Ev	#
.L33:
	movq	-72(%rbp), %rax	# this, _4
	movq	%rax, %rdi	# _4,
	call	_ZNSt6vectorIdSaIdEED1Ev	#
	movq	%rbx, %rax	# tmp99, D.68827
	movq	%rax, %rdi	# D.68827,
.LEHB9:
	call	_Unwind_Resume@PLT	#
.LEHE9:
.L37:
.LBE9:
	addq	$56, %rsp	#,
	popq	%rbx	#
	popq	%r12	#
	popq	%r13	#
	popq	%rbp	#
	.cfi_def_cfa 7, 8
	ret	
	.cfi_endproc
.LFE2854:
	.section	.gcc_except_table
.LLSDA2854:
	.byte	0xff
	.byte	0xff
	.byte	0x1
	.uleb128 .LLSDACSE2854-.LLSDACSB2854
.LLSDACSB2854:
	.uleb128 .LEHB7-.LFB2854
	.uleb128 .LEHE7-.LEHB7
	.uleb128 .L35-.LFB2854
	.uleb128 0
	.uleb128 .LEHB8-.LFB2854
	.uleb128 .LEHE8-.LEHB8
	.uleb128 .L36-.LFB2854
	.uleb128 0
	.uleb128 .LEHB9-.LFB2854
	.uleb128 .LEHE9-.LEHB9
	.uleb128 0
	.uleb128 0
.LLSDACSE2854:
	.section	.text._ZN9container6tensorIdJLl2ELl3ELl5EEEC2Ev,"axG",@progbits,_ZN9container6tensorIdJLl2ELl3ELl5EEEC5Ev,comdat
	.size	_ZN9container6tensorIdJLl2ELl3ELl5EEEC2Ev, .-_ZN9container6tensorIdJLl2ELl3ELl5EEEC2Ev
	.weak	_ZN9container6tensorIdJLl2ELl3ELl5EEEC1Ev
	.set	_ZN9container6tensorIdJLl2ELl3ELl5EEEC1Ev,_ZN9container6tensorIdJLl2ELl3ELl5EEEC2Ev
	.section	.text._ZNSt6vectorIdSaIdEED2Ev,"axG",@progbits,_ZNSt6vectorIdSaIdEED5Ev,comdat
	.align 2
	.weak	_ZNSt6vectorIdSaIdEED2Ev
	.type	_ZNSt6vectorIdSaIdEED2Ev, @function
_ZNSt6vectorIdSaIdEED2Ev:
.LFB2857:
	.loc 7 728 7
	.cfi_startproc
	.cfi_personality 0x9b,DW.ref.__gxx_personality_v0
	.cfi_lsda 0x1b,.LLSDA2857
	pushq	%rbp	#
	.cfi_def_cfa_offset 16
	.cfi_offset 6, -16
	movq	%rsp, %rbp	#,
	.cfi_def_cfa_register 6
	subq	$16, %rsp	#,
	movq	%rdi, -8(%rbp)	# this, this
.LBB10:
# /usr/include/c++/12/bits/stl_vector.h:731: 		      _M_get_Tp_allocator());
	.loc 7 731 28
	movq	-8(%rbp), %rax	# this, _1
	movq	%rax, %rdi	# _1,
	call	_ZNSt12_Vector_baseIdSaIdEE19_M_get_Tp_allocatorEv	#
	movq	%rax, %rdx	#, _2
# /usr/include/c++/12/bits/stl_vector.h:730: 	std::_Destroy(this->_M_impl._M_start, this->_M_impl._M_finish,
	.loc 7 730 15
	movq	-8(%rbp), %rax	# this, tmp87
	movq	8(%rax), %rcx	# this_6(D)->D.58694._M_impl.D.58033._M_finish, _3
	movq	-8(%rbp), %rax	# this, tmp88
	movq	(%rax), %rax	# this_6(D)->D.58694._M_impl.D.58033._M_start, _4
	movq	%rcx, %rsi	# _3,
	movq	%rax, %rdi	# _4,
	call	_ZSt8_DestroyIPddEvT_S1_RSaIT0_E	#
# /usr/include/c++/12/bits/stl_vector.h:733:       }
	.loc 7 733 7
	movq	-8(%rbp), %rax	# this, _5
	movq	%rax, %rdi	# _5,
	call	_ZNSt12_Vector_baseIdSaIdEED2Ev	#
.LBE10:
	nop	
	leave	
	.cfi_def_cfa 7, 8
	ret	
	.cfi_endproc
.LFE2857:
	.section	.gcc_except_table
.LLSDA2857:
	.byte	0xff
	.byte	0xff
	.byte	0x1
	.uleb128 .LLSDACSE2857-.LLSDACSB2857
.LLSDACSB2857:
.LLSDACSE2857:
	.section	.text._ZNSt6vectorIdSaIdEED2Ev,"axG",@progbits,_ZNSt6vectorIdSaIdEED5Ev,comdat
	.size	_ZNSt6vectorIdSaIdEED2Ev, .-_ZNSt6vectorIdSaIdEED2Ev
	.weak	_ZNSt6vectorIdSaIdEED1Ev
	.set	_ZNSt6vectorIdSaIdEED1Ev,_ZNSt6vectorIdSaIdEED2Ev
	.section	.text._ZNSt6vectorIlSaIlEED2Ev,"axG",@progbits,_ZNSt6vectorIlSaIlEED5Ev,comdat
	.align 2
	.weak	_ZNSt6vectorIlSaIlEED2Ev
	.type	_ZNSt6vectorIlSaIlEED2Ev, @function
_ZNSt6vectorIlSaIlEED2Ev:
.LFB2860:
	.loc 7 728 7
	.cfi_startproc
	.cfi_personality 0x9b,DW.ref.__gxx_personality_v0
	.cfi_lsda 0x1b,.LLSDA2860
	pushq	%rbp	#
	.cfi_def_cfa_offset 16
	.cfi_offset 6, -16
	movq	%rsp, %rbp	#,
	.cfi_def_cfa_register 6
	subq	$16, %rsp	#,
	movq	%rdi, -8(%rbp)	# this, this
.LBB11:
# /usr/include/c++/12/bits/stl_vector.h:731: 		      _M_get_Tp_allocator());
	.loc 7 731 28
	movq	-8(%rbp), %rax	# this, _1
	movq	%rax, %rdi	# _1,
	call	_ZNSt12_Vector_baseIlSaIlEE19_M_get_Tp_allocatorEv	#
	movq	%rax, %rdx	#, _2
# /usr/include/c++/12/bits/stl_vector.h:730: 	std::_Destroy(this->_M_impl._M_start, this->_M_impl._M_finish,
	.loc 7 730 15
	movq	-8(%rbp), %rax	# this, tmp87
	movq	8(%rax), %rcx	# this_6(D)->D.54811._M_impl.D.54123._M_finish, _3
	movq	-8(%rbp), %rax	# this, tmp88
	movq	(%rax), %rax	# this_6(D)->D.54811._M_impl.D.54123._M_start, _4
	movq	%rcx, %rsi	# _3,
	movq	%rax, %rdi	# _4,
	call	_ZSt8_DestroyIPllEvT_S1_RSaIT0_E	#
# /usr/include/c++/12/bits/stl_vector.h:733:       }
	.loc 7 733 7
	movq	-8(%rbp), %rax	# this, _5
	movq	%rax, %rdi	# _5,
	call	_ZNSt12_Vector_baseIlSaIlEED2Ev	#
.LBE11:
	nop	
	leave	
	.cfi_def_cfa 7, 8
	ret	
	.cfi_endproc
.LFE2860:
	.section	.gcc_except_table
.LLSDA2860:
	.byte	0xff
	.byte	0xff
	.byte	0x1
	.uleb128 .LLSDACSE2860-.LLSDACSB2860
.LLSDACSB2860:
.LLSDACSE2860:
	.section	.text._ZNSt6vectorIlSaIlEED2Ev,"axG",@progbits,_ZNSt6vectorIlSaIlEED5Ev,comdat
	.size	_ZNSt6vectorIlSaIlEED2Ev, .-_ZNSt6vectorIlSaIlEED2Ev
	.weak	_ZNSt6vectorIlSaIlEED1Ev
	.set	_ZNSt6vectorIlSaIlEED1Ev,_ZNSt6vectorIlSaIlEED2Ev
	.section	.rodata
	.align 8
.LC2:
	.string	"The number of indices must be equal to the tensor's order."
	.section	.text._ZN9container6tensorIdJLl2ELl3ELl5EEEclIJiiiEEERdDpT_,"axG",@progbits,_ZN9container6tensorIdJLl2ELl3ELl5EEEclIJiiiEEERdDpT_,comdat
	.align 2
	.weak	_ZN9container6tensorIdJLl2ELl3ELl5EEEclIJiiiEEERdDpT_
	.type	_ZN9container6tensorIdJLl2ELl3ELl5EEEclIJiiiEEERdDpT_, @function
_ZN9container6tensorIdJLl2ELl3ELl5EEEclIJiiiEEERdDpT_:
.LFB2862:
	.loc 5 107 20
	.cfi_startproc
	.cfi_personality 0x9b,DW.ref.__gxx_personality_v0
	.cfi_lsda 0x1b,.LLSDA2862
	pushq	%rbp	#
	.cfi_def_cfa_offset 16
	.cfi_offset 6, -16
	movq	%rsp, %rbp	#,
	.cfi_def_cfa_register 6
	pushq	%r13	#
	pushq	%r12	#
	pushq	%rbx	#
	subq	$136, %rsp	#,
	.cfi_offset 13, -24
	.cfi_offset 12, -32
	.cfi_offset 3, -40
	movq	%rdi, -136(%rbp)	# this, this
	movl	%esi, -140(%rbp)	# indices#0, indices#0
	movl	%edx, -144(%rbp)	# indices#1, indices#1
	movl	%ecx, -148(%rbp)	# indices#2, indices#2
# src/Tensor/Tensor.hpp:109:             std::vector<size_type> index_list{indices...};
	.loc 5 109 47
	movl	-140(%rbp), %eax	# indices#0, tmp109
	cltq
# src/Tensor/Tensor.hpp:109:             std::vector<size_type> index_list{indices...};
	.loc 5 109 36
	movq	%rax, -96(%rbp)	# _1, D.62462[0]
# src/Tensor/Tensor.hpp:109:             std::vector<size_type> index_list{indices...};
	.loc 5 109 47
	movl	-144(%rbp), %eax	# indices#1, tmp110
	cltq
# src/Tensor/Tensor.hpp:109:             std::vector<size_type> index_list{indices...};
	.loc 5 109 36
	movq	%rax, -88(%rbp)	# _2, D.62462[1]
# src/Tensor/Tensor.hpp:109:             std::vector<size_type> index_list{indices...};
	.loc 5 109 47
	movl	-148(%rbp), %eax	# indices#2, tmp111
	cltq
# src/Tensor/Tensor.hpp:109:             std::vector<size_type> index_list{indices...};
	.loc 5 109 36
	movq	%rax, -80(%rbp)	# _3, D.62462[2]
	leaq	-96(%rbp), %rax	#, tmp112
	movq	%rax, %r12	# tmp112, D.62463
	movl	$3, %r13d	#, D.62463
	leaq	-65(%rbp), %rax	#, tmp113
	movq	%rax, %rdi	# tmp113,
	call	_ZNSaIlEC1Ev	#
	leaq	-65(%rbp), %rdx	#, tmp114
	movq	%r12, %rsi	# D.62463, tmp115
	movq	%r13, %rdi	# D.62463,
	movq	%r12, %rcx	# D.62463, tmp116
	movq	%r13, %rbx	# D.62463,
	movq	%rbx, %rdi	#, tmp118
	leaq	-128(%rbp), %rax	#, tmp119
	movq	%rdx, %rcx	# tmp114,
	movq	%rdi, %rdx	# tmp118,
	movq	%rax, %rdi	# tmp119,
.LEHB10:
	call	_ZNSt6vectorIlSaIlEEC1ESt16initializer_listIlERKS0_	#
.LEHE10:
# src/Tensor/Tensor.hpp:109:             std::vector<size_type> index_list{indices...};
	.loc 5 109 36 is_stmt 0 discriminator 2
	leaq	-65(%rbp), %rax	#, tmp120
	movq	%rax, %rdi	# tmp120,
	call	_ZNSaIlED1Ev	#
# src/Tensor/Tensor.hpp:110:             size_type n_indices = index_list.size();
	.loc 5 110 50 is_stmt 1 discriminator 2
	leaq	-128(%rbp), %rax	#, tmp121
	movq	%rax, %rdi	# tmp121,
	call	_ZNKSt6vectorIlSaIlEE4sizeEv	#
# src/Tensor/Tensor.hpp:110:             size_type n_indices = index_list.size();
	.loc 5 110 23 discriminator 2
	movq	%rax, -64(%rbp)	# _4, n_indices
# src/Tensor/Tensor.hpp:112:             if (n_indices != this->order())
	.loc 5 112 41 discriminator 2
	movq	-136(%rbp), %rax	# this, tmp122
	movq	%rax, %rdi	# tmp122,
	call	_ZNK9container6tensorIdJLl2ELl3ELl5EEE5orderEv	#
# src/Tensor/Tensor.hpp:112:             if (n_indices != this->order())
	.loc 5 112 27 discriminator 2
	cmpq	%rax, -64(%rbp)	# _5, n_indices
	setne	%al	#, retval.23_43
# src/Tensor/Tensor.hpp:112:             if (n_indices != this->order())
	.loc 5 112 13 discriminator 2
	testb	%al, %al	# retval.23_43
	je	.L41	#,
# src/Tensor/Tensor.hpp:113:                 throw std::runtime_error("The number of indices must be equal to the tensor's order.");
	.loc 5 113 17
	movl	$16, %edi	#,
	call	__cxa_allocate_exception@PLT	#
	movq	%rax, %rbx	# tmp123, _64
	leaq	.LC2(%rip), %rax	#, tmp124
	movq	%rax, %rsi	# tmp124,
	movq	%rbx, %rdi	# _64,
.LEHB11:
	call	_ZNSt13runtime_errorC1EPKc@PLT	#
.LEHE11:
# src/Tensor/Tensor.hpp:113:                 throw std::runtime_error("The number of indices must be equal to the tensor's order.");
	.loc 5 113 17 is_stmt 0 discriminator 2
	movq	_ZNSt13runtime_errorD1Ev@GOTPCREL(%rip), %rax	#, tmp126
	movq	%rax, %rdx	# tmp125,
	leaq	_ZTISt13runtime_error(%rip), %rax	#, tmp127
	movq	%rax, %rsi	# tmp127,
	movq	%rbx, %rdi	# _64,
.LEHB12:
	call	__cxa_throw@PLT	#
.L41:
# src/Tensor/Tensor.hpp:115:             size_type index_1d = 0;
	.loc 5 115 23 is_stmt 1
	movq	$0, -40(%rbp)	#, index_1d
# src/Tensor/Tensor.hpp:116:             size_type size_1d = this->size();
	.loc 5 116 43
	movq	-136(%rbp), %rax	# this, tmp128
	movq	%rax, %rdi	# tmp128,
	call	_ZNK9container6tensorIdJLl2ELl3ELl5EEE4sizeEv	#
	movq	%rax, -48(%rbp)	# tmp129, size_1d
# src/Tensor/Tensor.hpp:117:             size_type current_dim = 0;
	.loc 5 117 23
	movq	$0, -56(%rbp)	#, current_dim
# src/Tensor/Tensor.hpp:119:             for (current_dim = 0; current_dim < n_indices; ++current_dim)
	.loc 5 119 30
	movq	$0, -56(%rbp)	#, current_dim
# src/Tensor/Tensor.hpp:119:             for (current_dim = 0; current_dim < n_indices; ++current_dim)
	.loc 5 119 13
	jmp	.L42	#
.L43:
# src/Tensor/Tensor.hpp:120:                 index_1d += details::index_check(index_list[current_dim], _dims[current_dim]) * (size_1d /= _dims[current_dim]);
	.loc 5 120 49
	movq	-136(%rbp), %rax	# this, tmp130
	leaq	24(%rax), %rdx	#, _6
	movq	-56(%rbp), %rax	# current_dim, current_dim.24_7
	movq	%rax, %rsi	# current_dim.24_7,
	movq	%rdx, %rdi	# _6,
	call	_ZNSt6vectorIlSaIlEEixEm	#
	movq	(%rax), %rbx	# *_8, _9
	movq	-56(%rbp), %rdx	# current_dim, current_dim.25_10
	leaq	-128(%rbp), %rax	#, tmp131
	movq	%rdx, %rsi	# current_dim.25_10,
	movq	%rax, %rdi	# tmp131,
	call	_ZNSt6vectorIlSaIlEEixEm	#
	movq	(%rax), %rax	# *_11, _12
	movq	%rbx, %rsi	# _9,
	movq	%rax, %rdi	# _12,
	call	_ZN9container7details11index_checkEll	#
.LEHE12:
	movq	%rax, %rbx	#, _13
# src/Tensor/Tensor.hpp:120:                 index_1d += details::index_check(index_list[current_dim], _dims[current_dim]) * (size_1d /= _dims[current_dim]);
	.loc 5 120 106
	movq	-136(%rbp), %rax	# this, tmp132
	leaq	24(%rax), %rdx	#, _14
	movq	-56(%rbp), %rax	# current_dim, current_dim.26_15
	movq	%rax, %rsi	# current_dim.26_15,
	movq	%rdx, %rdi	# _14,
	call	_ZNSt6vectorIlSaIlEEixEm	#
	movq	(%rax), %rcx	# *_16, _58
	movq	-48(%rbp), %rax	# size_1d, tmp135
	cqto
	idivq	%rcx	# _58
	movq	%rax, -48(%rbp)	# tmp133, size_1d
# src/Tensor/Tensor.hpp:120:                 index_1d += details::index_check(index_list[current_dim], _dims[current_dim]) * (size_1d /= _dims[current_dim]);
	.loc 5 120 95
	movq	%rbx, %rax	# _13, _13
	imulq	-48(%rbp), %rax	# size_1d, _13
# src/Tensor/Tensor.hpp:120:                 index_1d += details::index_check(index_list[current_dim], _dims[current_dim]) * (size_1d /= _dims[current_dim]);
	.loc 5 120 26
	addq	%rax, -40(%rbp)	# _60, index_1d
# src/Tensor/Tensor.hpp:119:             for (current_dim = 0; current_dim < n_indices; ++current_dim)
	.loc 5 119 13
	addq	$1, -56(%rbp)	#, current_dim
.L42:
# src/Tensor/Tensor.hpp:119:             for (current_dim = 0; current_dim < n_indices; ++current_dim)
	.loc 5 119 47 discriminator 2
	movq	-56(%rbp), %rax	# current_dim, tmp136
	cmpq	-64(%rbp), %rax	# n_indices, tmp136
	jl	.L43	#,
# src/Tensor/Tensor.hpp:122:             return this->_data[index_1d];
	.loc 5 122 31
	movq	-136(%rbp), %rax	# this, _17
	movq	-40(%rbp), %rdx	# index_1d, index_1d.27_18
	movq	%rdx, %rsi	# index_1d.27_18,
	movq	%rax, %rdi	# _17,
	call	_ZNSt6vectorIdSaIdEEixEm	#
	movq	%rax, %rbx	#, _50
# src/Tensor/Tensor.hpp:122:             return this->_data[index_1d];
	.loc 5 122 40
	nop	
# src/Tensor/Tensor.hpp:123:         }
	.loc 5 123 9
	leaq	-128(%rbp), %rax	#, tmp137
	movq	%rax, %rdi	# tmp137,
	call	_ZNSt6vectorIlSaIlEED1Ev	#
# src/Tensor/Tensor.hpp:122:             return this->_data[index_1d];
	.loc 5 122 40
	movq	%rbx, %rax	# _50, <retval>
	jmp	.L51	#
.L48:
# src/Tensor/Tensor.hpp:109:             std::vector<size_type> index_list{indices...};
	.loc 5 109 36
	movq	%rax, %rbx	#, tmp140
	leaq	-65(%rbp), %rax	#, tmp139
	movq	%rax, %rdi	# tmp139,
	call	_ZNSaIlED1Ev	#
	movq	%rbx, %rax	# tmp140, D.68828
	movq	%rax, %rdi	# D.68828,
.LEHB13:
	call	_Unwind_Resume@PLT	#
.L49:
# src/Tensor/Tensor.hpp:113:                 throw std::runtime_error("The number of indices must be equal to the tensor's order.");
	.loc 5 113 17
	movq	%rax, %r12	#, tmp142
	movq	%rbx, %rdi	# _64,
	call	__cxa_free_exception@PLT	#
	movq	%r12, %rbx	# tmp142, tmp141
	jmp	.L47	#
.L50:
# src/Tensor/Tensor.hpp:123:         }
	.loc 5 123 9
	movq	%rax, %rbx	#, tmp141
.L47:
	leaq	-128(%rbp), %rax	#, tmp145
	movq	%rax, %rdi	# tmp145,
	call	_ZNSt6vectorIlSaIlEED1Ev	#
	movq	%rbx, %rax	# tmp141, D.68829
	movq	%rax, %rdi	# D.68829,
	call	_Unwind_Resume@PLT	#
.LEHE13:
.L51:
	addq	$136, %rsp	#,
	popq	%rbx	#
	popq	%r12	#
	popq	%r13	#
	popq	%rbp	#
	.cfi_def_cfa 7, 8
	ret	
	.cfi_endproc
.LFE2862:
	.section	.gcc_except_table
.LLSDA2862:
	.byte	0xff
	.byte	0xff
	.byte	0x1
	.uleb128 .LLSDACSE2862-.LLSDACSB2862
.LLSDACSB2862:
	.uleb128 .LEHB10-.LFB2862
	.uleb128 .LEHE10-.LEHB10
	.uleb128 .L48-.LFB2862
	.uleb128 0
	.uleb128 .LEHB11-.LFB2862
	.uleb128 .LEHE11-.LEHB11
	.uleb128 .L49-.LFB2862
	.uleb128 0
	.uleb128 .LEHB12-.LFB2862
	.uleb128 .LEHE12-.LEHB12
	.uleb128 .L50-.LFB2862
	.uleb128 0
	.uleb128 .LEHB13-.LFB2862
	.uleb128 .LEHE13-.LEHB13
	.uleb128 0
	.uleb128 0
.LLSDACSE2862:
	.section	.text._ZN9container6tensorIdJLl2ELl3ELl5EEEclIJiiiEEERdDpT_,"axG",@progbits,_ZN9container6tensorIdJLl2ELl3ELl5EEEclIJiiiEEERdDpT_,comdat
	.size	_ZN9container6tensorIdJLl2ELl3ELl5EEEclIJiiiEEERdDpT_, .-_ZN9container6tensorIdJLl2ELl3ELl5EEEclIJiiiEEERdDpT_
	.section	.text._ZNSt12_Vector_baseIlSaIlEE12_Vector_implD2Ev,"axG",@progbits,_ZNSt12_Vector_baseIlSaIlEE12_Vector_implD5Ev,comdat
	.align 2
	.weak	_ZNSt12_Vector_baseIlSaIlEE12_Vector_implD2Ev
	.type	_ZNSt12_Vector_baseIlSaIlEE12_Vector_implD2Ev, @function
_ZNSt12_Vector_baseIlSaIlEE12_Vector_implD2Ev:
.LFB2868:
	.loc 7 133 14
	.cfi_startproc
	pushq	%rbp	#
	.cfi_def_cfa_offset 16
	.cfi_offset 6, -16
	movq	%rsp, %rbp	#,
	.cfi_def_cfa_register 6
	subq	$16, %rsp	#,
	movq	%rdi, -8(%rbp)	# this, this
.LBB12:
# /usr/include/c++/12/bits/stl_vector.h:133:       struct _Vector_impl
	.loc 7 133 14
	movq	-8(%rbp), %rax	# this, tmp82
	movq	%rax, %rdi	# tmp82,
	call	_ZNSaIlED2Ev	#
.LBE12:
	nop	
	leave	
	.cfi_def_cfa 7, 8
	ret	
	.cfi_endproc
.LFE2868:
	.size	_ZNSt12_Vector_baseIlSaIlEE12_Vector_implD2Ev, .-_ZNSt12_Vector_baseIlSaIlEE12_Vector_implD2Ev
	.weak	_ZNSt12_Vector_baseIlSaIlEE12_Vector_implD1Ev
	.set	_ZNSt12_Vector_baseIlSaIlEE12_Vector_implD1Ev,_ZNSt12_Vector_baseIlSaIlEE12_Vector_implD2Ev
	.section	.text._ZNSt12_Vector_baseIlSaIlEEC2Ev,"axG",@progbits,_ZNSt12_Vector_baseIlSaIlEEC5Ev,comdat
	.align 2
	.weak	_ZNSt12_Vector_baseIlSaIlEEC2Ev
	.type	_ZNSt12_Vector_baseIlSaIlEEC2Ev, @function
_ZNSt12_Vector_baseIlSaIlEEC2Ev:
.LFB2870:
	.loc 7 312 7
	.cfi_startproc
	pushq	%rbp	#
	.cfi_def_cfa_offset 16
	.cfi_offset 6, -16
	movq	%rsp, %rbp	#,
	.cfi_def_cfa_register 6
	subq	$16, %rsp	#,
	movq	%rdi, -8(%rbp)	# this, this
.LBB13:
# /usr/include/c++/12/bits/stl_vector.h:312:       _Vector_base() = default;
	.loc 7 312 7
	movq	-8(%rbp), %rax	# this, _1
	movq	%rax, %rdi	# _1,
	call	_ZNSt12_Vector_baseIlSaIlEE12_Vector_implC1Ev	#
.LBE13:
	nop	
	leave	
	.cfi_def_cfa 7, 8
	ret	
	.cfi_endproc
.LFE2870:
	.size	_ZNSt12_Vector_baseIlSaIlEEC2Ev, .-_ZNSt12_Vector_baseIlSaIlEEC2Ev
	.weak	_ZNSt12_Vector_baseIlSaIlEEC1Ev
	.set	_ZNSt12_Vector_baseIlSaIlEEC1Ev,_ZNSt12_Vector_baseIlSaIlEEC2Ev
	.section	.text._ZNSt6vectorIlSaIlEEC2Ev,"axG",@progbits,_ZNSt6vectorIlSaIlEEC5Ev,comdat
	.align 2
	.weak	_ZNSt6vectorIlSaIlEEC2Ev
	.type	_ZNSt6vectorIlSaIlEEC2Ev, @function
_ZNSt6vectorIlSaIlEEC2Ev:
.LFB2872:
	.loc 7 526 7
	.cfi_startproc
	pushq	%rbp	#
	.cfi_def_cfa_offset 16
	.cfi_offset 6, -16
	movq	%rsp, %rbp	#,
	.cfi_def_cfa_register 6
	subq	$16, %rsp	#,
	movq	%rdi, -8(%rbp)	# this, this
.LBB14:
# /usr/include/c++/12/bits/stl_vector.h:526:       vector() = default;
	.loc 7 526 7
	movq	-8(%rbp), %rax	# this, _1
	movq	%rax, %rdi	# _1,
	call	_ZNSt12_Vector_baseIlSaIlEEC2Ev	#
.LBE14:
	nop	
	leave	
	.cfi_def_cfa 7, 8
	ret	
	.cfi_endproc
.LFE2872:
	.size	_ZNSt6vectorIlSaIlEEC2Ev, .-_ZNSt6vectorIlSaIlEEC2Ev
	.weak	_ZNSt6vectorIlSaIlEEC1Ev
	.set	_ZNSt6vectorIlSaIlEEC1Ev,_ZNSt6vectorIlSaIlEEC2Ev
	.section	.text._ZN9container6tensorIdJEEC2IJLl2ELl3ELl5EEEERKNS0_IdJXspT_EEEE,"axG",@progbits,_ZN9container6tensorIdJEEC5IJLl2ELl3ELl5EEEERKNS0_IdJXspT_EEEE,comdat
	.align 2
	.weak	_ZN9container6tensorIdJEEC2IJLl2ELl3ELl5EEEERKNS0_IdJXspT_EEEE
	.type	_ZN9container6tensorIdJEEC2IJLl2ELl3ELl5EEEERKNS0_IdJXspT_EEEE, @function
_ZN9container6tensorIdJEEC2IJLl2ELl3ELl5EEEERKNS0_IdJXspT_EEEE:
.LFB2874:
	.loc 5 43 9
	.cfi_startproc
	.cfi_personality 0x9b,DW.ref.__gxx_personality_v0
	.cfi_lsda 0x1b,.LLSDA2874
	pushq	%rbp	#
	.cfi_def_cfa_offset 16
	.cfi_offset 6, -16
	movq	%rsp, %rbp	#,
	.cfi_def_cfa_register 6
	pushq	%rbx	#
	subq	$24, %rsp	#,
	.cfi_offset 3, -24
	movq	%rdi, -24(%rbp)	# this, this
	movq	%rsi, -32(%rbp)	# rhs_tensor, rhs_tensor
.LBB15:
# src/Tensor/Tensor.hpp:43:         tensor(const tensor<data_type, rhs_dims...> &rhs_tensor) : _dims{dims...}
	.loc 5 43 81
	movq	-24(%rbp), %rax	# this, _1
	movq	%rax, %rdi	# _1,
	call	_ZNSt6vectorIdSaIdEEC1Ev	#
# src/Tensor/Tensor.hpp:43:         tensor(const tensor<data_type, rhs_dims...> &rhs_tensor) : _dims{dims...}
	.loc 5 43 68
	movq	-24(%rbp), %rax	# this, tmp87
	pxor	%xmm0, %xmm0	# tmp88
	movups	%xmm0, 24(%rax)	# tmp88, this_6(D)->_dims
	movq	%xmm0, 40(%rax)	# tmp88, this_6(D)->_dims
	movq	-24(%rbp), %rax	# this, tmp89
	addq	$24, %rax	#, _2
	movq	%rax, %rdi	# _2,
	call	_ZNSt6vectorIlSaIlEEC1Ev	#
# src/Tensor/Tensor.hpp:45:             this->_diff_type_copy_initialize(rhs_tensor);
	.loc 5 45 45
	movq	-32(%rbp), %rdx	# rhs_tensor, tmp90
	movq	-24(%rbp), %rax	# this, tmp91
	movq	%rdx, %rsi	# tmp90,
	movq	%rax, %rdi	# tmp91,
.LEHB14:
	call	_ZN9container6tensorIdJEE26_diff_type_copy_initializeIJLl2ELl3ELl5EEEEvRKNS0_IdJXspT_EEEE	#
.LEHE14:
.LBE15:
# src/Tensor/Tensor.hpp:46:         }
	.loc 5 46 9
	jmp	.L58	#
.L57:
.LBB16:
	movq	%rax, %rbx	#, tmp94
	movq	-24(%rbp), %rax	# this, tmp92
	addq	$24, %rax	#, _3
	movq	%rax, %rdi	# _3,
	call	_ZNSt6vectorIlSaIlEED1Ev	#
	movq	-24(%rbp), %rax	# this, _4
	movq	%rax, %rdi	# _4,
	call	_ZNSt6vectorIdSaIdEED1Ev	#
	movq	%rbx, %rax	# tmp93, D.68832
	movq	%rax, %rdi	# D.68832,
.LEHB15:
	call	_Unwind_Resume@PLT	#
.LEHE15:
.L58:
.LBE16:
	movq	-8(%rbp), %rbx	#,
	leave	
	.cfi_def_cfa 7, 8
	ret	
	.cfi_endproc
.LFE2874:
	.section	.gcc_except_table
.LLSDA2874:
	.byte	0xff
	.byte	0xff
	.byte	0x1
	.uleb128 .LLSDACSE2874-.LLSDACSB2874
.LLSDACSB2874:
	.uleb128 .LEHB14-.LFB2874
	.uleb128 .LEHE14-.LEHB14
	.uleb128 .L57-.LFB2874
	.uleb128 0
	.uleb128 .LEHB15-.LFB2874
	.uleb128 .LEHE15-.LEHB15
	.uleb128 0
	.uleb128 0
.LLSDACSE2874:
	.section	.text._ZN9container6tensorIdJEEC2IJLl2ELl3ELl5EEEERKNS0_IdJXspT_EEEE,"axG",@progbits,_ZN9container6tensorIdJEEC5IJLl2ELl3ELl5EEEERKNS0_IdJXspT_EEEE,comdat
	.size	_ZN9container6tensorIdJEEC2IJLl2ELl3ELl5EEEERKNS0_IdJXspT_EEEE, .-_ZN9container6tensorIdJEEC2IJLl2ELl3ELl5EEEERKNS0_IdJXspT_EEEE
	.weak	_ZN9container6tensorIdJEEC1IJLl2ELl3ELl5EEEERKNS0_IdJXspT_EEEE
	.set	_ZN9container6tensorIdJEEC1IJLl2ELl3ELl5EEEERKNS0_IdJXspT_EEEE,_ZN9container6tensorIdJEEC2IJLl2ELl3ELl5EEEERKNS0_IdJXspT_EEEE
	.section	.text._ZN9container6tensorIdJLl2ELl3ELl55EEEC2Ev,"axG",@progbits,_ZN9container6tensorIdJLl2ELl3ELl55EEEC5Ev,comdat
	.align 2
	.weak	_ZN9container6tensorIdJLl2ELl3ELl55EEEC2Ev
	.type	_ZN9container6tensorIdJLl2ELl3ELl55EEEC2Ev, @function
_ZN9container6tensorIdJLl2ELl3ELl55EEEC2Ev:
.LFB2877:
	.loc 5 26 9
	.cfi_startproc
	.cfi_personality 0x9b,DW.ref.__gxx_personality_v0
	.cfi_lsda 0x1b,.LLSDA2877
	pushq	%rbp	#
	.cfi_def_cfa_offset 16
	.cfi_offset 6, -16
	movq	%rsp, %rbp	#,
	.cfi_def_cfa_register 6
	pushq	%r13	#
	pushq	%r12	#
	pushq	%rbx	#
	subq	$56, %rsp	#,
	.cfi_offset 13, -24
	.cfi_offset 12, -32
	.cfi_offset 3, -40
	movq	%rdi, -72(%rbp)	# this, this
.LBB17:
# src/Tensor/Tensor.hpp:26:         tensor() : _dims{dims...}
	.loc 5 26 33
	movq	-72(%rbp), %rax	# this, _1
	movq	%rax, %rdi	# _1,
	call	_ZNSt6vectorIdSaIdEEC1Ev	#
# src/Tensor/Tensor.hpp:26:         tensor() : _dims{dims...}
	.loc 5 26 20
	movq	-72(%rbp), %rax	# this, tmp88
	leaq	24(%rax), %rbx	#, _2
	movq	$2, -64(%rbp)	#, D.62622[0]
	movq	$3, -56(%rbp)	#, D.62622[1]
	movq	$55, -48(%rbp)	#, D.62622[2]
	leaq	-64(%rbp), %rax	#, tmp89
	movq	%rax, %r12	# tmp89, D.62621
	movl	$3, %r13d	#, D.62621
	leaq	-33(%rbp), %rax	#, tmp90
	movq	%rax, %rdi	# tmp90,
	call	_ZNSaIlEC1Ev	#
	leaq	-33(%rbp), %rax	#, tmp91
	movq	%r12, %r8	# D.62621, tmp92
	movq	%r13, %r9	# D.62621,
	movq	%r12, %rsi	# D.62621, tmp93
	movq	%r13, %rdi	# D.62621,
	movq	%rdi, %rdx	#, tmp95
	movq	%rax, %rcx	# tmp91,
	movq	%r8, %rsi	# tmp94,
	movq	%rbx, %rdi	# _2,
.LEHB16:
	call	_ZNSt6vectorIlSaIlEEC1ESt16initializer_listIlERKS0_	#
.LEHE16:
# src/Tensor/Tensor.hpp:26:         tensor() : _dims{dims...}
	.loc 5 26 20 is_stmt 0 discriminator 2
	leaq	-33(%rbp), %rax	#, tmp96
	movq	%rax, %rdi	# tmp96,
	call	_ZNSaIlED1Ev	#
# src/Tensor/Tensor.hpp:29:                 this->_initialize();
	.loc 5 29 34 is_stmt 1 discriminator 2
	movq	-72(%rbp), %rax	# this, tmp97
	movq	%rax, %rdi	# tmp97,
.LEHB17:
	call	_ZN9container6tensorIdJLl2ELl3ELl55EEE11_initializeEv	#
.LEHE17:
.LBE17:
# src/Tensor/Tensor.hpp:30:         }
	.loc 5 30 9
	jmp	.L65	#
.L63:
.LBB18:
# src/Tensor/Tensor.hpp:26:         tensor() : _dims{dims...}
	.loc 5 26 20
	movq	%rax, %rbx	#, tmp100
	leaq	-33(%rbp), %rax	#, tmp98
	movq	%rax, %rdi	# tmp98,
	call	_ZNSaIlED1Ev	#
	jmp	.L61	#
.L64:
# src/Tensor/Tensor.hpp:30:         }
	.loc 5 30 9
	movq	%rax, %rbx	#, tmp104
	movq	-72(%rbp), %rax	# this, tmp103
	addq	$24, %rax	#, _3
	movq	%rax, %rdi	# _3,
	call	_ZNSt6vectorIlSaIlEED1Ev	#
.L61:
	movq	-72(%rbp), %rax	# this, _4
	movq	%rax, %rdi	# _4,
	call	_ZNSt6vectorIdSaIdEED1Ev	#
	movq	%rbx, %rax	# tmp99, D.68833
	movq	%rax, %rdi	# D.68833,
.LEHB18:
	call	_Unwind_Resume@PLT	#
.LEHE18:
.L65:
.LBE18:
	addq	$56, %rsp	#,
	popq	%rbx	#
	popq	%r12	#
	popq	%r13	#
	popq	%rbp	#
	.cfi_def_cfa 7, 8
	ret	
	.cfi_endproc
.LFE2877:
	.section	.gcc_except_table
.LLSDA2877:
	.byte	0xff
	.byte	0xff
	.byte	0x1
	.uleb128 .LLSDACSE2877-.LLSDACSB2877
.LLSDACSB2877:
	.uleb128 .LEHB16-.LFB2877
	.uleb128 .LEHE16-.LEHB16
	.uleb128 .L63-.LFB2877
	.uleb128 0
	.uleb128 .LEHB17-.LFB2877
	.uleb128 .LEHE17-.LEHB17
	.uleb128 .L64-.LFB2877
	.uleb128 0
	.uleb128 .LEHB18-.LFB2877
	.uleb128 .LEHE18-.LEHB18
	.uleb128 0
	.uleb128 0
.LLSDACSE2877:
	.section	.text._ZN9container6tensorIdJLl2ELl3ELl55EEEC2Ev,"axG",@progbits,_ZN9container6tensorIdJLl2ELl3ELl55EEEC5Ev,comdat
	.size	_ZN9container6tensorIdJLl2ELl3ELl55EEEC2Ev, .-_ZN9container6tensorIdJLl2ELl3ELl55EEEC2Ev
	.weak	_ZN9container6tensorIdJLl2ELl3ELl55EEEC1Ev
	.set	_ZN9container6tensorIdJLl2ELl3ELl55EEEC1Ev,_ZN9container6tensorIdJLl2ELl3ELl55EEEC2Ev
	.section	.text._ZN9container6tensorIdJEEaSIJLl2ELl3ELl55EEEERS1_RKNS0_IdJXspT_EEEE,"axG",@progbits,_ZN9container6tensorIdJEEaSIJLl2ELl3ELl55EEEERS1_RKNS0_IdJXspT_EEEE,comdat
	.align 2
	.weak	_ZN9container6tensorIdJEEaSIJLl2ELl3ELl55EEEERS1_RKNS0_IdJXspT_EEEE
	.type	_ZN9container6tensorIdJEEaSIJLl2ELl3ELl55EEEERS1_RKNS0_IdJXspT_EEEE, @function
_ZN9container6tensorIdJEEaSIJLl2ELl3ELl55EEEERS1_RKNS0_IdJXspT_EEEE:
.LFB2879:
	.loc 5 59 17
	.cfi_startproc
	pushq	%rbp	#
	.cfi_def_cfa_offset 16
	.cfi_offset 6, -16
	movq	%rsp, %rbp	#,
	.cfi_def_cfa_register 6
	subq	$16, %rsp	#,
	movq	%rdi, -8(%rbp)	# this, this
	movq	%rsi, -16(%rbp)	# rhs_tensor, rhs_tensor
# src/Tensor/Tensor.hpp:61:             this->_diff_type_copy_assgin(rhs_tensor);
	.loc 5 61 41
	movq	-16(%rbp), %rdx	# rhs_tensor, tmp84
	movq	-8(%rbp), %rax	# this, tmp85
	movq	%rdx, %rsi	# tmp84,
	movq	%rax, %rdi	# tmp85,
	call	_ZN9container6tensorIdJEE22_diff_type_copy_assginIJLl2ELl3ELl55EEEEvRKNS0_IdJXspT_EEEE	#
# src/Tensor/Tensor.hpp:62:             return *this;
	.loc 5 62 21
	movq	-8(%rbp), %rax	# this, _5
# src/Tensor/Tensor.hpp:63:         }
	.loc 5 63 9
	leave	
	.cfi_def_cfa 7, 8
	ret	
	.cfi_endproc
.LFE2879:
	.size	_ZN9container6tensorIdJEEaSIJLl2ELl3ELl55EEEERS1_RKNS0_IdJXspT_EEEE, .-_ZN9container6tensorIdJEEaSIJLl2ELl3ELl55EEEERS1_RKNS0_IdJXspT_EEEE
	.section	.text._ZNK9container6tensorIdJEE4sizeEv,"axG",@progbits,_ZNK9container6tensorIdJEE4sizeEv,comdat
	.align 2
	.weak	_ZNK9container6tensorIdJEE4sizeEv
	.type	_ZNK9container6tensorIdJEE4sizeEv, @function
_ZNK9container6tensorIdJEE4sizeEv:
.LFB2880:
	.loc 5 81 19
	.cfi_startproc
	pushq	%rbp	#
	.cfi_def_cfa_offset 16
	.cfi_offset 6, -16
	movq	%rsp, %rbp	#,
	.cfi_def_cfa_register 6
	subq	$16, %rsp	#,
	movq	%rdi, -8(%rbp)	# this, this
# src/Tensor/Tensor.hpp:83:             return this->_data.size();
	.loc 5 83 36
	movq	-8(%rbp), %rax	# this, _1
	movq	%rax, %rdi	# _1,
	call	_ZNKSt6vectorIdSaIdEE4sizeEv	#
# src/Tensor/Tensor.hpp:84:         }
	.loc 5 84 9
	leave	
	.cfi_def_cfa 7, 8
	ret	
	.cfi_endproc
.LFE2880:
	.size	_ZNK9container6tensorIdJEE4sizeEv, .-_ZNK9container6tensorIdJEE4sizeEv
	.section	.text._ZNSt12_Vector_baseIdSaIdEE12_Vector_implC2Ev,"axG",@progbits,_ZNSt12_Vector_baseIdSaIdEE12_Vector_implC5Ev,comdat
	.align 2
	.weak	_ZNSt12_Vector_baseIdSaIdEE12_Vector_implC2Ev
	.type	_ZNSt12_Vector_baseIdSaIdEE12_Vector_implC2Ev, @function
_ZNSt12_Vector_baseIdSaIdEE12_Vector_implC2Ev:
.LFB2988:
	.loc 7 137 2
	.cfi_startproc
	pushq	%rbp	#
	.cfi_def_cfa_offset 16
	.cfi_offset 6, -16
	movq	%rsp, %rbp	#,
	.cfi_def_cfa_register 6
	subq	$16, %rsp	#,
	movq	%rdi, -8(%rbp)	# this, this
.LBB19:
# /usr/include/c++/12/bits/stl_vector.h:139: 	: _Tp_alloc_type()
	.loc 7 139 19
	movq	-8(%rbp), %rax	# this, tmp83
	movq	%rax, %rdi	# tmp83,
	call	_ZNSaIdEC2Ev	#
	movq	-8(%rbp), %rax	# this, _1
	movq	%rax, %rdi	# _1,
	call	_ZNSt12_Vector_baseIdSaIdEE17_Vector_impl_dataC2Ev	#
.LBE19:
# /usr/include/c++/12/bits/stl_vector.h:140: 	{ }
	.loc 7 140 4
	nop	
	leave	
	.cfi_def_cfa 7, 8
	ret	
	.cfi_endproc
.LFE2988:
	.size	_ZNSt12_Vector_baseIdSaIdEE12_Vector_implC2Ev, .-_ZNSt12_Vector_baseIdSaIdEE12_Vector_implC2Ev
	.weak	_ZNSt12_Vector_baseIdSaIdEE12_Vector_implC1Ev
	.set	_ZNSt12_Vector_baseIdSaIdEE12_Vector_implC1Ev,_ZNSt12_Vector_baseIdSaIdEE12_Vector_implC2Ev
	.section	.text._ZNSaIdED2Ev,"axG",@progbits,_ZNSaIdED5Ev,comdat
	.align 2
	.weak	_ZNSaIdED2Ev
	.type	_ZNSaIdED2Ev, @function
_ZNSaIdED2Ev:
.LFB2991:
	.file 8 "/usr/include/c++/12/bits/allocator.h"
	.loc 8 174 7
	.cfi_startproc
	pushq	%rbp	#
	.cfi_def_cfa_offset 16
	.cfi_offset 6, -16
	movq	%rsp, %rbp	#,
	.cfi_def_cfa_register 6
	subq	$16, %rsp	#,
	movq	%rdi, -8(%rbp)	# this, this
.LBB20:
# /usr/include/c++/12/bits/allocator.h:174:       ~allocator() _GLIBCXX_NOTHROW { }
	.loc 8 174 39
	movq	-8(%rbp), %rax	# this, tmp82
	movq	%rax, %rdi	# tmp82,
	call	_ZNSt15__new_allocatorIdED2Ev	#
.LBE20:
	nop	
	leave	
	.cfi_def_cfa 7, 8
	ret	
	.cfi_endproc
.LFE2991:
	.size	_ZNSaIdED2Ev, .-_ZNSaIdED2Ev
	.weak	_ZNSaIdED1Ev
	.set	_ZNSaIdED1Ev,_ZNSaIdED2Ev
	.section	.text._ZNSt12_Vector_baseIdSaIdEED2Ev,"axG",@progbits,_ZNSt12_Vector_baseIdSaIdEED5Ev,comdat
	.align 2
	.weak	_ZNSt12_Vector_baseIdSaIdEED2Ev
	.type	_ZNSt12_Vector_baseIdSaIdEED2Ev, @function
_ZNSt12_Vector_baseIdSaIdEED2Ev:
.LFB2994:
	.loc 7 364 7
	.cfi_startproc
	.cfi_personality 0x9b,DW.ref.__gxx_personality_v0
	.cfi_lsda 0x1b,.LLSDA2994
	pushq	%rbp	#
	.cfi_def_cfa_offset 16
	.cfi_offset 6, -16
	movq	%rsp, %rbp	#,
	.cfi_def_cfa_register 6
	subq	$16, %rsp	#,
	movq	%rdi, -8(%rbp)	# this, this
.LBB21:
# /usr/include/c++/12/bits/stl_vector.h:367: 		      _M_impl._M_end_of_storage - _M_impl._M_start);
	.loc 7 367 17
	movq	-8(%rbp), %rax	# this, tmp89
	movq	16(%rax), %rdx	# this_9(D)->_M_impl.D.58033._M_end_of_storage, _1
# /usr/include/c++/12/bits/stl_vector.h:367: 		      _M_impl._M_end_of_storage - _M_impl._M_start);
	.loc 7 367 45
	movq	-8(%rbp), %rax	# this, tmp90
	movq	(%rax), %rax	# this_9(D)->_M_impl.D.58033._M_start, _2
# /usr/include/c++/12/bits/stl_vector.h:367: 		      _M_impl._M_end_of_storage - _M_impl._M_start);
	.loc 7 367 35
	subq	%rax, %rdx	# _2, _3
	movq	%rdx, %rax	# _3, _3
	sarq	$3, %rax	#, _3
# /usr/include/c++/12/bits/stl_vector.h:366: 	_M_deallocate(_M_impl._M_start,
	.loc 7 366 15
	movq	%rax, %rdx	# _4, _5
	movq	-8(%rbp), %rax	# this, tmp92
	movq	(%rax), %rcx	# this_9(D)->_M_impl.D.58033._M_start, _6
	movq	-8(%rbp), %rax	# this, tmp93
	movq	%rcx, %rsi	# _6,
	movq	%rax, %rdi	# tmp93,
	call	_ZNSt12_Vector_baseIdSaIdEE13_M_deallocateEPdm	#
# /usr/include/c++/12/bits/stl_vector.h:368:       }
	.loc 7 368 7
	movq	-8(%rbp), %rax	# this, _7
	movq	%rax, %rdi	# _7,
	call	_ZNSt12_Vector_baseIdSaIdEE12_Vector_implD1Ev	#
.LBE21:
	nop	
	leave	
	.cfi_def_cfa 7, 8
	ret	
	.cfi_endproc
.LFE2994:
	.section	.gcc_except_table
.LLSDA2994:
	.byte	0xff
	.byte	0xff
	.byte	0x1
	.uleb128 .LLSDACSE2994-.LLSDACSB2994
.LLSDACSB2994:
.LLSDACSE2994:
	.section	.text._ZNSt12_Vector_baseIdSaIdEED2Ev,"axG",@progbits,_ZNSt12_Vector_baseIdSaIdEED5Ev,comdat
	.size	_ZNSt12_Vector_baseIdSaIdEED2Ev, .-_ZNSt12_Vector_baseIdSaIdEED2Ev
	.weak	_ZNSt12_Vector_baseIdSaIdEED1Ev
	.set	_ZNSt12_Vector_baseIdSaIdEED1Ev,_ZNSt12_Vector_baseIdSaIdEED2Ev
	.section	.text._ZNSaIlEC2Ev,"axG",@progbits,_ZNSaIlEC5Ev,comdat
	.align 2
	.weak	_ZNSaIlEC2Ev
	.type	_ZNSaIlEC2Ev, @function
_ZNSaIlEC2Ev:
.LFB2997:
	.loc 8 156 7
	.cfi_startproc
	pushq	%rbp	#
	.cfi_def_cfa_offset 16
	.cfi_offset 6, -16
	movq	%rsp, %rbp	#,
	.cfi_def_cfa_register 6
	subq	$16, %rsp	#,
	movq	%rdi, -8(%rbp)	# this, this
.LBB22:
# /usr/include/c++/12/bits/allocator.h:156:       allocator() _GLIBCXX_NOTHROW { }
	.loc 8 156 36
	movq	-8(%rbp), %rax	# this, tmp82
	movq	%rax, %rdi	# tmp82,
	call	_ZNSt15__new_allocatorIlEC2Ev	#
.LBE22:
# /usr/include/c++/12/bits/allocator.h:156:       allocator() _GLIBCXX_NOTHROW { }
	.loc 8 156 38
	nop	
	leave	
	.cfi_def_cfa 7, 8
	ret	
	.cfi_endproc
.LFE2997:
	.size	_ZNSaIlEC2Ev, .-_ZNSaIlEC2Ev
	.weak	_ZNSaIlEC1Ev
	.set	_ZNSaIlEC1Ev,_ZNSaIlEC2Ev
	.section	.text._ZNSaIlED2Ev,"axG",@progbits,_ZNSaIlED5Ev,comdat
	.align 2
	.weak	_ZNSaIlED2Ev
	.type	_ZNSaIlED2Ev, @function
_ZNSaIlED2Ev:
.LFB3000:
	.loc 8 174 7
	.cfi_startproc
	pushq	%rbp	#
	.cfi_def_cfa_offset 16
	.cfi_offset 6, -16
	movq	%rsp, %rbp	#,
	.cfi_def_cfa_register 6
	subq	$16, %rsp	#,
	movq	%rdi, -8(%rbp)	# this, this
.LBB23:
# /usr/include/c++/12/bits/allocator.h:174:       ~allocator() _GLIBCXX_NOTHROW { }
	.loc 8 174 39
	movq	-8(%rbp), %rax	# this, tmp82
	movq	%rax, %rdi	# tmp82,
	call	_ZNSt15__new_allocatorIlED2Ev	#
.LBE23:
	nop	
	leave	
	.cfi_def_cfa 7, 8
	ret	
	.cfi_endproc
.LFE3000:
	.size	_ZNSaIlED2Ev, .-_ZNSaIlED2Ev
	.weak	_ZNSaIlED1Ev
	.set	_ZNSaIlED1Ev,_ZNSaIlED2Ev
	.section	.text._ZNSt6vectorIlSaIlEEC2ESt16initializer_listIlERKS0_,"axG",@progbits,_ZNSt6vectorIlSaIlEEC5ESt16initializer_listIlERKS0_,comdat
	.align 2
	.weak	_ZNSt6vectorIlSaIlEEC2ESt16initializer_listIlERKS0_
	.type	_ZNSt6vectorIlSaIlEEC2ESt16initializer_listIlERKS0_, @function
_ZNSt6vectorIlSaIlEEC2ESt16initializer_listIlERKS0_:
.LFB3003:
	.loc 7 673 7
	.cfi_startproc
	.cfi_personality 0x9b,DW.ref.__gxx_personality_v0
	.cfi_lsda 0x1b,.LLSDA3003
	pushq	%rbp	#
	.cfi_def_cfa_offset 16
	.cfi_offset 6, -16
	movq	%rsp, %rbp	#,
	.cfi_def_cfa_register 6
	pushq	%rbx	#
	subq	$56, %rsp	#,
	.cfi_offset 3, -24
	movq	%rdi, -40(%rbp)	# this, this
	movq	%rsi, %rax	# __l, tmp90
	movq	%rdx, %rsi	# __l, tmp91
	movq	%rsi, %rdx	# tmp91,
	movq	%rax, -64(%rbp)	# tmp89, __l
	movq	%rdx, -56(%rbp)	#, __l
	movq	%rcx, -48(%rbp)	# __a, __a
.LBB24:
# /usr/include/c++/12/bits/stl_vector.h:675:       : _Base(__a)
	.loc 7 675 18
	movq	-40(%rbp), %rax	# this, _1
	movq	-48(%rbp), %rdx	# __a, tmp92
	movq	%rdx, %rsi	# tmp92,
	movq	%rax, %rdi	# _1,
	call	_ZNSt12_Vector_baseIlSaIlEEC2ERKS0_	#
# /usr/include/c++/12/bits/stl_vector.h:677: 	_M_range_initialize(__l.begin(), __l.end(),
	.loc 7 677 21
	leaq	-64(%rbp), %rax	#, tmp93
	movq	%rax, %rdi	# tmp93,
	call	_ZNKSt16initializer_listIlE3endEv	#
	movq	%rax, %rbx	#, _3
	leaq	-64(%rbp), %rax	#, tmp94
	movq	%rax, %rdi	# tmp94,
	call	_ZNKSt16initializer_listIlE5beginEv	#
	movq	%rax, %rcx	#, _4
	movq	-40(%rbp), %rax	# this, tmp95
	movq	%rbx, %rdx	# _3,
	movq	%rcx, %rsi	# _4,
	movq	%rax, %rdi	# tmp95,
.LEHB19:
	call	_ZNSt6vectorIlSaIlEE19_M_range_initializeIPKlEEvT_S5_St20forward_iterator_tag	#
.LEHE19:
.LBE24:
# /usr/include/c++/12/bits/stl_vector.h:679:       }
	.loc 7 679 7
	jmp	.L78	#
.L77:
.LBB25:
	movq	%rax, %rbx	#, tmp96
	movq	-40(%rbp), %rax	# this, _5
	movq	%rax, %rdi	# _5,
	call	_ZNSt12_Vector_baseIlSaIlEED2Ev	#
	movq	%rbx, %rax	# tmp96, D.68834
	movq	%rax, %rdi	# D.68834,
.LEHB20:
	call	_Unwind_Resume@PLT	#
.LEHE20:
.L78:
.LBE25:
	movq	-8(%rbp), %rbx	#,
	leave	
	.cfi_def_cfa 7, 8
	ret	
	.cfi_endproc
.LFE3003:
	.section	.gcc_except_table
.LLSDA3003:
	.byte	0xff
	.byte	0xff
	.byte	0x1
	.uleb128 .LLSDACSE3003-.LLSDACSB3003
.LLSDACSB3003:
	.uleb128 .LEHB19-.LFB3003
	.uleb128 .LEHE19-.LEHB19
	.uleb128 .L77-.LFB3003
	.uleb128 0
	.uleb128 .LEHB20-.LFB3003
	.uleb128 .LEHE20-.LEHB20
	.uleb128 0
	.uleb128 0
.LLSDACSE3003:
	.section	.text._ZNSt6vectorIlSaIlEEC2ESt16initializer_listIlERKS0_,"axG",@progbits,_ZNSt6vectorIlSaIlEEC5ESt16initializer_listIlERKS0_,comdat
	.size	_ZNSt6vectorIlSaIlEEC2ESt16initializer_listIlERKS0_, .-_ZNSt6vectorIlSaIlEEC2ESt16initializer_listIlERKS0_
	.weak	_ZNSt6vectorIlSaIlEEC1ESt16initializer_listIlERKS0_
	.set	_ZNSt6vectorIlSaIlEEC1ESt16initializer_listIlERKS0_,_ZNSt6vectorIlSaIlEEC2ESt16initializer_listIlERKS0_
	.section	.rodata
.LC3:
	.string	"dim <= 0"
	.section	.text._ZZN9container6tensorIdJLl2ELl3ELl5EEE11_initializeEvENKUliE_clEi,"axG",@progbits,_ZZN9container6tensorIdJLl2ELl3ELl5EEE11_initializeEvENKUliE_clEi,comdat
	.align 2
	.weak	_ZZN9container6tensorIdJLl2ELl3ELl5EEE11_initializeEvENKUliE_clEi
	.type	_ZZN9container6tensorIdJLl2ELl3ELl5EEE11_initializeEvENKUliE_clEi, @function
_ZZN9container6tensorIdJLl2ELl3ELl5EEE11_initializeEvENKUliE_clEi:
.LFB3006:
	.loc 5 137 67
	.cfi_startproc
	.cfi_personality 0x9b,DW.ref.__gxx_personality_v0
	.cfi_lsda 0x1b,.LLSDA3006
	pushq	%rbp	#
	.cfi_def_cfa_offset 16
	.cfi_offset 6, -16
	movq	%rsp, %rbp	#,
	.cfi_def_cfa_register 6
	pushq	%r12	#
	pushq	%rbx	#
	subq	$16, %rsp	#,
	.cfi_offset 12, -24
	.cfi_offset 3, -32
	movq	%rdi, -24(%rbp)	# __closure, __closure
	movl	%esi, -28(%rbp)	# size, size
# src/Tensor/Tensor.hpp:138:                           { if (size <= 0)
	.loc 5 138 29
	cmpl	$0, -28(%rbp)	#, size
	jg	.L80	#,
# src/Tensor/Tensor.hpp:139:                                     throw std::runtime_error("dim <= 0");
	.loc 5 139 37
	movl	$16, %edi	#,
	call	__cxa_allocate_exception@PLT	#
	movq	%rax, %rbx	# tmp89, _11
	leaq	.LC3(%rip), %rax	#, tmp90
	movq	%rax, %rsi	# tmp90,
	movq	%rbx, %rdi	# _11,
.LEHB21:
	call	_ZNSt13runtime_errorC1EPKc@PLT	#
.LEHE21:
# src/Tensor/Tensor.hpp:139:                                     throw std::runtime_error("dim <= 0");
	.loc 5 139 37 is_stmt 0 discriminator 2
	movq	_ZNSt13runtime_errorD1Ev@GOTPCREL(%rip), %rax	#, tmp92
	movq	%rax, %rdx	# tmp91,
	leaq	_ZTISt13runtime_error(%rip), %rax	#, tmp93
	movq	%rax, %rsi	# tmp93,
	movq	%rbx, %rdi	# _11,
.LEHB22:
	call	__cxa_throw@PLT	#
.L80:
# src/Tensor/Tensor.hpp:137:             std::for_each(this->_dims.begin(), this->_dims.end(), [&](int size)
	.loc 5 137 67 is_stmt 1
	movq	-24(%rbp), %rax	# __closure, tmp94
	movq	(%rax), %rax	# __closure_8(D)->__size_1d, _1
# src/Tensor/Tensor.hpp:140:                                 size_1d *= size; });          // exception: dim <= 0
	.loc 5 140 41
	movq	(%rax), %rcx	# *_1, _2
# src/Tensor/Tensor.hpp:140:                                 size_1d *= size; });          // exception: dim <= 0
	.loc 5 140 44
	movl	-28(%rbp), %eax	# size, tmp95
	movslq	%eax, %rdx	# tmp95, _3
# src/Tensor/Tensor.hpp:137:             std::for_each(this->_dims.begin(), this->_dims.end(), [&](int size)
	.loc 5 137 67
	movq	-24(%rbp), %rax	# __closure, tmp96
	movq	(%rax), %rax	# __closure_8(D)->__size_1d, _4
# src/Tensor/Tensor.hpp:140:                                 size_1d *= size; });          // exception: dim <= 0
	.loc 5 140 41
	imulq	%rcx, %rdx	# _2, _5
	movq	%rdx, (%rax)	# _5, *_4
# src/Tensor/Tensor.hpp:137:             std::for_each(this->_dims.begin(), this->_dims.end(), [&](int size)
	.loc 5 137 67
	jmp	.L83	#
.L82:
# src/Tensor/Tensor.hpp:139:                                     throw std::runtime_error("dim <= 0");
	.loc 5 139 37
	movq	%rax, %r12	#, tmp97
	movq	%rbx, %rdi	# _11,
	call	__cxa_free_exception@PLT	#
	movq	%r12, %rax	# tmp97, D.68835
	movq	%rax, %rdi	# D.68835,
	call	_Unwind_Resume@PLT	#
.LEHE22:
.L83:
# src/Tensor/Tensor.hpp:137:             std::for_each(this->_dims.begin(), this->_dims.end(), [&](int size)
	.loc 5 137 67
	addq	$16, %rsp	#,
	popq	%rbx	#
	popq	%r12	#
	popq	%rbp	#
	.cfi_def_cfa 7, 8
	ret	
	.cfi_endproc
.LFE3006:
	.section	.gcc_except_table
.LLSDA3006:
	.byte	0xff
	.byte	0xff
	.byte	0x1
	.uleb128 .LLSDACSE3006-.LLSDACSB3006
.LLSDACSB3006:
	.uleb128 .LEHB21-.LFB3006
	.uleb128 .LEHE21-.LEHB21
	.uleb128 .L82-.LFB3006
	.uleb128 0
	.uleb128 .LEHB22-.LFB3006
	.uleb128 .LEHE22-.LEHB22
	.uleb128 0
	.uleb128 0
.LLSDACSE3006:
	.section	.text._ZZN9container6tensorIdJLl2ELl3ELl5EEE11_initializeEvENKUliE_clEi,"axG",@progbits,_ZZN9container6tensorIdJLl2ELl3ELl5EEE11_initializeEvENKUliE_clEi,comdat
	.size	_ZZN9container6tensorIdJLl2ELl3ELl5EEE11_initializeEvENKUliE_clEi, .-_ZZN9container6tensorIdJLl2ELl3ELl5EEE11_initializeEvENKUliE_clEi
	.section	.text._ZN9container6tensorIdJLl2ELl3ELl5EEE11_initializeEv,"axG",@progbits,_ZN9container6tensorIdJLl2ELl3ELl5EEE11_initializeEv,comdat
	.align 2
	.weak	_ZN9container6tensorIdJLl2ELl3ELl5EEE11_initializeEv
	.type	_ZN9container6tensorIdJLl2ELl3ELl5EEE11_initializeEv, @function
_ZN9container6tensorIdJLl2ELl3ELl5EEE11_initializeEv:
.LFB3005:
	.loc 5 134 14
	.cfi_startproc
	pushq	%rbp	#
	.cfi_def_cfa_offset 16
	.cfi_offset 6, -16
	movq	%rsp, %rbp	#,
	.cfi_def_cfa_register 6
	pushq	%r12	#
	pushq	%rbx	#
	subq	$32, %rsp	#,
	.cfi_offset 12, -24
	.cfi_offset 3, -32
	movq	%rdi, -40(%rbp)	# this, this
# src/Tensor/Tensor.hpp:136:             size_type size_1d = 1;
	.loc 5 136 23
	movq	$1, -24(%rbp)	#, size_1d
# src/Tensor/Tensor.hpp:137:             std::for_each(this->_dims.begin(), this->_dims.end(), [&](int size)
	.loc 5 137 26
	leaq	-24(%rbp), %rax	#, tmp91
	movq	%rax, %r12	# tmp91, D.68024
	movq	-40(%rbp), %rax	# this, tmp92
	addq	$24, %rax	#, _1
	movq	%rax, %rdi	# _1,
	call	_ZNSt6vectorIlSaIlEE3endEv	#
	movq	%rax, %rbx	#, D.68025
	movq	-40(%rbp), %rax	# this, tmp93
	addq	$24, %rax	#, _2
	movq	%rax, %rdi	# _2,
	call	_ZNSt6vectorIlSaIlEE5beginEv	#
	movq	%r12, %rdx	# D.68024,
	movq	%rbx, %rsi	# D.68025,
	movq	%rax, %rdi	# D.68026,
	call	_ZSt8for_eachIN9__gnu_cxx17__normal_iteratorIPlSt6vectorIlSaIlEEEEZN9container6tensorIdJLl2ELl3ELl5EEE11_initializeEvEUliE_ET0_T_SC_SB_	#
# src/Tensor/Tensor.hpp:141:             this->_data.resize(size_1d); // exception: bad_alloc
	.loc 5 141 31
	movq	-40(%rbp), %rax	# this, _3
	movq	-24(%rbp), %rdx	# size_1d, size_1d.8_4
	movq	%rdx, %rsi	# size_1d.9_5,
	movq	%rax, %rdi	# _3,
	call	_ZNSt6vectorIdSaIdEE6resizeEm	#
# src/Tensor/Tensor.hpp:142:         }
	.loc 5 142 9
	nop	
	addq	$32, %rsp	#,
	popq	%rbx	#
	popq	%r12	#
	popq	%rbp	#
	.cfi_def_cfa 7, 8
	ret	
	.cfi_endproc
.LFE3005:
	.size	_ZN9container6tensorIdJLl2ELl3ELl5EEE11_initializeEv, .-_ZN9container6tensorIdJLl2ELl3ELl5EEE11_initializeEv
	.section	.text._ZNSt12_Vector_baseIdSaIdEE19_M_get_Tp_allocatorEv,"axG",@progbits,_ZNSt12_Vector_baseIdSaIdEE19_M_get_Tp_allocatorEv,comdat
	.align 2
	.weak	_ZNSt12_Vector_baseIdSaIdEE19_M_get_Tp_allocatorEv
	.type	_ZNSt12_Vector_baseIdSaIdEE19_M_get_Tp_allocatorEv, @function
_ZNSt12_Vector_baseIdSaIdEE19_M_get_Tp_allocatorEv:
.LFB3007:
	.loc 7 298 7
	.cfi_startproc
	pushq	%rbp	#
	.cfi_def_cfa_offset 16
	.cfi_offset 6, -16
	movq	%rsp, %rbp	#,
	.cfi_def_cfa_register 6
	movq	%rdi, -8(%rbp)	# this, this
# /usr/include/c++/12/bits/stl_vector.h:299:       { return this->_M_impl; }
	.loc 7 299 22
	movq	-8(%rbp), %rax	# this, _2
# /usr/include/c++/12/bits/stl_vector.h:299:       { return this->_M_impl; }
	.loc 7 299 31
	popq	%rbp	#
	.cfi_def_cfa 7, 8
	ret	
	.cfi_endproc
.LFE3007:
	.size	_ZNSt12_Vector_baseIdSaIdEE19_M_get_Tp_allocatorEv, .-_ZNSt12_Vector_baseIdSaIdEE19_M_get_Tp_allocatorEv
	.section	.text._ZSt8_DestroyIPddEvT_S1_RSaIT0_E,"axG",@progbits,_ZSt8_DestroyIPddEvT_S1_RSaIT0_E,comdat
	.weak	_ZSt8_DestroyIPddEvT_S1_RSaIT0_E
	.type	_ZSt8_DestroyIPddEvT_S1_RSaIT0_E, @function
_ZSt8_DestroyIPddEvT_S1_RSaIT0_E:
.LFB3008:
	.file 9 "/usr/include/c++/12/bits/alloc_traits.h"
	.loc 9 847 5
	.cfi_startproc
	pushq	%rbp	#
	.cfi_def_cfa_offset 16
	.cfi_offset 6, -16
	movq	%rsp, %rbp	#,
	.cfi_def_cfa_register 6
	subq	$32, %rsp	#,
	movq	%rdi, -8(%rbp)	# __first, __first
	movq	%rsi, -16(%rbp)	# __last, __last
	movq	%rdx, -24(%rbp)	# D.64093, D.64093
# /usr/include/c++/12/bits/alloc_traits.h:850:       _Destroy(__first, __last);
	.loc 9 850 15
	movq	-16(%rbp), %rdx	# __last, tmp82
	movq	-8(%rbp), %rax	# __first, tmp83
	movq	%rdx, %rsi	# tmp82,
	movq	%rax, %rdi	# tmp83,
	call	_ZSt8_DestroyIPdEvT_S1_	#
# /usr/include/c++/12/bits/alloc_traits.h:851:     }
	.loc 9 851 5
	nop	
	leave	
	.cfi_def_cfa 7, 8
	ret	
	.cfi_endproc
.LFE3008:
	.size	_ZSt8_DestroyIPddEvT_S1_RSaIT0_E, .-_ZSt8_DestroyIPddEvT_S1_RSaIT0_E
	.section	.text._ZNSt12_Vector_baseIlSaIlEED2Ev,"axG",@progbits,_ZNSt12_Vector_baseIlSaIlEED5Ev,comdat
	.align 2
	.weak	_ZNSt12_Vector_baseIlSaIlEED2Ev
	.type	_ZNSt12_Vector_baseIlSaIlEED2Ev, @function
_ZNSt12_Vector_baseIlSaIlEED2Ev:
.LFB3010:
	.loc 7 364 7
	.cfi_startproc
	.cfi_personality 0x9b,DW.ref.__gxx_personality_v0
	.cfi_lsda 0x1b,.LLSDA3010
	pushq	%rbp	#
	.cfi_def_cfa_offset 16
	.cfi_offset 6, -16
	movq	%rsp, %rbp	#,
	.cfi_def_cfa_register 6
	subq	$16, %rsp	#,
	movq	%rdi, -8(%rbp)	# this, this
.LBB26:
# /usr/include/c++/12/bits/stl_vector.h:367: 		      _M_impl._M_end_of_storage - _M_impl._M_start);
	.loc 7 367 17
	movq	-8(%rbp), %rax	# this, tmp89
	movq	16(%rax), %rdx	# this_9(D)->_M_impl.D.54123._M_end_of_storage, _1
# /usr/include/c++/12/bits/stl_vector.h:367: 		      _M_impl._M_end_of_storage - _M_impl._M_start);
	.loc 7 367 45
	movq	-8(%rbp), %rax	# this, tmp90
	movq	(%rax), %rax	# this_9(D)->_M_impl.D.54123._M_start, _2
# /usr/include/c++/12/bits/stl_vector.h:367: 		      _M_impl._M_end_of_storage - _M_impl._M_start);
	.loc 7 367 35
	subq	%rax, %rdx	# _2, _3
	movq	%rdx, %rax	# _3, _3
	sarq	$3, %rax	#, _3
# /usr/include/c++/12/bits/stl_vector.h:366: 	_M_deallocate(_M_impl._M_start,
	.loc 7 366 15
	movq	%rax, %rdx	# _4, _5
	movq	-8(%rbp), %rax	# this, tmp92
	movq	(%rax), %rcx	# this_9(D)->_M_impl.D.54123._M_start, _6
	movq	-8(%rbp), %rax	# this, tmp93
	movq	%rcx, %rsi	# _6,
	movq	%rax, %rdi	# tmp93,
	call	_ZNSt12_Vector_baseIlSaIlEE13_M_deallocateEPlm	#
# /usr/include/c++/12/bits/stl_vector.h:368:       }
	.loc 7 368 7
	movq	-8(%rbp), %rax	# this, _7
	movq	%rax, %rdi	# _7,
	call	_ZNSt12_Vector_baseIlSaIlEE12_Vector_implD1Ev	#
.LBE26:
	nop	
	leave	
	.cfi_def_cfa 7, 8
	ret	
	.cfi_endproc
.LFE3010:
	.section	.gcc_except_table
.LLSDA3010:
	.byte	0xff
	.byte	0xff
	.byte	0x1
	.uleb128 .LLSDACSE3010-.LLSDACSB3010
.LLSDACSB3010:
.LLSDACSE3010:
	.section	.text._ZNSt12_Vector_baseIlSaIlEED2Ev,"axG",@progbits,_ZNSt12_Vector_baseIlSaIlEED5Ev,comdat
	.size	_ZNSt12_Vector_baseIlSaIlEED2Ev, .-_ZNSt12_Vector_baseIlSaIlEED2Ev
	.weak	_ZNSt12_Vector_baseIlSaIlEED1Ev
	.set	_ZNSt12_Vector_baseIlSaIlEED1Ev,_ZNSt12_Vector_baseIlSaIlEED2Ev
	.section	.text._ZNSt12_Vector_baseIlSaIlEE19_M_get_Tp_allocatorEv,"axG",@progbits,_ZNSt12_Vector_baseIlSaIlEE19_M_get_Tp_allocatorEv,comdat
	.align 2
	.weak	_ZNSt12_Vector_baseIlSaIlEE19_M_get_Tp_allocatorEv
	.type	_ZNSt12_Vector_baseIlSaIlEE19_M_get_Tp_allocatorEv, @function
_ZNSt12_Vector_baseIlSaIlEE19_M_get_Tp_allocatorEv:
.LFB3012:
	.loc 7 298 7
	.cfi_startproc
	pushq	%rbp	#
	.cfi_def_cfa_offset 16
	.cfi_offset 6, -16
	movq	%rsp, %rbp	#,
	.cfi_def_cfa_register 6
	movq	%rdi, -8(%rbp)	# this, this
# /usr/include/c++/12/bits/stl_vector.h:299:       { return this->_M_impl; }
	.loc 7 299 22
	movq	-8(%rbp), %rax	# this, _2
# /usr/include/c++/12/bits/stl_vector.h:299:       { return this->_M_impl; }
	.loc 7 299 31
	popq	%rbp	#
	.cfi_def_cfa 7, 8
	ret	
	.cfi_endproc
.LFE3012:
	.size	_ZNSt12_Vector_baseIlSaIlEE19_M_get_Tp_allocatorEv, .-_ZNSt12_Vector_baseIlSaIlEE19_M_get_Tp_allocatorEv
	.section	.text._ZSt8_DestroyIPllEvT_S1_RSaIT0_E,"axG",@progbits,_ZSt8_DestroyIPllEvT_S1_RSaIT0_E,comdat
	.weak	_ZSt8_DestroyIPllEvT_S1_RSaIT0_E
	.type	_ZSt8_DestroyIPllEvT_S1_RSaIT0_E, @function
_ZSt8_DestroyIPllEvT_S1_RSaIT0_E:
.LFB3013:
	.loc 9 847 5
	.cfi_startproc
	pushq	%rbp	#
	.cfi_def_cfa_offset 16
	.cfi_offset 6, -16
	movq	%rsp, %rbp	#,
	.cfi_def_cfa_register 6
	subq	$32, %rsp	#,
	movq	%rdi, -8(%rbp)	# __first, __first
	movq	%rsi, -16(%rbp)	# __last, __last
	movq	%rdx, -24(%rbp)	# D.64108, D.64108
# /usr/include/c++/12/bits/alloc_traits.h:850:       _Destroy(__first, __last);
	.loc 9 850 15
	movq	-16(%rbp), %rdx	# __last, tmp82
	movq	-8(%rbp), %rax	# __first, tmp83
	movq	%rdx, %rsi	# tmp82,
	movq	%rax, %rdi	# tmp83,
	call	_ZSt8_DestroyIPlEvT_S1_	#
# /usr/include/c++/12/bits/alloc_traits.h:851:     }
	.loc 9 851 5
	nop	
	leave	
	.cfi_def_cfa 7, 8
	ret	
	.cfi_endproc
.LFE3013:
	.size	_ZSt8_DestroyIPllEvT_S1_RSaIT0_E, .-_ZSt8_DestroyIPllEvT_S1_RSaIT0_E
	.section	.text._ZNKSt6vectorIlSaIlEE4sizeEv,"axG",@progbits,_ZNKSt6vectorIlSaIlEE4sizeEv,comdat
	.align 2
	.weak	_ZNKSt6vectorIlSaIlEE4sizeEv
	.type	_ZNKSt6vectorIlSaIlEE4sizeEv, @function
_ZNKSt6vectorIlSaIlEE4sizeEv:
.LFB3014:
	.loc 7 987 7
	.cfi_startproc
	pushq	%rbp	#
	.cfi_def_cfa_offset 16
	.cfi_offset 6, -16
	movq	%rsp, %rbp	#,
	.cfi_def_cfa_register 6
	movq	%rdi, -8(%rbp)	# this, this
# /usr/include/c++/12/bits/stl_vector.h:988:       { return size_type(this->_M_impl._M_finish - this->_M_impl._M_start); }
	.loc 7 988 40
	movq	-8(%rbp), %rax	# this, tmp88
	movq	8(%rax), %rdx	# this_6(D)->D.54811._M_impl.D.54123._M_finish, _1
# /usr/include/c++/12/bits/stl_vector.h:988:       { return size_type(this->_M_impl._M_finish - this->_M_impl._M_start); }
	.loc 7 988 66
	movq	-8(%rbp), %rax	# this, tmp89
	movq	(%rax), %rax	# this_6(D)->D.54811._M_impl.D.54123._M_start, _2
# /usr/include/c++/12/bits/stl_vector.h:988:       { return size_type(this->_M_impl._M_finish - this->_M_impl._M_start); }
	.loc 7 988 50
	subq	%rax, %rdx	# _2, _3
	movq	%rdx, %rax	# _3, _3
	sarq	$3, %rax	#, _3
# /usr/include/c++/12/bits/stl_vector.h:988:       { return size_type(this->_M_impl._M_finish - this->_M_impl._M_start); }
	.loc 7 988 77
	popq	%rbp	#
	.cfi_def_cfa 7, 8
	ret	
	.cfi_endproc
.LFE3014:
	.size	_ZNKSt6vectorIlSaIlEE4sizeEv, .-_ZNKSt6vectorIlSaIlEE4sizeEv
	.section	.text._ZNK9container6tensorIdJLl2ELl3ELl5EEE5orderEv,"axG",@progbits,_ZNK9container6tensorIdJLl2ELl3ELl5EEE5orderEv,comdat
	.align 2
	.weak	_ZNK9container6tensorIdJLl2ELl3ELl5EEE5orderEv
	.type	_ZNK9container6tensorIdJLl2ELl3ELl5EEE5orderEv, @function
_ZNK9container6tensorIdJLl2ELl3ELl5EEE5orderEv:
.LFB3015:
	.loc 5 76 19
	.cfi_startproc
	pushq	%rbp	#
	.cfi_def_cfa_offset 16
	.cfi_offset 6, -16
	movq	%rsp, %rbp	#,
	.cfi_def_cfa_register 6
	subq	$16, %rsp	#,
	movq	%rdi, -8(%rbp)	# this, this
# src/Tensor/Tensor.hpp:78:             return this->_dims.size();
	.loc 5 78 36
	movq	-8(%rbp), %rax	# this, tmp86
	addq	$24, %rax	#, _1
	movq	%rax, %rdi	# _1,
	call	_ZNKSt6vectorIlSaIlEE4sizeEv	#
# src/Tensor/Tensor.hpp:79:         }
	.loc 5 79 9
	leave	
	.cfi_def_cfa 7, 8
	ret	
	.cfi_endproc
.LFE3015:
	.size	_ZNK9container6tensorIdJLl2ELl3ELl5EEE5orderEv, .-_ZNK9container6tensorIdJLl2ELl3ELl5EEE5orderEv
	.section	.text._ZNK9container6tensorIdJLl2ELl3ELl5EEE4sizeEv,"axG",@progbits,_ZNK9container6tensorIdJLl2ELl3ELl5EEE4sizeEv,comdat
	.align 2
	.weak	_ZNK9container6tensorIdJLl2ELl3ELl5EEE4sizeEv
	.type	_ZNK9container6tensorIdJLl2ELl3ELl5EEE4sizeEv, @function
_ZNK9container6tensorIdJLl2ELl3ELl5EEE4sizeEv:
.LFB3016:
	.loc 5 81 19
	.cfi_startproc
	pushq	%rbp	#
	.cfi_def_cfa_offset 16
	.cfi_offset 6, -16
	movq	%rsp, %rbp	#,
	.cfi_def_cfa_register 6
	subq	$16, %rsp	#,
	movq	%rdi, -8(%rbp)	# this, this
# src/Tensor/Tensor.hpp:83:             return this->_data.size();
	.loc 5 83 36
	movq	-8(%rbp), %rax	# this, _1
	movq	%rax, %rdi	# _1,
	call	_ZNKSt6vectorIdSaIdEE4sizeEv	#
# src/Tensor/Tensor.hpp:84:         }
	.loc 5 84 9
	leave	
	.cfi_def_cfa 7, 8
	ret	
	.cfi_endproc
.LFE3016:
	.size	_ZNK9container6tensorIdJLl2ELl3ELl5EEE4sizeEv, .-_ZNK9container6tensorIdJLl2ELl3ELl5EEE4sizeEv
	.section	.text._ZNSt6vectorIlSaIlEEixEm,"axG",@progbits,_ZNSt6vectorIlSaIlEEixEm,comdat
	.align 2
	.weak	_ZNSt6vectorIlSaIlEEixEm
	.type	_ZNSt6vectorIlSaIlEEixEm, @function
_ZNSt6vectorIlSaIlEEixEm:
.LFB3017:
	.loc 7 1121 7
	.cfi_startproc
	pushq	%rbp	#
	.cfi_def_cfa_offset 16
	.cfi_offset 6, -16
	movq	%rsp, %rbp	#,
	.cfi_def_cfa_register 6
	movq	%rdi, -8(%rbp)	# this, this
	movq	%rsi, -16(%rbp)	# __n, __n
# /usr/include/c++/12/bits/stl_vector.h:1124: 	return *(this->_M_impl._M_start + __n);
	.loc 7 1124 25
	movq	-8(%rbp), %rax	# this, tmp86
	movq	(%rax), %rax	# this_4(D)->D.54811._M_impl.D.54123._M_start, _1
# /usr/include/c++/12/bits/stl_vector.h:1124: 	return *(this->_M_impl._M_start + __n);
	.loc 7 1124 34
	movq	-16(%rbp), %rdx	# __n, tmp87
	salq	$3, %rdx	#, _2
# /usr/include/c++/12/bits/stl_vector.h:1124: 	return *(this->_M_impl._M_start + __n);
	.loc 7 1124 39
	addq	%rdx, %rax	# _2, _6
# /usr/include/c++/12/bits/stl_vector.h:1125:       }
	.loc 7 1125 7
	popq	%rbp	#
	.cfi_def_cfa 7, 8
	ret	
	.cfi_endproc
.LFE3017:
	.size	_ZNSt6vectorIlSaIlEEixEm, .-_ZNSt6vectorIlSaIlEEixEm
	.section	.text._ZNSt6vectorIdSaIdEEixEm,"axG",@progbits,_ZNSt6vectorIdSaIdEEixEm,comdat
	.align 2
	.weak	_ZNSt6vectorIdSaIdEEixEm
	.type	_ZNSt6vectorIdSaIdEEixEm, @function
_ZNSt6vectorIdSaIdEEixEm:
.LFB3018:
	.loc 7 1121 7
	.cfi_startproc
	pushq	%rbp	#
	.cfi_def_cfa_offset 16
	.cfi_offset 6, -16
	movq	%rsp, %rbp	#,
	.cfi_def_cfa_register 6
	movq	%rdi, -8(%rbp)	# this, this
	movq	%rsi, -16(%rbp)	# __n, __n
# /usr/include/c++/12/bits/stl_vector.h:1124: 	return *(this->_M_impl._M_start + __n);
	.loc 7 1124 25
	movq	-8(%rbp), %rax	# this, tmp86
	movq	(%rax), %rax	# this_4(D)->D.58694._M_impl.D.58033._M_start, _1
# /usr/include/c++/12/bits/stl_vector.h:1124: 	return *(this->_M_impl._M_start + __n);
	.loc 7 1124 34
	movq	-16(%rbp), %rdx	# __n, tmp87
	salq	$3, %rdx	#, _2
# /usr/include/c++/12/bits/stl_vector.h:1124: 	return *(this->_M_impl._M_start + __n);
	.loc 7 1124 39
	addq	%rdx, %rax	# _2, _6
# /usr/include/c++/12/bits/stl_vector.h:1125:       }
	.loc 7 1125 7
	popq	%rbp	#
	.cfi_def_cfa 7, 8
	ret	
	.cfi_endproc
.LFE3018:
	.size	_ZNSt6vectorIdSaIdEEixEm, .-_ZNSt6vectorIdSaIdEEixEm
	.section	.text._ZNSt12_Vector_baseIlSaIlEE12_Vector_implC2Ev,"axG",@progbits,_ZNSt12_Vector_baseIlSaIlEE12_Vector_implC5Ev,comdat
	.align 2
	.weak	_ZNSt12_Vector_baseIlSaIlEE12_Vector_implC2Ev
	.type	_ZNSt12_Vector_baseIlSaIlEE12_Vector_implC2Ev, @function
_ZNSt12_Vector_baseIlSaIlEE12_Vector_implC2Ev:
.LFB3020:
	.loc 7 137 2
	.cfi_startproc
	pushq	%rbp	#
	.cfi_def_cfa_offset 16
	.cfi_offset 6, -16
	movq	%rsp, %rbp	#,
	.cfi_def_cfa_register 6
	subq	$16, %rsp	#,
	movq	%rdi, -8(%rbp)	# this, this
.LBB27:
# /usr/include/c++/12/bits/stl_vector.h:139: 	: _Tp_alloc_type()
	.loc 7 139 19
	movq	-8(%rbp), %rax	# this, tmp83
	movq	%rax, %rdi	# tmp83,
	call	_ZNSaIlEC2Ev	#
	movq	-8(%rbp), %rax	# this, _1
	movq	%rax, %rdi	# _1,
	call	_ZNSt12_Vector_baseIlSaIlEE17_Vector_impl_dataC2Ev	#
.LBE27:
# /usr/include/c++/12/bits/stl_vector.h:140: 	{ }
	.loc 7 140 4
	nop	
	leave	
	.cfi_def_cfa 7, 8
	ret	
	.cfi_endproc
.LFE3020:
	.size	_ZNSt12_Vector_baseIlSaIlEE12_Vector_implC2Ev, .-_ZNSt12_Vector_baseIlSaIlEE12_Vector_implC2Ev
	.weak	_ZNSt12_Vector_baseIlSaIlEE12_Vector_implC1Ev
	.set	_ZNSt12_Vector_baseIlSaIlEE12_Vector_implC1Ev,_ZNSt12_Vector_baseIlSaIlEE12_Vector_implC2Ev
	.section	.text._ZNSt12_Vector_baseIlSaIlEEC2EOS1_,"axG",@progbits,_ZNSt12_Vector_baseIlSaIlEEC5EOS1_,comdat
	.align 2
	.weak	_ZNSt12_Vector_baseIlSaIlEEC2EOS1_
	.type	_ZNSt12_Vector_baseIlSaIlEEC2EOS1_, @function
_ZNSt12_Vector_baseIlSaIlEEC2EOS1_:
.LFB3025:
	.loc 7 335 7
	.cfi_startproc
	pushq	%rbp	#
	.cfi_def_cfa_offset 16
	.cfi_offset 6, -16
	movq	%rsp, %rbp	#,
	.cfi_def_cfa_register 6
	subq	$16, %rsp	#,
	movq	%rdi, -8(%rbp)	# this, this
	movq	%rsi, -16(%rbp)	# D.54205, D.54205
.LBB28:
# /usr/include/c++/12/bits/stl_vector.h:335:       _Vector_base(_Vector_base&&) = default;
	.loc 7 335 7
	movq	-8(%rbp), %rax	# this, _1
	movq	-16(%rbp), %rdx	# D.54205, _2
	movq	%rdx, %rsi	# _2,
	movq	%rax, %rdi	# _1,
	call	_ZNSt12_Vector_baseIlSaIlEE12_Vector_implC1EOS2_	#
.LBE28:
	nop	
	leave	
	.cfi_def_cfa 7, 8
	ret	
	.cfi_endproc
.LFE3025:
	.size	_ZNSt12_Vector_baseIlSaIlEEC2EOS1_, .-_ZNSt12_Vector_baseIlSaIlEEC2EOS1_
	.weak	_ZNSt12_Vector_baseIlSaIlEEC1EOS1_
	.set	_ZNSt12_Vector_baseIlSaIlEEC1EOS1_,_ZNSt12_Vector_baseIlSaIlEEC2EOS1_
	.section	.text._ZNSt6vectorIlSaIlEEC2EOS1_,"axG",@progbits,_ZNSt6vectorIlSaIlEEC5EOS1_,comdat
	.align 2
	.weak	_ZNSt6vectorIlSaIlEEC2EOS1_
	.type	_ZNSt6vectorIlSaIlEEC2EOS1_, @function
_ZNSt6vectorIlSaIlEEC2EOS1_:
.LFB3027:
	.loc 7 615 7
	.cfi_startproc
	pushq	%rbp	#
	.cfi_def_cfa_offset 16
	.cfi_offset 6, -16
	movq	%rsp, %rbp	#,
	.cfi_def_cfa_register 6
	subq	$16, %rsp	#,
	movq	%rdi, -8(%rbp)	# this, this
	movq	%rsi, -16(%rbp)	# D.54770, D.54770
.LBB29:
# /usr/include/c++/12/bits/stl_vector.h:615:       vector(vector&&) noexcept = default;
	.loc 7 615 7
	movq	-8(%rbp), %rax	# this, _1
	movq	-16(%rbp), %rdx	# D.54770, _2
	movq	%rdx, %rsi	# _2,
	movq	%rax, %rdi	# _1,
	call	_ZNSt12_Vector_baseIlSaIlEEC2EOS1_	#
.LBE29:
	nop	
	leave	
	.cfi_def_cfa 7, 8
	ret	
	.cfi_endproc
.LFE3027:
	.size	_ZNSt6vectorIlSaIlEEC2EOS1_, .-_ZNSt6vectorIlSaIlEEC2EOS1_
	.weak	_ZNSt6vectorIlSaIlEEC1EOS1_
	.set	_ZNSt6vectorIlSaIlEEC1EOS1_,_ZNSt6vectorIlSaIlEEC2EOS1_
	.section	.text._ZNK9container6tensorIdJLl2ELl3ELl5EEE5beginEv,"axG",@progbits,_ZNK9container6tensorIdJLl2ELl3ELl5EEE5beginEv,comdat
	.align 2
	.weak	_ZNK9container6tensorIdJLl2ELl3ELl5EEE5beginEv
	.type	_ZNK9container6tensorIdJLl2ELl3ELl5EEE5beginEv, @function
_ZNK9container6tensorIdJLl2ELl3ELl5EEE5beginEv:
.LFB3032:
	.loc 5 96 14
	.cfi_startproc
	pushq	%rbp	#
	.cfi_def_cfa_offset 16
	.cfi_offset 6, -16
	movq	%rsp, %rbp	#,
	.cfi_def_cfa_register 6
	subq	$16, %rsp	#,
	movq	%rdi, -8(%rbp)	# this, this
# src/Tensor/Tensor.hpp:98:             return this->_data.begin();
	.loc 5 98 37
	movq	-8(%rbp), %rax	# this, _1
	movq	%rax, %rdi	# _1,
	call	_ZNKSt6vectorIdSaIdEE5beginEv	#
# src/Tensor/Tensor.hpp:99:         }
	.loc 5 99 9
	leave	
	.cfi_def_cfa 7, 8
	ret	
	.cfi_endproc
.LFE3032:
	.size	_ZNK9container6tensorIdJLl2ELl3ELl5EEE5beginEv, .-_ZNK9container6tensorIdJLl2ELl3ELl5EEE5beginEv
	.section	.text._ZNK9container6tensorIdJLl2ELl3ELl5EEE3endEv,"axG",@progbits,_ZNK9container6tensorIdJLl2ELl3ELl5EEE3endEv,comdat
	.align 2
	.weak	_ZNK9container6tensorIdJLl2ELl3ELl5EEE3endEv
	.type	_ZNK9container6tensorIdJLl2ELl3ELl5EEE3endEv, @function
_ZNK9container6tensorIdJLl2ELl3ELl5EEE3endEv:
.LFB3033:
	.loc 5 101 14
	.cfi_startproc
	pushq	%rbp	#
	.cfi_def_cfa_offset 16
	.cfi_offset 6, -16
	movq	%rsp, %rbp	#,
	.cfi_def_cfa_register 6
	subq	$16, %rsp	#,
	movq	%rdi, -8(%rbp)	# this, this
# src/Tensor/Tensor.hpp:103:             return this->_data.end();
	.loc 5 103 35
	movq	-8(%rbp), %rax	# this, _1
	movq	%rax, %rdi	# _1,
	call	_ZNKSt6vectorIdSaIdEE3endEv	#
# src/Tensor/Tensor.hpp:104:         }
	.loc 5 104 9
	leave	
	.cfi_def_cfa 7, 8
	ret	
	.cfi_endproc
.LFE3033:
	.size	_ZNK9container6tensorIdJLl2ELl3ELl5EEE3endEv, .-_ZNK9container6tensorIdJLl2ELl3ELl5EEE3endEv
	.section	.text._ZN9container6tensorIdJEE26_diff_type_copy_initializeIJLl2ELl3ELl5EEEEvRKNS0_IdJXspT_EEEE,"axG",@progbits,_ZN9container6tensorIdJEE26_diff_type_copy_initializeIJLl2ELl3ELl5EEEEvRKNS0_IdJXspT_EEEE,comdat
	.align 2
	.weak	_ZN9container6tensorIdJEE26_diff_type_copy_initializeIJLl2ELl3ELl5EEEEvRKNS0_IdJXspT_EEEE
	.type	_ZN9container6tensorIdJEE26_diff_type_copy_initializeIJLl2ELl3ELl5EEEEvRKNS0_IdJXspT_EEEE, @function
_ZN9container6tensorIdJEE26_diff_type_copy_initializeIJLl2ELl3ELl5EEEEvRKNS0_IdJXspT_EEEE:
.LFB3022:
	.loc 5 145 14
	.cfi_startproc
	.cfi_personality 0x9b,DW.ref.__gxx_personality_v0
	.cfi_lsda 0x1b,.LLSDA3022
	pushq	%rbp	#
	.cfi_def_cfa_offset 16
	.cfi_offset 6, -16
	movq	%rsp, %rbp	#,
	.cfi_def_cfa_register 6
	pushq	%r12	#
	pushq	%rbx	#
	subq	$80, %rsp	#,
	.cfi_offset 12, -24
	.cfi_offset 3, -32
	movq	%rdi, -88(%rbp)	# this, this
	movq	%rsi, -96(%rbp)	# rhs_tensor, rhs_tensor
# src/Tensor/Tensor.hpp:147:             auto rhs_dim_vector = std::move(rhs_tensor.shape());
	.loc 5 147 44
	leaq	-48(%rbp), %rax	#, tmp94
	movq	-96(%rbp), %rdx	# rhs_tensor, tmp95
	movq	%rdx, %rsi	# tmp95,
	movq	%rax, %rdi	# tmp94,
	call	_ZNK9container6tensorIdJLl2ELl3ELl5EEE5shapeEv	#
	leaq	-48(%rbp), %rax	#, tmp96
	movq	%rax, %rdi	# tmp96,
	call	_ZSt4moveISt6vectorIlSaIlEEEONSt16remove_referenceIT_E4typeEOS4_	#
	movq	%rax, %rdx	#, _1
# src/Tensor/Tensor.hpp:147:             auto rhs_dim_vector = std::move(rhs_tensor.shape());
	.loc 5 147 18
	leaq	-80(%rbp), %rax	#, tmp97
	movq	%rdx, %rsi	# _1,
	movq	%rax, %rdi	# tmp97,
	call	_ZNSt6vectorIlSaIlEEC1EOS1_	#
# src/Tensor/Tensor.hpp:147:             auto rhs_dim_vector = std::move(rhs_tensor.shape());
	.loc 5 147 44
	leaq	-48(%rbp), %rax	#, tmp98
	movq	%rax, %rdi	# tmp98,
	call	_ZNSt6vectorIlSaIlEED1Ev	#
# src/Tensor/Tensor.hpp:153:             this->_dims = std::move(rhs_dim_vector);
	.loc 5 153 36
	leaq	-80(%rbp), %rax	#, tmp99
	movq	%rax, %rdi	# tmp99,
	call	_ZSt4moveIRSt6vectorIlSaIlEEEONSt16remove_referenceIT_E4typeEOS5_	#
	movq	%rax, %rdx	#, _2
# src/Tensor/Tensor.hpp:153:             this->_dims = std::move(rhs_dim_vector);
	.loc 5 153 25
	movq	-88(%rbp), %rax	# this, tmp100
	addq	$24, %rax	#, _3
	movq	%rdx, %rsi	# _2,
	movq	%rax, %rdi	# _3,
	call	_ZNSt6vectorIlSaIlEEaSEOS1_	#
# src/Tensor/Tensor.hpp:154:             this->_data.resize(rhs_tensor.size());
	.loc 5 154 31
	movq	-88(%rbp), %rbx	# this, _4
# src/Tensor/Tensor.hpp:154:             this->_data.resize(rhs_tensor.size());
	.loc 5 154 47
	movq	-96(%rbp), %rax	# rhs_tensor, tmp101
	movq	%rax, %rdi	# tmp101,
	call	_ZNK9container6tensorIdJLl2ELl3ELl5EEE4sizeEv	#
# src/Tensor/Tensor.hpp:154:             this->_data.resize(rhs_tensor.size());
	.loc 5 154 31
	movq	%rax, %rsi	# _6,
	movq	%rbx, %rdi	# _4,
.LEHB23:
	call	_ZNSt6vectorIdSaIdEE6resizeEm	#
# src/Tensor/Tensor.hpp:155:             std::copy(rhs_tensor.begin(), rhs_tensor.end(), this->_data.begin());
	.loc 5 155 22
	movq	-88(%rbp), %rax	# this, _7
	movq	%rax, %rdi	# _7,
	call	_ZNSt6vectorIdSaIdEE5beginEv	#
	movq	%rax, %r12	#, D.68205
	movq	-96(%rbp), %rax	# rhs_tensor, tmp102
	movq	%rax, %rdi	# tmp102,
	call	_ZNK9container6tensorIdJLl2ELl3ELl5EEE3endEv	#
	movq	%rax, %rbx	#, D.68206
	movq	-96(%rbp), %rax	# rhs_tensor, tmp103
	movq	%rax, %rdi	# tmp103,
	call	_ZNK9container6tensorIdJLl2ELl3ELl5EEE5beginEv	#
	movq	%r12, %rdx	# D.68205,
	movq	%rbx, %rsi	# D.68206,
	movq	%rax, %rdi	# D.68207,
	call	_ZSt4copyIN9__gnu_cxx17__normal_iteratorIPKdSt6vectorIdSaIdEEEENS1_IPdS6_EEET0_T_SB_SA_	#
.LEHE23:
# src/Tensor/Tensor.hpp:156:         }
	.loc 5 156 9
	leaq	-80(%rbp), %rax	#, tmp104
	movq	%rax, %rdi	# tmp104,
	call	_ZNSt6vectorIlSaIlEED1Ev	#
	jmp	.L112	#
.L111:
	movq	%rax, %rbx	#, tmp106
	leaq	-80(%rbp), %rax	#, tmp105
	movq	%rax, %rdi	# tmp105,
	call	_ZNSt6vectorIlSaIlEED1Ev	#
	movq	%rbx, %rax	# tmp106, D.68837
	movq	%rax, %rdi	# D.68837,
.LEHB24:
	call	_Unwind_Resume@PLT	#
.LEHE24:
.L112:
	addq	$80, %rsp	#,
	popq	%rbx	#
	popq	%r12	#
	popq	%rbp	#
	.cfi_def_cfa 7, 8
	ret	
	.cfi_endproc
.LFE3022:
	.section	.gcc_except_table
.LLSDA3022:
	.byte	0xff
	.byte	0xff
	.byte	0x1
	.uleb128 .LLSDACSE3022-.LLSDACSB3022
.LLSDACSB3022:
	.uleb128 .LEHB23-.LFB3022
	.uleb128 .LEHE23-.LEHB23
	.uleb128 .L111-.LFB3022
	.uleb128 0
	.uleb128 .LEHB24-.LFB3022
	.uleb128 .LEHE24-.LEHB24
	.uleb128 0
	.uleb128 0
.LLSDACSE3022:
	.section	.text._ZN9container6tensorIdJEE26_diff_type_copy_initializeIJLl2ELl3ELl5EEEEvRKNS0_IdJXspT_EEEE,"axG",@progbits,_ZN9container6tensorIdJEE26_diff_type_copy_initializeIJLl2ELl3ELl5EEEEvRKNS0_IdJXspT_EEEE,comdat
	.size	_ZN9container6tensorIdJEE26_diff_type_copy_initializeIJLl2ELl3ELl5EEEEvRKNS0_IdJXspT_EEEE, .-_ZN9container6tensorIdJEE26_diff_type_copy_initializeIJLl2ELl3ELl5EEEEvRKNS0_IdJXspT_EEEE
	.section	.text._ZZN9container6tensorIdJLl2ELl3ELl55EEE11_initializeEvENKUliE_clEi,"axG",@progbits,_ZZN9container6tensorIdJLl2ELl3ELl55EEE11_initializeEvENKUliE_clEi,comdat
	.align 2
	.weak	_ZZN9container6tensorIdJLl2ELl3ELl55EEE11_initializeEvENKUliE_clEi
	.type	_ZZN9container6tensorIdJLl2ELl3ELl55EEE11_initializeEvENKUliE_clEi, @function
_ZZN9container6tensorIdJLl2ELl3ELl55EEE11_initializeEvENKUliE_clEi:
.LFB3035:
	.loc 5 137 67
	.cfi_startproc
	.cfi_personality 0x9b,DW.ref.__gxx_personality_v0
	.cfi_lsda 0x1b,.LLSDA3035
	pushq	%rbp	#
	.cfi_def_cfa_offset 16
	.cfi_offset 6, -16
	movq	%rsp, %rbp	#,
	.cfi_def_cfa_register 6
	pushq	%r12	#
	pushq	%rbx	#
	subq	$16, %rsp	#,
	.cfi_offset 12, -24
	.cfi_offset 3, -32
	movq	%rdi, -24(%rbp)	# __closure, __closure
	movl	%esi, -28(%rbp)	# size, size
# src/Tensor/Tensor.hpp:138:                           { if (size <= 0)
	.loc 5 138 29
	cmpl	$0, -28(%rbp)	#, size
	jg	.L114	#,
# src/Tensor/Tensor.hpp:139:                                     throw std::runtime_error("dim <= 0");
	.loc 5 139 37
	movl	$16, %edi	#,
	call	__cxa_allocate_exception@PLT	#
	movq	%rax, %rbx	# tmp89, _11
	leaq	.LC3(%rip), %rax	#, tmp90
	movq	%rax, %rsi	# tmp90,
	movq	%rbx, %rdi	# _11,
.LEHB25:
	call	_ZNSt13runtime_errorC1EPKc@PLT	#
.LEHE25:
# src/Tensor/Tensor.hpp:139:                                     throw std::runtime_error("dim <= 0");
	.loc 5 139 37 is_stmt 0 discriminator 2
	movq	_ZNSt13runtime_errorD1Ev@GOTPCREL(%rip), %rax	#, tmp92
	movq	%rax, %rdx	# tmp91,
	leaq	_ZTISt13runtime_error(%rip), %rax	#, tmp93
	movq	%rax, %rsi	# tmp93,
	movq	%rbx, %rdi	# _11,
.LEHB26:
	call	__cxa_throw@PLT	#
.L114:
# src/Tensor/Tensor.hpp:137:             std::for_each(this->_dims.begin(), this->_dims.end(), [&](int size)
	.loc 5 137 67 is_stmt 1
	movq	-24(%rbp), %rax	# __closure, tmp94
	movq	(%rax), %rax	# __closure_8(D)->__size_1d, _1
# src/Tensor/Tensor.hpp:140:                                 size_1d *= size; });          // exception: dim <= 0
	.loc 5 140 41
	movq	(%rax), %rcx	# *_1, _2
# src/Tensor/Tensor.hpp:140:                                 size_1d *= size; });          // exception: dim <= 0
	.loc 5 140 44
	movl	-28(%rbp), %eax	# size, tmp95
	movslq	%eax, %rdx	# tmp95, _3
# src/Tensor/Tensor.hpp:137:             std::for_each(this->_dims.begin(), this->_dims.end(), [&](int size)
	.loc 5 137 67
	movq	-24(%rbp), %rax	# __closure, tmp96
	movq	(%rax), %rax	# __closure_8(D)->__size_1d, _4
# src/Tensor/Tensor.hpp:140:                                 size_1d *= size; });          // exception: dim <= 0
	.loc 5 140 41
	imulq	%rcx, %rdx	# _2, _5
	movq	%rdx, (%rax)	# _5, *_4
# src/Tensor/Tensor.hpp:137:             std::for_each(this->_dims.begin(), this->_dims.end(), [&](int size)
	.loc 5 137 67
	jmp	.L117	#
.L116:
# src/Tensor/Tensor.hpp:139:                                     throw std::runtime_error("dim <= 0");
	.loc 5 139 37
	movq	%rax, %r12	#, tmp97
	movq	%rbx, %rdi	# _11,
	call	__cxa_free_exception@PLT	#
	movq	%r12, %rax	# tmp97, D.68839
	movq	%rax, %rdi	# D.68839,
	call	_Unwind_Resume@PLT	#
.LEHE26:
.L117:
# src/Tensor/Tensor.hpp:137:             std::for_each(this->_dims.begin(), this->_dims.end(), [&](int size)
	.loc 5 137 67
	addq	$16, %rsp	#,
	popq	%rbx	#
	popq	%r12	#
	popq	%rbp	#
	.cfi_def_cfa 7, 8
	ret	
	.cfi_endproc
.LFE3035:
	.section	.gcc_except_table
.LLSDA3035:
	.byte	0xff
	.byte	0xff
	.byte	0x1
	.uleb128 .LLSDACSE3035-.LLSDACSB3035
.LLSDACSB3035:
	.uleb128 .LEHB25-.LFB3035
	.uleb128 .LEHE25-.LEHB25
	.uleb128 .L116-.LFB3035
	.uleb128 0
	.uleb128 .LEHB26-.LFB3035
	.uleb128 .LEHE26-.LEHB26
	.uleb128 0
	.uleb128 0
.LLSDACSE3035:
	.section	.text._ZZN9container6tensorIdJLl2ELl3ELl55EEE11_initializeEvENKUliE_clEi,"axG",@progbits,_ZZN9container6tensorIdJLl2ELl3ELl55EEE11_initializeEvENKUliE_clEi,comdat
	.size	_ZZN9container6tensorIdJLl2ELl3ELl55EEE11_initializeEvENKUliE_clEi, .-_ZZN9container6tensorIdJLl2ELl3ELl55EEE11_initializeEvENKUliE_clEi
	.section	.text._ZN9container6tensorIdJLl2ELl3ELl55EEE11_initializeEv,"axG",@progbits,_ZN9container6tensorIdJLl2ELl3ELl55EEE11_initializeEv,comdat
	.align 2
	.weak	_ZN9container6tensorIdJLl2ELl3ELl55EEE11_initializeEv
	.type	_ZN9container6tensorIdJLl2ELl3ELl55EEE11_initializeEv, @function
_ZN9container6tensorIdJLl2ELl3ELl55EEE11_initializeEv:
.LFB3034:
	.loc 5 134 14
	.cfi_startproc
	pushq	%rbp	#
	.cfi_def_cfa_offset 16
	.cfi_offset 6, -16
	movq	%rsp, %rbp	#,
	.cfi_def_cfa_register 6
	pushq	%r12	#
	pushq	%rbx	#
	subq	$32, %rsp	#,
	.cfi_offset 12, -24
	.cfi_offset 3, -32
	movq	%rdi, -40(%rbp)	# this, this
# src/Tensor/Tensor.hpp:136:             size_type size_1d = 1;
	.loc 5 136 23
	movq	$1, -24(%rbp)	#, size_1d
# src/Tensor/Tensor.hpp:137:             std::for_each(this->_dims.begin(), this->_dims.end(), [&](int size)
	.loc 5 137 26
	leaq	-24(%rbp), %rax	#, tmp91
	movq	%rax, %r12	# tmp91, D.68319
	movq	-40(%rbp), %rax	# this, tmp92
	addq	$24, %rax	#, _1
	movq	%rax, %rdi	# _1,
	call	_ZNSt6vectorIlSaIlEE3endEv	#
	movq	%rax, %rbx	#, D.68320
	movq	-40(%rbp), %rax	# this, tmp93
	addq	$24, %rax	#, _2
	movq	%rax, %rdi	# _2,
	call	_ZNSt6vectorIlSaIlEE5beginEv	#
	movq	%r12, %rdx	# D.68319,
	movq	%rbx, %rsi	# D.68320,
	movq	%rax, %rdi	# D.68321,
	call	_ZSt8for_eachIN9__gnu_cxx17__normal_iteratorIPlSt6vectorIlSaIlEEEEZN9container6tensorIdJLl2ELl3ELl55EEE11_initializeEvEUliE_ET0_T_SC_SB_	#
# src/Tensor/Tensor.hpp:141:             this->_data.resize(size_1d); // exception: bad_alloc
	.loc 5 141 31
	movq	-40(%rbp), %rax	# this, _3
	movq	-24(%rbp), %rdx	# size_1d, size_1d.32_4
	movq	%rdx, %rsi	# size_1d.33_5,
	movq	%rax, %rdi	# _3,
	call	_ZNSt6vectorIdSaIdEE6resizeEm	#
# src/Tensor/Tensor.hpp:142:         }
	.loc 5 142 9
	nop	
	addq	$32, %rsp	#,
	popq	%rbx	#
	popq	%r12	#
	popq	%rbp	#
	.cfi_def_cfa 7, 8
	ret	
	.cfi_endproc
.LFE3034:
	.size	_ZN9container6tensorIdJLl2ELl3ELl55EEE11_initializeEv, .-_ZN9container6tensorIdJLl2ELl3ELl55EEE11_initializeEv
	.section	.text._ZNK9container6tensorIdJLl2ELl3ELl55EEE5beginEv,"axG",@progbits,_ZNK9container6tensorIdJLl2ELl3ELl55EEE5beginEv,comdat
	.align 2
	.weak	_ZNK9container6tensorIdJLl2ELl3ELl55EEE5beginEv
	.type	_ZNK9container6tensorIdJLl2ELl3ELl55EEE5beginEv, @function
_ZNK9container6tensorIdJLl2ELl3ELl55EEE5beginEv:
.LFB3037:
	.loc 5 96 14
	.cfi_startproc
	pushq	%rbp	#
	.cfi_def_cfa_offset 16
	.cfi_offset 6, -16
	movq	%rsp, %rbp	#,
	.cfi_def_cfa_register 6
	subq	$16, %rsp	#,
	movq	%rdi, -8(%rbp)	# this, this
# src/Tensor/Tensor.hpp:98:             return this->_data.begin();
	.loc 5 98 37
	movq	-8(%rbp), %rax	# this, _1
	movq	%rax, %rdi	# _1,
	call	_ZNKSt6vectorIdSaIdEE5beginEv	#
# src/Tensor/Tensor.hpp:99:         }
	.loc 5 99 9
	leave	
	.cfi_def_cfa 7, 8
	ret	
	.cfi_endproc
.LFE3037:
	.size	_ZNK9container6tensorIdJLl2ELl3ELl55EEE5beginEv, .-_ZNK9container6tensorIdJLl2ELl3ELl55EEE5beginEv
	.section	.text._ZNK9container6tensorIdJLl2ELl3ELl55EEE3endEv,"axG",@progbits,_ZNK9container6tensorIdJLl2ELl3ELl55EEE3endEv,comdat
	.align 2
	.weak	_ZNK9container6tensorIdJLl2ELl3ELl55EEE3endEv
	.type	_ZNK9container6tensorIdJLl2ELl3ELl55EEE3endEv, @function
_ZNK9container6tensorIdJLl2ELl3ELl55EEE3endEv:
.LFB3038:
	.loc 5 101 14
	.cfi_startproc
	pushq	%rbp	#
	.cfi_def_cfa_offset 16
	.cfi_offset 6, -16
	movq	%rsp, %rbp	#,
	.cfi_def_cfa_register 6
	subq	$16, %rsp	#,
	movq	%rdi, -8(%rbp)	# this, this
# src/Tensor/Tensor.hpp:103:             return this->_data.end();
	.loc 5 103 35
	movq	-8(%rbp), %rax	# this, _1
	movq	%rax, %rdi	# _1,
	call	_ZNKSt6vectorIdSaIdEE3endEv	#
# src/Tensor/Tensor.hpp:104:         }
	.loc 5 104 9
	leave	
	.cfi_def_cfa 7, 8
	ret	
	.cfi_endproc
.LFE3038:
	.size	_ZNK9container6tensorIdJLl2ELl3ELl55EEE3endEv, .-_ZNK9container6tensorIdJLl2ELl3ELl55EEE3endEv
	.section	.text._ZN9container6tensorIdJEE22_diff_type_copy_assginIJLl2ELl3ELl55EEEEvRKNS0_IdJXspT_EEEE,"axG",@progbits,_ZN9container6tensorIdJEE22_diff_type_copy_assginIJLl2ELl3ELl55EEEEvRKNS0_IdJXspT_EEEE,comdat
	.align 2
	.weak	_ZN9container6tensorIdJEE22_diff_type_copy_assginIJLl2ELl3ELl55EEEEvRKNS0_IdJXspT_EEEE
	.type	_ZN9container6tensorIdJEE22_diff_type_copy_assginIJLl2ELl3ELl55EEEEvRKNS0_IdJXspT_EEEE, @function
_ZN9container6tensorIdJEE22_diff_type_copy_assginIJLl2ELl3ELl55EEEEvRKNS0_IdJXspT_EEEE:
.LFB3036:
	.loc 5 173 14
	.cfi_startproc
	.cfi_personality 0x9b,DW.ref.__gxx_personality_v0
	.cfi_lsda 0x1b,.LLSDA3036
	pushq	%rbp	#
	.cfi_def_cfa_offset 16
	.cfi_offset 6, -16
	movq	%rsp, %rbp	#,
	.cfi_def_cfa_register 6
	pushq	%r13	#
	pushq	%r12	#
	pushq	%rbx	#
	subq	$88, %rsp	#,
	.cfi_offset 13, -24
	.cfi_offset 12, -32
	.cfi_offset 3, -40
	movq	%rdi, -104(%rbp)	# this, this
	movq	%rsi, -112(%rbp)	# rhs_tensor, rhs_tensor
# src/Tensor/Tensor.hpp:175:             auto rhs_dim_vector = std::move(rhs_tensor.shape());
	.loc 5 175 44
	leaq	-64(%rbp), %rax	#, tmp102
	movq	-112(%rbp), %rdx	# rhs_tensor, tmp103
	movq	%rdx, %rsi	# tmp103,
	movq	%rax, %rdi	# tmp102,
	call	_ZNK9container6tensorIdJLl2ELl3ELl55EEE5shapeEv	#
	leaq	-64(%rbp), %rax	#, tmp104
	movq	%rax, %rdi	# tmp104,
	call	_ZSt4moveISt6vectorIlSaIlEEEONSt16remove_referenceIT_E4typeEOS4_	#
	movq	%rax, %rdx	#, _1
# src/Tensor/Tensor.hpp:175:             auto rhs_dim_vector = std::move(rhs_tensor.shape());
	.loc 5 175 18
	leaq	-96(%rbp), %rax	#, tmp105
	movq	%rdx, %rsi	# _1,
	movq	%rax, %rdi	# tmp105,
	call	_ZNSt6vectorIlSaIlEEC1EOS1_	#
# src/Tensor/Tensor.hpp:175:             auto rhs_dim_vector = std::move(rhs_tensor.shape());
	.loc 5 175 44
	leaq	-64(%rbp), %rax	#, tmp106
	movq	%rax, %rdi	# tmp106,
	call	_ZNSt6vectorIlSaIlEED1Ev	#
# src/Tensor/Tensor.hpp:176:             if (!std::equal(rhs_dim_vector.begin(), rhs_dim_vector.end(),
	.loc 5 176 28
	movq	-104(%rbp), %rax	# this, tmp107
	addq	$24, %rax	#, _2
	movq	%rax, %rdi	# _2,
	call	_ZNSt6vectorIlSaIlEE3endEv	#
	movq	%rax, %r13	#, D.68332
	movq	-104(%rbp), %rax	# this, tmp108
	addq	$24, %rax	#, _3
	movq	%rax, %rdi	# _3,
	call	_ZNSt6vectorIlSaIlEE5beginEv	#
	movq	%rax, %r12	#, D.68333
	leaq	-96(%rbp), %rax	#, tmp109
	movq	%rax, %rdi	# tmp109,
	call	_ZNSt6vectorIlSaIlEE3endEv	#
	movq	%rax, %rbx	#, D.68334
	leaq	-96(%rbp), %rax	#, tmp110
	movq	%rax, %rdi	# tmp110,
	call	_ZNSt6vectorIlSaIlEE5beginEv	#
	movq	%r13, %rcx	# D.68332,
	movq	%r12, %rdx	# D.68333,
	movq	%rbx, %rsi	# D.68334,
	movq	%rax, %rdi	# D.68335,
.LEHB27:
	call	_ZSt5equalIN9__gnu_cxx17__normal_iteratorIPlSt6vectorIlSaIlEEEES6_EbT_S7_T0_S8_	#
	xorl	$1, %eax	#, retval.35_27
# src/Tensor/Tensor.hpp:176:             if (!std::equal(rhs_dim_vector.begin(), rhs_dim_vector.end(),
	.loc 5 176 13
	testb	%al, %al	# retval.35_27
	je	.L124	#,
# src/Tensor/Tensor.hpp:181:                 this->_data.resize(rhs_tensor.size());
	.loc 5 181 35
	movq	-104(%rbp), %rbx	# this, _5
# src/Tensor/Tensor.hpp:181:                 this->_data.resize(rhs_tensor.size());
	.loc 5 181 51
	movq	-112(%rbp), %rax	# rhs_tensor, tmp111
	movq	%rax, %rdi	# tmp111,
	call	_ZNK9container6tensorIdJLl2ELl3ELl55EEE4sizeEv	#
# src/Tensor/Tensor.hpp:181:                 this->_data.resize(rhs_tensor.size());
	.loc 5 181 35
	movq	%rax, %rsi	# _7,
	movq	%rbx, %rdi	# _5,
	call	_ZNSt6vectorIdSaIdEE6resizeEm	#
.L124:
# src/Tensor/Tensor.hpp:184:             this->_dims = std::move(rhs_dim_vector);
	.loc 5 184 36
	leaq	-96(%rbp), %rax	#, tmp112
	movq	%rax, %rdi	# tmp112,
	call	_ZSt4moveIRSt6vectorIlSaIlEEEONSt16remove_referenceIT_E4typeEOS5_	#
	movq	%rax, %rdx	#, _8
# src/Tensor/Tensor.hpp:184:             this->_dims = std::move(rhs_dim_vector);
	.loc 5 184 25
	movq	-104(%rbp), %rax	# this, tmp113
	addq	$24, %rax	#, _9
	movq	%rdx, %rsi	# _8,
	movq	%rax, %rdi	# _9,
	call	_ZNSt6vectorIlSaIlEEaSEOS1_	#
# src/Tensor/Tensor.hpp:185:             std::copy(rhs_tensor.begin(), rhs_tensor.end(), this->_data.begin());
	.loc 5 185 22
	movq	-104(%rbp), %rax	# this, _10
	movq	%rax, %rdi	# _10,
	call	_ZNSt6vectorIdSaIdEE5beginEv	#
	movq	%rax, %r12	#, D.68339
	movq	-112(%rbp), %rax	# rhs_tensor, tmp114
	movq	%rax, %rdi	# tmp114,
	call	_ZNK9container6tensorIdJLl2ELl3ELl55EEE3endEv	#
	movq	%rax, %rbx	#, D.68340
	movq	-112(%rbp), %rax	# rhs_tensor, tmp115
	movq	%rax, %rdi	# tmp115,
	call	_ZNK9container6tensorIdJLl2ELl3ELl55EEE5beginEv	#
	movq	%r12, %rdx	# D.68339,
	movq	%rbx, %rsi	# D.68340,
	movq	%rax, %rdi	# D.68341,
	call	_ZSt4copyIN9__gnu_cxx17__normal_iteratorIPKdSt6vectorIdSaIdEEEENS1_IPdS6_EEET0_T_SB_SA_	#
.LEHE27:
# src/Tensor/Tensor.hpp:186:         }
	.loc 5 186 9
	leaq	-96(%rbp), %rax	#, tmp116
	movq	%rax, %rdi	# tmp116,
	call	_ZNSt6vectorIlSaIlEED1Ev	#
	jmp	.L127	#
.L126:
	movq	%rax, %rbx	#, tmp118
	leaq	-96(%rbp), %rax	#, tmp117
	movq	%rax, %rdi	# tmp117,
	call	_ZNSt6vectorIlSaIlEED1Ev	#
	movq	%rbx, %rax	# tmp118, D.68840
	movq	%rax, %rdi	# D.68840,
.LEHB28:
	call	_Unwind_Resume@PLT	#
.LEHE28:
.L127:
	addq	$88, %rsp	#,
	popq	%rbx	#
	popq	%r12	#
	popq	%r13	#
	popq	%rbp	#
	.cfi_def_cfa 7, 8
	ret	
	.cfi_endproc
.LFE3036:
	.section	.gcc_except_table
.LLSDA3036:
	.byte	0xff
	.byte	0xff
	.byte	0x1
	.uleb128 .LLSDACSE3036-.LLSDACSB3036
.LLSDACSB3036:
	.uleb128 .LEHB27-.LFB3036
	.uleb128 .LEHE27-.LEHB27
	.uleb128 .L126-.LFB3036
	.uleb128 0
	.uleb128 .LEHB28-.LFB3036
	.uleb128 .LEHE28-.LEHB28
	.uleb128 0
	.uleb128 0
.LLSDACSE3036:
	.section	.text._ZN9container6tensorIdJEE22_diff_type_copy_assginIJLl2ELl3ELl55EEEEvRKNS0_IdJXspT_EEEE,"axG",@progbits,_ZN9container6tensorIdJEE22_diff_type_copy_assginIJLl2ELl3ELl55EEEEvRKNS0_IdJXspT_EEEE,comdat
	.size	_ZN9container6tensorIdJEE22_diff_type_copy_assginIJLl2ELl3ELl55EEEEvRKNS0_IdJXspT_EEEE, .-_ZN9container6tensorIdJEE22_diff_type_copy_assginIJLl2ELl3ELl55EEEEvRKNS0_IdJXspT_EEEE
	.section	.text._ZNKSt6vectorIdSaIdEE4sizeEv,"axG",@progbits,_ZNKSt6vectorIdSaIdEE4sizeEv,comdat
	.align 2
	.weak	_ZNKSt6vectorIdSaIdEE4sizeEv
	.type	_ZNKSt6vectorIdSaIdEE4sizeEv, @function
_ZNKSt6vectorIdSaIdEE4sizeEv:
.LFB3039:
	.loc 7 987 7
	.cfi_startproc
	pushq	%rbp	#
	.cfi_def_cfa_offset 16
	.cfi_offset 6, -16
	movq	%rsp, %rbp	#,
	.cfi_def_cfa_register 6
	movq	%rdi, -8(%rbp)	# this, this
# /usr/include/c++/12/bits/stl_vector.h:988:       { return size_type(this->_M_impl._M_finish - this->_M_impl._M_start); }
	.loc 7 988 40
	movq	-8(%rbp), %rax	# this, tmp88
	movq	8(%rax), %rdx	# this_6(D)->D.58694._M_impl.D.58033._M_finish, _1
# /usr/include/c++/12/bits/stl_vector.h:988:       { return size_type(this->_M_impl._M_finish - this->_M_impl._M_start); }
	.loc 7 988 66
	movq	-8(%rbp), %rax	# this, tmp89
	movq	(%rax), %rax	# this_6(D)->D.58694._M_impl.D.58033._M_start, _2
# /usr/include/c++/12/bits/stl_vector.h:988:       { return size_type(this->_M_impl._M_finish - this->_M_impl._M_start); }
	.loc 7 988 50
	subq	%rax, %rdx	# _2, _3
	movq	%rdx, %rax	# _3, _3
	sarq	$3, %rax	#, _3
# /usr/include/c++/12/bits/stl_vector.h:988:       { return size_type(this->_M_impl._M_finish - this->_M_impl._M_start); }
	.loc 7 988 77
	popq	%rbp	#
	.cfi_def_cfa 7, 8
	ret	
	.cfi_endproc
.LFE3039:
	.size	_ZNKSt6vectorIdSaIdEE4sizeEv, .-_ZNKSt6vectorIdSaIdEE4sizeEv
	.section	.text._ZNSaIdEC2Ev,"axG",@progbits,_ZNSaIdEC5Ev,comdat
	.align 2
	.weak	_ZNSaIdEC2Ev
	.type	_ZNSaIdEC2Ev, @function
_ZNSaIdEC2Ev:
.LFB3109:
	.loc 8 156 7
	.cfi_startproc
	pushq	%rbp	#
	.cfi_def_cfa_offset 16
	.cfi_offset 6, -16
	movq	%rsp, %rbp	#,
	.cfi_def_cfa_register 6
	subq	$16, %rsp	#,
	movq	%rdi, -8(%rbp)	# this, this
.LBB30:
# /usr/include/c++/12/bits/allocator.h:156:       allocator() _GLIBCXX_NOTHROW { }
	.loc 8 156 36
	movq	-8(%rbp), %rax	# this, tmp82
	movq	%rax, %rdi	# tmp82,
	call	_ZNSt15__new_allocatorIdEC2Ev	#
.LBE30:
# /usr/include/c++/12/bits/allocator.h:156:       allocator() _GLIBCXX_NOTHROW { }
	.loc 8 156 38
	nop	
	leave	
	.cfi_def_cfa 7, 8
	ret	
	.cfi_endproc
.LFE3109:
	.size	_ZNSaIdEC2Ev, .-_ZNSaIdEC2Ev
	.weak	_ZNSaIdEC1Ev
	.set	_ZNSaIdEC1Ev,_ZNSaIdEC2Ev
	.section	.text._ZNSt12_Vector_baseIdSaIdEE17_Vector_impl_dataC2Ev,"axG",@progbits,_ZNSt12_Vector_baseIdSaIdEE17_Vector_impl_dataC5Ev,comdat
	.align 2
	.weak	_ZNSt12_Vector_baseIdSaIdEE17_Vector_impl_dataC2Ev
	.type	_ZNSt12_Vector_baseIdSaIdEE17_Vector_impl_dataC2Ev, @function
_ZNSt12_Vector_baseIdSaIdEE17_Vector_impl_dataC2Ev:
.LFB3112:
	.loc 7 99 2
	.cfi_startproc
	pushq	%rbp	#
	.cfi_def_cfa_offset 16
	.cfi_offset 6, -16
	movq	%rsp, %rbp	#,
	.cfi_def_cfa_register 6
	movq	%rdi, -8(%rbp)	# this, this
.LBB31:
# /usr/include/c++/12/bits/stl_vector.h:100: 	: _M_start(), _M_finish(), _M_end_of_storage()
	.loc 7 100 4
	movq	-8(%rbp), %rax	# this, tmp82
	movq	$0, (%rax)	#, this_2(D)->_M_start
# /usr/include/c++/12/bits/stl_vector.h:100: 	: _M_start(), _M_finish(), _M_end_of_storage()
	.loc 7 100 16
	movq	-8(%rbp), %rax	# this, tmp83
	movq	$0, 8(%rax)	#, this_2(D)->_M_finish
# /usr/include/c++/12/bits/stl_vector.h:100: 	: _M_start(), _M_finish(), _M_end_of_storage()
	.loc 7 100 29
	movq	-8(%rbp), %rax	# this, tmp84
	movq	$0, 16(%rax)	#, this_2(D)->_M_end_of_storage
.LBE31:
# /usr/include/c++/12/bits/stl_vector.h:101: 	{ }
	.loc 7 101 4
	nop	
	popq	%rbp	#
	.cfi_def_cfa 7, 8
	ret	
	.cfi_endproc
.LFE3112:
	.size	_ZNSt12_Vector_baseIdSaIdEE17_Vector_impl_dataC2Ev, .-_ZNSt12_Vector_baseIdSaIdEE17_Vector_impl_dataC2Ev
	.weak	_ZNSt12_Vector_baseIdSaIdEE17_Vector_impl_dataC1Ev
	.set	_ZNSt12_Vector_baseIdSaIdEE17_Vector_impl_dataC1Ev,_ZNSt12_Vector_baseIdSaIdEE17_Vector_impl_dataC2Ev
	.section	.text._ZNSt15__new_allocatorIdED2Ev,"axG",@progbits,_ZNSt15__new_allocatorIdED5Ev,comdat
	.align 2
	.weak	_ZNSt15__new_allocatorIdED2Ev
	.type	_ZNSt15__new_allocatorIdED2Ev, @function
_ZNSt15__new_allocatorIdED2Ev:
.LFB3115:
	.file 10 "/usr/include/c++/12/bits/new_allocator.h"
	.loc 10 90 7
	.cfi_startproc
	pushq	%rbp	#
	.cfi_def_cfa_offset 16
	.cfi_offset 6, -16
	movq	%rsp, %rbp	#,
	.cfi_def_cfa_register 6
	movq	%rdi, -8(%rbp)	# this, this
# /usr/include/c++/12/bits/new_allocator.h:90:       ~__new_allocator() _GLIBCXX_USE_NOEXCEPT { }
	.loc 10 90 50
	nop	
	popq	%rbp	#
	.cfi_def_cfa 7, 8
	ret	
	.cfi_endproc
.LFE3115:
	.size	_ZNSt15__new_allocatorIdED2Ev, .-_ZNSt15__new_allocatorIdED2Ev
	.weak	_ZNSt15__new_allocatorIdED1Ev
	.set	_ZNSt15__new_allocatorIdED1Ev,_ZNSt15__new_allocatorIdED2Ev
	.section	.text._ZNSt12_Vector_baseIdSaIdEE13_M_deallocateEPdm,"axG",@progbits,_ZNSt12_Vector_baseIdSaIdEE13_M_deallocateEPdm,comdat
	.align 2
	.weak	_ZNSt12_Vector_baseIdSaIdEE13_M_deallocateEPdm
	.type	_ZNSt12_Vector_baseIdSaIdEE13_M_deallocateEPdm, @function
_ZNSt12_Vector_baseIdSaIdEE13_M_deallocateEPdm:
.LFB3117:
	.loc 7 383 7
	.cfi_startproc
	pushq	%rbp	#
	.cfi_def_cfa_offset 16
	.cfi_offset 6, -16
	movq	%rsp, %rbp	#,
	.cfi_def_cfa_register 6
	subq	$32, %rsp	#,
	movq	%rdi, -8(%rbp)	# this, this
	movq	%rsi, -16(%rbp)	# __p, __p
	movq	%rdx, -24(%rbp)	# __n, __n
# /usr/include/c++/12/bits/stl_vector.h:386: 	if (__p)
	.loc 7 386 2
	cmpq	$0, -16(%rbp)	#, __p
	je	.L135	#,
# /usr/include/c++/12/bits/stl_vector.h:387: 	  _Tr::deallocate(_M_impl, __p, __n);
	.loc 7 387 20
	movq	-8(%rbp), %rax	# this, _1
# /usr/include/c++/12/bits/stl_vector.h:387: 	  _Tr::deallocate(_M_impl, __p, __n);
	.loc 7 387 19
	movq	-24(%rbp), %rdx	# __n, tmp83
	movq	-16(%rbp), %rcx	# __p, tmp84
	movq	%rcx, %rsi	# tmp84,
	movq	%rax, %rdi	# _1,
	call	_ZNSt16allocator_traitsISaIdEE10deallocateERS0_Pdm	#
.L135:
# /usr/include/c++/12/bits/stl_vector.h:388:       }
	.loc 7 388 7
	nop	
	leave	
	.cfi_def_cfa 7, 8
	ret	
	.cfi_endproc
.LFE3117:
	.size	_ZNSt12_Vector_baseIdSaIdEE13_M_deallocateEPdm, .-_ZNSt12_Vector_baseIdSaIdEE13_M_deallocateEPdm
	.section	.text._ZNSt15__new_allocatorIlEC2Ev,"axG",@progbits,_ZNSt15__new_allocatorIlEC5Ev,comdat
	.align 2
	.weak	_ZNSt15__new_allocatorIlEC2Ev
	.type	_ZNSt15__new_allocatorIlEC2Ev, @function
_ZNSt15__new_allocatorIlEC2Ev:
.LFB3119:
	.loc 10 80 7
	.cfi_startproc
	pushq	%rbp	#
	.cfi_def_cfa_offset 16
	.cfi_offset 6, -16
	movq	%rsp, %rbp	#,
	.cfi_def_cfa_register 6
	movq	%rdi, -8(%rbp)	# this, this
# /usr/include/c++/12/bits/new_allocator.h:80:       __new_allocator() _GLIBCXX_USE_NOEXCEPT { }
	.loc 10 80 49
	nop	
	popq	%rbp	#
	.cfi_def_cfa 7, 8
	ret	
	.cfi_endproc
.LFE3119:
	.size	_ZNSt15__new_allocatorIlEC2Ev, .-_ZNSt15__new_allocatorIlEC2Ev
	.weak	_ZNSt15__new_allocatorIlEC1Ev
	.set	_ZNSt15__new_allocatorIlEC1Ev,_ZNSt15__new_allocatorIlEC2Ev
	.section	.text._ZNSt15__new_allocatorIlED2Ev,"axG",@progbits,_ZNSt15__new_allocatorIlED5Ev,comdat
	.align 2
	.weak	_ZNSt15__new_allocatorIlED2Ev
	.type	_ZNSt15__new_allocatorIlED2Ev, @function
_ZNSt15__new_allocatorIlED2Ev:
.LFB3122:
	.loc 10 90 7
	.cfi_startproc
	pushq	%rbp	#
	.cfi_def_cfa_offset 16
	.cfi_offset 6, -16
	movq	%rsp, %rbp	#,
	.cfi_def_cfa_register 6
	movq	%rdi, -8(%rbp)	# this, this
# /usr/include/c++/12/bits/new_allocator.h:90:       ~__new_allocator() _GLIBCXX_USE_NOEXCEPT { }
	.loc 10 90 50
	nop	
	popq	%rbp	#
	.cfi_def_cfa 7, 8
	ret	
	.cfi_endproc
.LFE3122:
	.size	_ZNSt15__new_allocatorIlED2Ev, .-_ZNSt15__new_allocatorIlED2Ev
	.weak	_ZNSt15__new_allocatorIlED1Ev
	.set	_ZNSt15__new_allocatorIlED1Ev,_ZNSt15__new_allocatorIlED2Ev
	.section	.text._ZNSt12_Vector_baseIlSaIlEEC2ERKS0_,"axG",@progbits,_ZNSt12_Vector_baseIlSaIlEEC5ERKS0_,comdat
	.align 2
	.weak	_ZNSt12_Vector_baseIlSaIlEEC2ERKS0_
	.type	_ZNSt12_Vector_baseIlSaIlEEC2ERKS0_, @function
_ZNSt12_Vector_baseIlSaIlEEC2ERKS0_:
.LFB3125:
	.loc 7 318 7
	.cfi_startproc
	pushq	%rbp	#
	.cfi_def_cfa_offset 16
	.cfi_offset 6, -16
	movq	%rsp, %rbp	#,
	.cfi_def_cfa_register 6
	subq	$16, %rsp	#,
	movq	%rdi, -8(%rbp)	# this, this
	movq	%rsi, -16(%rbp)	# __a, __a
.LBB32:
# /usr/include/c++/12/bits/stl_vector.h:319:       : _M_impl(__a) { }
	.loc 7 319 9
	movq	-8(%rbp), %rax	# this, _1
	movq	-16(%rbp), %rdx	# __a, tmp84
	movq	%rdx, %rsi	# tmp84,
	movq	%rax, %rdi	# _1,
	call	_ZNSt12_Vector_baseIlSaIlEE12_Vector_implC1ERKS0_	#
.LBE32:
# /usr/include/c++/12/bits/stl_vector.h:319:       : _M_impl(__a) { }
	.loc 7 319 24
	nop	
	leave	
	.cfi_def_cfa 7, 8
	ret	
	.cfi_endproc
.LFE3125:
	.size	_ZNSt12_Vector_baseIlSaIlEEC2ERKS0_, .-_ZNSt12_Vector_baseIlSaIlEEC2ERKS0_
	.weak	_ZNSt12_Vector_baseIlSaIlEEC1ERKS0_
	.set	_ZNSt12_Vector_baseIlSaIlEEC1ERKS0_,_ZNSt12_Vector_baseIlSaIlEEC2ERKS0_
	.section	.text._ZNKSt16initializer_listIlE5beginEv,"axG",@progbits,_ZNKSt16initializer_listIlE5beginEv,comdat
	.align 2
	.weak	_ZNKSt16initializer_listIlE5beginEv
	.type	_ZNKSt16initializer_listIlE5beginEv, @function
_ZNKSt16initializer_listIlE5beginEv:
.LFB3127:
	.file 11 "/usr/include/c++/12/initializer_list"
	.loc 11 75 7
	.cfi_startproc
	pushq	%rbp	#
	.cfi_def_cfa_offset 16
	.cfi_offset 6, -16
	movq	%rsp, %rbp	#,
	.cfi_def_cfa_register 6
	movq	%rdi, -8(%rbp)	# this, this
# /usr/include/c++/12/initializer_list:75:       begin() const noexcept { return _M_array; }
	.loc 11 75 39
	movq	-8(%rbp), %rax	# this, tmp84
	movq	(%rax), %rax	# this_2(D)->_M_array, _3
# /usr/include/c++/12/initializer_list:75:       begin() const noexcept { return _M_array; }
	.loc 11 75 49
	popq	%rbp	#
	.cfi_def_cfa 7, 8
	ret	
	.cfi_endproc
.LFE3127:
	.size	_ZNKSt16initializer_listIlE5beginEv, .-_ZNKSt16initializer_listIlE5beginEv
	.section	.text._ZNKSt16initializer_listIlE3endEv,"axG",@progbits,_ZNKSt16initializer_listIlE3endEv,comdat
	.align 2
	.weak	_ZNKSt16initializer_listIlE3endEv
	.type	_ZNKSt16initializer_listIlE3endEv, @function
_ZNKSt16initializer_listIlE3endEv:
.LFB3128:
	.loc 11 79 7
	.cfi_startproc
	pushq	%rbp	#
	.cfi_def_cfa_offset 16
	.cfi_offset 6, -16
	movq	%rsp, %rbp	#,
	.cfi_def_cfa_register 6
	pushq	%rbx	#
	subq	$24, %rsp	#,
	.cfi_offset 3, -24
	movq	%rdi, -24(%rbp)	# this, this
# /usr/include/c++/12/initializer_list:79:       end() const noexcept { return begin() + size(); }
	.loc 11 79 42
	movq	-24(%rbp), %rax	# this, tmp87
	movq	%rax, %rdi	# tmp87,
	call	_ZNKSt16initializer_listIlE5beginEv	#
	movq	%rax, %rbx	#, _1
# /usr/include/c++/12/initializer_list:79:       end() const noexcept { return begin() + size(); }
	.loc 11 79 51
	movq	-24(%rbp), %rax	# this, tmp88
	movq	%rax, %rdi	# tmp88,
	call	_ZNKSt16initializer_listIlE4sizeEv	#
# /usr/include/c++/12/initializer_list:79:       end() const noexcept { return begin() + size(); }
	.loc 11 79 45
	salq	$3, %rax	#, _3
# /usr/include/c++/12/initializer_list:79:       end() const noexcept { return begin() + size(); }
	.loc 11 79 52
	addq	%rbx, %rax	# _1, _8
# /usr/include/c++/12/initializer_list:79:       end() const noexcept { return begin() + size(); }
	.loc 11 79 55
	movq	-8(%rbp), %rbx	#,
	leave	
	.cfi_def_cfa 7, 8
	ret	
	.cfi_endproc
.LFE3128:
	.size	_ZNKSt16initializer_listIlE3endEv, .-_ZNKSt16initializer_listIlE3endEv
	.section	.text._ZSt8distanceIPKlENSt15iterator_traitsIT_E15difference_typeES3_S3_,"axG",@progbits,_ZSt8distanceIPKlENSt15iterator_traitsIT_E15difference_typeES3_S3_,comdat
	.weak	_ZSt8distanceIPKlENSt15iterator_traitsIT_E15difference_typeES3_S3_
	.type	_ZSt8distanceIPKlENSt15iterator_traitsIT_E15difference_typeES3_S3_, @function
_ZSt8distanceIPKlENSt15iterator_traitsIT_E15difference_typeES3_S3_:
.LFB3130:
	.file 12 "/usr/include/c++/12/bits/stl_iterator_base_funcs.h"
	.loc 12 147 5
	.cfi_startproc
	pushq	%rbp	#
	.cfi_def_cfa_offset 16
	.cfi_offset 6, -16
	movq	%rsp, %rbp	#,
	.cfi_def_cfa_register 6
	subq	$16, %rsp	#,
	movq	%rdi, -8(%rbp)	# __first, __first
	movq	%rsi, -16(%rbp)	# __last, __last
# /usr/include/c++/12/bits/stl_iterator_base_funcs.h:151: 			     std::__iterator_category(__first));
	.loc 12 151 33
	leaq	-8(%rbp), %rax	#, tmp86
	movq	%rax, %rdi	# tmp86,
	call	_ZSt19__iterator_categoryIPKlENSt15iterator_traitsIT_E17iterator_categoryERKS3_	#
# /usr/include/c++/12/bits/stl_iterator_base_funcs.h:150:       return std::__distance(__first, __last,
	.loc 12 150 29
	movq	-8(%rbp), %rax	# __first, __first.1_1
	movq	-16(%rbp), %rdx	# __last, tmp87
	movq	%rdx, %rsi	# tmp87,
	movq	%rax, %rdi	# __first.1_1,
	call	_ZSt10__distanceIPKlENSt15iterator_traitsIT_E15difference_typeES3_S3_St26random_access_iterator_tag	#
# /usr/include/c++/12/bits/stl_iterator_base_funcs.h:152:     }
	.loc 12 152 5
	leave	
	.cfi_def_cfa 7, 8
	ret	
	.cfi_endproc
.LFE3130:
	.size	_ZSt8distanceIPKlENSt15iterator_traitsIT_E15difference_typeES3_S3_, .-_ZSt8distanceIPKlENSt15iterator_traitsIT_E15difference_typeES3_S3_
	.section	.text._ZNSt6vectorIlSaIlEE19_M_range_initializeIPKlEEvT_S5_St20forward_iterator_tag,"axG",@progbits,_ZNSt6vectorIlSaIlEE19_M_range_initializeIPKlEEvT_S5_St20forward_iterator_tag,comdat
	.align 2
	.weak	_ZNSt6vectorIlSaIlEE19_M_range_initializeIPKlEEvT_S5_St20forward_iterator_tag
	.type	_ZNSt6vectorIlSaIlEE19_M_range_initializeIPKlEEvT_S5_St20forward_iterator_tag, @function
_ZNSt6vectorIlSaIlEE19_M_range_initializeIPKlEEvT_S5_St20forward_iterator_tag:
.LFB3129:
	.loc 7 1682 2
	.cfi_startproc
	pushq	%rbp	#
	.cfi_def_cfa_offset 16
	.cfi_offset 6, -16
	movq	%rsp, %rbp	#,
	.cfi_def_cfa_register 6
	pushq	%rbx	#
	subq	$56, %rsp	#,
	.cfi_offset 3, -24
	movq	%rdi, -40(%rbp)	# this, this
	movq	%rsi, -48(%rbp)	# __first, __first
	movq	%rdx, -56(%rbp)	# __last, __last
# /usr/include/c++/12/bits/stl_vector.h:1685: 	  const size_type __n = std::distance(__first, __last);
	.loc 7 1685 39
	movq	-56(%rbp), %rdx	# __last, tmp95
	movq	-48(%rbp), %rax	# __first, tmp96
	movq	%rdx, %rsi	# tmp95,
	movq	%rax, %rdi	# tmp96,
	call	_ZSt8distanceIPKlENSt15iterator_traitsIT_E15difference_typeES3_S3_	#
# /usr/include/c++/12/bits/stl_vector.h:1685: 	  const size_type __n = std::distance(__first, __last);
	.loc 7 1685 20
	movq	%rax, -24(%rbp)	# _1, __n
# /usr/include/c++/12/bits/stl_vector.h:1687: 	    = this->_M_allocate(_S_check_init_len(__n, _M_get_Tp_allocator()));
	.loc 7 1687 25
	movq	-40(%rbp), %rbx	# this, _2
# /usr/include/c++/12/bits/stl_vector.h:1687: 	    = this->_M_allocate(_S_check_init_len(__n, _M_get_Tp_allocator()));
	.loc 7 1687 68
	movq	-40(%rbp), %rax	# this, _3
	movq	%rax, %rdi	# _3,
	call	_ZNSt12_Vector_baseIlSaIlEE19_M_get_Tp_allocatorEv	#
	movq	%rax, %rdx	#, _4
# /usr/include/c++/12/bits/stl_vector.h:1687: 	    = this->_M_allocate(_S_check_init_len(__n, _M_get_Tp_allocator()));
	.loc 7 1687 25
	movq	-24(%rbp), %rax	# __n, tmp97
	movq	%rdx, %rsi	# _4,
	movq	%rax, %rdi	# tmp97,
	call	_ZNSt6vectorIlSaIlEE17_S_check_init_lenEmRKS0_	#
	movq	%rax, %rsi	# _5,
	movq	%rbx, %rdi	# _2,
	call	_ZNSt12_Vector_baseIlSaIlEE11_M_allocateEm	#
# /usr/include/c++/12/bits/stl_vector.h:1687: 	    = this->_M_allocate(_S_check_init_len(__n, _M_get_Tp_allocator()));
	.loc 7 1687 6
	movq	-40(%rbp), %rdx	# this, tmp98
	movq	%rax, (%rdx)	# _6, this_20(D)->D.54811._M_impl.D.54123._M_start
# /usr/include/c++/12/bits/stl_vector.h:1688: 	  this->_M_impl._M_end_of_storage = this->_M_impl._M_start + __n;
	.loc 7 1688 52
	movq	-40(%rbp), %rax	# this, tmp99
	movq	(%rax), %rax	# this_20(D)->D.54811._M_impl.D.54123._M_start, _7
# /usr/include/c++/12/bits/stl_vector.h:1688: 	  this->_M_impl._M_end_of_storage = this->_M_impl._M_start + __n;
	.loc 7 1688 61
	movq	-24(%rbp), %rdx	# __n, tmp100
	salq	$3, %rdx	#, _8
	addq	%rax, %rdx	# _7, _9
# /usr/include/c++/12/bits/stl_vector.h:1688: 	  this->_M_impl._M_end_of_storage = this->_M_impl._M_start + __n;
	.loc 7 1688 36
	movq	-40(%rbp), %rax	# this, tmp101
	movq	%rdx, 16(%rax)	# _9, this_20(D)->D.54811._M_impl.D.54123._M_end_of_storage
# /usr/include/c++/12/bits/stl_vector.h:1692: 					_M_get_Tp_allocator());
	.loc 7 1692 25
	movq	-40(%rbp), %rax	# this, _10
	movq	%rax, %rdi	# _10,
	call	_ZNSt12_Vector_baseIlSaIlEE19_M_get_Tp_allocatorEv	#
	movq	%rax, %rcx	#, _11
# /usr/include/c++/12/bits/stl_vector.h:1690: 	    std::__uninitialized_copy_a(__first, __last,
	.loc 7 1690 33
	movq	-40(%rbp), %rax	# this, tmp102
	movq	(%rax), %rdx	# this_20(D)->D.54811._M_impl.D.54123._M_start, _12
	movq	-56(%rbp), %rsi	# __last, tmp103
	movq	-48(%rbp), %rax	# __first, tmp104
	movq	%rax, %rdi	# tmp104,
	call	_ZSt22__uninitialized_copy_aIPKlPllET0_T_S4_S3_RSaIT1_E	#
# /usr/include/c++/12/bits/stl_vector.h:1689: 	  this->_M_impl._M_finish =
	.loc 7 1689 28
	movq	-40(%rbp), %rdx	# this, tmp105
	movq	%rax, 8(%rdx)	# _13, this_20(D)->D.54811._M_impl.D.54123._M_finish
# /usr/include/c++/12/bits/stl_vector.h:1693: 	}
	.loc 7 1693 2
	nop	
	movq	-8(%rbp), %rbx	#,
	leave	
	.cfi_def_cfa 7, 8
	ret	
	.cfi_endproc
.LFE3129:
	.size	_ZNSt6vectorIlSaIlEE19_M_range_initializeIPKlEEvT_S5_St20forward_iterator_tag, .-_ZNSt6vectorIlSaIlEE19_M_range_initializeIPKlEEvT_S5_St20forward_iterator_tag
	.section	.text._ZNSt6vectorIlSaIlEE5beginEv,"axG",@progbits,_ZNSt6vectorIlSaIlEE5beginEv,comdat
	.align 2
	.weak	_ZNSt6vectorIlSaIlEE5beginEv
	.type	_ZNSt6vectorIlSaIlEE5beginEv, @function
_ZNSt6vectorIlSaIlEE5beginEv:
.LFB3131:
	.loc 7 868 7
	.cfi_startproc
	pushq	%rbp	#
	.cfi_def_cfa_offset 16
	.cfi_offset 6, -16
	movq	%rsp, %rbp	#,
	.cfi_def_cfa_register 6
	subq	$32, %rsp	#,
	movq	%rdi, -24(%rbp)	# this, this
# /usr/include/c++/12/bits/stl_vector.h:869:       { return iterator(this->_M_impl._M_start); }
	.loc 7 869 39
	movq	-24(%rbp), %rdx	# this, _1
# /usr/include/c++/12/bits/stl_vector.h:869:       { return iterator(this->_M_impl._M_start); }
	.loc 7 869 16
	leaq	-8(%rbp), %rax	#, tmp85
	movq	%rdx, %rsi	# _1,
	movq	%rax, %rdi	# tmp85,
	call	_ZN9__gnu_cxx17__normal_iteratorIPlSt6vectorIlSaIlEEEC1ERKS1_	#
# /usr/include/c++/12/bits/stl_vector.h:869:       { return iterator(this->_M_impl._M_start); }
	.loc 7 869 47
	movq	-8(%rbp), %rax	# D.64976, D.68031
# /usr/include/c++/12/bits/stl_vector.h:869:       { return iterator(this->_M_impl._M_start); }
	.loc 7 869 50
	leave	
	.cfi_def_cfa 7, 8
	ret	
	.cfi_endproc
.LFE3131:
	.size	_ZNSt6vectorIlSaIlEE5beginEv, .-_ZNSt6vectorIlSaIlEE5beginEv
	.section	.text._ZNSt6vectorIlSaIlEE3endEv,"axG",@progbits,_ZNSt6vectorIlSaIlEE3endEv,comdat
	.align 2
	.weak	_ZNSt6vectorIlSaIlEE3endEv
	.type	_ZNSt6vectorIlSaIlEE3endEv, @function
_ZNSt6vectorIlSaIlEE3endEv:
.LFB3132:
	.loc 7 888 7
	.cfi_startproc
	pushq	%rbp	#
	.cfi_def_cfa_offset 16
	.cfi_offset 6, -16
	movq	%rsp, %rbp	#,
	.cfi_def_cfa_register 6
	subq	$32, %rsp	#,
	movq	%rdi, -24(%rbp)	# this, this
# /usr/include/c++/12/bits/stl_vector.h:889:       { return iterator(this->_M_impl._M_finish); }
	.loc 7 889 39
	movq	-24(%rbp), %rax	# this, tmp85
	leaq	8(%rax), %rdx	#, _1
# /usr/include/c++/12/bits/stl_vector.h:889:       { return iterator(this->_M_impl._M_finish); }
	.loc 7 889 16
	leaq	-8(%rbp), %rax	#, tmp86
	movq	%rdx, %rsi	# _1,
	movq	%rax, %rdi	# tmp86,
	call	_ZN9__gnu_cxx17__normal_iteratorIPlSt6vectorIlSaIlEEEC1ERKS1_	#
# /usr/include/c++/12/bits/stl_vector.h:889:       { return iterator(this->_M_impl._M_finish); }
	.loc 7 889 48
	movq	-8(%rbp), %rax	# D.64978, D.68028
# /usr/include/c++/12/bits/stl_vector.h:889:       { return iterator(this->_M_impl._M_finish); }
	.loc 7 889 51
	leave	
	.cfi_def_cfa 7, 8
	ret	
	.cfi_endproc
.LFE3132:
	.size	_ZNSt6vectorIlSaIlEE3endEv, .-_ZNSt6vectorIlSaIlEE3endEv
	.section	.text._ZSt8for_eachIN9__gnu_cxx17__normal_iteratorIPlSt6vectorIlSaIlEEEEZN9container6tensorIdJLl2ELl3ELl5EEE11_initializeEvEUliE_ET0_T_SC_SB_,"axG",@progbits,_ZSt8for_eachIN9__gnu_cxx17__normal_iteratorIPlSt6vectorIlSaIlEEEEZN9container6tensorIdJLl2ELl3ELl5EEE11_initializeEvEUliE_ET0_T_SC_SB_,comdat
	.weak	_ZSt8for_eachIN9__gnu_cxx17__normal_iteratorIPlSt6vectorIlSaIlEEEEZN9container6tensorIdJLl2ELl3ELl5EEE11_initializeEvEUliE_ET0_T_SC_SB_
	.type	_ZSt8for_eachIN9__gnu_cxx17__normal_iteratorIPlSt6vectorIlSaIlEEEEZN9container6tensorIdJLl2ELl3ELl5EEE11_initializeEvEUliE_ET0_T_SC_SB_, @function
_ZSt8for_eachIN9__gnu_cxx17__normal_iteratorIPlSt6vectorIlSaIlEEEEZN9container6tensorIdJLl2ELl3ELl5EEE11_initializeEvEUliE_ET0_T_SC_SB_:
.LFB3133:
	.file 13 "/usr/include/c++/12/bits/stl_algo.h"
	.loc 13 3781 5
	.cfi_startproc
	pushq	%rbp	#
	.cfi_def_cfa_offset 16
	.cfi_offset 6, -16
	movq	%rsp, %rbp	#,
	.cfi_def_cfa_register 6
	subq	$32, %rsp	#,
	movq	%rdi, -8(%rbp)	# __first, __first
	movq	%rsi, -16(%rbp)	# __last, __last
	movq	%rdx, -24(%rbp)	# __f, __f
# /usr/include/c++/12/bits/stl_algo.h:3786:       for (; __first != __last; ++__first)
	.loc 13 3786 7
	jmp	.L151	#
.L152:
# /usr/include/c++/12/bits/stl_algo.h:3787: 	__f(*__first);
	.loc 13 3787 6 discriminator 2
	leaq	-8(%rbp), %rax	#, tmp88
	movq	%rax, %rdi	# tmp88,
	call	_ZNK9__gnu_cxx17__normal_iteratorIPlSt6vectorIlSaIlEEEdeEv	#
# /usr/include/c++/12/bits/stl_algo.h:3787: 	__f(*__first);
	.loc 13 3787 5 discriminator 2
	movq	(%rax), %rax	# *_1, _2
	movl	%eax, %edx	# _2, _3
	leaq	-24(%rbp), %rax	#, tmp89
	movl	%edx, %esi	# _3,
	movq	%rax, %rdi	# tmp89,
	call	_ZZN9container6tensorIdJLl2ELl3ELl5EEE11_initializeEvENKUliE_clEi	#
# /usr/include/c++/12/bits/stl_algo.h:3786:       for (; __first != __last; ++__first)
	.loc 13 3786 33 discriminator 2
	leaq	-8(%rbp), %rax	#, tmp90
	movq	%rax, %rdi	# tmp90,
	call	_ZN9__gnu_cxx17__normal_iteratorIPlSt6vectorIlSaIlEEEppEv	#
.L151:
# /usr/include/c++/12/bits/stl_algo.h:3786:       for (; __first != __last; ++__first)
	.loc 13 3786 22 discriminator 1
	leaq	-16(%rbp), %rdx	#, tmp91
	leaq	-8(%rbp), %rax	#, tmp92
	movq	%rdx, %rsi	# tmp91,
	movq	%rax, %rdi	# tmp92,
	call	_ZN9__gnu_cxxneIPlSt6vectorIlSaIlEEEEbRKNS_17__normal_iteratorIT_T0_EESA_	#
	testb	%al, %al	# retval.10_7
	jne	.L152	#,
# /usr/include/c++/12/bits/stl_algo.h:3788:       return __f; // N.B. [alg.foreach] says std::move(f) but it's redundant.
	.loc 13 3788 14
	movq	-24(%rbp), %rax	# __f, D.68035
# /usr/include/c++/12/bits/stl_algo.h:3789:     }
	.loc 13 3789 5
	leave	
	.cfi_def_cfa 7, 8
	ret	
	.cfi_endproc
.LFE3133:
	.size	_ZSt8for_eachIN9__gnu_cxx17__normal_iteratorIPlSt6vectorIlSaIlEEEEZN9container6tensorIdJLl2ELl3ELl5EEE11_initializeEvEUliE_ET0_T_SC_SB_, .-_ZSt8for_eachIN9__gnu_cxx17__normal_iteratorIPlSt6vectorIlSaIlEEEEZN9container6tensorIdJLl2ELl3ELl5EEE11_initializeEvEUliE_ET0_T_SC_SB_
	.section	.text._ZNSt6vectorIdSaIdEE6resizeEm,"axG",@progbits,_ZNSt6vectorIdSaIdEE6resizeEm,comdat
	.align 2
	.weak	_ZNSt6vectorIdSaIdEE6resizeEm
	.type	_ZNSt6vectorIdSaIdEE6resizeEm, @function
_ZNSt6vectorIdSaIdEE6resizeEm:
.LFB3134:
	.loc 7 1008 7
	.cfi_startproc
	pushq	%rbp	#
	.cfi_def_cfa_offset 16
	.cfi_offset 6, -16
	movq	%rsp, %rbp	#,
	.cfi_def_cfa_register 6
	subq	$16, %rsp	#,
	movq	%rdi, -8(%rbp)	# this, this
	movq	%rsi, -16(%rbp)	# __new_size, __new_size
# /usr/include/c++/12/bits/stl_vector.h:1010: 	if (__new_size > size())
	.loc 7 1010 23
	movq	-8(%rbp), %rax	# this, tmp91
	movq	%rax, %rdi	# tmp91,
	call	_ZNKSt6vectorIdSaIdEE4sizeEv	#
# /usr/include/c++/12/bits/stl_vector.h:1010: 	if (__new_size > size())
	.loc 7 1010 17
	cmpq	-16(%rbp), %rax	# __new_size, _1
	setb	%al	#, retval.11_13
# /usr/include/c++/12/bits/stl_vector.h:1010: 	if (__new_size > size())
	.loc 7 1010 2
	testb	%al, %al	# retval.11_13
	je	.L155	#,
# /usr/include/c++/12/bits/stl_vector.h:1011: 	  _M_default_append(__new_size - size());
	.loc 7 1011 39
	movq	-8(%rbp), %rax	# this, tmp92
	movq	%rax, %rdi	# tmp92,
	call	_ZNKSt6vectorIdSaIdEE4sizeEv	#
# /usr/include/c++/12/bits/stl_vector.h:1011: 	  _M_default_append(__new_size - size());
	.loc 7 1011 21
	movq	-16(%rbp), %rdx	# __new_size, tmp93
	subq	%rax, %rdx	# _2, _3
	movq	-8(%rbp), %rax	# this, tmp94
	movq	%rdx, %rsi	# _3,
	movq	%rax, %rdi	# tmp94,
	call	_ZNSt6vectorIdSaIdEE17_M_default_appendEm	#
# /usr/include/c++/12/bits/stl_vector.h:1014:       }
	.loc 7 1014 7
	jmp	.L157	#
.L155:
# /usr/include/c++/12/bits/stl_vector.h:1012: 	else if (__new_size < size())
	.loc 7 1012 28
	movq	-8(%rbp), %rax	# this, tmp95
	movq	%rax, %rdi	# tmp95,
	call	_ZNKSt6vectorIdSaIdEE4sizeEv	#
# /usr/include/c++/12/bits/stl_vector.h:1012: 	else if (__new_size < size())
	.loc 7 1012 22
	cmpq	%rax, -16(%rbp)	# _4, __new_size
	setb	%al	#, retval.12_15
# /usr/include/c++/12/bits/stl_vector.h:1012: 	else if (__new_size < size())
	.loc 7 1012 7
	testb	%al, %al	# retval.12_15
	je	.L157	#,
# /usr/include/c++/12/bits/stl_vector.h:1013: 	  _M_erase_at_end(this->_M_impl._M_start + __new_size);
	.loc 7 1013 34
	movq	-8(%rbp), %rax	# this, tmp96
	movq	(%rax), %rax	# this_10(D)->D.58694._M_impl.D.58033._M_start, _5
# /usr/include/c++/12/bits/stl_vector.h:1013: 	  _M_erase_at_end(this->_M_impl._M_start + __new_size);
	.loc 7 1013 43
	movq	-16(%rbp), %rdx	# __new_size, tmp97
	salq	$3, %rdx	#, _6
# /usr/include/c++/12/bits/stl_vector.h:1013: 	  _M_erase_at_end(this->_M_impl._M_start + __new_size);
	.loc 7 1013 19
	addq	%rax, %rdx	# _5, _7
	movq	-8(%rbp), %rax	# this, tmp98
	movq	%rdx, %rsi	# _7,
	movq	%rax, %rdi	# tmp98,
	call	_ZNSt6vectorIdSaIdEE15_M_erase_at_endEPd	#
.L157:
# /usr/include/c++/12/bits/stl_vector.h:1014:       }
	.loc 7 1014 7
	nop	
	leave	
	.cfi_def_cfa 7, 8
	ret	
	.cfi_endproc
.LFE3134:
	.size	_ZNSt6vectorIdSaIdEE6resizeEm, .-_ZNSt6vectorIdSaIdEE6resizeEm
	.section	.text._ZSt8_DestroyIPdEvT_S1_,"axG",@progbits,_ZSt8_DestroyIPdEvT_S1_,comdat
	.weak	_ZSt8_DestroyIPdEvT_S1_
	.type	_ZSt8_DestroyIPdEvT_S1_, @function
_ZSt8_DestroyIPdEvT_S1_:
.LFB3135:
	.file 14 "/usr/include/c++/12/bits/stl_construct.h"
	.loc 14 182 5
	.cfi_startproc
	pushq	%rbp	#
	.cfi_def_cfa_offset 16
	.cfi_offset 6, -16
	movq	%rsp, %rbp	#,
	.cfi_def_cfa_register 6
	subq	$16, %rsp	#,
	movq	%rdi, -8(%rbp)	# __first, __first
	movq	%rsi, -16(%rbp)	# __last, __last
# /usr/include/c++/12/bits/stl_construct.h:196: 	__destroy(__first, __last);
	.loc 14 196 11
	movq	-16(%rbp), %rdx	# __last, tmp82
	movq	-8(%rbp), %rax	# __first, tmp83
	movq	%rdx, %rsi	# tmp82,
	movq	%rax, %rdi	# tmp83,
	call	_ZNSt12_Destroy_auxILb1EE9__destroyIPdEEvT_S3_	#
# /usr/include/c++/12/bits/stl_construct.h:197:     }
	.loc 14 197 5
	nop	
	leave	
	.cfi_def_cfa 7, 8
	ret	
	.cfi_endproc
.LFE3135:
	.size	_ZSt8_DestroyIPdEvT_S1_, .-_ZSt8_DestroyIPdEvT_S1_
	.section	.text._ZNSt12_Vector_baseIlSaIlEE13_M_deallocateEPlm,"axG",@progbits,_ZNSt12_Vector_baseIlSaIlEE13_M_deallocateEPlm,comdat
	.align 2
	.weak	_ZNSt12_Vector_baseIlSaIlEE13_M_deallocateEPlm
	.type	_ZNSt12_Vector_baseIlSaIlEE13_M_deallocateEPlm, @function
_ZNSt12_Vector_baseIlSaIlEE13_M_deallocateEPlm:
.LFB3137:
	.loc 7 383 7
	.cfi_startproc
	pushq	%rbp	#
	.cfi_def_cfa_offset 16
	.cfi_offset 6, -16
	movq	%rsp, %rbp	#,
	.cfi_def_cfa_register 6
	subq	$32, %rsp	#,
	movq	%rdi, -8(%rbp)	# this, this
	movq	%rsi, -16(%rbp)	# __p, __p
	movq	%rdx, -24(%rbp)	# __n, __n
# /usr/include/c++/12/bits/stl_vector.h:386: 	if (__p)
	.loc 7 386 2
	cmpq	$0, -16(%rbp)	#, __p
	je	.L161	#,
# /usr/include/c++/12/bits/stl_vector.h:387: 	  _Tr::deallocate(_M_impl, __p, __n);
	.loc 7 387 20
	movq	-8(%rbp), %rax	# this, _1
# /usr/include/c++/12/bits/stl_vector.h:387: 	  _Tr::deallocate(_M_impl, __p, __n);
	.loc 7 387 19
	movq	-24(%rbp), %rdx	# __n, tmp83
	movq	-16(%rbp), %rcx	# __p, tmp84
	movq	%rcx, %rsi	# tmp84,
	movq	%rax, %rdi	# _1,
	call	_ZNSt16allocator_traitsISaIlEE10deallocateERS0_Plm	#
.L161:
# /usr/include/c++/12/bits/stl_vector.h:388:       }
	.loc 7 388 7
	nop	
	leave	
	.cfi_def_cfa 7, 8
	ret	
	.cfi_endproc
.LFE3137:
	.size	_ZNSt12_Vector_baseIlSaIlEE13_M_deallocateEPlm, .-_ZNSt12_Vector_baseIlSaIlEE13_M_deallocateEPlm
	.section	.text._ZSt8_DestroyIPlEvT_S1_,"axG",@progbits,_ZSt8_DestroyIPlEvT_S1_,comdat
	.weak	_ZSt8_DestroyIPlEvT_S1_
	.type	_ZSt8_DestroyIPlEvT_S1_, @function
_ZSt8_DestroyIPlEvT_S1_:
.LFB3138:
	.loc 14 182 5
	.cfi_startproc
	pushq	%rbp	#
	.cfi_def_cfa_offset 16
	.cfi_offset 6, -16
	movq	%rsp, %rbp	#,
	.cfi_def_cfa_register 6
	subq	$16, %rsp	#,
	movq	%rdi, -8(%rbp)	# __first, __first
	movq	%rsi, -16(%rbp)	# __last, __last
# /usr/include/c++/12/bits/stl_construct.h:196: 	__destroy(__first, __last);
	.loc 14 196 11
	movq	-16(%rbp), %rdx	# __last, tmp82
	movq	-8(%rbp), %rax	# __first, tmp83
	movq	%rdx, %rsi	# tmp82,
	movq	%rax, %rdi	# tmp83,
	call	_ZNSt12_Destroy_auxILb1EE9__destroyIPlEEvT_S3_	#
# /usr/include/c++/12/bits/stl_construct.h:197:     }
	.loc 14 197 5
	nop	
	leave	
	.cfi_def_cfa 7, 8
	ret	
	.cfi_endproc
.LFE3138:
	.size	_ZSt8_DestroyIPlEvT_S1_, .-_ZSt8_DestroyIPlEvT_S1_
	.section	.text._ZNSt12_Vector_baseIlSaIlEE17_Vector_impl_dataC2Ev,"axG",@progbits,_ZNSt12_Vector_baseIlSaIlEE17_Vector_impl_dataC5Ev,comdat
	.align 2
	.weak	_ZNSt12_Vector_baseIlSaIlEE17_Vector_impl_dataC2Ev
	.type	_ZNSt12_Vector_baseIlSaIlEE17_Vector_impl_dataC2Ev, @function
_ZNSt12_Vector_baseIlSaIlEE17_Vector_impl_dataC2Ev:
.LFB3140:
	.loc 7 99 2
	.cfi_startproc
	pushq	%rbp	#
	.cfi_def_cfa_offset 16
	.cfi_offset 6, -16
	movq	%rsp, %rbp	#,
	.cfi_def_cfa_register 6
	movq	%rdi, -8(%rbp)	# this, this
.LBB33:
# /usr/include/c++/12/bits/stl_vector.h:100: 	: _M_start(), _M_finish(), _M_end_of_storage()
	.loc 7 100 4
	movq	-8(%rbp), %rax	# this, tmp82
	movq	$0, (%rax)	#, this_2(D)->_M_start
# /usr/include/c++/12/bits/stl_vector.h:100: 	: _M_start(), _M_finish(), _M_end_of_storage()
	.loc 7 100 16
	movq	-8(%rbp), %rax	# this, tmp83
	movq	$0, 8(%rax)	#, this_2(D)->_M_finish
# /usr/include/c++/12/bits/stl_vector.h:100: 	: _M_start(), _M_finish(), _M_end_of_storage()
	.loc 7 100 29
	movq	-8(%rbp), %rax	# this, tmp84
	movq	$0, 16(%rax)	#, this_2(D)->_M_end_of_storage
.LBE33:
# /usr/include/c++/12/bits/stl_vector.h:101: 	{ }
	.loc 7 101 4
	nop	
	popq	%rbp	#
	.cfi_def_cfa 7, 8
	ret	
	.cfi_endproc
.LFE3140:
	.size	_ZNSt12_Vector_baseIlSaIlEE17_Vector_impl_dataC2Ev, .-_ZNSt12_Vector_baseIlSaIlEE17_Vector_impl_dataC2Ev
	.weak	_ZNSt12_Vector_baseIlSaIlEE17_Vector_impl_dataC1Ev
	.set	_ZNSt12_Vector_baseIlSaIlEE17_Vector_impl_dataC1Ev,_ZNSt12_Vector_baseIlSaIlEE17_Vector_impl_dataC2Ev
	.section	.text._ZNK9container6tensorIdJLl2ELl3ELl5EEE5shapeEv,"axG",@progbits,_ZNK9container6tensorIdJLl2ELl3ELl5EEE5shapeEv,comdat
	.align 2
	.weak	_ZNK9container6tensorIdJLl2ELl3ELl5EEE5shapeEv
	.type	_ZNK9container6tensorIdJLl2ELl3ELl5EEE5shapeEv, @function
_ZNK9container6tensorIdJLl2ELl3ELl5EEE5shapeEv:
.LFB3142:
	.loc 5 86 32
	.cfi_startproc
	.cfi_personality 0x9b,DW.ref.__gxx_personality_v0
	.cfi_lsda 0x1b,.LLSDA3142
	pushq	%rbp	#
	.cfi_def_cfa_offset 16
	.cfi_offset 6, -16
	movq	%rsp, %rbp	#,
	.cfi_def_cfa_register 6
	subq	$16, %rsp	#,
	movq	%rdi, -8(%rbp)	# .result_ptr, .result_ptr
	movq	%rsi, -16(%rbp)	# this, this
# src/Tensor/Tensor.hpp:88:             return this->_dims;
	.loc 5 88 26
	movq	-16(%rbp), %rax	# this, tmp83
	leaq	24(%rax), %rdx	#, _1
	movq	-8(%rbp), %rax	# <retval>, tmp84
	movq	%rdx, %rsi	# _1,
	movq	%rax, %rdi	# tmp84,
	call	_ZNSt6vectorIlSaIlEEC1ERKS1_	#
# src/Tensor/Tensor.hpp:89:         }
	.loc 5 89 9
	movq	-8(%rbp), %rax	# <retval>,
	leave	
	.cfi_def_cfa 7, 8
	ret	
	.cfi_endproc
.LFE3142:
	.section	.gcc_except_table
.LLSDA3142:
	.byte	0xff
	.byte	0xff
	.byte	0x1
	.uleb128 .LLSDACSE3142-.LLSDACSB3142
.LLSDACSB3142:
.LLSDACSE3142:
	.section	.text._ZNK9container6tensorIdJLl2ELl3ELl5EEE5shapeEv,"axG",@progbits,_ZNK9container6tensorIdJLl2ELl3ELl5EEE5shapeEv,comdat
	.size	_ZNK9container6tensorIdJLl2ELl3ELl5EEE5shapeEv, .-_ZNK9container6tensorIdJLl2ELl3ELl5EEE5shapeEv
	.section	.text._ZSt4moveISt6vectorIlSaIlEEEONSt16remove_referenceIT_E4typeEOS4_,"axG",@progbits,_ZSt4moveISt6vectorIlSaIlEEEONSt16remove_referenceIT_E4typeEOS4_,comdat
	.weak	_ZSt4moveISt6vectorIlSaIlEEEONSt16remove_referenceIT_E4typeEOS4_
	.type	_ZSt4moveISt6vectorIlSaIlEEEONSt16remove_referenceIT_E4typeEOS4_, @function
_ZSt4moveISt6vectorIlSaIlEEEONSt16remove_referenceIT_E4typeEOS4_:
.LFB3143:
	.file 15 "/usr/include/c++/12/bits/move.h"
	.loc 15 104 5
	.cfi_startproc
	pushq	%rbp	#
	.cfi_def_cfa_offset 16
	.cfi_offset 6, -16
	movq	%rsp, %rbp	#,
	.cfi_def_cfa_register 6
	movq	%rdi, -8(%rbp)	# __t, __t
# /usr/include/c++/12/bits/move.h:105:     { return static_cast<typename std::remove_reference<_Tp>::type&&>(__t); }
	.loc 15 105 74
	movq	-8(%rbp), %rax	# __t, _2
# /usr/include/c++/12/bits/move.h:105:     { return static_cast<typename std::remove_reference<_Tp>::type&&>(__t); }
	.loc 15 105 77
	popq	%rbp	#
	.cfi_def_cfa 7, 8
	ret	
	.cfi_endproc
.LFE3143:
	.size	_ZSt4moveISt6vectorIlSaIlEEEONSt16remove_referenceIT_E4typeEOS4_, .-_ZSt4moveISt6vectorIlSaIlEEEONSt16remove_referenceIT_E4typeEOS4_
	.section	.text._ZNSt12_Vector_baseIlSaIlEE12_Vector_implC2EOS2_,"axG",@progbits,_ZNSt12_Vector_baseIlSaIlEE12_Vector_implC5EOS2_,comdat
	.align 2
	.weak	_ZNSt12_Vector_baseIlSaIlEE12_Vector_implC2EOS2_
	.type	_ZNSt12_Vector_baseIlSaIlEE12_Vector_implC2EOS2_, @function
_ZNSt12_Vector_baseIlSaIlEE12_Vector_implC2EOS2_:
.LFB3145:
	.loc 7 151 2
	.cfi_startproc
	pushq	%rbp	#
	.cfi_def_cfa_offset 16
	.cfi_offset 6, -16
	movq	%rsp, %rbp	#,
	.cfi_def_cfa_register 6
	pushq	%rbx	#
	subq	$24, %rsp	#,
	.cfi_offset 3, -24
	movq	%rdi, -24(%rbp)	# this, this
	movq	%rsi, -32(%rbp)	# __x, __x
.LBB34:
# /usr/include/c++/12/bits/stl_vector.h:152: 	: _Tp_alloc_type(std::move(__x)), _Vector_impl_data(std::move(__x))
	.loc 7 152 28
	movq	-32(%rbp), %rax	# __x, tmp86
	movq	%rax, %rdi	# tmp86,
	call	_ZSt4moveIRNSt12_Vector_baseIlSaIlEE12_Vector_implEEONSt16remove_referenceIT_E4typeEOS6_	#
	movq	%rax, %rdx	#, _1
# /usr/include/c++/12/bits/stl_vector.h:152: 	: _Tp_alloc_type(std::move(__x)), _Vector_impl_data(std::move(__x))
	.loc 7 152 68
	movq	-24(%rbp), %rax	# this, tmp87
	movq	%rdx, %rsi	# _1,
	movq	%rax, %rdi	# tmp87,
	call	_ZNSaIlEC2ERKS_	#
	movq	-24(%rbp), %rbx	# this, _2
# /usr/include/c++/12/bits/stl_vector.h:152: 	: _Tp_alloc_type(std::move(__x)), _Vector_impl_data(std::move(__x))
	.loc 7 152 63
	movq	-32(%rbp), %rax	# __x, tmp88
	movq	%rax, %rdi	# tmp88,
	call	_ZSt4moveIRNSt12_Vector_baseIlSaIlEE12_Vector_implEEONSt16remove_referenceIT_E4typeEOS6_	#
# /usr/include/c++/12/bits/stl_vector.h:152: 	: _Tp_alloc_type(std::move(__x)), _Vector_impl_data(std::move(__x))
	.loc 7 152 68
	movq	%rax, %rsi	# _4,
	movq	%rbx, %rdi	# _2,
	call	_ZNSt12_Vector_baseIlSaIlEE17_Vector_impl_dataC2EOS2_	#
.LBE34:
# /usr/include/c++/12/bits/stl_vector.h:153: 	{ }
	.loc 7 153 4
	nop	
	movq	-8(%rbp), %rbx	#,
	leave	
	.cfi_def_cfa 7, 8
	ret	
	.cfi_endproc
.LFE3145:
	.size	_ZNSt12_Vector_baseIlSaIlEE12_Vector_implC2EOS2_, .-_ZNSt12_Vector_baseIlSaIlEE12_Vector_implC2EOS2_
	.weak	_ZNSt12_Vector_baseIlSaIlEE12_Vector_implC1EOS2_
	.set	_ZNSt12_Vector_baseIlSaIlEE12_Vector_implC1EOS2_,_ZNSt12_Vector_baseIlSaIlEE12_Vector_implC2EOS2_
	.section	.text._ZSt4moveIRSt6vectorIlSaIlEEEONSt16remove_referenceIT_E4typeEOS5_,"axG",@progbits,_ZSt4moveIRSt6vectorIlSaIlEEEONSt16remove_referenceIT_E4typeEOS5_,comdat
	.weak	_ZSt4moveIRSt6vectorIlSaIlEEEONSt16remove_referenceIT_E4typeEOS5_
	.type	_ZSt4moveIRSt6vectorIlSaIlEEEONSt16remove_referenceIT_E4typeEOS5_, @function
_ZSt4moveIRSt6vectorIlSaIlEEEONSt16remove_referenceIT_E4typeEOS5_:
.LFB3147:
	.loc 15 104 5
	.cfi_startproc
	pushq	%rbp	#
	.cfi_def_cfa_offset 16
	.cfi_offset 6, -16
	movq	%rsp, %rbp	#,
	.cfi_def_cfa_register 6
	movq	%rdi, -8(%rbp)	# __t, __t
# /usr/include/c++/12/bits/move.h:105:     { return static_cast<typename std::remove_reference<_Tp>::type&&>(__t); }
	.loc 15 105 74
	movq	-8(%rbp), %rax	# __t, _2
# /usr/include/c++/12/bits/move.h:105:     { return static_cast<typename std::remove_reference<_Tp>::type&&>(__t); }
	.loc 15 105 77
	popq	%rbp	#
	.cfi_def_cfa 7, 8
	ret	
	.cfi_endproc
.LFE3147:
	.size	_ZSt4moveIRSt6vectorIlSaIlEEEONSt16remove_referenceIT_E4typeEOS5_, .-_ZSt4moveIRSt6vectorIlSaIlEEEONSt16remove_referenceIT_E4typeEOS5_
	.section	.text._ZNSt6vectorIlSaIlEEaSEOS1_,"axG",@progbits,_ZNSt6vectorIlSaIlEEaSEOS1_,comdat
	.align 2
	.weak	_ZNSt6vectorIlSaIlEEaSEOS1_
	.type	_ZNSt6vectorIlSaIlEEaSEOS1_, @function
_ZNSt6vectorIlSaIlEEaSEOS1_:
.LFB3148:
	.loc 7 761 7
	.cfi_startproc
	pushq	%rbp	#
	.cfi_def_cfa_offset 16
	.cfi_offset 6, -16
	movq	%rsp, %rbp	#,
	.cfi_def_cfa_register 6
	subq	$32, %rsp	#,
	movq	%rdi, -24(%rbp)	# this, this
	movq	%rsi, -32(%rbp)	# __x, __x
# /usr/include/c++/12/bits/stl_vector.h:763: 	constexpr bool __move_storage =
	.loc 7 763 17
	movb	$1, -1(%rbp)	#, __move_storage
# /usr/include/c++/12/bits/stl_vector.h:766: 	_M_move_assign(std::move(__x), __bool_constant<__move_storage>());
	.loc 7 766 26
	movq	-32(%rbp), %rax	# __x, tmp86
	movq	%rax, %rdi	# tmp86,
	call	_ZSt4moveIRSt6vectorIlSaIlEEEONSt16remove_referenceIT_E4typeEOS5_	#
	movq	%rax, %rdx	#, _1
# /usr/include/c++/12/bits/stl_vector.h:766: 	_M_move_assign(std::move(__x), __bool_constant<__move_storage>());
	.loc 7 766 16
	movq	-24(%rbp), %rax	# this, tmp87
	movq	%rdx, %rsi	# _1,
	movq	%rax, %rdi	# tmp87,
	call	_ZNSt6vectorIlSaIlEE14_M_move_assignEOS1_St17integral_constantIbLb1EE	#
# /usr/include/c++/12/bits/stl_vector.h:767: 	return *this;
	.loc 7 767 10
	movq	-24(%rbp), %rax	# this, _8
# /usr/include/c++/12/bits/stl_vector.h:768:       }
	.loc 7 768 7
	leave	
	.cfi_def_cfa 7, 8
	ret	
	.cfi_endproc
.LFE3148:
	.size	_ZNSt6vectorIlSaIlEEaSEOS1_, .-_ZNSt6vectorIlSaIlEEaSEOS1_
	.section	.text._ZNKSt6vectorIdSaIdEE5beginEv,"axG",@progbits,_ZNKSt6vectorIdSaIdEE5beginEv,comdat
	.align 2
	.weak	_ZNKSt6vectorIdSaIdEE5beginEv
	.type	_ZNKSt6vectorIdSaIdEE5beginEv, @function
_ZNKSt6vectorIdSaIdEE5beginEv:
.LFB3149:
	.loc 7 878 7
	.cfi_startproc
	pushq	%rbp	#
	.cfi_def_cfa_offset 16
	.cfi_offset 6, -16
	movq	%rsp, %rbp	#,
	.cfi_def_cfa_register 6
	subq	$32, %rsp	#,
	movq	%rdi, -24(%rbp)	# this, this
# /usr/include/c++/12/bits/stl_vector.h:879:       { return const_iterator(this->_M_impl._M_start); }
	.loc 7 879 45
	movq	-24(%rbp), %rdx	# this, _1
# /usr/include/c++/12/bits/stl_vector.h:879:       { return const_iterator(this->_M_impl._M_start); }
	.loc 7 879 16
	leaq	-8(%rbp), %rax	#, tmp85
	movq	%rdx, %rsi	# _1,
	movq	%rax, %rdi	# tmp85,
	call	_ZN9__gnu_cxx17__normal_iteratorIPKdSt6vectorIdSaIdEEEC1ERKS2_	#
# /usr/include/c++/12/bits/stl_vector.h:879:       { return const_iterator(this->_M_impl._M_start); }
	.loc 7 879 53
	movq	-8(%rbp), %rax	# D.65355, D.68278
# /usr/include/c++/12/bits/stl_vector.h:879:       { return const_iterator(this->_M_impl._M_start); }
	.loc 7 879 56
	leave	
	.cfi_def_cfa 7, 8
	ret	
	.cfi_endproc
.LFE3149:
	.size	_ZNKSt6vectorIdSaIdEE5beginEv, .-_ZNKSt6vectorIdSaIdEE5beginEv
	.section	.text._ZNKSt6vectorIdSaIdEE3endEv,"axG",@progbits,_ZNKSt6vectorIdSaIdEE3endEv,comdat
	.align 2
	.weak	_ZNKSt6vectorIdSaIdEE3endEv
	.type	_ZNKSt6vectorIdSaIdEE3endEv, @function
_ZNKSt6vectorIdSaIdEE3endEv:
.LFB3150:
	.loc 7 898 7
	.cfi_startproc
	pushq	%rbp	#
	.cfi_def_cfa_offset 16
	.cfi_offset 6, -16
	movq	%rsp, %rbp	#,
	.cfi_def_cfa_register 6
	subq	$32, %rsp	#,
	movq	%rdi, -24(%rbp)	# this, this
# /usr/include/c++/12/bits/stl_vector.h:899:       { return const_iterator(this->_M_impl._M_finish); }
	.loc 7 899 45
	movq	-24(%rbp), %rax	# this, tmp85
	leaq	8(%rax), %rdx	#, _1
# /usr/include/c++/12/bits/stl_vector.h:899:       { return const_iterator(this->_M_impl._M_finish); }
	.loc 7 899 16
	leaq	-8(%rbp), %rax	#, tmp86
	movq	%rdx, %rsi	# _1,
	movq	%rax, %rdi	# tmp86,
	call	_ZN9__gnu_cxx17__normal_iteratorIPKdSt6vectorIdSaIdEEEC1ERKS2_	#
# /usr/include/c++/12/bits/stl_vector.h:899:       { return const_iterator(this->_M_impl._M_finish); }
	.loc 7 899 54
	movq	-8(%rbp), %rax	# D.65357, D.68273
# /usr/include/c++/12/bits/stl_vector.h:899:       { return const_iterator(this->_M_impl._M_finish); }
	.loc 7 899 57
	leave	
	.cfi_def_cfa 7, 8
	ret	
	.cfi_endproc
.LFE3150:
	.size	_ZNKSt6vectorIdSaIdEE3endEv, .-_ZNKSt6vectorIdSaIdEE3endEv
	.section	.text._ZNSt6vectorIdSaIdEE5beginEv,"axG",@progbits,_ZNSt6vectorIdSaIdEE5beginEv,comdat
	.align 2
	.weak	_ZNSt6vectorIdSaIdEE5beginEv
	.type	_ZNSt6vectorIdSaIdEE5beginEv, @function
_ZNSt6vectorIdSaIdEE5beginEv:
.LFB3151:
	.loc 7 868 7
	.cfi_startproc
	pushq	%rbp	#
	.cfi_def_cfa_offset 16
	.cfi_offset 6, -16
	movq	%rsp, %rbp	#,
	.cfi_def_cfa_register 6
	subq	$32, %rsp	#,
	movq	%rdi, -24(%rbp)	# this, this
# /usr/include/c++/12/bits/stl_vector.h:869:       { return iterator(this->_M_impl._M_start); }
	.loc 7 869 39
	movq	-24(%rbp), %rdx	# this, _1
# /usr/include/c++/12/bits/stl_vector.h:869:       { return iterator(this->_M_impl._M_start); }
	.loc 7 869 16
	leaq	-8(%rbp), %rax	#, tmp85
	movq	%rdx, %rsi	# _1,
	movq	%rax, %rdi	# tmp85,
	call	_ZN9__gnu_cxx17__normal_iteratorIPdSt6vectorIdSaIdEEEC1ERKS1_	#
# /usr/include/c++/12/bits/stl_vector.h:869:       { return iterator(this->_M_impl._M_start); }
	.loc 7 869 47
	movq	-8(%rbp), %rax	# D.65377, D.68268
# /usr/include/c++/12/bits/stl_vector.h:869:       { return iterator(this->_M_impl._M_start); }
	.loc 7 869 50
	leave	
	.cfi_def_cfa 7, 8
	ret	
	.cfi_endproc
.LFE3151:
	.size	_ZNSt6vectorIdSaIdEE5beginEv, .-_ZNSt6vectorIdSaIdEE5beginEv
	.section	.text._ZSt4copyIN9__gnu_cxx17__normal_iteratorIPKdSt6vectorIdSaIdEEEENS1_IPdS6_EEET0_T_SB_SA_,"axG",@progbits,_ZSt4copyIN9__gnu_cxx17__normal_iteratorIPKdSt6vectorIdSaIdEEEENS1_IPdS6_EEET0_T_SB_SA_,comdat
	.weak	_ZSt4copyIN9__gnu_cxx17__normal_iteratorIPKdSt6vectorIdSaIdEEEENS1_IPdS6_EEET0_T_SB_SA_
	.type	_ZSt4copyIN9__gnu_cxx17__normal_iteratorIPKdSt6vectorIdSaIdEEEENS1_IPdS6_EEET0_T_SB_SA_, @function
_ZSt4copyIN9__gnu_cxx17__normal_iteratorIPKdSt6vectorIdSaIdEEEENS1_IPdS6_EEET0_T_SB_SA_:
.LFB3152:
	.loc 2 611 5
	.cfi_startproc
	pushq	%rbp	#
	.cfi_def_cfa_offset 16
	.cfi_offset 6, -16
	movq	%rsp, %rbp	#,
	.cfi_def_cfa_register 6
	pushq	%rbx	#
	subq	$40, %rsp	#,
	.cfi_offset 3, -24
	movq	%rdi, -24(%rbp)	# __first, __first
	movq	%rsi, -32(%rbp)	# __last, __last
	movq	%rdx, -40(%rbp)	# __result, __result
# /usr/include/c++/12/bits/stl_algobase.h:620: 	     (std::__miter_base(__first), std::__miter_base(__last), __result);
	.loc 2 620 7
	movq	-32(%rbp), %rax	# __last, tmp86
	movq	%rax, %rdi	# tmp86,
	call	_ZSt12__miter_baseIN9__gnu_cxx17__normal_iteratorIPKdSt6vectorIdSaIdEEEEET_S8_	#
	movq	%rax, %rbx	#, D.68282
	movq	-24(%rbp), %rax	# __first, tmp87
	movq	%rax, %rdi	# tmp87,
	call	_ZSt12__miter_baseIN9__gnu_cxx17__normal_iteratorIPKdSt6vectorIdSaIdEEEEET_S8_	#
	movq	%rax, %rcx	#, D.68283
	movq	-40(%rbp), %rax	# __result, tmp88
	movq	%rax, %rdx	# tmp88,
	movq	%rbx, %rsi	# D.68282,
	movq	%rcx, %rdi	# D.68283,
	call	_ZSt13__copy_move_aILb0EN9__gnu_cxx17__normal_iteratorIPKdSt6vectorIdSaIdEEEENS1_IPdS6_EEET1_T0_SB_SA_	#
# /usr/include/c++/12/bits/stl_algobase.h:621:     }
	.loc 2 621 5
	movq	-8(%rbp), %rbx	#,
	leave	
	.cfi_def_cfa 7, 8
	ret	
	.cfi_endproc
.LFE3152:
	.size	_ZSt4copyIN9__gnu_cxx17__normal_iteratorIPKdSt6vectorIdSaIdEEEENS1_IPdS6_EEET0_T_SB_SA_, .-_ZSt4copyIN9__gnu_cxx17__normal_iteratorIPKdSt6vectorIdSaIdEEEENS1_IPdS6_EEET0_T_SB_SA_
	.section	.text._ZSt8for_eachIN9__gnu_cxx17__normal_iteratorIPlSt6vectorIlSaIlEEEEZN9container6tensorIdJLl2ELl3ELl55EEE11_initializeEvEUliE_ET0_T_SC_SB_,"axG",@progbits,_ZSt8for_eachIN9__gnu_cxx17__normal_iteratorIPlSt6vectorIlSaIlEEEEZN9container6tensorIdJLl2ELl3ELl55EEE11_initializeEvEUliE_ET0_T_SC_SB_,comdat
	.weak	_ZSt8for_eachIN9__gnu_cxx17__normal_iteratorIPlSt6vectorIlSaIlEEEEZN9container6tensorIdJLl2ELl3ELl55EEE11_initializeEvEUliE_ET0_T_SC_SB_
	.type	_ZSt8for_eachIN9__gnu_cxx17__normal_iteratorIPlSt6vectorIlSaIlEEEEZN9container6tensorIdJLl2ELl3ELl55EEE11_initializeEvEUliE_ET0_T_SC_SB_, @function
_ZSt8for_eachIN9__gnu_cxx17__normal_iteratorIPlSt6vectorIlSaIlEEEEZN9container6tensorIdJLl2ELl3ELl55EEE11_initializeEvEUliE_ET0_T_SC_SB_:
.LFB3153:
	.loc 13 3781 5
	.cfi_startproc
	pushq	%rbp	#
	.cfi_def_cfa_offset 16
	.cfi_offset 6, -16
	movq	%rsp, %rbp	#,
	.cfi_def_cfa_register 6
	subq	$32, %rsp	#,
	movq	%rdi, -8(%rbp)	# __first, __first
	movq	%rsi, -16(%rbp)	# __last, __last
	movq	%rdx, -24(%rbp)	# __f, __f
# /usr/include/c++/12/bits/stl_algo.h:3786:       for (; __first != __last; ++__first)
	.loc 13 3786 7
	jmp	.L182	#
.L183:
# /usr/include/c++/12/bits/stl_algo.h:3787: 	__f(*__first);
	.loc 13 3787 6 discriminator 2
	leaq	-8(%rbp), %rax	#, tmp88
	movq	%rax, %rdi	# tmp88,
	call	_ZNK9__gnu_cxx17__normal_iteratorIPlSt6vectorIlSaIlEEEdeEv	#
# /usr/include/c++/12/bits/stl_algo.h:3787: 	__f(*__first);
	.loc 13 3787 5 discriminator 2
	movq	(%rax), %rax	# *_1, _2
	movl	%eax, %edx	# _2, _3
	leaq	-24(%rbp), %rax	#, tmp89
	movl	%edx, %esi	# _3,
	movq	%rax, %rdi	# tmp89,
	call	_ZZN9container6tensorIdJLl2ELl3ELl55EEE11_initializeEvENKUliE_clEi	#
# /usr/include/c++/12/bits/stl_algo.h:3786:       for (; __first != __last; ++__first)
	.loc 13 3786 33 discriminator 2
	leaq	-8(%rbp), %rax	#, tmp90
	movq	%rax, %rdi	# tmp90,
	call	_ZN9__gnu_cxx17__normal_iteratorIPlSt6vectorIlSaIlEEEppEv	#
.L182:
# /usr/include/c++/12/bits/stl_algo.h:3786:       for (; __first != __last; ++__first)
	.loc 13 3786 22 discriminator 1
	leaq	-16(%rbp), %rdx	#, tmp91
	leaq	-8(%rbp), %rax	#, tmp92
	movq	%rdx, %rsi	# tmp91,
	movq	%rax, %rdi	# tmp92,
	call	_ZN9__gnu_cxxneIPlSt6vectorIlSaIlEEEEbRKNS_17__normal_iteratorIT_T0_EESA_	#
	testb	%al, %al	# retval.34_7
	jne	.L183	#,
# /usr/include/c++/12/bits/stl_algo.h:3788:       return __f; // N.B. [alg.foreach] says std::move(f) but it's redundant.
	.loc 13 3788 14
	movq	-24(%rbp), %rax	# __f, D.68324
# /usr/include/c++/12/bits/stl_algo.h:3789:     }
	.loc 13 3789 5
	leave	
	.cfi_def_cfa 7, 8
	ret	
	.cfi_endproc
.LFE3153:
	.size	_ZSt8for_eachIN9__gnu_cxx17__normal_iteratorIPlSt6vectorIlSaIlEEEEZN9container6tensorIdJLl2ELl3ELl55EEE11_initializeEvEUliE_ET0_T_SC_SB_, .-_ZSt8for_eachIN9__gnu_cxx17__normal_iteratorIPlSt6vectorIlSaIlEEEEZN9container6tensorIdJLl2ELl3ELl55EEE11_initializeEvEUliE_ET0_T_SC_SB_
	.section	.text._ZNK9container6tensorIdJLl2ELl3ELl55EEE5shapeEv,"axG",@progbits,_ZNK9container6tensorIdJLl2ELl3ELl55EEE5shapeEv,comdat
	.align 2
	.weak	_ZNK9container6tensorIdJLl2ELl3ELl55EEE5shapeEv
	.type	_ZNK9container6tensorIdJLl2ELl3ELl55EEE5shapeEv, @function
_ZNK9container6tensorIdJLl2ELl3ELl55EEE5shapeEv:
.LFB3154:
	.loc 5 86 32
	.cfi_startproc
	.cfi_personality 0x9b,DW.ref.__gxx_personality_v0
	.cfi_lsda 0x1b,.LLSDA3154
	pushq	%rbp	#
	.cfi_def_cfa_offset 16
	.cfi_offset 6, -16
	movq	%rsp, %rbp	#,
	.cfi_def_cfa_register 6
	subq	$16, %rsp	#,
	movq	%rdi, -8(%rbp)	# .result_ptr, .result_ptr
	movq	%rsi, -16(%rbp)	# this, this
# src/Tensor/Tensor.hpp:88:             return this->_dims;
	.loc 5 88 26
	movq	-16(%rbp), %rax	# this, tmp83
	leaq	24(%rax), %rdx	#, _1
	movq	-8(%rbp), %rax	# <retval>, tmp84
	movq	%rdx, %rsi	# _1,
	movq	%rax, %rdi	# tmp84,
	call	_ZNSt6vectorIlSaIlEEC1ERKS1_	#
# src/Tensor/Tensor.hpp:89:         }
	.loc 5 89 9
	movq	-8(%rbp), %rax	# <retval>,
	leave	
	.cfi_def_cfa 7, 8
	ret	
	.cfi_endproc
.LFE3154:
	.section	.gcc_except_table
.LLSDA3154:
	.byte	0xff
	.byte	0xff
	.byte	0x1
	.uleb128 .LLSDACSE3154-.LLSDACSB3154
.LLSDACSB3154:
.LLSDACSE3154:
	.section	.text._ZNK9container6tensorIdJLl2ELl3ELl55EEE5shapeEv,"axG",@progbits,_ZNK9container6tensorIdJLl2ELl3ELl55EEE5shapeEv,comdat
	.size	_ZNK9container6tensorIdJLl2ELl3ELl55EEE5shapeEv, .-_ZNK9container6tensorIdJLl2ELl3ELl55EEE5shapeEv
	.section	.text._ZSt5equalIN9__gnu_cxx17__normal_iteratorIPlSt6vectorIlSaIlEEEES6_EbT_S7_T0_S8_,"axG",@progbits,_ZSt5equalIN9__gnu_cxx17__normal_iteratorIPlSt6vectorIlSaIlEEEES6_EbT_S7_T0_S8_,comdat
	.weak	_ZSt5equalIN9__gnu_cxx17__normal_iteratorIPlSt6vectorIlSaIlEEEES6_EbT_S7_T0_S8_
	.type	_ZSt5equalIN9__gnu_cxx17__normal_iteratorIPlSt6vectorIlSaIlEEEES6_EbT_S7_T0_S8_, @function
_ZSt5equalIN9__gnu_cxx17__normal_iteratorIPlSt6vectorIlSaIlEEEES6_EbT_S7_T0_S8_:
.LFB3155:
	.loc 2 1666 5
	.cfi_startproc
	pushq	%rbp	#
	.cfi_def_cfa_offset 16
	.cfi_offset 6, -16
	movq	%rsp, %rbp	#,
	.cfi_def_cfa_register 6
	subq	$32, %rsp	#,
	movq	%rdi, -8(%rbp)	# __first1, __first1
	movq	%rsi, -16(%rbp)	# __last1, __last1
	movq	%rdx, -24(%rbp)	# __first2, __first2
	movq	%rcx, -32(%rbp)	# __last2, __last2
# /usr/include/c++/12/bits/stl_algobase.h:1677:       return _GLIBCXX_STD_A::__equal4(__first1, __last1, __first2, __last2);
	.loc 2 1677 38
	movq	-32(%rbp), %rcx	# __last2, tmp84
	movq	-24(%rbp), %rdx	# __first2, tmp85
	movq	-16(%rbp), %rsi	# __last1, tmp86
	movq	-8(%rbp), %rax	# __first1, tmp87
	movq	%rax, %rdi	# tmp87,
	call	_ZSt8__equal4IN9__gnu_cxx17__normal_iteratorIPlSt6vectorIlSaIlEEEES6_EbT_S7_T0_S8_	#
# /usr/include/c++/12/bits/stl_algobase.h:1678:     }
	.loc 2 1678 5
	leave	
	.cfi_def_cfa 7, 8
	ret	
	.cfi_endproc
.LFE3155:
	.size	_ZSt5equalIN9__gnu_cxx17__normal_iteratorIPlSt6vectorIlSaIlEEEES6_EbT_S7_T0_S8_, .-_ZSt5equalIN9__gnu_cxx17__normal_iteratorIPlSt6vectorIlSaIlEEEES6_EbT_S7_T0_S8_
	.section	.text._ZNK9container6tensorIdJLl2ELl3ELl55EEE4sizeEv,"axG",@progbits,_ZNK9container6tensorIdJLl2ELl3ELl55EEE4sizeEv,comdat
	.align 2
	.weak	_ZNK9container6tensorIdJLl2ELl3ELl55EEE4sizeEv
	.type	_ZNK9container6tensorIdJLl2ELl3ELl55EEE4sizeEv, @function
_ZNK9container6tensorIdJLl2ELl3ELl55EEE4sizeEv:
.LFB3156:
	.loc 5 81 19
	.cfi_startproc
	pushq	%rbp	#
	.cfi_def_cfa_offset 16
	.cfi_offset 6, -16
	movq	%rsp, %rbp	#,
	.cfi_def_cfa_register 6
	subq	$16, %rsp	#,
	movq	%rdi, -8(%rbp)	# this, this
# src/Tensor/Tensor.hpp:83:             return this->_data.size();
	.loc 5 83 36
	movq	-8(%rbp), %rax	# this, _1
	movq	%rax, %rdi	# _1,
	call	_ZNKSt6vectorIdSaIdEE4sizeEv	#
# src/Tensor/Tensor.hpp:84:         }
	.loc 5 84 9
	leave	
	.cfi_def_cfa 7, 8
	ret	
	.cfi_endproc
.LFE3156:
	.size	_ZNK9container6tensorIdJLl2ELl3ELl55EEE4sizeEv, .-_ZNK9container6tensorIdJLl2ELl3ELl55EEE4sizeEv
	.section	.text._ZNSt15__new_allocatorIdEC2Ev,"axG",@progbits,_ZNSt15__new_allocatorIdEC5Ev,comdat
	.align 2
	.weak	_ZNSt15__new_allocatorIdEC2Ev
	.type	_ZNSt15__new_allocatorIdEC2Ev, @function
_ZNSt15__new_allocatorIdEC2Ev:
.LFB3212:
	.loc 10 80 7
	.cfi_startproc
	pushq	%rbp	#
	.cfi_def_cfa_offset 16
	.cfi_offset 6, -16
	movq	%rsp, %rbp	#,
	.cfi_def_cfa_register 6
	movq	%rdi, -8(%rbp)	# this, this
# /usr/include/c++/12/bits/new_allocator.h:80:       __new_allocator() _GLIBCXX_USE_NOEXCEPT { }
	.loc 10 80 49
	nop	
	popq	%rbp	#
	.cfi_def_cfa 7, 8
	ret	
	.cfi_endproc
.LFE3212:
	.size	_ZNSt15__new_allocatorIdEC2Ev, .-_ZNSt15__new_allocatorIdEC2Ev
	.weak	_ZNSt15__new_allocatorIdEC1Ev
	.set	_ZNSt15__new_allocatorIdEC1Ev,_ZNSt15__new_allocatorIdEC2Ev
	.section	.text._ZNSt16allocator_traitsISaIdEE10deallocateERS0_Pdm,"axG",@progbits,_ZNSt16allocator_traitsISaIdEE10deallocateERS0_Pdm,comdat
	.weak	_ZNSt16allocator_traitsISaIdEE10deallocateERS0_Pdm
	.type	_ZNSt16allocator_traitsISaIdEE10deallocateERS0_Pdm, @function
_ZNSt16allocator_traitsISaIdEE10deallocateERS0_Pdm:
.LFB3214:
	.loc 9 495 7
	.cfi_startproc
	pushq	%rbp	#
	.cfi_def_cfa_offset 16
	.cfi_offset 6, -16
	movq	%rsp, %rbp	#,
	.cfi_def_cfa_register 6
	subq	$32, %rsp	#,
	movq	%rdi, -8(%rbp)	# __a, __a
	movq	%rsi, -16(%rbp)	# __p, __p
	movq	%rdx, -24(%rbp)	# __n, __n
# /usr/include/c++/12/bits/alloc_traits.h:496:       { __a.deallocate(__p, __n); }
	.loc 9 496 23
	movq	-24(%rbp), %rdx	# __n, tmp82
	movq	-16(%rbp), %rcx	# __p, tmp83
	movq	-8(%rbp), %rax	# __a, tmp84
	movq	%rcx, %rsi	# tmp83,
	movq	%rax, %rdi	# tmp84,
	call	_ZNSt15__new_allocatorIdE10deallocateEPdm	#
# /usr/include/c++/12/bits/alloc_traits.h:496:       { __a.deallocate(__p, __n); }
	.loc 9 496 35
	nop	
	leave	
	.cfi_def_cfa 7, 8
	ret	
	.cfi_endproc
.LFE3214:
	.size	_ZNSt16allocator_traitsISaIdEE10deallocateERS0_Pdm, .-_ZNSt16allocator_traitsISaIdEE10deallocateERS0_Pdm
	.section	.text._ZNSt12_Vector_baseIlSaIlEE12_Vector_implC2ERKS0_,"axG",@progbits,_ZNSt12_Vector_baseIlSaIlEE12_Vector_implC5ERKS0_,comdat
	.align 2
	.weak	_ZNSt12_Vector_baseIlSaIlEE12_Vector_implC2ERKS0_
	.type	_ZNSt12_Vector_baseIlSaIlEE12_Vector_implC2ERKS0_, @function
_ZNSt12_Vector_baseIlSaIlEE12_Vector_implC2ERKS0_:
.LFB3216:
	.loc 7 143 2
	.cfi_startproc
	pushq	%rbp	#
	.cfi_def_cfa_offset 16
	.cfi_offset 6, -16
	movq	%rsp, %rbp	#,
	.cfi_def_cfa_register 6
	subq	$16, %rsp	#,
	movq	%rdi, -8(%rbp)	# this, this
	movq	%rsi, -16(%rbp)	# __a, __a
.LBB35:
# /usr/include/c++/12/bits/stl_vector.h:144: 	: _Tp_alloc_type(__a)
	.loc 7 144 22
	movq	-16(%rbp), %rdx	# __a, tmp83
	movq	-8(%rbp), %rax	# this, tmp84
	movq	%rdx, %rsi	# tmp83,
	movq	%rax, %rdi	# tmp84,
	call	_ZNSaIlEC2ERKS_	#
	movq	-8(%rbp), %rax	# this, _1
	movq	%rax, %rdi	# _1,
	call	_ZNSt12_Vector_baseIlSaIlEE17_Vector_impl_dataC2Ev	#
.LBE35:
# /usr/include/c++/12/bits/stl_vector.h:145: 	{ }
	.loc 7 145 4
	nop	
	leave	
	.cfi_def_cfa 7, 8
	ret	
	.cfi_endproc
.LFE3216:
	.size	_ZNSt12_Vector_baseIlSaIlEE12_Vector_implC2ERKS0_, .-_ZNSt12_Vector_baseIlSaIlEE12_Vector_implC2ERKS0_
	.weak	_ZNSt12_Vector_baseIlSaIlEE12_Vector_implC1ERKS0_
	.set	_ZNSt12_Vector_baseIlSaIlEE12_Vector_implC1ERKS0_,_ZNSt12_Vector_baseIlSaIlEE12_Vector_implC2ERKS0_
	.section	.text._ZNKSt16initializer_listIlE4sizeEv,"axG",@progbits,_ZNKSt16initializer_listIlE4sizeEv,comdat
	.align 2
	.weak	_ZNKSt16initializer_listIlE4sizeEv
	.type	_ZNKSt16initializer_listIlE4sizeEv, @function
_ZNKSt16initializer_listIlE4sizeEv:
.LFB3218:
	.loc 11 71 7
	.cfi_startproc
	pushq	%rbp	#
	.cfi_def_cfa_offset 16
	.cfi_offset 6, -16
	movq	%rsp, %rbp	#,
	.cfi_def_cfa_register 6
	movq	%rdi, -8(%rbp)	# this, this
# /usr/include/c++/12/initializer_list:71:       size() const noexcept { return _M_len; }
	.loc 11 71 38
	movq	-8(%rbp), %rax	# this, tmp84
	movq	8(%rax), %rax	# this_2(D)->_M_len, _3
# /usr/include/c++/12/initializer_list:71:       size() const noexcept { return _M_len; }
	.loc 11 71 46
	popq	%rbp	#
	.cfi_def_cfa 7, 8
	ret	
	.cfi_endproc
.LFE3218:
	.size	_ZNKSt16initializer_listIlE4sizeEv, .-_ZNKSt16initializer_listIlE4sizeEv
	.section	.text._ZSt19__iterator_categoryIPKlENSt15iterator_traitsIT_E17iterator_categoryERKS3_,"axG",@progbits,_ZSt19__iterator_categoryIPKlENSt15iterator_traitsIT_E17iterator_categoryERKS3_,comdat
	.weak	_ZSt19__iterator_categoryIPKlENSt15iterator_traitsIT_E17iterator_categoryERKS3_
	.type	_ZSt19__iterator_categoryIPKlENSt15iterator_traitsIT_E17iterator_categoryERKS3_, @function
_ZSt19__iterator_categoryIPKlENSt15iterator_traitsIT_E17iterator_categoryERKS3_:
.LFB3219:
	.file 16 "/usr/include/c++/12/bits/stl_iterator_base_types.h"
	.loc 16 238 5
	.cfi_startproc
	pushq	%rbp	#
	.cfi_def_cfa_offset 16
	.cfi_offset 6, -16
	movq	%rsp, %rbp	#,
	.cfi_def_cfa_register 6
	movq	%rdi, -8(%rbp)	# D.66002, D.66002
# /usr/include/c++/12/bits/stl_iterator_base_types.h:239:     { return typename iterator_traits<_Iter>::iterator_category(); }
	.loc 16 239 65
	nop	
# /usr/include/c++/12/bits/stl_iterator_base_types.h:239:     { return typename iterator_traits<_Iter>::iterator_category(); }
	.loc 16 239 68
	popq	%rbp	#
	.cfi_def_cfa 7, 8
	ret	
	.cfi_endproc
.LFE3219:
	.size	_ZSt19__iterator_categoryIPKlENSt15iterator_traitsIT_E17iterator_categoryERKS3_, .-_ZSt19__iterator_categoryIPKlENSt15iterator_traitsIT_E17iterator_categoryERKS3_
	.section	.text._ZSt10__distanceIPKlENSt15iterator_traitsIT_E15difference_typeES3_S3_St26random_access_iterator_tag,"axG",@progbits,_ZSt10__distanceIPKlENSt15iterator_traitsIT_E15difference_typeES3_S3_St26random_access_iterator_tag,comdat
	.weak	_ZSt10__distanceIPKlENSt15iterator_traitsIT_E15difference_typeES3_S3_St26random_access_iterator_tag
	.type	_ZSt10__distanceIPKlENSt15iterator_traitsIT_E15difference_typeES3_S3_St26random_access_iterator_tag, @function
_ZSt10__distanceIPKlENSt15iterator_traitsIT_E15difference_typeES3_S3_St26random_access_iterator_tag:
.LFB3220:
	.loc 12 99 5
	.cfi_startproc
	pushq	%rbp	#
	.cfi_def_cfa_offset 16
	.cfi_offset 6, -16
	movq	%rsp, %rbp	#,
	.cfi_def_cfa_register 6
	movq	%rdi, -8(%rbp)	# __first, __first
	movq	%rsi, -16(%rbp)	# __last, __last
# /usr/include/c++/12/bits/stl_iterator_base_funcs.h:105:       return __last - __first;
	.loc 12 105 21
	movq	-16(%rbp), %rax	# __last, tmp85
	subq	-8(%rbp), %rax	# __first, _1
# /usr/include/c++/12/bits/stl_iterator_base_funcs.h:105:       return __last - __first;
	.loc 12 105 23
	sarq	$3, %rax	#, tmp86
# /usr/include/c++/12/bits/stl_iterator_base_funcs.h:106:     }
	.loc 12 106 5
	popq	%rbp	#
	.cfi_def_cfa 7, 8
	ret	
	.cfi_endproc
.LFE3220:
	.size	_ZSt10__distanceIPKlENSt15iterator_traitsIT_E15difference_typeES3_S3_St26random_access_iterator_tag, .-_ZSt10__distanceIPKlENSt15iterator_traitsIT_E15difference_typeES3_S3_St26random_access_iterator_tag
	.section	.rodata
	.align 8
.LC4:
	.string	"cannot create std::vector larger than max_size()"
	.section	.text._ZNSt6vectorIlSaIlEE17_S_check_init_lenEmRKS0_,"axG",@progbits,_ZNSt6vectorIlSaIlEE17_S_check_init_lenEmRKS0_,comdat
	.weak	_ZNSt6vectorIlSaIlEE17_S_check_init_lenEmRKS0_
	.type	_ZNSt6vectorIlSaIlEE17_S_check_init_lenEmRKS0_, @function
_ZNSt6vectorIlSaIlEE17_S_check_init_lenEmRKS0_:
.LFB3221:
	.loc 7 1902 7
	.cfi_startproc
	pushq	%rbp	#
	.cfi_def_cfa_offset 16
	.cfi_offset 6, -16
	movq	%rsp, %rbp	#,
	.cfi_def_cfa_register 6
	pushq	%rbx	#
	subq	$40, %rsp	#,
	.cfi_offset 3, -24
	movq	%rdi, -40(%rbp)	# __n, __n
	movq	%rsi, -48(%rbp)	# __a, __a
# /usr/include/c++/12/bits/stl_vector.h:1904: 	if (__n > _S_max_size(_Tp_alloc_type(__a)))
	.loc 7 1904 24
	movq	-48(%rbp), %rdx	# __a, tmp86
	leaq	-17(%rbp), %rax	#, tmp87
	movq	%rdx, %rsi	# tmp86,
	movq	%rax, %rdi	# tmp87,
	call	_ZNSaIlEC1ERKS_	#
# /usr/include/c++/12/bits/stl_vector.h:1904: 	if (__n > _S_max_size(_Tp_alloc_type(__a)))
	.loc 7 1904 23
	leaq	-17(%rbp), %rax	#, tmp88
	movq	%rax, %rdi	# tmp88,
	call	_ZNSt6vectorIlSaIlEE11_S_max_sizeERKS0_	#
# /usr/include/c++/12/bits/stl_vector.h:1904: 	if (__n > _S_max_size(_Tp_alloc_type(__a)))
	.loc 7 1904 10
	cmpq	-40(%rbp), %rax	# __n, _1
	setb	%bl	#, retval.2_7
# /usr/include/c++/12/bits/stl_vector.h:1904: 	if (__n > _S_max_size(_Tp_alloc_type(__a)))
	.loc 7 1904 24
	leaq	-17(%rbp), %rax	#, tmp89
	movq	%rax, %rdi	# tmp89,
	call	_ZNSaIlED1Ev	#
# /usr/include/c++/12/bits/stl_vector.h:1904: 	if (__n > _S_max_size(_Tp_alloc_type(__a)))
	.loc 7 1904 2
	testb	%bl, %bl	# retval.2_7
	je	.L201	#,
# /usr/include/c++/12/bits/stl_vector.h:1905: 	  __throw_length_error(
	.loc 7 1905 24
	leaq	.LC4(%rip), %rax	#, tmp90
	movq	%rax, %rdi	# tmp90,
	call	_ZSt20__throw_length_errorPKc@PLT	#
.L201:
# /usr/include/c++/12/bits/stl_vector.h:1907: 	return __n;
	.loc 7 1907 9
	movq	-40(%rbp), %rax	# __n, _10
# /usr/include/c++/12/bits/stl_vector.h:1908:       }
	.loc 7 1908 7
	movq	-8(%rbp), %rbx	#,
	leave	
	.cfi_def_cfa 7, 8
	ret	
	.cfi_endproc
.LFE3221:
	.size	_ZNSt6vectorIlSaIlEE17_S_check_init_lenEmRKS0_, .-_ZNSt6vectorIlSaIlEE17_S_check_init_lenEmRKS0_
	.section	.text._ZNSt12_Vector_baseIlSaIlEE11_M_allocateEm,"axG",@progbits,_ZNSt12_Vector_baseIlSaIlEE11_M_allocateEm,comdat
	.align 2
	.weak	_ZNSt12_Vector_baseIlSaIlEE11_M_allocateEm
	.type	_ZNSt12_Vector_baseIlSaIlEE11_M_allocateEm, @function
_ZNSt12_Vector_baseIlSaIlEE11_M_allocateEm:
.LFB3222:
	.loc 7 375 7
	.cfi_startproc
	pushq	%rbp	#
	.cfi_def_cfa_offset 16
	.cfi_offset 6, -16
	movq	%rsp, %rbp	#,
	.cfi_def_cfa_register 6
	subq	$16, %rsp	#,
	movq	%rdi, -8(%rbp)	# this, this
	movq	%rsi, -16(%rbp)	# __n, __n
# /usr/include/c++/12/bits/stl_vector.h:378: 	return __n != 0 ? _Tr::allocate(_M_impl, __n) : pointer();
	.loc 7 378 18
	cmpq	$0, -16(%rbp)	#, __n
	je	.L204	#,
# /usr/include/c++/12/bits/stl_vector.h:378: 	return __n != 0 ? _Tr::allocate(_M_impl, __n) : pointer();
	.loc 7 378 34 discriminator 1
	movq	-8(%rbp), %rax	# this, _1
# /usr/include/c++/12/bits/stl_vector.h:378: 	return __n != 0 ? _Tr::allocate(_M_impl, __n) : pointer();
	.loc 7 378 33 discriminator 1
	movq	-16(%rbp), %rdx	# __n, tmp85
	movq	%rdx, %rsi	# tmp85,
	movq	%rax, %rdi	# _1,
	call	_ZNSt16allocator_traitsISaIlEE8allocateERS0_m	#
# /usr/include/c++/12/bits/stl_vector.h:378: 	return __n != 0 ? _Tr::allocate(_M_impl, __n) : pointer();
	.loc 7 378 58 discriminator 1
	jmp	.L206	#
.L204:
# /usr/include/c++/12/bits/stl_vector.h:378: 	return __n != 0 ? _Tr::allocate(_M_impl, __n) : pointer();
	.loc 7 378 18 discriminator 2
	movl	$0, %eax	#, _9
.L206:
# /usr/include/c++/12/bits/stl_vector.h:379:       }
	.loc 7 379 7 discriminator 5
	leave	
	.cfi_def_cfa 7, 8
	ret	
	.cfi_endproc
.LFE3222:
	.size	_ZNSt12_Vector_baseIlSaIlEE11_M_allocateEm, .-_ZNSt12_Vector_baseIlSaIlEE11_M_allocateEm
	.section	.text._ZSt22__uninitialized_copy_aIPKlPllET0_T_S4_S3_RSaIT1_E,"axG",@progbits,_ZSt22__uninitialized_copy_aIPKlPllET0_T_S4_S3_RSaIT1_E,comdat
	.weak	_ZSt22__uninitialized_copy_aIPKlPllET0_T_S4_S3_RSaIT1_E
	.type	_ZSt22__uninitialized_copy_aIPKlPllET0_T_S4_S3_RSaIT1_E, @function
_ZSt22__uninitialized_copy_aIPKlPllET0_T_S4_S3_RSaIT1_E:
.LFB3223:
	.file 17 "/usr/include/c++/12/bits/stl_uninitialized.h"
	.loc 17 365 5
	.cfi_startproc
	pushq	%rbp	#
	.cfi_def_cfa_offset 16
	.cfi_offset 6, -16
	movq	%rsp, %rbp	#,
	.cfi_def_cfa_register 6
	subq	$32, %rsp	#,
	movq	%rdi, -8(%rbp)	# __first, __first
	movq	%rsi, -16(%rbp)	# __last, __last
	movq	%rdx, -24(%rbp)	# __result, __result
	movq	%rcx, -32(%rbp)	# D.66027, D.66027
# /usr/include/c++/12/bits/stl_uninitialized.h:372:       return std::uninitialized_copy(__first, __last, __result);
	.loc 17 372 37
	movq	-24(%rbp), %rdx	# __result, tmp84
	movq	-16(%rbp), %rcx	# __last, tmp85
	movq	-8(%rbp), %rax	# __first, tmp86
	movq	%rcx, %rsi	# tmp85,
	movq	%rax, %rdi	# tmp86,
	call	_ZSt18uninitialized_copyIPKlPlET0_T_S4_S3_	#
# /usr/include/c++/12/bits/stl_uninitialized.h:373:     }
	.loc 17 373 5
	leave	
	.cfi_def_cfa 7, 8
	ret	
	.cfi_endproc
.LFE3223:
	.size	_ZSt22__uninitialized_copy_aIPKlPllET0_T_S4_S3_RSaIT1_E, .-_ZSt22__uninitialized_copy_aIPKlPllET0_T_S4_S3_RSaIT1_E
	.section	.text._ZN9__gnu_cxx17__normal_iteratorIPlSt6vectorIlSaIlEEEC2ERKS1_,"axG",@progbits,_ZN9__gnu_cxx17__normal_iteratorIPlSt6vectorIlSaIlEEEC5ERKS1_,comdat
	.align 2
	.weak	_ZN9__gnu_cxx17__normal_iteratorIPlSt6vectorIlSaIlEEEC2ERKS1_
	.type	_ZN9__gnu_cxx17__normal_iteratorIPlSt6vectorIlSaIlEEEC2ERKS1_, @function
_ZN9__gnu_cxx17__normal_iteratorIPlSt6vectorIlSaIlEEEC2ERKS1_:
.LFB3225:
	.file 18 "/usr/include/c++/12/bits/stl_iterator.h"
	.loc 18 1072 7
	.cfi_startproc
	pushq	%rbp	#
	.cfi_def_cfa_offset 16
	.cfi_offset 6, -16
	movq	%rsp, %rbp	#,
	.cfi_def_cfa_register 6
	movq	%rdi, -8(%rbp)	# this, this
	movq	%rsi, -16(%rbp)	# __i, __i
.LBB36:
# /usr/include/c++/12/bits/stl_iterator.h:1073:       : _M_current(__i) { }
	.loc 18 1073 9
	movq	-16(%rbp), %rax	# __i, tmp83
	movq	(%rax), %rdx	# *__i_5(D), _1
	movq	-8(%rbp), %rax	# this, tmp84
	movq	%rdx, (%rax)	# _1, this_3(D)->_M_current
.LBE36:
# /usr/include/c++/12/bits/stl_iterator.h:1073:       : _M_current(__i) { }
	.loc 18 1073 27
	nop	
	popq	%rbp	#
	.cfi_def_cfa 7, 8
	ret	
	.cfi_endproc
.LFE3225:
	.size	_ZN9__gnu_cxx17__normal_iteratorIPlSt6vectorIlSaIlEEEC2ERKS1_, .-_ZN9__gnu_cxx17__normal_iteratorIPlSt6vectorIlSaIlEEEC2ERKS1_
	.weak	_ZN9__gnu_cxx17__normal_iteratorIPlSt6vectorIlSaIlEEEC1ERKS1_
	.set	_ZN9__gnu_cxx17__normal_iteratorIPlSt6vectorIlSaIlEEEC1ERKS1_,_ZN9__gnu_cxx17__normal_iteratorIPlSt6vectorIlSaIlEEEC2ERKS1_
	.section	.text._ZN9__gnu_cxxneIPlSt6vectorIlSaIlEEEEbRKNS_17__normal_iteratorIT_T0_EESA_,"axG",@progbits,_ZN9__gnu_cxxneIPlSt6vectorIlSaIlEEEEbRKNS_17__normal_iteratorIT_T0_EESA_,comdat
	.weak	_ZN9__gnu_cxxneIPlSt6vectorIlSaIlEEEEbRKNS_17__normal_iteratorIT_T0_EESA_
	.type	_ZN9__gnu_cxxneIPlSt6vectorIlSaIlEEEEbRKNS_17__normal_iteratorIT_T0_EESA_, @function
_ZN9__gnu_cxxneIPlSt6vectorIlSaIlEEEEbRKNS_17__normal_iteratorIT_T0_EESA_:
.LFB3227:
	.loc 18 1237 5
	.cfi_startproc
	pushq	%rbp	#
	.cfi_def_cfa_offset 16
	.cfi_offset 6, -16
	movq	%rsp, %rbp	#,
	.cfi_def_cfa_register 6
	pushq	%rbx	#
	subq	$24, %rsp	#,
	.cfi_offset 3, -24
	movq	%rdi, -24(%rbp)	# __lhs, __lhs
	movq	%rsi, -32(%rbp)	# __rhs, __rhs
# /usr/include/c++/12/bits/stl_iterator.h:1240:     { return __lhs.base() != __rhs.base(); }
	.loc 18 1240 24
	movq	-24(%rbp), %rax	# __lhs, tmp88
	movq	%rax, %rdi	# tmp88,
	call	_ZNK9__gnu_cxx17__normal_iteratorIPlSt6vectorIlSaIlEEE4baseEv	#
# /usr/include/c++/12/bits/stl_iterator.h:1240:     { return __lhs.base() != __rhs.base(); }
	.loc 18 1240 27
	movq	(%rax), %rbx	# *_1, _2
# /usr/include/c++/12/bits/stl_iterator.h:1240:     { return __lhs.base() != __rhs.base(); }
	.loc 18 1240 40
	movq	-32(%rbp), %rax	# __rhs, tmp89
	movq	%rax, %rdi	# tmp89,
	call	_ZNK9__gnu_cxx17__normal_iteratorIPlSt6vectorIlSaIlEEE4baseEv	#
# /usr/include/c++/12/bits/stl_iterator.h:1240:     { return __lhs.base() != __rhs.base(); }
	.loc 18 1240 27
	movq	(%rax), %rax	# *_3, _4
# /usr/include/c++/12/bits/stl_iterator.h:1240:     { return __lhs.base() != __rhs.base(); }
	.loc 18 1240 41
	cmpq	%rax, %rbx	# _4, _2
	setne	%al	#, _10
# /usr/include/c++/12/bits/stl_iterator.h:1240:     { return __lhs.base() != __rhs.base(); }
	.loc 18 1240 44
	movq	-8(%rbp), %rbx	#,
	leave	
	.cfi_def_cfa 7, 8
	ret	
	.cfi_endproc
.LFE3227:
	.size	_ZN9__gnu_cxxneIPlSt6vectorIlSaIlEEEEbRKNS_17__normal_iteratorIT_T0_EESA_, .-_ZN9__gnu_cxxneIPlSt6vectorIlSaIlEEEEbRKNS_17__normal_iteratorIT_T0_EESA_
	.section	.text._ZN9__gnu_cxx17__normal_iteratorIPlSt6vectorIlSaIlEEEppEv,"axG",@progbits,_ZN9__gnu_cxx17__normal_iteratorIPlSt6vectorIlSaIlEEEppEv,comdat
	.align 2
	.weak	_ZN9__gnu_cxx17__normal_iteratorIPlSt6vectorIlSaIlEEEppEv
	.type	_ZN9__gnu_cxx17__normal_iteratorIPlSt6vectorIlSaIlEEEppEv, @function
_ZN9__gnu_cxx17__normal_iteratorIPlSt6vectorIlSaIlEEEppEv:
.LFB3228:
	.loc 18 1105 7
	.cfi_startproc
	pushq	%rbp	#
	.cfi_def_cfa_offset 16
	.cfi_offset 6, -16
	movq	%rsp, %rbp	#,
	.cfi_def_cfa_register 6
	movq	%rdi, -8(%rbp)	# this, this
# /usr/include/c++/12/bits/stl_iterator.h:1107: 	++_M_current;
	.loc 18 1107 4
	movq	-8(%rbp), %rax	# this, tmp86
	movq	(%rax), %rax	# this_4(D)->_M_current, _1
# /usr/include/c++/12/bits/stl_iterator.h:1107: 	++_M_current;
	.loc 18 1107 2
	leaq	8(%rax), %rdx	#, _2
	movq	-8(%rbp), %rax	# this, tmp87
	movq	%rdx, (%rax)	# _2, this_4(D)->_M_current
# /usr/include/c++/12/bits/stl_iterator.h:1108: 	return *this;
	.loc 18 1108 10
	movq	-8(%rbp), %rax	# this, _6
# /usr/include/c++/12/bits/stl_iterator.h:1109:       }
	.loc 18 1109 7
	popq	%rbp	#
	.cfi_def_cfa 7, 8
	ret	
	.cfi_endproc
.LFE3228:
	.size	_ZN9__gnu_cxx17__normal_iteratorIPlSt6vectorIlSaIlEEEppEv, .-_ZN9__gnu_cxx17__normal_iteratorIPlSt6vectorIlSaIlEEEppEv
	.section	.text._ZNK9__gnu_cxx17__normal_iteratorIPlSt6vectorIlSaIlEEEdeEv,"axG",@progbits,_ZNK9__gnu_cxx17__normal_iteratorIPlSt6vectorIlSaIlEEEdeEv,comdat
	.align 2
	.weak	_ZNK9__gnu_cxx17__normal_iteratorIPlSt6vectorIlSaIlEEEdeEv
	.type	_ZNK9__gnu_cxx17__normal_iteratorIPlSt6vectorIlSaIlEEEdeEv, @function
_ZNK9__gnu_cxx17__normal_iteratorIPlSt6vectorIlSaIlEEEdeEv:
.LFB3229:
	.loc 18 1095 7
	.cfi_startproc
	pushq	%rbp	#
	.cfi_def_cfa_offset 16
	.cfi_offset 6, -16
	movq	%rsp, %rbp	#,
	.cfi_def_cfa_register 6
	movq	%rdi, -8(%rbp)	# this, this
# /usr/include/c++/12/bits/stl_iterator.h:1096:       { return *_M_current; }
	.loc 18 1096 17
	movq	-8(%rbp), %rax	# this, tmp84
	movq	(%rax), %rax	# this_2(D)->_M_current, _3
# /usr/include/c++/12/bits/stl_iterator.h:1096:       { return *_M_current; }
	.loc 18 1096 29
	popq	%rbp	#
	.cfi_def_cfa 7, 8
	ret	
	.cfi_endproc
.LFE3229:
	.size	_ZNK9__gnu_cxx17__normal_iteratorIPlSt6vectorIlSaIlEEEdeEv, .-_ZNK9__gnu_cxx17__normal_iteratorIPlSt6vectorIlSaIlEEEdeEv
	.section	.rodata
.LC5:
	.string	"vector::_M_default_append"
	.section	.text._ZNSt6vectorIdSaIdEE17_M_default_appendEm,"axG",@progbits,_ZNSt6vectorIdSaIdEE17_M_default_appendEm,comdat
	.align 2
	.weak	_ZNSt6vectorIdSaIdEE17_M_default_appendEm
	.type	_ZNSt6vectorIdSaIdEE17_M_default_appendEm, @function
_ZNSt6vectorIdSaIdEE17_M_default_appendEm:
.LFB3230:
	.file 19 "/usr/include/c++/12/bits/vector.tcc"
	.loc 19 626 5
	.cfi_startproc
	.cfi_personality 0x9b,DW.ref.__gxx_personality_v0
	.cfi_lsda 0x1b,.LLSDA3230
	pushq	%rbp	#
	.cfi_def_cfa_offset 16
	.cfi_offset 6, -16
	movq	%rsp, %rbp	#,
	.cfi_def_cfa_register 6
	pushq	%rbx	#
	subq	$56, %rsp	#,
	.cfi_offset 3, -24
	movq	%rdi, -56(%rbp)	# this, this
	movq	%rsi, -64(%rbp)	# __n, __n
.LBB37:
# /usr/include/c++/12/bits/vector.tcc:629:       if (__n != 0)
	.loc 19 629 7
	cmpq	$0, -64(%rbp)	#, __n
	je	.L227	#,
.LBB38:
# /usr/include/c++/12/bits/vector.tcc:631: 	  const size_type __size = size();
	.loc 19 631 33
	movq	-56(%rbp), %rax	# this, tmp120
	movq	%rax, %rdi	# tmp120,
	call	_ZNKSt6vectorIdSaIdEE4sizeEv	#
	movq	%rax, -24(%rbp)	# tmp121, __size
# /usr/include/c++/12/bits/vector.tcc:632: 	  size_type __navail = size_type(this->_M_impl._M_end_of_storage
	.loc 19 632 49
	movq	-56(%rbp), %rax	# this, tmp122
	movq	16(%rax), %rdx	# this_42(D)->D.58694._M_impl.D.58033._M_end_of_storage, _1
# /usr/include/c++/12/bits/vector.tcc:633: 					 - this->_M_impl._M_finish);
	.loc 19 633 23
	movq	-56(%rbp), %rax	# this, tmp123
	movq	8(%rax), %rax	# this_42(D)->D.58694._M_impl.D.58033._M_finish, _2
# /usr/include/c++/12/bits/vector.tcc:633: 					 - this->_M_impl._M_finish);
	.loc 19 633 7
	subq	%rax, %rdx	# _2, _3
	movq	%rdx, %rax	# _3, _3
	sarq	$3, %rax	#, _3
# /usr/include/c++/12/bits/vector.tcc:632: 	  size_type __navail = size_type(this->_M_impl._M_end_of_storage
	.loc 19 632 14
	movq	%rax, -32(%rbp)	# _4, __navail
# /usr/include/c++/12/bits/vector.tcc:635: 	  if (__size > max_size() || __navail > max_size() - __size)
	.loc 19 635 25
	movq	-56(%rbp), %rax	# this, tmp125
	movq	%rax, %rdi	# tmp125,
	call	_ZNKSt6vectorIdSaIdEE8max_sizeEv	#
# /usr/include/c++/12/bits/vector.tcc:635: 	  if (__size > max_size() || __navail > max_size() - __size)
	.loc 19 635 28
	cmpq	-24(%rbp), %rax	# __size, _5
	jb	.L218	#,
# /usr/include/c++/12/bits/vector.tcc:635: 	  if (__size > max_size() || __navail > max_size() - __size)
	.loc 19 635 50 discriminator 2
	movq	-56(%rbp), %rax	# this, tmp126
	movq	%rax, %rdi	# tmp126,
	call	_ZNKSt6vectorIdSaIdEE8max_sizeEv	#
# /usr/include/c++/12/bits/vector.tcc:635: 	  if (__size > max_size() || __navail > max_size() - __size)
	.loc 19 635 53 discriminator 2
	subq	-24(%rbp), %rax	# __size, _7
# /usr/include/c++/12/bits/vector.tcc:635: 	  if (__size > max_size() || __navail > max_size() - __size)
	.loc 19 635 28 discriminator 2
	cmpq	-32(%rbp), %rax	# __navail, _7
	jnb	.L219	#,
.L218:
# /usr/include/c++/12/bits/vector.tcc:635: 	  if (__size > max_size() || __navail > max_size() - __size)
	.loc 19 635 28 is_stmt 0 discriminator 3
	movl	$1, %eax	#, iftmp.14_35
	jmp	.L220	#
.L219:
# /usr/include/c++/12/bits/vector.tcc:635: 	  if (__size > max_size() || __navail > max_size() - __size)
	.loc 19 635 28 discriminator 4
	movl	$0, %eax	#, iftmp.14_35
.L220:
# /usr/include/c++/12/bits/vector.tcc:635: 	  if (__size > max_size() || __navail > max_size() - __size)
	.loc 19 635 4 is_stmt 1 discriminator 6
	testb	%al, %al	# iftmp.14_35
.LBB39:
# /usr/include/c++/12/bits/vector.tcc:638: 	  if (__navail >= __n)
	.loc 19 638 4 discriminator 6
	movq	-32(%rbp), %rax	# __navail, tmp127
	cmpq	-64(%rbp), %rax	# __n, tmp127
	jb	.L222	#,
# /usr/include/c++/12/bits/vector.tcc:643: 						 __n, _M_get_Tp_allocator());
	.loc 19 643 32
	movq	-56(%rbp), %rax	# this, _8
	movq	%rax, %rdi	# _8,
	call	_ZNSt12_Vector_baseIdSaIdEE19_M_get_Tp_allocatorEv	#
	movq	%rax, %rdx	#, _9
# /usr/include/c++/12/bits/vector.tcc:642: 		std::__uninitialized_default_n_a(this->_M_impl._M_finish,
	.loc 19 642 35
	movq	-56(%rbp), %rax	# this, tmp128
	movq	8(%rax), %rax	# this_42(D)->D.58694._M_impl.D.58033._M_finish, _10
	movq	-64(%rbp), %rcx	# __n, tmp129
	movq	%rcx, %rsi	# tmp129,
	movq	%rax, %rdi	# _10,
.LEHB29:
	call	_ZSt27__uninitialized_default_n_aIPdmdET_S1_T0_RSaIT1_E	#
# /usr/include/c++/12/bits/vector.tcc:641: 	      this->_M_impl._M_finish =
	.loc 19 641 32
	movq	-56(%rbp), %rdx	# this, tmp130
	movq	%rax, 8(%rdx)	# _11, this_42(D)->D.58694._M_impl.D.58033._M_finish
.LBE39:
.LBE38:
.LBE37:
# /usr/include/c++/12/bits/vector.tcc:698:     }
	.loc 19 698 5
	jmp	.L227	#
.L222:
.LBB46:
.LBB44:
.LBB42:
.LBB40:
# /usr/include/c++/12/bits/vector.tcc:649: 		_M_check_len(__n, "vector::_M_default_append");
	.loc 19 649 15
	movq	-64(%rbp), %rcx	# __n, tmp131
	movq	-56(%rbp), %rax	# this, tmp132
	leaq	.LC5(%rip), %rdx	#, tmp133
	movq	%rcx, %rsi	# tmp131,
	movq	%rax, %rdi	# tmp132,
	call	_ZNKSt6vectorIdSaIdEE12_M_check_lenEmPKc	#
	movq	%rax, -40(%rbp)	# _52, __len
# /usr/include/c++/12/bits/vector.tcc:650: 	      pointer __new_start(this->_M_allocate(__len));
	.loc 19 650 45
	movq	-56(%rbp), %rax	# this, _12
	movq	-40(%rbp), %rdx	# __len, tmp134
	movq	%rdx, %rsi	# tmp134,
	movq	%rax, %rdi	# _12,
	call	_ZNSt12_Vector_baseIdSaIdEE11_M_allocateEm	#
.LEHE29:
	movq	%rax, -48(%rbp)	# _55, __new_start
# /usr/include/c++/12/bits/vector.tcc:656: 			      __n, _M_get_Tp_allocator());
	.loc 19 656 34
	movq	-56(%rbp), %rax	# this, _13
	movq	%rax, %rdi	# _13,
	call	_ZNSt12_Vector_baseIdSaIdEE19_M_get_Tp_allocatorEv	#
	movq	%rax, %rdx	#, _14
# /usr/include/c++/12/bits/vector.tcc:655: 		      std::__uninitialized_default_n_a(__new_start + __size,
	.loc 19 655 54
	movq	-24(%rbp), %rax	# __size, tmp135
	leaq	0(,%rax,8), %rcx	#, _15
# /usr/include/c++/12/bits/vector.tcc:655: 		      std::__uninitialized_default_n_a(__new_start + __size,
	.loc 19 655 41
	movq	-48(%rbp), %rax	# __new_start, tmp136
	addq	%rax, %rcx	# tmp136, _16
	movq	-64(%rbp), %rax	# __n, tmp137
	movq	%rax, %rsi	# tmp137,
	movq	%rcx, %rdi	# _16,
.LEHB30:
	call	_ZSt27__uninitialized_default_n_aIPdmdET_S1_T0_RSaIT1_E	#
.LEHE30:
# /usr/include/c++/12/bits/vector.tcc:664: 			      __new_start, _M_get_Tp_allocator());
	.loc 19 664 42
	movq	-56(%rbp), %rax	# this, _19
	movq	%rax, %rdi	# _19,
	call	_ZNSt12_Vector_baseIdSaIdEE19_M_get_Tp_allocatorEv	#
	movq	%rax, %rcx	#, _20
# /usr/include/c++/12/bits/vector.tcc:663: 		  _S_relocate(this->_M_impl._M_start, this->_M_impl._M_finish,
	.loc 19 663 16
	movq	-56(%rbp), %rax	# this, tmp138
	movq	8(%rax), %rsi	# this_42(D)->D.58694._M_impl.D.58033._M_finish, _21
	movq	-56(%rbp), %rax	# this, tmp139
	movq	(%rax), %rax	# this_42(D)->D.58694._M_impl.D.58033._M_start, _22
	movq	-48(%rbp), %rdx	# __new_start, tmp140
	movq	%rax, %rdi	# _22,
	call	_ZNSt6vectorIdSaIdEE11_S_relocateEPdS2_S2_RS0_	#
# /usr/include/c++/12/bits/vector.tcc:690: 	      _M_deallocate(this->_M_impl._M_start,
	.loc 19 690 21
	movq	-56(%rbp), %rax	# this, _23
# /usr/include/c++/12/bits/vector.tcc:691: 			    this->_M_impl._M_end_of_storage
	.loc 19 691 22
	movq	-56(%rbp), %rdx	# this, tmp141
	movq	16(%rdx), %rcx	# this_42(D)->D.58694._M_impl.D.58033._M_end_of_storage, _24
# /usr/include/c++/12/bits/vector.tcc:692: 			    - this->_M_impl._M_start);
	.loc 19 692 24
	movq	-56(%rbp), %rdx	# this, tmp142
	movq	(%rdx), %rdx	# this_42(D)->D.58694._M_impl.D.58033._M_start, _25
# /usr/include/c++/12/bits/vector.tcc:692: 			    - this->_M_impl._M_start);
	.loc 19 692 8
	subq	%rdx, %rcx	# _25, _26
	sarq	$3, %rcx	#, _26
	movq	%rcx, %rdx	# _26, tmp143
# /usr/include/c++/12/bits/vector.tcc:690: 	      _M_deallocate(this->_M_impl._M_start,
	.loc 19 690 21
	movq	%rdx, %rsi	# _27, _28
	movq	-56(%rbp), %rdx	# this, tmp144
	movq	(%rdx), %rcx	# this_42(D)->D.58694._M_impl.D.58033._M_start, _29
	movq	%rsi, %rdx	# _28,
	movq	%rcx, %rsi	# _29,
	movq	%rax, %rdi	# _23,
.LEHB31:
	call	_ZNSt12_Vector_baseIdSaIdEE13_M_deallocateEPdm	#
.LEHE31:
# /usr/include/c++/12/bits/vector.tcc:693: 	      this->_M_impl._M_start = __new_start;
	.loc 19 693 31
	movq	-56(%rbp), %rax	# this, tmp145
	movq	-48(%rbp), %rdx	# __new_start, tmp146
	movq	%rdx, (%rax)	# tmp146, this_42(D)->D.58694._M_impl.D.58033._M_start
# /usr/include/c++/12/bits/vector.tcc:694: 	      this->_M_impl._M_finish = __new_start + __size + __n;
	.loc 19 694 55
	movq	-24(%rbp), %rdx	# __size, tmp147
	movq	-64(%rbp), %rax	# __n, tmp148
	addq	%rdx, %rax	# tmp147, _30
	leaq	0(,%rax,8), %rdx	#, _31
	movq	-48(%rbp), %rax	# __new_start, tmp149
	addq	%rax, %rdx	# tmp149, _32
# /usr/include/c++/12/bits/vector.tcc:694: 	      this->_M_impl._M_finish = __new_start + __size + __n;
	.loc 19 694 32
	movq	-56(%rbp), %rax	# this, tmp150
	movq	%rdx, 8(%rax)	# _32, this_42(D)->D.58694._M_impl.D.58033._M_finish
# /usr/include/c++/12/bits/vector.tcc:695: 	      this->_M_impl._M_end_of_storage = __new_start + __len;
	.loc 19 695 54
	movq	-40(%rbp), %rax	# __len, tmp151
	leaq	0(,%rax,8), %rdx	#, _33
	movq	-48(%rbp), %rax	# __new_start, tmp152
	addq	%rax, %rdx	# tmp152, _34
# /usr/include/c++/12/bits/vector.tcc:695: 	      this->_M_impl._M_end_of_storage = __new_start + __len;
	.loc 19 695 40
	movq	-56(%rbp), %rax	# this, tmp153
	movq	%rdx, 16(%rax)	# _34, this_42(D)->D.58694._M_impl.D.58033._M_end_of_storage
.LBE40:
.LBE42:
.LBE44:
.LBE46:
# /usr/include/c++/12/bits/vector.tcc:698:     }
	.loc 19 698 5
	jmp	.L227	#
.L225:
.LBB47:
.LBB45:
.LBB43:
.LBB41:
# /usr/include/c++/12/bits/vector.tcc:658: 		  __catch(...)
	.loc 19 658 5
	movq	%rax, %rdi	# _17,
	call	__cxa_begin_catch@PLT	#
# /usr/include/c++/12/bits/vector.tcc:660: 		      _M_deallocate(__new_start, __len);
	.loc 19 660 22
	movq	-56(%rbp), %rax	# this, _18
	movq	-40(%rbp), %rdx	# __len, tmp155
	movq	-48(%rbp), %rcx	# __new_start, tmp156
	movq	%rcx, %rsi	# tmp156,
	movq	%rax, %rdi	# _18,
.LEHB32:
	call	_ZNSt12_Vector_baseIdSaIdEE13_M_deallocateEPdm	#
# /usr/include/c++/12/bits/vector.tcc:661: 		      __throw_exception_again;
	.loc 19 661 9
	call	__cxa_rethrow@PLT	#
.LEHE32:
.L226:
# /usr/include/c++/12/bits/vector.tcc:658: 		  __catch(...)
	.loc 19 658 5
	movq	%rax, %rbx	#, tmp157
	call	__cxa_end_catch@PLT	#
	movq	%rbx, %rax	# tmp157, D.68845
	movq	%rax, %rdi	# D.68845,
.LEHB33:
	call	_Unwind_Resume@PLT	#
.LEHE33:
.L227:
.LBE41:
.LBE43:
.LBE45:
.LBE47:
# /usr/include/c++/12/bits/vector.tcc:698:     }
	.loc 19 698 5
	nop	
	movq	-8(%rbp), %rbx	#,
	leave	
	.cfi_def_cfa 7, 8
	ret	
	.cfi_endproc
.LFE3230:
	.section	.gcc_except_table
	.align 4
.LLSDA3230:
	.byte	0xff
	.byte	0x9b
	.uleb128 .LLSDATT3230-.LLSDATTD3230
.LLSDATTD3230:
	.byte	0x1
	.uleb128 .LLSDACSE3230-.LLSDACSB3230
.LLSDACSB3230:
	.uleb128 .LEHB29-.LFB3230
	.uleb128 .LEHE29-.LEHB29
	.uleb128 0
	.uleb128 0
	.uleb128 .LEHB30-.LFB3230
	.uleb128 .LEHE30-.LEHB30
	.uleb128 .L225-.LFB3230
	.uleb128 0x1
	.uleb128 .LEHB31-.LFB3230
	.uleb128 .LEHE31-.LEHB31
	.uleb128 0
	.uleb128 0
	.uleb128 .LEHB32-.LFB3230
	.uleb128 .LEHE32-.LEHB32
	.uleb128 .L226-.LFB3230
	.uleb128 0
	.uleb128 .LEHB33-.LFB3230
	.uleb128 .LEHE33-.LEHB33
	.uleb128 0
	.uleb128 0
.LLSDACSE3230:
	.byte	0x1
	.byte	0
	.align 4
	.long	0

.LLSDATT3230:
	.section	.text._ZNSt6vectorIdSaIdEE17_M_default_appendEm,"axG",@progbits,_ZNSt6vectorIdSaIdEE17_M_default_appendEm,comdat
	.size	_ZNSt6vectorIdSaIdEE17_M_default_appendEm, .-_ZNSt6vectorIdSaIdEE17_M_default_appendEm
	.section	.text._ZNSt6vectorIdSaIdEE15_M_erase_at_endEPd,"axG",@progbits,_ZNSt6vectorIdSaIdEE15_M_erase_at_endEPd,comdat
	.align 2
	.weak	_ZNSt6vectorIdSaIdEE15_M_erase_at_endEPd
	.type	_ZNSt6vectorIdSaIdEE15_M_erase_at_endEPd, @function
_ZNSt6vectorIdSaIdEE15_M_erase_at_endEPd:
.LFB3234:
	.loc 7 1928 7
	.cfi_startproc
	.cfi_personality 0x9b,DW.ref.__gxx_personality_v0
	.cfi_lsda 0x1b,.LLSDA3234
	pushq	%rbp	#
	.cfi_def_cfa_offset 16
	.cfi_offset 6, -16
	movq	%rsp, %rbp	#,
	.cfi_def_cfa_register 6
	subq	$32, %rsp	#,
	movq	%rdi, -24(%rbp)	# this, this
	movq	%rsi, -32(%rbp)	# __pos, __pos
.LBB48:
# /usr/include/c++/12/bits/stl_vector.h:1930: 	if (size_type __n = this->_M_impl._M_finish - __pos)
	.loc 7 1930 36
	movq	-24(%rbp), %rax	# this, tmp88
	movq	8(%rax), %rax	# this_9(D)->D.58694._M_impl.D.58033._M_finish, _1
# /usr/include/c++/12/bits/stl_vector.h:1930: 	if (size_type __n = this->_M_impl._M_finish - __pos)
	.loc 7 1930 46
	subq	-32(%rbp), %rax	# __pos, _2
	sarq	$3, %rax	#, tmp89
# /usr/include/c++/12/bits/stl_vector.h:1930: 	if (size_type __n = this->_M_impl._M_finish - __pos)
	.loc 7 1930 16
	movq	%rax, -8(%rbp)	# _3, __n
# /usr/include/c++/12/bits/stl_vector.h:1930: 	if (size_type __n = this->_M_impl._M_finish - __pos)
	.loc 7 1930 2
	cmpq	$0, -8(%rbp)	#, __n
	je	.L230	#,
# /usr/include/c++/12/bits/stl_vector.h:1933: 			  _M_get_Tp_allocator());
	.loc 7 1933 25
	movq	-24(%rbp), %rax	# this, _4
	movq	%rax, %rdi	# _4,
	call	_ZNSt12_Vector_baseIdSaIdEE19_M_get_Tp_allocatorEv	#
	movq	%rax, %rdx	#, _5
# /usr/include/c++/12/bits/stl_vector.h:1932: 	    std::_Destroy(__pos, this->_M_impl._M_finish,
	.loc 7 1932 19
	movq	-24(%rbp), %rax	# this, tmp90
	movq	8(%rax), %rcx	# this_9(D)->D.58694._M_impl.D.58033._M_finish, _6
	movq	-32(%rbp), %rax	# __pos, tmp91
	movq	%rcx, %rsi	# _6,
	movq	%rax, %rdi	# tmp91,
	call	_ZSt8_DestroyIPddEvT_S1_RSaIT0_E	#
# /usr/include/c++/12/bits/stl_vector.h:1934: 	    this->_M_impl._M_finish = __pos;
	.loc 7 1934 30
	movq	-24(%rbp), %rax	# this, tmp92
	movq	-32(%rbp), %rdx	# __pos, tmp93
	movq	%rdx, 8(%rax)	# tmp93, this_9(D)->D.58694._M_impl.D.58033._M_finish
.L230:
.LBE48:
# /usr/include/c++/12/bits/stl_vector.h:1937:       }
	.loc 7 1937 7
	nop	
	leave	
	.cfi_def_cfa 7, 8
	ret	
	.cfi_endproc
.LFE3234:
	.section	.gcc_except_table
.LLSDA3234:
	.byte	0xff
	.byte	0xff
	.byte	0x1
	.uleb128 .LLSDACSE3234-.LLSDACSB3234
.LLSDACSB3234:
.LLSDACSE3234:
	.section	.text._ZNSt6vectorIdSaIdEE15_M_erase_at_endEPd,"axG",@progbits,_ZNSt6vectorIdSaIdEE15_M_erase_at_endEPd,comdat
	.size	_ZNSt6vectorIdSaIdEE15_M_erase_at_endEPd, .-_ZNSt6vectorIdSaIdEE15_M_erase_at_endEPd
	.section	.text._ZNSt12_Destroy_auxILb1EE9__destroyIPdEEvT_S3_,"axG",@progbits,_ZNSt12_Destroy_auxILb1EE9__destroyIPdEEvT_S3_,comdat
	.weak	_ZNSt12_Destroy_auxILb1EE9__destroyIPdEEvT_S3_
	.type	_ZNSt12_Destroy_auxILb1EE9__destroyIPdEEvT_S3_, @function
_ZNSt12_Destroy_auxILb1EE9__destroyIPdEEvT_S3_:
.LFB3235:
	.loc 14 172 9
	.cfi_startproc
	pushq	%rbp	#
	.cfi_def_cfa_offset 16
	.cfi_offset 6, -16
	movq	%rsp, %rbp	#,
	.cfi_def_cfa_register 6
	movq	%rdi, -8(%rbp)	# D.66350, D.66350
	movq	%rsi, -16(%rbp)	# D.66351, D.66351
# /usr/include/c++/12/bits/stl_construct.h:172:         __destroy(_ForwardIterator, _ForwardIterator) { }
	.loc 14 172 57
	nop	
	popq	%rbp	#
	.cfi_def_cfa 7, 8
	ret	
	.cfi_endproc
.LFE3235:
	.size	_ZNSt12_Destroy_auxILb1EE9__destroyIPdEEvT_S3_, .-_ZNSt12_Destroy_auxILb1EE9__destroyIPdEEvT_S3_
	.section	.text._ZNSt16allocator_traitsISaIlEE10deallocateERS0_Plm,"axG",@progbits,_ZNSt16allocator_traitsISaIlEE10deallocateERS0_Plm,comdat
	.weak	_ZNSt16allocator_traitsISaIlEE10deallocateERS0_Plm
	.type	_ZNSt16allocator_traitsISaIlEE10deallocateERS0_Plm, @function
_ZNSt16allocator_traitsISaIlEE10deallocateERS0_Plm:
.LFB3236:
	.loc 9 495 7
	.cfi_startproc
	pushq	%rbp	#
	.cfi_def_cfa_offset 16
	.cfi_offset 6, -16
	movq	%rsp, %rbp	#,
	.cfi_def_cfa_register 6
	subq	$32, %rsp	#,
	movq	%rdi, -8(%rbp)	# __a, __a
	movq	%rsi, -16(%rbp)	# __p, __p
	movq	%rdx, -24(%rbp)	# __n, __n
# /usr/include/c++/12/bits/alloc_traits.h:496:       { __a.deallocate(__p, __n); }
	.loc 9 496 23
	movq	-24(%rbp), %rdx	# __n, tmp82
	movq	-16(%rbp), %rcx	# __p, tmp83
	movq	-8(%rbp), %rax	# __a, tmp84
	movq	%rcx, %rsi	# tmp83,
	movq	%rax, %rdi	# tmp84,
	call	_ZNSt15__new_allocatorIlE10deallocateEPlm	#
# /usr/include/c++/12/bits/alloc_traits.h:496:       { __a.deallocate(__p, __n); }
	.loc 9 496 35
	nop	
	leave	
	.cfi_def_cfa 7, 8
	ret	
	.cfi_endproc
.LFE3236:
	.size	_ZNSt16allocator_traitsISaIlEE10deallocateERS0_Plm, .-_ZNSt16allocator_traitsISaIlEE10deallocateERS0_Plm
	.section	.text._ZNSt12_Destroy_auxILb1EE9__destroyIPlEEvT_S3_,"axG",@progbits,_ZNSt12_Destroy_auxILb1EE9__destroyIPlEEvT_S3_,comdat
	.weak	_ZNSt12_Destroy_auxILb1EE9__destroyIPlEEvT_S3_
	.type	_ZNSt12_Destroy_auxILb1EE9__destroyIPlEEvT_S3_, @function
_ZNSt12_Destroy_auxILb1EE9__destroyIPlEEvT_S3_:
.LFB3237:
	.loc 14 172 9
	.cfi_startproc
	pushq	%rbp	#
	.cfi_def_cfa_offset 16
	.cfi_offset 6, -16
	movq	%rsp, %rbp	#,
	.cfi_def_cfa_register 6
	movq	%rdi, -8(%rbp)	# D.66357, D.66357
	movq	%rsi, -16(%rbp)	# D.66358, D.66358
# /usr/include/c++/12/bits/stl_construct.h:172:         __destroy(_ForwardIterator, _ForwardIterator) { }
	.loc 14 172 57
	nop	
	popq	%rbp	#
	.cfi_def_cfa 7, 8
	ret	
	.cfi_endproc
.LFE3237:
	.size	_ZNSt12_Destroy_auxILb1EE9__destroyIPlEEvT_S3_, .-_ZNSt12_Destroy_auxILb1EE9__destroyIPlEEvT_S3_
	.section	.text._ZNSt6vectorIlSaIlEEC2ERKS1_,"axG",@progbits,_ZNSt6vectorIlSaIlEEC5ERKS1_,comdat
	.align 2
	.weak	_ZNSt6vectorIlSaIlEEC2ERKS1_
	.type	_ZNSt6vectorIlSaIlEEC2ERKS1_, @function
_ZNSt6vectorIlSaIlEEC2ERKS1_:
.LFB3239:
	.loc 7 596 7
	.cfi_startproc
	.cfi_personality 0x9b,DW.ref.__gxx_personality_v0
	.cfi_lsda 0x1b,.LLSDA3239
	pushq	%rbp	#
	.cfi_def_cfa_offset 16
	.cfi_offset 6, -16
	movq	%rsp, %rbp	#,
	.cfi_def_cfa_register 6
	pushq	%r13	#
	pushq	%r12	#
	pushq	%rbx	#
	subq	$40, %rsp	#,
	.cfi_offset 13, -24
	.cfi_offset 12, -32
	.cfi_offset 3, -40
	movq	%rdi, -56(%rbp)	# this, this
	movq	%rsi, -64(%rbp)	# __x, __x
.LBB49:
# /usr/include/c++/12/bits/stl_vector.h:598: 	_Alloc_traits::_S_select_on_copy(__x._M_get_Tp_allocator()))
	.loc 7 598 61
	movq	-56(%rbp), %rbx	# this, _1
# /usr/include/c++/12/bits/stl_vector.h:598: 	_Alloc_traits::_S_select_on_copy(__x._M_get_Tp_allocator()))
	.loc 7 598 58
	movq	-64(%rbp), %rax	# __x, _2
	movq	%rax, %rdi	# _2,
	call	_ZNKSt12_Vector_baseIlSaIlEE19_M_get_Tp_allocatorEv	#
	movq	%rax, %rdx	#, _3
# /usr/include/c++/12/bits/stl_vector.h:598: 	_Alloc_traits::_S_select_on_copy(__x._M_get_Tp_allocator()))
	.loc 7 598 61
	leaq	-33(%rbp), %rax	#, tmp95
	movq	%rdx, %rsi	# _3,
	movq	%rax, %rdi	# tmp95,
.LEHB34:
	call	_ZN9__gnu_cxx14__alloc_traitsISaIlElE17_S_select_on_copyERKS1_	#
.LEHE34:
	movq	-64(%rbp), %rax	# __x, tmp96
	movq	%rax, %rdi	# tmp96,
	call	_ZNKSt6vectorIlSaIlEE4sizeEv	#
	movq	%rax, %rcx	#, _4
	leaq	-33(%rbp), %rax	#, tmp97
	movq	%rax, %rdx	# tmp97,
	movq	%rcx, %rsi	# _4,
	movq	%rbx, %rdi	# _1,
.LEHB35:
	call	_ZNSt12_Vector_baseIlSaIlEEC2EmRKS0_	#
.LEHE35:
# /usr/include/c++/12/bits/stl_vector.h:598: 	_Alloc_traits::_S_select_on_copy(__x._M_get_Tp_allocator()))
	.loc 7 598 61 is_stmt 0 discriminator 4
	leaq	-33(%rbp), %rax	#, tmp98
	movq	%rax, %rdi	# tmp98,
	call	_ZNSaIlED1Ev	#
# /usr/include/c++/12/bits/stl_vector.h:603: 				      _M_get_Tp_allocator());
	.loc 7 603 30 is_stmt 1 discriminator 4
	movq	-56(%rbp), %rax	# this, _5
	movq	%rax, %rdi	# _5,
	call	_ZNSt12_Vector_baseIlSaIlEE19_M_get_Tp_allocatorEv	#
	movq	%rax, %r13	#, _6
# /usr/include/c++/12/bits/stl_vector.h:601: 	  std::__uninitialized_copy_a(__x.begin(), __x.end(),
	.loc 7 601 31 discriminator 4
	movq	-56(%rbp), %rax	# this, tmp99
	movq	(%rax), %rbx	# this_12(D)->D.54811._M_impl.D.54123._M_start, _7
	movq	-64(%rbp), %rax	# __x, tmp100
	movq	%rax, %rdi	# tmp100,
	call	_ZNKSt6vectorIlSaIlEE3endEv	#
	movq	%rax, %r12	#, D.68212
	movq	-64(%rbp), %rax	# __x, tmp101
	movq	%rax, %rdi	# tmp101,
	call	_ZNKSt6vectorIlSaIlEE5beginEv	#
	movq	%r13, %rcx	# _6,
	movq	%rbx, %rdx	# _7,
	movq	%r12, %rsi	# D.68212,
	movq	%rax, %rdi	# D.68213,
.LEHB36:
	call	_ZSt22__uninitialized_copy_aIN9__gnu_cxx17__normal_iteratorIPKlSt6vectorIlSaIlEEEEPllET0_T_SA_S9_RSaIT1_E	#
.LEHE36:
# /usr/include/c++/12/bits/stl_vector.h:600: 	this->_M_impl._M_finish =
	.loc 7 600 26 discriminator 4
	movq	-56(%rbp), %rdx	# this, tmp102
	movq	%rax, 8(%rdx)	# _8, this_12(D)->D.54811._M_impl.D.54123._M_finish
.LBE49:
# /usr/include/c++/12/bits/stl_vector.h:604:       }
	.loc 7 604 7 discriminator 4
	jmp	.L239	#
.L237:
.LBB50:
# /usr/include/c++/12/bits/stl_vector.h:598: 	_Alloc_traits::_S_select_on_copy(__x._M_get_Tp_allocator()))
	.loc 7 598 61
	movq	%rax, %rbx	#, tmp104
	leaq	-33(%rbp), %rax	#, tmp103
	movq	%rax, %rdi	# tmp103,
	call	_ZNSaIlED1Ev	#
	movq	%rbx, %rax	# tmp104, D.68847
	movq	%rax, %rdi	# D.68847,
.LEHB37:
	call	_Unwind_Resume@PLT	#
.L238:
# /usr/include/c++/12/bits/stl_vector.h:604:       }
	.loc 7 604 7
	movq	%rax, %rbx	#, tmp105
	movq	-56(%rbp), %rax	# this, _9
	movq	%rax, %rdi	# _9,
	call	_ZNSt12_Vector_baseIlSaIlEED2Ev	#
	movq	%rbx, %rax	# tmp105, D.68848
	movq	%rax, %rdi	# D.68848,
	call	_Unwind_Resume@PLT	#
.LEHE37:
.L239:
.LBE50:
	addq	$40, %rsp	#,
	popq	%rbx	#
	popq	%r12	#
	popq	%r13	#
	popq	%rbp	#
	.cfi_def_cfa 7, 8
	ret	
	.cfi_endproc
.LFE3239:
	.section	.gcc_except_table
.LLSDA3239:
	.byte	0xff
	.byte	0xff
	.byte	0x1
	.uleb128 .LLSDACSE3239-.LLSDACSB3239
.LLSDACSB3239:
	.uleb128 .LEHB34-.LFB3239
	.uleb128 .LEHE34-.LEHB34
	.uleb128 0
	.uleb128 0
	.uleb128 .LEHB35-.LFB3239
	.uleb128 .LEHE35-.LEHB35
	.uleb128 .L237-.LFB3239
	.uleb128 0
	.uleb128 .LEHB36-.LFB3239
	.uleb128 .LEHE36-.LEHB36
	.uleb128 .L238-.LFB3239
	.uleb128 0
	.uleb128 .LEHB37-.LFB3239
	.uleb128 .LEHE37-.LEHB37
	.uleb128 0
	.uleb128 0
.LLSDACSE3239:
	.section	.text._ZNSt6vectorIlSaIlEEC2ERKS1_,"axG",@progbits,_ZNSt6vectorIlSaIlEEC5ERKS1_,comdat
	.size	_ZNSt6vectorIlSaIlEEC2ERKS1_, .-_ZNSt6vectorIlSaIlEEC2ERKS1_
	.weak	_ZNSt6vectorIlSaIlEEC1ERKS1_
	.set	_ZNSt6vectorIlSaIlEEC1ERKS1_,_ZNSt6vectorIlSaIlEEC2ERKS1_
	.section	.text._ZSt4moveIRNSt12_Vector_baseIlSaIlEE12_Vector_implEEONSt16remove_referenceIT_E4typeEOS6_,"axG",@progbits,_ZSt4moveIRNSt12_Vector_baseIlSaIlEE12_Vector_implEEONSt16remove_referenceIT_E4typeEOS6_,comdat
	.weak	_ZSt4moveIRNSt12_Vector_baseIlSaIlEE12_Vector_implEEONSt16remove_referenceIT_E4typeEOS6_
	.type	_ZSt4moveIRNSt12_Vector_baseIlSaIlEE12_Vector_implEEONSt16remove_referenceIT_E4typeEOS6_, @function
_ZSt4moveIRNSt12_Vector_baseIlSaIlEE12_Vector_implEEONSt16remove_referenceIT_E4typeEOS6_:
.LFB3241:
	.loc 15 104 5
	.cfi_startproc
	pushq	%rbp	#
	.cfi_def_cfa_offset 16
	.cfi_offset 6, -16
	movq	%rsp, %rbp	#,
	.cfi_def_cfa_register 6
	movq	%rdi, -8(%rbp)	# __t, __t
# /usr/include/c++/12/bits/move.h:105:     { return static_cast<typename std::remove_reference<_Tp>::type&&>(__t); }
	.loc 15 105 74
	movq	-8(%rbp), %rax	# __t, _2
# /usr/include/c++/12/bits/move.h:105:     { return static_cast<typename std::remove_reference<_Tp>::type&&>(__t); }
	.loc 15 105 77
	popq	%rbp	#
	.cfi_def_cfa 7, 8
	ret	
	.cfi_endproc
.LFE3241:
	.size	_ZSt4moveIRNSt12_Vector_baseIlSaIlEE12_Vector_implEEONSt16remove_referenceIT_E4typeEOS6_, .-_ZSt4moveIRNSt12_Vector_baseIlSaIlEE12_Vector_implEEONSt16remove_referenceIT_E4typeEOS6_
	.section	.text._ZNSaIlEC2ERKS_,"axG",@progbits,_ZNSaIlEC5ERKS_,comdat
	.align 2
	.weak	_ZNSaIlEC2ERKS_
	.type	_ZNSaIlEC2ERKS_, @function
_ZNSaIlEC2ERKS_:
.LFB3243:
	.loc 8 159 7
	.cfi_startproc
	pushq	%rbp	#
	.cfi_def_cfa_offset 16
	.cfi_offset 6, -16
	movq	%rsp, %rbp	#,
	.cfi_def_cfa_register 6
	subq	$16, %rsp	#,
	movq	%rdi, -8(%rbp)	# this, this
	movq	%rsi, -16(%rbp)	# __a, __a
.LBB51:
# /usr/include/c++/12/bits/allocator.h:160:       : __allocator_base<_Tp>(__a) { }
	.loc 8 160 34
	movq	-16(%rbp), %rdx	# __a, tmp82
	movq	-8(%rbp), %rax	# this, tmp83
	movq	%rdx, %rsi	# tmp82,
	movq	%rax, %rdi	# tmp83,
	call	_ZNSt15__new_allocatorIlEC2ERKS0_	#
.LBE51:
# /usr/include/c++/12/bits/allocator.h:160:       : __allocator_base<_Tp>(__a) { }
	.loc 8 160 38
	nop	
	leave	
	.cfi_def_cfa 7, 8
	ret	
	.cfi_endproc
.LFE3243:
	.size	_ZNSaIlEC2ERKS_, .-_ZNSaIlEC2ERKS_
	.weak	_ZNSaIlEC1ERKS_
	.set	_ZNSaIlEC1ERKS_,_ZNSaIlEC2ERKS_
	.section	.text._ZNSt12_Vector_baseIlSaIlEE17_Vector_impl_dataC2EOS2_,"axG",@progbits,_ZNSt12_Vector_baseIlSaIlEE17_Vector_impl_dataC5EOS2_,comdat
	.align 2
	.weak	_ZNSt12_Vector_baseIlSaIlEE17_Vector_impl_dataC2EOS2_
	.type	_ZNSt12_Vector_baseIlSaIlEE17_Vector_impl_dataC2EOS2_, @function
_ZNSt12_Vector_baseIlSaIlEE17_Vector_impl_dataC2EOS2_:
.LFB3246:
	.loc 7 105 2
	.cfi_startproc
	pushq	%rbp	#
	.cfi_def_cfa_offset 16
	.cfi_offset 6, -16
	movq	%rsp, %rbp	#,
	.cfi_def_cfa_register 6
	movq	%rdi, -8(%rbp)	# this, this
	movq	%rsi, -16(%rbp)	# __x, __x
.LBB52:
# /usr/include/c++/12/bits/stl_vector.h:106: 	: _M_start(__x._M_start), _M_finish(__x._M_finish),
	.loc 7 106 17
	movq	-16(%rbp), %rax	# __x, tmp87
	movq	(%rax), %rdx	# __x_9(D)->_M_start, _1
# /usr/include/c++/12/bits/stl_vector.h:106: 	: _M_start(__x._M_start), _M_finish(__x._M_finish),
	.loc 7 106 4
	movq	-8(%rbp), %rax	# this, tmp88
	movq	%rdx, (%rax)	# _1, this_7(D)->_M_start
# /usr/include/c++/12/bits/stl_vector.h:106: 	: _M_start(__x._M_start), _M_finish(__x._M_finish),
	.loc 7 106 42
	movq	-16(%rbp), %rax	# __x, tmp89
	movq	8(%rax), %rdx	# __x_9(D)->_M_finish, _2
# /usr/include/c++/12/bits/stl_vector.h:106: 	: _M_start(__x._M_start), _M_finish(__x._M_finish),
	.loc 7 106 28
	movq	-8(%rbp), %rax	# this, tmp90
	movq	%rdx, 8(%rax)	# _2, this_7(D)->_M_finish
# /usr/include/c++/12/bits/stl_vector.h:107: 	  _M_end_of_storage(__x._M_end_of_storage)
	.loc 7 107 26
	movq	-16(%rbp), %rax	# __x, tmp91
	movq	16(%rax), %rdx	# __x_9(D)->_M_end_of_storage, _3
# /usr/include/c++/12/bits/stl_vector.h:107: 	  _M_end_of_storage(__x._M_end_of_storage)
	.loc 7 107 4
	movq	-8(%rbp), %rax	# this, tmp92
	movq	%rdx, 16(%rax)	# _3, this_7(D)->_M_end_of_storage
# /usr/include/c++/12/bits/stl_vector.h:108: 	{ __x._M_start = __x._M_finish = __x._M_end_of_storage = pointer(); }
	.loc 7 108 57
	movq	-16(%rbp), %rax	# __x, tmp93
	movq	$0, 16(%rax)	#, __x_9(D)->_M_end_of_storage
# /usr/include/c++/12/bits/stl_vector.h:108: 	{ __x._M_start = __x._M_finish = __x._M_end_of_storage = pointer(); }
	.loc 7 108 39
	movq	-16(%rbp), %rax	# __x, tmp94
	movq	16(%rax), %rdx	# __x_9(D)->_M_end_of_storage, _4
# /usr/include/c++/12/bits/stl_vector.h:108: 	{ __x._M_start = __x._M_finish = __x._M_end_of_storage = pointer(); }
	.loc 7 108 33
	movq	-16(%rbp), %rax	# __x, tmp95
	movq	%rdx, 8(%rax)	# _4, __x_9(D)->_M_finish
# /usr/include/c++/12/bits/stl_vector.h:108: 	{ __x._M_start = __x._M_finish = __x._M_end_of_storage = pointer(); }
	.loc 7 108 23
	movq	-16(%rbp), %rax	# __x, tmp96
	movq	8(%rax), %rdx	# __x_9(D)->_M_finish, _5
# /usr/include/c++/12/bits/stl_vector.h:108: 	{ __x._M_start = __x._M_finish = __x._M_end_of_storage = pointer(); }
	.loc 7 108 17
	movq	-16(%rbp), %rax	# __x, tmp97
	movq	%rdx, (%rax)	# _5, __x_9(D)->_M_start
.LBE52:
# /usr/include/c++/12/bits/stl_vector.h:108: 	{ __x._M_start = __x._M_finish = __x._M_end_of_storage = pointer(); }
	.loc 7 108 70
	nop	
	popq	%rbp	#
	.cfi_def_cfa 7, 8
	ret	
	.cfi_endproc
.LFE3246:
	.size	_ZNSt12_Vector_baseIlSaIlEE17_Vector_impl_dataC2EOS2_, .-_ZNSt12_Vector_baseIlSaIlEE17_Vector_impl_dataC2EOS2_
	.weak	_ZNSt12_Vector_baseIlSaIlEE17_Vector_impl_dataC1EOS2_
	.set	_ZNSt12_Vector_baseIlSaIlEE17_Vector_impl_dataC1EOS2_,_ZNSt12_Vector_baseIlSaIlEE17_Vector_impl_dataC2EOS2_
	.section	.text._ZNSt6vectorIlSaIlEE14_M_move_assignEOS1_St17integral_constantIbLb1EE,"axG",@progbits,_ZNSt6vectorIlSaIlEE14_M_move_assignEOS1_St17integral_constantIbLb1EE,comdat
	.align 2
	.weak	_ZNSt6vectorIlSaIlEE14_M_move_assignEOS1_St17integral_constantIbLb1EE
	.type	_ZNSt6vectorIlSaIlEE14_M_move_assignEOS1_St17integral_constantIbLb1EE, @function
_ZNSt6vectorIlSaIlEE14_M_move_assignEOS1_St17integral_constantIbLb1EE:
.LFB3248:
	.loc 7 1954 7
	.cfi_startproc
	pushq	%rbp	#
	.cfi_def_cfa_offset 16
	.cfi_offset 6, -16
	movq	%rsp, %rbp	#,
	.cfi_def_cfa_register 6
	pushq	%rbx	#
	subq	$56, %rsp	#,
	.cfi_offset 3, -24
	movq	%rdi, -56(%rbp)	# this, this
	movq	%rsi, -64(%rbp)	# __x, __x
# /usr/include/c++/12/bits/stl_vector.h:1956: 	vector __tmp(get_allocator());
	.loc 7 1956 9
	movq	-56(%rbp), %rdx	# this, _1
	leaq	-17(%rbp), %rax	#, tmp90
	movq	%rdx, %rsi	# _1,
	movq	%rax, %rdi	# tmp90,
	call	_ZNKSt12_Vector_baseIlSaIlEE13get_allocatorEv	#
	leaq	-17(%rbp), %rdx	#, tmp91
	leaq	-48(%rbp), %rax	#, tmp92
	movq	%rdx, %rsi	# tmp91,
	movq	%rax, %rdi	# tmp92,
	call	_ZNSt6vectorIlSaIlEEC1ERKS0_	#
	leaq	-17(%rbp), %rax	#, tmp93
	movq	%rax, %rdi	# tmp93,
	call	_ZNSaIlED1Ev	#
# /usr/include/c++/12/bits/stl_vector.h:1957: 	this->_M_impl._M_swap_data(__x._M_impl);
	.loc 7 1957 28
	movq	-56(%rbp), %rax	# this, _2
	movq	-64(%rbp), %rdx	# __x, _3
	movq	%rdx, %rsi	# _3,
	movq	%rax, %rdi	# _2,
	call	_ZNSt12_Vector_baseIlSaIlEE17_Vector_impl_data12_M_swap_dataERS2_	#
# /usr/include/c++/12/bits/stl_vector.h:1958: 	__tmp._M_impl._M_swap_data(__x._M_impl);
	.loc 7 1958 28
	movq	-64(%rbp), %rdx	# __x, _4
	leaq	-48(%rbp), %rax	#, tmp94
	movq	%rdx, %rsi	# _4,
	movq	%rax, %rdi	# tmp94,
	call	_ZNSt12_Vector_baseIlSaIlEE17_Vector_impl_data12_M_swap_dataERS2_	#
# /usr/include/c++/12/bits/stl_vector.h:1959: 	std::__alloc_on_move(_M_get_Tp_allocator(), __x._M_get_Tp_allocator());
	.loc 7 1959 69
	movq	-64(%rbp), %rax	# __x, _5
	movq	%rax, %rdi	# _5,
	call	_ZNSt12_Vector_baseIlSaIlEE19_M_get_Tp_allocatorEv	#
	movq	%rax, %rbx	#, _6
# /usr/include/c++/12/bits/stl_vector.h:1959: 	std::__alloc_on_move(_M_get_Tp_allocator(), __x._M_get_Tp_allocator());
	.loc 7 1959 42
	movq	-56(%rbp), %rax	# this, _7
	movq	%rax, %rdi	# _7,
	call	_ZNSt12_Vector_baseIlSaIlEE19_M_get_Tp_allocatorEv	#
# /usr/include/c++/12/bits/stl_vector.h:1959: 	std::__alloc_on_move(_M_get_Tp_allocator(), __x._M_get_Tp_allocator());
	.loc 7 1959 22
	movq	%rbx, %rsi	# _6,
	movq	%rax, %rdi	# _8,
	call	_ZSt15__alloc_on_moveISaIlEEvRT_S2_	#
# /usr/include/c++/12/bits/stl_vector.h:1960:       }
	.loc 7 1960 7
	leaq	-48(%rbp), %rax	#, tmp95
	movq	%rax, %rdi	# tmp95,
	call	_ZNSt6vectorIlSaIlEED1Ev	#
	movq	-8(%rbp), %rbx	#,
	leave	
	.cfi_def_cfa 7, 8
	ret	
	.cfi_endproc
.LFE3248:
	.size	_ZNSt6vectorIlSaIlEE14_M_move_assignEOS1_St17integral_constantIbLb1EE, .-_ZNSt6vectorIlSaIlEE14_M_move_assignEOS1_St17integral_constantIbLb1EE
	.section	.text._ZN9__gnu_cxx17__normal_iteratorIPKdSt6vectorIdSaIdEEEC2ERKS2_,"axG",@progbits,_ZN9__gnu_cxx17__normal_iteratorIPKdSt6vectorIdSaIdEEEC5ERKS2_,comdat
	.align 2
	.weak	_ZN9__gnu_cxx17__normal_iteratorIPKdSt6vectorIdSaIdEEEC2ERKS2_
	.type	_ZN9__gnu_cxx17__normal_iteratorIPKdSt6vectorIdSaIdEEEC2ERKS2_, @function
_ZN9__gnu_cxx17__normal_iteratorIPKdSt6vectorIdSaIdEEEC2ERKS2_:
.LFB3250:
	.loc 18 1072 7
	.cfi_startproc
	pushq	%rbp	#
	.cfi_def_cfa_offset 16
	.cfi_offset 6, -16
	movq	%rsp, %rbp	#,
	.cfi_def_cfa_register 6
	movq	%rdi, -8(%rbp)	# this, this
	movq	%rsi, -16(%rbp)	# __i, __i
.LBB53:
# /usr/include/c++/12/bits/stl_iterator.h:1073:       : _M_current(__i) { }
	.loc 18 1073 9
	movq	-16(%rbp), %rax	# __i, tmp83
	movq	(%rax), %rdx	# *__i_5(D), _1
	movq	-8(%rbp), %rax	# this, tmp84
	movq	%rdx, (%rax)	# _1, this_3(D)->_M_current
.LBE53:
# /usr/include/c++/12/bits/stl_iterator.h:1073:       : _M_current(__i) { }
	.loc 18 1073 27
	nop	
	popq	%rbp	#
	.cfi_def_cfa 7, 8
	ret	
	.cfi_endproc
.LFE3250:
	.size	_ZN9__gnu_cxx17__normal_iteratorIPKdSt6vectorIdSaIdEEEC2ERKS2_, .-_ZN9__gnu_cxx17__normal_iteratorIPKdSt6vectorIdSaIdEEEC2ERKS2_
	.weak	_ZN9__gnu_cxx17__normal_iteratorIPKdSt6vectorIdSaIdEEEC1ERKS2_
	.set	_ZN9__gnu_cxx17__normal_iteratorIPKdSt6vectorIdSaIdEEEC1ERKS2_,_ZN9__gnu_cxx17__normal_iteratorIPKdSt6vectorIdSaIdEEEC2ERKS2_
	.section	.text._ZN9__gnu_cxx17__normal_iteratorIPdSt6vectorIdSaIdEEEC2ERKS1_,"axG",@progbits,_ZN9__gnu_cxx17__normal_iteratorIPdSt6vectorIdSaIdEEEC5ERKS1_,comdat
	.align 2
	.weak	_ZN9__gnu_cxx17__normal_iteratorIPdSt6vectorIdSaIdEEEC2ERKS1_
	.type	_ZN9__gnu_cxx17__normal_iteratorIPdSt6vectorIdSaIdEEEC2ERKS1_, @function
_ZN9__gnu_cxx17__normal_iteratorIPdSt6vectorIdSaIdEEEC2ERKS1_:
.LFB3253:
	.loc 18 1072 7
	.cfi_startproc
	pushq	%rbp	#
	.cfi_def_cfa_offset 16
	.cfi_offset 6, -16
	movq	%rsp, %rbp	#,
	.cfi_def_cfa_register 6
	movq	%rdi, -8(%rbp)	# this, this
	movq	%rsi, -16(%rbp)	# __i, __i
.LBB54:
# /usr/include/c++/12/bits/stl_iterator.h:1073:       : _M_current(__i) { }
	.loc 18 1073 9
	movq	-16(%rbp), %rax	# __i, tmp83
	movq	(%rax), %rdx	# *__i_5(D), _1
	movq	-8(%rbp), %rax	# this, tmp84
	movq	%rdx, (%rax)	# _1, this_3(D)->_M_current
.LBE54:
# /usr/include/c++/12/bits/stl_iterator.h:1073:       : _M_current(__i) { }
	.loc 18 1073 27
	nop	
	popq	%rbp	#
	.cfi_def_cfa 7, 8
	ret	
	.cfi_endproc
.LFE3253:
	.size	_ZN9__gnu_cxx17__normal_iteratorIPdSt6vectorIdSaIdEEEC2ERKS1_, .-_ZN9__gnu_cxx17__normal_iteratorIPdSt6vectorIdSaIdEEEC2ERKS1_
	.weak	_ZN9__gnu_cxx17__normal_iteratorIPdSt6vectorIdSaIdEEEC1ERKS1_
	.set	_ZN9__gnu_cxx17__normal_iteratorIPdSt6vectorIdSaIdEEEC1ERKS1_,_ZN9__gnu_cxx17__normal_iteratorIPdSt6vectorIdSaIdEEEC2ERKS1_
	.section	.text._ZSt12__miter_baseIN9__gnu_cxx17__normal_iteratorIPKdSt6vectorIdSaIdEEEEET_S8_,"axG",@progbits,_ZSt12__miter_baseIN9__gnu_cxx17__normal_iteratorIPKdSt6vectorIdSaIdEEEEET_S8_,comdat
	.weak	_ZSt12__miter_baseIN9__gnu_cxx17__normal_iteratorIPKdSt6vectorIdSaIdEEEEET_S8_
	.type	_ZSt12__miter_baseIN9__gnu_cxx17__normal_iteratorIPKdSt6vectorIdSaIdEEEEET_S8_, @function
_ZSt12__miter_baseIN9__gnu_cxx17__normal_iteratorIPKdSt6vectorIdSaIdEEEEET_S8_:
.LFB3255:
	.file 20 "/usr/include/c++/12/bits/cpp_type_traits.h"
	.loc 20 562 5
	.cfi_startproc
	pushq	%rbp	#
	.cfi_def_cfa_offset 16
	.cfi_offset 6, -16
	movq	%rsp, %rbp	#,
	.cfi_def_cfa_register 6
	movq	%rdi, -8(%rbp)	# __it, __it
# /usr/include/c++/12/bits/cpp_type_traits.h:563:     { return __it; }
	.loc 20 563 14
	movq	-8(%rbp), %rax	# __it, D.68285
# /usr/include/c++/12/bits/cpp_type_traits.h:563:     { return __it; }
	.loc 20 563 20
	popq	%rbp	#
	.cfi_def_cfa 7, 8
	ret	
	.cfi_endproc
.LFE3255:
	.size	_ZSt12__miter_baseIN9__gnu_cxx17__normal_iteratorIPKdSt6vectorIdSaIdEEEEET_S8_, .-_ZSt12__miter_baseIN9__gnu_cxx17__normal_iteratorIPKdSt6vectorIdSaIdEEEEET_S8_
	.section	.text._ZSt13__copy_move_aILb0EN9__gnu_cxx17__normal_iteratorIPKdSt6vectorIdSaIdEEEENS1_IPdS6_EEET1_T0_SB_SA_,"axG",@progbits,_ZSt13__copy_move_aILb0EN9__gnu_cxx17__normal_iteratorIPKdSt6vectorIdSaIdEEEENS1_IPdS6_EEET1_T0_SB_SA_,comdat
	.weak	_ZSt13__copy_move_aILb0EN9__gnu_cxx17__normal_iteratorIPKdSt6vectorIdSaIdEEEENS1_IPdS6_EEET1_T0_SB_SA_
	.type	_ZSt13__copy_move_aILb0EN9__gnu_cxx17__normal_iteratorIPKdSt6vectorIdSaIdEEEENS1_IPdS6_EEET1_T0_SB_SA_, @function
_ZSt13__copy_move_aILb0EN9__gnu_cxx17__normal_iteratorIPKdSt6vectorIdSaIdEEEENS1_IPdS6_EEET1_T0_SB_SA_:
.LFB3256:
	.loc 2 527 5
	.cfi_startproc
	pushq	%rbp	#
	.cfi_def_cfa_offset 16
	.cfi_offset 6, -16
	movq	%rsp, %rbp	#,
	.cfi_def_cfa_register 6
	pushq	%r12	#
	pushq	%rbx	#
	subq	$32, %rsp	#,
	.cfi_offset 12, -24
	.cfi_offset 3, -32
	movq	%rdi, -24(%rbp)	# __first, __first
	movq	%rsi, -32(%rbp)	# __last, __last
	movq	%rdx, -40(%rbp)	# __result, __result
# /usr/include/c++/12/bits/stl_algobase.h:529:       return std::__niter_wrap(__result,
	.loc 2 529 31
	movq	-40(%rbp), %rax	# __result, tmp88
	movq	%rax, %rdi	# tmp88,
	call	_ZSt12__niter_baseIPdSt6vectorIdSaIdEEET_N9__gnu_cxx17__normal_iteratorIS4_T0_EE	#
	movq	%rax, %r12	#, _1
	movq	-32(%rbp), %rax	# __last, tmp89
	movq	%rax, %rdi	# tmp89,
	call	_ZSt12__niter_baseIPKdSt6vectorIdSaIdEEET_N9__gnu_cxx17__normal_iteratorIS5_T0_EE	#
	movq	%rax, %rbx	#, _2
	movq	-24(%rbp), %rax	# __first, tmp90
	movq	%rax, %rdi	# tmp90,
	call	_ZSt12__niter_baseIPKdSt6vectorIdSaIdEEET_N9__gnu_cxx17__normal_iteratorIS5_T0_EE	#
	movq	%r12, %rdx	# _1,
	movq	%rbx, %rsi	# _2,
	movq	%rax, %rdi	# _3,
	call	_ZSt14__copy_move_a1ILb0EPKdPdET1_T0_S4_S3_	#
	movq	%rax, %rdx	#, _4
	movq	-40(%rbp), %rax	# __result, tmp91
	movq	%rdx, %rsi	# _4,
	movq	%rax, %rdi	# tmp91,
	call	_ZSt12__niter_wrapIN9__gnu_cxx17__normal_iteratorIPdSt6vectorIdSaIdEEEES2_ET_S7_T0_	#
# /usr/include/c++/12/bits/stl_algobase.h:533:     }
	.loc 2 533 5
	addq	$32, %rsp	#,
	popq	%rbx	#
	popq	%r12	#
	popq	%rbp	#
	.cfi_def_cfa 7, 8
	ret	
	.cfi_endproc
.LFE3256:
	.size	_ZSt13__copy_move_aILb0EN9__gnu_cxx17__normal_iteratorIPKdSt6vectorIdSaIdEEEENS1_IPdS6_EEET1_T0_SB_SA_, .-_ZSt13__copy_move_aILb0EN9__gnu_cxx17__normal_iteratorIPKdSt6vectorIdSaIdEEEENS1_IPdS6_EEET1_T0_SB_SA_
	.section	.text._ZSt8__equal4IN9__gnu_cxx17__normal_iteratorIPlSt6vectorIlSaIlEEEES6_EbT_S7_T0_S8_,"axG",@progbits,_ZSt8__equal4IN9__gnu_cxx17__normal_iteratorIPlSt6vectorIlSaIlEEEES6_EbT_S7_T0_S8_,comdat
	.weak	_ZSt8__equal4IN9__gnu_cxx17__normal_iteratorIPlSt6vectorIlSaIlEEEES6_EbT_S7_T0_S8_
	.type	_ZSt8__equal4IN9__gnu_cxx17__normal_iteratorIPlSt6vectorIlSaIlEEEES6_EbT_S7_T0_S8_, @function
_ZSt8__equal4IN9__gnu_cxx17__normal_iteratorIPlSt6vectorIlSaIlEEEES6_EbT_S7_T0_S8_:
.LFB3258:
	.loc 2 1595 5
	.cfi_startproc
	pushq	%rbp	#
	.cfi_def_cfa_offset 16
	.cfi_offset 6, -16
	movq	%rsp, %rbp	#,
	.cfi_def_cfa_register 6
	pushq	%rbx	#
	subq	$72, %rsp	#,
	.cfi_offset 3, -24
	movq	%rdi, -56(%rbp)	# __first1, __first1
	movq	%rsi, -64(%rbp)	# __last1, __last1
	movq	%rdx, -72(%rbp)	# __first2, __first2
	movq	%rcx, -80(%rbp)	# __last2, __last2
.LBB55:
# /usr/include/c++/12/bits/stl_algobase.h:1601:       if (_RAIters())
	.loc 2 1601 11
	leaq	-33(%rbp), %rax	#, tmp97
	movq	%rax, %rdi	# tmp97,
	call	_ZNKSt17integral_constantIbLb1EEcvbEv	#
# /usr/include/c++/12/bits/stl_algobase.h:1601:       if (_RAIters())
	.loc 2 1601 7
	testb	%al, %al	# retval.36_20
	je	.L255	#,
.LBB56:
# /usr/include/c++/12/bits/stl_algobase.h:1603: 	  auto __d1 = std::distance(__first1, __last1);
	.loc 2 1603 29
	movq	-64(%rbp), %rdx	# __last1, tmp98
	movq	-56(%rbp), %rax	# __first1, tmp99
	movq	%rdx, %rsi	# tmp98,
	movq	%rax, %rdi	# tmp99,
	call	_ZSt8distanceIN9__gnu_cxx17__normal_iteratorIPlSt6vectorIlSaIlEEEEENSt15iterator_traitsIT_E15difference_typeES8_S8_	#
	movq	%rax, -24(%rbp)	# _39, __d1
# /usr/include/c++/12/bits/stl_algobase.h:1604: 	  auto __d2 = std::distance(__first2, __last2);
	.loc 2 1604 29
	movq	-80(%rbp), %rdx	# __last2, tmp100
	movq	-72(%rbp), %rax	# __first2, tmp101
	movq	%rdx, %rsi	# tmp100,
	movq	%rax, %rdi	# tmp101,
	call	_ZSt8distanceIN9__gnu_cxx17__normal_iteratorIPlSt6vectorIlSaIlEEEEENSt15iterator_traitsIT_E15difference_typeES8_S8_	#
	movq	%rax, -32(%rbp)	# _42, __d2
# /usr/include/c++/12/bits/stl_algobase.h:1605: 	  if (__d1 != __d2)
	.loc 2 1605 4
	movq	-24(%rbp), %rax	# __d1, tmp102
	cmpq	-32(%rbp), %rax	# __d2, tmp102
	je	.L253	#,
# /usr/include/c++/12/bits/stl_algobase.h:1606: 	    return false;
	.loc 2 1606 13
	movl	$0, %eax	#, _9
	jmp	.L254	#
.L253:
# /usr/include/c++/12/bits/stl_algobase.h:1607: 	  return _GLIBCXX_STD_A::equal(__first1, __last1, __first2);
	.loc 2 1607 32
	movq	-72(%rbp), %rdx	# __first2, tmp103
	movq	-64(%rbp), %rcx	# __last1, tmp104
	movq	-56(%rbp), %rax	# __first1, tmp105
	movq	%rcx, %rsi	# tmp104,
	movq	%rax, %rdi	# tmp105,
	call	_ZSt5equalIN9__gnu_cxx17__normal_iteratorIPlSt6vectorIlSaIlEEEES6_EbT_S7_T0_	#
# /usr/include/c++/12/bits/stl_algobase.h:1607: 	  return _GLIBCXX_STD_A::equal(__first1, __last1, __first2);
	.loc 2 1607 60
	jmp	.L254	#
.L259:
.LBE56:
.LBE55:
# /usr/include/c++/12/bits/stl_algobase.h:1612: 	if (!(*__first1 == *__first2))
	.loc 2 1612 8
	leaq	-56(%rbp), %rax	#, tmp106
	movq	%rax, %rdi	# tmp106,
	call	_ZNK9__gnu_cxx17__normal_iteratorIPlSt6vectorIlSaIlEEEdeEv	#
# /usr/include/c++/12/bits/stl_algobase.h:1612: 	if (!(*__first1 == *__first2))
	.loc 2 1612 18
	movq	(%rax), %rbx	# *_1, _2
# /usr/include/c++/12/bits/stl_algobase.h:1612: 	if (!(*__first1 == *__first2))
	.loc 2 1612 21
	leaq	-72(%rbp), %rax	#, tmp107
	movq	%rax, %rdi	# tmp107,
	call	_ZNK9__gnu_cxx17__normal_iteratorIPlSt6vectorIlSaIlEEEdeEv	#
# /usr/include/c++/12/bits/stl_algobase.h:1612: 	if (!(*__first1 == *__first2))
	.loc 2 1612 18
	movq	(%rax), %rax	# *_3, _4
	cmpq	%rax, %rbx	# _4, _2
	setne	%al	#, retval.37_34
# /usr/include/c++/12/bits/stl_algobase.h:1612: 	if (!(*__first1 == *__first2))
	.loc 2 1612 2
	testb	%al, %al	# retval.37_34
	je	.L256	#,
# /usr/include/c++/12/bits/stl_algobase.h:1613: 	  return false;
	.loc 2 1613 11
	movl	$0, %eax	#, _9
	jmp	.L254	#
.L256:
# /usr/include/c++/12/bits/stl_algobase.h:1611: 	  ++__first1, (void)++__first2)
	.loc 2 1611 4
	leaq	-56(%rbp), %rax	#, tmp108
	movq	%rax, %rdi	# tmp108,
	call	_ZN9__gnu_cxx17__normal_iteratorIPlSt6vectorIlSaIlEEEppEv	#
# /usr/include/c++/12/bits/stl_algobase.h:1611: 	  ++__first1, (void)++__first2)
	.loc 2 1611 22
	leaq	-72(%rbp), %rax	#, tmp109
	movq	%rax, %rdi	# tmp109,
	call	_ZN9__gnu_cxx17__normal_iteratorIPlSt6vectorIlSaIlEEEppEv	#
.L255:
# /usr/include/c++/12/bits/stl_algobase.h:1610:       for (; __first1 != __last1 && __first2 != __last2;
	.loc 2 1610 23
	leaq	-64(%rbp), %rdx	#, tmp110
	leaq	-56(%rbp), %rax	#, tmp111
	movq	%rdx, %rsi	# tmp110,
	movq	%rax, %rdi	# tmp111,
	call	_ZN9__gnu_cxxneIPlSt6vectorIlSaIlEEEEbRKNS_17__normal_iteratorIT_T0_EESA_	#
# /usr/include/c++/12/bits/stl_algobase.h:1610:       for (; __first1 != __last1 && __first2 != __last2;
	.loc 2 1610 34
	testb	%al, %al	# _5
	je	.L257	#,
# /usr/include/c++/12/bits/stl_algobase.h:1610:       for (; __first1 != __last1 && __first2 != __last2;
	.loc 2 1610 46 discriminator 1
	leaq	-80(%rbp), %rdx	#, tmp112
	leaq	-72(%rbp), %rax	#, tmp113
	movq	%rdx, %rsi	# tmp112,
	movq	%rax, %rdi	# tmp113,
	call	_ZN9__gnu_cxxneIPlSt6vectorIlSaIlEEEEbRKNS_17__normal_iteratorIT_T0_EESA_	#
# /usr/include/c++/12/bits/stl_algobase.h:1610:       for (; __first1 != __last1 && __first2 != __last2;
	.loc 2 1610 34 discriminator 1
	testb	%al, %al	# _6
	je	.L257	#,
# /usr/include/c++/12/bits/stl_algobase.h:1610:       for (; __first1 != __last1 && __first2 != __last2;
	.loc 2 1610 34 is_stmt 0 discriminator 3
	movl	$1, %eax	#, iftmp.39_10
	jmp	.L258	#
.L257:
# /usr/include/c++/12/bits/stl_algobase.h:1610:       for (; __first1 != __last1 && __first2 != __last2;
	.loc 2 1610 34 discriminator 4
	movl	$0, %eax	#, iftmp.39_10
.L258:
# /usr/include/c++/12/bits/stl_algobase.h:1610:       for (; __first1 != __last1 && __first2 != __last2;
	.loc 2 1610 34 discriminator 6
	testb	%al, %al	# iftmp.39_10
	jne	.L259	#,
# /usr/include/c++/12/bits/stl_algobase.h:1614:       return __first1 == __last1 && __first2 == __last2;
	.loc 2 1614 23 is_stmt 1
	leaq	-64(%rbp), %rdx	#, tmp114
	leaq	-56(%rbp), %rax	#, tmp115
	movq	%rdx, %rsi	# tmp114,
	movq	%rax, %rdi	# tmp115,
	call	_ZN9__gnu_cxxeqIPlSt6vectorIlSaIlEEEEbRKNS_17__normal_iteratorIT_T0_EESA_	#
# /usr/include/c++/12/bits/stl_algobase.h:1614:       return __first1 == __last1 && __first2 == __last2;
	.loc 2 1614 34
	testb	%al, %al	# _7
	je	.L260	#,
# /usr/include/c++/12/bits/stl_algobase.h:1614:       return __first1 == __last1 && __first2 == __last2;
	.loc 2 1614 46 discriminator 1
	leaq	-80(%rbp), %rdx	#, tmp116
	leaq	-72(%rbp), %rax	#, tmp117
	movq	%rdx, %rsi	# tmp116,
	movq	%rax, %rdi	# tmp117,
	call	_ZN9__gnu_cxxeqIPlSt6vectorIlSaIlEEEEbRKNS_17__normal_iteratorIT_T0_EESA_	#
# /usr/include/c++/12/bits/stl_algobase.h:1614:       return __first1 == __last1 && __first2 == __last2;
	.loc 2 1614 34 discriminator 1
	testb	%al, %al	# _8
	je	.L260	#,
# /usr/include/c++/12/bits/stl_algobase.h:1614:       return __first1 == __last1 && __first2 == __last2;
	.loc 2 1614 34 is_stmt 0 discriminator 3
	movl	$1, %eax	#, _9
# /usr/include/c++/12/bits/stl_algobase.h:1614:       return __first1 == __last1 && __first2 == __last2;
	.loc 2 1614 49 is_stmt 1 discriminator 3
	jmp	.L262	#
.L260:
# /usr/include/c++/12/bits/stl_algobase.h:1614:       return __first1 == __last1 && __first2 == __last2;
	.loc 2 1614 34 discriminator 4
	movl	$0, %eax	#, _9
.L262:
# /usr/include/c++/12/bits/stl_algobase.h:1614:       return __first1 == __last1 && __first2 == __last2;
	.loc 2 1614 49
	nop	
.L254:
# /usr/include/c++/12/bits/stl_algobase.h:1615:     }
	.loc 2 1615 5
	movq	-8(%rbp), %rbx	#,
	leave	
	.cfi_def_cfa 7, 8
	ret	
	.cfi_endproc
.LFE3258:
	.size	_ZSt8__equal4IN9__gnu_cxx17__normal_iteratorIPlSt6vectorIlSaIlEEEES6_EbT_S7_T0_S8_, .-_ZSt8__equal4IN9__gnu_cxx17__normal_iteratorIPlSt6vectorIlSaIlEEEES6_EbT_S7_T0_S8_
	.section	.text._ZNSt15__new_allocatorIdE10deallocateEPdm,"axG",@progbits,_ZNSt15__new_allocatorIdE10deallocateEPdm,comdat
	.align 2
	.weak	_ZNSt15__new_allocatorIdE10deallocateEPdm
	.type	_ZNSt15__new_allocatorIdE10deallocateEPdm, @function
_ZNSt15__new_allocatorIdE10deallocateEPdm:
.LFB3280:
	.loc 10 142 7
	.cfi_startproc
	pushq	%rbp	#
	.cfi_def_cfa_offset 16
	.cfi_offset 6, -16
	movq	%rsp, %rbp	#,
	.cfi_def_cfa_register 6
	subq	$32, %rsp	#,
	movq	%rdi, -8(%rbp)	# this, this
	movq	%rsi, -16(%rbp)	# __p, __p
	movq	%rdx, -24(%rbp)	# __n, __n
# /usr/include/c++/12/bits/new_allocator.h:158: 	_GLIBCXX_OPERATOR_DELETE(_GLIBCXX_SIZED_DEALLOC(__p, __n));
	.loc 10 158 26
	movq	-24(%rbp), %rax	# __n, tmp83
	leaq	0(,%rax,8), %rdx	#, _2
	movq	-16(%rbp), %rax	# __p, tmp84
	movq	%rdx, %rsi	# _2,
	movq	%rax, %rdi	# tmp84,
	call	_ZdlPvm@PLT	#
# /usr/include/c++/12/bits/new_allocator.h:159:       }
	.loc 10 159 7
	leave	
	.cfi_def_cfa 7, 8
	ret	
	.cfi_endproc
.LFE3280:
	.size	_ZNSt15__new_allocatorIdE10deallocateEPdm, .-_ZNSt15__new_allocatorIdE10deallocateEPdm
	.section	.text._ZNSt6vectorIlSaIlEE11_S_max_sizeERKS0_,"axG",@progbits,_ZNSt6vectorIlSaIlEE11_S_max_sizeERKS0_,comdat
	.weak	_ZNSt6vectorIlSaIlEE11_S_max_sizeERKS0_
	.type	_ZNSt6vectorIlSaIlEE11_S_max_sizeERKS0_, @function
_ZNSt6vectorIlSaIlEE11_S_max_sizeERKS0_:
.LFB3281:
	.loc 7 1911 7
	.cfi_startproc
	pushq	%rbp	#
	.cfi_def_cfa_offset 16
	.cfi_offset 6, -16
	movq	%rsp, %rbp	#,
	.cfi_def_cfa_register 6
	subq	$32, %rsp	#,
	movq	%rdi, -24(%rbp)	# __a, __a
# /usr/include/c++/12/bits/stl_vector.h:1916: 	const size_t __diffmax
	.loc 7 1916 15
	movabsq	$1152921504606846975, %rax	#, tmp91
	movq	%rax, -8(%rbp)	# tmp91, __diffmax
# /usr/include/c++/12/bits/stl_vector.h:1918: 	const size_t __allocmax = _Alloc_traits::max_size(__a);
	.loc 7 1918 51
	movq	-24(%rbp), %rax	# __a, tmp86
	movq	%rax, %rdi	# tmp86,
	call	_ZNSt16allocator_traitsISaIlEE8max_sizeERKS0_	#
# /usr/include/c++/12/bits/stl_vector.h:1918: 	const size_t __allocmax = _Alloc_traits::max_size(__a);
	.loc 7 1918 15
	movq	%rax, -16(%rbp)	# _1, __allocmax
# /usr/include/c++/12/bits/stl_vector.h:1919: 	return (std::min)(__diffmax, __allocmax);
	.loc 7 1919 19
	leaq	-16(%rbp), %rdx	#, tmp87
	leaq	-8(%rbp), %rax	#, tmp88
	movq	%rdx, %rsi	# tmp87,
	movq	%rax, %rdi	# tmp88,
	call	_ZSt3minImERKT_S2_S2_	#
# /usr/include/c++/12/bits/stl_vector.h:1919: 	return (std::min)(__diffmax, __allocmax);
	.loc 7 1919 41
	movq	(%rax), %rax	# *_2, _9
# /usr/include/c++/12/bits/stl_vector.h:1920:       }
	.loc 7 1920 7
	leave	
	.cfi_def_cfa 7, 8
	ret	
	.cfi_endproc
.LFE3281:
	.size	_ZNSt6vectorIlSaIlEE11_S_max_sizeERKS0_, .-_ZNSt6vectorIlSaIlEE11_S_max_sizeERKS0_
	.section	.text._ZNSt16allocator_traitsISaIlEE8allocateERS0_m,"axG",@progbits,_ZNSt16allocator_traitsISaIlEE8allocateERS0_m,comdat
	.weak	_ZNSt16allocator_traitsISaIlEE8allocateERS0_m
	.type	_ZNSt16allocator_traitsISaIlEE8allocateERS0_m, @function
_ZNSt16allocator_traitsISaIlEE8allocateERS0_m:
.LFB3282:
	.loc 9 463 7
	.cfi_startproc
	pushq	%rbp	#
	.cfi_def_cfa_offset 16
	.cfi_offset 6, -16
	movq	%rsp, %rbp	#,
	.cfi_def_cfa_register 6
	subq	$16, %rsp	#,
	movq	%rdi, -8(%rbp)	# __a, __a
	movq	%rsi, -16(%rbp)	# __n, __n
# /usr/include/c++/12/bits/alloc_traits.h:464:       { return __a.allocate(__n); }
	.loc 9 464 28
	movq	-16(%rbp), %rcx	# __n, tmp84
	movq	-8(%rbp), %rax	# __a, tmp85
	movl	$0, %edx	#,
	movq	%rcx, %rsi	# tmp84,
	movq	%rax, %rdi	# tmp85,
	call	_ZNSt15__new_allocatorIlE8allocateEmPKv	#
# /usr/include/c++/12/bits/alloc_traits.h:464:       { return __a.allocate(__n); }
	.loc 9 464 35
	leave	
	.cfi_def_cfa 7, 8
	ret	
	.cfi_endproc
.LFE3282:
	.size	_ZNSt16allocator_traitsISaIlEE8allocateERS0_m, .-_ZNSt16allocator_traitsISaIlEE8allocateERS0_m
	.section	.text._ZSt18uninitialized_copyIPKlPlET0_T_S4_S3_,"axG",@progbits,_ZSt18uninitialized_copyIPKlPlET0_T_S4_S3_,comdat
	.weak	_ZSt18uninitialized_copyIPKlPlET0_T_S4_S3_
	.type	_ZSt18uninitialized_copyIPKlPlET0_T_S4_S3_, @function
_ZSt18uninitialized_copyIPKlPlET0_T_S4_S3_:
.LFB3283:
	.loc 17 163 5
	.cfi_startproc
	pushq	%rbp	#
	.cfi_def_cfa_offset 16
	.cfi_offset 6, -16
	movq	%rsp, %rbp	#,
	.cfi_def_cfa_register 6
	subq	$48, %rsp	#,
	movq	%rdi, -24(%rbp)	# __first, __first
	movq	%rsi, -32(%rbp)	# __last, __last
	movq	%rdx, -40(%rbp)	# __result, __result
# /usr/include/c++/12/bits/stl_uninitialized.h:174:       const bool __can_memmove = __is_trivial(_ValueType1);
	.loc 17 174 18
	movb	$1, -1(%rbp)	#, __can_memmove
# /usr/include/c++/12/bits/stl_uninitialized.h:181:       const bool __assignable
	.loc 17 181 18
	movb	$1, -2(%rbp)	#, __assignable
# /usr/include/c++/12/bits/stl_uninitialized.h:185: 	__uninit_copy(__first, __last, __result);
	.loc 17 185 15
	movq	-40(%rbp), %rdx	# __result, tmp84
	movq	-32(%rbp), %rcx	# __last, tmp85
	movq	-24(%rbp), %rax	# __first, tmp86
	movq	%rcx, %rsi	# tmp85,
	movq	%rax, %rdi	# tmp86,
	call	_ZNSt20__uninitialized_copyILb1EE13__uninit_copyIPKlPlEET0_T_S6_S5_	#
# /usr/include/c++/12/bits/stl_uninitialized.h:186:     }
	.loc 17 186 5
	leave	
	.cfi_def_cfa 7, 8
	ret	
	.cfi_endproc
.LFE3283:
	.size	_ZSt18uninitialized_copyIPKlPlET0_T_S4_S3_, .-_ZSt18uninitialized_copyIPKlPlET0_T_S4_S3_
	.section	.text._ZNK9__gnu_cxx17__normal_iteratorIPlSt6vectorIlSaIlEEE4baseEv,"axG",@progbits,_ZNK9__gnu_cxx17__normal_iteratorIPlSt6vectorIlSaIlEEE4baseEv,comdat
	.align 2
	.weak	_ZNK9__gnu_cxx17__normal_iteratorIPlSt6vectorIlSaIlEEE4baseEv
	.type	_ZNK9__gnu_cxx17__normal_iteratorIPlSt6vectorIlSaIlEEE4baseEv, @function
_ZNK9__gnu_cxx17__normal_iteratorIPlSt6vectorIlSaIlEEE4baseEv:
.LFB3285:
	.loc 18 1158 7
	.cfi_startproc
	pushq	%rbp	#
	.cfi_def_cfa_offset 16
	.cfi_offset 6, -16
	movq	%rsp, %rbp	#,
	.cfi_def_cfa_register 6
	movq	%rdi, -8(%rbp)	# this, this
# /usr/include/c++/12/bits/stl_iterator.h:1159:       { return _M_current; }
	.loc 18 1159 16
	movq	-8(%rbp), %rax	# this, _2
# /usr/include/c++/12/bits/stl_iterator.h:1159:       { return _M_current; }
	.loc 18 1159 28
	popq	%rbp	#
	.cfi_def_cfa 7, 8
	ret	
	.cfi_endproc
.LFE3285:
	.size	_ZNK9__gnu_cxx17__normal_iteratorIPlSt6vectorIlSaIlEEE4baseEv, .-_ZNK9__gnu_cxx17__normal_iteratorIPlSt6vectorIlSaIlEEE4baseEv
	.section	.text._ZNKSt6vectorIdSaIdEE8max_sizeEv,"axG",@progbits,_ZNKSt6vectorIdSaIdEE8max_sizeEv,comdat
	.align 2
	.weak	_ZNKSt6vectorIdSaIdEE8max_sizeEv
	.type	_ZNKSt6vectorIdSaIdEE8max_sizeEv, @function
_ZNKSt6vectorIdSaIdEE8max_sizeEv:
.LFB3286:
	.loc 7 993 7
	.cfi_startproc
	pushq	%rbp	#
	.cfi_def_cfa_offset 16
	.cfi_offset 6, -16
	movq	%rsp, %rbp	#,
	.cfi_def_cfa_register 6
	subq	$16, %rsp	#,
	movq	%rdi, -8(%rbp)	# this, this
# /usr/include/c++/12/bits/stl_vector.h:994:       { return _S_max_size(_M_get_Tp_allocator()); }
	.loc 7 994 47
	movq	-8(%rbp), %rax	# this, _1
	movq	%rax, %rdi	# _1,
	call	_ZNKSt12_Vector_baseIdSaIdEE19_M_get_Tp_allocatorEv	#
# /usr/include/c++/12/bits/stl_vector.h:994:       { return _S_max_size(_M_get_Tp_allocator()); }
	.loc 7 994 27
	movq	%rax, %rdi	# _2,
	call	_ZNSt6vectorIdSaIdEE11_S_max_sizeERKS0_	#
# /usr/include/c++/12/bits/stl_vector.h:994:       { return _S_max_size(_M_get_Tp_allocator()); }
	.loc 7 994 52
	leave	
	.cfi_def_cfa 7, 8
	ret	
	.cfi_endproc
.LFE3286:
	.size	_ZNKSt6vectorIdSaIdEE8max_sizeEv, .-_ZNKSt6vectorIdSaIdEE8max_sizeEv
	.section	.text._ZSt27__uninitialized_default_n_aIPdmdET_S1_T0_RSaIT1_E,"axG",@progbits,_ZSt27__uninitialized_default_n_aIPdmdET_S1_T0_RSaIT1_E,comdat
	.weak	_ZSt27__uninitialized_default_n_aIPdmdET_S1_T0_RSaIT1_E
	.type	_ZSt27__uninitialized_default_n_aIPdmdET_S1_T0_RSaIT1_E, @function
_ZSt27__uninitialized_default_n_aIPdmdET_S1_T0_RSaIT1_E:
.LFB3287:
	.loc 17 764 5
	.cfi_startproc
	pushq	%rbp	#
	.cfi_def_cfa_offset 16
	.cfi_offset 6, -16
	movq	%rsp, %rbp	#,
	.cfi_def_cfa_register 6
	subq	$32, %rsp	#,
	movq	%rdi, -8(%rbp)	# __first, __first
	movq	%rsi, -16(%rbp)	# __n, __n
	movq	%rdx, -24(%rbp)	# D.66885, D.66885
# /usr/include/c++/12/bits/stl_uninitialized.h:766:     { return std::__uninitialized_default_n(__first, __n); }
	.loc 17 766 44
	movq	-16(%rbp), %rdx	# __n, tmp84
	movq	-8(%rbp), %rax	# __first, tmp85
	movq	%rdx, %rsi	# tmp84,
	movq	%rax, %rdi	# tmp85,
	call	_ZSt25__uninitialized_default_nIPdmET_S1_T0_	#
# /usr/include/c++/12/bits/stl_uninitialized.h:766:     { return std::__uninitialized_default_n(__first, __n); }
	.loc 17 766 60
	leave	
	.cfi_def_cfa 7, 8
	ret	
	.cfi_endproc
.LFE3287:
	.size	_ZSt27__uninitialized_default_n_aIPdmdET_S1_T0_RSaIT1_E, .-_ZSt27__uninitialized_default_n_aIPdmdET_S1_T0_RSaIT1_E
	.section	.text._ZNKSt6vectorIdSaIdEE12_M_check_lenEmPKc,"axG",@progbits,_ZNKSt6vectorIdSaIdEE12_M_check_lenEmPKc,comdat
	.align 2
	.weak	_ZNKSt6vectorIdSaIdEE12_M_check_lenEmPKc
	.type	_ZNKSt6vectorIdSaIdEE12_M_check_lenEmPKc, @function
_ZNKSt6vectorIdSaIdEE12_M_check_lenEmPKc:
.LFB3288:
	.loc 7 1891 7
	.cfi_startproc
	pushq	%rbp	#
	.cfi_def_cfa_offset 16
	.cfi_offset 6, -16
	movq	%rsp, %rbp	#,
	.cfi_def_cfa_register 6
	pushq	%rbx	#
	subq	$56, %rsp	#,
	.cfi_offset 3, -24
	movq	%rdi, -40(%rbp)	# this, this
	movq	%rsi, -48(%rbp)	# __n, __n
	movq	%rdx, -56(%rbp)	# __s, __s
# /usr/include/c++/12/bits/stl_vector.h:1893: 	if (max_size() - size() < __n)
	.loc 7 1893 14
	movq	-40(%rbp), %rax	# this, tmp95
	movq	%rax, %rdi	# tmp95,
	call	_ZNKSt6vectorIdSaIdEE8max_sizeEv	#
	movq	%rax, %rbx	#, _1
# /usr/include/c++/12/bits/stl_vector.h:1893: 	if (max_size() - size() < __n)
	.loc 7 1893 23
	movq	-40(%rbp), %rax	# this, tmp96
	movq	%rax, %rdi	# tmp96,
	call	_ZNKSt6vectorIdSaIdEE4sizeEv	#
# /usr/include/c++/12/bits/stl_vector.h:1893: 	if (max_size() - size() < __n)
	.loc 7 1893 17
	subq	%rax, %rbx	# _2, _1
	movq	%rbx, %rdx	# _1, _3
# /usr/include/c++/12/bits/stl_vector.h:1893: 	if (max_size() - size() < __n)
	.loc 7 1893 26
	movq	-48(%rbp), %rax	# __n, __n.16_4
	cmpq	%rax, %rdx	# __n.16_4, _3
	setb	%al	#, retval.15_18
# /usr/include/c++/12/bits/stl_vector.h:1893: 	if (max_size() - size() < __n)
	.loc 7 1893 2
	testb	%al, %al	# retval.15_18
	je	.L278	#,
# /usr/include/c++/12/bits/stl_vector.h:1894: 	  __throw_length_error(__N(__s));
	.loc 7 1894 24
	movq	-56(%rbp), %rax	# __s, tmp97
	movq	%rax, %rdi	# tmp97,
	call	_ZSt20__throw_length_errorPKc@PLT	#
.L278:
# /usr/include/c++/12/bits/stl_vector.h:1896: 	const size_type __len = size() + (std::max)(size(), __n);
	.loc 7 1896 30
	movq	-40(%rbp), %rax	# this, tmp98
	movq	%rax, %rdi	# tmp98,
	call	_ZNKSt6vectorIdSaIdEE4sizeEv	#
	movq	%rax, %rbx	#, _5
# /usr/include/c++/12/bits/stl_vector.h:1896: 	const size_type __len = size() + (std::max)(size(), __n);
	.loc 7 1896 50
	movq	-40(%rbp), %rax	# this, tmp99
	movq	%rax, %rdi	# tmp99,
	call	_ZNKSt6vectorIdSaIdEE4sizeEv	#
	movq	%rax, -32(%rbp)	# _6, D.66897
# /usr/include/c++/12/bits/stl_vector.h:1896: 	const size_type __len = size() + (std::max)(size(), __n);
	.loc 7 1896 45
	leaq	-48(%rbp), %rdx	#, tmp100
	leaq	-32(%rbp), %rax	#, tmp101
	movq	%rdx, %rsi	# tmp100,
	movq	%rax, %rdi	# tmp101,
	call	_ZSt3maxImERKT_S2_S2_	#
# /usr/include/c++/12/bits/stl_vector.h:1896: 	const size_type __len = size() + (std::max)(size(), __n);
	.loc 7 1896 33
	movq	(%rax), %rax	# *_7, _8
# /usr/include/c++/12/bits/stl_vector.h:1896: 	const size_type __len = size() + (std::max)(size(), __n);
	.loc 7 1896 18
	addq	%rbx, %rax	# _5, tmp102
	movq	%rax, -24(%rbp)	# tmp102, __len
# /usr/include/c++/12/bits/stl_vector.h:1897: 	return (__len < size() || __len > max_size()) ? max_size() : __len;
	.loc 7 1897 22
	movq	-40(%rbp), %rax	# this, tmp103
	movq	%rax, %rdi	# tmp103,
	call	_ZNKSt6vectorIdSaIdEE4sizeEv	#
# /usr/include/c++/12/bits/stl_vector.h:1897: 	return (__len < size() || __len > max_size()) ? max_size() : __len;
	.loc 7 1897 48
	cmpq	%rax, -24(%rbp)	# _9, __len
	jb	.L279	#,
# /usr/include/c++/12/bits/stl_vector.h:1897: 	return (__len < size() || __len > max_size()) ? max_size() : __len;
	.loc 7 1897 44 discriminator 2
	movq	-40(%rbp), %rax	# this, tmp104
	movq	%rax, %rdi	# tmp104,
	call	_ZNKSt6vectorIdSaIdEE8max_sizeEv	#
# /usr/include/c++/12/bits/stl_vector.h:1897: 	return (__len < size() || __len > max_size()) ? max_size() : __len;
	.loc 7 1897 25 discriminator 2
	cmpq	-24(%rbp), %rax	# __len, _10
	jnb	.L280	#,
.L279:
# /usr/include/c++/12/bits/stl_vector.h:1897: 	return (__len < size() || __len > max_size()) ? max_size() : __len;
	.loc 7 1897 58 discriminator 3
	movq	-40(%rbp), %rax	# this, tmp105
	movq	%rax, %rdi	# tmp105,
	call	_ZNKSt6vectorIdSaIdEE8max_sizeEv	#
# /usr/include/c++/12/bits/stl_vector.h:1897: 	return (__len < size() || __len > max_size()) ? max_size() : __len;
	.loc 7 1897 48 discriminator 3
	jmp	.L281	#
.L280:
# /usr/include/c++/12/bits/stl_vector.h:1897: 	return (__len < size() || __len > max_size()) ? max_size() : __len;
	.loc 7 1897 48 is_stmt 0 discriminator 4
	movq	-24(%rbp), %rax	# __len, iftmp.17_11
.L281:
# /usr/include/c++/12/bits/stl_vector.h:1898:       }
	.loc 7 1898 7 is_stmt 1 discriminator 6
	movq	-8(%rbp), %rbx	#,
	leave	
	.cfi_def_cfa 7, 8
	ret	
	.cfi_endproc
.LFE3288:
	.size	_ZNKSt6vectorIdSaIdEE12_M_check_lenEmPKc, .-_ZNKSt6vectorIdSaIdEE12_M_check_lenEmPKc
	.section	.text._ZNSt12_Vector_baseIdSaIdEE11_M_allocateEm,"axG",@progbits,_ZNSt12_Vector_baseIdSaIdEE11_M_allocateEm,comdat
	.align 2
	.weak	_ZNSt12_Vector_baseIdSaIdEE11_M_allocateEm
	.type	_ZNSt12_Vector_baseIdSaIdEE11_M_allocateEm, @function
_ZNSt12_Vector_baseIdSaIdEE11_M_allocateEm:
.LFB3289:
	.loc 7 375 7
	.cfi_startproc
	pushq	%rbp	#
	.cfi_def_cfa_offset 16
	.cfi_offset 6, -16
	movq	%rsp, %rbp	#,
	.cfi_def_cfa_register 6
	subq	$16, %rsp	#,
	movq	%rdi, -8(%rbp)	# this, this
	movq	%rsi, -16(%rbp)	# __n, __n
# /usr/include/c++/12/bits/stl_vector.h:378: 	return __n != 0 ? _Tr::allocate(_M_impl, __n) : pointer();
	.loc 7 378 18
	cmpq	$0, -16(%rbp)	#, __n
	je	.L284	#,
# /usr/include/c++/12/bits/stl_vector.h:378: 	return __n != 0 ? _Tr::allocate(_M_impl, __n) : pointer();
	.loc 7 378 34 discriminator 1
	movq	-8(%rbp), %rax	# this, _1
# /usr/include/c++/12/bits/stl_vector.h:378: 	return __n != 0 ? _Tr::allocate(_M_impl, __n) : pointer();
	.loc 7 378 33 discriminator 1
	movq	-16(%rbp), %rdx	# __n, tmp85
	movq	%rdx, %rsi	# tmp85,
	movq	%rax, %rdi	# _1,
	call	_ZNSt16allocator_traitsISaIdEE8allocateERS0_m	#
# /usr/include/c++/12/bits/stl_vector.h:378: 	return __n != 0 ? _Tr::allocate(_M_impl, __n) : pointer();
	.loc 7 378 58 discriminator 1
	jmp	.L286	#
.L284:
# /usr/include/c++/12/bits/stl_vector.h:378: 	return __n != 0 ? _Tr::allocate(_M_impl, __n) : pointer();
	.loc 7 378 18 discriminator 2
	movl	$0, %eax	#, _9
.L286:
# /usr/include/c++/12/bits/stl_vector.h:379:       }
	.loc 7 379 7 discriminator 5
	leave	
	.cfi_def_cfa 7, 8
	ret	
	.cfi_endproc
.LFE3289:
	.size	_ZNSt12_Vector_baseIdSaIdEE11_M_allocateEm, .-_ZNSt12_Vector_baseIdSaIdEE11_M_allocateEm
	.section	.text._ZNSt6vectorIdSaIdEE11_S_relocateEPdS2_S2_RS0_,"axG",@progbits,_ZNSt6vectorIdSaIdEE11_S_relocateEPdS2_S2_RS0_,comdat
	.weak	_ZNSt6vectorIdSaIdEE11_S_relocateEPdS2_S2_RS0_
	.type	_ZNSt6vectorIdSaIdEE11_S_relocateEPdS2_S2_RS0_, @function
_ZNSt6vectorIdSaIdEE11_S_relocateEPdS2_S2_RS0_:
.LFB3290:
	.loc 7 499 7
	.cfi_startproc
	pushq	%rbp	#
	.cfi_def_cfa_offset 16
	.cfi_offset 6, -16
	movq	%rsp, %rbp	#,
	.cfi_def_cfa_register 6
	subq	$32, %rsp	#,
	movq	%rdi, -8(%rbp)	# __first, __first
	movq	%rsi, -16(%rbp)	# __last, __last
	movq	%rdx, -24(%rbp)	# __result, __result
	movq	%rcx, -32(%rbp)	# __alloc, __alloc
# /usr/include/c++/12/bits/stl_vector.h:504: 	return std::__relocate_a(__first, __last, __result, __alloc);
	.loc 7 504 26
	movq	-32(%rbp), %rcx	# __alloc, tmp84
	movq	-24(%rbp), %rdx	# __result, tmp85
	movq	-16(%rbp), %rsi	# __last, tmp86
	movq	-8(%rbp), %rax	# __first, tmp87
	movq	%rax, %rdi	# tmp87,
	call	_ZSt12__relocate_aIPdS0_SaIdEET0_T_S3_S2_RT1_	#
# /usr/include/c++/12/bits/stl_vector.h:509:       }
	.loc 7 509 7
	leave	
	.cfi_def_cfa 7, 8
	ret	
	.cfi_endproc
.LFE3290:
	.size	_ZNSt6vectorIdSaIdEE11_S_relocateEPdS2_S2_RS0_, .-_ZNSt6vectorIdSaIdEE11_S_relocateEPdS2_S2_RS0_
	.section	.text._ZNSt15__new_allocatorIlE10deallocateEPlm,"axG",@progbits,_ZNSt15__new_allocatorIlE10deallocateEPlm,comdat
	.align 2
	.weak	_ZNSt15__new_allocatorIlE10deallocateEPlm
	.type	_ZNSt15__new_allocatorIlE10deallocateEPlm, @function
_ZNSt15__new_allocatorIlE10deallocateEPlm:
.LFB3291:
	.loc 10 142 7
	.cfi_startproc
	pushq	%rbp	#
	.cfi_def_cfa_offset 16
	.cfi_offset 6, -16
	movq	%rsp, %rbp	#,
	.cfi_def_cfa_register 6
	subq	$32, %rsp	#,
	movq	%rdi, -8(%rbp)	# this, this
	movq	%rsi, -16(%rbp)	# __p, __p
	movq	%rdx, -24(%rbp)	# __n, __n
# /usr/include/c++/12/bits/new_allocator.h:158: 	_GLIBCXX_OPERATOR_DELETE(_GLIBCXX_SIZED_DEALLOC(__p, __n));
	.loc 10 158 26
	movq	-24(%rbp), %rax	# __n, tmp83
	leaq	0(,%rax,8), %rdx	#, _2
	movq	-16(%rbp), %rax	# __p, tmp84
	movq	%rdx, %rsi	# _2,
	movq	%rax, %rdi	# tmp84,
	call	_ZdlPvm@PLT	#
# /usr/include/c++/12/bits/new_allocator.h:159:       }
	.loc 10 159 7
	leave	
	.cfi_def_cfa 7, 8
	ret	
	.cfi_endproc
.LFE3291:
	.size	_ZNSt15__new_allocatorIlE10deallocateEPlm, .-_ZNSt15__new_allocatorIlE10deallocateEPlm
	.section	.text._ZNKSt12_Vector_baseIlSaIlEE19_M_get_Tp_allocatorEv,"axG",@progbits,_ZNKSt12_Vector_baseIlSaIlEE19_M_get_Tp_allocatorEv,comdat
	.align 2
	.weak	_ZNKSt12_Vector_baseIlSaIlEE19_M_get_Tp_allocatorEv
	.type	_ZNKSt12_Vector_baseIlSaIlEE19_M_get_Tp_allocatorEv, @function
_ZNKSt12_Vector_baseIlSaIlEE19_M_get_Tp_allocatorEv:
.LFB3292:
	.loc 7 303 7
	.cfi_startproc
	pushq	%rbp	#
	.cfi_def_cfa_offset 16
	.cfi_offset 6, -16
	movq	%rsp, %rbp	#,
	.cfi_def_cfa_register 6
	movq	%rdi, -8(%rbp)	# this, this
# /usr/include/c++/12/bits/stl_vector.h:304:       { return this->_M_impl; }
	.loc 7 304 22
	movq	-8(%rbp), %rax	# this, _2
# /usr/include/c++/12/bits/stl_vector.h:304:       { return this->_M_impl; }
	.loc 7 304 31
	popq	%rbp	#
	.cfi_def_cfa 7, 8
	ret	
	.cfi_endproc
.LFE3292:
	.size	_ZNKSt12_Vector_baseIlSaIlEE19_M_get_Tp_allocatorEv, .-_ZNKSt12_Vector_baseIlSaIlEE19_M_get_Tp_allocatorEv
	.section	.text._ZN9__gnu_cxx14__alloc_traitsISaIlElE17_S_select_on_copyERKS1_,"axG",@progbits,_ZN9__gnu_cxx14__alloc_traitsISaIlElE17_S_select_on_copyERKS1_,comdat
	.weak	_ZN9__gnu_cxx14__alloc_traitsISaIlElE17_S_select_on_copyERKS1_
	.type	_ZN9__gnu_cxx14__alloc_traitsISaIlElE17_S_select_on_copyERKS1_, @function
_ZN9__gnu_cxx14__alloc_traitsISaIlElE17_S_select_on_copyERKS1_:
.LFB3293:
	.file 21 "/usr/include/c++/12/ext/alloc_traits.h"
	.loc 21 97 29
	.cfi_startproc
	pushq	%rbp	#
	.cfi_def_cfa_offset 16
	.cfi_offset 6, -16
	movq	%rsp, %rbp	#,
	.cfi_def_cfa_register 6
	subq	$16, %rsp	#,
	movq	%rdi, -8(%rbp)	# .result_ptr, .result_ptr
	movq	%rsi, -16(%rbp)	# __a, __a
# /usr/include/c++/12/ext/alloc_traits.h:98:     { return _Base_type::select_on_container_copy_construction(__a); }
	.loc 21 98 67
	movq	-8(%rbp), %rax	# <retval>, tmp82
	movq	-16(%rbp), %rdx	# __a, tmp83
	movq	%rdx, %rsi	# tmp83,
	movq	%rax, %rdi	# tmp82,
	call	_ZNSt16allocator_traitsISaIlEE37select_on_container_copy_constructionERKS0_	#
# /usr/include/c++/12/ext/alloc_traits.h:98:     { return _Base_type::select_on_container_copy_construction(__a); }
	.loc 21 98 70
	movq	-8(%rbp), %rax	# <retval>,
	leave	
	.cfi_def_cfa 7, 8
	ret	
	.cfi_endproc
.LFE3293:
	.size	_ZN9__gnu_cxx14__alloc_traitsISaIlElE17_S_select_on_copyERKS1_, .-_ZN9__gnu_cxx14__alloc_traitsISaIlElE17_S_select_on_copyERKS1_
	.section	.text._ZNSt12_Vector_baseIlSaIlEEC2EmRKS0_,"axG",@progbits,_ZNSt12_Vector_baseIlSaIlEEC5EmRKS0_,comdat
	.align 2
	.weak	_ZNSt12_Vector_baseIlSaIlEEC2EmRKS0_
	.type	_ZNSt12_Vector_baseIlSaIlEEC2EmRKS0_, @function
_ZNSt12_Vector_baseIlSaIlEEC2EmRKS0_:
.LFB3295:
	.loc 7 330 7
	.cfi_startproc
	.cfi_personality 0x9b,DW.ref.__gxx_personality_v0
	.cfi_lsda 0x1b,.LLSDA3295
	pushq	%rbp	#
	.cfi_def_cfa_offset 16
	.cfi_offset 6, -16
	movq	%rsp, %rbp	#,
	.cfi_def_cfa_register 6
	pushq	%rbx	#
	subq	$40, %rsp	#,
	.cfi_offset 3, -24
	movq	%rdi, -24(%rbp)	# this, this
	movq	%rsi, -32(%rbp)	# __n, __n
	movq	%rdx, -40(%rbp)	# __a, __a
.LBB57:
# /usr/include/c++/12/bits/stl_vector.h:331:       : _M_impl(__a)
	.loc 7 331 9
	movq	-24(%rbp), %rax	# this, _1
	movq	-40(%rbp), %rdx	# __a, tmp85
	movq	%rdx, %rsi	# tmp85,
	movq	%rax, %rdi	# _1,
	call	_ZNSt12_Vector_baseIlSaIlEE12_Vector_implC1ERKS0_	#
# /usr/include/c++/12/bits/stl_vector.h:332:       { _M_create_storage(__n); }
	.loc 7 332 26
	movq	-32(%rbp), %rdx	# __n, tmp86
	movq	-24(%rbp), %rax	# this, tmp87
	movq	%rdx, %rsi	# tmp86,
	movq	%rax, %rdi	# tmp87,
.LEHB38:
	call	_ZNSt12_Vector_baseIlSaIlEE17_M_create_storageEm	#
.LEHE38:
.LBE57:
# /usr/include/c++/12/bits/stl_vector.h:332:       { _M_create_storage(__n); }
	.loc 7 332 33
	jmp	.L298	#
.L297:
.LBB58:
	movq	%rax, %rbx	#, tmp88
	movq	-24(%rbp), %rax	# this, _2
	movq	%rax, %rdi	# _2,
	call	_ZNSt12_Vector_baseIlSaIlEE12_Vector_implD1Ev	#
	movq	%rbx, %rax	# tmp88, D.68853
	movq	%rax, %rdi	# D.68853,
.LEHB39:
	call	_Unwind_Resume@PLT	#
.LEHE39:
.L298:
.LBE58:
	movq	-8(%rbp), %rbx	#,
	leave	
	.cfi_def_cfa 7, 8
	ret	
	.cfi_endproc
.LFE3295:
	.section	.gcc_except_table
.LLSDA3295:
	.byte	0xff
	.byte	0xff
	.byte	0x1
	.uleb128 .LLSDACSE3295-.LLSDACSB3295
.LLSDACSB3295:
	.uleb128 .LEHB38-.LFB3295
	.uleb128 .LEHE38-.LEHB38
	.uleb128 .L297-.LFB3295
	.uleb128 0
	.uleb128 .LEHB39-.LFB3295
	.uleb128 .LEHE39-.LEHB39
	.uleb128 0
	.uleb128 0
.LLSDACSE3295:
	.section	.text._ZNSt12_Vector_baseIlSaIlEEC2EmRKS0_,"axG",@progbits,_ZNSt12_Vector_baseIlSaIlEEC5EmRKS0_,comdat
	.size	_ZNSt12_Vector_baseIlSaIlEEC2EmRKS0_, .-_ZNSt12_Vector_baseIlSaIlEEC2EmRKS0_
	.weak	_ZNSt12_Vector_baseIlSaIlEEC1EmRKS0_
	.set	_ZNSt12_Vector_baseIlSaIlEEC1EmRKS0_,_ZNSt12_Vector_baseIlSaIlEEC2EmRKS0_
	.section	.text._ZNKSt6vectorIlSaIlEE5beginEv,"axG",@progbits,_ZNKSt6vectorIlSaIlEE5beginEv,comdat
	.align 2
	.weak	_ZNKSt6vectorIlSaIlEE5beginEv
	.type	_ZNKSt6vectorIlSaIlEE5beginEv, @function
_ZNKSt6vectorIlSaIlEE5beginEv:
.LFB3297:
	.loc 7 878 7
	.cfi_startproc
	pushq	%rbp	#
	.cfi_def_cfa_offset 16
	.cfi_offset 6, -16
	movq	%rsp, %rbp	#,
	.cfi_def_cfa_register 6
	subq	$32, %rsp	#,
	movq	%rdi, -24(%rbp)	# this, this
# /usr/include/c++/12/bits/stl_vector.h:879:       { return const_iterator(this->_M_impl._M_start); }
	.loc 7 879 45
	movq	-24(%rbp), %rdx	# this, _1
# /usr/include/c++/12/bits/stl_vector.h:879:       { return const_iterator(this->_M_impl._M_start); }
	.loc 7 879 16
	leaq	-8(%rbp), %rax	#, tmp85
	movq	%rdx, %rsi	# _1,
	movq	%rax, %rdi	# tmp85,
	call	_ZN9__gnu_cxx17__normal_iteratorIPKlSt6vectorIlSaIlEEEC1ERKS2_	#
# /usr/include/c++/12/bits/stl_vector.h:879:       { return const_iterator(this->_M_impl._M_start); }
	.loc 7 879 53
	movq	-8(%rbp), %rax	# D.66937, D.68229
# /usr/include/c++/12/bits/stl_vector.h:879:       { return const_iterator(this->_M_impl._M_start); }
	.loc 7 879 56
	leave	
	.cfi_def_cfa 7, 8
	ret	
	.cfi_endproc
.LFE3297:
	.size	_ZNKSt6vectorIlSaIlEE5beginEv, .-_ZNKSt6vectorIlSaIlEE5beginEv
	.section	.text._ZNKSt6vectorIlSaIlEE3endEv,"axG",@progbits,_ZNKSt6vectorIlSaIlEE3endEv,comdat
	.align 2
	.weak	_ZNKSt6vectorIlSaIlEE3endEv
	.type	_ZNKSt6vectorIlSaIlEE3endEv, @function
_ZNKSt6vectorIlSaIlEE3endEv:
.LFB3298:
	.loc 7 898 7
	.cfi_startproc
	pushq	%rbp	#
	.cfi_def_cfa_offset 16
	.cfi_offset 6, -16
	movq	%rsp, %rbp	#,
	.cfi_def_cfa_register 6
	subq	$32, %rsp	#,
	movq	%rdi, -24(%rbp)	# this, this
# /usr/include/c++/12/bits/stl_vector.h:899:       { return const_iterator(this->_M_impl._M_finish); }
	.loc 7 899 45
	movq	-24(%rbp), %rax	# this, tmp85
	leaq	8(%rax), %rdx	#, _1
# /usr/include/c++/12/bits/stl_vector.h:899:       { return const_iterator(this->_M_impl._M_finish); }
	.loc 7 899 16
	leaq	-8(%rbp), %rax	#, tmp86
	movq	%rdx, %rsi	# _1,
	movq	%rax, %rdi	# tmp86,
	call	_ZN9__gnu_cxx17__normal_iteratorIPKlSt6vectorIlSaIlEEEC1ERKS2_	#
# /usr/include/c++/12/bits/stl_vector.h:899:       { return const_iterator(this->_M_impl._M_finish); }
	.loc 7 899 54
	movq	-8(%rbp), %rax	# D.66939, D.68226
# /usr/include/c++/12/bits/stl_vector.h:899:       { return const_iterator(this->_M_impl._M_finish); }
	.loc 7 899 57
	leave	
	.cfi_def_cfa 7, 8
	ret	
	.cfi_endproc
.LFE3298:
	.size	_ZNKSt6vectorIlSaIlEE3endEv, .-_ZNKSt6vectorIlSaIlEE3endEv
	.section	.text._ZSt22__uninitialized_copy_aIN9__gnu_cxx17__normal_iteratorIPKlSt6vectorIlSaIlEEEEPllET0_T_SA_S9_RSaIT1_E,"axG",@progbits,_ZSt22__uninitialized_copy_aIN9__gnu_cxx17__normal_iteratorIPKlSt6vectorIlSaIlEEEEPllET0_T_SA_S9_RSaIT1_E,comdat
	.weak	_ZSt22__uninitialized_copy_aIN9__gnu_cxx17__normal_iteratorIPKlSt6vectorIlSaIlEEEEPllET0_T_SA_S9_RSaIT1_E
	.type	_ZSt22__uninitialized_copy_aIN9__gnu_cxx17__normal_iteratorIPKlSt6vectorIlSaIlEEEEPllET0_T_SA_S9_RSaIT1_E, @function
_ZSt22__uninitialized_copy_aIN9__gnu_cxx17__normal_iteratorIPKlSt6vectorIlSaIlEEEEPllET0_T_SA_S9_RSaIT1_E:
.LFB3299:
	.loc 17 365 5
	.cfi_startproc
	pushq	%rbp	#
	.cfi_def_cfa_offset 16
	.cfi_offset 6, -16
	movq	%rsp, %rbp	#,
	.cfi_def_cfa_register 6
	subq	$32, %rsp	#,
	movq	%rdi, -8(%rbp)	# __first, __first
	movq	%rsi, -16(%rbp)	# __last, __last
	movq	%rdx, -24(%rbp)	# __result, __result
	movq	%rcx, -32(%rbp)	# D.66943, D.66943
# /usr/include/c++/12/bits/stl_uninitialized.h:372:       return std::uninitialized_copy(__first, __last, __result);
	.loc 17 372 37
	movq	-24(%rbp), %rdx	# __result, tmp84
	movq	-16(%rbp), %rcx	# __last, tmp85
	movq	-8(%rbp), %rax	# __first, tmp86
	movq	%rcx, %rsi	# tmp85,
	movq	%rax, %rdi	# tmp86,
	call	_ZSt18uninitialized_copyIN9__gnu_cxx17__normal_iteratorIPKlSt6vectorIlSaIlEEEEPlET0_T_SA_S9_	#
# /usr/include/c++/12/bits/stl_uninitialized.h:373:     }
	.loc 17 373 5
	leave	
	.cfi_def_cfa 7, 8
	ret	
	.cfi_endproc
.LFE3299:
	.size	_ZSt22__uninitialized_copy_aIN9__gnu_cxx17__normal_iteratorIPKlSt6vectorIlSaIlEEEEPllET0_T_SA_S9_RSaIT1_E, .-_ZSt22__uninitialized_copy_aIN9__gnu_cxx17__normal_iteratorIPKlSt6vectorIlSaIlEEEEPllET0_T_SA_S9_RSaIT1_E
	.section	.text._ZNSt15__new_allocatorIlEC2ERKS0_,"axG",@progbits,_ZNSt15__new_allocatorIlEC5ERKS0_,comdat
	.align 2
	.weak	_ZNSt15__new_allocatorIlEC2ERKS0_
	.type	_ZNSt15__new_allocatorIlEC2ERKS0_, @function
_ZNSt15__new_allocatorIlEC2ERKS0_:
.LFB3301:
	.loc 10 83 7
	.cfi_startproc
	pushq	%rbp	#
	.cfi_def_cfa_offset 16
	.cfi_offset 6, -16
	movq	%rsp, %rbp	#,
	.cfi_def_cfa_register 6
	movq	%rdi, -8(%rbp)	# this, this
	movq	%rsi, -16(%rbp)	# D.53824, D.53824
# /usr/include/c++/12/bits/new_allocator.h:83:       __new_allocator(const __new_allocator&) _GLIBCXX_USE_NOEXCEPT { }
	.loc 10 83 71
	nop	
	popq	%rbp	#
	.cfi_def_cfa 7, 8
	ret	
	.cfi_endproc
.LFE3301:
	.size	_ZNSt15__new_allocatorIlEC2ERKS0_, .-_ZNSt15__new_allocatorIlEC2ERKS0_
	.weak	_ZNSt15__new_allocatorIlEC1ERKS0_
	.set	_ZNSt15__new_allocatorIlEC1ERKS0_,_ZNSt15__new_allocatorIlEC2ERKS0_
	.section	.text._ZNKSt12_Vector_baseIlSaIlEE13get_allocatorEv,"axG",@progbits,_ZNKSt12_Vector_baseIlSaIlEE13get_allocatorEv,comdat
	.align 2
	.weak	_ZNKSt12_Vector_baseIlSaIlEE13get_allocatorEv
	.type	_ZNKSt12_Vector_baseIlSaIlEE13get_allocatorEv, @function
_ZNKSt12_Vector_baseIlSaIlEE13get_allocatorEv:
.LFB3303:
	.loc 7 308 7
	.cfi_startproc
	pushq	%rbp	#
	.cfi_def_cfa_offset 16
	.cfi_offset 6, -16
	movq	%rsp, %rbp	#,
	.cfi_def_cfa_register 6
	subq	$16, %rsp	#,
	movq	%rdi, -8(%rbp)	# .result_ptr, .result_ptr
	movq	%rsi, -16(%rbp)	# this, this
# /usr/include/c++/12/bits/stl_vector.h:309:       { return allocator_type(_M_get_Tp_allocator()); }
	.loc 7 309 50
	movq	-16(%rbp), %rax	# this, tmp83
	movq	%rax, %rdi	# tmp83,
	call	_ZNKSt12_Vector_baseIlSaIlEE19_M_get_Tp_allocatorEv	#
	movq	%rax, %rdx	#, _1
# /usr/include/c++/12/bits/stl_vector.h:309:       { return allocator_type(_M_get_Tp_allocator()); }
	.loc 7 309 52
	movq	-8(%rbp), %rax	# <retval>, tmp84
	movq	%rdx, %rsi	# _1,
	movq	%rax, %rdi	# tmp84,
	call	_ZNSaIlEC1ERKS_	#
# /usr/include/c++/12/bits/stl_vector.h:309:       { return allocator_type(_M_get_Tp_allocator()); }
	.loc 7 309 55
	movq	-8(%rbp), %rax	# <retval>,
	leave	
	.cfi_def_cfa 7, 8
	ret	
	.cfi_endproc
.LFE3303:
	.size	_ZNKSt12_Vector_baseIlSaIlEE13get_allocatorEv, .-_ZNKSt12_Vector_baseIlSaIlEE13get_allocatorEv
	.section	.text._ZNSt6vectorIlSaIlEEC2ERKS0_,"axG",@progbits,_ZNSt6vectorIlSaIlEEC5ERKS0_,comdat
	.align 2
	.weak	_ZNSt6vectorIlSaIlEEC2ERKS0_
	.type	_ZNSt6vectorIlSaIlEEC2ERKS0_, @function
_ZNSt6vectorIlSaIlEEC2ERKS0_:
.LFB3305:
	.loc 7 537 7
	.cfi_startproc
	pushq	%rbp	#
	.cfi_def_cfa_offset 16
	.cfi_offset 6, -16
	movq	%rsp, %rbp	#,
	.cfi_def_cfa_register 6
	subq	$16, %rsp	#,
	movq	%rdi, -8(%rbp)	# this, this
	movq	%rsi, -16(%rbp)	# __a, __a
.LBB59:
# /usr/include/c++/12/bits/stl_vector.h:538:       : _Base(__a) { }
	.loc 7 538 18
	movq	-8(%rbp), %rax	# this, _1
	movq	-16(%rbp), %rdx	# __a, tmp84
	movq	%rdx, %rsi	# tmp84,
	movq	%rax, %rdi	# _1,
	call	_ZNSt12_Vector_baseIlSaIlEEC2ERKS0_	#
.LBE59:
# /usr/include/c++/12/bits/stl_vector.h:538:       : _Base(__a) { }
	.loc 7 538 22
	nop	
	leave	
	.cfi_def_cfa 7, 8
	ret	
	.cfi_endproc
.LFE3305:
	.size	_ZNSt6vectorIlSaIlEEC2ERKS0_, .-_ZNSt6vectorIlSaIlEEC2ERKS0_
	.weak	_ZNSt6vectorIlSaIlEEC1ERKS0_
	.set	_ZNSt6vectorIlSaIlEEC1ERKS0_,_ZNSt6vectorIlSaIlEEC2ERKS0_
	.section	.text._ZNSt12_Vector_baseIlSaIlEE17_Vector_impl_data12_M_swap_dataERS2_,"axG",@progbits,_ZNSt12_Vector_baseIlSaIlEE17_Vector_impl_data12_M_swap_dataERS2_,comdat
	.align 2
	.weak	_ZNSt12_Vector_baseIlSaIlEE17_Vector_impl_data12_M_swap_dataERS2_
	.type	_ZNSt12_Vector_baseIlSaIlEE17_Vector_impl_data12_M_swap_dataERS2_, @function
_ZNSt12_Vector_baseIlSaIlEE17_Vector_impl_data12_M_swap_dataERS2_:
.LFB3307:
	.loc 7 122 2
	.cfi_startproc
	pushq	%rbp	#
	.cfi_def_cfa_offset 16
	.cfi_offset 6, -16
	movq	%rsp, %rbp	#,
	.cfi_def_cfa_register 6
	subq	$48, %rsp	#,
	movq	%rdi, -40(%rbp)	# this, this
	movq	%rsi, -48(%rbp)	# __x, __x
# /usr/include/c++/12/bits/stl_vector.h:126: 	  _Vector_impl_data __tmp;
	.loc 7 126 22
	leaq	-32(%rbp), %rax	#, tmp82
	movq	%rax, %rdi	# tmp82,
	call	_ZNSt12_Vector_baseIlSaIlEE17_Vector_impl_dataC1Ev	#
# /usr/include/c++/12/bits/stl_vector.h:127: 	  __tmp._M_copy_data(*this);
	.loc 7 127 22
	movq	-40(%rbp), %rdx	# this, tmp83
	leaq	-32(%rbp), %rax	#, tmp84
	movq	%rdx, %rsi	# tmp83,
	movq	%rax, %rdi	# tmp84,
	call	_ZNSt12_Vector_baseIlSaIlEE17_Vector_impl_data12_M_copy_dataERKS2_	#
# /usr/include/c++/12/bits/stl_vector.h:128: 	  _M_copy_data(__x);
	.loc 7 128 16
	movq	-48(%rbp), %rdx	# __x, tmp85
	movq	-40(%rbp), %rax	# this, tmp86
	movq	%rdx, %rsi	# tmp85,
	movq	%rax, %rdi	# tmp86,
	call	_ZNSt12_Vector_baseIlSaIlEE17_Vector_impl_data12_M_copy_dataERKS2_	#
# /usr/include/c++/12/bits/stl_vector.h:129: 	  __x._M_copy_data(__tmp);
	.loc 7 129 20
	leaq	-32(%rbp), %rdx	#, tmp87
	movq	-48(%rbp), %rax	# __x, tmp88
	movq	%rdx, %rsi	# tmp87,
	movq	%rax, %rdi	# tmp88,
	call	_ZNSt12_Vector_baseIlSaIlEE17_Vector_impl_data12_M_copy_dataERKS2_	#
# /usr/include/c++/12/bits/stl_vector.h:130: 	}
	.loc 7 130 2
	nop	
	leave	
	.cfi_def_cfa 7, 8
	ret	
	.cfi_endproc
.LFE3307:
	.size	_ZNSt12_Vector_baseIlSaIlEE17_Vector_impl_data12_M_swap_dataERS2_, .-_ZNSt12_Vector_baseIlSaIlEE17_Vector_impl_data12_M_swap_dataERS2_
	.section	.text._ZSt15__alloc_on_moveISaIlEEvRT_S2_,"axG",@progbits,_ZSt15__alloc_on_moveISaIlEEvRT_S2_,comdat
	.weak	_ZSt15__alloc_on_moveISaIlEEvRT_S2_
	.type	_ZSt15__alloc_on_moveISaIlEEvRT_S2_, @function
_ZSt15__alloc_on_moveISaIlEEvRT_S2_:
.LFB3308:
	.loc 9 710 5
	.cfi_startproc
	pushq	%rbp	#
	.cfi_def_cfa_offset 16
	.cfi_offset 6, -16
	movq	%rsp, %rbp	#,
	.cfi_def_cfa_register 6
	subq	$16, %rsp	#,
	movq	%rdi, -8(%rbp)	# __one, __one
	movq	%rsi, -16(%rbp)	# __two, __two
# /usr/include/c++/12/bits/alloc_traits.h:716: 	__one = std::move(__two);
	.loc 9 716 19
	movq	-16(%rbp), %rax	# __two, tmp82
	movq	%rax, %rdi	# tmp82,
	call	_ZSt4moveIRSaIlEEONSt16remove_referenceIT_E4typeEOS3_	#
# /usr/include/c++/12/bits/alloc_traits.h:720:     }
	.loc 9 720 5
	nop	
	leave	
	.cfi_def_cfa 7, 8
	ret	
	.cfi_endproc
.LFE3308:
	.size	_ZSt15__alloc_on_moveISaIlEEvRT_S2_, .-_ZSt15__alloc_on_moveISaIlEEvRT_S2_
	.section	.text._ZSt12__niter_baseIPKdSt6vectorIdSaIdEEET_N9__gnu_cxx17__normal_iteratorIS5_T0_EE,"axG",@progbits,_ZSt12__niter_baseIPKdSt6vectorIdSaIdEEET_N9__gnu_cxx17__normal_iteratorIS5_T0_EE,comdat
	.weak	_ZSt12__niter_baseIPKdSt6vectorIdSaIdEEET_N9__gnu_cxx17__normal_iteratorIS5_T0_EE
	.type	_ZSt12__niter_baseIPKdSt6vectorIdSaIdEEET_N9__gnu_cxx17__normal_iteratorIS5_T0_EE, @function
_ZSt12__niter_baseIPKdSt6vectorIdSaIdEEET_N9__gnu_cxx17__normal_iteratorIS5_T0_EE:
.LFB3309:
	.loc 18 1353 5
	.cfi_startproc
	pushq	%rbp	#
	.cfi_def_cfa_offset 16
	.cfi_offset 6, -16
	movq	%rsp, %rbp	#,
	.cfi_def_cfa_register 6
	subq	$16, %rsp	#,
	movq	%rdi, -8(%rbp)	# __it, __it
# /usr/include/c++/12/bits/stl_iterator.h:1355:     { return __it.base(); }
	.loc 18 1355 23
	leaq	-8(%rbp), %rax	#, tmp85
	movq	%rax, %rdi	# tmp85,
	call	_ZNK9__gnu_cxx17__normal_iteratorIPKdSt6vectorIdSaIdEEE4baseEv	#
# /usr/include/c++/12/bits/stl_iterator.h:1355:     { return __it.base(); }
	.loc 18 1355 24
	movq	(%rax), %rax	# *_1, _4
# /usr/include/c++/12/bits/stl_iterator.h:1355:     { return __it.base(); }
	.loc 18 1355 27
	leave	
	.cfi_def_cfa 7, 8
	ret	
	.cfi_endproc
.LFE3309:
	.size	_ZSt12__niter_baseIPKdSt6vectorIdSaIdEEET_N9__gnu_cxx17__normal_iteratorIS5_T0_EE, .-_ZSt12__niter_baseIPKdSt6vectorIdSaIdEEET_N9__gnu_cxx17__normal_iteratorIS5_T0_EE
	.section	.text._ZSt12__niter_baseIPdSt6vectorIdSaIdEEET_N9__gnu_cxx17__normal_iteratorIS4_T0_EE,"axG",@progbits,_ZSt12__niter_baseIPdSt6vectorIdSaIdEEET_N9__gnu_cxx17__normal_iteratorIS4_T0_EE,comdat
	.weak	_ZSt12__niter_baseIPdSt6vectorIdSaIdEEET_N9__gnu_cxx17__normal_iteratorIS4_T0_EE
	.type	_ZSt12__niter_baseIPdSt6vectorIdSaIdEEET_N9__gnu_cxx17__normal_iteratorIS4_T0_EE, @function
_ZSt12__niter_baseIPdSt6vectorIdSaIdEEET_N9__gnu_cxx17__normal_iteratorIS4_T0_EE:
.LFB3310:
	.loc 18 1353 5
	.cfi_startproc
	pushq	%rbp	#
	.cfi_def_cfa_offset 16
	.cfi_offset 6, -16
	movq	%rsp, %rbp	#,
	.cfi_def_cfa_register 6
	subq	$16, %rsp	#,
	movq	%rdi, -8(%rbp)	# __it, __it
# /usr/include/c++/12/bits/stl_iterator.h:1355:     { return __it.base(); }
	.loc 18 1355 23
	leaq	-8(%rbp), %rax	#, tmp85
	movq	%rax, %rdi	# tmp85,
	call	_ZNK9__gnu_cxx17__normal_iteratorIPdSt6vectorIdSaIdEEE4baseEv	#
# /usr/include/c++/12/bits/stl_iterator.h:1355:     { return __it.base(); }
	.loc 18 1355 24
	movq	(%rax), %rax	# *_1, _4
# /usr/include/c++/12/bits/stl_iterator.h:1355:     { return __it.base(); }
	.loc 18 1355 27
	leave	
	.cfi_def_cfa 7, 8
	ret	
	.cfi_endproc
.LFE3310:
	.size	_ZSt12__niter_baseIPdSt6vectorIdSaIdEEET_N9__gnu_cxx17__normal_iteratorIS4_T0_EE, .-_ZSt12__niter_baseIPdSt6vectorIdSaIdEEET_N9__gnu_cxx17__normal_iteratorIS4_T0_EE
	.section	.text._ZSt14__copy_move_a1ILb0EPKdPdET1_T0_S4_S3_,"axG",@progbits,_ZSt14__copy_move_a1ILb0EPKdPdET1_T0_S4_S3_,comdat
	.weak	_ZSt14__copy_move_a1ILb0EPKdPdET1_T0_S4_S3_
	.type	_ZSt14__copy_move_a1ILb0EPKdPdET1_T0_S4_S3_, @function
_ZSt14__copy_move_a1ILb0EPKdPdET1_T0_S4_S3_:
.LFB3311:
	.loc 2 521 5
	.cfi_startproc
	pushq	%rbp	#
	.cfi_def_cfa_offset 16
	.cfi_offset 6, -16
	movq	%rsp, %rbp	#,
	.cfi_def_cfa_register 6
	subq	$32, %rsp	#,
	movq	%rdi, -8(%rbp)	# __first, __first
	movq	%rsi, -16(%rbp)	# __last, __last
	movq	%rdx, -24(%rbp)	# __result, __result
# /usr/include/c++/12/bits/stl_algobase.h:522:     { return std::__copy_move_a2<_IsMove>(__first, __last, __result); }
	.loc 2 522 42
	movq	-24(%rbp), %rdx	# __result, tmp84
	movq	-16(%rbp), %rcx	# __last, tmp85
	movq	-8(%rbp), %rax	# __first, tmp86
	movq	%rcx, %rsi	# tmp85,
	movq	%rax, %rdi	# tmp86,
	call	_ZSt14__copy_move_a2ILb0EPKdPdET1_T0_S4_S3_	#
# /usr/include/c++/12/bits/stl_algobase.h:522:     { return std::__copy_move_a2<_IsMove>(__first, __last, __result); }
	.loc 2 522 71
	leave	
	.cfi_def_cfa 7, 8
	ret	
	.cfi_endproc
.LFE3311:
	.size	_ZSt14__copy_move_a1ILb0EPKdPdET1_T0_S4_S3_, .-_ZSt14__copy_move_a1ILb0EPKdPdET1_T0_S4_S3_
	.section	.text._ZSt12__niter_wrapIN9__gnu_cxx17__normal_iteratorIPdSt6vectorIdSaIdEEEES2_ET_S7_T0_,"axG",@progbits,_ZSt12__niter_wrapIN9__gnu_cxx17__normal_iteratorIPdSt6vectorIdSaIdEEEES2_ET_S7_T0_,comdat
	.weak	_ZSt12__niter_wrapIN9__gnu_cxx17__normal_iteratorIPdSt6vectorIdSaIdEEEES2_ET_S7_T0_
	.type	_ZSt12__niter_wrapIN9__gnu_cxx17__normal_iteratorIPdSt6vectorIdSaIdEEEES2_ET_S7_T0_, @function
_ZSt12__niter_wrapIN9__gnu_cxx17__normal_iteratorIPdSt6vectorIdSaIdEEEES2_ET_S7_T0_:
.LFB3312:
	.loc 2 328 5
	.cfi_startproc
	pushq	%rbp	#
	.cfi_def_cfa_offset 16
	.cfi_offset 6, -16
	movq	%rsp, %rbp	#,
	.cfi_def_cfa_register 6
	subq	$16, %rsp	#,
	movq	%rdi, -8(%rbp)	# __from, __from
	movq	%rsi, -16(%rbp)	# __res, __res
# /usr/include/c++/12/bits/stl_algobase.h:329:     { return __from + (__res - std::__niter_base(__from)); }
	.loc 2 329 49
	movq	-8(%rbp), %rax	# __from, tmp87
	movq	%rax, %rdi	# tmp87,
	call	_ZSt12__niter_baseIPdSt6vectorIdSaIdEEET_N9__gnu_cxx17__normal_iteratorIS4_T0_EE	#
# /usr/include/c++/12/bits/stl_algobase.h:329:     { return __from + (__res - std::__niter_base(__from)); }
	.loc 2 329 30
	movq	-16(%rbp), %rdx	# __res, tmp88
	subq	%rax, %rdx	# _1, _2
# /usr/include/c++/12/bits/stl_algobase.h:329:     { return __from + (__res - std::__niter_base(__from)); }
	.loc 2 329 21
	movq	%rdx, %rax	# _2, _2
	sarq	$3, %rax	#, _2
	movq	%rax, %rdx	# tmp89, _3
	leaq	-8(%rbp), %rax	#, tmp90
	movq	%rdx, %rsi	# _3,
	movq	%rax, %rdi	# tmp90,
	call	_ZNK9__gnu_cxx17__normal_iteratorIPdSt6vectorIdSaIdEEEplEl	#
# /usr/include/c++/12/bits/stl_algobase.h:329:     { return __from + (__res - std::__niter_base(__from)); }
	.loc 2 329 60
	leave	
	.cfi_def_cfa 7, 8
	ret	
	.cfi_endproc
.LFE3312:
	.size	_ZSt12__niter_wrapIN9__gnu_cxx17__normal_iteratorIPdSt6vectorIdSaIdEEEES2_ET_S7_T0_, .-_ZSt12__niter_wrapIN9__gnu_cxx17__normal_iteratorIPdSt6vectorIdSaIdEEEES2_ET_S7_T0_
	.section	.text._ZSt8distanceIN9__gnu_cxx17__normal_iteratorIPlSt6vectorIlSaIlEEEEENSt15iterator_traitsIT_E15difference_typeES8_S8_,"axG",@progbits,_ZSt8distanceIN9__gnu_cxx17__normal_iteratorIPlSt6vectorIlSaIlEEEEENSt15iterator_traitsIT_E15difference_typeES8_S8_,comdat
	.weak	_ZSt8distanceIN9__gnu_cxx17__normal_iteratorIPlSt6vectorIlSaIlEEEEENSt15iterator_traitsIT_E15difference_typeES8_S8_
	.type	_ZSt8distanceIN9__gnu_cxx17__normal_iteratorIPlSt6vectorIlSaIlEEEEENSt15iterator_traitsIT_E15difference_typeES8_S8_, @function
_ZSt8distanceIN9__gnu_cxx17__normal_iteratorIPlSt6vectorIlSaIlEEEEENSt15iterator_traitsIT_E15difference_typeES8_S8_:
.LFB3313:
	.loc 12 147 5
	.cfi_startproc
	pushq	%rbp	#
	.cfi_def_cfa_offset 16
	.cfi_offset 6, -16
	movq	%rsp, %rbp	#,
	.cfi_def_cfa_register 6
	subq	$16, %rsp	#,
	movq	%rdi, -8(%rbp)	# __first, __first
	movq	%rsi, -16(%rbp)	# __last, __last
# /usr/include/c++/12/bits/stl_iterator_base_funcs.h:151: 			     std::__iterator_category(__first));
	.loc 12 151 33
	leaq	-8(%rbp), %rax	#, tmp85
	movq	%rax, %rdi	# tmp85,
	call	_ZSt19__iterator_categoryIN9__gnu_cxx17__normal_iteratorIPlSt6vectorIlSaIlEEEEENSt15iterator_traitsIT_E17iterator_categoryERKS8_	#
# /usr/include/c++/12/bits/stl_iterator_base_funcs.h:150:       return std::__distance(__first, __last,
	.loc 12 150 29
	movq	-16(%rbp), %rdx	# __last, tmp86
	movq	-8(%rbp), %rax	# __first, tmp87
	movq	%rdx, %rsi	# tmp86,
	movq	%rax, %rdi	# tmp87,
	call	_ZSt10__distanceIN9__gnu_cxx17__normal_iteratorIPlSt6vectorIlSaIlEEEEENSt15iterator_traitsIT_E15difference_typeES8_S8_St26random_access_iterator_tag	#
# /usr/include/c++/12/bits/stl_iterator_base_funcs.h:152:     }
	.loc 12 152 5
	leave	
	.cfi_def_cfa 7, 8
	ret	
	.cfi_endproc
.LFE3313:
	.size	_ZSt8distanceIN9__gnu_cxx17__normal_iteratorIPlSt6vectorIlSaIlEEEEENSt15iterator_traitsIT_E15difference_typeES8_S8_, .-_ZSt8distanceIN9__gnu_cxx17__normal_iteratorIPlSt6vectorIlSaIlEEEEENSt15iterator_traitsIT_E15difference_typeES8_S8_
	.section	.text._ZSt5equalIN9__gnu_cxx17__normal_iteratorIPlSt6vectorIlSaIlEEEES6_EbT_S7_T0_,"axG",@progbits,_ZSt5equalIN9__gnu_cxx17__normal_iteratorIPlSt6vectorIlSaIlEEEES6_EbT_S7_T0_,comdat
	.weak	_ZSt5equalIN9__gnu_cxx17__normal_iteratorIPlSt6vectorIlSaIlEEEES6_EbT_S7_T0_
	.type	_ZSt5equalIN9__gnu_cxx17__normal_iteratorIPlSt6vectorIlSaIlEEEES6_EbT_S7_T0_, @function
_ZSt5equalIN9__gnu_cxx17__normal_iteratorIPlSt6vectorIlSaIlEEEES6_EbT_S7_T0_:
.LFB3314:
	.loc 2 1545 5
	.cfi_startproc
	pushq	%rbp	#
	.cfi_def_cfa_offset 16
	.cfi_offset 6, -16
	movq	%rsp, %rbp	#,
	.cfi_def_cfa_register 6
	subq	$32, %rsp	#,
	movq	%rdi, -8(%rbp)	# __first1, __first1
	movq	%rsi, -16(%rbp)	# __last1, __last1
	movq	%rdx, -24(%rbp)	# __first2, __first2
# /usr/include/c++/12/bits/stl_algobase.h:1555:       return std::__equal_aux(__first1, __last1, __first2);
	.loc 2 1555 30
	movq	-24(%rbp), %rdx	# __first2, tmp84
	movq	-16(%rbp), %rcx	# __last1, tmp85
	movq	-8(%rbp), %rax	# __first1, tmp86
	movq	%rcx, %rsi	# tmp85,
	movq	%rax, %rdi	# tmp86,
	call	_ZSt11__equal_auxIN9__gnu_cxx17__normal_iteratorIPlSt6vectorIlSaIlEEEES6_EbT_S7_T0_	#
# /usr/include/c++/12/bits/stl_algobase.h:1556:     }
	.loc 2 1556 5
	leave	
	.cfi_def_cfa 7, 8
	ret	
	.cfi_endproc
.LFE3314:
	.size	_ZSt5equalIN9__gnu_cxx17__normal_iteratorIPlSt6vectorIlSaIlEEEES6_EbT_S7_T0_, .-_ZSt5equalIN9__gnu_cxx17__normal_iteratorIPlSt6vectorIlSaIlEEEES6_EbT_S7_T0_
	.section	.text._ZN9__gnu_cxxeqIPlSt6vectorIlSaIlEEEEbRKNS_17__normal_iteratorIT_T0_EESA_,"axG",@progbits,_ZN9__gnu_cxxeqIPlSt6vectorIlSaIlEEEEbRKNS_17__normal_iteratorIT_T0_EESA_,comdat
	.weak	_ZN9__gnu_cxxeqIPlSt6vectorIlSaIlEEEEbRKNS_17__normal_iteratorIT_T0_EESA_
	.type	_ZN9__gnu_cxxeqIPlSt6vectorIlSaIlEEEEbRKNS_17__normal_iteratorIT_T0_EESA_, @function
_ZN9__gnu_cxxeqIPlSt6vectorIlSaIlEEEEbRKNS_17__normal_iteratorIT_T0_EESA_:
.LFB3315:
	.loc 18 1221 5
	.cfi_startproc
	pushq	%rbp	#
	.cfi_def_cfa_offset 16
	.cfi_offset 6, -16
	movq	%rsp, %rbp	#,
	.cfi_def_cfa_register 6
	pushq	%rbx	#
	subq	$24, %rsp	#,
	.cfi_offset 3, -24
	movq	%rdi, -24(%rbp)	# __lhs, __lhs
	movq	%rsi, -32(%rbp)	# __rhs, __rhs
# /usr/include/c++/12/bits/stl_iterator.h:1224:     { return __lhs.base() == __rhs.base(); }
	.loc 18 1224 24
	movq	-24(%rbp), %rax	# __lhs, tmp88
	movq	%rax, %rdi	# tmp88,
	call	_ZNK9__gnu_cxx17__normal_iteratorIPlSt6vectorIlSaIlEEE4baseEv	#
# /usr/include/c++/12/bits/stl_iterator.h:1224:     { return __lhs.base() == __rhs.base(); }
	.loc 18 1224 27
	movq	(%rax), %rbx	# *_1, _2
# /usr/include/c++/12/bits/stl_iterator.h:1224:     { return __lhs.base() == __rhs.base(); }
	.loc 18 1224 40
	movq	-32(%rbp), %rax	# __rhs, tmp89
	movq	%rax, %rdi	# tmp89,
	call	_ZNK9__gnu_cxx17__normal_iteratorIPlSt6vectorIlSaIlEEE4baseEv	#
# /usr/include/c++/12/bits/stl_iterator.h:1224:     { return __lhs.base() == __rhs.base(); }
	.loc 18 1224 27
	movq	(%rax), %rax	# *_3, _4
# /usr/include/c++/12/bits/stl_iterator.h:1224:     { return __lhs.base() == __rhs.base(); }
	.loc 18 1224 41
	cmpq	%rax, %rbx	# _4, _2
	sete	%al	#, _10
# /usr/include/c++/12/bits/stl_iterator.h:1224:     { return __lhs.base() == __rhs.base(); }
	.loc 18 1224 44
	movq	-8(%rbp), %rbx	#,
	leave	
	.cfi_def_cfa 7, 8
	ret	
	.cfi_endproc
.LFE3315:
	.size	_ZN9__gnu_cxxeqIPlSt6vectorIlSaIlEEEEbRKNS_17__normal_iteratorIT_T0_EESA_, .-_ZN9__gnu_cxxeqIPlSt6vectorIlSaIlEEEEbRKNS_17__normal_iteratorIT_T0_EESA_
	.section	.text._ZNSt16allocator_traitsISaIlEE8max_sizeERKS0_,"axG",@progbits,_ZNSt16allocator_traitsISaIlEE8max_sizeERKS0_,comdat
	.weak	_ZNSt16allocator_traitsISaIlEE8max_sizeERKS0_
	.type	_ZNSt16allocator_traitsISaIlEE8max_sizeERKS0_, @function
_ZNSt16allocator_traitsISaIlEE8max_sizeERKS0_:
.LFB3325:
	.loc 9 547 7
	.cfi_startproc
	pushq	%rbp	#
	.cfi_def_cfa_offset 16
	.cfi_offset 6, -16
	movq	%rsp, %rbp	#,
	.cfi_def_cfa_register 6
	subq	$16, %rsp	#,
	movq	%rdi, -8(%rbp)	# __a, __a
# /usr/include/c++/12/bits/alloc_traits.h:550: 	return __a.max_size();
	.loc 9 550 21
	movq	-8(%rbp), %rax	# __a, tmp84
	movq	%rax, %rdi	# tmp84,
	call	_ZNKSt15__new_allocatorIlE8max_sizeEv	#
# /usr/include/c++/12/bits/alloc_traits.h:554:       }
	.loc 9 554 7
	leave	
	.cfi_def_cfa 7, 8
	ret	
	.cfi_endproc
.LFE3325:
	.size	_ZNSt16allocator_traitsISaIlEE8max_sizeERKS0_, .-_ZNSt16allocator_traitsISaIlEE8max_sizeERKS0_
	.section	.text._ZSt3minImERKT_S2_S2_,"axG",@progbits,_ZSt3minImERKT_S2_S2_,comdat
	.weak	_ZSt3minImERKT_S2_S2_
	.type	_ZSt3minImERKT_S2_S2_, @function
_ZSt3minImERKT_S2_S2_:
.LFB3326:
	.loc 2 230 5
	.cfi_startproc
	pushq	%rbp	#
	.cfi_def_cfa_offset 16
	.cfi_offset 6, -16
	movq	%rsp, %rbp	#,
	.cfi_def_cfa_register 6
	movq	%rdi, -8(%rbp)	# __a, __a
	movq	%rsi, -16(%rbp)	# __b, __b
# /usr/include/c++/12/bits/stl_algobase.h:235:       if (__b < __a)
	.loc 2 235 15
	movq	-16(%rbp), %rax	# __b, tmp86
	movq	(%rax), %rdx	# *__b_5(D), _1
	movq	-8(%rbp), %rax	# __a, tmp87
	movq	(%rax), %rax	# *__a_6(D), _2
# /usr/include/c++/12/bits/stl_algobase.h:235:       if (__b < __a)
	.loc 2 235 7
	cmpq	%rax, %rdx	# _2, _1
	jnb	.L328	#,
# /usr/include/c++/12/bits/stl_algobase.h:236: 	return __b;
	.loc 2 236 9
	movq	-16(%rbp), %rax	# __b, _3
	jmp	.L329	#
.L328:
# /usr/include/c++/12/bits/stl_algobase.h:237:       return __a;
	.loc 2 237 14
	movq	-8(%rbp), %rax	# __a, _3
.L329:
# /usr/include/c++/12/bits/stl_algobase.h:238:     }
	.loc 2 238 5
	popq	%rbp	#
	.cfi_def_cfa 7, 8
	ret	
	.cfi_endproc
.LFE3326:
	.size	_ZSt3minImERKT_S2_S2_, .-_ZSt3minImERKT_S2_S2_
	.section	.text._ZNSt15__new_allocatorIlE8allocateEmPKv,"axG",@progbits,_ZNSt15__new_allocatorIlE8allocateEmPKv,comdat
	.align 2
	.weak	_ZNSt15__new_allocatorIlE8allocateEmPKv
	.type	_ZNSt15__new_allocatorIlE8allocateEmPKv, @function
_ZNSt15__new_allocatorIlE8allocateEmPKv:
.LFB3327:
	.loc 10 112 7
	.cfi_startproc
	pushq	%rbp	#
	.cfi_def_cfa_offset 16
	.cfi_offset 6, -16
	movq	%rsp, %rbp	#,
	.cfi_def_cfa_register 6
	subq	$32, %rsp	#,
	movq	%rdi, -8(%rbp)	# this, this
	movq	%rsi, -16(%rbp)	# __n, __n
	movq	%rdx, -24(%rbp)	# D.67155, D.67155
# /usr/include/c++/12/bits/new_allocator.h:120: 	if (__builtin_expect(__n > this->_M_max_size(), false))
	.loc 10 120 46
	movq	-8(%rbp), %rax	# this, tmp90
	movq	%rax, %rdi	# tmp90,
	call	_ZNKSt15__new_allocatorIlE11_M_max_sizeEv	#
# /usr/include/c++/12/bits/new_allocator.h:120: 	if (__builtin_expect(__n > this->_M_max_size(), false))
	.loc 10 120 27
	cmpq	-16(%rbp), %rax	# __n, _1
	setb	%al	#, _2
# /usr/include/c++/12/bits/new_allocator.h:120: 	if (__builtin_expect(__n > this->_M_max_size(), false))
	.loc 10 120 22
	movzbl	%al, %eax	# _2, _3
	testq	%rax, %rax	# _4
	setne	%al	#, retval.4_10
# /usr/include/c++/12/bits/new_allocator.h:120: 	if (__builtin_expect(__n > this->_M_max_size(), false))
	.loc 10 120 2
	testb	%al, %al	# retval.4_10
	je	.L331	#,
# /usr/include/c++/12/bits/new_allocator.h:124: 	    if (__n > (std::size_t(-1) / sizeof(_Tp)))
	.loc 10 124 6
	movabsq	$2305843009213693951, %rax	#, tmp91
	cmpq	-16(%rbp), %rax	# __n, tmp91
	jnb	.L332	#,
# /usr/include/c++/12/bits/new_allocator.h:125: 	      std::__throw_bad_array_new_length();
	.loc 10 125 41
	call	_ZSt28__throw_bad_array_new_lengthv@PLT	#
.L332:
# /usr/include/c++/12/bits/new_allocator.h:126: 	    std::__throw_bad_alloc();
	.loc 10 126 28
	call	_ZSt17__throw_bad_allocv@PLT	#
.L331:
# /usr/include/c++/12/bits/new_allocator.h:137: 	return static_cast<_Tp*>(_GLIBCXX_OPERATOR_NEW(__n * sizeof(_Tp)));
	.loc 10 137 48
	movq	-16(%rbp), %rax	# __n, tmp92
	salq	$3, %rax	#, _6
	movq	%rax, %rdi	# _6,
	call	_Znwm@PLT	#
# /usr/include/c++/12/bits/new_allocator.h:137: 	return static_cast<_Tp*>(_GLIBCXX_OPERATOR_NEW(__n * sizeof(_Tp)));
	.loc 10 137 67
	nop	
# /usr/include/c++/12/bits/new_allocator.h:138:       }
	.loc 10 138 7
	leave	
	.cfi_def_cfa 7, 8
	ret	
	.cfi_endproc
.LFE3327:
	.size	_ZNSt15__new_allocatorIlE8allocateEmPKv, .-_ZNSt15__new_allocatorIlE8allocateEmPKv
	.section	.text._ZNSt20__uninitialized_copyILb1EE13__uninit_copyIPKlPlEET0_T_S6_S5_,"axG",@progbits,_ZNSt20__uninitialized_copyILb1EE13__uninit_copyIPKlPlEET0_T_S6_S5_,comdat
	.weak	_ZNSt20__uninitialized_copyILb1EE13__uninit_copyIPKlPlEET0_T_S6_S5_
	.type	_ZNSt20__uninitialized_copyILb1EE13__uninit_copyIPKlPlEET0_T_S6_S5_, @function
_ZNSt20__uninitialized_copyILb1EE13__uninit_copyIPKlPlEET0_T_S6_S5_:
.LFB3328:
	.loc 17 145 9
	.cfi_startproc
	pushq	%rbp	#
	.cfi_def_cfa_offset 16
	.cfi_offset 6, -16
	movq	%rsp, %rbp	#,
	.cfi_def_cfa_register 6
	subq	$32, %rsp	#,
	movq	%rdi, -8(%rbp)	# __first, __first
	movq	%rsi, -16(%rbp)	# __last, __last
	movq	%rdx, -24(%rbp)	# __result, __result
# /usr/include/c++/12/bits/stl_uninitialized.h:147:         { return std::copy(__first, __last, __result); }
	.loc 17 147 27
	movq	-24(%rbp), %rdx	# __result, tmp84
	movq	-16(%rbp), %rcx	# __last, tmp85
	movq	-8(%rbp), %rax	# __first, tmp86
	movq	%rcx, %rsi	# tmp85,
	movq	%rax, %rdi	# tmp86,
	call	_ZSt4copyIPKlPlET0_T_S4_S3_	#
# /usr/include/c++/12/bits/stl_uninitialized.h:147:         { return std::copy(__first, __last, __result); }
	.loc 17 147 56
	leave	
	.cfi_def_cfa 7, 8
	ret	
	.cfi_endproc
.LFE3328:
	.size	_ZNSt20__uninitialized_copyILb1EE13__uninit_copyIPKlPlEET0_T_S6_S5_, .-_ZNSt20__uninitialized_copyILb1EE13__uninit_copyIPKlPlEET0_T_S6_S5_
	.section	.text._ZNSt6vectorIdSaIdEE11_S_max_sizeERKS0_,"axG",@progbits,_ZNSt6vectorIdSaIdEE11_S_max_sizeERKS0_,comdat
	.weak	_ZNSt6vectorIdSaIdEE11_S_max_sizeERKS0_
	.type	_ZNSt6vectorIdSaIdEE11_S_max_sizeERKS0_, @function
_ZNSt6vectorIdSaIdEE11_S_max_sizeERKS0_:
.LFB3329:
	.loc 7 1911 7
	.cfi_startproc
	pushq	%rbp	#
	.cfi_def_cfa_offset 16
	.cfi_offset 6, -16
	movq	%rsp, %rbp	#,
	.cfi_def_cfa_register 6
	subq	$32, %rsp	#,
	movq	%rdi, -24(%rbp)	# __a, __a
# /usr/include/c++/12/bits/stl_vector.h:1916: 	const size_t __diffmax
	.loc 7 1916 15
	movabsq	$1152921504606846975, %rax	#, tmp91
	movq	%rax, -8(%rbp)	# tmp91, __diffmax
# /usr/include/c++/12/bits/stl_vector.h:1918: 	const size_t __allocmax = _Alloc_traits::max_size(__a);
	.loc 7 1918 51
	movq	-24(%rbp), %rax	# __a, tmp86
	movq	%rax, %rdi	# tmp86,
	call	_ZNSt16allocator_traitsISaIdEE8max_sizeERKS0_	#
# /usr/include/c++/12/bits/stl_vector.h:1918: 	const size_t __allocmax = _Alloc_traits::max_size(__a);
	.loc 7 1918 15
	movq	%rax, -16(%rbp)	# _1, __allocmax
# /usr/include/c++/12/bits/stl_vector.h:1919: 	return (std::min)(__diffmax, __allocmax);
	.loc 7 1919 19
	leaq	-16(%rbp), %rdx	#, tmp87
	leaq	-8(%rbp), %rax	#, tmp88
	movq	%rdx, %rsi	# tmp87,
	movq	%rax, %rdi	# tmp88,
	call	_ZSt3minImERKT_S2_S2_	#
# /usr/include/c++/12/bits/stl_vector.h:1919: 	return (std::min)(__diffmax, __allocmax);
	.loc 7 1919 41
	movq	(%rax), %rax	# *_2, _9
# /usr/include/c++/12/bits/stl_vector.h:1920:       }
	.loc 7 1920 7
	leave	
	.cfi_def_cfa 7, 8
	ret	
	.cfi_endproc
.LFE3329:
	.size	_ZNSt6vectorIdSaIdEE11_S_max_sizeERKS0_, .-_ZNSt6vectorIdSaIdEE11_S_max_sizeERKS0_
	.section	.text._ZNKSt12_Vector_baseIdSaIdEE19_M_get_Tp_allocatorEv,"axG",@progbits,_ZNKSt12_Vector_baseIdSaIdEE19_M_get_Tp_allocatorEv,comdat
	.align 2
	.weak	_ZNKSt12_Vector_baseIdSaIdEE19_M_get_Tp_allocatorEv
	.type	_ZNKSt12_Vector_baseIdSaIdEE19_M_get_Tp_allocatorEv, @function
_ZNKSt12_Vector_baseIdSaIdEE19_M_get_Tp_allocatorEv:
.LFB3330:
	.loc 7 303 7
	.cfi_startproc
	pushq	%rbp	#
	.cfi_def_cfa_offset 16
	.cfi_offset 6, -16
	movq	%rsp, %rbp	#,
	.cfi_def_cfa_register 6
	movq	%rdi, -8(%rbp)	# this, this
# /usr/include/c++/12/bits/stl_vector.h:304:       { return this->_M_impl; }
	.loc 7 304 22
	movq	-8(%rbp), %rax	# this, _2
# /usr/include/c++/12/bits/stl_vector.h:304:       { return this->_M_impl; }
	.loc 7 304 31
	popq	%rbp	#
	.cfi_def_cfa 7, 8
	ret	
	.cfi_endproc
.LFE3330:
	.size	_ZNKSt12_Vector_baseIdSaIdEE19_M_get_Tp_allocatorEv, .-_ZNKSt12_Vector_baseIdSaIdEE19_M_get_Tp_allocatorEv
	.section	.text._ZSt25__uninitialized_default_nIPdmET_S1_T0_,"axG",@progbits,_ZSt25__uninitialized_default_nIPdmET_S1_T0_,comdat
	.weak	_ZSt25__uninitialized_default_nIPdmET_S1_T0_
	.type	_ZSt25__uninitialized_default_nIPdmET_S1_T0_, @function
_ZSt25__uninitialized_default_nIPdmET_S1_T0_:
.LFB3331:
	.loc 17 691 5
	.cfi_startproc
	pushq	%rbp	#
	.cfi_def_cfa_offset 16
	.cfi_offset 6, -16
	movq	%rsp, %rbp	#,
	.cfi_def_cfa_register 6
	subq	$32, %rsp	#,
	movq	%rdi, -24(%rbp)	# __first, __first
	movq	%rsi, -32(%rbp)	# __n, __n
# /usr/include/c++/12/bits/stl_uninitialized.h:696:       constexpr bool __can_fill
	.loc 17 696 22
	movb	$1, -1(%rbp)	#, __can_fill
# /usr/include/c++/12/bits/stl_uninitialized.h:701: 	__uninit_default_n(__first, __n);
	.loc 17 701 20
	movq	-32(%rbp), %rdx	# __n, tmp84
	movq	-24(%rbp), %rax	# __first, tmp85
	movq	%rdx, %rsi	# tmp84,
	movq	%rax, %rdi	# tmp85,
	call	_ZNSt27__uninitialized_default_n_1ILb1EE18__uninit_default_nIPdmEET_S3_T0_	#
# /usr/include/c++/12/bits/stl_uninitialized.h:702:     }
	.loc 17 702 5
	leave	
	.cfi_def_cfa 7, 8
	ret	
	.cfi_endproc
.LFE3331:
	.size	_ZSt25__uninitialized_default_nIPdmET_S1_T0_, .-_ZSt25__uninitialized_default_nIPdmET_S1_T0_
	.section	.text._ZSt3maxImERKT_S2_S2_,"axG",@progbits,_ZSt3maxImERKT_S2_S2_,comdat
	.weak	_ZSt3maxImERKT_S2_S2_
	.type	_ZSt3maxImERKT_S2_S2_, @function
_ZSt3maxImERKT_S2_S2_:
.LFB3332:
	.loc 2 254 5
	.cfi_startproc
	pushq	%rbp	#
	.cfi_def_cfa_offset 16
	.cfi_offset 6, -16
	movq	%rsp, %rbp	#,
	.cfi_def_cfa_register 6
	movq	%rdi, -8(%rbp)	# __a, __a
	movq	%rsi, -16(%rbp)	# __b, __b
# /usr/include/c++/12/bits/stl_algobase.h:259:       if (__a < __b)
	.loc 2 259 15
	movq	-8(%rbp), %rax	# __a, tmp86
	movq	(%rax), %rdx	# *__a_5(D), _1
	movq	-16(%rbp), %rax	# __b, tmp87
	movq	(%rax), %rax	# *__b_6(D), _2
# /usr/include/c++/12/bits/stl_algobase.h:259:       if (__a < __b)
	.loc 2 259 7
	cmpq	%rax, %rdx	# _2, _1
	jnb	.L343	#,
# /usr/include/c++/12/bits/stl_algobase.h:260: 	return __b;
	.loc 2 260 9
	movq	-16(%rbp), %rax	# __b, _3
	jmp	.L344	#
.L343:
# /usr/include/c++/12/bits/stl_algobase.h:261:       return __a;
	.loc 2 261 14
	movq	-8(%rbp), %rax	# __a, _3
.L344:
# /usr/include/c++/12/bits/stl_algobase.h:262:     }
	.loc 2 262 5
	popq	%rbp	#
	.cfi_def_cfa 7, 8
	ret	
	.cfi_endproc
.LFE3332:
	.size	_ZSt3maxImERKT_S2_S2_, .-_ZSt3maxImERKT_S2_S2_
	.section	.text._ZNSt16allocator_traitsISaIdEE8allocateERS0_m,"axG",@progbits,_ZNSt16allocator_traitsISaIdEE8allocateERS0_m,comdat
	.weak	_ZNSt16allocator_traitsISaIdEE8allocateERS0_m
	.type	_ZNSt16allocator_traitsISaIdEE8allocateERS0_m, @function
_ZNSt16allocator_traitsISaIdEE8allocateERS0_m:
.LFB3333:
	.loc 9 463 7
	.cfi_startproc
	pushq	%rbp	#
	.cfi_def_cfa_offset 16
	.cfi_offset 6, -16
	movq	%rsp, %rbp	#,
	.cfi_def_cfa_register 6
	subq	$16, %rsp	#,
	movq	%rdi, -8(%rbp)	# __a, __a
	movq	%rsi, -16(%rbp)	# __n, __n
# /usr/include/c++/12/bits/alloc_traits.h:464:       { return __a.allocate(__n); }
	.loc 9 464 28
	movq	-16(%rbp), %rcx	# __n, tmp84
	movq	-8(%rbp), %rax	# __a, tmp85
	movl	$0, %edx	#,
	movq	%rcx, %rsi	# tmp84,
	movq	%rax, %rdi	# tmp85,
	call	_ZNSt15__new_allocatorIdE8allocateEmPKv	#
# /usr/include/c++/12/bits/alloc_traits.h:464:       { return __a.allocate(__n); }
	.loc 9 464 35
	leave	
	.cfi_def_cfa 7, 8
	ret	
	.cfi_endproc
.LFE3333:
	.size	_ZNSt16allocator_traitsISaIdEE8allocateERS0_m, .-_ZNSt16allocator_traitsISaIdEE8allocateERS0_m
	.section	.text._ZSt12__relocate_aIPdS0_SaIdEET0_T_S3_S2_RT1_,"axG",@progbits,_ZSt12__relocate_aIPdS0_SaIdEET0_T_S3_S2_RT1_,comdat
	.weak	_ZSt12__relocate_aIPdS0_SaIdEET0_T_S3_S2_RT1_
	.type	_ZSt12__relocate_aIPdS0_SaIdEET0_T_S3_S2_RT1_, @function
_ZSt12__relocate_aIPdS0_SaIdEET0_T_S3_S2_RT1_:
.LFB3334:
	.loc 17 1127 5
	.cfi_startproc
	pushq	%rbp	#
	.cfi_def_cfa_offset 16
	.cfi_offset 6, -16
	movq	%rsp, %rbp	#,
	.cfi_def_cfa_register 6
	pushq	%r12	#
	pushq	%rbx	#
	subq	$32, %rsp	#,
	.cfi_offset 12, -24
	.cfi_offset 3, -32
	movq	%rdi, -24(%rbp)	# __first, __first
	movq	%rsi, -32(%rbp)	# __last, __last
	movq	%rdx, -40(%rbp)	# __result, __result
	movq	%rcx, -48(%rbp)	# __alloc, __alloc
# /usr/include/c++/12/bits/stl_uninitialized.h:1133:       return std::__relocate_a_1(std::__niter_base(__first),
	.loc 17 1133 33
	movq	-40(%rbp), %rax	# __result, tmp87
	movq	%rax, %rdi	# tmp87,
	call	_ZSt12__niter_baseIPdET_S1_	#
	movq	%rax, %r12	#, _1
	movq	-32(%rbp), %rax	# __last, tmp88
	movq	%rax, %rdi	# tmp88,
	call	_ZSt12__niter_baseIPdET_S1_	#
	movq	%rax, %rbx	#, _2
	movq	-24(%rbp), %rax	# __first, tmp89
	movq	%rax, %rdi	# tmp89,
	call	_ZSt12__niter_baseIPdET_S1_	#
	movq	%rax, %rdi	#, _3
	movq	-48(%rbp), %rax	# __alloc, tmp90
	movq	%rax, %rcx	# tmp90,
	movq	%r12, %rdx	# _1,
	movq	%rbx, %rsi	# _2,
	call	_ZSt14__relocate_a_1IddENSt9enable_ifIXsrSt24__is_bitwise_relocatableIT_vE5valueEPS2_E4typeES4_S4_S4_RSaIT0_E	#
# /usr/include/c++/12/bits/stl_uninitialized.h:1136:     }
	.loc 17 1136 5
	addq	$32, %rsp	#,
	popq	%rbx	#
	popq	%r12	#
	popq	%rbp	#
	.cfi_def_cfa 7, 8
	ret	
	.cfi_endproc
.LFE3334:
	.size	_ZSt12__relocate_aIPdS0_SaIdEET0_T_S3_S2_RT1_, .-_ZSt12__relocate_aIPdS0_SaIdEET0_T_S3_S2_RT1_
	.section	.text._ZNSt16allocator_traitsISaIlEE37select_on_container_copy_constructionERKS0_,"axG",@progbits,_ZNSt16allocator_traitsISaIlEE37select_on_container_copy_constructionERKS0_,comdat
	.weak	_ZNSt16allocator_traitsISaIlEE37select_on_container_copy_constructionERKS0_
	.type	_ZNSt16allocator_traitsISaIlEE37select_on_container_copy_constructionERKS0_, @function
_ZNSt16allocator_traitsISaIlEE37select_on_container_copy_constructionERKS0_:
.LFB3335:
	.loc 9 562 7
	.cfi_startproc
	pushq	%rbp	#
	.cfi_def_cfa_offset 16
	.cfi_offset 6, -16
	movq	%rsp, %rbp	#,
	.cfi_def_cfa_register 6
	subq	$16, %rsp	#,
	movq	%rdi, -8(%rbp)	# .result_ptr, .result_ptr
	movq	%rsi, -16(%rbp)	# __rhs, __rhs
# /usr/include/c++/12/bits/alloc_traits.h:563:       { return __rhs; }
	.loc 9 563 16
	movq	-16(%rbp), %rdx	# __rhs, tmp82
	movq	-8(%rbp), %rax	# <retval>, tmp83
	movq	%rdx, %rsi	# tmp82,
	movq	%rax, %rdi	# tmp83,
	call	_ZNSaIlEC1ERKS_	#
# /usr/include/c++/12/bits/alloc_traits.h:563:       { return __rhs; }
	.loc 9 563 23
	movq	-8(%rbp), %rax	# <retval>,
	leave	
	.cfi_def_cfa 7, 8
	ret	
	.cfi_endproc
.LFE3335:
	.size	_ZNSt16allocator_traitsISaIlEE37select_on_container_copy_constructionERKS0_, .-_ZNSt16allocator_traitsISaIlEE37select_on_container_copy_constructionERKS0_
	.section	.text._ZNSt12_Vector_baseIlSaIlEE17_M_create_storageEm,"axG",@progbits,_ZNSt12_Vector_baseIlSaIlEE17_M_create_storageEm,comdat
	.align 2
	.weak	_ZNSt12_Vector_baseIlSaIlEE17_M_create_storageEm
	.type	_ZNSt12_Vector_baseIlSaIlEE17_M_create_storageEm, @function
_ZNSt12_Vector_baseIlSaIlEE17_M_create_storageEm:
.LFB3336:
	.loc 7 393 7
	.cfi_startproc
	pushq	%rbp	#
	.cfi_def_cfa_offset 16
	.cfi_offset 6, -16
	movq	%rsp, %rbp	#,
	.cfi_def_cfa_register 6
	subq	$16, %rsp	#,
	movq	%rdi, -8(%rbp)	# this, this
	movq	%rsi, -16(%rbp)	# __n, __n
# /usr/include/c++/12/bits/stl_vector.h:395: 	this->_M_impl._M_start = this->_M_allocate(__n);
	.loc 7 395 44
	movq	-16(%rbp), %rdx	# __n, tmp87
	movq	-8(%rbp), %rax	# this, tmp88
	movq	%rdx, %rsi	# tmp87,
	movq	%rax, %rdi	# tmp88,
	call	_ZNSt12_Vector_baseIlSaIlEE11_M_allocateEm	#
# /usr/include/c++/12/bits/stl_vector.h:395: 	this->_M_impl._M_start = this->_M_allocate(__n);
	.loc 7 395 25
	movq	-8(%rbp), %rdx	# this, tmp89
	movq	%rax, (%rdx)	# _1, this_7(D)->_M_impl.D.54123._M_start
# /usr/include/c++/12/bits/stl_vector.h:396: 	this->_M_impl._M_finish = this->_M_impl._M_start;
	.loc 7 396 42
	movq	-8(%rbp), %rax	# this, tmp90
	movq	(%rax), %rdx	# this_7(D)->_M_impl.D.54123._M_start, _2
# /usr/include/c++/12/bits/stl_vector.h:396: 	this->_M_impl._M_finish = this->_M_impl._M_start;
	.loc 7 396 26
	movq	-8(%rbp), %rax	# this, tmp91
	movq	%rdx, 8(%rax)	# _2, this_7(D)->_M_impl.D.54123._M_finish
# /usr/include/c++/12/bits/stl_vector.h:397: 	this->_M_impl._M_end_of_storage = this->_M_impl._M_start + __n;
	.loc 7 397 50
	movq	-8(%rbp), %rax	# this, tmp92
	movq	(%rax), %rax	# this_7(D)->_M_impl.D.54123._M_start, _3
# /usr/include/c++/12/bits/stl_vector.h:397: 	this->_M_impl._M_end_of_storage = this->_M_impl._M_start + __n;
	.loc 7 397 59
	movq	-16(%rbp), %rdx	# __n, tmp93
	salq	$3, %rdx	#, _4
	addq	%rax, %rdx	# _3, _5
# /usr/include/c++/12/bits/stl_vector.h:397: 	this->_M_impl._M_end_of_storage = this->_M_impl._M_start + __n;
	.loc 7 397 34
	movq	-8(%rbp), %rax	# this, tmp94
	movq	%rdx, 16(%rax)	# _5, this_7(D)->_M_impl.D.54123._M_end_of_storage
# /usr/include/c++/12/bits/stl_vector.h:398:       }
	.loc 7 398 7
	nop	
	leave	
	.cfi_def_cfa 7, 8
	ret	
	.cfi_endproc
.LFE3336:
	.size	_ZNSt12_Vector_baseIlSaIlEE17_M_create_storageEm, .-_ZNSt12_Vector_baseIlSaIlEE17_M_create_storageEm
	.section	.text._ZN9__gnu_cxx17__normal_iteratorIPKlSt6vectorIlSaIlEEEC2ERKS2_,"axG",@progbits,_ZN9__gnu_cxx17__normal_iteratorIPKlSt6vectorIlSaIlEEEC5ERKS2_,comdat
	.align 2
	.weak	_ZN9__gnu_cxx17__normal_iteratorIPKlSt6vectorIlSaIlEEEC2ERKS2_
	.type	_ZN9__gnu_cxx17__normal_iteratorIPKlSt6vectorIlSaIlEEEC2ERKS2_, @function
_ZN9__gnu_cxx17__normal_iteratorIPKlSt6vectorIlSaIlEEEC2ERKS2_:
.LFB3338:
	.loc 18 1072 7
	.cfi_startproc
	pushq	%rbp	#
	.cfi_def_cfa_offset 16
	.cfi_offset 6, -16
	movq	%rsp, %rbp	#,
	.cfi_def_cfa_register 6
	movq	%rdi, -8(%rbp)	# this, this
	movq	%rsi, -16(%rbp)	# __i, __i
.LBB60:
# /usr/include/c++/12/bits/stl_iterator.h:1073:       : _M_current(__i) { }
	.loc 18 1073 9
	movq	-16(%rbp), %rax	# __i, tmp83
	movq	(%rax), %rdx	# *__i_5(D), _1
	movq	-8(%rbp), %rax	# this, tmp84
	movq	%rdx, (%rax)	# _1, this_3(D)->_M_current
.LBE60:
# /usr/include/c++/12/bits/stl_iterator.h:1073:       : _M_current(__i) { }
	.loc 18 1073 27
	nop	
	popq	%rbp	#
	.cfi_def_cfa 7, 8
	ret	
	.cfi_endproc
.LFE3338:
	.size	_ZN9__gnu_cxx17__normal_iteratorIPKlSt6vectorIlSaIlEEEC2ERKS2_, .-_ZN9__gnu_cxx17__normal_iteratorIPKlSt6vectorIlSaIlEEEC2ERKS2_
	.weak	_ZN9__gnu_cxx17__normal_iteratorIPKlSt6vectorIlSaIlEEEC1ERKS2_
	.set	_ZN9__gnu_cxx17__normal_iteratorIPKlSt6vectorIlSaIlEEEC1ERKS2_,_ZN9__gnu_cxx17__normal_iteratorIPKlSt6vectorIlSaIlEEEC2ERKS2_
	.section	.text._ZSt18uninitialized_copyIN9__gnu_cxx17__normal_iteratorIPKlSt6vectorIlSaIlEEEEPlET0_T_SA_S9_,"axG",@progbits,_ZSt18uninitialized_copyIN9__gnu_cxx17__normal_iteratorIPKlSt6vectorIlSaIlEEEEPlET0_T_SA_S9_,comdat
	.weak	_ZSt18uninitialized_copyIN9__gnu_cxx17__normal_iteratorIPKlSt6vectorIlSaIlEEEEPlET0_T_SA_S9_
	.type	_ZSt18uninitialized_copyIN9__gnu_cxx17__normal_iteratorIPKlSt6vectorIlSaIlEEEEPlET0_T_SA_S9_, @function
_ZSt18uninitialized_copyIN9__gnu_cxx17__normal_iteratorIPKlSt6vectorIlSaIlEEEEPlET0_T_SA_S9_:
.LFB3340:
	.loc 17 163 5
	.cfi_startproc
	pushq	%rbp	#
	.cfi_def_cfa_offset 16
	.cfi_offset 6, -16
	movq	%rsp, %rbp	#,
	.cfi_def_cfa_register 6
	subq	$48, %rsp	#,
	movq	%rdi, -24(%rbp)	# __first, __first
	movq	%rsi, -32(%rbp)	# __last, __last
	movq	%rdx, -40(%rbp)	# __result, __result
# /usr/include/c++/12/bits/stl_uninitialized.h:174:       const bool __can_memmove = __is_trivial(_ValueType1);
	.loc 17 174 18
	movb	$1, -1(%rbp)	#, __can_memmove
# /usr/include/c++/12/bits/stl_uninitialized.h:181:       const bool __assignable
	.loc 17 181 18
	movb	$1, -2(%rbp)	#, __assignable
# /usr/include/c++/12/bits/stl_uninitialized.h:185: 	__uninit_copy(__first, __last, __result);
	.loc 17 185 15
	movq	-40(%rbp), %rdx	# __result, tmp84
	movq	-32(%rbp), %rcx	# __last, tmp85
	movq	-24(%rbp), %rax	# __first, tmp86
	movq	%rcx, %rsi	# tmp85,
	movq	%rax, %rdi	# tmp86,
	call	_ZNSt20__uninitialized_copyILb1EE13__uninit_copyIN9__gnu_cxx17__normal_iteratorIPKlSt6vectorIlSaIlEEEEPlEET0_T_SC_SB_	#
# /usr/include/c++/12/bits/stl_uninitialized.h:186:     }
	.loc 17 186 5
	leave	
	.cfi_def_cfa 7, 8
	ret	
	.cfi_endproc
.LFE3340:
	.size	_ZSt18uninitialized_copyIN9__gnu_cxx17__normal_iteratorIPKlSt6vectorIlSaIlEEEEPlET0_T_SA_S9_, .-_ZSt18uninitialized_copyIN9__gnu_cxx17__normal_iteratorIPKlSt6vectorIlSaIlEEEEPlET0_T_SA_S9_
	.section	.text._ZNSt12_Vector_baseIlSaIlEE17_Vector_impl_data12_M_copy_dataERKS2_,"axG",@progbits,_ZNSt12_Vector_baseIlSaIlEE17_Vector_impl_data12_M_copy_dataERKS2_,comdat
	.align 2
	.weak	_ZNSt12_Vector_baseIlSaIlEE17_Vector_impl_data12_M_copy_dataERKS2_
	.type	_ZNSt12_Vector_baseIlSaIlEE17_Vector_impl_data12_M_copy_dataERKS2_, @function
_ZNSt12_Vector_baseIlSaIlEE17_Vector_impl_data12_M_copy_dataERKS2_:
.LFB3341:
	.loc 7 113 2
	.cfi_startproc
	pushq	%rbp	#
	.cfi_def_cfa_offset 16
	.cfi_offset 6, -16
	movq	%rsp, %rbp	#,
	.cfi_def_cfa_register 6
	movq	%rdi, -8(%rbp)	# this, this
	movq	%rsi, -16(%rbp)	# __x, __x
# /usr/include/c++/12/bits/stl_vector.h:115: 	  _M_start = __x._M_start;
	.loc 7 115 19
	movq	-16(%rbp), %rax	# __x, tmp85
	movq	(%rax), %rdx	# __x_5(D)->_M_start, _1
# /usr/include/c++/12/bits/stl_vector.h:115: 	  _M_start = __x._M_start;
	.loc 7 115 13
	movq	-8(%rbp), %rax	# this, tmp86
	movq	%rdx, (%rax)	# _1, this_6(D)->_M_start
# /usr/include/c++/12/bits/stl_vector.h:116: 	  _M_finish = __x._M_finish;
	.loc 7 116 20
	movq	-16(%rbp), %rax	# __x, tmp87
	movq	8(%rax), %rdx	# __x_5(D)->_M_finish, _2
# /usr/include/c++/12/bits/stl_vector.h:116: 	  _M_finish = __x._M_finish;
	.loc 7 116 14
	movq	-8(%rbp), %rax	# this, tmp88
	movq	%rdx, 8(%rax)	# _2, this_6(D)->_M_finish
# /usr/include/c++/12/bits/stl_vector.h:117: 	  _M_end_of_storage = __x._M_end_of_storage;
	.loc 7 117 28
	movq	-16(%rbp), %rax	# __x, tmp89
	movq	16(%rax), %rdx	# __x_5(D)->_M_end_of_storage, _3
# /usr/include/c++/12/bits/stl_vector.h:117: 	  _M_end_of_storage = __x._M_end_of_storage;
	.loc 7 117 22
	movq	-8(%rbp), %rax	# this, tmp90
	movq	%rdx, 16(%rax)	# _3, this_6(D)->_M_end_of_storage
# /usr/include/c++/12/bits/stl_vector.h:118: 	}
	.loc 7 118 2
	nop	
	popq	%rbp	#
	.cfi_def_cfa 7, 8
	ret	
	.cfi_endproc
.LFE3341:
	.size	_ZNSt12_Vector_baseIlSaIlEE17_Vector_impl_data12_M_copy_dataERKS2_, .-_ZNSt12_Vector_baseIlSaIlEE17_Vector_impl_data12_M_copy_dataERKS2_
	.section	.text._ZSt4moveIRSaIlEEONSt16remove_referenceIT_E4typeEOS3_,"axG",@progbits,_ZSt4moveIRSaIlEEONSt16remove_referenceIT_E4typeEOS3_,comdat
	.weak	_ZSt4moveIRSaIlEEONSt16remove_referenceIT_E4typeEOS3_
	.type	_ZSt4moveIRSaIlEEONSt16remove_referenceIT_E4typeEOS3_, @function
_ZSt4moveIRSaIlEEONSt16remove_referenceIT_E4typeEOS3_:
.LFB3342:
	.loc 15 104 5
	.cfi_startproc
	pushq	%rbp	#
	.cfi_def_cfa_offset 16
	.cfi_offset 6, -16
	movq	%rsp, %rbp	#,
	.cfi_def_cfa_register 6
	movq	%rdi, -8(%rbp)	# __t, __t
# /usr/include/c++/12/bits/move.h:105:     { return static_cast<typename std::remove_reference<_Tp>::type&&>(__t); }
	.loc 15 105 74
	movq	-8(%rbp), %rax	# __t, _2
# /usr/include/c++/12/bits/move.h:105:     { return static_cast<typename std::remove_reference<_Tp>::type&&>(__t); }
	.loc 15 105 77
	popq	%rbp	#
	.cfi_def_cfa 7, 8
	ret	
	.cfi_endproc
.LFE3342:
	.size	_ZSt4moveIRSaIlEEONSt16remove_referenceIT_E4typeEOS3_, .-_ZSt4moveIRSaIlEEONSt16remove_referenceIT_E4typeEOS3_
	.section	.text._ZNK9__gnu_cxx17__normal_iteratorIPKdSt6vectorIdSaIdEEE4baseEv,"axG",@progbits,_ZNK9__gnu_cxx17__normal_iteratorIPKdSt6vectorIdSaIdEEE4baseEv,comdat
	.align 2
	.weak	_ZNK9__gnu_cxx17__normal_iteratorIPKdSt6vectorIdSaIdEEE4baseEv
	.type	_ZNK9__gnu_cxx17__normal_iteratorIPKdSt6vectorIdSaIdEEE4baseEv, @function
_ZNK9__gnu_cxx17__normal_iteratorIPKdSt6vectorIdSaIdEEE4baseEv:
.LFB3343:
	.loc 18 1158 7
	.cfi_startproc
	pushq	%rbp	#
	.cfi_def_cfa_offset 16
	.cfi_offset 6, -16
	movq	%rsp, %rbp	#,
	.cfi_def_cfa_register 6
	movq	%rdi, -8(%rbp)	# this, this
# /usr/include/c++/12/bits/stl_iterator.h:1159:       { return _M_current; }
	.loc 18 1159 16
	movq	-8(%rbp), %rax	# this, _2
# /usr/include/c++/12/bits/stl_iterator.h:1159:       { return _M_current; }
	.loc 18 1159 28
	popq	%rbp	#
	.cfi_def_cfa 7, 8
	ret	
	.cfi_endproc
.LFE3343:
	.size	_ZNK9__gnu_cxx17__normal_iteratorIPKdSt6vectorIdSaIdEEE4baseEv, .-_ZNK9__gnu_cxx17__normal_iteratorIPKdSt6vectorIdSaIdEEE4baseEv
	.section	.text._ZNK9__gnu_cxx17__normal_iteratorIPdSt6vectorIdSaIdEEE4baseEv,"axG",@progbits,_ZNK9__gnu_cxx17__normal_iteratorIPdSt6vectorIdSaIdEEE4baseEv,comdat
	.align 2
	.weak	_ZNK9__gnu_cxx17__normal_iteratorIPdSt6vectorIdSaIdEEE4baseEv
	.type	_ZNK9__gnu_cxx17__normal_iteratorIPdSt6vectorIdSaIdEEE4baseEv, @function
_ZNK9__gnu_cxx17__normal_iteratorIPdSt6vectorIdSaIdEEE4baseEv:
.LFB3344:
	.loc 18 1158 7
	.cfi_startproc
	pushq	%rbp	#
	.cfi_def_cfa_offset 16
	.cfi_offset 6, -16
	movq	%rsp, %rbp	#,
	.cfi_def_cfa_register 6
	movq	%rdi, -8(%rbp)	# this, this
# /usr/include/c++/12/bits/stl_iterator.h:1159:       { return _M_current; }
	.loc 18 1159 16
	movq	-8(%rbp), %rax	# this, _2
# /usr/include/c++/12/bits/stl_iterator.h:1159:       { return _M_current; }
	.loc 18 1159 28
	popq	%rbp	#
	.cfi_def_cfa 7, 8
	ret	
	.cfi_endproc
.LFE3344:
	.size	_ZNK9__gnu_cxx17__normal_iteratorIPdSt6vectorIdSaIdEEE4baseEv, .-_ZNK9__gnu_cxx17__normal_iteratorIPdSt6vectorIdSaIdEEE4baseEv
	.section	.text._ZSt14__copy_move_a2ILb0EPKdPdET1_T0_S4_S3_,"axG",@progbits,_ZSt14__copy_move_a2ILb0EPKdPdET1_T0_S4_S3_,comdat
	.weak	_ZSt14__copy_move_a2ILb0EPKdPdET1_T0_S4_S3_
	.type	_ZSt14__copy_move_a2ILb0EPKdPdET1_T0_S4_S3_, @function
_ZSt14__copy_move_a2ILb0EPKdPdET1_T0_S4_S3_:
.LFB3345:
	.loc 2 486 5
	.cfi_startproc
	pushq	%rbp	#
	.cfi_def_cfa_offset 16
	.cfi_offset 6, -16
	movq	%rsp, %rbp	#,
	.cfi_def_cfa_register 6
	subq	$32, %rsp	#,
	movq	%rdi, -8(%rbp)	# __first, __first
	movq	%rsi, -16(%rbp)	# __last, __last
	movq	%rdx, -24(%rbp)	# __result, __result
# /usr/include/c++/12/bits/stl_algobase.h:495: 			      _Category>::__copy_m(__first, __last, __result);
	.loc 2 495 30
	movq	-24(%rbp), %rdx	# __result, tmp84
	movq	-16(%rbp), %rcx	# __last, tmp85
	movq	-8(%rbp), %rax	# __first, tmp86
	movq	%rcx, %rsi	# tmp85,
	movq	%rax, %rdi	# tmp86,
	call	_ZNSt11__copy_moveILb0ELb1ESt26random_access_iterator_tagE8__copy_mIdEEPT_PKS3_S6_S4_	#
# /usr/include/c++/12/bits/stl_algobase.h:496:     }
	.loc 2 496 5
	leave	
	.cfi_def_cfa 7, 8
	ret	
	.cfi_endproc
.LFE3345:
	.size	_ZSt14__copy_move_a2ILb0EPKdPdET1_T0_S4_S3_, .-_ZSt14__copy_move_a2ILb0EPKdPdET1_T0_S4_S3_
	.section	.text._ZNK9__gnu_cxx17__normal_iteratorIPdSt6vectorIdSaIdEEEplEl,"axG",@progbits,_ZNK9__gnu_cxx17__normal_iteratorIPdSt6vectorIdSaIdEEEplEl,comdat
	.align 2
	.weak	_ZNK9__gnu_cxx17__normal_iteratorIPdSt6vectorIdSaIdEEEplEl
	.type	_ZNK9__gnu_cxx17__normal_iteratorIPdSt6vectorIdSaIdEEEplEl, @function
_ZNK9__gnu_cxx17__normal_iteratorIPdSt6vectorIdSaIdEEEplEl:
.LFB3346:
	.loc 18 1143 7
	.cfi_startproc
	pushq	%rbp	#
	.cfi_def_cfa_offset 16
	.cfi_offset 6, -16
	movq	%rsp, %rbp	#,
	.cfi_def_cfa_register 6
	subq	$32, %rsp	#,
	movq	%rdi, -24(%rbp)	# this, this
	movq	%rsi, -32(%rbp)	# __n, __n
# /usr/include/c++/12/bits/stl_iterator.h:1144:       { return __normal_iterator(_M_current + __n); }
	.loc 18 1144 34
	movq	-24(%rbp), %rax	# this, tmp88
	movq	(%rax), %rax	# this_6(D)->_M_current, _1
# /usr/include/c++/12/bits/stl_iterator.h:1144:       { return __normal_iterator(_M_current + __n); }
	.loc 18 1144 47
	movq	-32(%rbp), %rdx	# __n, __n.31_2
# /usr/include/c++/12/bits/stl_iterator.h:1144:       { return __normal_iterator(_M_current + __n); }
	.loc 18 1144 45
	salq	$3, %rdx	#, _3
	addq	%rdx, %rax	# _3, _4
	movq	%rax, -8(%rbp)	# _4, D.67291
# /usr/include/c++/12/bits/stl_iterator.h:1144:       { return __normal_iterator(_M_current + __n); }
	.loc 18 1144 16
	leaq	-8(%rbp), %rdx	#, tmp89
	leaq	-16(%rbp), %rax	#, tmp90
	movq	%rdx, %rsi	# tmp89,
	movq	%rax, %rdi	# tmp90,
	call	_ZN9__gnu_cxx17__normal_iteratorIPdSt6vectorIdSaIdEEEC1ERKS1_	#
# /usr/include/c++/12/bits/stl_iterator.h:1144:       { return __normal_iterator(_M_current + __n); }
	.loc 18 1144 50
	movq	-16(%rbp), %rax	# D.67292, D.68310
# /usr/include/c++/12/bits/stl_iterator.h:1144:       { return __normal_iterator(_M_current + __n); }
	.loc 18 1144 53
	leave	
	.cfi_def_cfa 7, 8
	ret	
	.cfi_endproc
.LFE3346:
	.size	_ZNK9__gnu_cxx17__normal_iteratorIPdSt6vectorIdSaIdEEEplEl, .-_ZNK9__gnu_cxx17__normal_iteratorIPdSt6vectorIdSaIdEEEplEl
	.section	.text._ZSt19__iterator_categoryIN9__gnu_cxx17__normal_iteratorIPlSt6vectorIlSaIlEEEEENSt15iterator_traitsIT_E17iterator_categoryERKS8_,"axG",@progbits,_ZSt19__iterator_categoryIN9__gnu_cxx17__normal_iteratorIPlSt6vectorIlSaIlEEEEENSt15iterator_traitsIT_E17iterator_categoryERKS8_,comdat
	.weak	_ZSt19__iterator_categoryIN9__gnu_cxx17__normal_iteratorIPlSt6vectorIlSaIlEEEEENSt15iterator_traitsIT_E17iterator_categoryERKS8_
	.type	_ZSt19__iterator_categoryIN9__gnu_cxx17__normal_iteratorIPlSt6vectorIlSaIlEEEEENSt15iterator_traitsIT_E17iterator_categoryERKS8_, @function
_ZSt19__iterator_categoryIN9__gnu_cxx17__normal_iteratorIPlSt6vectorIlSaIlEEEEENSt15iterator_traitsIT_E17iterator_categoryERKS8_:
.LFB3347:
	.loc 16 238 5
	.cfi_startproc
	pushq	%rbp	#
	.cfi_def_cfa_offset 16
	.cfi_offset 6, -16
	movq	%rsp, %rbp	#,
	.cfi_def_cfa_register 6
	movq	%rdi, -8(%rbp)	# D.67293, D.67293
# /usr/include/c++/12/bits/stl_iterator_base_types.h:239:     { return typename iterator_traits<_Iter>::iterator_category(); }
	.loc 16 239 65
	nop	
# /usr/include/c++/12/bits/stl_iterator_base_types.h:239:     { return typename iterator_traits<_Iter>::iterator_category(); }
	.loc 16 239 68
	popq	%rbp	#
	.cfi_def_cfa 7, 8
	ret	
	.cfi_endproc
.LFE3347:
	.size	_ZSt19__iterator_categoryIN9__gnu_cxx17__normal_iteratorIPlSt6vectorIlSaIlEEEEENSt15iterator_traitsIT_E17iterator_categoryERKS8_, .-_ZSt19__iterator_categoryIN9__gnu_cxx17__normal_iteratorIPlSt6vectorIlSaIlEEEEENSt15iterator_traitsIT_E17iterator_categoryERKS8_
	.section	.text._ZSt10__distanceIN9__gnu_cxx17__normal_iteratorIPlSt6vectorIlSaIlEEEEENSt15iterator_traitsIT_E15difference_typeES8_S8_St26random_access_iterator_tag,"axG",@progbits,_ZSt10__distanceIN9__gnu_cxx17__normal_iteratorIPlSt6vectorIlSaIlEEEEENSt15iterator_traitsIT_E15difference_typeES8_S8_St26random_access_iterator_tag,comdat
	.weak	_ZSt10__distanceIN9__gnu_cxx17__normal_iteratorIPlSt6vectorIlSaIlEEEEENSt15iterator_traitsIT_E15difference_typeES8_S8_St26random_access_iterator_tag
	.type	_ZSt10__distanceIN9__gnu_cxx17__normal_iteratorIPlSt6vectorIlSaIlEEEEENSt15iterator_traitsIT_E15difference_typeES8_S8_St26random_access_iterator_tag, @function
_ZSt10__distanceIN9__gnu_cxx17__normal_iteratorIPlSt6vectorIlSaIlEEEEENSt15iterator_traitsIT_E15difference_typeES8_S8_St26random_access_iterator_tag:
.LFB3348:
	.loc 12 99 5
	.cfi_startproc
	pushq	%rbp	#
	.cfi_def_cfa_offset 16
	.cfi_offset 6, -16
	movq	%rsp, %rbp	#,
	.cfi_def_cfa_register 6
	subq	$16, %rsp	#,
	movq	%rdi, -8(%rbp)	# __first, __first
	movq	%rsi, -16(%rbp)	# __last, __last
# /usr/include/c++/12/bits/stl_iterator_base_funcs.h:105:       return __last - __first;
	.loc 12 105 21
	leaq	-8(%rbp), %rdx	#, tmp84
	leaq	-16(%rbp), %rax	#, tmp85
	movq	%rdx, %rsi	# tmp84,
	movq	%rax, %rdi	# tmp85,
	call	_ZN9__gnu_cxxmiIPlSt6vectorIlSaIlEEEENS_17__normal_iteratorIT_T0_E15difference_typeERKS8_SB_	#
# /usr/include/c++/12/bits/stl_iterator_base_funcs.h:106:     }
	.loc 12 106 5
	leave	
	.cfi_def_cfa 7, 8
	ret	
	.cfi_endproc
.LFE3348:
	.size	_ZSt10__distanceIN9__gnu_cxx17__normal_iteratorIPlSt6vectorIlSaIlEEEEENSt15iterator_traitsIT_E15difference_typeES8_S8_St26random_access_iterator_tag, .-_ZSt10__distanceIN9__gnu_cxx17__normal_iteratorIPlSt6vectorIlSaIlEEEEENSt15iterator_traitsIT_E15difference_typeES8_S8_St26random_access_iterator_tag
	.section	.text._ZSt11__equal_auxIN9__gnu_cxx17__normal_iteratorIPlSt6vectorIlSaIlEEEES6_EbT_S7_T0_,"axG",@progbits,_ZSt11__equal_auxIN9__gnu_cxx17__normal_iteratorIPlSt6vectorIlSaIlEEEES6_EbT_S7_T0_,comdat
	.weak	_ZSt11__equal_auxIN9__gnu_cxx17__normal_iteratorIPlSt6vectorIlSaIlEEEES6_EbT_S7_T0_
	.type	_ZSt11__equal_auxIN9__gnu_cxx17__normal_iteratorIPlSt6vectorIlSaIlEEEES6_EbT_S7_T0_, @function
_ZSt11__equal_auxIN9__gnu_cxx17__normal_iteratorIPlSt6vectorIlSaIlEEEES6_EbT_S7_T0_:
.LFB3349:
	.loc 2 1216 5
	.cfi_startproc
	pushq	%rbp	#
	.cfi_def_cfa_offset 16
	.cfi_offset 6, -16
	movq	%rsp, %rbp	#,
	.cfi_def_cfa_register 6
	pushq	%r12	#
	pushq	%rbx	#
	subq	$32, %rsp	#,
	.cfi_offset 12, -24
	.cfi_offset 3, -32
	movq	%rdi, -24(%rbp)	# __first1, __first1
	movq	%rsi, -32(%rbp)	# __last1, __last1
	movq	%rdx, -40(%rbp)	# __first2, __first2
# /usr/include/c++/12/bits/stl_algobase.h:1218:       return std::__equal_aux1(std::__niter_base(__first1),
	.loc 2 1218 31
	movq	-40(%rbp), %rax	# __first2, tmp87
	movq	%rax, %rdi	# tmp87,
	call	_ZSt12__niter_baseIPlSt6vectorIlSaIlEEET_N9__gnu_cxx17__normal_iteratorIS4_T0_EE	#
	movq	%rax, %r12	#, _1
	movq	-32(%rbp), %rax	# __last1, tmp88
	movq	%rax, %rdi	# tmp88,
	call	_ZSt12__niter_baseIPlSt6vectorIlSaIlEEET_N9__gnu_cxx17__normal_iteratorIS4_T0_EE	#
	movq	%rax, %rbx	#, _2
	movq	-24(%rbp), %rax	# __first1, tmp89
	movq	%rax, %rdi	# tmp89,
	call	_ZSt12__niter_baseIPlSt6vectorIlSaIlEEET_N9__gnu_cxx17__normal_iteratorIS4_T0_EE	#
	movq	%r12, %rdx	# _1,
	movq	%rbx, %rsi	# _2,
	movq	%rax, %rdi	# _3,
	call	_ZSt12__equal_aux1IPlS0_EbT_S1_T0_	#
# /usr/include/c++/12/bits/stl_algobase.h:1221:     }
	.loc 2 1221 5
	addq	$32, %rsp	#,
	popq	%rbx	#
	popq	%r12	#
	popq	%rbp	#
	.cfi_def_cfa 7, 8
	ret	
	.cfi_endproc
.LFE3349:
	.size	_ZSt11__equal_auxIN9__gnu_cxx17__normal_iteratorIPlSt6vectorIlSaIlEEEES6_EbT_S7_T0_, .-_ZSt11__equal_auxIN9__gnu_cxx17__normal_iteratorIPlSt6vectorIlSaIlEEEES6_EbT_S7_T0_
	.section	.text._ZNKSt15__new_allocatorIlE8max_sizeEv,"axG",@progbits,_ZNKSt15__new_allocatorIlE8max_sizeEv,comdat
	.align 2
	.weak	_ZNKSt15__new_allocatorIlE8max_sizeEv
	.type	_ZNKSt15__new_allocatorIlE8max_sizeEv, @function
_ZNKSt15__new_allocatorIlE8max_sizeEv:
.LFB3355:
	.loc 10 167 7
	.cfi_startproc
	pushq	%rbp	#
	.cfi_def_cfa_offset 16
	.cfi_offset 6, -16
	movq	%rsp, %rbp	#,
	.cfi_def_cfa_register 6
	subq	$16, %rsp	#,
	movq	%rdi, -8(%rbp)	# this, this
# /usr/include/c++/12/bits/new_allocator.h:168:       { return _M_max_size(); }
	.loc 10 168 27
	movq	-8(%rbp), %rax	# this, tmp84
	movq	%rax, %rdi	# tmp84,
	call	_ZNKSt15__new_allocatorIlE11_M_max_sizeEv	#
# /usr/include/c++/12/bits/new_allocator.h:168:       { return _M_max_size(); }
	.loc 10 168 31
	leave	
	.cfi_def_cfa 7, 8
	ret	
	.cfi_endproc
.LFE3355:
	.size	_ZNKSt15__new_allocatorIlE8max_sizeEv, .-_ZNKSt15__new_allocatorIlE8max_sizeEv
	.section	.text._ZNKSt15__new_allocatorIlE11_M_max_sizeEv,"axG",@progbits,_ZNKSt15__new_allocatorIlE11_M_max_sizeEv,comdat
	.align 2
	.weak	_ZNKSt15__new_allocatorIlE11_M_max_sizeEv
	.type	_ZNKSt15__new_allocatorIlE11_M_max_sizeEv, @function
_ZNKSt15__new_allocatorIlE11_M_max_sizeEv:
.LFB3356:
	.loc 10 210 7
	.cfi_startproc
	pushq	%rbp	#
	.cfi_def_cfa_offset 16
	.cfi_offset 6, -16
	movq	%rsp, %rbp	#,
	.cfi_def_cfa_register 6
	movq	%rdi, -8(%rbp)	# this, this
# /usr/include/c++/12/bits/new_allocator.h:213: 	return std::size_t(__PTRDIFF_MAX__) / sizeof(_Tp);
	.loc 10 213 50
	movabsq	$1152921504606846975, %rax	#, _1
# /usr/include/c++/12/bits/new_allocator.h:217:       }
	.loc 10 217 7
	popq	%rbp	#
	.cfi_def_cfa 7, 8
	ret	
	.cfi_endproc
.LFE3356:
	.size	_ZNKSt15__new_allocatorIlE11_M_max_sizeEv, .-_ZNKSt15__new_allocatorIlE11_M_max_sizeEv
	.section	.text._ZSt4copyIPKlPlET0_T_S4_S3_,"axG",@progbits,_ZSt4copyIPKlPlET0_T_S4_S3_,comdat
	.weak	_ZSt4copyIPKlPlET0_T_S4_S3_
	.type	_ZSt4copyIPKlPlET0_T_S4_S3_, @function
_ZSt4copyIPKlPlET0_T_S4_S3_:
.LFB3357:
	.loc 2 611 5
	.cfi_startproc
	pushq	%rbp	#
	.cfi_def_cfa_offset 16
	.cfi_offset 6, -16
	movq	%rsp, %rbp	#,
	.cfi_def_cfa_register 6
	pushq	%rbx	#
	subq	$40, %rsp	#,
	.cfi_offset 3, -24
	movq	%rdi, -24(%rbp)	# __first, __first
	movq	%rsi, -32(%rbp)	# __last, __last
	movq	%rdx, -40(%rbp)	# __result, __result
# /usr/include/c++/12/bits/stl_algobase.h:620: 	     (std::__miter_base(__first), std::__miter_base(__last), __result);
	.loc 2 620 7
	movq	-32(%rbp), %rax	# __last, tmp86
	movq	%rax, %rdi	# tmp86,
	call	_ZSt12__miter_baseIPKlET_S2_	#
	movq	%rax, %rbx	#, _1
	movq	-24(%rbp), %rax	# __first, tmp87
	movq	%rax, %rdi	# tmp87,
	call	_ZSt12__miter_baseIPKlET_S2_	#
	movq	%rax, %rcx	#, _2
	movq	-40(%rbp), %rax	# __result, tmp88
	movq	%rax, %rdx	# tmp88,
	movq	%rbx, %rsi	# _1,
	movq	%rcx, %rdi	# _2,
	call	_ZSt13__copy_move_aILb0EPKlPlET1_T0_S4_S3_	#
# /usr/include/c++/12/bits/stl_algobase.h:621:     }
	.loc 2 621 5
	movq	-8(%rbp), %rbx	#,
	leave	
	.cfi_def_cfa 7, 8
	ret	
	.cfi_endproc
.LFE3357:
	.size	_ZSt4copyIPKlPlET0_T_S4_S3_, .-_ZSt4copyIPKlPlET0_T_S4_S3_
	.section	.text._ZNSt16allocator_traitsISaIdEE8max_sizeERKS0_,"axG",@progbits,_ZNSt16allocator_traitsISaIdEE8max_sizeERKS0_,comdat
	.weak	_ZNSt16allocator_traitsISaIdEE8max_sizeERKS0_
	.type	_ZNSt16allocator_traitsISaIdEE8max_sizeERKS0_, @function
_ZNSt16allocator_traitsISaIdEE8max_sizeERKS0_:
.LFB3358:
	.loc 9 547 7
	.cfi_startproc
	pushq	%rbp	#
	.cfi_def_cfa_offset 16
	.cfi_offset 6, -16
	movq	%rsp, %rbp	#,
	.cfi_def_cfa_register 6
	subq	$16, %rsp	#,
	movq	%rdi, -8(%rbp)	# __a, __a
# /usr/include/c++/12/bits/alloc_traits.h:550: 	return __a.max_size();
	.loc 9 550 21
	movq	-8(%rbp), %rax	# __a, tmp84
	movq	%rax, %rdi	# tmp84,
	call	_ZNKSt15__new_allocatorIdE8max_sizeEv	#
# /usr/include/c++/12/bits/alloc_traits.h:554:       }
	.loc 9 554 7
	leave	
	.cfi_def_cfa 7, 8
	ret	
	.cfi_endproc
.LFE3358:
	.size	_ZNSt16allocator_traitsISaIdEE8max_sizeERKS0_, .-_ZNSt16allocator_traitsISaIdEE8max_sizeERKS0_
	.section	.text._ZNSt27__uninitialized_default_n_1ILb1EE18__uninit_default_nIPdmEET_S3_T0_,"axG",@progbits,_ZNSt27__uninitialized_default_n_1ILb1EE18__uninit_default_nIPdmEET_S3_T0_,comdat
	.weak	_ZNSt27__uninitialized_default_n_1ILb1EE18__uninit_default_nIPdmEET_S3_T0_
	.type	_ZNSt27__uninitialized_default_n_1ILb1EE18__uninit_default_nIPdmEET_S3_T0_, @function
_ZNSt27__uninitialized_default_n_1ILb1EE18__uninit_default_nIPdmEET_S3_T0_:
.LFB3359:
	.loc 17 655 9
	.cfi_startproc
	pushq	%rbp	#
	.cfi_def_cfa_offset 16
	.cfi_offset 6, -16
	movq	%rsp, %rbp	#,
	.cfi_def_cfa_register 6
	subq	$32, %rsp	#,
	movq	%rdi, -24(%rbp)	# __first, __first
	movq	%rsi, -32(%rbp)	# __n, __n
.LBB61:
# /usr/include/c++/12/bits/stl_uninitialized.h:657: 	  if (__n > 0)
	.loc 17 657 4
	cmpq	$0, -32(%rbp)	#, __n
	je	.L381	#,
.LBB62:
# /usr/include/c++/12/bits/stl_uninitialized.h:660: 		= std::__addressof(*__first);
	.loc 17 660 21
	movq	-24(%rbp), %rax	# __first, tmp86
	movq	%rax, %rdi	# tmp86,
	call	_ZSt11__addressofIdEPT_RS0_	#
	movq	%rax, -8(%rbp)	# tmp87, __val
# /usr/include/c++/12/bits/stl_uninitialized.h:661: 	      std::_Construct(__val);
	.loc 17 661 23
	movq	-8(%rbp), %rax	# __val, tmp88
	movq	%rax, %rdi	# tmp88,
	call	_ZSt10_ConstructIdJEEvPT_DpOT0_	#
# /usr/include/c++/12/bits/stl_uninitialized.h:662: 	      ++__first;
	.loc 17 662 8
	addq	$8, -24(%rbp)	#, __first
# /usr/include/c++/12/bits/stl_uninitialized.h:663: 	      __first = std::fill_n(__first, __n - 1, *__val);
	.loc 17 663 29
	movq	-32(%rbp), %rax	# __n, tmp89
	leaq	-1(%rax), %rcx	#, _1
	movq	-8(%rbp), %rdx	# __val, tmp90
	movq	-24(%rbp), %rax	# __first, tmp91
	movq	%rcx, %rsi	# _1,
	movq	%rax, %rdi	# tmp91,
	call	_ZSt6fill_nIPdmdET_S1_T0_RKT1_	#
	movq	%rax, -24(%rbp)	# _12, __first
.L381:
.LBE62:
.LBE61:
# /usr/include/c++/12/bits/stl_uninitialized.h:665: 	  return __first;
	.loc 17 665 11
	movq	-24(%rbp), %rax	# __first, _14
# /usr/include/c++/12/bits/stl_uninitialized.h:666: 	}
	.loc 17 666 2
	leave	
	.cfi_def_cfa 7, 8
	ret	
	.cfi_endproc
.LFE3359:
	.size	_ZNSt27__uninitialized_default_n_1ILb1EE18__uninit_default_nIPdmEET_S3_T0_, .-_ZNSt27__uninitialized_default_n_1ILb1EE18__uninit_default_nIPdmEET_S3_T0_
	.section	.text._ZNSt15__new_allocatorIdE8allocateEmPKv,"axG",@progbits,_ZNSt15__new_allocatorIdE8allocateEmPKv,comdat
	.align 2
	.weak	_ZNSt15__new_allocatorIdE8allocateEmPKv
	.type	_ZNSt15__new_allocatorIdE8allocateEmPKv, @function
_ZNSt15__new_allocatorIdE8allocateEmPKv:
.LFB3360:
	.loc 10 112 7
	.cfi_startproc
	pushq	%rbp	#
	.cfi_def_cfa_offset 16
	.cfi_offset 6, -16
	movq	%rsp, %rbp	#,
	.cfi_def_cfa_register 6
	subq	$32, %rsp	#,
	movq	%rdi, -8(%rbp)	# this, this
	movq	%rsi, -16(%rbp)	# __n, __n
	movq	%rdx, -24(%rbp)	# D.67482, D.67482
# /usr/include/c++/12/bits/new_allocator.h:120: 	if (__builtin_expect(__n > this->_M_max_size(), false))
	.loc 10 120 46
	movq	-8(%rbp), %rax	# this, tmp90
	movq	%rax, %rdi	# tmp90,
	call	_ZNKSt15__new_allocatorIdE11_M_max_sizeEv	#
# /usr/include/c++/12/bits/new_allocator.h:120: 	if (__builtin_expect(__n > this->_M_max_size(), false))
	.loc 10 120 27
	cmpq	-16(%rbp), %rax	# __n, _1
	setb	%al	#, _2
# /usr/include/c++/12/bits/new_allocator.h:120: 	if (__builtin_expect(__n > this->_M_max_size(), false))
	.loc 10 120 22
	movzbl	%al, %eax	# _2, _3
	testq	%rax, %rax	# _4
	setne	%al	#, retval.19_10
# /usr/include/c++/12/bits/new_allocator.h:120: 	if (__builtin_expect(__n > this->_M_max_size(), false))
	.loc 10 120 2
	testb	%al, %al	# retval.19_10
	je	.L384	#,
# /usr/include/c++/12/bits/new_allocator.h:124: 	    if (__n > (std::size_t(-1) / sizeof(_Tp)))
	.loc 10 124 6
	movabsq	$2305843009213693951, %rax	#, tmp91
	cmpq	-16(%rbp), %rax	# __n, tmp91
	jnb	.L385	#,
# /usr/include/c++/12/bits/new_allocator.h:125: 	      std::__throw_bad_array_new_length();
	.loc 10 125 41
	call	_ZSt28__throw_bad_array_new_lengthv@PLT	#
.L385:
# /usr/include/c++/12/bits/new_allocator.h:126: 	    std::__throw_bad_alloc();
	.loc 10 126 28
	call	_ZSt17__throw_bad_allocv@PLT	#
.L384:
# /usr/include/c++/12/bits/new_allocator.h:137: 	return static_cast<_Tp*>(_GLIBCXX_OPERATOR_NEW(__n * sizeof(_Tp)));
	.loc 10 137 48
	movq	-16(%rbp), %rax	# __n, tmp92
	salq	$3, %rax	#, _6
	movq	%rax, %rdi	# _6,
	call	_Znwm@PLT	#
# /usr/include/c++/12/bits/new_allocator.h:137: 	return static_cast<_Tp*>(_GLIBCXX_OPERATOR_NEW(__n * sizeof(_Tp)));
	.loc 10 137 67
	nop	
# /usr/include/c++/12/bits/new_allocator.h:138:       }
	.loc 10 138 7
	leave	
	.cfi_def_cfa 7, 8
	ret	
	.cfi_endproc
.LFE3360:
	.size	_ZNSt15__new_allocatorIdE8allocateEmPKv, .-_ZNSt15__new_allocatorIdE8allocateEmPKv
	.section	.text._ZSt12__niter_baseIPdET_S1_,"axG",@progbits,_ZSt12__niter_baseIPdET_S1_,comdat
	.weak	_ZSt12__niter_baseIPdET_S1_
	.type	_ZSt12__niter_baseIPdET_S1_, @function
_ZSt12__niter_baseIPdET_S1_:
.LFB3361:
	.loc 2 313 5
	.cfi_startproc
	pushq	%rbp	#
	.cfi_def_cfa_offset 16
	.cfi_offset 6, -16
	movq	%rsp, %rbp	#,
	.cfi_def_cfa_register 6
	movq	%rdi, -8(%rbp)	# __it, __it
# /usr/include/c++/12/bits/stl_algobase.h:315:     { return __it; }
	.loc 2 315 14
	movq	-8(%rbp), %rax	# __it, _2
# /usr/include/c++/12/bits/stl_algobase.h:315:     { return __it; }
	.loc 2 315 20
	popq	%rbp	#
	.cfi_def_cfa 7, 8
	ret	
	.cfi_endproc
.LFE3361:
	.size	_ZSt12__niter_baseIPdET_S1_, .-_ZSt12__niter_baseIPdET_S1_
	.section	.text._ZSt14__relocate_a_1IddENSt9enable_ifIXsrSt24__is_bitwise_relocatableIT_vE5valueEPS2_E4typeES4_S4_S4_RSaIT0_E,"axG",@progbits,_ZSt14__relocate_a_1IddENSt9enable_ifIXsrSt24__is_bitwise_relocatableIT_vE5valueEPS2_E4typeES4_S4_S4_RSaIT0_E,comdat
	.weak	_ZSt14__relocate_a_1IddENSt9enable_ifIXsrSt24__is_bitwise_relocatableIT_vE5valueEPS2_E4typeES4_S4_S4_RSaIT0_E
	.type	_ZSt14__relocate_a_1IddENSt9enable_ifIXsrSt24__is_bitwise_relocatableIT_vE5valueEPS2_E4typeES4_S4_S4_RSaIT0_E, @function
_ZSt14__relocate_a_1IddENSt9enable_ifIXsrSt24__is_bitwise_relocatableIT_vE5valueEPS2_E4typeES4_S4_S4_RSaIT0_E:
.LFB3362:
	.loc 17 1100 5
	.cfi_startproc
	pushq	%rbp	#
	.cfi_def_cfa_offset 16
	.cfi_offset 6, -16
	movq	%rsp, %rbp	#,
	.cfi_def_cfa_register 6
	subq	$48, %rsp	#,
	movq	%rdi, -24(%rbp)	# __first, __first
	movq	%rsi, -32(%rbp)	# __last, __last
	movq	%rdx, -40(%rbp)	# __result, __result
	movq	%rcx, -48(%rbp)	# __alloc, __alloc
# /usr/include/c++/12/bits/stl_uninitialized.h:1104:       ptrdiff_t __count = __last - __first;
	.loc 17 1104 34
	movq	-32(%rbp), %rax	# __last, tmp89
	subq	-24(%rbp), %rax	# __first, _1
# /usr/include/c++/12/bits/stl_uninitialized.h:1104:       ptrdiff_t __count = __last - __first;
	.loc 17 1104 17
	sarq	$3, %rax	#, tmp90
	movq	%rax, -8(%rbp)	# tmp90, __count
# /usr/include/c++/12/bits/stl_uninitialized.h:1105:       if (__count > 0)
	.loc 17 1105 7
	cmpq	$0, -8(%rbp)	#, __count
	jle	.L390	#,
# /usr/include/c++/12/bits/stl_uninitialized.h:1117: 	  __builtin_memmove(__result, __first, __count * sizeof(_Tp));
	.loc 17 1117 41
	movq	-8(%rbp), %rax	# __count, __count.21_2
# /usr/include/c++/12/bits/stl_uninitialized.h:1117: 	  __builtin_memmove(__result, __first, __count * sizeof(_Tp));
	.loc 17 1117 21
	leaq	0(,%rax,8), %rdx	#, _3
	movq	-24(%rbp), %rcx	# __first, tmp93
	movq	-40(%rbp), %rax	# __result, tmp94
	movq	%rcx, %rsi	# tmp93,
	movq	%rax, %rdi	# tmp94,
	call	memmove@PLT	#
.L390:
# /usr/include/c++/12/bits/stl_uninitialized.h:1119:       return __result + __count;
	.loc 17 1119 25
	movq	-8(%rbp), %rax	# __count, __count.22_4
# /usr/include/c++/12/bits/stl_uninitialized.h:1119:       return __result + __count;
	.loc 17 1119 23
	leaq	0(,%rax,8), %rdx	#, _5
# /usr/include/c++/12/bits/stl_uninitialized.h:1119:       return __result + __count;
	.loc 17 1119 25
	movq	-40(%rbp), %rax	# __result, tmp95
	addq	%rdx, %rax	# _5, _13
# /usr/include/c++/12/bits/stl_uninitialized.h:1120:     }
	.loc 17 1120 5
	leave	
	.cfi_def_cfa 7, 8
	ret	
	.cfi_endproc
.LFE3362:
	.size	_ZSt14__relocate_a_1IddENSt9enable_ifIXsrSt24__is_bitwise_relocatableIT_vE5valueEPS2_E4typeES4_S4_S4_RSaIT0_E, .-_ZSt14__relocate_a_1IddENSt9enable_ifIXsrSt24__is_bitwise_relocatableIT_vE5valueEPS2_E4typeES4_S4_S4_RSaIT0_E
	.section	.text._ZNSt20__uninitialized_copyILb1EE13__uninit_copyIN9__gnu_cxx17__normal_iteratorIPKlSt6vectorIlSaIlEEEEPlEET0_T_SC_SB_,"axG",@progbits,_ZNSt20__uninitialized_copyILb1EE13__uninit_copyIN9__gnu_cxx17__normal_iteratorIPKlSt6vectorIlSaIlEEEEPlEET0_T_SC_SB_,comdat
	.weak	_ZNSt20__uninitialized_copyILb1EE13__uninit_copyIN9__gnu_cxx17__normal_iteratorIPKlSt6vectorIlSaIlEEEEPlEET0_T_SC_SB_
	.type	_ZNSt20__uninitialized_copyILb1EE13__uninit_copyIN9__gnu_cxx17__normal_iteratorIPKlSt6vectorIlSaIlEEEEPlEET0_T_SC_SB_, @function
_ZNSt20__uninitialized_copyILb1EE13__uninit_copyIN9__gnu_cxx17__normal_iteratorIPKlSt6vectorIlSaIlEEEEPlEET0_T_SC_SB_:
.LFB3363:
	.loc 17 145 9
	.cfi_startproc
	pushq	%rbp	#
	.cfi_def_cfa_offset 16
	.cfi_offset 6, -16
	movq	%rsp, %rbp	#,
	.cfi_def_cfa_register 6
	subq	$32, %rsp	#,
	movq	%rdi, -8(%rbp)	# __first, __first
	movq	%rsi, -16(%rbp)	# __last, __last
	movq	%rdx, -24(%rbp)	# __result, __result
# /usr/include/c++/12/bits/stl_uninitialized.h:147:         { return std::copy(__first, __last, __result); }
	.loc 17 147 27
	movq	-24(%rbp), %rdx	# __result, tmp84
	movq	-16(%rbp), %rcx	# __last, tmp85
	movq	-8(%rbp), %rax	# __first, tmp86
	movq	%rcx, %rsi	# tmp85,
	movq	%rax, %rdi	# tmp86,
	call	_ZSt4copyIN9__gnu_cxx17__normal_iteratorIPKlSt6vectorIlSaIlEEEEPlET0_T_SA_S9_	#
# /usr/include/c++/12/bits/stl_uninitialized.h:147:         { return std::copy(__first, __last, __result); }
	.loc 17 147 56
	leave	
	.cfi_def_cfa 7, 8
	ret	
	.cfi_endproc
.LFE3363:
	.size	_ZNSt20__uninitialized_copyILb1EE13__uninit_copyIN9__gnu_cxx17__normal_iteratorIPKlSt6vectorIlSaIlEEEEPlEET0_T_SC_SB_, .-_ZNSt20__uninitialized_copyILb1EE13__uninit_copyIN9__gnu_cxx17__normal_iteratorIPKlSt6vectorIlSaIlEEEEPlEET0_T_SC_SB_
	.section	.text._ZNSt11__copy_moveILb0ELb1ESt26random_access_iterator_tagE8__copy_mIdEEPT_PKS3_S6_S4_,"axG",@progbits,_ZNSt11__copy_moveILb0ELb1ESt26random_access_iterator_tagE8__copy_mIdEEPT_PKS3_S6_S4_,comdat
	.weak	_ZNSt11__copy_moveILb0ELb1ESt26random_access_iterator_tagE8__copy_mIdEEPT_PKS3_S6_S4_
	.type	_ZNSt11__copy_moveILb0ELb1ESt26random_access_iterator_tagE8__copy_mIdEEPT_PKS3_S6_S4_, @function
_ZNSt11__copy_moveILb0ELb1ESt26random_access_iterator_tagE8__copy_mIdEEPT_PKS3_S6_S4_:
.LFB3364:
	.loc 2 420 2
	.cfi_startproc
	pushq	%rbp	#
	.cfi_def_cfa_offset 16
	.cfi_offset 6, -16
	movq	%rsp, %rbp	#,
	.cfi_def_cfa_register 6
	subq	$48, %rsp	#,
	movq	%rdi, -24(%rbp)	# __first, __first
	movq	%rsi, -32(%rbp)	# __last, __last
	movq	%rdx, -40(%rbp)	# __result, __result
# /usr/include/c++/12/bits/stl_algobase.h:429: 	  const ptrdiff_t _Num = __last - __first;
	.loc 2 429 34
	movq	-32(%rbp), %rax	# __last, tmp89
	subq	-24(%rbp), %rax	# __first, _1
# /usr/include/c++/12/bits/stl_algobase.h:429: 	  const ptrdiff_t _Num = __last - __first;
	.loc 2 429 20
	sarq	$3, %rax	#, tmp90
	movq	%rax, -8(%rbp)	# tmp90, _Num
# /usr/include/c++/12/bits/stl_algobase.h:430: 	  if (_Num)
	.loc 2 430 4
	cmpq	$0, -8(%rbp)	#, _Num
	je	.L395	#,
# /usr/include/c++/12/bits/stl_algobase.h:431: 	    __builtin_memmove(__result, __first, sizeof(_Tp) * _Num);
	.loc 2 431 57
	movq	-8(%rbp), %rax	# _Num, _Num.29_2
# /usr/include/c++/12/bits/stl_algobase.h:431: 	    __builtin_memmove(__result, __first, sizeof(_Tp) * _Num);
	.loc 2 431 23
	leaq	0(,%rax,8), %rdx	#, _3
	movq	-24(%rbp), %rcx	# __first, tmp93
	movq	-40(%rbp), %rax	# __result, tmp94
	movq	%rcx, %rsi	# tmp93,
	movq	%rax, %rdi	# tmp94,
	call	memmove@PLT	#
.L395:
# /usr/include/c++/12/bits/stl_algobase.h:432: 	  return __result + _Num;
	.loc 2 432 22
	movq	-8(%rbp), %rax	# _Num, _Num.30_4
# /usr/include/c++/12/bits/stl_algobase.h:432: 	  return __result + _Num;
	.loc 2 432 20
	leaq	0(,%rax,8), %rdx	#, _5
# /usr/include/c++/12/bits/stl_algobase.h:432: 	  return __result + _Num;
	.loc 2 432 22
	movq	-40(%rbp), %rax	# __result, tmp95
	addq	%rdx, %rax	# _5, _13
# /usr/include/c++/12/bits/stl_algobase.h:433: 	}
	.loc 2 433 2
	leave	
	.cfi_def_cfa 7, 8
	ret	
	.cfi_endproc
.LFE3364:
	.size	_ZNSt11__copy_moveILb0ELb1ESt26random_access_iterator_tagE8__copy_mIdEEPT_PKS3_S6_S4_, .-_ZNSt11__copy_moveILb0ELb1ESt26random_access_iterator_tagE8__copy_mIdEEPT_PKS3_S6_S4_
	.section	.text._ZN9__gnu_cxxmiIPlSt6vectorIlSaIlEEEENS_17__normal_iteratorIT_T0_E15difference_typeERKS8_SB_,"axG",@progbits,_ZN9__gnu_cxxmiIPlSt6vectorIlSaIlEEEENS_17__normal_iteratorIT_T0_E15difference_typeERKS8_SB_,comdat
	.weak	_ZN9__gnu_cxxmiIPlSt6vectorIlSaIlEEEENS_17__normal_iteratorIT_T0_E15difference_typeERKS8_SB_
	.type	_ZN9__gnu_cxxmiIPlSt6vectorIlSaIlEEEENS_17__normal_iteratorIT_T0_E15difference_typeERKS8_SB_, @function
_ZN9__gnu_cxxmiIPlSt6vectorIlSaIlEEEENS_17__normal_iteratorIT_T0_E15difference_typeERKS8_SB_:
.LFB3365:
	.loc 18 1330 5
	.cfi_startproc
	pushq	%rbp	#
	.cfi_def_cfa_offset 16
	.cfi_offset 6, -16
	movq	%rsp, %rbp	#,
	.cfi_def_cfa_register 6
	pushq	%rbx	#
	subq	$24, %rsp	#,
	.cfi_offset 3, -24
	movq	%rdi, -24(%rbp)	# __lhs, __lhs
	movq	%rsi, -32(%rbp)	# __rhs, __rhs
# /usr/include/c++/12/bits/stl_iterator.h:1333:     { return __lhs.base() - __rhs.base(); }
	.loc 18 1333 24
	movq	-24(%rbp), %rax	# __lhs, tmp89
	movq	%rax, %rdi	# tmp89,
	call	_ZNK9__gnu_cxx17__normal_iteratorIPlSt6vectorIlSaIlEEE4baseEv	#
# /usr/include/c++/12/bits/stl_iterator.h:1333:     { return __lhs.base() - __rhs.base(); }
	.loc 18 1333 27
	movq	(%rax), %rbx	# *_1, _2
# /usr/include/c++/12/bits/stl_iterator.h:1333:     { return __lhs.base() - __rhs.base(); }
	.loc 18 1333 39
	movq	-32(%rbp), %rax	# __rhs, tmp90
	movq	%rax, %rdi	# tmp90,
	call	_ZNK9__gnu_cxx17__normal_iteratorIPlSt6vectorIlSaIlEEE4baseEv	#
# /usr/include/c++/12/bits/stl_iterator.h:1333:     { return __lhs.base() - __rhs.base(); }
	.loc 18 1333 27
	movq	(%rax), %rax	# *_3, _4
	movq	%rbx, %rdx	# _2, _2
	subq	%rax, %rdx	# _4, _2
# /usr/include/c++/12/bits/stl_iterator.h:1333:     { return __lhs.base() - __rhs.base(); }
	.loc 18 1333 40
	movq	%rdx, %rax	# _5, _5
	sarq	$3, %rax	#, _5
# /usr/include/c++/12/bits/stl_iterator.h:1333:     { return __lhs.base() - __rhs.base(); }
	.loc 18 1333 43
	movq	-8(%rbp), %rbx	#,
	leave	
	.cfi_def_cfa 7, 8
	ret	
	.cfi_endproc
.LFE3365:
	.size	_ZN9__gnu_cxxmiIPlSt6vectorIlSaIlEEEENS_17__normal_iteratorIT_T0_E15difference_typeERKS8_SB_, .-_ZN9__gnu_cxxmiIPlSt6vectorIlSaIlEEEENS_17__normal_iteratorIT_T0_E15difference_typeERKS8_SB_
	.section	.text._ZSt12__niter_baseIPlSt6vectorIlSaIlEEET_N9__gnu_cxx17__normal_iteratorIS4_T0_EE,"axG",@progbits,_ZSt12__niter_baseIPlSt6vectorIlSaIlEEET_N9__gnu_cxx17__normal_iteratorIS4_T0_EE,comdat
	.weak	_ZSt12__niter_baseIPlSt6vectorIlSaIlEEET_N9__gnu_cxx17__normal_iteratorIS4_T0_EE
	.type	_ZSt12__niter_baseIPlSt6vectorIlSaIlEEET_N9__gnu_cxx17__normal_iteratorIS4_T0_EE, @function
_ZSt12__niter_baseIPlSt6vectorIlSaIlEEET_N9__gnu_cxx17__normal_iteratorIS4_T0_EE:
.LFB3366:
	.loc 18 1353 5
	.cfi_startproc
	pushq	%rbp	#
	.cfi_def_cfa_offset 16
	.cfi_offset 6, -16
	movq	%rsp, %rbp	#,
	.cfi_def_cfa_register 6
	subq	$16, %rsp	#,
	movq	%rdi, -8(%rbp)	# __it, __it
# /usr/include/c++/12/bits/stl_iterator.h:1355:     { return __it.base(); }
	.loc 18 1355 23
	leaq	-8(%rbp), %rax	#, tmp85
	movq	%rax, %rdi	# tmp85,
	call	_ZNK9__gnu_cxx17__normal_iteratorIPlSt6vectorIlSaIlEEE4baseEv	#
# /usr/include/c++/12/bits/stl_iterator.h:1355:     { return __it.base(); }
	.loc 18 1355 24
	movq	(%rax), %rax	# *_1, _4
# /usr/include/c++/12/bits/stl_iterator.h:1355:     { return __it.base(); }
	.loc 18 1355 27
	leave	
	.cfi_def_cfa 7, 8
	ret	
	.cfi_endproc
.LFE3366:
	.size	_ZSt12__niter_baseIPlSt6vectorIlSaIlEEET_N9__gnu_cxx17__normal_iteratorIS4_T0_EE, .-_ZSt12__niter_baseIPlSt6vectorIlSaIlEEET_N9__gnu_cxx17__normal_iteratorIS4_T0_EE
	.section	.text._ZSt12__equal_aux1IPlS0_EbT_S1_T0_,"axG",@progbits,_ZSt12__equal_aux1IPlS0_EbT_S1_T0_,comdat
	.weak	_ZSt12__equal_aux1IPlS0_EbT_S1_T0_
	.type	_ZSt12__equal_aux1IPlS0_EbT_S1_T0_, @function
_ZSt12__equal_aux1IPlS0_EbT_S1_T0_:
.LFB3367:
	.loc 2 1204 5
	.cfi_startproc
	pushq	%rbp	#
	.cfi_def_cfa_offset 16
	.cfi_offset 6, -16
	movq	%rsp, %rbp	#,
	.cfi_def_cfa_register 6
	subq	$48, %rsp	#,
	movq	%rdi, -24(%rbp)	# __first1, __first1
	movq	%rsi, -32(%rbp)	# __last1, __last1
	movq	%rdx, -40(%rbp)	# __first2, __first2
# /usr/include/c++/12/bits/stl_algobase.h:1207:       const bool __simple = ((__is_integer<_ValueType1>::__value
	.loc 2 1207 18
	movb	$1, -1(%rbp)	#, __simple
# /usr/include/c++/12/bits/stl_algobase.h:1210:       return std::__equal<__simple>::equal(__first1, __last1, __first2);
	.loc 2 1210 43
	movq	-40(%rbp), %rdx	# __first2, tmp84
	movq	-32(%rbp), %rcx	# __last1, tmp85
	movq	-24(%rbp), %rax	# __first1, tmp86
	movq	%rcx, %rsi	# tmp85,
	movq	%rax, %rdi	# tmp86,
	call	_ZNSt7__equalILb1EE5equalIlEEbPKT_S4_S4_	#
# /usr/include/c++/12/bits/stl_algobase.h:1211:     }
	.loc 2 1211 5
	leave	
	.cfi_def_cfa 7, 8
	ret	
	.cfi_endproc
.LFE3367:
	.size	_ZSt12__equal_aux1IPlS0_EbT_S1_T0_, .-_ZSt12__equal_aux1IPlS0_EbT_S1_T0_
	.section	.text._ZSt12__miter_baseIPKlET_S2_,"axG",@progbits,_ZSt12__miter_baseIPKlET_S2_,comdat
	.weak	_ZSt12__miter_baseIPKlET_S2_
	.type	_ZSt12__miter_baseIPKlET_S2_, @function
_ZSt12__miter_baseIPKlET_S2_:
.LFB3368:
	.loc 20 562 5
	.cfi_startproc
	pushq	%rbp	#
	.cfi_def_cfa_offset 16
	.cfi_offset 6, -16
	movq	%rsp, %rbp	#,
	.cfi_def_cfa_register 6
	movq	%rdi, -8(%rbp)	# __it, __it
# /usr/include/c++/12/bits/cpp_type_traits.h:563:     { return __it; }
	.loc 20 563 14
	movq	-8(%rbp), %rax	# __it, _2
# /usr/include/c++/12/bits/cpp_type_traits.h:563:     { return __it; }
	.loc 20 563 20
	popq	%rbp	#
	.cfi_def_cfa 7, 8
	ret	
	.cfi_endproc
.LFE3368:
	.size	_ZSt12__miter_baseIPKlET_S2_, .-_ZSt12__miter_baseIPKlET_S2_
	.section	.text._ZSt13__copy_move_aILb0EPKlPlET1_T0_S4_S3_,"axG",@progbits,_ZSt13__copy_move_aILb0EPKlPlET1_T0_S4_S3_,comdat
	.weak	_ZSt13__copy_move_aILb0EPKlPlET1_T0_S4_S3_
	.type	_ZSt13__copy_move_aILb0EPKlPlET1_T0_S4_S3_, @function
_ZSt13__copy_move_aILb0EPKlPlET1_T0_S4_S3_:
.LFB3369:
	.loc 2 527 5
	.cfi_startproc
	pushq	%rbp	#
	.cfi_def_cfa_offset 16
	.cfi_offset 6, -16
	movq	%rsp, %rbp	#,
	.cfi_def_cfa_register 6
	pushq	%r12	#
	pushq	%rbx	#
	subq	$32, %rsp	#,
	.cfi_offset 12, -24
	.cfi_offset 3, -32
	movq	%rdi, -24(%rbp)	# __first, __first
	movq	%rsi, -32(%rbp)	# __last, __last
	movq	%rdx, -40(%rbp)	# __result, __result
# /usr/include/c++/12/bits/stl_algobase.h:529:       return std::__niter_wrap(__result,
	.loc 2 529 31
	movq	-40(%rbp), %rax	# __result, __result.5_1
	movq	%rax, %rdi	# __result.5_1,
	call	_ZSt12__niter_baseIPlET_S1_	#
	movq	%rax, %r12	#, _2
	movq	-32(%rbp), %rax	# __last, tmp89
	movq	%rax, %rdi	# tmp89,
	call	_ZSt12__niter_baseIPKlET_S2_	#
	movq	%rax, %rbx	#, _3
	movq	-24(%rbp), %rax	# __first, tmp90
	movq	%rax, %rdi	# tmp90,
	call	_ZSt12__niter_baseIPKlET_S2_	#
	movq	%r12, %rdx	# _2,
	movq	%rbx, %rsi	# _3,
	movq	%rax, %rdi	# _4,
	call	_ZSt14__copy_move_a1ILb0EPKlPlET1_T0_S4_S3_	#
	movq	%rax, %rdx	#, _5
	leaq	-40(%rbp), %rax	#, tmp91
	movq	%rdx, %rsi	# _5,
	movq	%rax, %rdi	# tmp91,
	call	_ZSt12__niter_wrapIPlET_RKS1_S1_	#
# /usr/include/c++/12/bits/stl_algobase.h:533:     }
	.loc 2 533 5
	addq	$32, %rsp	#,
	popq	%rbx	#
	popq	%r12	#
	popq	%rbp	#
	.cfi_def_cfa 7, 8
	ret	
	.cfi_endproc
.LFE3369:
	.size	_ZSt13__copy_move_aILb0EPKlPlET1_T0_S4_S3_, .-_ZSt13__copy_move_aILb0EPKlPlET1_T0_S4_S3_
	.section	.text._ZNKSt15__new_allocatorIdE8max_sizeEv,"axG",@progbits,_ZNKSt15__new_allocatorIdE8max_sizeEv,comdat
	.align 2
	.weak	_ZNKSt15__new_allocatorIdE8max_sizeEv
	.type	_ZNKSt15__new_allocatorIdE8max_sizeEv, @function
_ZNKSt15__new_allocatorIdE8max_sizeEv:
.LFB3371:
	.loc 10 167 7
	.cfi_startproc
	pushq	%rbp	#
	.cfi_def_cfa_offset 16
	.cfi_offset 6, -16
	movq	%rsp, %rbp	#,
	.cfi_def_cfa_register 6
	subq	$16, %rsp	#,
	movq	%rdi, -8(%rbp)	# this, this
# /usr/include/c++/12/bits/new_allocator.h:168:       { return _M_max_size(); }
	.loc 10 168 27
	movq	-8(%rbp), %rax	# this, tmp84
	movq	%rax, %rdi	# tmp84,
	call	_ZNKSt15__new_allocatorIdE11_M_max_sizeEv	#
# /usr/include/c++/12/bits/new_allocator.h:168:       { return _M_max_size(); }
	.loc 10 168 31
	leave	
	.cfi_def_cfa 7, 8
	ret	
	.cfi_endproc
.LFE3371:
	.size	_ZNKSt15__new_allocatorIdE8max_sizeEv, .-_ZNKSt15__new_allocatorIdE8max_sizeEv
	.section	.text._ZSt11__addressofIdEPT_RS0_,"axG",@progbits,_ZSt11__addressofIdEPT_RS0_,comdat
	.weak	_ZSt11__addressofIdEPT_RS0_
	.type	_ZSt11__addressofIdEPT_RS0_, @function
_ZSt11__addressofIdEPT_RS0_:
.LFB3372:
	.loc 15 49 5
	.cfi_startproc
	pushq	%rbp	#
	.cfi_def_cfa_offset 16
	.cfi_offset 6, -16
	movq	%rsp, %rbp	#,
	.cfi_def_cfa_register 6
	movq	%rdi, -8(%rbp)	# __r, __r
# /usr/include/c++/12/bits/move.h:50:     { return __builtin_addressof(__r); }
	.loc 15 50 37
	movq	-8(%rbp), %rax	# __r, _2
# /usr/include/c++/12/bits/move.h:50:     { return __builtin_addressof(__r); }
	.loc 15 50 40
	popq	%rbp	#
	.cfi_def_cfa 7, 8
	ret	
	.cfi_endproc
.LFE3372:
	.size	_ZSt11__addressofIdEPT_RS0_, .-_ZSt11__addressofIdEPT_RS0_
	.section	.text._ZSt10_ConstructIdJEEvPT_DpOT0_,"axG",@progbits,_ZSt10_ConstructIdJEEvPT_DpOT0_,comdat
	.weak	_ZSt10_ConstructIdJEEvPT_DpOT0_
	.type	_ZSt10_ConstructIdJEEvPT_DpOT0_, @function
_ZSt10_ConstructIdJEEvPT_DpOT0_:
.LFB3373:
	.loc 14 109 5
	.cfi_startproc
	pushq	%rbp	#
	.cfi_def_cfa_offset 16
	.cfi_offset 6, -16
	movq	%rsp, %rbp	#,
	.cfi_def_cfa_register 6
	subq	$16, %rsp	#,
	movq	%rdi, -8(%rbp)	# __p, __p
# /usr/include/c++/12/bits/stl_construct.h:119:       ::new((void*)__p) _Tp(std::forward<_Args>(__args)...);
	.loc 14 119 13
	movq	-8(%rbp), %rax	# __p, _2
# /usr/include/c++/12/bits/stl_construct.h:119:       ::new((void*)__p) _Tp(std::forward<_Args>(__args)...);
	.loc 14 119 7
	movq	%rax, %rsi	# _2,
	movl	$8, %edi	#,
	call	_ZnwmPv	#
	pxor	%xmm0, %xmm0	# tmp86
	movsd	%xmm0, (%rax)	# tmp86, MEM[(double *)_5]
# /usr/include/c++/12/bits/stl_construct.h:120:     }
	.loc 14 120 5
	nop	
	leave	
	.cfi_def_cfa 7, 8
	ret	
	.cfi_endproc
.LFE3373:
	.size	_ZSt10_ConstructIdJEEvPT_DpOT0_, .-_ZSt10_ConstructIdJEEvPT_DpOT0_
	.section	.text._ZSt6fill_nIPdmdET_S1_T0_RKT1_,"axG",@progbits,_ZSt6fill_nIPdmdET_S1_T0_RKT1_,comdat
	.weak	_ZSt6fill_nIPdmdET_S1_T0_RKT1_
	.type	_ZSt6fill_nIPdmdET_S1_T0_RKT1_, @function
_ZSt6fill_nIPdmdET_S1_T0_RKT1_:
.LFB3374:
	.loc 2 1143 5
	.cfi_startproc
	pushq	%rbp	#
	.cfi_def_cfa_offset 16
	.cfi_offset 6, -16
	movq	%rsp, %rbp	#,
	.cfi_def_cfa_register 6
	subq	$32, %rsp	#,
	movq	%rdi, -8(%rbp)	# __first, __first
	movq	%rsi, -16(%rbp)	# __n, __n
	movq	%rdx, -24(%rbp)	# __value, __value
# /usr/include/c++/12/bits/stl_algobase.h:1149: 			       std::__iterator_category(__first));
	.loc 2 1149 35
	leaq	-8(%rbp), %rax	#, tmp87
	movq	%rax, %rdi	# tmp87,
	call	_ZSt19__iterator_categoryIPdENSt15iterator_traitsIT_E17iterator_categoryERKS2_	#
# /usr/include/c++/12/bits/stl_algobase.h:1148:       return std::__fill_n_a(__first, std::__size_to_integer(__n), __value,
	.loc 2 1148 29
	movq	-16(%rbp), %rax	# __n, tmp88
	movq	%rax, %rdi	# tmp88,
	call	_ZSt17__size_to_integerm	#
	movq	%rax, %rcx	#, _1
	movq	-8(%rbp), %rax	# __first, __first.20_2
	movq	-24(%rbp), %rdx	# __value, tmp89
	movq	%rcx, %rsi	# _1,
	movq	%rax, %rdi	# __first.20_2,
	call	_ZSt10__fill_n_aIPdmdET_S1_T0_RKT1_St26random_access_iterator_tag	#
# /usr/include/c++/12/bits/stl_algobase.h:1150:     }
	.loc 2 1150 5
	leave	
	.cfi_def_cfa 7, 8
	ret	
	.cfi_endproc
.LFE3374:
	.size	_ZSt6fill_nIPdmdET_S1_T0_RKT1_, .-_ZSt6fill_nIPdmdET_S1_T0_RKT1_
	.section	.text._ZNKSt15__new_allocatorIdE11_M_max_sizeEv,"axG",@progbits,_ZNKSt15__new_allocatorIdE11_M_max_sizeEv,comdat
	.align 2
	.weak	_ZNKSt15__new_allocatorIdE11_M_max_sizeEv
	.type	_ZNKSt15__new_allocatorIdE11_M_max_sizeEv, @function
_ZNKSt15__new_allocatorIdE11_M_max_sizeEv:
.LFB3375:
	.loc 10 210 7
	.cfi_startproc
	pushq	%rbp	#
	.cfi_def_cfa_offset 16
	.cfi_offset 6, -16
	movq	%rsp, %rbp	#,
	.cfi_def_cfa_register 6
	movq	%rdi, -8(%rbp)	# this, this
# /usr/include/c++/12/bits/new_allocator.h:213: 	return std::size_t(__PTRDIFF_MAX__) / sizeof(_Tp);
	.loc 10 213 50
	movabsq	$1152921504606846975, %rax	#, _1
# /usr/include/c++/12/bits/new_allocator.h:217:       }
	.loc 10 217 7
	popq	%rbp	#
	.cfi_def_cfa 7, 8
	ret	
	.cfi_endproc
.LFE3375:
	.size	_ZNKSt15__new_allocatorIdE11_M_max_sizeEv, .-_ZNKSt15__new_allocatorIdE11_M_max_sizeEv
	.section	.text._ZSt4copyIN9__gnu_cxx17__normal_iteratorIPKlSt6vectorIlSaIlEEEEPlET0_T_SA_S9_,"axG",@progbits,_ZSt4copyIN9__gnu_cxx17__normal_iteratorIPKlSt6vectorIlSaIlEEEEPlET0_T_SA_S9_,comdat
	.weak	_ZSt4copyIN9__gnu_cxx17__normal_iteratorIPKlSt6vectorIlSaIlEEEEPlET0_T_SA_S9_
	.type	_ZSt4copyIN9__gnu_cxx17__normal_iteratorIPKlSt6vectorIlSaIlEEEEPlET0_T_SA_S9_, @function
_ZSt4copyIN9__gnu_cxx17__normal_iteratorIPKlSt6vectorIlSaIlEEEEPlET0_T_SA_S9_:
.LFB3376:
	.loc 2 611 5
	.cfi_startproc
	pushq	%rbp	#
	.cfi_def_cfa_offset 16
	.cfi_offset 6, -16
	movq	%rsp, %rbp	#,
	.cfi_def_cfa_register 6
	pushq	%rbx	#
	subq	$40, %rsp	#,
	.cfi_offset 3, -24
	movq	%rdi, -24(%rbp)	# __first, __first
	movq	%rsi, -32(%rbp)	# __last, __last
	movq	%rdx, -40(%rbp)	# __result, __result
# /usr/include/c++/12/bits/stl_algobase.h:620: 	     (std::__miter_base(__first), std::__miter_base(__last), __result);
	.loc 2 620 7
	movq	-32(%rbp), %rax	# __last, tmp86
	movq	%rax, %rdi	# tmp86,
	call	_ZSt12__miter_baseIN9__gnu_cxx17__normal_iteratorIPKlSt6vectorIlSaIlEEEEET_S8_	#
	movq	%rax, %rbx	#, D.68242
	movq	-24(%rbp), %rax	# __first, tmp87
	movq	%rax, %rdi	# tmp87,
	call	_ZSt12__miter_baseIN9__gnu_cxx17__normal_iteratorIPKlSt6vectorIlSaIlEEEEET_S8_	#
	movq	%rax, %rcx	#, D.68243
	movq	-40(%rbp), %rax	# __result, tmp88
	movq	%rax, %rdx	# tmp88,
	movq	%rbx, %rsi	# D.68242,
	movq	%rcx, %rdi	# D.68243,
	call	_ZSt13__copy_move_aILb0EN9__gnu_cxx17__normal_iteratorIPKlSt6vectorIlSaIlEEEEPlET1_T0_SA_S9_	#
# /usr/include/c++/12/bits/stl_algobase.h:621:     }
	.loc 2 621 5
	movq	-8(%rbp), %rbx	#,
	leave	
	.cfi_def_cfa 7, 8
	ret	
	.cfi_endproc
.LFE3376:
	.size	_ZSt4copyIN9__gnu_cxx17__normal_iteratorIPKlSt6vectorIlSaIlEEEEPlET0_T_SA_S9_, .-_ZSt4copyIN9__gnu_cxx17__normal_iteratorIPKlSt6vectorIlSaIlEEEEPlET0_T_SA_S9_
	.section	.text._ZNSt7__equalILb1EE5equalIlEEbPKT_S4_S4_,"axG",@progbits,_ZNSt7__equalILb1EE5equalIlEEbPKT_S4_S4_,comdat
	.weak	_ZNSt7__equalILb1EE5equalIlEEbPKT_S4_S4_
	.type	_ZNSt7__equalILb1EE5equalIlEEbPKT_S4_S4_, @function
_ZNSt7__equalILb1EE5equalIlEEbPKT_S4_S4_:
.LFB3377:
	.loc 2 1173 2
	.cfi_startproc
	pushq	%rbp	#
	.cfi_def_cfa_offset 16
	.cfi_offset 6, -16
	movq	%rsp, %rbp	#,
	.cfi_def_cfa_register 6
	subq	$48, %rsp	#,
	movq	%rdi, -24(%rbp)	# __first1, __first1
	movq	%rsi, -32(%rbp)	# __last1, __last1
	movq	%rdx, -40(%rbp)	# __first2, __first2
.LBB63:
# /usr/include/c++/12/bits/stl_algobase.h:1175: 	  if (const size_t __len = (__last1 - __first1))
	.loc 2 1175 38
	movq	-32(%rbp), %rax	# __last1, tmp87
	subq	-24(%rbp), %rax	# __first1, _1
	sarq	$3, %rax	#, tmp88
# /usr/include/c++/12/bits/stl_algobase.h:1175: 	  if (const size_t __len = (__last1 - __first1))
	.loc 2 1175 21
	movq	%rax, -8(%rbp)	# _2, __len
# /usr/include/c++/12/bits/stl_algobase.h:1175: 	  if (const size_t __len = (__last1 - __first1))
	.loc 2 1175 4
	cmpq	$0, -8(%rbp)	#, __len
	je	.L419	#,
# /usr/include/c++/12/bits/stl_algobase.h:1176: 	    return !std::__memcmp(__first1, __first2, __len);
	.loc 2 1176 27
	movq	-8(%rbp), %rdx	# __len, tmp89
	movq	-40(%rbp), %rcx	# __first2, tmp90
	movq	-24(%rbp), %rax	# __first1, tmp91
	movq	%rcx, %rsi	# tmp90,
	movq	%rax, %rdi	# tmp91,
	call	_ZSt8__memcmpIllEiPKT_PKT0_m	#
# /usr/include/c++/12/bits/stl_algobase.h:1176: 	    return !std::__memcmp(__first1, __first2, __len);
	.loc 2 1176 53
	testl	%eax, %eax	# _3
	sete	%al	#, _4
	jmp	.L420	#
.L419:
.LBE63:
# /usr/include/c++/12/bits/stl_algobase.h:1177: 	  return true;
	.loc 2 1177 11
	movl	$1, %eax	#, _4
.L420:
# /usr/include/c++/12/bits/stl_algobase.h:1178: 	}
	.loc 2 1178 2
	leave	
	.cfi_def_cfa 7, 8
	ret	
	.cfi_endproc
.LFE3377:
	.size	_ZNSt7__equalILb1EE5equalIlEEbPKT_S4_S4_, .-_ZNSt7__equalILb1EE5equalIlEEbPKT_S4_S4_
	.section	.text._ZSt12__niter_baseIPKlET_S2_,"axG",@progbits,_ZSt12__niter_baseIPKlET_S2_,comdat
	.weak	_ZSt12__niter_baseIPKlET_S2_
	.type	_ZSt12__niter_baseIPKlET_S2_, @function
_ZSt12__niter_baseIPKlET_S2_:
.LFB3378:
	.loc 2 313 5
	.cfi_startproc
	pushq	%rbp	#
	.cfi_def_cfa_offset 16
	.cfi_offset 6, -16
	movq	%rsp, %rbp	#,
	.cfi_def_cfa_register 6
	movq	%rdi, -8(%rbp)	# __it, __it
# /usr/include/c++/12/bits/stl_algobase.h:315:     { return __it; }
	.loc 2 315 14
	movq	-8(%rbp), %rax	# __it, _2
# /usr/include/c++/12/bits/stl_algobase.h:315:     { return __it; }
	.loc 2 315 20
	popq	%rbp	#
	.cfi_def_cfa 7, 8
	ret	
	.cfi_endproc
.LFE3378:
	.size	_ZSt12__niter_baseIPKlET_S2_, .-_ZSt12__niter_baseIPKlET_S2_
	.section	.text._ZSt12__niter_baseIPlET_S1_,"axG",@progbits,_ZSt12__niter_baseIPlET_S1_,comdat
	.weak	_ZSt12__niter_baseIPlET_S1_
	.type	_ZSt12__niter_baseIPlET_S1_, @function
_ZSt12__niter_baseIPlET_S1_:
.LFB3379:
	.loc 2 313 5
	.cfi_startproc
	pushq	%rbp	#
	.cfi_def_cfa_offset 16
	.cfi_offset 6, -16
	movq	%rsp, %rbp	#,
	.cfi_def_cfa_register 6
	movq	%rdi, -8(%rbp)	# __it, __it
# /usr/include/c++/12/bits/stl_algobase.h:315:     { return __it; }
	.loc 2 315 14
	movq	-8(%rbp), %rax	# __it, _2
# /usr/include/c++/12/bits/stl_algobase.h:315:     { return __it; }
	.loc 2 315 20
	popq	%rbp	#
	.cfi_def_cfa 7, 8
	ret	
	.cfi_endproc
.LFE3379:
	.size	_ZSt12__niter_baseIPlET_S1_, .-_ZSt12__niter_baseIPlET_S1_
	.section	.text._ZSt14__copy_move_a1ILb0EPKlPlET1_T0_S4_S3_,"axG",@progbits,_ZSt14__copy_move_a1ILb0EPKlPlET1_T0_S4_S3_,comdat
	.weak	_ZSt14__copy_move_a1ILb0EPKlPlET1_T0_S4_S3_
	.type	_ZSt14__copy_move_a1ILb0EPKlPlET1_T0_S4_S3_, @function
_ZSt14__copy_move_a1ILb0EPKlPlET1_T0_S4_S3_:
.LFB3380:
	.loc 2 521 5
	.cfi_startproc
	pushq	%rbp	#
	.cfi_def_cfa_offset 16
	.cfi_offset 6, -16
	movq	%rsp, %rbp	#,
	.cfi_def_cfa_register 6
	subq	$32, %rsp	#,
	movq	%rdi, -8(%rbp)	# __first, __first
	movq	%rsi, -16(%rbp)	# __last, __last
	movq	%rdx, -24(%rbp)	# __result, __result
# /usr/include/c++/12/bits/stl_algobase.h:522:     { return std::__copy_move_a2<_IsMove>(__first, __last, __result); }
	.loc 2 522 42
	movq	-24(%rbp), %rdx	# __result, tmp84
	movq	-16(%rbp), %rcx	# __last, tmp85
	movq	-8(%rbp), %rax	# __first, tmp86
	movq	%rcx, %rsi	# tmp85,
	movq	%rax, %rdi	# tmp86,
	call	_ZSt14__copy_move_a2ILb0EPKlPlET1_T0_S4_S3_	#
# /usr/include/c++/12/bits/stl_algobase.h:522:     { return std::__copy_move_a2<_IsMove>(__first, __last, __result); }
	.loc 2 522 71
	leave	
	.cfi_def_cfa 7, 8
	ret	
	.cfi_endproc
.LFE3380:
	.size	_ZSt14__copy_move_a1ILb0EPKlPlET1_T0_S4_S3_, .-_ZSt14__copy_move_a1ILb0EPKlPlET1_T0_S4_S3_
	.section	.text._ZSt12__niter_wrapIPlET_RKS1_S1_,"axG",@progbits,_ZSt12__niter_wrapIPlET_RKS1_S1_,comdat
	.weak	_ZSt12__niter_wrapIPlET_RKS1_S1_
	.type	_ZSt12__niter_wrapIPlET_RKS1_S1_, @function
_ZSt12__niter_wrapIPlET_RKS1_S1_:
.LFB3381:
	.loc 2 335 5
	.cfi_startproc
	pushq	%rbp	#
	.cfi_def_cfa_offset 16
	.cfi_offset 6, -16
	movq	%rsp, %rbp	#,
	.cfi_def_cfa_register 6
	movq	%rdi, -8(%rbp)	# D.67737, D.67737
	movq	%rsi, -16(%rbp)	# __res, __res
# /usr/include/c++/12/bits/stl_algobase.h:336:     { return __res; }
	.loc 2 336 14
	movq	-16(%rbp), %rax	# __res, _2
# /usr/include/c++/12/bits/stl_algobase.h:336:     { return __res; }
	.loc 2 336 21
	popq	%rbp	#
	.cfi_def_cfa 7, 8
	ret	
	.cfi_endproc
.LFE3381:
	.size	_ZSt12__niter_wrapIPlET_RKS1_S1_, .-_ZSt12__niter_wrapIPlET_RKS1_S1_
	.section	.text._ZSt19__iterator_categoryIPdENSt15iterator_traitsIT_E17iterator_categoryERKS2_,"axG",@progbits,_ZSt19__iterator_categoryIPdENSt15iterator_traitsIT_E17iterator_categoryERKS2_,comdat
	.weak	_ZSt19__iterator_categoryIPdENSt15iterator_traitsIT_E17iterator_categoryERKS2_
	.type	_ZSt19__iterator_categoryIPdENSt15iterator_traitsIT_E17iterator_categoryERKS2_, @function
_ZSt19__iterator_categoryIPdENSt15iterator_traitsIT_E17iterator_categoryERKS2_:
.LFB3382:
	.loc 16 238 5
	.cfi_startproc
	pushq	%rbp	#
	.cfi_def_cfa_offset 16
	.cfi_offset 6, -16
	movq	%rsp, %rbp	#,
	.cfi_def_cfa_register 6
	movq	%rdi, -8(%rbp)	# D.67740, D.67740
# /usr/include/c++/12/bits/stl_iterator_base_types.h:239:     { return typename iterator_traits<_Iter>::iterator_category(); }
	.loc 16 239 65
	nop	
# /usr/include/c++/12/bits/stl_iterator_base_types.h:239:     { return typename iterator_traits<_Iter>::iterator_category(); }
	.loc 16 239 68
	popq	%rbp	#
	.cfi_def_cfa 7, 8
	ret	
	.cfi_endproc
.LFE3382:
	.size	_ZSt19__iterator_categoryIPdENSt15iterator_traitsIT_E17iterator_categoryERKS2_, .-_ZSt19__iterator_categoryIPdENSt15iterator_traitsIT_E17iterator_categoryERKS2_
	.section	.text._ZSt10__fill_n_aIPdmdET_S1_T0_RKT1_St26random_access_iterator_tag,"axG",@progbits,_ZSt10__fill_n_aIPdmdET_S1_T0_RKT1_St26random_access_iterator_tag,comdat
	.weak	_ZSt10__fill_n_aIPdmdET_S1_T0_RKT1_St26random_access_iterator_tag
	.type	_ZSt10__fill_n_aIPdmdET_S1_T0_RKT1_St26random_access_iterator_tag, @function
_ZSt10__fill_n_aIPdmdET_S1_T0_RKT1_St26random_access_iterator_tag:
.LFB3383:
	.loc 2 1108 5
	.cfi_startproc
	pushq	%rbp	#
	.cfi_def_cfa_offset 16
	.cfi_offset 6, -16
	movq	%rsp, %rbp	#,
	.cfi_def_cfa_register 6
	subq	$32, %rsp	#,
	movq	%rdi, -8(%rbp)	# __first, __first
	movq	%rsi, -16(%rbp)	# __n, __n
	movq	%rdx, -24(%rbp)	# __value, __value
# /usr/include/c++/12/bits/stl_algobase.h:1114:       if (__n <= 0)
	.loc 2 1114 7
	cmpq	$0, -16(%rbp)	#, __n
	jne	.L432	#,
# /usr/include/c++/12/bits/stl_algobase.h:1115: 	return __first;
	.loc 2 1115 9
	movq	-8(%rbp), %rax	# __first, _4
	jmp	.L433	#
.L432:
# /usr/include/c++/12/bits/stl_algobase.h:1119:       std::__fill_a(__first, __first + __n, __value);
	.loc 2 1119 38
	movq	-16(%rbp), %rax	# __n, tmp87
	leaq	0(,%rax,8), %rdx	#, _1
# /usr/include/c++/12/bits/stl_algobase.h:1119:       std::__fill_a(__first, __first + __n, __value);
	.loc 2 1119 20
	movq	-8(%rbp), %rax	# __first, tmp88
	leaq	(%rdx,%rax), %rcx	#, _2
	movq	-24(%rbp), %rdx	# __value, tmp89
	movq	-8(%rbp), %rax	# __first, tmp90
	movq	%rcx, %rsi	# _2,
	movq	%rax, %rdi	# tmp90,
	call	_ZSt8__fill_aIPddEvT_S1_RKT0_	#
# /usr/include/c++/12/bits/stl_algobase.h:1120:       return __first + __n;
	.loc 2 1120 22
	movq	-16(%rbp), %rax	# __n, tmp91
	leaq	0(,%rax,8), %rdx	#, _3
# /usr/include/c++/12/bits/stl_algobase.h:1120:       return __first + __n;
	.loc 2 1120 24
	movq	-8(%rbp), %rax	# __first, tmp92
	addq	%rdx, %rax	# _3, _4
.L433:
# /usr/include/c++/12/bits/stl_algobase.h:1121:     }
	.loc 2 1121 5
	leave	
	.cfi_def_cfa 7, 8
	ret	
	.cfi_endproc
.LFE3383:
	.size	_ZSt10__fill_n_aIPdmdET_S1_T0_RKT1_St26random_access_iterator_tag, .-_ZSt10__fill_n_aIPdmdET_S1_T0_RKT1_St26random_access_iterator_tag
	.section	.text._ZSt12__miter_baseIN9__gnu_cxx17__normal_iteratorIPKlSt6vectorIlSaIlEEEEET_S8_,"axG",@progbits,_ZSt12__miter_baseIN9__gnu_cxx17__normal_iteratorIPKlSt6vectorIlSaIlEEEEET_S8_,comdat
	.weak	_ZSt12__miter_baseIN9__gnu_cxx17__normal_iteratorIPKlSt6vectorIlSaIlEEEEET_S8_
	.type	_ZSt12__miter_baseIN9__gnu_cxx17__normal_iteratorIPKlSt6vectorIlSaIlEEEEET_S8_, @function
_ZSt12__miter_baseIN9__gnu_cxx17__normal_iteratorIPKlSt6vectorIlSaIlEEEEET_S8_:
.LFB3384:
	.loc 20 562 5
	.cfi_startproc
	pushq	%rbp	#
	.cfi_def_cfa_offset 16
	.cfi_offset 6, -16
	movq	%rsp, %rbp	#,
	.cfi_def_cfa_register 6
	movq	%rdi, -8(%rbp)	# __it, __it
# /usr/include/c++/12/bits/cpp_type_traits.h:563:     { return __it; }
	.loc 20 563 14
	movq	-8(%rbp), %rax	# __it, D.68246
# /usr/include/c++/12/bits/cpp_type_traits.h:563:     { return __it; }
	.loc 20 563 20
	popq	%rbp	#
	.cfi_def_cfa 7, 8
	ret	
	.cfi_endproc
.LFE3384:
	.size	_ZSt12__miter_baseIN9__gnu_cxx17__normal_iteratorIPKlSt6vectorIlSaIlEEEEET_S8_, .-_ZSt12__miter_baseIN9__gnu_cxx17__normal_iteratorIPKlSt6vectorIlSaIlEEEEET_S8_
	.section	.text._ZSt13__copy_move_aILb0EN9__gnu_cxx17__normal_iteratorIPKlSt6vectorIlSaIlEEEEPlET1_T0_SA_S9_,"axG",@progbits,_ZSt13__copy_move_aILb0EN9__gnu_cxx17__normal_iteratorIPKlSt6vectorIlSaIlEEEEPlET1_T0_SA_S9_,comdat
	.weak	_ZSt13__copy_move_aILb0EN9__gnu_cxx17__normal_iteratorIPKlSt6vectorIlSaIlEEEEPlET1_T0_SA_S9_
	.type	_ZSt13__copy_move_aILb0EN9__gnu_cxx17__normal_iteratorIPKlSt6vectorIlSaIlEEEEPlET1_T0_SA_S9_, @function
_ZSt13__copy_move_aILb0EN9__gnu_cxx17__normal_iteratorIPKlSt6vectorIlSaIlEEEEPlET1_T0_SA_S9_:
.LFB3385:
	.loc 2 527 5
	.cfi_startproc
	pushq	%rbp	#
	.cfi_def_cfa_offset 16
	.cfi_offset 6, -16
	movq	%rsp, %rbp	#,
	.cfi_def_cfa_register 6
	pushq	%r12	#
	pushq	%rbx	#
	subq	$32, %rsp	#,
	.cfi_offset 12, -24
	.cfi_offset 3, -32
	movq	%rdi, -24(%rbp)	# __first, __first
	movq	%rsi, -32(%rbp)	# __last, __last
	movq	%rdx, -40(%rbp)	# __result, __result
# /usr/include/c++/12/bits/stl_algobase.h:529:       return std::__niter_wrap(__result,
	.loc 2 529 31
	movq	-40(%rbp), %rax	# __result, __result.28_1
	movq	%rax, %rdi	# __result.28_1,
	call	_ZSt12__niter_baseIPlET_S1_	#
	movq	%rax, %r12	#, _2
	movq	-32(%rbp), %rax	# __last, tmp89
	movq	%rax, %rdi	# tmp89,
	call	_ZSt12__niter_baseIPKlSt6vectorIlSaIlEEET_N9__gnu_cxx17__normal_iteratorIS5_T0_EE	#
	movq	%rax, %rbx	#, _3
	movq	-24(%rbp), %rax	# __first, tmp90
	movq	%rax, %rdi	# tmp90,
	call	_ZSt12__niter_baseIPKlSt6vectorIlSaIlEEET_N9__gnu_cxx17__normal_iteratorIS5_T0_EE	#
	movq	%r12, %rdx	# _2,
	movq	%rbx, %rsi	# _3,
	movq	%rax, %rdi	# _4,
	call	_ZSt14__copy_move_a1ILb0EPKlPlET1_T0_S4_S3_	#
	movq	%rax, %rdx	#, _5
	leaq	-40(%rbp), %rax	#, tmp91
	movq	%rdx, %rsi	# _5,
	movq	%rax, %rdi	# tmp91,
	call	_ZSt12__niter_wrapIPlET_RKS1_S1_	#
# /usr/include/c++/12/bits/stl_algobase.h:533:     }
	.loc 2 533 5
	addq	$32, %rsp	#,
	popq	%rbx	#
	popq	%r12	#
	popq	%rbp	#
	.cfi_def_cfa 7, 8
	ret	
	.cfi_endproc
.LFE3385:
	.size	_ZSt13__copy_move_aILb0EN9__gnu_cxx17__normal_iteratorIPKlSt6vectorIlSaIlEEEEPlET1_T0_SA_S9_, .-_ZSt13__copy_move_aILb0EN9__gnu_cxx17__normal_iteratorIPKlSt6vectorIlSaIlEEEEPlET1_T0_SA_S9_
	.section	.text._ZSt8__memcmpIllEiPKT_PKT0_m,"axG",@progbits,_ZSt8__memcmpIllEiPKT_PKT0_m,comdat
	.weak	_ZSt8__memcmpIllEiPKT_PKT0_m
	.type	_ZSt8__memcmpIllEiPKT_PKT0_m, @function
_ZSt8__memcmpIllEiPKT_PKT0_m:
.LFB3386:
	.loc 2 90 5
	.cfi_startproc
	pushq	%rbp	#
	.cfi_def_cfa_offset 16
	.cfi_offset 6, -16
	movq	%rsp, %rbp	#,
	.cfi_def_cfa_register 6
	subq	$32, %rsp	#,
	movq	%rdi, -8(%rbp)	# __first1, __first1
	movq	%rsi, -16(%rbp)	# __first2, __first2
	movq	%rdx, -24(%rbp)	# __num, __num
# /usr/include/c++/12/bits/stl_algobase.h:105: 	return __builtin_memcmp(__first1, __first2, sizeof(_Tp) * __num);
	.loc 2 105 25
	movq	-24(%rbp), %rax	# __num, tmp85
	leaq	0(,%rax,8), %rdx	#, _1
	movq	-16(%rbp), %rcx	# __first2, tmp88
	movq	-8(%rbp), %rax	# __first1, tmp89
	movq	%rcx, %rsi	# tmp88,
	movq	%rax, %rdi	# tmp89,
	call	memcmp@PLT	#
# /usr/include/c++/12/bits/stl_algobase.h:106:     }
	.loc 2 106 5
	leave	
	.cfi_def_cfa 7, 8
	ret	
	.cfi_endproc
.LFE3386:
	.size	_ZSt8__memcmpIllEiPKT_PKT0_m, .-_ZSt8__memcmpIllEiPKT_PKT0_m
	.section	.text._ZSt14__copy_move_a2ILb0EPKlPlET1_T0_S4_S3_,"axG",@progbits,_ZSt14__copy_move_a2ILb0EPKlPlET1_T0_S4_S3_,comdat
	.weak	_ZSt14__copy_move_a2ILb0EPKlPlET1_T0_S4_S3_
	.type	_ZSt14__copy_move_a2ILb0EPKlPlET1_T0_S4_S3_, @function
_ZSt14__copy_move_a2ILb0EPKlPlET1_T0_S4_S3_:
.LFB3387:
	.loc 2 486 5
	.cfi_startproc
	pushq	%rbp	#
	.cfi_def_cfa_offset 16
	.cfi_offset 6, -16
	movq	%rsp, %rbp	#,
	.cfi_def_cfa_register 6
	subq	$32, %rsp	#,
	movq	%rdi, -8(%rbp)	# __first, __first
	movq	%rsi, -16(%rbp)	# __last, __last
	movq	%rdx, -24(%rbp)	# __result, __result
# /usr/include/c++/12/bits/stl_algobase.h:495: 			      _Category>::__copy_m(__first, __last, __result);
	.loc 2 495 30
	movq	-24(%rbp), %rdx	# __result, tmp84
	movq	-16(%rbp), %rcx	# __last, tmp85
	movq	-8(%rbp), %rax	# __first, tmp86
	movq	%rcx, %rsi	# tmp85,
	movq	%rax, %rdi	# tmp86,
	call	_ZNSt11__copy_moveILb0ELb1ESt26random_access_iterator_tagE8__copy_mIlEEPT_PKS3_S6_S4_	#
# /usr/include/c++/12/bits/stl_algobase.h:496:     }
	.loc 2 496 5
	leave	
	.cfi_def_cfa 7, 8
	ret	
	.cfi_endproc
.LFE3387:
	.size	_ZSt14__copy_move_a2ILb0EPKlPlET1_T0_S4_S3_, .-_ZSt14__copy_move_a2ILb0EPKlPlET1_T0_S4_S3_
	.section	.text._ZSt8__fill_aIPddEvT_S1_RKT0_,"axG",@progbits,_ZSt8__fill_aIPddEvT_S1_RKT0_,comdat
	.weak	_ZSt8__fill_aIPddEvT_S1_RKT0_
	.type	_ZSt8__fill_aIPddEvT_S1_RKT0_, @function
_ZSt8__fill_aIPddEvT_S1_RKT0_:
.LFB3388:
	.loc 2 967 5
	.cfi_startproc
	pushq	%rbp	#
	.cfi_def_cfa_offset 16
	.cfi_offset 6, -16
	movq	%rsp, %rbp	#,
	.cfi_def_cfa_register 6
	subq	$32, %rsp	#,
	movq	%rdi, -8(%rbp)	# __first, __first
	movq	%rsi, -16(%rbp)	# __last, __last
	movq	%rdx, -24(%rbp)	# __value, __value
# /usr/include/c++/12/bits/stl_algobase.h:968:     { std::__fill_a1(__first, __last, __value); }
	.loc 2 968 21
	movq	-24(%rbp), %rdx	# __value, tmp82
	movq	-16(%rbp), %rcx	# __last, tmp83
	movq	-8(%rbp), %rax	# __first, tmp84
	movq	%rcx, %rsi	# tmp83,
	movq	%rax, %rdi	# tmp84,
	call	_ZSt9__fill_a1IPddEN9__gnu_cxx11__enable_ifIXsrSt11__is_scalarIT0_E7__valueEvE6__typeET_S8_RKS4_	#
# /usr/include/c++/12/bits/stl_algobase.h:968:     { std::__fill_a1(__first, __last, __value); }
	.loc 2 968 49
	nop	
	leave	
	.cfi_def_cfa 7, 8
	ret	
	.cfi_endproc
.LFE3388:
	.size	_ZSt8__fill_aIPddEvT_S1_RKT0_, .-_ZSt8__fill_aIPddEvT_S1_RKT0_
	.section	.text._ZSt12__niter_baseIPKlSt6vectorIlSaIlEEET_N9__gnu_cxx17__normal_iteratorIS5_T0_EE,"axG",@progbits,_ZSt12__niter_baseIPKlSt6vectorIlSaIlEEET_N9__gnu_cxx17__normal_iteratorIS5_T0_EE,comdat
	.weak	_ZSt12__niter_baseIPKlSt6vectorIlSaIlEEET_N9__gnu_cxx17__normal_iteratorIS5_T0_EE
	.type	_ZSt12__niter_baseIPKlSt6vectorIlSaIlEEET_N9__gnu_cxx17__normal_iteratorIS5_T0_EE, @function
_ZSt12__niter_baseIPKlSt6vectorIlSaIlEEET_N9__gnu_cxx17__normal_iteratorIS5_T0_EE:
.LFB3389:
	.loc 18 1353 5
	.cfi_startproc
	pushq	%rbp	#
	.cfi_def_cfa_offset 16
	.cfi_offset 6, -16
	movq	%rsp, %rbp	#,
	.cfi_def_cfa_register 6
	subq	$16, %rsp	#,
	movq	%rdi, -8(%rbp)	# __it, __it
# /usr/include/c++/12/bits/stl_iterator.h:1355:     { return __it.base(); }
	.loc 18 1355 23
	leaq	-8(%rbp), %rax	#, tmp85
	movq	%rax, %rdi	# tmp85,
	call	_ZNK9__gnu_cxx17__normal_iteratorIPKlSt6vectorIlSaIlEEE4baseEv	#
# /usr/include/c++/12/bits/stl_iterator.h:1355:     { return __it.base(); }
	.loc 18 1355 24
	movq	(%rax), %rax	# *_1, _4
# /usr/include/c++/12/bits/stl_iterator.h:1355:     { return __it.base(); }
	.loc 18 1355 27
	leave	
	.cfi_def_cfa 7, 8
	ret	
	.cfi_endproc
.LFE3389:
	.size	_ZSt12__niter_baseIPKlSt6vectorIlSaIlEEET_N9__gnu_cxx17__normal_iteratorIS5_T0_EE, .-_ZSt12__niter_baseIPKlSt6vectorIlSaIlEEET_N9__gnu_cxx17__normal_iteratorIS5_T0_EE
	.section	.text._ZNSt11__copy_moveILb0ELb1ESt26random_access_iterator_tagE8__copy_mIlEEPT_PKS3_S6_S4_,"axG",@progbits,_ZNSt11__copy_moveILb0ELb1ESt26random_access_iterator_tagE8__copy_mIlEEPT_PKS3_S6_S4_,comdat
	.weak	_ZNSt11__copy_moveILb0ELb1ESt26random_access_iterator_tagE8__copy_mIlEEPT_PKS3_S6_S4_
	.type	_ZNSt11__copy_moveILb0ELb1ESt26random_access_iterator_tagE8__copy_mIlEEPT_PKS3_S6_S4_, @function
_ZNSt11__copy_moveILb0ELb1ESt26random_access_iterator_tagE8__copy_mIlEEPT_PKS3_S6_S4_:
.LFB3390:
	.loc 2 420 2
	.cfi_startproc
	pushq	%rbp	#
	.cfi_def_cfa_offset 16
	.cfi_offset 6, -16
	movq	%rsp, %rbp	#,
	.cfi_def_cfa_register 6
	subq	$48, %rsp	#,
	movq	%rdi, -24(%rbp)	# __first, __first
	movq	%rsi, -32(%rbp)	# __last, __last
	movq	%rdx, -40(%rbp)	# __result, __result
# /usr/include/c++/12/bits/stl_algobase.h:429: 	  const ptrdiff_t _Num = __last - __first;
	.loc 2 429 34
	movq	-32(%rbp), %rax	# __last, tmp89
	subq	-24(%rbp), %rax	# __first, _1
# /usr/include/c++/12/bits/stl_algobase.h:429: 	  const ptrdiff_t _Num = __last - __first;
	.loc 2 429 20
	sarq	$3, %rax	#, tmp90
	movq	%rax, -8(%rbp)	# tmp90, _Num
# /usr/include/c++/12/bits/stl_algobase.h:430: 	  if (_Num)
	.loc 2 430 4
	cmpq	$0, -8(%rbp)	#, _Num
	je	.L446	#,
# /usr/include/c++/12/bits/stl_algobase.h:431: 	    __builtin_memmove(__result, __first, sizeof(_Tp) * _Num);
	.loc 2 431 57
	movq	-8(%rbp), %rax	# _Num, _Num.6_2
# /usr/include/c++/12/bits/stl_algobase.h:431: 	    __builtin_memmove(__result, __first, sizeof(_Tp) * _Num);
	.loc 2 431 23
	leaq	0(,%rax,8), %rdx	#, _3
	movq	-24(%rbp), %rcx	# __first, tmp93
	movq	-40(%rbp), %rax	# __result, tmp94
	movq	%rcx, %rsi	# tmp93,
	movq	%rax, %rdi	# tmp94,
	call	memmove@PLT	#
.L446:
# /usr/include/c++/12/bits/stl_algobase.h:432: 	  return __result + _Num;
	.loc 2 432 22
	movq	-8(%rbp), %rax	# _Num, _Num.7_4
# /usr/include/c++/12/bits/stl_algobase.h:432: 	  return __result + _Num;
	.loc 2 432 20
	leaq	0(,%rax,8), %rdx	#, _5
# /usr/include/c++/12/bits/stl_algobase.h:432: 	  return __result + _Num;
	.loc 2 432 22
	movq	-40(%rbp), %rax	# __result, tmp95
	addq	%rdx, %rax	# _5, _13
# /usr/include/c++/12/bits/stl_algobase.h:433: 	}
	.loc 2 433 2
	leave	
	.cfi_def_cfa 7, 8
	ret	
	.cfi_endproc
.LFE3390:
	.size	_ZNSt11__copy_moveILb0ELb1ESt26random_access_iterator_tagE8__copy_mIlEEPT_PKS3_S6_S4_, .-_ZNSt11__copy_moveILb0ELb1ESt26random_access_iterator_tagE8__copy_mIlEEPT_PKS3_S6_S4_
	.section	.text._ZSt9__fill_a1IPddEN9__gnu_cxx11__enable_ifIXsrSt11__is_scalarIT0_E7__valueEvE6__typeET_S8_RKS4_,"axG",@progbits,_ZSt9__fill_a1IPddEN9__gnu_cxx11__enable_ifIXsrSt11__is_scalarIT0_E7__valueEvE6__typeET_S8_RKS4_,comdat
	.weak	_ZSt9__fill_a1IPddEN9__gnu_cxx11__enable_ifIXsrSt11__is_scalarIT0_E7__valueEvE6__typeET_S8_RKS4_
	.type	_ZSt9__fill_a1IPddEN9__gnu_cxx11__enable_ifIXsrSt11__is_scalarIT0_E7__valueEvE6__typeET_S8_RKS4_, @function
_ZSt9__fill_a1IPddEN9__gnu_cxx11__enable_ifIXsrSt11__is_scalarIT0_E7__valueEvE6__typeET_S8_RKS4_:
.LFB3391:
	.loc 2 917 5
	.cfi_startproc
	pushq	%rbp	#
	.cfi_def_cfa_offset 16
	.cfi_offset 6, -16
	movq	%rsp, %rbp	#,
	.cfi_def_cfa_register 6
	movq	%rdi, -24(%rbp)	# __first, __first
	movq	%rsi, -32(%rbp)	# __last, __last
	movq	%rdx, -40(%rbp)	# __value, __value
# /usr/include/c++/12/bits/stl_algobase.h:920:       const _Tp __tmp = __value;
	.loc 2 920 17
	movq	-40(%rbp), %rax	# __value, tmp82
	movsd	(%rax), %xmm0	# *__value_4(D), tmp83
	movsd	%xmm0, -8(%rbp)	# tmp83, __tmp
# /usr/include/c++/12/bits/stl_algobase.h:921:       for (; __first != __last; ++__first)
	.loc 2 921 7
	jmp	.L449	#
.L450:
# /usr/include/c++/12/bits/stl_algobase.h:922: 	*__first = __tmp;
	.loc 2 922 11 discriminator 2
	movq	-24(%rbp), %rax	# __first, tmp84
	movsd	-8(%rbp), %xmm0	# __tmp, tmp85
	movsd	%xmm0, (%rax)	# tmp85, *__first_1
# /usr/include/c++/12/bits/stl_algobase.h:921:       for (; __first != __last; ++__first)
	.loc 2 921 7 discriminator 2
	addq	$8, -24(%rbp)	#, __first
.L449:
# /usr/include/c++/12/bits/stl_algobase.h:921:       for (; __first != __last; ++__first)
	.loc 2 921 22 discriminator 1
	movq	-24(%rbp), %rax	# __first, tmp86
	cmpq	-32(%rbp), %rax	# __last, tmp86
	jne	.L450	#,
# /usr/include/c++/12/bits/stl_algobase.h:923:     }
	.loc 2 923 5
	nop	
	nop	
	popq	%rbp	#
	.cfi_def_cfa 7, 8
	ret	
	.cfi_endproc
.LFE3391:
	.size	_ZSt9__fill_a1IPddEN9__gnu_cxx11__enable_ifIXsrSt11__is_scalarIT0_E7__valueEvE6__typeET_S8_RKS4_, .-_ZSt9__fill_a1IPddEN9__gnu_cxx11__enable_ifIXsrSt11__is_scalarIT0_E7__valueEvE6__typeET_S8_RKS4_
	.section	.text._ZNK9__gnu_cxx17__normal_iteratorIPKlSt6vectorIlSaIlEEE4baseEv,"axG",@progbits,_ZNK9__gnu_cxx17__normal_iteratorIPKlSt6vectorIlSaIlEEE4baseEv,comdat
	.align 2
	.weak	_ZNK9__gnu_cxx17__normal_iteratorIPKlSt6vectorIlSaIlEEE4baseEv
	.type	_ZNK9__gnu_cxx17__normal_iteratorIPKlSt6vectorIlSaIlEEE4baseEv, @function
_ZNK9__gnu_cxx17__normal_iteratorIPKlSt6vectorIlSaIlEEE4baseEv:
.LFB3392:
	.loc 18 1158 7
	.cfi_startproc
	pushq	%rbp	#
	.cfi_def_cfa_offset 16
	.cfi_offset 6, -16
	movq	%rsp, %rbp	#,
	.cfi_def_cfa_register 6
	movq	%rdi, -8(%rbp)	# this, this
# /usr/include/c++/12/bits/stl_iterator.h:1159:       { return _M_current; }
	.loc 18 1159 16
	movq	-8(%rbp), %rax	# this, _2
# /usr/include/c++/12/bits/stl_iterator.h:1159:       { return _M_current; }
	.loc 18 1159 28
	popq	%rbp	#
	.cfi_def_cfa 7, 8
	ret	
	.cfi_endproc
.LFE3392:
	.size	_ZNK9__gnu_cxx17__normal_iteratorIPKlSt6vectorIlSaIlEEE4baseEv, .-_ZNK9__gnu_cxx17__normal_iteratorIPKlSt6vectorIlSaIlEEE4baseEv
	.text
	.type	_Z41__static_initialization_and_destruction_0ii, @function
_Z41__static_initialization_and_destruction_0ii:
.LFB3393:
	.loc 6 21 1
	.cfi_startproc
	pushq	%rbp	#
	.cfi_def_cfa_offset 16
	.cfi_offset 6, -16
	movq	%rsp, %rbp	#,
	.cfi_def_cfa_register 6
	subq	$16, %rsp	#,
	movl	%edi, -4(%rbp)	# __initialize_p, __initialize_p
	movl	%esi, -8(%rbp)	# __priority, __priority
# Application.cpp:21: }
	.loc 6 21 1
	cmpl	$1, -4(%rbp)	#, __initialize_p
	jne	.L455	#,
# Application.cpp:21: }
	.loc 6 21 1 is_stmt 0 discriminator 1
	cmpl	$65535, -8(%rbp)	#, __priority
	jne	.L455	#,
# /usr/include/c++/12/iostream:74:   static ios_base::Init __ioinit;
	.file 22 "/usr/include/c++/12/iostream"
	.loc 22 74 25 is_stmt 1
	leaq	_ZStL8__ioinit(%rip), %rax	#, tmp82
	movq	%rax, %rdi	# tmp82,
	call	_ZNSt8ios_base4InitC1Ev@PLT	#
	leaq	__dso_handle(%rip), %rax	#, tmp83
	movq	%rax, %rdx	# tmp83,
	leaq	_ZStL8__ioinit(%rip), %rax	#, tmp84
	movq	%rax, %rsi	# tmp84,
	movq	_ZNSt8ios_base4InitD1Ev@GOTPCREL(%rip), %rax	#, tmp86
	movq	%rax, %rdi	# tmp85,
	call	__cxa_atexit@PLT	#
.L455:
# Application.cpp:21: }
	.loc 6 21 1
	nop	
	leave	
	.cfi_def_cfa 7, 8
	ret	
	.cfi_endproc
.LFE3393:
	.size	_Z41__static_initialization_and_destruction_0ii, .-_Z41__static_initialization_and_destruction_0ii
	.type	_GLOBAL__sub_I__ZN9container7details11index_checkEll, @function
_GLOBAL__sub_I__ZN9container7details11index_checkEll:
.LFB3394:
	.loc 6 21 1
	.cfi_startproc
	pushq	%rbp	#
	.cfi_def_cfa_offset 16
	.cfi_offset 6, -16
	movq	%rsp, %rbp	#,
	.cfi_def_cfa_register 6
# Application.cpp:21: }
	.loc 6 21 1
	movl	$65535, %esi	#,
	movl	$1, %edi	#,
	call	_Z41__static_initialization_and_destruction_0ii	#
	popq	%rbp	#
	.cfi_def_cfa 7, 8
	ret	
	.cfi_endproc
.LFE3394:
	.size	_GLOBAL__sub_I__ZN9container7details11index_checkEll, .-_GLOBAL__sub_I__ZN9container7details11index_checkEll
	.section	.init_array,"aw"
	.align 8
	.quad	_GLOBAL__sub_I__ZN9container7details11index_checkEll
	.section	.rodata
	.align 8
.LC1:
	.long	0
	.long	1079558144
	.text
.Letext0:
	.file 23 "<built-in>"
	.file 24 "/usr/lib/gcc/x86_64-linux-gnu/12/include/stddef.h"
	.file 25 "/usr/include/x86_64-linux-gnu/bits/types/wint_t.h"
	.file 26 "/usr/include/x86_64-linux-gnu/bits/types/__mbstate_t.h"
	.file 27 "/usr/include/x86_64-linux-gnu/bits/types/mbstate_t.h"
	.file 28 "/usr/include/x86_64-linux-gnu/bits/types/__FILE.h"
	.file 29 "/usr/include/x86_64-linux-gnu/bits/types/struct_FILE.h"
	.file 30 "/usr/include/x86_64-linux-gnu/bits/types/FILE.h"
	.file 31 "/usr/include/c++/12/cwchar"
	.file 32 "/usr/include/x86_64-linux-gnu/c++/12/bits/c++config.h"
	.file 33 "/usr/include/c++/12/bits/exception_ptr.h"
	.file 34 "/usr/include/c++/12/bits/char_traits.h"
	.file 35 "/usr/include/c++/12/cstdint"
	.file 36 "/usr/include/c++/12/clocale"
	.file 37 "/usr/include/c++/12/debug/debug.h"
	.file 38 "/usr/include/c++/12/cstdlib"
	.file 39 "/usr/include/c++/12/cstdio"
	.file 40 "/usr/include/c++/12/bits/ios_base.h"
	.file 41 "/usr/include/c++/12/cwctype"
	.file 42 "/usr/include/c++/12/ostream"
	.file 43 "/usr/include/c++/12/iosfwd"
	.file 44 "/usr/include/c++/12/bits/functexcept.h"
	.file 45 "/usr/include/c++/12/stdexcept"
	.file 46 "/usr/include/wchar.h"
	.file 47 "/usr/include/x86_64-linux-gnu/bits/types/struct_tm.h"
	.file 48 "/usr/include/c++/12/bits/predefined_ops.h"
	.file 49 "/usr/include/x86_64-linux-gnu/bits/types.h"
	.file 50 "/usr/include/x86_64-linux-gnu/bits/stdint-intn.h"
	.file 51 "/usr/include/x86_64-linux-gnu/bits/stdint-uintn.h"
	.file 52 "/usr/include/stdint.h"
	.file 53 "/usr/include/locale.h"
	.file 54 "/usr/include/stdlib.h"
	.file 55 "/usr/include/x86_64-linux-gnu/sys/types.h"
	.file 56 "/usr/include/x86_64-linux-gnu/bits/types/__fpos_t.h"
	.file 57 "/usr/include/stdio.h"
	.file 58 "/usr/include/x86_64-linux-gnu/bits/wctype-wchar.h"
	.file 59 "/usr/include/wctype.h"
	.file 60 "/usr/include/c++/12/pstl/execution_defs.h"
	.file 61 "/usr/include/c++/12/system_error"
	.section	.debug_info,"",@progbits
.Ldebug_info0:
	.long	0xaed5
	.value	0x5
	.byte	0x1
	.byte	0x8
	.long	.Ldebug_abbrev0
	.uleb128 0x7c
	.long	.LASF1257
	.byte	0x21
	.long	.LASF0
	.long	.LASF1
	.long	.LLRL2
	.quad	0
	.long	.Ldebug_line0
	.uleb128 0x27
	.byte	0x20
	.byte	0x3
	.long	.LASF2
	.uleb128 0x27
	.byte	0x10
	.byte	0x4
	.long	.LASF3
	.uleb128 0x27
	.byte	0x4
	.byte	0x4
	.long	.LASF4
	.uleb128 0x27
	.byte	0x8
	.byte	0x4
	.long	.LASF5
	.uleb128 0x8
	.long	0x3f
	.uleb128 0x27
	.byte	0x10
	.byte	0x4
	.long	.LASF6
	.uleb128 0x9
	.long	.LASF13
	.byte	0x18
	.byte	0xd6
	.byte	0x17
	.long	0x5e
	.uleb128 0x27
	.byte	0x8
	.byte	0x7
	.long	.LASF7
	.uleb128 0x8
	.long	0x5e
	.uleb128 0x7d
	.long	.LASF1258
	.byte	0x18
	.byte	0x17
	.byte	0
	.long	0x9f
	.uleb128 0x46
	.long	.LASF8
	.long	0x9f
	.byte	0
	.uleb128 0x46
	.long	.LASF9
	.long	0x9f
	.byte	0x4
	.uleb128 0x46
	.long	.LASF10
	.long	0xa6
	.byte	0x8
	.uleb128 0x46
	.long	.LASF11
	.long	0xa6
	.byte	0x10
	.byte	0
	.uleb128 0x27
	.byte	0x4
	.byte	0x7
	.long	.LASF12
	.uleb128 0x7e
	.byte	0x8
	.uleb128 0x9
	.long	.LASF14
	.byte	0x19
	.byte	0x14
	.byte	0x17
	.long	0x9f
	.uleb128 0x47
	.byte	0x8
	.byte	0x1a
	.byte	0xe
	.byte	0x1
	.long	.LASF961
	.long	0xfc
	.uleb128 0x7f
	.byte	0x4
	.byte	0x1a
	.byte	0x11
	.byte	0x3
	.long	0xe1
	.uleb128 0x59
	.long	.LASF15
	.byte	0x12
	.byte	0x13
	.long	0x9f
	.uleb128 0x59
	.long	.LASF16
	.byte	0x13
	.byte	0xa
	.long	0xfc
	.byte	0
	.uleb128 0xa
	.long	.LASF17
	.byte	0x1a
	.byte	0xf
	.byte	0x7
	.long	0x118
	.byte	0
	.uleb128 0xa
	.long	.LASF18
	.byte	0x1a
	.byte	0x14
	.byte	0x5
	.long	0xc1
	.byte	0x4
	.byte	0
	.uleb128 0x52
	.long	0x10c
	.long	0x10c
	.uleb128 0x53
	.long	0x5e
	.byte	0x3
	.byte	0
	.uleb128 0x27
	.byte	0x1
	.byte	0x6
	.long	.LASF19
	.uleb128 0x8
	.long	0x10c
	.uleb128 0x80
	.byte	0x4
	.byte	0x5
	.string	"int"
	.uleb128 0x8
	.long	0x118
	.uleb128 0x9
	.long	.LASF20
	.byte	0x1a
	.byte	0x15
	.byte	0x3
	.long	0xb4
	.uleb128 0x9
	.long	.LASF21
	.byte	0x1b
	.byte	0x6
	.byte	0x15
	.long	0x125
	.uleb128 0x8
	.long	0x131
	.uleb128 0x9
	.long	.LASF22
	.byte	0x1c
	.byte	0x5
	.byte	0x19
	.long	0x14e
	.uleb128 0x1f
	.long	.LASF54
	.byte	0xd8
	.byte	0x1d
	.byte	0x31
	.byte	0x8
	.long	0x2d5
	.uleb128 0xa
	.long	.LASF23
	.byte	0x1d
	.byte	0x33
	.byte	0x7
	.long	0x118
	.byte	0
	.uleb128 0xa
	.long	.LASF24
	.byte	0x1d
	.byte	0x36
	.byte	0x9
	.long	0x4994
	.byte	0x8
	.uleb128 0xa
	.long	.LASF25
	.byte	0x1d
	.byte	0x37
	.byte	0x9
	.long	0x4994
	.byte	0x10
	.uleb128 0xa
	.long	.LASF26
	.byte	0x1d
	.byte	0x38
	.byte	0x9
	.long	0x4994
	.byte	0x18
	.uleb128 0xa
	.long	.LASF27
	.byte	0x1d
	.byte	0x39
	.byte	0x9
	.long	0x4994
	.byte	0x20
	.uleb128 0xa
	.long	.LASF28
	.byte	0x1d
	.byte	0x3a
	.byte	0x9
	.long	0x4994
	.byte	0x28
	.uleb128 0xa
	.long	.LASF29
	.byte	0x1d
	.byte	0x3b
	.byte	0x9
	.long	0x4994
	.byte	0x30
	.uleb128 0xa
	.long	.LASF30
	.byte	0x1d
	.byte	0x3c
	.byte	0x9
	.long	0x4994
	.byte	0x38
	.uleb128 0xa
	.long	.LASF31
	.byte	0x1d
	.byte	0x3d
	.byte	0x9
	.long	0x4994
	.byte	0x40
	.uleb128 0xa
	.long	.LASF32
	.byte	0x1d
	.byte	0x40
	.byte	0x9
	.long	0x4994
	.byte	0x48
	.uleb128 0xa
	.long	.LASF33
	.byte	0x1d
	.byte	0x41
	.byte	0x9
	.long	0x4994
	.byte	0x50
	.uleb128 0xa
	.long	.LASF34
	.byte	0x1d
	.byte	0x42
	.byte	0x9
	.long	0x4994
	.byte	0x58
	.uleb128 0xa
	.long	.LASF35
	.byte	0x1d
	.byte	0x44
	.byte	0x16
	.long	0x637d
	.byte	0x60
	.uleb128 0xa
	.long	.LASF36
	.byte	0x1d
	.byte	0x46
	.byte	0x14
	.long	0x6382
	.byte	0x68
	.uleb128 0xa
	.long	.LASF37
	.byte	0x1d
	.byte	0x48
	.byte	0x7
	.long	0x118
	.byte	0x70
	.uleb128 0xa
	.long	.LASF38
	.byte	0x1d
	.byte	0x49
	.byte	0x7
	.long	0x118
	.byte	0x74
	.uleb128 0xa
	.long	.LASF39
	.byte	0x1d
	.byte	0x4a
	.byte	0xb
	.long	0x5c58
	.byte	0x78
	.uleb128 0xa
	.long	.LASF40
	.byte	0x1d
	.byte	0x4d
	.byte	0x12
	.long	0x2e1
	.byte	0x80
	.uleb128 0xa
	.long	.LASF41
	.byte	0x1d
	.byte	0x4e
	.byte	0xf
	.long	0x5b28
	.byte	0x82
	.uleb128 0xa
	.long	.LASF42
	.byte	0x1d
	.byte	0x4f
	.byte	0x8
	.long	0x6387
	.byte	0x83
	.uleb128 0xa
	.long	.LASF43
	.byte	0x1d
	.byte	0x51
	.byte	0xf
	.long	0x6397
	.byte	0x88
	.uleb128 0xa
	.long	.LASF44
	.byte	0x1d
	.byte	0x59
	.byte	0xd
	.long	0x5c64
	.byte	0x90
	.uleb128 0xa
	.long	.LASF45
	.byte	0x1d
	.byte	0x5b
	.byte	0x17
	.long	0x63a1
	.byte	0x98
	.uleb128 0xa
	.long	.LASF46
	.byte	0x1d
	.byte	0x5c
	.byte	0x19
	.long	0x63ab
	.byte	0xa0
	.uleb128 0xa
	.long	.LASF47
	.byte	0x1d
	.byte	0x5d
	.byte	0x14
	.long	0x6382
	.byte	0xa8
	.uleb128 0xa
	.long	.LASF48
	.byte	0x1d
	.byte	0x5e
	.byte	0x9
	.long	0xa6
	.byte	0xb0
	.uleb128 0xa
	.long	.LASF49
	.byte	0x1d
	.byte	0x5f
	.byte	0xa
	.long	0x52
	.byte	0xb8
	.uleb128 0xa
	.long	.LASF50
	.byte	0x1d
	.byte	0x60
	.byte	0x7
	.long	0x118
	.byte	0xc0
	.uleb128 0xa
	.long	.LASF51
	.byte	0x1d
	.byte	0x62
	.byte	0x8
	.long	0x63b0
	.byte	0xc4
	.byte	0
	.uleb128 0x9
	.long	.LASF52
	.byte	0x1e
	.byte	0x7
	.byte	0x19
	.long	0x14e
	.uleb128 0x27
	.byte	0x2
	.byte	0x7
	.long	.LASF53
	.uleb128 0xb
	.long	0x113
	.uleb128 0x81
	.string	"std"
	.byte	0x20
	.value	0x128
	.byte	0xb
	.long	0x465c
	.uleb128 0x3
	.byte	0x1f
	.byte	0x40
	.byte	0xb
	.long	0x131
	.uleb128 0x3
	.byte	0x1f
	.byte	0x8d
	.byte	0xb
	.long	0xa8
	.uleb128 0x3
	.byte	0x1f
	.byte	0x8f
	.byte	0xb
	.long	0x465c
	.uleb128 0x3
	.byte	0x1f
	.byte	0x90
	.byte	0xb
	.long	0x4673
	.uleb128 0x3
	.byte	0x1f
	.byte	0x91
	.byte	0xb
	.long	0x468f
	.uleb128 0x3
	.byte	0x1f
	.byte	0x92
	.byte	0xb
	.long	0x46c1
	.uleb128 0x3
	.byte	0x1f
	.byte	0x93
	.byte	0xb
	.long	0x46dd
	.uleb128 0x3
	.byte	0x1f
	.byte	0x94
	.byte	0xb
	.long	0x46fe
	.uleb128 0x3
	.byte	0x1f
	.byte	0x95
	.byte	0xb
	.long	0x471a
	.uleb128 0x3
	.byte	0x1f
	.byte	0x96
	.byte	0xb
	.long	0x4737
	.uleb128 0x3
	.byte	0x1f
	.byte	0x97
	.byte	0xb
	.long	0x4758
	.uleb128 0x3
	.byte	0x1f
	.byte	0x98
	.byte	0xb
	.long	0x476f
	.uleb128 0x3
	.byte	0x1f
	.byte	0x99
	.byte	0xb
	.long	0x477c
	.uleb128 0x3
	.byte	0x1f
	.byte	0x9a
	.byte	0xb
	.long	0x47a2
	.uleb128 0x3
	.byte	0x1f
	.byte	0x9b
	.byte	0xb
	.long	0x47c8
	.uleb128 0x3
	.byte	0x1f
	.byte	0x9c
	.byte	0xb
	.long	0x47e4
	.uleb128 0x3
	.byte	0x1f
	.byte	0x9d
	.byte	0xb
	.long	0x480f
	.uleb128 0x3
	.byte	0x1f
	.byte	0x9e
	.byte	0xb
	.long	0x482b
	.uleb128 0x3
	.byte	0x1f
	.byte	0xa0
	.byte	0xb
	.long	0x4842
	.uleb128 0x3
	.byte	0x1f
	.byte	0xa2
	.byte	0xb
	.long	0x4864
	.uleb128 0x3
	.byte	0x1f
	.byte	0xa3
	.byte	0xb
	.long	0x4885
	.uleb128 0x3
	.byte	0x1f
	.byte	0xa4
	.byte	0xb
	.long	0x48a1
	.uleb128 0x3
	.byte	0x1f
	.byte	0xa6
	.byte	0xb
	.long	0x48c7
	.uleb128 0x3
	.byte	0x1f
	.byte	0xa9
	.byte	0xb
	.long	0x48ec
	.uleb128 0x3
	.byte	0x1f
	.byte	0xac
	.byte	0xb
	.long	0x4912
	.uleb128 0x3
	.byte	0x1f
	.byte	0xae
	.byte	0xb
	.long	0x4937
	.uleb128 0x3
	.byte	0x1f
	.byte	0xb0
	.byte	0xb
	.long	0x4953
	.uleb128 0x3
	.byte	0x1f
	.byte	0xb2
	.byte	0xb
	.long	0x4973
	.uleb128 0x3
	.byte	0x1f
	.byte	0xb3
	.byte	0xb
	.long	0x4999
	.uleb128 0x3
	.byte	0x1f
	.byte	0xb4
	.byte	0xb
	.long	0x49b4
	.uleb128 0x3
	.byte	0x1f
	.byte	0xb5
	.byte	0xb
	.long	0x49cf
	.uleb128 0x3
	.byte	0x1f
	.byte	0xb6
	.byte	0xb
	.long	0x49ea
	.uleb128 0x3
	.byte	0x1f
	.byte	0xb7
	.byte	0xb
	.long	0x4a05
	.uleb128 0x3
	.byte	0x1f
	.byte	0xb8
	.byte	0xb
	.long	0x4a20
	.uleb128 0x3
	.byte	0x1f
	.byte	0xb9
	.byte	0xb
	.long	0x4aed
	.uleb128 0x3
	.byte	0x1f
	.byte	0xba
	.byte	0xb
	.long	0x4b03
	.uleb128 0x3
	.byte	0x1f
	.byte	0xbb
	.byte	0xb
	.long	0x4b23
	.uleb128 0x3
	.byte	0x1f
	.byte	0xbc
	.byte	0xb
	.long	0x4b43
	.uleb128 0x3
	.byte	0x1f
	.byte	0xbd
	.byte	0xb
	.long	0x4b63
	.uleb128 0x3
	.byte	0x1f
	.byte	0xbe
	.byte	0xb
	.long	0x4b8e
	.uleb128 0x3
	.byte	0x1f
	.byte	0xbf
	.byte	0xb
	.long	0x4ba9
	.uleb128 0x3
	.byte	0x1f
	.byte	0xc1
	.byte	0xb
	.long	0x4bca
	.uleb128 0x3
	.byte	0x1f
	.byte	0xc3
	.byte	0xb
	.long	0x4be6
	.uleb128 0x3
	.byte	0x1f
	.byte	0xc4
	.byte	0xb
	.long	0x4c06
	.uleb128 0x3
	.byte	0x1f
	.byte	0xc5
	.byte	0xb
	.long	0x4c33
	.uleb128 0x3
	.byte	0x1f
	.byte	0xc6
	.byte	0xb
	.long	0x4c54
	.uleb128 0x3
	.byte	0x1f
	.byte	0xc7
	.byte	0xb
	.long	0x4c74
	.uleb128 0x3
	.byte	0x1f
	.byte	0xc8
	.byte	0xb
	.long	0x4c8b
	.uleb128 0x3
	.byte	0x1f
	.byte	0xc9
	.byte	0xb
	.long	0x4cac
	.uleb128 0x3
	.byte	0x1f
	.byte	0xca
	.byte	0xb
	.long	0x4ccd
	.uleb128 0x3
	.byte	0x1f
	.byte	0xcb
	.byte	0xb
	.long	0x4cee
	.uleb128 0x3
	.byte	0x1f
	.byte	0xcc
	.byte	0xb
	.long	0x4d0f
	.uleb128 0x3
	.byte	0x1f
	.byte	0xcd
	.byte	0xb
	.long	0x4d27
	.uleb128 0x3
	.byte	0x1f
	.byte	0xce
	.byte	0xb
	.long	0x4d43
	.uleb128 0x3
	.byte	0x1f
	.byte	0xce
	.byte	0xb
	.long	0x4d62
	.uleb128 0x3
	.byte	0x1f
	.byte	0xcf
	.byte	0xb
	.long	0x4d81
	.uleb128 0x3
	.byte	0x1f
	.byte	0xcf
	.byte	0xb
	.long	0x4da0
	.uleb128 0x3
	.byte	0x1f
	.byte	0xd0
	.byte	0xb
	.long	0x4dbf
	.uleb128 0x3
	.byte	0x1f
	.byte	0xd0
	.byte	0xb
	.long	0x4dde
	.uleb128 0x3
	.byte	0x1f
	.byte	0xd1
	.byte	0xb
	.long	0x4dfd
	.uleb128 0x3
	.byte	0x1f
	.byte	0xd1
	.byte	0xb
	.long	0x4e1c
	.uleb128 0x3
	.byte	0x1f
	.byte	0xd2
	.byte	0xb
	.long	0x4e3b
	.uleb128 0x3
	.byte	0x1f
	.byte	0xd2
	.byte	0xb
	.long	0x4e5f
	.uleb128 0x21
	.byte	0x1f
	.value	0x10b
	.byte	0x16
	.long	0x5a95
	.uleb128 0x21
	.byte	0x1f
	.value	0x10c
	.byte	0x16
	.long	0x5ab1
	.uleb128 0x21
	.byte	0x1f
	.value	0x10d
	.byte	0x16
	.long	0x5ad9
	.uleb128 0x21
	.byte	0x1f
	.value	0x11b
	.byte	0xe
	.long	0x4bca
	.uleb128 0x21
	.byte	0x1f
	.value	0x11e
	.byte	0xe
	.long	0x48c7
	.uleb128 0x21
	.byte	0x1f
	.value	0x121
	.byte	0xe
	.long	0x4912
	.uleb128 0x21
	.byte	0x1f
	.value	0x124
	.byte	0xe
	.long	0x4953
	.uleb128 0x21
	.byte	0x1f
	.value	0x128
	.byte	0xe
	.long	0x5a95
	.uleb128 0x21
	.byte	0x1f
	.value	0x129
	.byte	0xe
	.long	0x5ab1
	.uleb128 0x21
	.byte	0x1f
	.value	0x12a
	.byte	0xe
	.long	0x5ad9
	.uleb128 0x82
	.long	.LASF1259
	.byte	0x7
	.byte	0x8
	.long	0x5e
	.byte	0x1
	.byte	0x59
	.byte	0xe
	.uleb128 0x1e
	.long	.LASF13
	.byte	0x20
	.value	0x12a
	.byte	0x1a
	.long	0x5e
	.uleb128 0x8
	.long	0x55c
	.uleb128 0x1f
	.long	.LASF55
	.byte	0x1
	.byte	0x3
	.byte	0x3e
	.byte	0xc
	.long	0x5d7
	.uleb128 0x9
	.long	.LASF56
	.byte	0x3
	.byte	0x41
	.byte	0x2d
	.long	0x5b06
	.uleb128 0x3c
	.long	.LASF57
	.byte	0x3
	.byte	0x43
	.byte	0x11
	.long	.LASF59
	.long	0x57b
	.long	0x59f
	.long	0x5a5
	.uleb128 0x2
	.long	0x5b12
	.byte	0
	.uleb128 0x3c
	.long	.LASF58
	.byte	0x3
	.byte	0x48
	.byte	0x1c
	.long	.LASF60
	.long	0x57b
	.long	0x5bd
	.long	0x5c3
	.uleb128 0x2
	.long	0x5b12
	.byte	0
	.uleb128 0x7
	.string	"_Tp"
	.long	0x5b06
	.uleb128 0x5a
	.string	"__v"
	.long	0x5b06
	.byte	0
	.byte	0
	.uleb128 0x8
	.long	0x56e
	.uleb128 0x1f
	.long	.LASF61
	.byte	0x1
	.byte	0x3
	.byte	0x3e
	.byte	0xc
	.long	0x645
	.uleb128 0x9
	.long	.LASF56
	.byte	0x3
	.byte	0x41
	.byte	0x2d
	.long	0x5b06
	.uleb128 0x3c
	.long	.LASF62
	.byte	0x3
	.byte	0x43
	.byte	0x11
	.long	.LASF63
	.long	0x5e9
	.long	0x60d
	.long	0x613
	.uleb128 0x2
	.long	0x5b17
	.byte	0
	.uleb128 0x3c
	.long	.LASF58
	.byte	0x3
	.byte	0x48
	.byte	0x1c
	.long	.LASF64
	.long	0x5e9
	.long	0x62b
	.long	0x631
	.uleb128 0x2
	.long	0x5b17
	.byte	0
	.uleb128 0x7
	.string	"_Tp"
	.long	0x5b06
	.uleb128 0x5a
	.string	"__v"
	.long	0x5b06
	.byte	0x1
	.byte	0
	.uleb128 0x8
	.long	0x5dc
	.uleb128 0x9
	.long	.LASF65
	.byte	0x3
	.byte	0x55
	.byte	0x9
	.long	0x56e
	.uleb128 0x5b
	.long	.LASF66
	.value	0xa9f
	.uleb128 0x5b
	.long	.LASF67
	.value	0xaf5
	.uleb128 0x48
	.long	.LASF68
	.byte	0x21
	.byte	0x3f
	.byte	0xd
	.long	0x844
	.uleb128 0x2e
	.long	.LASF70
	.byte	0x8
	.byte	0x21
	.byte	0x5a
	.byte	0xb
	.long	0x836
	.uleb128 0xa
	.long	.LASF69
	.byte	0x21
	.byte	0x5c
	.byte	0xd
	.long	0xa6
	.byte	0
	.uleb128 0x83
	.long	.LASF70
	.byte	0x21
	.byte	0x5e
	.byte	0x10
	.long	.LASF71
	.long	0x69f
	.long	0x6aa
	.uleb128 0x2
	.long	0x5b44
	.uleb128 0x1
	.long	0xa6
	.byte	0
	.uleb128 0x22
	.long	.LASF72
	.byte	0x21
	.byte	0x60
	.byte	0xc
	.long	.LASF74
	.long	0x6be
	.long	0x6c4
	.uleb128 0x2
	.long	0x5b44
	.byte	0
	.uleb128 0x22
	.long	.LASF73
	.byte	0x21
	.byte	0x61
	.byte	0xc
	.long	.LASF75
	.long	0x6d8
	.long	0x6de
	.uleb128 0x2
	.long	0x5b44
	.byte	0
	.uleb128 0x3c
	.long	.LASF76
	.byte	0x21
	.byte	0x63
	.byte	0xd
	.long	.LASF77
	.long	0xa6
	.long	0x6f6
	.long	0x6fc
	.uleb128 0x2
	.long	0x5b49
	.byte	0
	.uleb128 0x20
	.long	.LASF70
	.byte	0x21
	.byte	0x6b
	.byte	0x7
	.long	.LASF78
	.long	0x710
	.long	0x716
	.uleb128 0x2
	.long	0x5b44
	.byte	0
	.uleb128 0x20
	.long	.LASF70
	.byte	0x21
	.byte	0x6d
	.byte	0x7
	.long	.LASF79
	.long	0x72a
	.long	0x735
	.uleb128 0x2
	.long	0x5b44
	.uleb128 0x1
	.long	0x5b4e
	.byte	0
	.uleb128 0x20
	.long	.LASF70
	.byte	0x21
	.byte	0x70
	.byte	0x7
	.long	.LASF80
	.long	0x749
	.long	0x754
	.uleb128 0x2
	.long	0x5b44
	.uleb128 0x1
	.long	0x862
	.byte	0
	.uleb128 0x20
	.long	.LASF70
	.byte	0x21
	.byte	0x74
	.byte	0x7
	.long	.LASF81
	.long	0x768
	.long	0x773
	.uleb128 0x2
	.long	0x5b44
	.uleb128 0x1
	.long	0x5b53
	.byte	0
	.uleb128 0x17
	.long	.LASF82
	.byte	0x21
	.byte	0x81
	.byte	0x7
	.long	.LASF83
	.long	0x5b58
	.byte	0x1
	.long	0x78c
	.long	0x797
	.uleb128 0x2
	.long	0x5b44
	.uleb128 0x1
	.long	0x5b4e
	.byte	0
	.uleb128 0x17
	.long	.LASF82
	.byte	0x21
	.byte	0x85
	.byte	0x7
	.long	.LASF84
	.long	0x5b58
	.byte	0x1
	.long	0x7b0
	.long	0x7bb
	.uleb128 0x2
	.long	0x5b44
	.uleb128 0x1
	.long	0x5b53
	.byte	0
	.uleb128 0x20
	.long	.LASF85
	.byte	0x21
	.byte	0x8c
	.byte	0x7
	.long	.LASF86
	.long	0x7cf
	.long	0x7da
	.uleb128 0x2
	.long	0x5b44
	.uleb128 0x2
	.long	0x118
	.byte	0
	.uleb128 0x20
	.long	.LASF87
	.byte	0x21
	.byte	0x8f
	.byte	0x7
	.long	.LASF88
	.long	0x7ee
	.long	0x7f9
	.uleb128 0x2
	.long	0x5b44
	.uleb128 0x1
	.long	0x5b58
	.byte	0
	.uleb128 0x84
	.long	.LASF184
	.byte	0x21
	.byte	0x9b
	.byte	0x10
	.long	.LASF185
	.long	0x5b06
	.byte	0x1
	.long	0x813
	.long	0x819
	.uleb128 0x2
	.long	0x5b49
	.byte	0
	.uleb128 0x85
	.long	.LASF89
	.byte	0x21
	.byte	0xb0
	.byte	0x7
	.long	.LASF90
	.long	0x5b5d
	.byte	0x1
	.long	0x82f
	.uleb128 0x2
	.long	0x5b49
	.byte	0
	.byte	0
	.uleb128 0x8
	.long	0x670
	.uleb128 0x3
	.byte	0x21
	.byte	0x54
	.byte	0x10
	.long	0x84c
	.byte	0
	.uleb128 0x3
	.byte	0x21
	.byte	0x44
	.byte	0x1a
	.long	0x670
	.uleb128 0x5c
	.long	.LASF91
	.byte	0x21
	.byte	0x50
	.byte	0x8
	.long	.LASF92
	.long	0x862
	.uleb128 0x1
	.long	0x670
	.byte	0
	.uleb128 0x1e
	.long	.LASF93
	.byte	0x20
	.value	0x12e
	.byte	0x1d
	.long	0x5b01
	.uleb128 0x3e
	.long	.LASF386
	.uleb128 0x8
	.long	0x86f
	.uleb128 0x32
	.long	.LASF94
	.byte	0x22
	.value	0x14f
	.long	0xa60
	.uleb128 0x37
	.long	.LASF108
	.byte	0x22
	.value	0x15b
	.byte	0x7
	.long	.LASF194
	.long	0x8a1
	.uleb128 0x1
	.long	0x5b62
	.uleb128 0x1
	.long	0x5b67
	.byte	0
	.uleb128 0x1e
	.long	.LASF95
	.byte	0x22
	.value	0x151
	.byte	0x21
	.long	0x10c
	.uleb128 0x8
	.long	0x8a1
	.uleb128 0x5d
	.string	"eq"
	.value	0x166
	.long	.LASF96
	.long	0x5b06
	.long	0x8d0
	.uleb128 0x1
	.long	0x5b67
	.uleb128 0x1
	.long	0x5b67
	.byte	0
	.uleb128 0x5d
	.string	"lt"
	.value	0x16a
	.long	.LASF97
	.long	0x5b06
	.long	0x8ed
	.uleb128 0x1
	.long	0x5b67
	.uleb128 0x1
	.long	0x5b67
	.byte	0
	.uleb128 0xc
	.long	.LASF98
	.byte	0x22
	.value	0x172
	.byte	0x7
	.long	.LASF100
	.long	0x118
	.long	0x912
	.uleb128 0x1
	.long	0x5b6c
	.uleb128 0x1
	.long	0x5b6c
	.uleb128 0x1
	.long	0x55c
	.byte	0
	.uleb128 0xc
	.long	.LASF99
	.byte	0x22
	.value	0x185
	.byte	0x7
	.long	.LASF101
	.long	0x55c
	.long	0x92d
	.uleb128 0x1
	.long	0x5b6c
	.byte	0
	.uleb128 0xc
	.long	.LASF102
	.byte	0x22
	.value	0x18f
	.byte	0x7
	.long	.LASF103
	.long	0x5b6c
	.long	0x952
	.uleb128 0x1
	.long	0x5b6c
	.uleb128 0x1
	.long	0x55c
	.uleb128 0x1
	.long	0x5b67
	.byte	0
	.uleb128 0xc
	.long	.LASF104
	.byte	0x22
	.value	0x19b
	.byte	0x7
	.long	.LASF105
	.long	0x5b71
	.long	0x977
	.uleb128 0x1
	.long	0x5b71
	.uleb128 0x1
	.long	0x5b6c
	.uleb128 0x1
	.long	0x55c
	.byte	0
	.uleb128 0xc
	.long	.LASF106
	.byte	0x22
	.value	0x1a7
	.byte	0x7
	.long	.LASF107
	.long	0x5b71
	.long	0x99c
	.uleb128 0x1
	.long	0x5b71
	.uleb128 0x1
	.long	0x5b6c
	.uleb128 0x1
	.long	0x55c
	.byte	0
	.uleb128 0xc
	.long	.LASF108
	.byte	0x22
	.value	0x1b3
	.byte	0x7
	.long	.LASF109
	.long	0x5b71
	.long	0x9c1
	.uleb128 0x1
	.long	0x5b71
	.uleb128 0x1
	.long	0x55c
	.uleb128 0x1
	.long	0x8a1
	.byte	0
	.uleb128 0xc
	.long	.LASF110
	.byte	0x22
	.value	0x1bf
	.byte	0x7
	.long	.LASF111
	.long	0x8a1
	.long	0x9dc
	.uleb128 0x1
	.long	0x5b76
	.byte	0
	.uleb128 0x1e
	.long	.LASF112
	.byte	0x22
	.value	0x152
	.byte	0x21
	.long	0x118
	.uleb128 0x8
	.long	0x9dc
	.uleb128 0xc
	.long	.LASF113
	.byte	0x22
	.value	0x1c5
	.byte	0x7
	.long	.LASF114
	.long	0x9dc
	.long	0xa09
	.uleb128 0x1
	.long	0x5b67
	.byte	0
	.uleb128 0xc
	.long	.LASF115
	.byte	0x22
	.value	0x1c9
	.byte	0x7
	.long	.LASF116
	.long	0x5b06
	.long	0xa29
	.uleb128 0x1
	.long	0x5b76
	.uleb128 0x1
	.long	0x5b76
	.byte	0
	.uleb128 0x86
	.string	"eof"
	.byte	0x22
	.value	0x1cd
	.byte	0x7
	.long	.LASF1260
	.long	0x9dc
	.uleb128 0xc
	.long	.LASF117
	.byte	0x22
	.value	0x1d1
	.byte	0x7
	.long	.LASF118
	.long	0x9dc
	.long	0xa56
	.uleb128 0x1
	.long	0x5b76
	.byte	0
	.uleb128 0x4
	.long	.LASF119
	.long	0x10c
	.byte	0
	.uleb128 0x3
	.byte	0x23
	.byte	0x2f
	.byte	0xb
	.long	0x5c7c
	.uleb128 0x3
	.byte	0x23
	.byte	0x30
	.byte	0xb
	.long	0x5c88
	.uleb128 0x3
	.byte	0x23
	.byte	0x31
	.byte	0xb
	.long	0x5c94
	.uleb128 0x3
	.byte	0x23
	.byte	0x32
	.byte	0xb
	.long	0x5ca0
	.uleb128 0x3
	.byte	0x23
	.byte	0x34
	.byte	0xb
	.long	0x5d3c
	.uleb128 0x3
	.byte	0x23
	.byte	0x35
	.byte	0xb
	.long	0x5d48
	.uleb128 0x3
	.byte	0x23
	.byte	0x36
	.byte	0xb
	.long	0x5d54
	.uleb128 0x3
	.byte	0x23
	.byte	0x37
	.byte	0xb
	.long	0x5d60
	.uleb128 0x3
	.byte	0x23
	.byte	0x39
	.byte	0xb
	.long	0x5cdc
	.uleb128 0x3
	.byte	0x23
	.byte	0x3a
	.byte	0xb
	.long	0x5ce8
	.uleb128 0x3
	.byte	0x23
	.byte	0x3b
	.byte	0xb
	.long	0x5cf4
	.uleb128 0x3
	.byte	0x23
	.byte	0x3c
	.byte	0xb
	.long	0x5d00
	.uleb128 0x3
	.byte	0x23
	.byte	0x3e
	.byte	0xb
	.long	0x5db4
	.uleb128 0x3
	.byte	0x23
	.byte	0x3f
	.byte	0xb
	.long	0x5d9c
	.uleb128 0x3
	.byte	0x23
	.byte	0x41
	.byte	0xb
	.long	0x5cac
	.uleb128 0x3
	.byte	0x23
	.byte	0x42
	.byte	0xb
	.long	0x5cb8
	.uleb128 0x3
	.byte	0x23
	.byte	0x43
	.byte	0xb
	.long	0x5cc4
	.uleb128 0x3
	.byte	0x23
	.byte	0x44
	.byte	0xb
	.long	0x5cd0
	.uleb128 0x3
	.byte	0x23
	.byte	0x46
	.byte	0xb
	.long	0x5d6c
	.uleb128 0x3
	.byte	0x23
	.byte	0x47
	.byte	0xb
	.long	0x5d78
	.uleb128 0x3
	.byte	0x23
	.byte	0x48
	.byte	0xb
	.long	0x5d84
	.uleb128 0x3
	.byte	0x23
	.byte	0x49
	.byte	0xb
	.long	0x5d90
	.uleb128 0x3
	.byte	0x23
	.byte	0x4b
	.byte	0xb
	.long	0x5d0c
	.uleb128 0x3
	.byte	0x23
	.byte	0x4c
	.byte	0xb
	.long	0x5d18
	.uleb128 0x3
	.byte	0x23
	.byte	0x4d
	.byte	0xb
	.long	0x5d24
	.uleb128 0x3
	.byte	0x23
	.byte	0x4e
	.byte	0xb
	.long	0x5d30
	.uleb128 0x3
	.byte	0x23
	.byte	0x50
	.byte	0xb
	.long	0x5dc0
	.uleb128 0x3
	.byte	0x23
	.byte	0x51
	.byte	0xb
	.long	0x5da8
	.uleb128 0x3
	.byte	0x24
	.byte	0x35
	.byte	0xb
	.long	0x5dcc
	.uleb128 0x3
	.byte	0x24
	.byte	0x36
	.byte	0xb
	.long	0x5f12
	.uleb128 0x3
	.byte	0x24
	.byte	0x37
	.byte	0xb
	.long	0x5f2d
	.uleb128 0x1e
	.long	.LASF120
	.byte	0x20
	.value	0x12b
	.byte	0x1c
	.long	0x4c27
	.uleb128 0x8
	.long	0xb58
	.uleb128 0x9
	.long	.LASF121
	.byte	0x3
	.byte	0x52
	.byte	0x9
	.long	0x5dc
	.uleb128 0x87
	.long	.LASF1261
	.byte	0x1
	.byte	0x10
	.byte	0x5d
	.byte	0xa
	.uleb128 0x1f
	.long	.LASF122
	.byte	0x1
	.byte	0x10
	.byte	0x63
	.byte	0xa
	.long	0xb93
	.uleb128 0x34
	.long	0xb76
	.byte	0
	.uleb128 0x1f
	.long	.LASF123
	.byte	0x1
	.byte	0x10
	.byte	0x67
	.byte	0xa
	.long	0xba6
	.uleb128 0x34
	.long	0xb80
	.byte	0
	.uleb128 0x1f
	.long	.LASF124
	.byte	0x1
	.byte	0x10
	.byte	0x6b
	.byte	0xa
	.long	0xbb9
	.uleb128 0x34
	.long	0xb93
	.byte	0
	.uleb128 0x5e
	.long	.LASF125
	.byte	0x25
	.byte	0x32
	.byte	0xd
	.uleb128 0x32
	.long	.LASF126
	.byte	0x2
	.value	0x490
	.long	0xc06
	.uleb128 0xc
	.long	.LASF127
	.byte	0x2
	.value	0x495
	.byte	0x2
	.long	.LASF128
	.long	0x5b06
	.long	0xbfb
	.uleb128 0x7
	.string	"_Tp"
	.long	0x4c27
	.uleb128 0x1
	.long	0x6876
	.uleb128 0x1
	.long	0x6876
	.uleb128 0x1
	.long	0x6876
	.byte	0
	.uleb128 0x2a
	.long	.LASF129
	.long	0x5b06
	.byte	0x1
	.byte	0
	.uleb128 0x1f
	.long	.LASF130
	.byte	0x1
	.byte	0xe
	.byte	0xa8
	.byte	0xc
	.long	0xc59
	.uleb128 0x3d
	.long	.LASF131
	.byte	0xe
	.byte	0xac
	.byte	0x9
	.long	.LASF210
	.long	0xc37
	.uleb128 0x4
	.long	.LASF132
	.long	0x685d
	.uleb128 0x1
	.long	0x685d
	.uleb128 0x1
	.long	0x685d
	.byte	0
	.uleb128 0x88
	.long	.LASF982
	.byte	0xe
	.byte	0xac
	.byte	0x9
	.long	.LASF1262
	.uleb128 0x4
	.long	.LASF132
	.long	0x705a
	.uleb128 0x1
	.long	0x705a
	.uleb128 0x1
	.long	0x705a
	.byte	0
	.byte	0
	.uleb128 0x3
	.byte	0x26
	.byte	0x7f
	.byte	0xb
	.long	0x5f92
	.uleb128 0x3
	.byte	0x26
	.byte	0x80
	.byte	0xb
	.long	0x5fc5
	.uleb128 0x3
	.byte	0x26
	.byte	0x86
	.byte	0xb
	.long	0x6037
	.uleb128 0x3
	.byte	0x26
	.byte	0x89
	.byte	0xb
	.long	0x6055
	.uleb128 0x3
	.byte	0x26
	.byte	0x8c
	.byte	0xb
	.long	0x6070
	.uleb128 0x3
	.byte	0x26
	.byte	0x8d
	.byte	0xb
	.long	0x6086
	.uleb128 0x3
	.byte	0x26
	.byte	0x8e
	.byte	0xb
	.long	0x609c
	.uleb128 0x3
	.byte	0x26
	.byte	0x8f
	.byte	0xb
	.long	0x60b2
	.uleb128 0x3
	.byte	0x26
	.byte	0x91
	.byte	0xb
	.long	0x60dd
	.uleb128 0x3
	.byte	0x26
	.byte	0x94
	.byte	0xb
	.long	0x60fa
	.uleb128 0x3
	.byte	0x26
	.byte	0x96
	.byte	0xb
	.long	0x6111
	.uleb128 0x3
	.byte	0x26
	.byte	0x99
	.byte	0xb
	.long	0x612d
	.uleb128 0x3
	.byte	0x26
	.byte	0x9a
	.byte	0xb
	.long	0x6149
	.uleb128 0x3
	.byte	0x26
	.byte	0x9b
	.byte	0xb
	.long	0x616a
	.uleb128 0x3
	.byte	0x26
	.byte	0x9d
	.byte	0xb
	.long	0x618b
	.uleb128 0x3
	.byte	0x26
	.byte	0xa0
	.byte	0xb
	.long	0x61ac
	.uleb128 0x3
	.byte	0x26
	.byte	0xa3
	.byte	0xb
	.long	0x61c0
	.uleb128 0x3
	.byte	0x26
	.byte	0xa5
	.byte	0xb
	.long	0x61cd
	.uleb128 0x3
	.byte	0x26
	.byte	0xa6
	.byte	0xb
	.long	0x61df
	.uleb128 0x3
	.byte	0x26
	.byte	0xa7
	.byte	0xb
	.long	0x61ff
	.uleb128 0x3
	.byte	0x26
	.byte	0xa8
	.byte	0xb
	.long	0x621f
	.uleb128 0x3
	.byte	0x26
	.byte	0xa9
	.byte	0xb
	.long	0x623f
	.uleb128 0x3
	.byte	0x26
	.byte	0xab
	.byte	0xb
	.long	0x6256
	.uleb128 0x3
	.byte	0x26
	.byte	0xac
	.byte	0xb
	.long	0x6277
	.uleb128 0x3
	.byte	0x26
	.byte	0xf0
	.byte	0x16
	.long	0x5ff8
	.uleb128 0x3
	.byte	0x26
	.byte	0xf5
	.byte	0x16
	.long	0x4eeb
	.uleb128 0x3
	.byte	0x26
	.byte	0xf6
	.byte	0x16
	.long	0x6293
	.uleb128 0x3
	.byte	0x26
	.byte	0xf8
	.byte	0x16
	.long	0x62af
	.uleb128 0x3
	.byte	0x26
	.byte	0xf9
	.byte	0x16
	.long	0x6305
	.uleb128 0x3
	.byte	0x26
	.byte	0xfa
	.byte	0x16
	.long	0x62c5
	.uleb128 0x3
	.byte	0x26
	.byte	0xfb
	.byte	0x16
	.long	0x62e5
	.uleb128 0x3
	.byte	0x26
	.byte	0xfc
	.byte	0x16
	.long	0x6320
	.uleb128 0x3
	.byte	0x27
	.byte	0x62
	.byte	0xb
	.long	0x2d5
	.uleb128 0x3
	.byte	0x27
	.byte	0x63
	.byte	0xb
	.long	0x63c0
	.uleb128 0x3
	.byte	0x27
	.byte	0x65
	.byte	0xb
	.long	0x63d6
	.uleb128 0x3
	.byte	0x27
	.byte	0x66
	.byte	0xb
	.long	0x63e8
	.uleb128 0x3
	.byte	0x27
	.byte	0x67
	.byte	0xb
	.long	0x63fe
	.uleb128 0x3
	.byte	0x27
	.byte	0x68
	.byte	0xb
	.long	0x6415
	.uleb128 0x3
	.byte	0x27
	.byte	0x69
	.byte	0xb
	.long	0x642c
	.uleb128 0x3
	.byte	0x27
	.byte	0x6a
	.byte	0xb
	.long	0x6442
	.uleb128 0x3
	.byte	0x27
	.byte	0x6b
	.byte	0xb
	.long	0x6459
	.uleb128 0x3
	.byte	0x27
	.byte	0x6c
	.byte	0xb
	.long	0x647a
	.uleb128 0x3
	.byte	0x27
	.byte	0x6d
	.byte	0xb
	.long	0x649b
	.uleb128 0x3
	.byte	0x27
	.byte	0x71
	.byte	0xb
	.long	0x64b7
	.uleb128 0x3
	.byte	0x27
	.byte	0x72
	.byte	0xb
	.long	0x64dd
	.uleb128 0x3
	.byte	0x27
	.byte	0x74
	.byte	0xb
	.long	0x64fe
	.uleb128 0x3
	.byte	0x27
	.byte	0x75
	.byte	0xb
	.long	0x651f
	.uleb128 0x3
	.byte	0x27
	.byte	0x76
	.byte	0xb
	.long	0x6540
	.uleb128 0x3
	.byte	0x27
	.byte	0x78
	.byte	0xb
	.long	0x6557
	.uleb128 0x3
	.byte	0x27
	.byte	0x79
	.byte	0xb
	.long	0x656e
	.uleb128 0x3
	.byte	0x27
	.byte	0x7e
	.byte	0xb
	.long	0x657b
	.uleb128 0x3
	.byte	0x27
	.byte	0x83
	.byte	0xb
	.long	0x658d
	.uleb128 0x3
	.byte	0x27
	.byte	0x84
	.byte	0xb
	.long	0x65a3
	.uleb128 0x3
	.byte	0x27
	.byte	0x85
	.byte	0xb
	.long	0x65be
	.uleb128 0x3
	.byte	0x27
	.byte	0x87
	.byte	0xb
	.long	0x65d0
	.uleb128 0x3
	.byte	0x27
	.byte	0x88
	.byte	0xb
	.long	0x65e7
	.uleb128 0x3
	.byte	0x27
	.byte	0x8b
	.byte	0xb
	.long	0x660d
	.uleb128 0x3
	.byte	0x27
	.byte	0x8d
	.byte	0xb
	.long	0x6619
	.uleb128 0x3
	.byte	0x27
	.byte	0x8f
	.byte	0xb
	.long	0x662f
	.uleb128 0x89
	.long	.LASF133
	.byte	0x20
	.value	0x14b
	.byte	0x41
	.uleb128 0x8a
	.string	"_V2"
	.byte	0x3d
	.byte	0x50
	.byte	0x14
	.uleb128 0x54
	.long	.LASF140
	.long	0xedd
	.uleb128 0x8b
	.long	.LASF134
	.byte	0x1
	.byte	0x28
	.value	0x27b
	.byte	0xb
	.byte	0x1
	.long	0xed7
	.uleb128 0x5f
	.long	.LASF134
	.value	0x27f
	.long	.LASF136
	.long	0xe70
	.long	0xe76
	.uleb128 0x2
	.long	0x664b
	.byte	0
	.uleb128 0x5f
	.long	.LASF135
	.value	0x280
	.long	.LASF137
	.long	0xe89
	.long	0xe94
	.uleb128 0x2
	.long	0x664b
	.uleb128 0x2
	.long	0x118
	.byte	0
	.uleb128 0x44
	.long	.LASF134
	.byte	0x28
	.value	0x283
	.long	.LASF138
	.long	0xea8
	.long	0xeb3
	.uleb128 0x2
	.long	0x664b
	.uleb128 0x1
	.long	0x6655
	.byte	0
	.uleb128 0x8c
	.long	.LASF82
	.byte	0x28
	.value	0x284
	.byte	0xd
	.long	.LASF139
	.long	0x665a
	.byte	0x1
	.byte	0x1
	.long	0xecb
	.uleb128 0x2
	.long	0x664b
	.uleb128 0x1
	.long	0x6655
	.byte	0
	.byte	0
	.uleb128 0x8
	.long	0xe4d
	.byte	0
	.uleb128 0x3
	.byte	0x29
	.byte	0x52
	.byte	0xb
	.long	0x666b
	.uleb128 0x3
	.byte	0x29
	.byte	0x53
	.byte	0xb
	.long	0x665f
	.uleb128 0x3
	.byte	0x29
	.byte	0x54
	.byte	0xb
	.long	0xa8
	.uleb128 0x3
	.byte	0x29
	.byte	0x5c
	.byte	0xb
	.long	0x667c
	.uleb128 0x3
	.byte	0x29
	.byte	0x65
	.byte	0xb
	.long	0x6697
	.uleb128 0x3
	.byte	0x29
	.byte	0x68
	.byte	0xb
	.long	0x66b2
	.uleb128 0x3
	.byte	0x29
	.byte	0x69
	.byte	0xb
	.long	0x66c8
	.uleb128 0x54
	.long	.LASF141
	.long	0xf61
	.uleb128 0x2c
	.long	.LASF163
	.byte	0x2a
	.byte	0x47
	.byte	0x2f
	.long	0xf15
	.uleb128 0x17
	.long	.LASF142
	.byte	0x2a
	.byte	0xa6
	.byte	0x7
	.long	.LASF143
	.long	0xa7e1
	.byte	0x1
	.long	0xf43
	.long	0xf4e
	.uleb128 0x2
	.long	0xa7e6
	.uleb128 0x1
	.long	0x4c27
	.byte	0
	.uleb128 0x4
	.long	.LASF119
	.long	0x10c
	.uleb128 0x60
	.long	.LASF376
	.long	0x879
	.byte	0
	.uleb128 0x9
	.long	.LASF144
	.byte	0x2b
	.byte	0x8d
	.byte	0x21
	.long	0xf15
	.uleb128 0x8d
	.long	.LASF1058
	.byte	0x16
	.byte	0x3d
	.byte	0x12
	.long	.LASF1263
	.long	0xf61
	.uleb128 0x8e
	.long	.LASF1147
	.byte	0x16
	.byte	0x4a
	.byte	0x19
	.long	0xe4d
	.uleb128 0x1f
	.long	.LASF145
	.byte	0x1
	.byte	0x11
	.byte	0x8d
	.byte	0xc
	.long	0x100f
	.uleb128 0x1c
	.long	.LASF146
	.byte	0x11
	.byte	0x91
	.byte	0x9
	.long	.LASF147
	.long	0x685d
	.long	0xfce
	.uleb128 0x4
	.long	.LASF148
	.long	0x525a
	.uleb128 0x4
	.long	.LASF132
	.long	0x685d
	.uleb128 0x1
	.long	0x525a
	.uleb128 0x1
	.long	0x525a
	.uleb128 0x1
	.long	0x685d
	.byte	0
	.uleb128 0x1c
	.long	.LASF149
	.byte	0x11
	.byte	0x91
	.byte	0x9
	.long	.LASF150
	.long	0x685d
	.long	0x1004
	.uleb128 0x4
	.long	.LASF148
	.long	0x6876
	.uleb128 0x4
	.long	.LASF132
	.long	0x685d
	.uleb128 0x1
	.long	0x6876
	.uleb128 0x1
	.long	0x6876
	.uleb128 0x1
	.long	0x685d
	.byte	0
	.uleb128 0x2a
	.long	.LASF151
	.long	0x5b06
	.byte	0x1
	.byte	0
	.uleb128 0x32
	.long	.LASF152
	.byte	0x11
	.value	0x28a
	.long	0x1058
	.uleb128 0xc
	.long	.LASF153
	.byte	0x11
	.value	0x28f
	.byte	0x9
	.long	.LASF154
	.long	0x705a
	.long	0x104d
	.uleb128 0x4
	.long	.LASF132
	.long	0x705a
	.uleb128 0x4
	.long	.LASF155
	.long	0x5e
	.uleb128 0x1
	.long	0x705a
	.uleb128 0x1
	.long	0x5e
	.byte	0
	.uleb128 0x2a
	.long	.LASF156
	.long	0x5b06
	.byte	0x1
	.byte	0
	.uleb128 0x2e
	.long	.LASF157
	.byte	0x1
	.byte	0xa
	.byte	0x38
	.byte	0xb
	.long	0x11d5
	.uleb128 0x20
	.long	.LASF158
	.byte	0xa
	.byte	0x50
	.byte	0x7
	.long	.LASF159
	.long	0x1079
	.long	0x107f
	.uleb128 0x2
	.long	0x684e
	.byte	0
	.uleb128 0x20
	.long	.LASF158
	.byte	0xa
	.byte	0x53
	.byte	0x7
	.long	.LASF160
	.long	0x1093
	.long	0x109e
	.uleb128 0x2
	.long	0x684e
	.uleb128 0x1
	.long	0x6858
	.byte	0
	.uleb128 0x20
	.long	.LASF161
	.byte	0xa
	.byte	0x5a
	.byte	0x7
	.long	.LASF162
	.long	0x10b2
	.long	0x10bd
	.uleb128 0x2
	.long	0x684e
	.uleb128 0x2
	.long	0x118
	.byte	0
	.uleb128 0x2c
	.long	.LASF164
	.byte	0xa
	.byte	0x3f
	.byte	0x1a
	.long	0x685d
	.uleb128 0x17
	.long	.LASF165
	.byte	0xa
	.byte	0x5d
	.byte	0x7
	.long	.LASF166
	.long	0x10bd
	.byte	0x1
	.long	0x10e2
	.long	0x10ed
	.uleb128 0x2
	.long	0x6867
	.uleb128 0x1
	.long	0x10ed
	.byte	0
	.uleb128 0x2c
	.long	.LASF167
	.byte	0xa
	.byte	0x41
	.byte	0x1a
	.long	0x6871
	.uleb128 0x2c
	.long	.LASF168
	.byte	0xa
	.byte	0x40
	.byte	0x1a
	.long	0x6876
	.uleb128 0x17
	.long	.LASF165
	.byte	0xa
	.byte	0x61
	.byte	0x7
	.long	.LASF169
	.long	0x10f9
	.byte	0x1
	.long	0x111e
	.long	0x1129
	.uleb128 0x2
	.long	0x6867
	.uleb128 0x1
	.long	0x1129
	.byte	0
	.uleb128 0x2c
	.long	.LASF170
	.byte	0xa
	.byte	0x42
	.byte	0x1a
	.long	0x6880
	.uleb128 0x17
	.long	.LASF171
	.byte	0xa
	.byte	0x70
	.byte	0x7
	.long	.LASF172
	.long	0x685d
	.byte	0x1
	.long	0x114e
	.long	0x115e
	.uleb128 0x2
	.long	0x684e
	.uleb128 0x1
	.long	0x115e
	.uleb128 0x1
	.long	0x5f4f
	.byte	0
	.uleb128 0x2c
	.long	.LASF173
	.byte	0xa
	.byte	0x3c
	.byte	0x1f
	.long	0x55c
	.uleb128 0x20
	.long	.LASF174
	.byte	0xa
	.byte	0x8e
	.byte	0x7
	.long	.LASF175
	.long	0x117e
	.long	0x118e
	.uleb128 0x2
	.long	0x684e
	.uleb128 0x1
	.long	0x685d
	.uleb128 0x1
	.long	0x115e
	.byte	0
	.uleb128 0x17
	.long	.LASF176
	.byte	0xa
	.byte	0xa7
	.byte	0x7
	.long	.LASF177
	.long	0x115e
	.byte	0x1
	.long	0x11a7
	.long	0x11ad
	.uleb128 0x2
	.long	0x6867
	.byte	0
	.uleb128 0x3c
	.long	.LASF178
	.byte	0xa
	.byte	0xd2
	.byte	0x7
	.long	.LASF179
	.long	0x115e
	.long	0x11c5
	.long	0x11cb
	.uleb128 0x2
	.long	0x6867
	.byte	0
	.uleb128 0x7
	.string	"_Tp"
	.long	0x4c27
	.byte	0
	.uleb128 0x8
	.long	0x1058
	.uleb128 0x2e
	.long	.LASF180
	.byte	0x1
	.byte	0x8
	.byte	0x7c
	.byte	0xb
	.long	0x1263
	.uleb128 0x49
	.long	0x1058
	.byte	0x1
	.uleb128 0x20
	.long	.LASF181
	.byte	0x8
	.byte	0x9c
	.byte	0x7
	.long	.LASF182
	.long	0x1201
	.long	0x1207
	.uleb128 0x2
	.long	0x6885
	.byte	0
	.uleb128 0x20
	.long	.LASF181
	.byte	0x8
	.byte	0x9f
	.byte	0x7
	.long	.LASF183
	.long	0x121b
	.long	0x1226
	.uleb128 0x2
	.long	0x6885
	.uleb128 0x1
	.long	0x688f
	.byte	0
	.uleb128 0x38
	.long	.LASF82
	.byte	0x8
	.byte	0xa4
	.byte	0x12
	.long	.LASF186
	.long	0x6894
	.long	0x123e
	.long	0x1249
	.uleb128 0x2
	.long	0x6885
	.uleb128 0x1
	.long	0x688f
	.byte	0
	.uleb128 0x61
	.long	.LASF187
	.byte	0xae
	.long	.LASF188
	.long	0x1257
	.uleb128 0x2
	.long	0x6885
	.uleb128 0x2
	.long	0x118
	.byte	0
	.byte	0
	.uleb128 0x8
	.long	0x11da
	.uleb128 0x32
	.long	.LASF189
	.byte	0x9
	.value	0x19b
	.long	0x1364
	.uleb128 0x1e
	.long	.LASF164
	.byte	0x9
	.value	0x1a4
	.byte	0xd
	.long	0x685d
	.uleb128 0xc
	.long	.LASF171
	.byte	0x9
	.value	0x1cf
	.byte	0x7
	.long	.LASF190
	.long	0x1274
	.long	0x12a1
	.uleb128 0x1
	.long	0x6899
	.uleb128 0x1
	.long	0x12b3
	.byte	0
	.uleb128 0x1e
	.long	.LASF191
	.byte	0x9
	.value	0x19e
	.byte	0xd
	.long	0x11da
	.uleb128 0x8
	.long	0x12a1
	.uleb128 0x1e
	.long	.LASF173
	.byte	0x9
	.value	0x1b3
	.byte	0xd
	.long	0x55c
	.uleb128 0xc
	.long	.LASF171
	.byte	0x9
	.value	0x1dd
	.byte	0x7
	.long	.LASF192
	.long	0x1274
	.long	0x12e5
	.uleb128 0x1
	.long	0x6899
	.uleb128 0x1
	.long	0x12b3
	.uleb128 0x1
	.long	0x12e5
	.byte	0
	.uleb128 0x1e
	.long	.LASF193
	.byte	0x9
	.value	0x1ad
	.byte	0xd
	.long	0x5f4f
	.uleb128 0x37
	.long	.LASF174
	.byte	0x9
	.value	0x1ef
	.byte	0x7
	.long	.LASF195
	.long	0x1313
	.uleb128 0x1
	.long	0x6899
	.uleb128 0x1
	.long	0x1274
	.uleb128 0x1
	.long	0x12b3
	.byte	0
	.uleb128 0xc
	.long	.LASF176
	.byte	0x9
	.value	0x223
	.byte	0x7
	.long	.LASF196
	.long	0x12b3
	.long	0x132e
	.uleb128 0x1
	.long	0x689e
	.byte	0
	.uleb128 0xc
	.long	.LASF197
	.byte	0x9
	.value	0x232
	.byte	0x7
	.long	.LASF198
	.long	0x12a1
	.long	0x1349
	.uleb128 0x1
	.long	0x689e
	.byte	0
	.uleb128 0x1e
	.long	.LASF56
	.byte	0x9
	.value	0x1a1
	.byte	0xd
	.long	0x4c27
	.uleb128 0x1e
	.long	.LASF199
	.byte	0x9
	.value	0x1c2
	.byte	0x8
	.long	0x11da
	.byte	0
	.uleb128 0x1f
	.long	.LASF200
	.byte	0x18
	.byte	0x7
	.byte	0x55
	.byte	0xc
	.long	0x1707
	.uleb128 0x1f
	.long	.LASF201
	.byte	0x18
	.byte	0x7
	.byte	0x5c
	.byte	0xe
	.long	0x1417
	.uleb128 0xa
	.long	.LASF202
	.byte	0x7
	.byte	0x5e
	.byte	0xa
	.long	0x141c
	.byte	0
	.uleb128 0xa
	.long	.LASF203
	.byte	0x7
	.byte	0x5f
	.byte	0xa
	.long	0x141c
	.byte	0x8
	.uleb128 0xa
	.long	.LASF204
	.byte	0x7
	.byte	0x60
	.byte	0xa
	.long	0x141c
	.byte	0x10
	.uleb128 0x22
	.long	.LASF201
	.byte	0x7
	.byte	0x63
	.byte	0x2
	.long	.LASF205
	.long	0x13b9
	.long	0x13bf
	.uleb128 0x2
	.long	0x68ad
	.byte	0
	.uleb128 0x22
	.long	.LASF201
	.byte	0x7
	.byte	0x69
	.byte	0x2
	.long	.LASF206
	.long	0x13d3
	.long	0x13de
	.uleb128 0x2
	.long	0x68ad
	.uleb128 0x1
	.long	0x68b7
	.byte	0
	.uleb128 0x22
	.long	.LASF207
	.byte	0x7
	.byte	0x71
	.byte	0x2
	.long	.LASF208
	.long	0x13f2
	.long	0x13fd
	.uleb128 0x2
	.long	0x68ad
	.uleb128 0x1
	.long	0x68bc
	.byte	0
	.uleb128 0x62
	.long	.LASF209
	.byte	0x7a
	.long	.LASF211
	.long	0x140b
	.uleb128 0x2
	.long	0x68ad
	.uleb128 0x1
	.long	0x68c1
	.byte	0
	.byte	0
	.uleb128 0x8
	.long	0x1371
	.uleb128 0x9
	.long	.LASF164
	.byte	0x7
	.byte	0x5a
	.byte	0x9
	.long	0x4fc9
	.uleb128 0x1f
	.long	.LASF212
	.byte	0x18
	.byte	0x7
	.byte	0x85
	.byte	0xe
	.long	0x14f3
	.uleb128 0x34
	.long	0x11da
	.uleb128 0x34
	.long	0x1371
	.uleb128 0x22
	.long	.LASF212
	.byte	0x7
	.byte	0x89
	.byte	0x2
	.long	.LASF213
	.long	0x1453
	.long	0x1459
	.uleb128 0x2
	.long	0x68c6
	.byte	0
	.uleb128 0x22
	.long	.LASF212
	.byte	0x7
	.byte	0x8f
	.byte	0x2
	.long	.LASF214
	.long	0x146d
	.long	0x1478
	.uleb128 0x2
	.long	0x68c6
	.uleb128 0x1
	.long	0x68d0
	.byte	0
	.uleb128 0x22
	.long	.LASF212
	.byte	0x7
	.byte	0x97
	.byte	0x2
	.long	.LASF215
	.long	0x148c
	.long	0x1497
	.uleb128 0x2
	.long	0x68c6
	.uleb128 0x1
	.long	0x68d5
	.byte	0
	.uleb128 0x22
	.long	.LASF212
	.byte	0x7
	.byte	0x9c
	.byte	0x2
	.long	.LASF216
	.long	0x14ab
	.long	0x14b6
	.uleb128 0x2
	.long	0x68c6
	.uleb128 0x1
	.long	0x68da
	.byte	0
	.uleb128 0x22
	.long	.LASF212
	.byte	0x7
	.byte	0xa1
	.byte	0x2
	.long	.LASF217
	.long	0x14ca
	.long	0x14da
	.uleb128 0x2
	.long	0x68c6
	.uleb128 0x1
	.long	0x68da
	.uleb128 0x1
	.long	0x68d5
	.byte	0
	.uleb128 0x63
	.long	.LASF420
	.long	.LASF421
	.long	0x14e7
	.uleb128 0x2
	.long	0x68c6
	.uleb128 0x2
	.long	0x118
	.byte	0
	.byte	0
	.uleb128 0x9
	.long	.LASF218
	.byte	0x7
	.byte	0x58
	.byte	0x15
	.long	0x4ffa
	.uleb128 0x8
	.long	0x14f3
	.uleb128 0x39
	.long	.LASF219
	.value	0x12a
	.long	.LASF220
	.long	0x68df
	.long	0x151b
	.long	0x1521
	.uleb128 0x2
	.long	0x68e4
	.byte	0
	.uleb128 0x39
	.long	.LASF219
	.value	0x12f
	.long	.LASF221
	.long	0x68d0
	.long	0x1538
	.long	0x153e
	.uleb128 0x2
	.long	0x68ee
	.byte	0
	.uleb128 0x1e
	.long	.LASF191
	.byte	0x7
	.value	0x126
	.byte	0x16
	.long	0x11da
	.uleb128 0x8
	.long	0x153e
	.uleb128 0x39
	.long	.LASF222
	.value	0x134
	.long	.LASF223
	.long	0x153e
	.long	0x1567
	.long	0x156d
	.uleb128 0x2
	.long	0x68ee
	.byte	0
	.uleb128 0x4a
	.long	.LASF224
	.value	0x138
	.long	.LASF225
	.long	0x1580
	.long	0x1586
	.uleb128 0x2
	.long	0x68e4
	.byte	0
	.uleb128 0x23
	.long	.LASF224
	.value	0x13e
	.long	.LASF226
	.long	0x1599
	.long	0x15a4
	.uleb128 0x2
	.long	0x68e4
	.uleb128 0x1
	.long	0x68f8
	.byte	0
	.uleb128 0x23
	.long	.LASF224
	.value	0x144
	.long	.LASF227
	.long	0x15b7
	.long	0x15c2
	.uleb128 0x2
	.long	0x68e4
	.uleb128 0x1
	.long	0x55c
	.byte	0
	.uleb128 0x23
	.long	.LASF224
	.value	0x14a
	.long	.LASF228
	.long	0x15d5
	.long	0x15e5
	.uleb128 0x2
	.long	0x68e4
	.uleb128 0x1
	.long	0x55c
	.uleb128 0x1
	.long	0x68f8
	.byte	0
	.uleb128 0x4a
	.long	.LASF224
	.value	0x14f
	.long	.LASF229
	.long	0x15f8
	.long	0x1603
	.uleb128 0x2
	.long	0x68e4
	.uleb128 0x1
	.long	0x68fd
	.byte	0
	.uleb128 0x23
	.long	.LASF224
	.value	0x154
	.long	.LASF230
	.long	0x1616
	.long	0x1621
	.uleb128 0x2
	.long	0x68e4
	.uleb128 0x1
	.long	0x68da
	.byte	0
	.uleb128 0x23
	.long	.LASF224
	.value	0x158
	.long	.LASF231
	.long	0x1634
	.long	0x1644
	.uleb128 0x2
	.long	0x68e4
	.uleb128 0x1
	.long	0x68fd
	.uleb128 0x1
	.long	0x68f8
	.byte	0
	.uleb128 0x23
	.long	.LASF224
	.value	0x166
	.long	.LASF232
	.long	0x1657
	.long	0x1667
	.uleb128 0x2
	.long	0x68e4
	.uleb128 0x1
	.long	0x68f8
	.uleb128 0x1
	.long	0x68fd
	.byte	0
	.uleb128 0x23
	.long	.LASF233
	.value	0x16c
	.long	.LASF234
	.long	0x167a
	.long	0x1685
	.uleb128 0x2
	.long	0x68e4
	.uleb128 0x2
	.long	0x118
	.byte	0
	.uleb128 0x64
	.long	.LASF235
	.long	0x1428
	.uleb128 0x39
	.long	.LASF236
	.value	0x177
	.long	.LASF237
	.long	0x141c
	.long	0x16a5
	.long	0x16b0
	.uleb128 0x2
	.long	0x68e4
	.uleb128 0x1
	.long	0x55c
	.byte	0
	.uleb128 0x23
	.long	.LASF238
	.value	0x17f
	.long	.LASF239
	.long	0x16c3
	.long	0x16d3
	.uleb128 0x2
	.long	0x68e4
	.uleb128 0x1
	.long	0x141c
	.uleb128 0x1
	.long	0x55c
	.byte	0
	.uleb128 0x13
	.long	.LASF240
	.byte	0x7
	.value	0x189
	.byte	0x7
	.long	.LASF241
	.byte	0x2
	.long	0x16e9
	.long	0x16f4
	.uleb128 0x2
	.long	0x68e4
	.uleb128 0x1
	.long	0x55c
	.byte	0
	.uleb128 0x7
	.string	"_Tp"
	.long	0x4c27
	.uleb128 0x4
	.long	.LASF242
	.long	0x11da
	.byte	0
	.uleb128 0x8
	.long	0x1364
	.uleb128 0x1f
	.long	.LASF243
	.byte	0x1
	.byte	0x3
	.byte	0x7c
	.byte	0xc
	.long	0x172f
	.uleb128 0x9
	.long	.LASF244
	.byte	0x3
	.byte	0x7d
	.byte	0xd
	.long	0x11da
	.uleb128 0x4
	.long	.LASF245
	.long	0x11da
	.byte	0
	.uleb128 0x3f
	.long	.LASF246
	.byte	0x18
	.byte	0x7
	.value	0x1a7
	.long	0x234e
	.uleb128 0x21
	.byte	0x7
	.value	0x1a7
	.byte	0xb
	.long	0x168e
	.uleb128 0x21
	.byte	0x7
	.value	0x1a7
	.byte	0xb
	.long	0x16b0
	.uleb128 0x21
	.byte	0x7
	.value	0x1a7
	.byte	0xb
	.long	0x1685
	.uleb128 0x21
	.byte	0x7
	.value	0x1a7
	.byte	0xb
	.long	0x1521
	.uleb128 0x21
	.byte	0x7
	.value	0x1a7
	.byte	0xb
	.long	0x1504
	.uleb128 0x21
	.byte	0x7
	.value	0x1a7
	.byte	0xb
	.long	0x1550
	.uleb128 0x49
	.long	0x1364
	.byte	0x2
	.uleb128 0xc
	.long	.LASF247
	.byte	0x7
	.value	0x1d1
	.byte	0x7
	.long	.LASF248
	.long	0x5b06
	.long	0x1793
	.uleb128 0x1
	.long	0xb6a
	.byte	0
	.uleb128 0xc
	.long	.LASF247
	.byte	0x7
	.value	0x1da
	.byte	0x7
	.long	.LASF249
	.long	0x5b06
	.long	0x17ae
	.uleb128 0x1
	.long	0x64a
	.byte	0
	.uleb128 0x65
	.long	.LASF250
	.long	.LASF442
	.long	0x5b06
	.uleb128 0x19
	.long	.LASF164
	.byte	0x7
	.value	0x1c1
	.byte	0x29
	.long	0x141c
	.uleb128 0xc
	.long	.LASF251
	.byte	0x7
	.value	0x1e7
	.byte	0x7
	.long	.LASF252
	.long	0x17bb
	.long	0x17f7
	.uleb128 0x1
	.long	0x17bb
	.uleb128 0x1
	.long	0x17bb
	.uleb128 0x1
	.long	0x17bb
	.uleb128 0x1
	.long	0x6902
	.uleb128 0x1
	.long	0xb6a
	.byte	0
	.uleb128 0x1e
	.long	.LASF218
	.byte	0x7
	.value	0x1bc
	.byte	0x2f
	.long	0x14f3
	.uleb128 0x8
	.long	0x17f7
	.uleb128 0xc
	.long	.LASF251
	.byte	0x7
	.value	0x1ee
	.byte	0x7
	.long	.LASF253
	.long	0x17bb
	.long	0x1838
	.uleb128 0x1
	.long	0x17bb
	.uleb128 0x1
	.long	0x17bb
	.uleb128 0x1
	.long	0x17bb
	.uleb128 0x1
	.long	0x6902
	.uleb128 0x1
	.long	0x64a
	.byte	0
	.uleb128 0xc
	.long	.LASF254
	.byte	0x7
	.value	0x1f3
	.byte	0x7
	.long	.LASF255
	.long	0x17bb
	.long	0x1862
	.uleb128 0x1
	.long	0x17bb
	.uleb128 0x1
	.long	0x17bb
	.uleb128 0x1
	.long	0x17bb
	.uleb128 0x1
	.long	0x6902
	.byte	0
	.uleb128 0x44
	.long	.LASF256
	.byte	0x7
	.value	0x20e
	.long	.LASF257
	.long	0x1876
	.long	0x187c
	.uleb128 0x2
	.long	0x6907
	.byte	0
	.uleb128 0x3a
	.long	.LASF256
	.byte	0x7
	.value	0x219
	.long	.LASF258
	.long	0x1890
	.long	0x189b
	.uleb128 0x2
	.long	0x6907
	.uleb128 0x1
	.long	0x6911
	.byte	0
	.uleb128 0x19
	.long	.LASF191
	.byte	0x7
	.value	0x1cc
	.byte	0x1a
	.long	0x11da
	.uleb128 0x8
	.long	0x189b
	.uleb128 0x3a
	.long	.LASF256
	.byte	0x7
	.value	0x227
	.long	.LASF259
	.long	0x18c1
	.long	0x18d1
	.uleb128 0x2
	.long	0x6907
	.uleb128 0x1
	.long	0x18d1
	.uleb128 0x1
	.long	0x6911
	.byte	0
	.uleb128 0x19
	.long	.LASF173
	.byte	0x7
	.value	0x1ca
	.byte	0x1a
	.long	0x55c
	.uleb128 0x8
	.long	0x18d1
	.uleb128 0x13
	.long	.LASF256
	.byte	0x7
	.value	0x234
	.byte	0x7
	.long	.LASF260
	.byte	0x1
	.long	0x18f9
	.long	0x190e
	.uleb128 0x2
	.long	0x6907
	.uleb128 0x1
	.long	0x18d1
	.uleb128 0x1
	.long	0x6916
	.uleb128 0x1
	.long	0x6911
	.byte	0
	.uleb128 0x19
	.long	.LASF56
	.byte	0x7
	.value	0x1c0
	.byte	0x17
	.long	0x4c27
	.uleb128 0x8
	.long	0x190e
	.uleb128 0x13
	.long	.LASF256
	.byte	0x7
	.value	0x254
	.byte	0x7
	.long	.LASF261
	.byte	0x1
	.long	0x1936
	.long	0x1941
	.uleb128 0x2
	.long	0x6907
	.uleb128 0x1
	.long	0x691b
	.byte	0
	.uleb128 0x44
	.long	.LASF256
	.byte	0x7
	.value	0x267
	.long	.LASF262
	.long	0x1955
	.long	0x1960
	.uleb128 0x2
	.long	0x6907
	.uleb128 0x1
	.long	0x6920
	.byte	0
	.uleb128 0x13
	.long	.LASF256
	.byte	0x7
	.value	0x26b
	.byte	0x7
	.long	.LASF263
	.byte	0x1
	.long	0x1976
	.long	0x1986
	.uleb128 0x2
	.long	0x6907
	.uleb128 0x1
	.long	0x691b
	.uleb128 0x1
	.long	0x6925
	.byte	0
	.uleb128 0x23
	.long	.LASF256
	.value	0x276
	.long	.LASF264
	.long	0x1999
	.long	0x19ae
	.uleb128 0x2
	.long	0x6907
	.uleb128 0x1
	.long	0x6920
	.uleb128 0x1
	.long	0x6911
	.uleb128 0x1
	.long	0xb6a
	.byte	0
	.uleb128 0x23
	.long	.LASF256
	.value	0x27b
	.long	.LASF265
	.long	0x19c1
	.long	0x19d6
	.uleb128 0x2
	.long	0x6907
	.uleb128 0x1
	.long	0x6920
	.uleb128 0x1
	.long	0x6911
	.uleb128 0x1
	.long	0x64a
	.byte	0
	.uleb128 0x13
	.long	.LASF256
	.byte	0x7
	.value	0x28e
	.byte	0x7
	.long	.LASF266
	.byte	0x1
	.long	0x19ec
	.long	0x19fc
	.uleb128 0x2
	.long	0x6907
	.uleb128 0x1
	.long	0x6920
	.uleb128 0x1
	.long	0x6925
	.byte	0
	.uleb128 0x13
	.long	.LASF256
	.byte	0x7
	.value	0x2a1
	.byte	0x7
	.long	.LASF267
	.byte	0x1
	.long	0x1a12
	.long	0x1a22
	.uleb128 0x2
	.long	0x6907
	.uleb128 0x1
	.long	0x2364
	.uleb128 0x1
	.long	0x6911
	.byte	0
	.uleb128 0x13
	.long	.LASF268
	.byte	0x7
	.value	0x2d8
	.byte	0x7
	.long	.LASF269
	.byte	0x1
	.long	0x1a38
	.long	0x1a43
	.uleb128 0x2
	.long	0x6907
	.uleb128 0x2
	.long	0x118
	.byte	0
	.uleb128 0x17
	.long	.LASF82
	.byte	0x13
	.byte	0xcc
	.byte	0x5
	.long	.LASF270
	.long	0x692a
	.byte	0x1
	.long	0x1a5c
	.long	0x1a67
	.uleb128 0x2
	.long	0x6907
	.uleb128 0x1
	.long	0x691b
	.byte	0
	.uleb128 0x6
	.long	.LASF82
	.byte	0x7
	.value	0x2f9
	.byte	0x7
	.long	.LASF271
	.long	0x692a
	.byte	0x1
	.long	0x1a81
	.long	0x1a8c
	.uleb128 0x2
	.long	0x6907
	.uleb128 0x1
	.long	0x6920
	.byte	0
	.uleb128 0x6
	.long	.LASF82
	.byte	0x7
	.value	0x30f
	.byte	0x7
	.long	.LASF272
	.long	0x692a
	.byte	0x1
	.long	0x1aa6
	.long	0x1ab1
	.uleb128 0x2
	.long	0x6907
	.uleb128 0x1
	.long	0x2364
	.byte	0
	.uleb128 0x13
	.long	.LASF108
	.byte	0x7
	.value	0x323
	.byte	0x7
	.long	.LASF273
	.byte	0x1
	.long	0x1ac7
	.long	0x1ad7
	.uleb128 0x2
	.long	0x6907
	.uleb128 0x1
	.long	0x18d1
	.uleb128 0x1
	.long	0x6916
	.byte	0
	.uleb128 0x13
	.long	.LASF108
	.byte	0x7
	.value	0x352
	.byte	0x7
	.long	.LASF274
	.byte	0x1
	.long	0x1aed
	.long	0x1af8
	.uleb128 0x2
	.long	0x6907
	.uleb128 0x1
	.long	0x2364
	.byte	0
	.uleb128 0x19
	.long	.LASF275
	.byte	0x7
	.value	0x1c5
	.byte	0x3d
	.long	0x501a
	.uleb128 0x6
	.long	.LASF276
	.byte	0x7
	.value	0x364
	.byte	0x7
	.long	.LASF277
	.long	0x1af8
	.byte	0x1
	.long	0x1b1f
	.long	0x1b25
	.uleb128 0x2
	.long	0x6907
	.byte	0
	.uleb128 0x19
	.long	.LASF278
	.byte	0x7
	.value	0x1c7
	.byte	0x7
	.long	0x525a
	.uleb128 0x6
	.long	.LASF276
	.byte	0x7
	.value	0x36e
	.byte	0x7
	.long	.LASF279
	.long	0x1b25
	.byte	0x1
	.long	0x1b4c
	.long	0x1b52
	.uleb128 0x2
	.long	0x692f
	.byte	0
	.uleb128 0x3b
	.string	"end"
	.value	0x378
	.long	.LASF280
	.long	0x1af8
	.long	0x1b69
	.long	0x1b6f
	.uleb128 0x2
	.long	0x6907
	.byte	0
	.uleb128 0x3b
	.string	"end"
	.value	0x382
	.long	.LASF281
	.long	0x1b25
	.long	0x1b86
	.long	0x1b8c
	.uleb128 0x2
	.long	0x692f
	.byte	0
	.uleb128 0x19
	.long	.LASF282
	.byte	0x7
	.value	0x1c9
	.byte	0x30
	.long	0x2457
	.uleb128 0x6
	.long	.LASF283
	.byte	0x7
	.value	0x38c
	.byte	0x7
	.long	.LASF284
	.long	0x1b8c
	.byte	0x1
	.long	0x1bb3
	.long	0x1bb9
	.uleb128 0x2
	.long	0x6907
	.byte	0
	.uleb128 0x19
	.long	.LASF285
	.byte	0x7
	.value	0x1c8
	.byte	0x35
	.long	0x245c
	.uleb128 0x6
	.long	.LASF283
	.byte	0x7
	.value	0x396
	.byte	0x7
	.long	.LASF286
	.long	0x1bb9
	.byte	0x1
	.long	0x1be0
	.long	0x1be6
	.uleb128 0x2
	.long	0x692f
	.byte	0
	.uleb128 0x6
	.long	.LASF287
	.byte	0x7
	.value	0x3a0
	.byte	0x7
	.long	.LASF288
	.long	0x1b8c
	.byte	0x1
	.long	0x1c00
	.long	0x1c06
	.uleb128 0x2
	.long	0x6907
	.byte	0
	.uleb128 0x6
	.long	.LASF287
	.byte	0x7
	.value	0x3aa
	.byte	0x7
	.long	.LASF289
	.long	0x1bb9
	.byte	0x1
	.long	0x1c20
	.long	0x1c26
	.uleb128 0x2
	.long	0x692f
	.byte	0
	.uleb128 0x6
	.long	.LASF290
	.byte	0x7
	.value	0x3b5
	.byte	0x7
	.long	.LASF291
	.long	0x1b25
	.byte	0x1
	.long	0x1c40
	.long	0x1c46
	.uleb128 0x2
	.long	0x692f
	.byte	0
	.uleb128 0x6
	.long	.LASF292
	.byte	0x7
	.value	0x3bf
	.byte	0x7
	.long	.LASF293
	.long	0x1b25
	.byte	0x1
	.long	0x1c60
	.long	0x1c66
	.uleb128 0x2
	.long	0x692f
	.byte	0
	.uleb128 0x6
	.long	.LASF294
	.byte	0x7
	.value	0x3c9
	.byte	0x7
	.long	.LASF295
	.long	0x1bb9
	.byte	0x1
	.long	0x1c80
	.long	0x1c86
	.uleb128 0x2
	.long	0x692f
	.byte	0
	.uleb128 0x6
	.long	.LASF296
	.byte	0x7
	.value	0x3d3
	.byte	0x7
	.long	.LASF297
	.long	0x1bb9
	.byte	0x1
	.long	0x1ca0
	.long	0x1ca6
	.uleb128 0x2
	.long	0x692f
	.byte	0
	.uleb128 0x6
	.long	.LASF298
	.byte	0x7
	.value	0x3db
	.byte	0x7
	.long	.LASF299
	.long	0x18d1
	.byte	0x1
	.long	0x1cc0
	.long	0x1cc6
	.uleb128 0x2
	.long	0x692f
	.byte	0
	.uleb128 0x6
	.long	.LASF176
	.byte	0x7
	.value	0x3e1
	.byte	0x7
	.long	.LASF300
	.long	0x18d1
	.byte	0x1
	.long	0x1ce0
	.long	0x1ce6
	.uleb128 0x2
	.long	0x692f
	.byte	0
	.uleb128 0x13
	.long	.LASF301
	.byte	0x7
	.value	0x3f0
	.byte	0x7
	.long	.LASF302
	.byte	0x1
	.long	0x1cfc
	.long	0x1d07
	.uleb128 0x2
	.long	0x6907
	.uleb128 0x1
	.long	0x18d1
	.byte	0
	.uleb128 0x13
	.long	.LASF301
	.byte	0x7
	.value	0x405
	.byte	0x7
	.long	.LASF303
	.byte	0x1
	.long	0x1d1d
	.long	0x1d2d
	.uleb128 0x2
	.long	0x6907
	.uleb128 0x1
	.long	0x18d1
	.uleb128 0x1
	.long	0x6916
	.byte	0
	.uleb128 0x13
	.long	.LASF304
	.byte	0x7
	.value	0x427
	.byte	0x7
	.long	.LASF305
	.byte	0x1
	.long	0x1d43
	.long	0x1d49
	.uleb128 0x2
	.long	0x6907
	.byte	0
	.uleb128 0x6
	.long	.LASF306
	.byte	0x7
	.value	0x431
	.byte	0x7
	.long	.LASF307
	.long	0x18d1
	.byte	0x1
	.long	0x1d63
	.long	0x1d69
	.uleb128 0x2
	.long	0x692f
	.byte	0
	.uleb128 0x6
	.long	.LASF308
	.byte	0x7
	.value	0x43b
	.byte	0x7
	.long	.LASF309
	.long	0x5b06
	.byte	0x1
	.long	0x1d83
	.long	0x1d89
	.uleb128 0x2
	.long	0x692f
	.byte	0
	.uleb128 0x20
	.long	.LASF310
	.byte	0x13
	.byte	0x43
	.byte	0x5
	.long	.LASF311
	.long	0x1d9d
	.long	0x1da8
	.uleb128 0x2
	.long	0x6907
	.uleb128 0x1
	.long	0x18d1
	.byte	0
	.uleb128 0x19
	.long	.LASF167
	.byte	0x7
	.value	0x1c3
	.byte	0x32
	.long	0x4fd5
	.uleb128 0x6
	.long	.LASF312
	.byte	0x7
	.value	0x461
	.byte	0x7
	.long	.LASF313
	.long	0x1da8
	.byte	0x1
	.long	0x1dcf
	.long	0x1dda
	.uleb128 0x2
	.long	0x6907
	.uleb128 0x1
	.long	0x18d1
	.byte	0
	.uleb128 0x19
	.long	.LASF170
	.byte	0x7
	.value	0x1c4
	.byte	0x37
	.long	0x4fe1
	.uleb128 0x6
	.long	.LASF312
	.byte	0x7
	.value	0x474
	.byte	0x7
	.long	.LASF314
	.long	0x1dda
	.byte	0x1
	.long	0x1e01
	.long	0x1e0c
	.uleb128 0x2
	.long	0x692f
	.uleb128 0x1
	.long	0x18d1
	.byte	0
	.uleb128 0x13
	.long	.LASF315
	.byte	0x7
	.value	0x47e
	.byte	0x7
	.long	.LASF316
	.byte	0x2
	.long	0x1e22
	.long	0x1e2d
	.uleb128 0x2
	.long	0x692f
	.uleb128 0x1
	.long	0x18d1
	.byte	0
	.uleb128 0x3b
	.string	"at"
	.value	0x495
	.long	.LASF317
	.long	0x1da8
	.long	0x1e43
	.long	0x1e4e
	.uleb128 0x2
	.long	0x6907
	.uleb128 0x1
	.long	0x18d1
	.byte	0
	.uleb128 0x3b
	.string	"at"
	.value	0x4a8
	.long	.LASF318
	.long	0x1dda
	.long	0x1e64
	.long	0x1e6f
	.uleb128 0x2
	.long	0x692f
	.uleb128 0x1
	.long	0x18d1
	.byte	0
	.uleb128 0x6
	.long	.LASF319
	.byte	0x7
	.value	0x4b4
	.byte	0x7
	.long	.LASF320
	.long	0x1da8
	.byte	0x1
	.long	0x1e89
	.long	0x1e8f
	.uleb128 0x2
	.long	0x6907
	.byte	0
	.uleb128 0x6
	.long	.LASF319
	.byte	0x7
	.value	0x4c0
	.byte	0x7
	.long	.LASF321
	.long	0x1dda
	.byte	0x1
	.long	0x1ea9
	.long	0x1eaf
	.uleb128 0x2
	.long	0x692f
	.byte	0
	.uleb128 0x6
	.long	.LASF322
	.byte	0x7
	.value	0x4cc
	.byte	0x7
	.long	.LASF323
	.long	0x1da8
	.byte	0x1
	.long	0x1ec9
	.long	0x1ecf
	.uleb128 0x2
	.long	0x6907
	.byte	0
	.uleb128 0x6
	.long	.LASF322
	.byte	0x7
	.value	0x4d8
	.byte	0x7
	.long	.LASF324
	.long	0x1dda
	.byte	0x1
	.long	0x1ee9
	.long	0x1eef
	.uleb128 0x2
	.long	0x692f
	.byte	0
	.uleb128 0x6
	.long	.LASF325
	.byte	0x7
	.value	0x4e7
	.byte	0x7
	.long	.LASF326
	.long	0x685d
	.byte	0x1
	.long	0x1f09
	.long	0x1f0f
	.uleb128 0x2
	.long	0x6907
	.byte	0
	.uleb128 0x6
	.long	.LASF325
	.byte	0x7
	.value	0x4ec
	.byte	0x7
	.long	.LASF327
	.long	0x6876
	.byte	0x1
	.long	0x1f29
	.long	0x1f2f
	.uleb128 0x2
	.long	0x692f
	.byte	0
	.uleb128 0x13
	.long	.LASF328
	.byte	0x7
	.value	0x4fc
	.byte	0x7
	.long	.LASF329
	.byte	0x1
	.long	0x1f45
	.long	0x1f50
	.uleb128 0x2
	.long	0x6907
	.uleb128 0x1
	.long	0x6916
	.byte	0
	.uleb128 0x13
	.long	.LASF328
	.byte	0x7
	.value	0x50d
	.byte	0x7
	.long	.LASF330
	.byte	0x1
	.long	0x1f66
	.long	0x1f71
	.uleb128 0x2
	.long	0x6907
	.uleb128 0x1
	.long	0x6939
	.byte	0
	.uleb128 0x13
	.long	.LASF331
	.byte	0x7
	.value	0x525
	.byte	0x7
	.long	.LASF332
	.byte	0x1
	.long	0x1f87
	.long	0x1f8d
	.uleb128 0x2
	.long	0x6907
	.byte	0
	.uleb128 0x17
	.long	.LASF333
	.byte	0x13
	.byte	0x85
	.byte	0x5
	.long	.LASF334
	.long	0x1af8
	.byte	0x1
	.long	0x1fa6
	.long	0x1fb6
	.uleb128 0x2
	.long	0x6907
	.uleb128 0x1
	.long	0x1b25
	.uleb128 0x1
	.long	0x6916
	.byte	0
	.uleb128 0x6
	.long	.LASF333
	.byte	0x7
	.value	0x56c
	.byte	0x7
	.long	.LASF335
	.long	0x1af8
	.byte	0x1
	.long	0x1fd0
	.long	0x1fe0
	.uleb128 0x2
	.long	0x6907
	.uleb128 0x1
	.long	0x1b25
	.uleb128 0x1
	.long	0x6939
	.byte	0
	.uleb128 0x6
	.long	.LASF333
	.byte	0x7
	.value	0x57e
	.byte	0x7
	.long	.LASF336
	.long	0x1af8
	.byte	0x1
	.long	0x1ffa
	.long	0x200a
	.uleb128 0x2
	.long	0x6907
	.uleb128 0x1
	.long	0x1b25
	.uleb128 0x1
	.long	0x2364
	.byte	0
	.uleb128 0x6
	.long	.LASF333
	.byte	0x7
	.value	0x598
	.byte	0x7
	.long	.LASF337
	.long	0x1af8
	.byte	0x1
	.long	0x2024
	.long	0x2039
	.uleb128 0x2
	.long	0x6907
	.uleb128 0x1
	.long	0x1b25
	.uleb128 0x1
	.long	0x18d1
	.uleb128 0x1
	.long	0x6916
	.byte	0
	.uleb128 0x6
	.long	.LASF338
	.byte	0x7
	.value	0x5f9
	.byte	0x7
	.long	.LASF339
	.long	0x1af8
	.byte	0x1
	.long	0x2053
	.long	0x205e
	.uleb128 0x2
	.long	0x6907
	.uleb128 0x1
	.long	0x1b25
	.byte	0
	.uleb128 0x6
	.long	.LASF338
	.byte	0x7
	.value	0x615
	.byte	0x7
	.long	.LASF340
	.long	0x1af8
	.byte	0x1
	.long	0x2078
	.long	0x2088
	.uleb128 0x2
	.long	0x6907
	.uleb128 0x1
	.long	0x1b25
	.uleb128 0x1
	.long	0x1b25
	.byte	0
	.uleb128 0x13
	.long	.LASF87
	.byte	0x7
	.value	0x62d
	.byte	0x7
	.long	.LASF341
	.byte	0x1
	.long	0x209e
	.long	0x20a9
	.uleb128 0x2
	.long	0x6907
	.uleb128 0x1
	.long	0x692a
	.byte	0
	.uleb128 0x13
	.long	.LASF342
	.byte	0x7
	.value	0x640
	.byte	0x7
	.long	.LASF343
	.byte	0x1
	.long	0x20bf
	.long	0x20c5
	.uleb128 0x2
	.long	0x6907
	.byte	0
	.uleb128 0x13
	.long	.LASF344
	.byte	0x7
	.value	0x6a3
	.byte	0x7
	.long	.LASF345
	.byte	0x2
	.long	0x20db
	.long	0x20eb
	.uleb128 0x2
	.long	0x6907
	.uleb128 0x1
	.long	0x18d1
	.uleb128 0x1
	.long	0x6916
	.byte	0
	.uleb128 0x13
	.long	.LASF346
	.byte	0x7
	.value	0x6ae
	.byte	0x7
	.long	.LASF347
	.byte	0x2
	.long	0x2101
	.long	0x210c
	.uleb128 0x2
	.long	0x6907
	.uleb128 0x1
	.long	0x18d1
	.byte	0
	.uleb128 0x13
	.long	.LASF348
	.byte	0x13
	.value	0x108
	.byte	0x5
	.long	.LASF349
	.byte	0x2
	.long	0x2122
	.long	0x2132
	.uleb128 0x2
	.long	0x6907
	.uleb128 0x1
	.long	0x55c
	.uleb128 0x1
	.long	0x6916
	.byte	0
	.uleb128 0x13
	.long	.LASF350
	.byte	0x13
	.value	0x20b
	.byte	0x5
	.long	.LASF351
	.byte	0x2
	.long	0x2148
	.long	0x215d
	.uleb128 0x2
	.long	0x6907
	.uleb128 0x1
	.long	0x1af8
	.uleb128 0x1
	.long	0x18d1
	.uleb128 0x1
	.long	0x6916
	.byte	0
	.uleb128 0x13
	.long	.LASF352
	.byte	0x13
	.value	0x272
	.byte	0x5
	.long	.LASF353
	.byte	0x2
	.long	0x2173
	.long	0x217e
	.uleb128 0x2
	.long	0x6907
	.uleb128 0x1
	.long	0x18d1
	.byte	0
	.uleb128 0x6
	.long	.LASF354
	.byte	0x13
	.value	0x2bf
	.byte	0x5
	.long	.LASF355
	.long	0x5b06
	.byte	0x2
	.long	0x2198
	.long	0x219e
	.uleb128 0x2
	.long	0x6907
	.byte	0
	.uleb128 0x6
	.long	.LASF356
	.byte	0x13
	.value	0x15e
	.byte	0x5
	.long	.LASF357
	.long	0x1af8
	.byte	0x2
	.long	0x21b8
	.long	0x21c8
	.uleb128 0x2
	.long	0x6907
	.uleb128 0x1
	.long	0x1b25
	.uleb128 0x1
	.long	0x6939
	.byte	0
	.uleb128 0x6
	.long	.LASF358
	.byte	0x7
	.value	0x75c
	.byte	0x7
	.long	.LASF359
	.long	0x1af8
	.byte	0x2
	.long	0x21e2
	.long	0x21f2
	.uleb128 0x2
	.long	0x6907
	.uleb128 0x1
	.long	0x1b25
	.uleb128 0x1
	.long	0x6939
	.byte	0
	.uleb128 0x6
	.long	.LASF360
	.byte	0x7
	.value	0x763
	.byte	0x7
	.long	.LASF361
	.long	0x18d1
	.byte	0x2
	.long	0x220c
	.long	0x221c
	.uleb128 0x2
	.long	0x692f
	.uleb128 0x1
	.long	0x18d1
	.uleb128 0x1
	.long	0x2e8
	.byte	0
	.uleb128 0x4b
	.long	.LASF362
	.value	0x76e
	.long	.LASF363
	.long	0x18d1
	.long	0x223a
	.uleb128 0x1
	.long	0x18d1
	.uleb128 0x1
	.long	0x6911
	.byte	0
	.uleb128 0x4b
	.long	.LASF364
	.value	0x777
	.long	.LASF365
	.long	0x18d1
	.long	0x2253
	.uleb128 0x1
	.long	0x693e
	.byte	0
	.uleb128 0x13
	.long	.LASF366
	.byte	0x7
	.value	0x788
	.byte	0x7
	.long	.LASF367
	.byte	0x2
	.long	0x2269
	.long	0x2274
	.uleb128 0x2
	.long	0x6907
	.uleb128 0x1
	.long	0x17bb
	.byte	0
	.uleb128 0x17
	.long	.LASF368
	.byte	0x13
	.byte	0xaf
	.byte	0x5
	.long	.LASF369
	.long	0x1af8
	.byte	0x2
	.long	0x228d
	.long	0x2298
	.uleb128 0x2
	.long	0x6907
	.uleb128 0x1
	.long	0x1af8
	.byte	0
	.uleb128 0x17
	.long	.LASF368
	.byte	0x13
	.byte	0xbd
	.byte	0x5
	.long	.LASF370
	.long	0x1af8
	.byte	0x2
	.long	0x22b1
	.long	0x22c1
	.uleb128 0x2
	.long	0x6907
	.uleb128 0x1
	.long	0x1af8
	.uleb128 0x1
	.long	0x1af8
	.byte	0
	.uleb128 0x23
	.long	.LASF371
	.value	0x7a2
	.long	.LASF372
	.long	0x22d4
	.long	0x22e4
	.uleb128 0x2
	.long	0x6907
	.uleb128 0x1
	.long	0x6920
	.uleb128 0x1
	.long	0xb6a
	.byte	0
	.uleb128 0x23
	.long	.LASF371
	.value	0x7ae
	.long	.LASF373
	.long	0x22f7
	.long	0x2307
	.uleb128 0x2
	.long	0x6907
	.uleb128 0x1
	.long	0x6920
	.uleb128 0x1
	.long	0x64a
	.byte	0
	.uleb128 0x13
	.long	.LASF374
	.byte	0x7
	.value	0x692
	.byte	0x2
	.long	.LASF375
	.byte	0x2
	.long	0x2326
	.long	0x233b
	.uleb128 0x4
	.long	.LASF132
	.long	0x6876
	.uleb128 0x2
	.long	0x6907
	.uleb128 0x1
	.long	0x6876
	.uleb128 0x1
	.long	0x6876
	.uleb128 0x1
	.long	0xb80
	.byte	0
	.uleb128 0x7
	.string	"_Tp"
	.long	0x4c27
	.uleb128 0x60
	.long	.LASF242
	.long	0x11da
	.byte	0
	.uleb128 0x8
	.long	0x172f
	.uleb128 0x9
	.long	.LASF377
	.byte	0x3
	.byte	0x80
	.byte	0xb
	.long	0x1719
	.uleb128 0x8
	.long	0x2353
	.uleb128 0x2e
	.long	.LASF378
	.byte	0x10
	.byte	0xb
	.byte	0x2f
	.byte	0xb
	.long	0x2452
	.uleb128 0x2c
	.long	.LASF275
	.byte	0xb
	.byte	0x36
	.byte	0x1a
	.long	0x6876
	.uleb128 0xa
	.long	.LASF379
	.byte	0xb
	.byte	0x3a
	.byte	0x12
	.long	0x2371
	.byte	0
	.uleb128 0x2c
	.long	.LASF173
	.byte	0xb
	.byte	0x35
	.byte	0x18
	.long	0x55c
	.uleb128 0xa
	.long	.LASF380
	.byte	0xb
	.byte	0x3b
	.byte	0x13
	.long	0x238a
	.byte	0x8
	.uleb128 0x22
	.long	.LASF381
	.byte	0xb
	.byte	0x3e
	.byte	0x11
	.long	.LASF382
	.long	0x23b7
	.long	0x23c7
	.uleb128 0x2
	.long	0x71ae
	.uleb128 0x1
	.long	0x23c7
	.uleb128 0x1
	.long	0x238a
	.byte	0
	.uleb128 0x2c
	.long	.LASF278
	.byte	0xb
	.byte	0x37
	.byte	0x1a
	.long	0x6876
	.uleb128 0x20
	.long	.LASF381
	.byte	0xb
	.byte	0x42
	.byte	0x11
	.long	.LASF383
	.long	0x23e7
	.long	0x23ed
	.uleb128 0x2
	.long	0x71ae
	.byte	0
	.uleb128 0x17
	.long	.LASF298
	.byte	0xb
	.byte	0x47
	.byte	0x7
	.long	.LASF384
	.long	0x238a
	.byte	0x1
	.long	0x2406
	.long	0x240c
	.uleb128 0x2
	.long	0x71b3
	.byte	0
	.uleb128 0x17
	.long	.LASF276
	.byte	0xb
	.byte	0x4b
	.byte	0x7
	.long	.LASF385
	.long	0x23c7
	.byte	0x1
	.long	0x2425
	.long	0x242b
	.uleb128 0x2
	.long	0x71b3
	.byte	0
	.uleb128 0x4c
	.string	"end"
	.byte	0xb
	.byte	0x4f
	.byte	0x7
	.long	.LASF1078
	.long	0x23c7
	.long	0x2443
	.long	0x2449
	.uleb128 0x2
	.long	0x71b3
	.byte	0
	.uleb128 0x7
	.string	"_E"
	.long	0x4c27
	.byte	0
	.uleb128 0x8
	.long	0x2364
	.uleb128 0x3e
	.long	.LASF387
	.uleb128 0x3e
	.long	.LASF388
	.uleb128 0x2e
	.long	.LASF389
	.byte	0x1
	.byte	0xa
	.byte	0x38
	.byte	0xb
	.long	0x25de
	.uleb128 0x20
	.long	.LASF158
	.byte	0xa
	.byte	0x50
	.byte	0x7
	.long	.LASF390
	.long	0x2482
	.long	0x2488
	.uleb128 0x2
	.long	0x704b
	.byte	0
	.uleb128 0x20
	.long	.LASF158
	.byte	0xa
	.byte	0x53
	.byte	0x7
	.long	.LASF391
	.long	0x249c
	.long	0x24a7
	.uleb128 0x2
	.long	0x704b
	.uleb128 0x1
	.long	0x7055
	.byte	0
	.uleb128 0x20
	.long	.LASF161
	.byte	0xa
	.byte	0x5a
	.byte	0x7
	.long	.LASF392
	.long	0x24bb
	.long	0x24c6
	.uleb128 0x2
	.long	0x704b
	.uleb128 0x2
	.long	0x118
	.byte	0
	.uleb128 0x2c
	.long	.LASF164
	.byte	0xa
	.byte	0x3f
	.byte	0x1a
	.long	0x705a
	.uleb128 0x17
	.long	.LASF165
	.byte	0xa
	.byte	0x5d
	.byte	0x7
	.long	.LASF393
	.long	0x24c6
	.byte	0x1
	.long	0x24eb
	.long	0x24f6
	.uleb128 0x2
	.long	0x7064
	.uleb128 0x1
	.long	0x24f6
	.byte	0
	.uleb128 0x2c
	.long	.LASF167
	.byte	0xa
	.byte	0x41
	.byte	0x1a
	.long	0x706e
	.uleb128 0x2c
	.long	.LASF168
	.byte	0xa
	.byte	0x40
	.byte	0x1a
	.long	0x7073
	.uleb128 0x17
	.long	.LASF165
	.byte	0xa
	.byte	0x61
	.byte	0x7
	.long	.LASF394
	.long	0x2502
	.byte	0x1
	.long	0x2527
	.long	0x2532
	.uleb128 0x2
	.long	0x7064
	.uleb128 0x1
	.long	0x2532
	.byte	0
	.uleb128 0x2c
	.long	.LASF170
	.byte	0xa
	.byte	0x42
	.byte	0x1a
	.long	0x707d
	.uleb128 0x17
	.long	.LASF171
	.byte	0xa
	.byte	0x70
	.byte	0x7
	.long	.LASF395
	.long	0x705a
	.byte	0x1
	.long	0x2557
	.long	0x2567
	.uleb128 0x2
	.long	0x704b
	.uleb128 0x1
	.long	0x2567
	.uleb128 0x1
	.long	0x5f4f
	.byte	0
	.uleb128 0x2c
	.long	.LASF173
	.byte	0xa
	.byte	0x3c
	.byte	0x1f
	.long	0x55c
	.uleb128 0x20
	.long	.LASF174
	.byte	0xa
	.byte	0x8e
	.byte	0x7
	.long	.LASF396
	.long	0x2587
	.long	0x2597
	.uleb128 0x2
	.long	0x704b
	.uleb128 0x1
	.long	0x705a
	.uleb128 0x1
	.long	0x2567
	.byte	0
	.uleb128 0x17
	.long	.LASF176
	.byte	0xa
	.byte	0xa7
	.byte	0x7
	.long	.LASF397
	.long	0x2567
	.byte	0x1
	.long	0x25b0
	.long	0x25b6
	.uleb128 0x2
	.long	0x7064
	.byte	0
	.uleb128 0x3c
	.long	.LASF178
	.byte	0xa
	.byte	0xd2
	.byte	0x7
	.long	.LASF398
	.long	0x2567
	.long	0x25ce
	.long	0x25d4
	.uleb128 0x2
	.long	0x7064
	.byte	0
	.uleb128 0x7
	.string	"_Tp"
	.long	0x3f
	.byte	0
	.uleb128 0x8
	.long	0x2461
	.uleb128 0x2e
	.long	.LASF399
	.byte	0x1
	.byte	0x8
	.byte	0x7c
	.byte	0xb
	.long	0x266c
	.uleb128 0x49
	.long	0x2461
	.byte	0x1
	.uleb128 0x20
	.long	.LASF181
	.byte	0x8
	.byte	0x9c
	.byte	0x7
	.long	.LASF400
	.long	0x260a
	.long	0x2610
	.uleb128 0x2
	.long	0x7082
	.byte	0
	.uleb128 0x20
	.long	.LASF181
	.byte	0x8
	.byte	0x9f
	.byte	0x7
	.long	.LASF401
	.long	0x2624
	.long	0x262f
	.uleb128 0x2
	.long	0x7082
	.uleb128 0x1
	.long	0x708c
	.byte	0
	.uleb128 0x38
	.long	.LASF82
	.byte	0x8
	.byte	0xa4
	.byte	0x12
	.long	.LASF402
	.long	0x7091
	.long	0x2647
	.long	0x2652
	.uleb128 0x2
	.long	0x7082
	.uleb128 0x1
	.long	0x708c
	.byte	0
	.uleb128 0x61
	.long	.LASF187
	.byte	0xae
	.long	.LASF403
	.long	0x2660
	.uleb128 0x2
	.long	0x7082
	.uleb128 0x2
	.long	0x118
	.byte	0
	.byte	0
	.uleb128 0x8
	.long	0x25e3
	.uleb128 0x32
	.long	.LASF404
	.byte	0x9
	.value	0x19b
	.long	0x276d
	.uleb128 0x1e
	.long	.LASF164
	.byte	0x9
	.value	0x1a4
	.byte	0xd
	.long	0x705a
	.uleb128 0xc
	.long	.LASF171
	.byte	0x9
	.value	0x1cf
	.byte	0x7
	.long	.LASF405
	.long	0x267d
	.long	0x26aa
	.uleb128 0x1
	.long	0x7096
	.uleb128 0x1
	.long	0x26bc
	.byte	0
	.uleb128 0x1e
	.long	.LASF191
	.byte	0x9
	.value	0x19e
	.byte	0xd
	.long	0x25e3
	.uleb128 0x8
	.long	0x26aa
	.uleb128 0x1e
	.long	.LASF173
	.byte	0x9
	.value	0x1b3
	.byte	0xd
	.long	0x55c
	.uleb128 0xc
	.long	.LASF171
	.byte	0x9
	.value	0x1dd
	.byte	0x7
	.long	.LASF406
	.long	0x267d
	.long	0x26ee
	.uleb128 0x1
	.long	0x7096
	.uleb128 0x1
	.long	0x26bc
	.uleb128 0x1
	.long	0x26ee
	.byte	0
	.uleb128 0x1e
	.long	.LASF193
	.byte	0x9
	.value	0x1ad
	.byte	0xd
	.long	0x5f4f
	.uleb128 0x37
	.long	.LASF174
	.byte	0x9
	.value	0x1ef
	.byte	0x7
	.long	.LASF407
	.long	0x271c
	.uleb128 0x1
	.long	0x7096
	.uleb128 0x1
	.long	0x267d
	.uleb128 0x1
	.long	0x26bc
	.byte	0
	.uleb128 0xc
	.long	.LASF176
	.byte	0x9
	.value	0x223
	.byte	0x7
	.long	.LASF408
	.long	0x26bc
	.long	0x2737
	.uleb128 0x1
	.long	0x709b
	.byte	0
	.uleb128 0xc
	.long	.LASF197
	.byte	0x9
	.value	0x232
	.byte	0x7
	.long	.LASF409
	.long	0x26aa
	.long	0x2752
	.uleb128 0x1
	.long	0x709b
	.byte	0
	.uleb128 0x1e
	.long	.LASF56
	.byte	0x9
	.value	0x1a1
	.byte	0xd
	.long	0x3f
	.uleb128 0x1e
	.long	.LASF199
	.byte	0x9
	.value	0x1c2
	.byte	0x8
	.long	0x25e3
	.byte	0
	.uleb128 0x1f
	.long	.LASF410
	.byte	0x18
	.byte	0x7
	.byte	0x55
	.byte	0xc
	.long	0x2b10
	.uleb128 0x1f
	.long	.LASF201
	.byte	0x18
	.byte	0x7
	.byte	0x5c
	.byte	0xe
	.long	0x2820
	.uleb128 0xa
	.long	.LASF202
	.byte	0x7
	.byte	0x5e
	.byte	0xa
	.long	0x2825
	.byte	0
	.uleb128 0xa
	.long	.LASF203
	.byte	0x7
	.byte	0x5f
	.byte	0xa
	.long	0x2825
	.byte	0x8
	.uleb128 0xa
	.long	.LASF204
	.byte	0x7
	.byte	0x60
	.byte	0xa
	.long	0x2825
	.byte	0x10
	.uleb128 0x22
	.long	.LASF201
	.byte	0x7
	.byte	0x63
	.byte	0x2
	.long	.LASF411
	.long	0x27c2
	.long	0x27c8
	.uleb128 0x2
	.long	0x70aa
	.byte	0
	.uleb128 0x22
	.long	.LASF201
	.byte	0x7
	.byte	0x69
	.byte	0x2
	.long	.LASF412
	.long	0x27dc
	.long	0x27e7
	.uleb128 0x2
	.long	0x70aa
	.uleb128 0x1
	.long	0x70b4
	.byte	0
	.uleb128 0x22
	.long	.LASF207
	.byte	0x7
	.byte	0x71
	.byte	0x2
	.long	.LASF413
	.long	0x27fb
	.long	0x2806
	.uleb128 0x2
	.long	0x70aa
	.uleb128 0x1
	.long	0x70b9
	.byte	0
	.uleb128 0x62
	.long	.LASF209
	.byte	0x7a
	.long	.LASF414
	.long	0x2814
	.uleb128 0x2
	.long	0x70aa
	.uleb128 0x1
	.long	0x70be
	.byte	0
	.byte	0
	.uleb128 0x8
	.long	0x277a
	.uleb128 0x9
	.long	.LASF164
	.byte	0x7
	.byte	0x5a
	.byte	0x9
	.long	0x554b
	.uleb128 0x1f
	.long	.LASF212
	.byte	0x18
	.byte	0x7
	.byte	0x85
	.byte	0xe
	.long	0x28fc
	.uleb128 0x34
	.long	0x25e3
	.uleb128 0x34
	.long	0x277a
	.uleb128 0x22
	.long	.LASF212
	.byte	0x7
	.byte	0x89
	.byte	0x2
	.long	.LASF415
	.long	0x285c
	.long	0x2862
	.uleb128 0x2
	.long	0x70c3
	.byte	0
	.uleb128 0x22
	.long	.LASF212
	.byte	0x7
	.byte	0x8f
	.byte	0x2
	.long	.LASF416
	.long	0x2876
	.long	0x2881
	.uleb128 0x2
	.long	0x70c3
	.uleb128 0x1
	.long	0x70cd
	.byte	0
	.uleb128 0x22
	.long	.LASF212
	.byte	0x7
	.byte	0x97
	.byte	0x2
	.long	.LASF417
	.long	0x2895
	.long	0x28a0
	.uleb128 0x2
	.long	0x70c3
	.uleb128 0x1
	.long	0x70d2
	.byte	0
	.uleb128 0x22
	.long	.LASF212
	.byte	0x7
	.byte	0x9c
	.byte	0x2
	.long	.LASF418
	.long	0x28b4
	.long	0x28bf
	.uleb128 0x2
	.long	0x70c3
	.uleb128 0x1
	.long	0x70d7
	.byte	0
	.uleb128 0x22
	.long	.LASF212
	.byte	0x7
	.byte	0xa1
	.byte	0x2
	.long	.LASF419
	.long	0x28d3
	.long	0x28e3
	.uleb128 0x2
	.long	0x70c3
	.uleb128 0x1
	.long	0x70d7
	.uleb128 0x1
	.long	0x70d2
	.byte	0
	.uleb128 0x63
	.long	.LASF420
	.long	.LASF422
	.long	0x28f0
	.uleb128 0x2
	.long	0x70c3
	.uleb128 0x2
	.long	0x118
	.byte	0
	.byte	0
	.uleb128 0x9
	.long	.LASF218
	.byte	0x7
	.byte	0x58
	.byte	0x15
	.long	0x557c
	.uleb128 0x8
	.long	0x28fc
	.uleb128 0x39
	.long	.LASF219
	.value	0x12a
	.long	.LASF423
	.long	0x70dc
	.long	0x2924
	.long	0x292a
	.uleb128 0x2
	.long	0x70e1
	.byte	0
	.uleb128 0x39
	.long	.LASF219
	.value	0x12f
	.long	.LASF424
	.long	0x70cd
	.long	0x2941
	.long	0x2947
	.uleb128 0x2
	.long	0x70eb
	.byte	0
	.uleb128 0x1e
	.long	.LASF191
	.byte	0x7
	.value	0x126
	.byte	0x16
	.long	0x25e3
	.uleb128 0x8
	.long	0x2947
	.uleb128 0x39
	.long	.LASF222
	.value	0x134
	.long	.LASF425
	.long	0x2947
	.long	0x2970
	.long	0x2976
	.uleb128 0x2
	.long	0x70eb
	.byte	0
	.uleb128 0x4a
	.long	.LASF224
	.value	0x138
	.long	.LASF426
	.long	0x2989
	.long	0x298f
	.uleb128 0x2
	.long	0x70e1
	.byte	0
	.uleb128 0x23
	.long	.LASF224
	.value	0x13e
	.long	.LASF427
	.long	0x29a2
	.long	0x29ad
	.uleb128 0x2
	.long	0x70e1
	.uleb128 0x1
	.long	0x70f5
	.byte	0
	.uleb128 0x23
	.long	.LASF224
	.value	0x144
	.long	.LASF428
	.long	0x29c0
	.long	0x29cb
	.uleb128 0x2
	.long	0x70e1
	.uleb128 0x1
	.long	0x55c
	.byte	0
	.uleb128 0x23
	.long	.LASF224
	.value	0x14a
	.long	.LASF429
	.long	0x29de
	.long	0x29ee
	.uleb128 0x2
	.long	0x70e1
	.uleb128 0x1
	.long	0x55c
	.uleb128 0x1
	.long	0x70f5
	.byte	0
	.uleb128 0x4a
	.long	.LASF224
	.value	0x14f
	.long	.LASF430
	.long	0x2a01
	.long	0x2a0c
	.uleb128 0x2
	.long	0x70e1
	.uleb128 0x1
	.long	0x70fa
	.byte	0
	.uleb128 0x23
	.long	.LASF224
	.value	0x154
	.long	.LASF431
	.long	0x2a1f
	.long	0x2a2a
	.uleb128 0x2
	.long	0x70e1
	.uleb128 0x1
	.long	0x70d7
	.byte	0
	.uleb128 0x23
	.long	.LASF224
	.value	0x158
	.long	.LASF432
	.long	0x2a3d
	.long	0x2a4d
	.uleb128 0x2
	.long	0x70e1
	.uleb128 0x1
	.long	0x70fa
	.uleb128 0x1
	.long	0x70f5
	.byte	0
	.uleb128 0x23
	.long	.LASF224
	.value	0x166
	.long	.LASF433
	.long	0x2a60
	.long	0x2a70
	.uleb128 0x2
	.long	0x70e1
	.uleb128 0x1
	.long	0x70f5
	.uleb128 0x1
	.long	0x70fa
	.byte	0
	.uleb128 0x23
	.long	.LASF233
	.value	0x16c
	.long	.LASF434
	.long	0x2a83
	.long	0x2a8e
	.uleb128 0x2
	.long	0x70e1
	.uleb128 0x2
	.long	0x118
	.byte	0
	.uleb128 0x64
	.long	.LASF235
	.long	0x2831
	.uleb128 0x39
	.long	.LASF236
	.value	0x177
	.long	.LASF435
	.long	0x2825
	.long	0x2aae
	.long	0x2ab9
	.uleb128 0x2
	.long	0x70e1
	.uleb128 0x1
	.long	0x55c
	.byte	0
	.uleb128 0x23
	.long	.LASF238
	.value	0x17f
	.long	.LASF436
	.long	0x2acc
	.long	0x2adc
	.uleb128 0x2
	.long	0x70e1
	.uleb128 0x1
	.long	0x2825
	.uleb128 0x1
	.long	0x55c
	.byte	0
	.uleb128 0x13
	.long	.LASF240
	.byte	0x7
	.value	0x189
	.byte	0x7
	.long	.LASF437
	.byte	0x2
	.long	0x2af2
	.long	0x2afd
	.uleb128 0x2
	.long	0x70e1
	.uleb128 0x1
	.long	0x55c
	.byte	0
	.uleb128 0x7
	.string	"_Tp"
	.long	0x3f
	.uleb128 0x4
	.long	.LASF242
	.long	0x25e3
	.byte	0
	.uleb128 0x8
	.long	0x276d
	.uleb128 0x1f
	.long	.LASF438
	.byte	0x1
	.byte	0x3
	.byte	0x7c
	.byte	0xc
	.long	0x2b38
	.uleb128 0x9
	.long	.LASF244
	.byte	0x3
	.byte	0x7d
	.byte	0xd
	.long	0x25e3
	.uleb128 0x4
	.long	.LASF245
	.long	0x25e3
	.byte	0
	.uleb128 0x3f
	.long	.LASF439
	.byte	0x18
	.byte	0x7
	.value	0x1a7
	.long	0x3723
	.uleb128 0x21
	.byte	0x7
	.value	0x1a7
	.byte	0xb
	.long	0x2a97
	.uleb128 0x21
	.byte	0x7
	.value	0x1a7
	.byte	0xb
	.long	0x2ab9
	.uleb128 0x21
	.byte	0x7
	.value	0x1a7
	.byte	0xb
	.long	0x2a8e
	.uleb128 0x21
	.byte	0x7
	.value	0x1a7
	.byte	0xb
	.long	0x292a
	.uleb128 0x21
	.byte	0x7
	.value	0x1a7
	.byte	0xb
	.long	0x290d
	.uleb128 0x21
	.byte	0x7
	.value	0x1a7
	.byte	0xb
	.long	0x2959
	.uleb128 0x49
	.long	0x276d
	.byte	0x2
	.uleb128 0xc
	.long	.LASF247
	.byte	0x7
	.value	0x1d1
	.byte	0x7
	.long	.LASF440
	.long	0x5b06
	.long	0x2b9c
	.uleb128 0x1
	.long	0xb6a
	.byte	0
	.uleb128 0xc
	.long	.LASF247
	.byte	0x7
	.value	0x1da
	.byte	0x7
	.long	.LASF441
	.long	0x5b06
	.long	0x2bb7
	.uleb128 0x1
	.long	0x64a
	.byte	0
	.uleb128 0x65
	.long	.LASF250
	.long	.LASF443
	.long	0x5b06
	.uleb128 0x19
	.long	.LASF164
	.byte	0x7
	.value	0x1c1
	.byte	0x29
	.long	0x2825
	.uleb128 0xc
	.long	.LASF251
	.byte	0x7
	.value	0x1e7
	.byte	0x7
	.long	.LASF444
	.long	0x2bc4
	.long	0x2c00
	.uleb128 0x1
	.long	0x2bc4
	.uleb128 0x1
	.long	0x2bc4
	.uleb128 0x1
	.long	0x2bc4
	.uleb128 0x1
	.long	0x70ff
	.uleb128 0x1
	.long	0xb6a
	.byte	0
	.uleb128 0x1e
	.long	.LASF218
	.byte	0x7
	.value	0x1bc
	.byte	0x2f
	.long	0x28fc
	.uleb128 0x8
	.long	0x2c00
	.uleb128 0xc
	.long	.LASF251
	.byte	0x7
	.value	0x1ee
	.byte	0x7
	.long	.LASF445
	.long	0x2bc4
	.long	0x2c41
	.uleb128 0x1
	.long	0x2bc4
	.uleb128 0x1
	.long	0x2bc4
	.uleb128 0x1
	.long	0x2bc4
	.uleb128 0x1
	.long	0x70ff
	.uleb128 0x1
	.long	0x64a
	.byte	0
	.uleb128 0xc
	.long	.LASF254
	.byte	0x7
	.value	0x1f3
	.byte	0x7
	.long	.LASF446
	.long	0x2bc4
	.long	0x2c6b
	.uleb128 0x1
	.long	0x2bc4
	.uleb128 0x1
	.long	0x2bc4
	.uleb128 0x1
	.long	0x2bc4
	.uleb128 0x1
	.long	0x70ff
	.byte	0
	.uleb128 0x44
	.long	.LASF256
	.byte	0x7
	.value	0x20e
	.long	.LASF447
	.long	0x2c7f
	.long	0x2c85
	.uleb128 0x2
	.long	0x7104
	.byte	0
	.uleb128 0x3a
	.long	.LASF256
	.byte	0x7
	.value	0x219
	.long	.LASF448
	.long	0x2c99
	.long	0x2ca4
	.uleb128 0x2
	.long	0x7104
	.uleb128 0x1
	.long	0x710e
	.byte	0
	.uleb128 0x19
	.long	.LASF191
	.byte	0x7
	.value	0x1cc
	.byte	0x1a
	.long	0x25e3
	.uleb128 0x8
	.long	0x2ca4
	.uleb128 0x3a
	.long	.LASF256
	.byte	0x7
	.value	0x227
	.long	.LASF449
	.long	0x2cca
	.long	0x2cda
	.uleb128 0x2
	.long	0x7104
	.uleb128 0x1
	.long	0x2cda
	.uleb128 0x1
	.long	0x710e
	.byte	0
	.uleb128 0x19
	.long	.LASF173
	.byte	0x7
	.value	0x1ca
	.byte	0x1a
	.long	0x55c
	.uleb128 0x8
	.long	0x2cda
	.uleb128 0x13
	.long	.LASF256
	.byte	0x7
	.value	0x234
	.byte	0x7
	.long	.LASF450
	.byte	0x1
	.long	0x2d02
	.long	0x2d17
	.uleb128 0x2
	.long	0x7104
	.uleb128 0x1
	.long	0x2cda
	.uleb128 0x1
	.long	0x7113
	.uleb128 0x1
	.long	0x710e
	.byte	0
	.uleb128 0x19
	.long	.LASF56
	.byte	0x7
	.value	0x1c0
	.byte	0x17
	.long	0x3f
	.uleb128 0x8
	.long	0x2d17
	.uleb128 0x13
	.long	.LASF256
	.byte	0x7
	.value	0x254
	.byte	0x7
	.long	.LASF451
	.byte	0x1
	.long	0x2d3f
	.long	0x2d4a
	.uleb128 0x2
	.long	0x7104
	.uleb128 0x1
	.long	0x7118
	.byte	0
	.uleb128 0x44
	.long	.LASF256
	.byte	0x7
	.value	0x267
	.long	.LASF452
	.long	0x2d5e
	.long	0x2d69
	.uleb128 0x2
	.long	0x7104
	.uleb128 0x1
	.long	0x711d
	.byte	0
	.uleb128 0x13
	.long	.LASF256
	.byte	0x7
	.value	0x26b
	.byte	0x7
	.long	.LASF453
	.byte	0x1
	.long	0x2d7f
	.long	0x2d8f
	.uleb128 0x2
	.long	0x7104
	.uleb128 0x1
	.long	0x7118
	.uleb128 0x1
	.long	0x7122
	.byte	0
	.uleb128 0x23
	.long	.LASF256
	.value	0x276
	.long	.LASF454
	.long	0x2da2
	.long	0x2db7
	.uleb128 0x2
	.long	0x7104
	.uleb128 0x1
	.long	0x711d
	.uleb128 0x1
	.long	0x710e
	.uleb128 0x1
	.long	0xb6a
	.byte	0
	.uleb128 0x23
	.long	.LASF256
	.value	0x27b
	.long	.LASF455
	.long	0x2dca
	.long	0x2ddf
	.uleb128 0x2
	.long	0x7104
	.uleb128 0x1
	.long	0x711d
	.uleb128 0x1
	.long	0x710e
	.uleb128 0x1
	.long	0x64a
	.byte	0
	.uleb128 0x13
	.long	.LASF256
	.byte	0x7
	.value	0x28e
	.byte	0x7
	.long	.LASF456
	.byte	0x1
	.long	0x2df5
	.long	0x2e05
	.uleb128 0x2
	.long	0x7104
	.uleb128 0x1
	.long	0x711d
	.uleb128 0x1
	.long	0x7122
	.byte	0
	.uleb128 0x13
	.long	.LASF256
	.byte	0x7
	.value	0x2a1
	.byte	0x7
	.long	.LASF457
	.byte	0x1
	.long	0x2e1b
	.long	0x2e2b
	.uleb128 0x2
	.long	0x7104
	.uleb128 0x1
	.long	0x3739
	.uleb128 0x1
	.long	0x710e
	.byte	0
	.uleb128 0x13
	.long	.LASF268
	.byte	0x7
	.value	0x2d8
	.byte	0x7
	.long	.LASF458
	.byte	0x1
	.long	0x2e41
	.long	0x2e4c
	.uleb128 0x2
	.long	0x7104
	.uleb128 0x2
	.long	0x118
	.byte	0
	.uleb128 0x17
	.long	.LASF82
	.byte	0x13
	.byte	0xcc
	.byte	0x5
	.long	.LASF459
	.long	0x7127
	.byte	0x1
	.long	0x2e65
	.long	0x2e70
	.uleb128 0x2
	.long	0x7104
	.uleb128 0x1
	.long	0x7118
	.byte	0
	.uleb128 0x6
	.long	.LASF82
	.byte	0x7
	.value	0x2f9
	.byte	0x7
	.long	.LASF460
	.long	0x7127
	.byte	0x1
	.long	0x2e8a
	.long	0x2e95
	.uleb128 0x2
	.long	0x7104
	.uleb128 0x1
	.long	0x711d
	.byte	0
	.uleb128 0x6
	.long	.LASF82
	.byte	0x7
	.value	0x30f
	.byte	0x7
	.long	.LASF461
	.long	0x7127
	.byte	0x1
	.long	0x2eaf
	.long	0x2eba
	.uleb128 0x2
	.long	0x7104
	.uleb128 0x1
	.long	0x3739
	.byte	0
	.uleb128 0x13
	.long	.LASF108
	.byte	0x7
	.value	0x323
	.byte	0x7
	.long	.LASF462
	.byte	0x1
	.long	0x2ed0
	.long	0x2ee0
	.uleb128 0x2
	.long	0x7104
	.uleb128 0x1
	.long	0x2cda
	.uleb128 0x1
	.long	0x7113
	.byte	0
	.uleb128 0x13
	.long	.LASF108
	.byte	0x7
	.value	0x352
	.byte	0x7
	.long	.LASF463
	.byte	0x1
	.long	0x2ef6
	.long	0x2f01
	.uleb128 0x2
	.long	0x7104
	.uleb128 0x1
	.long	0x3739
	.byte	0
	.uleb128 0x19
	.long	.LASF275
	.byte	0x7
	.value	0x1c5
	.byte	0x3d
	.long	0x559c
	.uleb128 0x6
	.long	.LASF276
	.byte	0x7
	.value	0x364
	.byte	0x7
	.long	.LASF464
	.long	0x2f01
	.byte	0x1
	.long	0x2f28
	.long	0x2f2e
	.uleb128 0x2
	.long	0x7104
	.byte	0
	.uleb128 0x19
	.long	.LASF278
	.byte	0x7
	.value	0x1c7
	.byte	0x7
	.long	0x57cf
	.uleb128 0x6
	.long	.LASF276
	.byte	0x7
	.value	0x36e
	.byte	0x7
	.long	.LASF465
	.long	0x2f2e
	.byte	0x1
	.long	0x2f55
	.long	0x2f5b
	.uleb128 0x2
	.long	0x712c
	.byte	0
	.uleb128 0x3b
	.string	"end"
	.value	0x378
	.long	.LASF466
	.long	0x2f01
	.long	0x2f72
	.long	0x2f78
	.uleb128 0x2
	.long	0x7104
	.byte	0
	.uleb128 0x3b
	.string	"end"
	.value	0x382
	.long	.LASF467
	.long	0x2f2e
	.long	0x2f8f
	.long	0x2f95
	.uleb128 0x2
	.long	0x712c
	.byte	0
	.uleb128 0x19
	.long	.LASF282
	.byte	0x7
	.value	0x1c9
	.byte	0x30
	.long	0x373e
	.uleb128 0x6
	.long	.LASF283
	.byte	0x7
	.value	0x38c
	.byte	0x7
	.long	.LASF468
	.long	0x2f95
	.byte	0x1
	.long	0x2fbc
	.long	0x2fc2
	.uleb128 0x2
	.long	0x7104
	.byte	0
	.uleb128 0x19
	.long	.LASF285
	.byte	0x7
	.value	0x1c8
	.byte	0x35
	.long	0x3743
	.uleb128 0x6
	.long	.LASF283
	.byte	0x7
	.value	0x396
	.byte	0x7
	.long	.LASF469
	.long	0x2fc2
	.byte	0x1
	.long	0x2fe9
	.long	0x2fef
	.uleb128 0x2
	.long	0x712c
	.byte	0
	.uleb128 0x6
	.long	.LASF287
	.byte	0x7
	.value	0x3a0
	.byte	0x7
	.long	.LASF470
	.long	0x2f95
	.byte	0x1
	.long	0x3009
	.long	0x300f
	.uleb128 0x2
	.long	0x7104
	.byte	0
	.uleb128 0x6
	.long	.LASF287
	.byte	0x7
	.value	0x3aa
	.byte	0x7
	.long	.LASF471
	.long	0x2fc2
	.byte	0x1
	.long	0x3029
	.long	0x302f
	.uleb128 0x2
	.long	0x712c
	.byte	0
	.uleb128 0x6
	.long	.LASF290
	.byte	0x7
	.value	0x3b5
	.byte	0x7
	.long	.LASF472
	.long	0x2f2e
	.byte	0x1
	.long	0x3049
	.long	0x304f
	.uleb128 0x2
	.long	0x712c
	.byte	0
	.uleb128 0x6
	.long	.LASF292
	.byte	0x7
	.value	0x3bf
	.byte	0x7
	.long	.LASF473
	.long	0x2f2e
	.byte	0x1
	.long	0x3069
	.long	0x306f
	.uleb128 0x2
	.long	0x712c
	.byte	0
	.uleb128 0x6
	.long	.LASF294
	.byte	0x7
	.value	0x3c9
	.byte	0x7
	.long	.LASF474
	.long	0x2fc2
	.byte	0x1
	.long	0x3089
	.long	0x308f
	.uleb128 0x2
	.long	0x712c
	.byte	0
	.uleb128 0x6
	.long	.LASF296
	.byte	0x7
	.value	0x3d3
	.byte	0x7
	.long	.LASF475
	.long	0x2fc2
	.byte	0x1
	.long	0x30a9
	.long	0x30af
	.uleb128 0x2
	.long	0x712c
	.byte	0
	.uleb128 0x6
	.long	.LASF298
	.byte	0x7
	.value	0x3db
	.byte	0x7
	.long	.LASF476
	.long	0x2cda
	.byte	0x1
	.long	0x30c9
	.long	0x30cf
	.uleb128 0x2
	.long	0x712c
	.byte	0
	.uleb128 0x6
	.long	.LASF176
	.byte	0x7
	.value	0x3e1
	.byte	0x7
	.long	.LASF477
	.long	0x2cda
	.byte	0x1
	.long	0x30e9
	.long	0x30ef
	.uleb128 0x2
	.long	0x712c
	.byte	0
	.uleb128 0x13
	.long	.LASF301
	.byte	0x7
	.value	0x3f0
	.byte	0x7
	.long	.LASF478
	.byte	0x1
	.long	0x3105
	.long	0x3110
	.uleb128 0x2
	.long	0x7104
	.uleb128 0x1
	.long	0x2cda
	.byte	0
	.uleb128 0x13
	.long	.LASF301
	.byte	0x7
	.value	0x405
	.byte	0x7
	.long	.LASF479
	.byte	0x1
	.long	0x3126
	.long	0x3136
	.uleb128 0x2
	.long	0x7104
	.uleb128 0x1
	.long	0x2cda
	.uleb128 0x1
	.long	0x7113
	.byte	0
	.uleb128 0x13
	.long	.LASF304
	.byte	0x7
	.value	0x427
	.byte	0x7
	.long	.LASF480
	.byte	0x1
	.long	0x314c
	.long	0x3152
	.uleb128 0x2
	.long	0x7104
	.byte	0
	.uleb128 0x6
	.long	.LASF306
	.byte	0x7
	.value	0x431
	.byte	0x7
	.long	.LASF481
	.long	0x2cda
	.byte	0x1
	.long	0x316c
	.long	0x3172
	.uleb128 0x2
	.long	0x712c
	.byte	0
	.uleb128 0x6
	.long	.LASF308
	.byte	0x7
	.value	0x43b
	.byte	0x7
	.long	.LASF482
	.long	0x5b06
	.byte	0x1
	.long	0x318c
	.long	0x3192
	.uleb128 0x2
	.long	0x712c
	.byte	0
	.uleb128 0x20
	.long	.LASF310
	.byte	0x13
	.byte	0x43
	.byte	0x5
	.long	.LASF483
	.long	0x31a6
	.long	0x31b1
	.uleb128 0x2
	.long	0x7104
	.uleb128 0x1
	.long	0x2cda
	.byte	0
	.uleb128 0x19
	.long	.LASF167
	.byte	0x7
	.value	0x1c3
	.byte	0x32
	.long	0x5557
	.uleb128 0x6
	.long	.LASF312
	.byte	0x7
	.value	0x461
	.byte	0x7
	.long	.LASF484
	.long	0x31b1
	.byte	0x1
	.long	0x31d8
	.long	0x31e3
	.uleb128 0x2
	.long	0x7104
	.uleb128 0x1
	.long	0x2cda
	.byte	0
	.uleb128 0x19
	.long	.LASF170
	.byte	0x7
	.value	0x1c4
	.byte	0x37
	.long	0x5563
	.uleb128 0x6
	.long	.LASF312
	.byte	0x7
	.value	0x474
	.byte	0x7
	.long	.LASF485
	.long	0x31e3
	.byte	0x1
	.long	0x320a
	.long	0x3215
	.uleb128 0x2
	.long	0x712c
	.uleb128 0x1
	.long	0x2cda
	.byte	0
	.uleb128 0x13
	.long	.LASF315
	.byte	0x7
	.value	0x47e
	.byte	0x7
	.long	.LASF486
	.byte	0x2
	.long	0x322b
	.long	0x3236
	.uleb128 0x2
	.long	0x712c
	.uleb128 0x1
	.long	0x2cda
	.byte	0
	.uleb128 0x3b
	.string	"at"
	.value	0x495
	.long	.LASF487
	.long	0x31b1
	.long	0x324c
	.long	0x3257
	.uleb128 0x2
	.long	0x7104
	.uleb128 0x1
	.long	0x2cda
	.byte	0
	.uleb128 0x3b
	.string	"at"
	.value	0x4a8
	.long	.LASF488
	.long	0x31e3
	.long	0x326d
	.long	0x3278
	.uleb128 0x2
	.long	0x712c
	.uleb128 0x1
	.long	0x2cda
	.byte	0
	.uleb128 0x6
	.long	.LASF319
	.byte	0x7
	.value	0x4b4
	.byte	0x7
	.long	.LASF489
	.long	0x31b1
	.byte	0x1
	.long	0x3292
	.long	0x3298
	.uleb128 0x2
	.long	0x7104
	.byte	0
	.uleb128 0x6
	.long	.LASF319
	.byte	0x7
	.value	0x4c0
	.byte	0x7
	.long	.LASF490
	.long	0x31e3
	.byte	0x1
	.long	0x32b2
	.long	0x32b8
	.uleb128 0x2
	.long	0x712c
	.byte	0
	.uleb128 0x6
	.long	.LASF322
	.byte	0x7
	.value	0x4cc
	.byte	0x7
	.long	.LASF491
	.long	0x31b1
	.byte	0x1
	.long	0x32d2
	.long	0x32d8
	.uleb128 0x2
	.long	0x7104
	.byte	0
	.uleb128 0x6
	.long	.LASF322
	.byte	0x7
	.value	0x4d8
	.byte	0x7
	.long	.LASF492
	.long	0x31e3
	.byte	0x1
	.long	0x32f2
	.long	0x32f8
	.uleb128 0x2
	.long	0x712c
	.byte	0
	.uleb128 0x6
	.long	.LASF325
	.byte	0x7
	.value	0x4e7
	.byte	0x7
	.long	.LASF493
	.long	0x705a
	.byte	0x1
	.long	0x3312
	.long	0x3318
	.uleb128 0x2
	.long	0x7104
	.byte	0
	.uleb128 0x6
	.long	.LASF325
	.byte	0x7
	.value	0x4ec
	.byte	0x7
	.long	.LASF494
	.long	0x7073
	.byte	0x1
	.long	0x3332
	.long	0x3338
	.uleb128 0x2
	.long	0x712c
	.byte	0
	.uleb128 0x13
	.long	.LASF328
	.byte	0x7
	.value	0x4fc
	.byte	0x7
	.long	.LASF495
	.byte	0x1
	.long	0x334e
	.long	0x3359
	.uleb128 0x2
	.long	0x7104
	.uleb128 0x1
	.long	0x7113
	.byte	0
	.uleb128 0x13
	.long	.LASF328
	.byte	0x7
	.value	0x50d
	.byte	0x7
	.long	.LASF496
	.byte	0x1
	.long	0x336f
	.long	0x337a
	.uleb128 0x2
	.long	0x7104
	.uleb128 0x1
	.long	0x7136
	.byte	0
	.uleb128 0x13
	.long	.LASF331
	.byte	0x7
	.value	0x525
	.byte	0x7
	.long	.LASF497
	.byte	0x1
	.long	0x3390
	.long	0x3396
	.uleb128 0x2
	.long	0x7104
	.byte	0
	.uleb128 0x17
	.long	.LASF333
	.byte	0x13
	.byte	0x85
	.byte	0x5
	.long	.LASF498
	.long	0x2f01
	.byte	0x1
	.long	0x33af
	.long	0x33bf
	.uleb128 0x2
	.long	0x7104
	.uleb128 0x1
	.long	0x2f2e
	.uleb128 0x1
	.long	0x7113
	.byte	0
	.uleb128 0x6
	.long	.LASF333
	.byte	0x7
	.value	0x56c
	.byte	0x7
	.long	.LASF499
	.long	0x2f01
	.byte	0x1
	.long	0x33d9
	.long	0x33e9
	.uleb128 0x2
	.long	0x7104
	.uleb128 0x1
	.long	0x2f2e
	.uleb128 0x1
	.long	0x7136
	.byte	0
	.uleb128 0x6
	.long	.LASF333
	.byte	0x7
	.value	0x57e
	.byte	0x7
	.long	.LASF500
	.long	0x2f01
	.byte	0x1
	.long	0x3403
	.long	0x3413
	.uleb128 0x2
	.long	0x7104
	.uleb128 0x1
	.long	0x2f2e
	.uleb128 0x1
	.long	0x3739
	.byte	0
	.uleb128 0x6
	.long	.LASF333
	.byte	0x7
	.value	0x598
	.byte	0x7
	.long	.LASF501
	.long	0x2f01
	.byte	0x1
	.long	0x342d
	.long	0x3442
	.uleb128 0x2
	.long	0x7104
	.uleb128 0x1
	.long	0x2f2e
	.uleb128 0x1
	.long	0x2cda
	.uleb128 0x1
	.long	0x7113
	.byte	0
	.uleb128 0x6
	.long	.LASF338
	.byte	0x7
	.value	0x5f9
	.byte	0x7
	.long	.LASF502
	.long	0x2f01
	.byte	0x1
	.long	0x345c
	.long	0x3467
	.uleb128 0x2
	.long	0x7104
	.uleb128 0x1
	.long	0x2f2e
	.byte	0
	.uleb128 0x6
	.long	.LASF338
	.byte	0x7
	.value	0x615
	.byte	0x7
	.long	.LASF503
	.long	0x2f01
	.byte	0x1
	.long	0x3481
	.long	0x3491
	.uleb128 0x2
	.long	0x7104
	.uleb128 0x1
	.long	0x2f2e
	.uleb128 0x1
	.long	0x2f2e
	.byte	0
	.uleb128 0x13
	.long	.LASF87
	.byte	0x7
	.value	0x62d
	.byte	0x7
	.long	.LASF504
	.byte	0x1
	.long	0x34a7
	.long	0x34b2
	.uleb128 0x2
	.long	0x7104
	.uleb128 0x1
	.long	0x7127
	.byte	0
	.uleb128 0x13
	.long	.LASF342
	.byte	0x7
	.value	0x640
	.byte	0x7
	.long	.LASF505
	.byte	0x1
	.long	0x34c8
	.long	0x34ce
	.uleb128 0x2
	.long	0x7104
	.byte	0
	.uleb128 0x13
	.long	.LASF344
	.byte	0x7
	.value	0x6a3
	.byte	0x7
	.long	.LASF506
	.byte	0x2
	.long	0x34e4
	.long	0x34f4
	.uleb128 0x2
	.long	0x7104
	.uleb128 0x1
	.long	0x2cda
	.uleb128 0x1
	.long	0x7113
	.byte	0
	.uleb128 0x13
	.long	.LASF346
	.byte	0x7
	.value	0x6ae
	.byte	0x7
	.long	.LASF507
	.byte	0x2
	.long	0x350a
	.long	0x3515
	.uleb128 0x2
	.long	0x7104
	.uleb128 0x1
	.long	0x2cda
	.byte	0
	.uleb128 0x13
	.long	.LASF348
	.byte	0x13
	.value	0x108
	.byte	0x5
	.long	.LASF508
	.byte	0x2
	.long	0x352b
	.long	0x353b
	.uleb128 0x2
	.long	0x7104
	.uleb128 0x1
	.long	0x55c
	.uleb128 0x1
	.long	0x7113
	.byte	0
	.uleb128 0x13
	.long	.LASF350
	.byte	0x13
	.value	0x20b
	.byte	0x5
	.long	.LASF509
	.byte	0x2
	.long	0x3551
	.long	0x3566
	.uleb128 0x2
	.long	0x7104
	.uleb128 0x1
	.long	0x2f01
	.uleb128 0x1
	.long	0x2cda
	.uleb128 0x1
	.long	0x7113
	.byte	0
	.uleb128 0x13
	.long	.LASF352
	.byte	0x13
	.value	0x272
	.byte	0x5
	.long	.LASF510
	.byte	0x2
	.long	0x357c
	.long	0x3587
	.uleb128 0x2
	.long	0x7104
	.uleb128 0x1
	.long	0x2cda
	.byte	0
	.uleb128 0x6
	.long	.LASF354
	.byte	0x13
	.value	0x2bf
	.byte	0x5
	.long	.LASF511
	.long	0x5b06
	.byte	0x2
	.long	0x35a1
	.long	0x35a7
	.uleb128 0x2
	.long	0x7104
	.byte	0
	.uleb128 0x6
	.long	.LASF356
	.byte	0x13
	.value	0x15e
	.byte	0x5
	.long	.LASF512
	.long	0x2f01
	.byte	0x2
	.long	0x35c1
	.long	0x35d1
	.uleb128 0x2
	.long	0x7104
	.uleb128 0x1
	.long	0x2f2e
	.uleb128 0x1
	.long	0x7136
	.byte	0
	.uleb128 0x6
	.long	.LASF358
	.byte	0x7
	.value	0x75c
	.byte	0x7
	.long	.LASF513
	.long	0x2f01
	.byte	0x2
	.long	0x35eb
	.long	0x35fb
	.uleb128 0x2
	.long	0x7104
	.uleb128 0x1
	.long	0x2f2e
	.uleb128 0x1
	.long	0x7136
	.byte	0
	.uleb128 0x6
	.long	.LASF360
	.byte	0x7
	.value	0x763
	.byte	0x7
	.long	.LASF514
	.long	0x2cda
	.byte	0x2
	.long	0x3615
	.long	0x3625
	.uleb128 0x2
	.long	0x712c
	.uleb128 0x1
	.long	0x2cda
	.uleb128 0x1
	.long	0x2e8
	.byte	0
	.uleb128 0x4b
	.long	.LASF362
	.value	0x76e
	.long	.LASF515
	.long	0x2cda
	.long	0x3643
	.uleb128 0x1
	.long	0x2cda
	.uleb128 0x1
	.long	0x710e
	.byte	0
	.uleb128 0x4b
	.long	.LASF364
	.value	0x777
	.long	.LASF516
	.long	0x2cda
	.long	0x365c
	.uleb128 0x1
	.long	0x713b
	.byte	0
	.uleb128 0x13
	.long	.LASF366
	.byte	0x7
	.value	0x788
	.byte	0x7
	.long	.LASF517
	.byte	0x2
	.long	0x3672
	.long	0x367d
	.uleb128 0x2
	.long	0x7104
	.uleb128 0x1
	.long	0x2bc4
	.byte	0
	.uleb128 0x17
	.long	.LASF368
	.byte	0x13
	.byte	0xaf
	.byte	0x5
	.long	.LASF518
	.long	0x2f01
	.byte	0x2
	.long	0x3696
	.long	0x36a1
	.uleb128 0x2
	.long	0x7104
	.uleb128 0x1
	.long	0x2f01
	.byte	0
	.uleb128 0x17
	.long	.LASF368
	.byte	0x13
	.byte	0xbd
	.byte	0x5
	.long	.LASF519
	.long	0x2f01
	.byte	0x2
	.long	0x36ba
	.long	0x36ca
	.uleb128 0x2
	.long	0x7104
	.uleb128 0x1
	.long	0x2f01
	.uleb128 0x1
	.long	0x2f01
	.byte	0
	.uleb128 0x23
	.long	.LASF371
	.value	0x7a2
	.long	.LASF520
	.long	0x36dd
	.long	0x36ed
	.uleb128 0x2
	.long	0x7104
	.uleb128 0x1
	.long	0x711d
	.uleb128 0x1
	.long	0xb6a
	.byte	0
	.uleb128 0x23
	.long	.LASF371
	.value	0x7ae
	.long	.LASF521
	.long	0x3700
	.long	0x3710
	.uleb128 0x2
	.long	0x7104
	.uleb128 0x1
	.long	0x711d
	.uleb128 0x1
	.long	0x64a
	.byte	0
	.uleb128 0x7
	.string	"_Tp"
	.long	0x3f
	.uleb128 0x4
	.long	.LASF242
	.long	0x25e3
	.byte	0
	.uleb128 0x8
	.long	0x2b38
	.uleb128 0x9
	.long	.LASF377
	.byte	0x3
	.byte	0x80
	.byte	0xb
	.long	0x2b22
	.uleb128 0x8
	.long	0x3728
	.uleb128 0x3e
	.long	.LASF522
	.uleb128 0x3e
	.long	.LASF523
	.uleb128 0x3e
	.long	.LASF524
	.uleb128 0x1f
	.long	.LASF525
	.byte	0x1
	.byte	0x10
	.byte	0xd2
	.byte	0xc
	.long	0x3786
	.uleb128 0x9
	.long	.LASF526
	.byte	0x10
	.byte	0xd4
	.byte	0x2a
	.long	0xba6
	.uleb128 0x9
	.long	.LASF527
	.byte	0x10
	.byte	0xd6
	.byte	0x2b
	.long	0xb58
	.uleb128 0x9
	.long	.LASF164
	.byte	0x10
	.byte	0xd7
	.byte	0x2b
	.long	0x685d
	.uleb128 0x9
	.long	.LASF167
	.byte	0x10
	.byte	0xd8
	.byte	0x2b
	.long	0x6871
	.byte	0
	.uleb128 0x32
	.long	.LASF528
	.byte	0x3
	.value	0x65c
	.long	0x37a9
	.uleb128 0x1e
	.long	.LASF244
	.byte	0x3
	.value	0x65d
	.byte	0x15
	.long	0x172f
	.uleb128 0x7
	.string	"_Tp"
	.long	0x172f
	.byte	0
	.uleb128 0x32
	.long	.LASF529
	.byte	0x3
	.value	0x660
	.long	0x37cc
	.uleb128 0x1e
	.long	.LASF244
	.byte	0x3
	.value	0x661
	.byte	0x15
	.long	0x172f
	.uleb128 0x7
	.string	"_Tp"
	.long	0x692a
	.byte	0
	.uleb128 0x1f
	.long	.LASF530
	.byte	0x1
	.byte	0x10
	.byte	0xdd
	.byte	0xc
	.long	0x37fe
	.uleb128 0x9
	.long	.LASF527
	.byte	0x10
	.byte	0xe1
	.byte	0x2b
	.long	0xb58
	.uleb128 0x9
	.long	.LASF164
	.byte	0x10
	.byte	0xe2
	.byte	0x2b
	.long	0x7073
	.uleb128 0x9
	.long	.LASF167
	.byte	0x10
	.byte	0xe3
	.byte	0x2b
	.long	0x707d
	.byte	0
	.uleb128 0x1f
	.long	.LASF531
	.byte	0x1
	.byte	0x10
	.byte	0xd2
	.byte	0xc
	.long	0x3848
	.uleb128 0x9
	.long	.LASF526
	.byte	0x10
	.byte	0xd4
	.byte	0x2a
	.long	0xba6
	.uleb128 0x9
	.long	.LASF56
	.byte	0x10
	.byte	0xd5
	.byte	0x2b
	.long	0x3f
	.uleb128 0x9
	.long	.LASF527
	.byte	0x10
	.byte	0xd6
	.byte	0x2b
	.long	0xb58
	.uleb128 0x9
	.long	.LASF164
	.byte	0x10
	.byte	0xd7
	.byte	0x2b
	.long	0x705a
	.uleb128 0x9
	.long	.LASF167
	.byte	0x10
	.byte	0xd8
	.byte	0x2b
	.long	0x706e
	.byte	0
	.uleb128 0x1f
	.long	.LASF532
	.byte	0x1
	.byte	0x10
	.byte	0xdd
	.byte	0xc
	.long	0x3886
	.uleb128 0x9
	.long	.LASF526
	.byte	0x10
	.byte	0xdf
	.byte	0x2a
	.long	0xba6
	.uleb128 0x9
	.long	.LASF527
	.byte	0x10
	.byte	0xe1
	.byte	0x2b
	.long	0xb58
	.uleb128 0x9
	.long	.LASF164
	.byte	0x10
	.byte	0xe2
	.byte	0x2b
	.long	0x6876
	.uleb128 0x9
	.long	.LASF167
	.byte	0x10
	.byte	0xe3
	.byte	0x2b
	.long	0x6880
	.byte	0
	.uleb128 0x32
	.long	.LASF533
	.byte	0x3
	.value	0x660
	.long	0x38a9
	.uleb128 0x1e
	.long	.LASF244
	.byte	0x3
	.value	0x661
	.byte	0x15
	.long	0x1428
	.uleb128 0x7
	.string	"_Tp"
	.long	0x90b2
	.byte	0
	.uleb128 0x32
	.long	.LASF534
	.byte	0x3
	.value	0x8b9
	.long	0x38cc
	.uleb128 0x1e
	.long	.LASF244
	.byte	0x3
	.value	0x8ba
	.byte	0x13
	.long	0x705a
	.uleb128 0x7
	.string	"_Tp"
	.long	0x705a
	.byte	0
	.uleb128 0x1f
	.long	.LASF535
	.byte	0x1
	.byte	0x10
	.byte	0xa1
	.byte	0xc
	.long	0x38fb
	.uleb128 0x9
	.long	.LASF526
	.byte	0x10
	.byte	0xa8
	.byte	0x35
	.long	0x5235
	.uleb128 0x9
	.long	.LASF527
	.byte	0x10
	.byte	0xaa
	.byte	0x35
	.long	0x5174
	.uleb128 0x4
	.long	.LASF536
	.long	0x501a
	.byte	0
	.uleb128 0x32
	.long	.LASF537
	.byte	0x3
	.value	0x660
	.long	0x391e
	.uleb128 0x1e
	.long	.LASF244
	.byte	0x3
	.value	0x661
	.byte	0x15
	.long	0x11da
	.uleb128 0x7
	.string	"_Tp"
	.long	0x6894
	.byte	0
	.uleb128 0x32
	.long	.LASF538
	.byte	0x2
	.value	0x19f
	.long	0x39a4
	.uleb128 0xc
	.long	.LASF539
	.byte	0x2
	.value	0x1a4
	.byte	0x2
	.long	.LASF540
	.long	0x685d
	.long	0x3958
	.uleb128 0x7
	.string	"_Tp"
	.long	0x4c27
	.uleb128 0x1
	.long	0x6876
	.uleb128 0x1
	.long	0x6876
	.uleb128 0x1
	.long	0x685d
	.byte	0
	.uleb128 0xc
	.long	.LASF541
	.byte	0x2
	.value	0x1a4
	.byte	0x2
	.long	.LASF542
	.long	0x705a
	.long	0x3986
	.uleb128 0x7
	.string	"_Tp"
	.long	0x3f
	.uleb128 0x1
	.long	0x7073
	.uleb128 0x1
	.long	0x7073
	.uleb128 0x1
	.long	0x705a
	.byte	0
	.uleb128 0x2a
	.long	.LASF543
	.long	0x5b06
	.byte	0
	.uleb128 0x2a
	.long	.LASF544
	.long	0x5b06
	.byte	0x1
	.uleb128 0x4
	.long	.LASF545
	.long	0xba6
	.byte	0
	.uleb128 0x66
	.long	.LASF546
	.byte	0x34
	.long	.LASF548
	.uleb128 0x66
	.long	.LASF547
	.byte	0x37
	.long	.LASF549
	.uleb128 0x5c
	.long	.LASF550
	.byte	0x2c
	.byte	0x4b
	.byte	0x3
	.long	.LASF551
	.long	0x39ce
	.uleb128 0x1
	.long	0x2e8
	.byte	0
	.uleb128 0x54
	.long	.LASF552
	.long	0x3a1d
	.uleb128 0x8f
	.long	.LASF1264
	.byte	0x2d
	.byte	0xf4
	.byte	0xd
	.long	.LASF1265
	.byte	0x1
	.long	0x39ce
	.byte	0x1
	.long	0x39f3
	.byte	0
	.long	0x39fe
	.uleb128 0x2
	.long	0x72d9
	.uleb128 0x2
	.long	0x118
	.byte	0
	.uleb128 0x90
	.long	.LASF552
	.byte	0x2d
	.byte	0xe6
	.byte	0x5
	.long	.LASF553
	.byte	0x1
	.long	0x3a11
	.byte	0
	.uleb128 0x2
	.long	0x72d9
	.uleb128 0x1
	.long	0x2e8
	.byte	0
	.byte	0
	.uleb128 0x37
	.long	.LASF554
	.byte	0x2
	.value	0x395
	.byte	0x5
	.long	.LASF555
	.long	0x3a50
	.uleb128 0x4
	.long	.LASF132
	.long	0x705a
	.uleb128 0x7
	.string	"_Tp"
	.long	0x3f
	.uleb128 0x1
	.long	0x705a
	.uleb128 0x1
	.long	0x705a
	.uleb128 0x1
	.long	0x707d
	.byte	0
	.uleb128 0xc
	.long	.LASF556
	.byte	0x12
	.value	0x549
	.byte	0x5
	.long	.LASF557
	.long	0x6876
	.long	0x3a7d
	.uleb128 0x4
	.long	.LASF536
	.long	0x6876
	.uleb128 0x4
	.long	.LASF558
	.long	0x172f
	.uleb128 0x1
	.long	0x525a
	.byte	0
	.uleb128 0x37
	.long	.LASF559
	.byte	0x2
	.value	0x3c7
	.byte	0x5
	.long	.LASF560
	.long	0x3ab0
	.uleb128 0x4
	.long	.LASF561
	.long	0x705a
	.uleb128 0x7
	.string	"_Tp"
	.long	0x3f
	.uleb128 0x1
	.long	0x705a
	.uleb128 0x1
	.long	0x705a
	.uleb128 0x1
	.long	0x707d
	.byte	0
	.uleb128 0xc
	.long	.LASF562
	.byte	0x2
	.value	0x1e6
	.byte	0x5
	.long	.LASF563
	.long	0x685d
	.long	0x3af1
	.uleb128 0x2a
	.long	.LASF543
	.long	0x5b06
	.byte	0
	.uleb128 0x7
	.string	"_II"
	.long	0x6876
	.uleb128 0x7
	.string	"_OI"
	.long	0x685d
	.uleb128 0x1
	.long	0x6876
	.uleb128 0x1
	.long	0x6876
	.uleb128 0x1
	.long	0x685d
	.byte	0
	.uleb128 0x1c
	.long	.LASF564
	.byte	0x2
	.byte	0x5a
	.byte	0x5
	.long	.LASF565
	.long	0x118
	.long	0x3b27
	.uleb128 0x7
	.string	"_Tp"
	.long	0x4c27
	.uleb128 0x7
	.string	"_Up"
	.long	0x4c27
	.uleb128 0x1
	.long	0x6876
	.uleb128 0x1
	.long	0x6876
	.uleb128 0x1
	.long	0x55c
	.byte	0
	.uleb128 0xc
	.long	.LASF566
	.byte	0x2
	.value	0x20f
	.byte	0x5
	.long	.LASF567
	.long	0x685d
	.long	0x3b68
	.uleb128 0x2a
	.long	.LASF543
	.long	0x5b06
	.byte	0
	.uleb128 0x7
	.string	"_II"
	.long	0x525a
	.uleb128 0x7
	.string	"_OI"
	.long	0x685d
	.uleb128 0x1
	.long	0x525a
	.uleb128 0x1
	.long	0x525a
	.uleb128 0x1
	.long	0x685d
	.byte	0
	.uleb128 0xc
	.long	.LASF568
	.byte	0x14
	.value	0x232
	.byte	0x5
	.long	.LASF569
	.long	0x525a
	.long	0x3b8c
	.uleb128 0x4
	.long	.LASF536
	.long	0x525a
	.uleb128 0x1
	.long	0x525a
	.byte	0
	.uleb128 0xc
	.long	.LASF570
	.byte	0x2
	.value	0x454
	.byte	0x5
	.long	.LASF571
	.long	0x705a
	.long	0x3bd1
	.uleb128 0x4
	.long	.LASF572
	.long	0x705a
	.uleb128 0x4
	.long	.LASF155
	.long	0x5e
	.uleb128 0x7
	.string	"_Tp"
	.long	0x3f
	.uleb128 0x1
	.long	0x705a
	.uleb128 0x1
	.long	0x5e
	.uleb128 0x1
	.long	0x707d
	.uleb128 0x1
	.long	0xba6
	.byte	0
	.uleb128 0x1c
	.long	.LASF573
	.byte	0x10
	.byte	0xee
	.byte	0x5
	.long	.LASF574
	.long	0x380b
	.long	0x3bf4
	.uleb128 0x4
	.long	.LASF575
	.long	0x705a
	.uleb128 0x1
	.long	0x7203
	.byte	0
	.uleb128 0xc
	.long	.LASF576
	.byte	0x2
	.value	0x14f
	.byte	0x5
	.long	.LASF577
	.long	0x685d
	.long	0x3c1d
	.uleb128 0x4
	.long	.LASF536
	.long	0x685d
	.uleb128 0x1
	.long	0x71c7
	.uleb128 0x1
	.long	0x685d
	.byte	0
	.uleb128 0xc
	.long	.LASF578
	.byte	0x2
	.value	0x209
	.byte	0x5
	.long	.LASF579
	.long	0x685d
	.long	0x3c5e
	.uleb128 0x2a
	.long	.LASF543
	.long	0x5b06
	.byte	0
	.uleb128 0x7
	.string	"_II"
	.long	0x6876
	.uleb128 0x7
	.string	"_OI"
	.long	0x685d
	.uleb128 0x1
	.long	0x6876
	.uleb128 0x1
	.long	0x6876
	.uleb128 0x1
	.long	0x685d
	.byte	0
	.uleb128 0xc
	.long	.LASF580
	.byte	0x2
	.value	0x139
	.byte	0x5
	.long	.LASF581
	.long	0x685d
	.long	0x3c82
	.uleb128 0x4
	.long	.LASF536
	.long	0x685d
	.uleb128 0x1
	.long	0x685d
	.byte	0
	.uleb128 0xc
	.long	.LASF582
	.byte	0x2
	.value	0x139
	.byte	0x5
	.long	.LASF583
	.long	0x6876
	.long	0x3ca6
	.uleb128 0x4
	.long	.LASF536
	.long	0x6876
	.uleb128 0x1
	.long	0x6876
	.byte	0
	.uleb128 0xc
	.long	.LASF584
	.byte	0x2
	.value	0x263
	.byte	0x5
	.long	.LASF585
	.long	0x685d
	.long	0x3cdd
	.uleb128 0x7
	.string	"_II"
	.long	0x525a
	.uleb128 0x7
	.string	"_OI"
	.long	0x685d
	.uleb128 0x1
	.long	0x525a
	.uleb128 0x1
	.long	0x525a
	.uleb128 0x1
	.long	0x685d
	.byte	0
	.uleb128 0xc
	.long	.LASF586
	.byte	0x2
	.value	0x477
	.byte	0x5
	.long	.LASF587
	.long	0x705a
	.long	0x3d1d
	.uleb128 0x7
	.string	"_OI"
	.long	0x705a
	.uleb128 0x4
	.long	.LASF155
	.long	0x5e
	.uleb128 0x7
	.string	"_Tp"
	.long	0x3f
	.uleb128 0x1
	.long	0x705a
	.uleb128 0x1
	.long	0x5e
	.uleb128 0x1
	.long	0x707d
	.byte	0
	.uleb128 0x3d
	.long	.LASF588
	.byte	0xe
	.byte	0x6d
	.byte	0x5
	.long	.LASF589
	.long	0x3d41
	.uleb128 0x7
	.string	"_Tp"
	.long	0x3f
	.uleb128 0x67
	.long	.LASF1158
	.uleb128 0x1
	.long	0x705a
	.byte	0
	.uleb128 0x1c
	.long	.LASF590
	.byte	0xf
	.byte	0x31
	.byte	0x5
	.long	.LASF591
	.long	0x705a
	.long	0x3d64
	.uleb128 0x7
	.string	"_Tp"
	.long	0x3f
	.uleb128 0x1
	.long	0x706e
	.byte	0
	.uleb128 0xc
	.long	.LASF592
	.byte	0x2
	.value	0x20f
	.byte	0x5
	.long	.LASF593
	.long	0x685d
	.long	0x3da5
	.uleb128 0x2a
	.long	.LASF543
	.long	0x5b06
	.byte	0
	.uleb128 0x7
	.string	"_II"
	.long	0x6876
	.uleb128 0x7
	.string	"_OI"
	.long	0x685d
	.uleb128 0x1
	.long	0x6876
	.uleb128 0x1
	.long	0x6876
	.uleb128 0x1
	.long	0x685d
	.byte	0
	.uleb128 0xc
	.long	.LASF594
	.byte	0x14
	.value	0x232
	.byte	0x5
	.long	.LASF595
	.long	0x6876
	.long	0x3dc9
	.uleb128 0x4
	.long	.LASF536
	.long	0x6876
	.uleb128 0x1
	.long	0x6876
	.byte	0
	.uleb128 0xc
	.long	.LASF596
	.byte	0x2
	.value	0x4b4
	.byte	0x5
	.long	.LASF597
	.long	0x5b06
	.long	0x3e00
	.uleb128 0x4
	.long	.LASF598
	.long	0x685d
	.uleb128 0x4
	.long	.LASF599
	.long	0x685d
	.uleb128 0x1
	.long	0x685d
	.uleb128 0x1
	.long	0x685d
	.uleb128 0x1
	.long	0x685d
	.byte	0
	.uleb128 0xc
	.long	.LASF600
	.byte	0x12
	.value	0x549
	.byte	0x5
	.long	.LASF601
	.long	0x685d
	.long	0x3e2d
	.uleb128 0x4
	.long	.LASF536
	.long	0x685d
	.uleb128 0x4
	.long	.LASF558
	.long	0x172f
	.uleb128 0x1
	.long	0x501a
	.byte	0
	.uleb128 0x1e
	.long	.LASF602
	.byte	0x3
	.value	0x8c0
	.byte	0xb
	.long	0x38b5
	.uleb128 0xc
	.long	.LASF603
	.byte	0x11
	.value	0x44c
	.byte	0x5
	.long	.LASF604
	.long	0x3e2d
	.long	0x3e76
	.uleb128 0x7
	.string	"_Tp"
	.long	0x3f
	.uleb128 0x7
	.string	"_Up"
	.long	0x3f
	.uleb128 0x1
	.long	0x705a
	.uleb128 0x1
	.long	0x705a
	.uleb128 0x1
	.long	0x705a
	.uleb128 0x1
	.long	0x7091
	.byte	0
	.uleb128 0xc
	.long	.LASF605
	.byte	0x2
	.value	0x139
	.byte	0x5
	.long	.LASF606
	.long	0x705a
	.long	0x3e9a
	.uleb128 0x4
	.long	.LASF536
	.long	0x705a
	.uleb128 0x1
	.long	0x705a
	.byte	0
	.uleb128 0xc
	.long	.LASF607
	.byte	0x2
	.value	0x263
	.byte	0x5
	.long	.LASF608
	.long	0x685d
	.long	0x3ed1
	.uleb128 0x7
	.string	"_II"
	.long	0x6876
	.uleb128 0x7
	.string	"_OI"
	.long	0x685d
	.uleb128 0x1
	.long	0x6876
	.uleb128 0x1
	.long	0x6876
	.uleb128 0x1
	.long	0x685d
	.byte	0
	.uleb128 0xc
	.long	.LASF609
	.byte	0x2
	.value	0x4c0
	.byte	0x5
	.long	.LASF610
	.long	0x5b06
	.long	0x3f08
	.uleb128 0x4
	.long	.LASF598
	.long	0x501a
	.uleb128 0x4
	.long	.LASF599
	.long	0x501a
	.uleb128 0x1
	.long	0x501a
	.uleb128 0x1
	.long	0x501a
	.uleb128 0x1
	.long	0x501a
	.byte	0
	.uleb128 0x1c
	.long	.LASF611
	.byte	0xc
	.byte	0x63
	.byte	0x5
	.long	.LASF612
	.long	0x38e5
	.long	0x3f35
	.uleb128 0x4
	.long	.LASF613
	.long	0x501a
	.uleb128 0x1
	.long	0x501a
	.uleb128 0x1
	.long	0x501a
	.uleb128 0x1
	.long	0xba6
	.byte	0
	.uleb128 0x1c
	.long	.LASF614
	.byte	0x10
	.byte	0xee
	.byte	0x5
	.long	.LASF615
	.long	0x38d9
	.long	0x3f58
	.uleb128 0x4
	.long	.LASF575
	.long	0x501a
	.uleb128 0x1
	.long	0x7b93
	.byte	0
	.uleb128 0xc
	.long	.LASF616
	.byte	0x2
	.value	0x1e6
	.byte	0x5
	.long	.LASF617
	.long	0x705a
	.long	0x3f99
	.uleb128 0x2a
	.long	.LASF543
	.long	0x5b06
	.byte	0
	.uleb128 0x7
	.string	"_II"
	.long	0x7073
	.uleb128 0x7
	.string	"_OI"
	.long	0x705a
	.uleb128 0x1
	.long	0x7073
	.uleb128 0x1
	.long	0x7073
	.uleb128 0x1
	.long	0x705a
	.byte	0
	.uleb128 0x1c
	.long	.LASF618
	.byte	0xf
	.byte	0x68
	.byte	0x5
	.long	.LASF619
	.long	0x80d1
	.long	0x3fbc
	.uleb128 0x7
	.string	"_Tp"
	.long	0x6894
	.uleb128 0x1
	.long	0x6894
	.byte	0
	.uleb128 0x1c
	.long	.LASF620
	.byte	0x11
	.byte	0xa3
	.byte	0x5
	.long	.LASF621
	.long	0x685d
	.long	0x3ff2
	.uleb128 0x4
	.long	.LASF148
	.long	0x525a
	.uleb128 0x4
	.long	.LASF132
	.long	0x685d
	.uleb128 0x1
	.long	0x525a
	.uleb128 0x1
	.long	0x525a
	.uleb128 0x1
	.long	0x685d
	.byte	0
	.uleb128 0xc
	.long	.LASF622
	.byte	0x11
	.value	0x467
	.byte	0x5
	.long	.LASF623
	.long	0x705a
	.long	0x4037
	.uleb128 0x4
	.long	.LASF148
	.long	0x705a
	.uleb128 0x4
	.long	.LASF132
	.long	0x705a
	.uleb128 0x4
	.long	.LASF624
	.long	0x25e3
	.uleb128 0x1
	.long	0x705a
	.uleb128 0x1
	.long	0x705a
	.uleb128 0x1
	.long	0x705a
	.uleb128 0x1
	.long	0x7091
	.byte	0
	.uleb128 0x1c
	.long	.LASF625
	.byte	0x2
	.byte	0xfe
	.byte	0x5
	.long	.LASF626
	.long	0x8331
	.long	0x405f
	.uleb128 0x7
	.string	"_Tp"
	.long	0x5e
	.uleb128 0x1
	.long	0x8331
	.uleb128 0x1
	.long	0x8331
	.byte	0
	.uleb128 0xc
	.long	.LASF627
	.byte	0x11
	.value	0x2b3
	.byte	0x5
	.long	.LASF628
	.long	0x705a
	.long	0x4091
	.uleb128 0x4
	.long	.LASF132
	.long	0x705a
	.uleb128 0x4
	.long	.LASF155
	.long	0x5e
	.uleb128 0x1
	.long	0x705a
	.uleb128 0x1
	.long	0x5e
	.byte	0
	.uleb128 0x1c
	.long	.LASF629
	.byte	0x2
	.byte	0xe6
	.byte	0x5
	.long	.LASF630
	.long	0x8331
	.long	0x40b9
	.uleb128 0x7
	.string	"_Tp"
	.long	0x5e
	.uleb128 0x1
	.long	0x8331
	.uleb128 0x1
	.long	0x8331
	.byte	0
	.uleb128 0xc
	.long	.LASF631
	.byte	0x2
	.value	0x609
	.byte	0x5
	.long	.LASF632
	.long	0x5b06
	.long	0x40f0
	.uleb128 0x4
	.long	.LASF598
	.long	0x501a
	.uleb128 0x4
	.long	.LASF599
	.long	0x501a
	.uleb128 0x1
	.long	0x501a
	.uleb128 0x1
	.long	0x501a
	.uleb128 0x1
	.long	0x501a
	.byte	0
	.uleb128 0x1c
	.long	.LASF633
	.byte	0xc
	.byte	0x93
	.byte	0x5
	.long	.LASF634
	.long	0x38e5
	.long	0x4118
	.uleb128 0x4
	.long	.LASF148
	.long	0x501a
	.uleb128 0x1
	.long	0x501a
	.uleb128 0x1
	.long	0x501a
	.byte	0
	.uleb128 0xc
	.long	.LASF635
	.byte	0x2
	.value	0x148
	.byte	0x5
	.long	.LASF636
	.long	0x559c
	.long	0x414a
	.uleb128 0x4
	.long	.LASF637
	.long	0x559c
	.uleb128 0x7
	.string	"_To"
	.long	0x705a
	.uleb128 0x1
	.long	0x559c
	.uleb128 0x1
	.long	0x705a
	.byte	0
	.uleb128 0xc
	.long	.LASF638
	.byte	0x2
	.value	0x209
	.byte	0x5
	.long	.LASF639
	.long	0x705a
	.long	0x418b
	.uleb128 0x2a
	.long	.LASF543
	.long	0x5b06
	.byte	0
	.uleb128 0x7
	.string	"_II"
	.long	0x7073
	.uleb128 0x7
	.string	"_OI"
	.long	0x705a
	.uleb128 0x1
	.long	0x7073
	.uleb128 0x1
	.long	0x7073
	.uleb128 0x1
	.long	0x705a
	.byte	0
	.uleb128 0xc
	.long	.LASF640
	.byte	0x12
	.value	0x549
	.byte	0x5
	.long	.LASF641
	.long	0x705a
	.long	0x41b8
	.uleb128 0x4
	.long	.LASF536
	.long	0x705a
	.uleb128 0x4
	.long	.LASF558
	.long	0x2b38
	.uleb128 0x1
	.long	0x559c
	.byte	0
	.uleb128 0xc
	.long	.LASF642
	.byte	0x12
	.value	0x549
	.byte	0x5
	.long	.LASF643
	.long	0x7073
	.long	0x41e5
	.uleb128 0x4
	.long	.LASF536
	.long	0x7073
	.uleb128 0x4
	.long	.LASF558
	.long	0x2b38
	.uleb128 0x1
	.long	0x57cf
	.byte	0
	.uleb128 0x37
	.long	.LASF644
	.byte	0x9
	.value	0x2c6
	.byte	0x5
	.long	.LASF645
	.long	0x420a
	.uleb128 0x4
	.long	.LASF242
	.long	0x11da
	.uleb128 0x1
	.long	0x6894
	.uleb128 0x1
	.long	0x6894
	.byte	0
	.uleb128 0xc
	.long	.LASF646
	.byte	0x11
	.value	0x16d
	.byte	0x5
	.long	.LASF647
	.long	0x685d
	.long	0x424f
	.uleb128 0x4
	.long	.LASF148
	.long	0x525a
	.uleb128 0x4
	.long	.LASF132
	.long	0x685d
	.uleb128 0x7
	.string	"_Tp"
	.long	0x4c27
	.uleb128 0x1
	.long	0x525a
	.uleb128 0x1
	.long	0x525a
	.uleb128 0x1
	.long	0x685d
	.uleb128 0x1
	.long	0x6894
	.byte	0
	.uleb128 0xc
	.long	.LASF648
	.byte	0x11
	.value	0x2fc
	.byte	0x5
	.long	.LASF649
	.long	0x705a
	.long	0x428f
	.uleb128 0x4
	.long	.LASF132
	.long	0x705a
	.uleb128 0x4
	.long	.LASF155
	.long	0x5e
	.uleb128 0x7
	.string	"_Tp"
	.long	0x3f
	.uleb128 0x1
	.long	0x705a
	.uleb128 0x1
	.long	0x5e
	.uleb128 0x1
	.long	0x7091
	.byte	0
	.uleb128 0x1c
	.long	.LASF650
	.byte	0x11
	.byte	0xa3
	.byte	0x5
	.long	.LASF651
	.long	0x685d
	.long	0x42c5
	.uleb128 0x4
	.long	.LASF148
	.long	0x6876
	.uleb128 0x4
	.long	.LASF132
	.long	0x685d
	.uleb128 0x1
	.long	0x6876
	.uleb128 0x1
	.long	0x6876
	.uleb128 0x1
	.long	0x685d
	.byte	0
	.uleb128 0xc
	.long	.LASF652
	.byte	0x2
	.value	0x63b
	.byte	0x5
	.long	.LASF653
	.long	0x5b06
	.long	0x4301
	.uleb128 0x4
	.long	.LASF598
	.long	0x501a
	.uleb128 0x4
	.long	.LASF599
	.long	0x501a
	.uleb128 0x1
	.long	0x501a
	.uleb128 0x1
	.long	0x501a
	.uleb128 0x1
	.long	0x501a
	.uleb128 0x1
	.long	0x501a
	.byte	0
	.uleb128 0xc
	.long	.LASF654
	.byte	0x2
	.value	0x20f
	.byte	0x5
	.long	.LASF655
	.long	0x559c
	.long	0x4342
	.uleb128 0x2a
	.long	.LASF543
	.long	0x5b06
	.byte	0
	.uleb128 0x7
	.string	"_II"
	.long	0x57cf
	.uleb128 0x7
	.string	"_OI"
	.long	0x559c
	.uleb128 0x1
	.long	0x57cf
	.uleb128 0x1
	.long	0x57cf
	.uleb128 0x1
	.long	0x559c
	.byte	0
	.uleb128 0xc
	.long	.LASF656
	.byte	0x14
	.value	0x232
	.byte	0x5
	.long	.LASF657
	.long	0x57cf
	.long	0x4366
	.uleb128 0x4
	.long	.LASF536
	.long	0x57cf
	.uleb128 0x1
	.long	0x57cf
	.byte	0
	.uleb128 0x1c
	.long	.LASF658
	.byte	0xf
	.byte	0x68
	.byte	0x5
	.long	.LASF659
	.long	0x90ad
	.long	0x4389
	.uleb128 0x7
	.string	"_Tp"
	.long	0x90b2
	.uleb128 0x1
	.long	0x90b2
	.byte	0
	.uleb128 0xc
	.long	.LASF660
	.byte	0x11
	.value	0x16d
	.byte	0x5
	.long	.LASF661
	.long	0x685d
	.long	0x43ce
	.uleb128 0x4
	.long	.LASF148
	.long	0x6876
	.uleb128 0x4
	.long	.LASF132
	.long	0x685d
	.uleb128 0x7
	.string	"_Tp"
	.long	0x4c27
	.uleb128 0x1
	.long	0x6876
	.uleb128 0x1
	.long	0x6876
	.uleb128 0x1
	.long	0x685d
	.uleb128 0x1
	.long	0x6894
	.byte	0
	.uleb128 0x1c
	.long	.LASF662
	.byte	0xc
	.byte	0x63
	.byte	0x5
	.long	.LASF663
	.long	0x3861
	.long	0x43fb
	.uleb128 0x4
	.long	.LASF613
	.long	0x6876
	.uleb128 0x1
	.long	0x6876
	.uleb128 0x1
	.long	0x6876
	.uleb128 0x1
	.long	0xba6
	.byte	0
	.uleb128 0x1c
	.long	.LASF664
	.byte	0x10
	.byte	0xee
	.byte	0x5
	.long	.LASF665
	.long	0x3855
	.long	0x441e
	.uleb128 0x4
	.long	.LASF575
	.long	0x6876
	.uleb128 0x1
	.long	0x7221
	.byte	0
	.uleb128 0xc
	.long	.LASF631
	.byte	0x2
	.value	0x682
	.byte	0x5
	.long	.LASF666
	.long	0x5b06
	.long	0x445a
	.uleb128 0x4
	.long	.LASF598
	.long	0x501a
	.uleb128 0x4
	.long	.LASF599
	.long	0x501a
	.uleb128 0x1
	.long	0x501a
	.uleb128 0x1
	.long	0x501a
	.uleb128 0x1
	.long	0x501a
	.uleb128 0x1
	.long	0x501a
	.byte	0
	.uleb128 0xc
	.long	.LASF667
	.byte	0xd
	.value	0xec5
	.byte	0x5
	.long	.LASF668
	.long	0x9fe1
	.long	0x4491
	.uleb128 0x4
	.long	.LASF669
	.long	0x501a
	.uleb128 0x4
	.long	.LASF670
	.long	0x9fe1
	.uleb128 0x1
	.long	0x501a
	.uleb128 0x1
	.long	0x501a
	.uleb128 0x1
	.long	0x9fe1
	.byte	0
	.uleb128 0xc
	.long	.LASF671
	.byte	0x2
	.value	0x263
	.byte	0x5
	.long	.LASF672
	.long	0x559c
	.long	0x44c8
	.uleb128 0x7
	.string	"_II"
	.long	0x57cf
	.uleb128 0x7
	.string	"_OI"
	.long	0x559c
	.uleb128 0x1
	.long	0x57cf
	.uleb128 0x1
	.long	0x57cf
	.uleb128 0x1
	.long	0x559c
	.byte	0
	.uleb128 0x1c
	.long	.LASF673
	.byte	0xf
	.byte	0x68
	.byte	0x5
	.long	.LASF674
	.long	0x98a8
	.long	0x44eb
	.uleb128 0x7
	.string	"_Tp"
	.long	0x692a
	.uleb128 0x1
	.long	0x692a
	.byte	0
	.uleb128 0x1c
	.long	.LASF675
	.byte	0xf
	.byte	0x68
	.byte	0x5
	.long	.LASF676
	.long	0x9938
	.long	0x450e
	.uleb128 0x7
	.string	"_Tp"
	.long	0x172f
	.uleb128 0x1
	.long	0x6920
	.byte	0
	.uleb128 0x3d
	.long	.LASF677
	.byte	0xe
	.byte	0xb6
	.byte	0x5
	.long	.LASF678
	.long	0x4532
	.uleb128 0x4
	.long	.LASF132
	.long	0x685d
	.uleb128 0x1
	.long	0x685d
	.uleb128 0x1
	.long	0x685d
	.byte	0
	.uleb128 0x3d
	.long	.LASF679
	.byte	0xe
	.byte	0xb6
	.byte	0x5
	.long	.LASF680
	.long	0x4556
	.uleb128 0x4
	.long	.LASF132
	.long	0x705a
	.uleb128 0x1
	.long	0x705a
	.uleb128 0x1
	.long	0x705a
	.byte	0
	.uleb128 0xc
	.long	.LASF681
	.byte	0xd
	.value	0xec5
	.byte	0x5
	.long	.LASF682
	.long	0xa4f7
	.long	0x458d
	.uleb128 0x4
	.long	.LASF669
	.long	0x501a
	.uleb128 0x4
	.long	.LASF670
	.long	0xa4f7
	.uleb128 0x1
	.long	0x501a
	.uleb128 0x1
	.long	0x501a
	.uleb128 0x1
	.long	0xa4f7
	.byte	0
	.uleb128 0x1c
	.long	.LASF683
	.byte	0xc
	.byte	0x93
	.byte	0x5
	.long	.LASF684
	.long	0x3861
	.long	0x45b5
	.uleb128 0x4
	.long	.LASF148
	.long	0x6876
	.uleb128 0x1
	.long	0x6876
	.uleb128 0x1
	.long	0x6876
	.byte	0
	.uleb128 0x37
	.long	.LASF685
	.byte	0x9
	.value	0x34f
	.byte	0x5
	.long	.LASF686
	.long	0x45e8
	.uleb128 0x4
	.long	.LASF132
	.long	0x685d
	.uleb128 0x7
	.string	"_Tp"
	.long	0x4c27
	.uleb128 0x1
	.long	0x685d
	.uleb128 0x1
	.long	0x685d
	.uleb128 0x1
	.long	0x6894
	.byte	0
	.uleb128 0x37
	.long	.LASF687
	.byte	0x9
	.value	0x34f
	.byte	0x5
	.long	.LASF688
	.long	0x461b
	.uleb128 0x4
	.long	.LASF132
	.long	0x705a
	.uleb128 0x7
	.string	"_Tp"
	.long	0x3f
	.uleb128 0x1
	.long	0x705a
	.uleb128 0x1
	.long	0x705a
	.uleb128 0x1
	.long	0x7091
	.byte	0
	.uleb128 0xc
	.long	.LASF689
	.byte	0x2a
	.value	0x20b
	.byte	0x5
	.long	.LASF690
	.long	0x66de
	.long	0x4644
	.uleb128 0x4
	.long	.LASF376
	.long	0x879
	.uleb128 0x1
	.long	0x66de
	.uleb128 0x1
	.long	0x10c
	.byte	0
	.uleb128 0x68
	.long	.LASF691
	.byte	0x2
	.value	0x3f1
	.byte	0x3
	.long	.LASF692
	.long	0x5e
	.uleb128 0x1
	.long	0x5e
	.byte	0
	.byte	0
	.uleb128 0x12
	.long	.LASF693
	.byte	0x2e
	.value	0x11d
	.byte	0xf
	.long	0xa8
	.long	0x4673
	.uleb128 0x1
	.long	0x118
	.byte	0
	.uleb128 0x12
	.long	.LASF694
	.byte	0x2e
	.value	0x2e8
	.byte	0xf
	.long	0xa8
	.long	0x468a
	.uleb128 0x1
	.long	0x468a
	.byte	0
	.uleb128 0xb
	.long	0x142
	.uleb128 0x12
	.long	.LASF695
	.byte	0x2e
	.value	0x305
	.byte	0x11
	.long	0x46b0
	.long	0x46b0
	.uleb128 0x1
	.long	0x46b0
	.uleb128 0x1
	.long	0x118
	.uleb128 0x1
	.long	0x468a
	.byte	0
	.uleb128 0xb
	.long	0x46b5
	.uleb128 0x27
	.byte	0x4
	.byte	0x5
	.long	.LASF696
	.uleb128 0x8
	.long	0x46b5
	.uleb128 0x12
	.long	.LASF697
	.byte	0x2e
	.value	0x2f6
	.byte	0xf
	.long	0xa8
	.long	0x46dd
	.uleb128 0x1
	.long	0x46b5
	.uleb128 0x1
	.long	0x468a
	.byte	0
	.uleb128 0x12
	.long	.LASF698
	.byte	0x2e
	.value	0x30c
	.byte	0xc
	.long	0x118
	.long	0x46f9
	.uleb128 0x1
	.long	0x46f9
	.uleb128 0x1
	.long	0x468a
	.byte	0
	.uleb128 0xb
	.long	0x46bc
	.uleb128 0x12
	.long	.LASF699
	.byte	0x2e
	.value	0x24c
	.byte	0xc
	.long	0x118
	.long	0x471a
	.uleb128 0x1
	.long	0x468a
	.uleb128 0x1
	.long	0x118
	.byte	0
	.uleb128 0x12
	.long	.LASF700
	.byte	0x2e
	.value	0x253
	.byte	0xc
	.long	0x118
	.long	0x4737
	.uleb128 0x1
	.long	0x468a
	.uleb128 0x1
	.long	0x46f9
	.uleb128 0x40
	.byte	0
	.uleb128 0xc
	.long	.LASF701
	.byte	0x2e
	.value	0x291
	.byte	0xc
	.long	.LASF702
	.long	0x118
	.long	0x4758
	.uleb128 0x1
	.long	0x468a
	.uleb128 0x1
	.long	0x46f9
	.uleb128 0x40
	.byte	0
	.uleb128 0x12
	.long	.LASF703
	.byte	0x2e
	.value	0x2e9
	.byte	0xf
	.long	0xa8
	.long	0x476f
	.uleb128 0x1
	.long	0x468a
	.byte	0
	.uleb128 0x55
	.long	.LASF958
	.byte	0x2e
	.value	0x2ef
	.byte	0xf
	.long	0xa8
	.uleb128 0x12
	.long	.LASF704
	.byte	0x2e
	.value	0x134
	.byte	0xf
	.long	0x52
	.long	0x479d
	.uleb128 0x1
	.long	0x2e8
	.uleb128 0x1
	.long	0x52
	.uleb128 0x1
	.long	0x479d
	.byte	0
	.uleb128 0xb
	.long	0x131
	.uleb128 0x12
	.long	.LASF705
	.byte	0x2e
	.value	0x129
	.byte	0xf
	.long	0x52
	.long	0x47c8
	.uleb128 0x1
	.long	0x46b0
	.uleb128 0x1
	.long	0x2e8
	.uleb128 0x1
	.long	0x52
	.uleb128 0x1
	.long	0x479d
	.byte	0
	.uleb128 0x12
	.long	.LASF706
	.byte	0x2e
	.value	0x125
	.byte	0xc
	.long	0x118
	.long	0x47df
	.uleb128 0x1
	.long	0x47df
	.byte	0
	.uleb128 0xb
	.long	0x13d
	.uleb128 0x12
	.long	.LASF707
	.byte	0x2e
	.value	0x152
	.byte	0xf
	.long	0x52
	.long	0x480a
	.uleb128 0x1
	.long	0x46b0
	.uleb128 0x1
	.long	0x480a
	.uleb128 0x1
	.long	0x52
	.uleb128 0x1
	.long	0x479d
	.byte	0
	.uleb128 0xb
	.long	0x2e8
	.uleb128 0x12
	.long	.LASF708
	.byte	0x2e
	.value	0x2f7
	.byte	0xf
	.long	0xa8
	.long	0x482b
	.uleb128 0x1
	.long	0x46b5
	.uleb128 0x1
	.long	0x468a
	.byte	0
	.uleb128 0x12
	.long	.LASF709
	.byte	0x2e
	.value	0x2fd
	.byte	0xf
	.long	0xa8
	.long	0x4842
	.uleb128 0x1
	.long	0x46b5
	.byte	0
	.uleb128 0x12
	.long	.LASF710
	.byte	0x2e
	.value	0x25d
	.byte	0xc
	.long	0x118
	.long	0x4864
	.uleb128 0x1
	.long	0x46b0
	.uleb128 0x1
	.long	0x52
	.uleb128 0x1
	.long	0x46f9
	.uleb128 0x40
	.byte	0
	.uleb128 0xc
	.long	.LASF711
	.byte	0x2e
	.value	0x298
	.byte	0xc
	.long	.LASF712
	.long	0x118
	.long	0x4885
	.uleb128 0x1
	.long	0x46f9
	.uleb128 0x1
	.long	0x46f9
	.uleb128 0x40
	.byte	0
	.uleb128 0x12
	.long	.LASF713
	.byte	0x2e
	.value	0x314
	.byte	0xf
	.long	0xa8
	.long	0x48a1
	.uleb128 0x1
	.long	0xa8
	.uleb128 0x1
	.long	0x468a
	.byte	0
	.uleb128 0x12
	.long	.LASF714
	.byte	0x2e
	.value	0x265
	.byte	0xc
	.long	0x118
	.long	0x48c2
	.uleb128 0x1
	.long	0x468a
	.uleb128 0x1
	.long	0x46f9
	.uleb128 0x1
	.long	0x48c2
	.byte	0
	.uleb128 0xb
	.long	0x6a
	.uleb128 0xc
	.long	.LASF715
	.byte	0x2e
	.value	0x2c7
	.byte	0xc
	.long	.LASF716
	.long	0x118
	.long	0x48ec
	.uleb128 0x1
	.long	0x468a
	.uleb128 0x1
	.long	0x46f9
	.uleb128 0x1
	.long	0x48c2
	.byte	0
	.uleb128 0x12
	.long	.LASF717
	.byte	0x2e
	.value	0x272
	.byte	0xc
	.long	0x118
	.long	0x4912
	.uleb128 0x1
	.long	0x46b0
	.uleb128 0x1
	.long	0x52
	.uleb128 0x1
	.long	0x46f9
	.uleb128 0x1
	.long	0x48c2
	.byte	0
	.uleb128 0xc
	.long	.LASF718
	.byte	0x2e
	.value	0x2ce
	.byte	0xc
	.long	.LASF719
	.long	0x118
	.long	0x4937
	.uleb128 0x1
	.long	0x46f9
	.uleb128 0x1
	.long	0x46f9
	.uleb128 0x1
	.long	0x48c2
	.byte	0
	.uleb128 0x12
	.long	.LASF720
	.byte	0x2e
	.value	0x26d
	.byte	0xc
	.long	0x118
	.long	0x4953
	.uleb128 0x1
	.long	0x46f9
	.uleb128 0x1
	.long	0x48c2
	.byte	0
	.uleb128 0xc
	.long	.LASF721
	.byte	0x2e
	.value	0x2cb
	.byte	0xc
	.long	.LASF722
	.long	0x118
	.long	0x4973
	.uleb128 0x1
	.long	0x46f9
	.uleb128 0x1
	.long	0x48c2
	.byte	0
	.uleb128 0x12
	.long	.LASF723
	.byte	0x2e
	.value	0x12e
	.byte	0xf
	.long	0x52
	.long	0x4994
	.uleb128 0x1
	.long	0x4994
	.uleb128 0x1
	.long	0x46b5
	.uleb128 0x1
	.long	0x479d
	.byte	0
	.uleb128 0xb
	.long	0x10c
	.uleb128 0x1a
	.long	.LASF724
	.byte	0x2e
	.byte	0x61
	.byte	0x11
	.long	0x46b0
	.long	0x49b4
	.uleb128 0x1
	.long	0x46b0
	.uleb128 0x1
	.long	0x46f9
	.byte	0
	.uleb128 0x1a
	.long	.LASF725
	.byte	0x2e
	.byte	0x6a
	.byte	0xc
	.long	0x118
	.long	0x49cf
	.uleb128 0x1
	.long	0x46f9
	.uleb128 0x1
	.long	0x46f9
	.byte	0
	.uleb128 0x1a
	.long	.LASF726
	.byte	0x2e
	.byte	0x83
	.byte	0xc
	.long	0x118
	.long	0x49ea
	.uleb128 0x1
	.long	0x46f9
	.uleb128 0x1
	.long	0x46f9
	.byte	0
	.uleb128 0x1a
	.long	.LASF727
	.byte	0x2e
	.byte	0x57
	.byte	0x11
	.long	0x46b0
	.long	0x4a05
	.uleb128 0x1
	.long	0x46b0
	.uleb128 0x1
	.long	0x46f9
	.byte	0
	.uleb128 0x1a
	.long	.LASF728
	.byte	0x2e
	.byte	0xbc
	.byte	0xf
	.long	0x52
	.long	0x4a20
	.uleb128 0x1
	.long	0x46f9
	.uleb128 0x1
	.long	0x46f9
	.byte	0
	.uleb128 0x12
	.long	.LASF729
	.byte	0x2e
	.value	0x354
	.byte	0xf
	.long	0x52
	.long	0x4a46
	.uleb128 0x1
	.long	0x46b0
	.uleb128 0x1
	.long	0x52
	.uleb128 0x1
	.long	0x46f9
	.uleb128 0x1
	.long	0x4a46
	.byte	0
	.uleb128 0xb
	.long	0x4ae8
	.uleb128 0x91
	.string	"tm"
	.byte	0x38
	.byte	0x2f
	.byte	0x7
	.byte	0x8
	.long	0x4ae8
	.uleb128 0xa
	.long	.LASF730
	.byte	0x2f
	.byte	0x9
	.byte	0x7
	.long	0x118
	.byte	0
	.uleb128 0xa
	.long	.LASF731
	.byte	0x2f
	.byte	0xa
	.byte	0x7
	.long	0x118
	.byte	0x4
	.uleb128 0xa
	.long	.LASF732
	.byte	0x2f
	.byte	0xb
	.byte	0x7
	.long	0x118
	.byte	0x8
	.uleb128 0xa
	.long	.LASF733
	.byte	0x2f
	.byte	0xc
	.byte	0x7
	.long	0x118
	.byte	0xc
	.uleb128 0xa
	.long	.LASF734
	.byte	0x2f
	.byte	0xd
	.byte	0x7
	.long	0x118
	.byte	0x10
	.uleb128 0xa
	.long	.LASF735
	.byte	0x2f
	.byte	0xe
	.byte	0x7
	.long	0x118
	.byte	0x14
	.uleb128 0xa
	.long	.LASF736
	.byte	0x2f
	.byte	0xf
	.byte	0x7
	.long	0x118
	.byte	0x18
	.uleb128 0xa
	.long	.LASF737
	.byte	0x2f
	.byte	0x10
	.byte	0x7
	.long	0x118
	.byte	0x1c
	.uleb128 0xa
	.long	.LASF738
	.byte	0x2f
	.byte	0x11
	.byte	0x7
	.long	0x118
	.byte	0x20
	.uleb128 0xa
	.long	.LASF739
	.byte	0x2f
	.byte	0x14
	.byte	0xc
	.long	0x4c27
	.byte	0x28
	.uleb128 0xa
	.long	.LASF740
	.byte	0x2f
	.byte	0x15
	.byte	0xf
	.long	0x2e8
	.byte	0x30
	.byte	0
	.uleb128 0x8
	.long	0x4a4b
	.uleb128 0x1a
	.long	.LASF741
	.byte	0x2e
	.byte	0xdf
	.byte	0xf
	.long	0x52
	.long	0x4b03
	.uleb128 0x1
	.long	0x46f9
	.byte	0
	.uleb128 0x1a
	.long	.LASF742
	.byte	0x2e
	.byte	0x65
	.byte	0x11
	.long	0x46b0
	.long	0x4b23
	.uleb128 0x1
	.long	0x46b0
	.uleb128 0x1
	.long	0x46f9
	.uleb128 0x1
	.long	0x52
	.byte	0
	.uleb128 0x1a
	.long	.LASF743
	.byte	0x2e
	.byte	0x6d
	.byte	0xc
	.long	0x118
	.long	0x4b43
	.uleb128 0x1
	.long	0x46f9
	.uleb128 0x1
	.long	0x46f9
	.uleb128 0x1
	.long	0x52
	.byte	0
	.uleb128 0x1a
	.long	.LASF744
	.byte	0x2e
	.byte	0x5c
	.byte	0x11
	.long	0x46b0
	.long	0x4b63
	.uleb128 0x1
	.long	0x46b0
	.uleb128 0x1
	.long	0x46f9
	.uleb128 0x1
	.long	0x52
	.byte	0
	.uleb128 0x12
	.long	.LASF745
	.byte	0x2e
	.value	0x158
	.byte	0xf
	.long	0x52
	.long	0x4b89
	.uleb128 0x1
	.long	0x4994
	.uleb128 0x1
	.long	0x4b89
	.uleb128 0x1
	.long	0x52
	.uleb128 0x1
	.long	0x479d
	.byte	0
	.uleb128 0xb
	.long	0x46f9
	.uleb128 0x1a
	.long	.LASF746
	.byte	0x2e
	.byte	0xc0
	.byte	0xf
	.long	0x52
	.long	0x4ba9
	.uleb128 0x1
	.long	0x46f9
	.uleb128 0x1
	.long	0x46f9
	.byte	0
	.uleb128 0x12
	.long	.LASF747
	.byte	0x2e
	.value	0x17a
	.byte	0xf
	.long	0x3f
	.long	0x4bc5
	.uleb128 0x1
	.long	0x46f9
	.uleb128 0x1
	.long	0x4bc5
	.byte	0
	.uleb128 0xb
	.long	0x46b0
	.uleb128 0x12
	.long	.LASF748
	.byte	0x2e
	.value	0x17f
	.byte	0xe
	.long	0x38
	.long	0x4be6
	.uleb128 0x1
	.long	0x46f9
	.uleb128 0x1
	.long	0x4bc5
	.byte	0
	.uleb128 0x1a
	.long	.LASF749
	.byte	0x2e
	.byte	0xda
	.byte	0x11
	.long	0x46b0
	.long	0x4c06
	.uleb128 0x1
	.long	0x46b0
	.uleb128 0x1
	.long	0x46f9
	.uleb128 0x1
	.long	0x4bc5
	.byte	0
	.uleb128 0x12
	.long	.LASF750
	.byte	0x2e
	.value	0x1ad
	.byte	0x11
	.long	0x4c27
	.long	0x4c27
	.uleb128 0x1
	.long	0x46f9
	.uleb128 0x1
	.long	0x4bc5
	.uleb128 0x1
	.long	0x118
	.byte	0
	.uleb128 0x27
	.byte	0x8
	.byte	0x5
	.long	.LASF751
	.uleb128 0x8
	.long	0x4c27
	.uleb128 0x12
	.long	.LASF752
	.byte	0x2e
	.value	0x1b2
	.byte	0x1a
	.long	0x5e
	.long	0x4c54
	.uleb128 0x1
	.long	0x46f9
	.uleb128 0x1
	.long	0x4bc5
	.uleb128 0x1
	.long	0x118
	.byte	0
	.uleb128 0x1a
	.long	.LASF753
	.byte	0x2e
	.byte	0x87
	.byte	0xf
	.long	0x52
	.long	0x4c74
	.uleb128 0x1
	.long	0x46b0
	.uleb128 0x1
	.long	0x46f9
	.uleb128 0x1
	.long	0x52
	.byte	0
	.uleb128 0x12
	.long	.LASF754
	.byte	0x2e
	.value	0x121
	.byte	0xc
	.long	0x118
	.long	0x4c8b
	.uleb128 0x1
	.long	0xa8
	.byte	0
	.uleb128 0x12
	.long	.LASF755
	.byte	0x2e
	.value	0x103
	.byte	0xc
	.long	0x118
	.long	0x4cac
	.uleb128 0x1
	.long	0x46f9
	.uleb128 0x1
	.long	0x46f9
	.uleb128 0x1
	.long	0x52
	.byte	0
	.uleb128 0x12
	.long	.LASF756
	.byte	0x2e
	.value	0x107
	.byte	0x11
	.long	0x46b0
	.long	0x4ccd
	.uleb128 0x1
	.long	0x46b0
	.uleb128 0x1
	.long	0x46f9
	.uleb128 0x1
	.long	0x52
	.byte	0
	.uleb128 0x12
	.long	.LASF757
	.byte	0x2e
	.value	0x10c
	.byte	0x11
	.long	0x46b0
	.long	0x4cee
	.uleb128 0x1
	.long	0x46b0
	.uleb128 0x1
	.long	0x46f9
	.uleb128 0x1
	.long	0x52
	.byte	0
	.uleb128 0x12
	.long	.LASF758
	.byte	0x2e
	.value	0x110
	.byte	0x11
	.long	0x46b0
	.long	0x4d0f
	.uleb128 0x1
	.long	0x46b0
	.uleb128 0x1
	.long	0x46b5
	.uleb128 0x1
	.long	0x52
	.byte	0
	.uleb128 0x12
	.long	.LASF759
	.byte	0x2e
	.value	0x25a
	.byte	0xc
	.long	0x118
	.long	0x4d27
	.uleb128 0x1
	.long	0x46f9
	.uleb128 0x40
	.byte	0
	.uleb128 0xc
	.long	.LASF760
	.byte	0x2e
	.value	0x295
	.byte	0xc
	.long	.LASF761
	.long	0x118
	.long	0x4d43
	.uleb128 0x1
	.long	0x46f9
	.uleb128 0x40
	.byte	0
	.uleb128 0x1c
	.long	.LASF762
	.byte	0x2e
	.byte	0xa2
	.byte	0x1d
	.long	.LASF762
	.long	0x46f9
	.long	0x4d62
	.uleb128 0x1
	.long	0x46f9
	.uleb128 0x1
	.long	0x46b5
	.byte	0
	.uleb128 0x1c
	.long	.LASF762
	.byte	0x2e
	.byte	0xa0
	.byte	0x17
	.long	.LASF762
	.long	0x46b0
	.long	0x4d81
	.uleb128 0x1
	.long	0x46b0
	.uleb128 0x1
	.long	0x46b5
	.byte	0
	.uleb128 0x1c
	.long	.LASF763
	.byte	0x2e
	.byte	0xc6
	.byte	0x1d
	.long	.LASF763
	.long	0x46f9
	.long	0x4da0
	.uleb128 0x1
	.long	0x46f9
	.uleb128 0x1
	.long	0x46f9
	.byte	0
	.uleb128 0x1c
	.long	.LASF763
	.byte	0x2e
	.byte	0xc4
	.byte	0x17
	.long	.LASF763
	.long	0x46b0
	.long	0x4dbf
	.uleb128 0x1
	.long	0x46b0
	.uleb128 0x1
	.long	0x46f9
	.byte	0
	.uleb128 0x1c
	.long	.LASF764
	.byte	0x2e
	.byte	0xac
	.byte	0x1d
	.long	.LASF764
	.long	0x46f9
	.long	0x4dde
	.uleb128 0x1
	.long	0x46f9
	.uleb128 0x1
	.long	0x46b5
	.byte	0
	.uleb128 0x1c
	.long	.LASF764
	.byte	0x2e
	.byte	0xaa
	.byte	0x17
	.long	.LASF764
	.long	0x46b0
	.long	0x4dfd
	.uleb128 0x1
	.long	0x46b0
	.uleb128 0x1
	.long	0x46b5
	.byte	0
	.uleb128 0x1c
	.long	.LASF765
	.byte	0x2e
	.byte	0xd1
	.byte	0x1d
	.long	.LASF765
	.long	0x46f9
	.long	0x4e1c
	.uleb128 0x1
	.long	0x46f9
	.uleb128 0x1
	.long	0x46f9
	.byte	0
	.uleb128 0x1c
	.long	.LASF765
	.byte	0x2e
	.byte	0xcf
	.byte	0x17
	.long	.LASF765
	.long	0x46b0
	.long	0x4e3b
	.uleb128 0x1
	.long	0x46b0
	.uleb128 0x1
	.long	0x46f9
	.byte	0
	.uleb128 0x1c
	.long	.LASF766
	.byte	0x2e
	.byte	0xfa
	.byte	0x1d
	.long	.LASF766
	.long	0x46f9
	.long	0x4e5f
	.uleb128 0x1
	.long	0x46f9
	.uleb128 0x1
	.long	0x46b5
	.uleb128 0x1
	.long	0x52
	.byte	0
	.uleb128 0x1c
	.long	.LASF766
	.byte	0x2e
	.byte	0xf8
	.byte	0x17
	.long	.LASF766
	.long	0x46b0
	.long	0x4e83
	.uleb128 0x1
	.long	0x46b0
	.uleb128 0x1
	.long	0x46b5
	.uleb128 0x1
	.long	0x52
	.byte	0
	.uleb128 0x92
	.long	.LASF767
	.byte	0x20
	.value	0x14d
	.byte	0xb
	.long	0x5a95
	.uleb128 0x3
	.byte	0x1f
	.byte	0xfb
	.byte	0xb
	.long	0x5a95
	.uleb128 0x21
	.byte	0x1f
	.value	0x104
	.byte	0xb
	.long	0x5ab1
	.uleb128 0x21
	.byte	0x1f
	.value	0x105
	.byte	0xb
	.long	0x5ad9
	.uleb128 0x5e
	.long	.LASF768
	.byte	0x30
	.byte	0x25
	.byte	0xb
	.uleb128 0x3
	.byte	0x26
	.byte	0xc8
	.byte	0xb
	.long	0x5ff8
	.uleb128 0x3
	.byte	0x26
	.byte	0xd8
	.byte	0xb
	.long	0x6293
	.uleb128 0x3
	.byte	0x26
	.byte	0xe3
	.byte	0xb
	.long	0x62af
	.uleb128 0x3
	.byte	0x26
	.byte	0xe4
	.byte	0xb
	.long	0x62c5
	.uleb128 0x3
	.byte	0x26
	.byte	0xe5
	.byte	0xb
	.long	0x62e5
	.uleb128 0x3
	.byte	0x26
	.byte	0xe7
	.byte	0xb
	.long	0x6305
	.uleb128 0x3
	.byte	0x26
	.byte	0xe8
	.byte	0xb
	.long	0x6320
	.uleb128 0x93
	.string	"div"
	.byte	0x26
	.byte	0xd5
	.byte	0x3
	.long	.LASF1266
	.long	0x5ff8
	.long	0x4f0b
	.uleb128 0x1
	.long	0x5ad2
	.uleb128 0x1
	.long	0x5ad2
	.byte	0
	.uleb128 0x1f
	.long	.LASF769
	.byte	0x1
	.byte	0x15
	.byte	0x30
	.byte	0xa
	.long	0x501a
	.uleb128 0x3
	.byte	0x15
	.byte	0x30
	.byte	0xa
	.long	0x12c0
	.uleb128 0x3
	.byte	0x15
	.byte	0x30
	.byte	0xa
	.long	0x1281
	.uleb128 0x3
	.byte	0x15
	.byte	0x30
	.byte	0xa
	.long	0x12f2
	.uleb128 0x3
	.byte	0x15
	.byte	0x30
	.byte	0xa
	.long	0x1313
	.uleb128 0x34
	.long	0x1268
	.uleb128 0x1c
	.long	.LASF770
	.byte	0x15
	.byte	0x61
	.byte	0x1d
	.long	.LASF771
	.long	0x11da
	.long	0x4f57
	.uleb128 0x1
	.long	0x688f
	.byte	0
	.uleb128 0x3d
	.long	.LASF772
	.byte	0x15
	.byte	0x64
	.byte	0x26
	.long	.LASF773
	.long	0x4f72
	.uleb128 0x1
	.long	0x6894
	.uleb128 0x1
	.long	0x6894
	.byte	0
	.uleb128 0x33
	.long	.LASF774
	.byte	0x67
	.long	.LASF775
	.long	0x5b06
	.uleb128 0x33
	.long	.LASF776
	.byte	0x6a
	.long	.LASF777
	.long	0x5b06
	.uleb128 0x33
	.long	.LASF778
	.byte	0x6d
	.long	.LASF779
	.long	0x5b06
	.uleb128 0x33
	.long	.LASF780
	.byte	0x70
	.long	.LASF781
	.long	0x5b06
	.uleb128 0x33
	.long	.LASF782
	.byte	0x73
	.long	.LASF783
	.long	0x5b06
	.uleb128 0x9
	.long	.LASF56
	.byte	0x15
	.byte	0x38
	.byte	0x35
	.long	0x1349
	.uleb128 0x8
	.long	0x4fb8
	.uleb128 0x9
	.long	.LASF164
	.byte	0x15
	.byte	0x39
	.byte	0x35
	.long	0x1274
	.uleb128 0x9
	.long	.LASF167
	.byte	0x15
	.byte	0x3e
	.byte	0x35
	.long	0x68a3
	.uleb128 0x9
	.long	.LASF170
	.byte	0x15
	.byte	0x3f
	.byte	0x35
	.long	0x68a8
	.uleb128 0x1f
	.long	.LASF784
	.byte	0x1
	.byte	0x15
	.byte	0x77
	.byte	0xe
	.long	0x5010
	.uleb128 0x9
	.long	.LASF785
	.byte	0x15
	.byte	0x78
	.byte	0x41
	.long	0x1356
	.uleb128 0x7
	.string	"_Tp"
	.long	0x4c27
	.byte	0
	.uleb128 0x4
	.long	.LASF242
	.long	0x11da
	.byte	0
	.uleb128 0x3f
	.long	.LASF786
	.byte	0x8
	.byte	0x12
	.value	0x413
	.long	0x5255
	.uleb128 0x4d
	.long	.LASF812
	.long	0x685d
	.uleb128 0x13
	.long	.LASF787
	.byte	0x12
	.value	0x42c
	.byte	0x1a
	.long	.LASF788
	.byte	0x1
	.long	0x5046
	.long	0x504c
	.uleb128 0x2
	.long	0x71bd
	.byte	0
	.uleb128 0x3a
	.long	.LASF787
	.byte	0x12
	.value	0x430
	.long	.LASF789
	.long	0x5060
	.long	0x506b
	.uleb128 0x2
	.long	0x71bd
	.uleb128 0x1
	.long	0x71c7
	.byte	0
	.uleb128 0x19
	.long	.LASF167
	.byte	0x12
	.value	0x425
	.byte	0x32
	.long	0x3779
	.uleb128 0x6
	.long	.LASF790
	.byte	0x12
	.value	0x447
	.byte	0x7
	.long	.LASF791
	.long	0x506b
	.byte	0x1
	.long	0x5092
	.long	0x5098
	.uleb128 0x2
	.long	0x71cc
	.byte	0
	.uleb128 0x19
	.long	.LASF164
	.byte	0x12
	.value	0x426
	.byte	0x32
	.long	0x376d
	.uleb128 0x6
	.long	.LASF792
	.byte	0x12
	.value	0x44c
	.byte	0x7
	.long	.LASF793
	.long	0x5098
	.byte	0x1
	.long	0x50bf
	.long	0x50c5
	.uleb128 0x2
	.long	0x71cc
	.byte	0
	.uleb128 0x6
	.long	.LASF794
	.byte	0x12
	.value	0x451
	.byte	0x7
	.long	.LASF795
	.long	0x71d6
	.byte	0x1
	.long	0x50df
	.long	0x50e5
	.uleb128 0x2
	.long	0x71bd
	.byte	0
	.uleb128 0x6
	.long	.LASF794
	.byte	0x12
	.value	0x459
	.byte	0x7
	.long	.LASF796
	.long	0x501a
	.byte	0x1
	.long	0x50ff
	.long	0x510a
	.uleb128 0x2
	.long	0x71bd
	.uleb128 0x1
	.long	0x118
	.byte	0
	.uleb128 0x6
	.long	.LASF797
	.byte	0x12
	.value	0x45f
	.byte	0x7
	.long	.LASF798
	.long	0x71d6
	.byte	0x1
	.long	0x5124
	.long	0x512a
	.uleb128 0x2
	.long	0x71bd
	.byte	0
	.uleb128 0x6
	.long	.LASF797
	.byte	0x12
	.value	0x467
	.byte	0x7
	.long	.LASF799
	.long	0x501a
	.byte	0x1
	.long	0x5144
	.long	0x514f
	.uleb128 0x2
	.long	0x71bd
	.uleb128 0x1
	.long	0x118
	.byte	0
	.uleb128 0x6
	.long	.LASF312
	.byte	0x12
	.value	0x46d
	.byte	0x7
	.long	.LASF800
	.long	0x506b
	.byte	0x1
	.long	0x5169
	.long	0x5174
	.uleb128 0x2
	.long	0x71cc
	.uleb128 0x1
	.long	0x5174
	.byte	0
	.uleb128 0x19
	.long	.LASF527
	.byte	0x12
	.value	0x424
	.byte	0x38
	.long	0x3761
	.uleb128 0x6
	.long	.LASF801
	.byte	0x12
	.value	0x472
	.byte	0x7
	.long	.LASF802
	.long	0x71d6
	.byte	0x1
	.long	0x519b
	.long	0x51a6
	.uleb128 0x2
	.long	0x71bd
	.uleb128 0x1
	.long	0x5174
	.byte	0
	.uleb128 0x6
	.long	.LASF803
	.byte	0x12
	.value	0x477
	.byte	0x7
	.long	.LASF804
	.long	0x501a
	.byte	0x1
	.long	0x51c0
	.long	0x51cb
	.uleb128 0x2
	.long	0x71cc
	.uleb128 0x1
	.long	0x5174
	.byte	0
	.uleb128 0x6
	.long	.LASF805
	.byte	0x12
	.value	0x47c
	.byte	0x7
	.long	.LASF806
	.long	0x71d6
	.byte	0x1
	.long	0x51e5
	.long	0x51f0
	.uleb128 0x2
	.long	0x71bd
	.uleb128 0x1
	.long	0x5174
	.byte	0
	.uleb128 0x6
	.long	.LASF807
	.byte	0x12
	.value	0x481
	.byte	0x7
	.long	.LASF808
	.long	0x501a
	.byte	0x1
	.long	0x520a
	.long	0x5215
	.uleb128 0x2
	.long	0x71cc
	.uleb128 0x1
	.long	0x5174
	.byte	0
	.uleb128 0x6
	.long	.LASF809
	.byte	0x12
	.value	0x486
	.byte	0x7
	.long	.LASF810
	.long	0x71c7
	.byte	0x1
	.long	0x522f
	.long	0x5235
	.uleb128 0x2
	.long	0x71cc
	.byte	0
	.uleb128 0x19
	.long	.LASF526
	.byte	0x12
	.value	0x422
	.byte	0x39
	.long	0x3755
	.uleb128 0x4
	.long	.LASF536
	.long	0x685d
	.uleb128 0x4
	.long	.LASF558
	.long	0x172f
	.byte	0
	.uleb128 0x8
	.long	0x501a
	.uleb128 0x3f
	.long	.LASF811
	.byte	0x8
	.byte	0x12
	.value	0x413
	.long	0x5488
	.uleb128 0x4d
	.long	.LASF812
	.long	0x6876
	.uleb128 0x13
	.long	.LASF787
	.byte	0x12
	.value	0x42c
	.byte	0x1a
	.long	.LASF813
	.byte	0x1
	.long	0x5286
	.long	0x528c
	.uleb128 0x2
	.long	0x7217
	.byte	0
	.uleb128 0x3a
	.long	.LASF787
	.byte	0x12
	.value	0x430
	.long	.LASF814
	.long	0x52a0
	.long	0x52ab
	.uleb128 0x2
	.long	0x7217
	.uleb128 0x1
	.long	0x7221
	.byte	0
	.uleb128 0x19
	.long	.LASF167
	.byte	0x12
	.value	0x425
	.byte	0x32
	.long	0x3879
	.uleb128 0x6
	.long	.LASF790
	.byte	0x12
	.value	0x447
	.byte	0x7
	.long	.LASF815
	.long	0x52ab
	.byte	0x1
	.long	0x52d2
	.long	0x52d8
	.uleb128 0x2
	.long	0x7226
	.byte	0
	.uleb128 0x19
	.long	.LASF164
	.byte	0x12
	.value	0x426
	.byte	0x32
	.long	0x386d
	.uleb128 0x6
	.long	.LASF792
	.byte	0x12
	.value	0x44c
	.byte	0x7
	.long	.LASF816
	.long	0x52d8
	.byte	0x1
	.long	0x52ff
	.long	0x5305
	.uleb128 0x2
	.long	0x7226
	.byte	0
	.uleb128 0x6
	.long	.LASF794
	.byte	0x12
	.value	0x451
	.byte	0x7
	.long	.LASF817
	.long	0x7230
	.byte	0x1
	.long	0x531f
	.long	0x5325
	.uleb128 0x2
	.long	0x7217
	.byte	0
	.uleb128 0x6
	.long	.LASF794
	.byte	0x12
	.value	0x459
	.byte	0x7
	.long	.LASF818
	.long	0x525a
	.byte	0x1
	.long	0x533f
	.long	0x534a
	.uleb128 0x2
	.long	0x7217
	.uleb128 0x1
	.long	0x118
	.byte	0
	.uleb128 0x6
	.long	.LASF797
	.byte	0x12
	.value	0x45f
	.byte	0x7
	.long	.LASF819
	.long	0x7230
	.byte	0x1
	.long	0x5364
	.long	0x536a
	.uleb128 0x2
	.long	0x7217
	.byte	0
	.uleb128 0x6
	.long	.LASF797
	.byte	0x12
	.value	0x467
	.byte	0x7
	.long	.LASF820
	.long	0x525a
	.byte	0x1
	.long	0x5384
	.long	0x538f
	.uleb128 0x2
	.long	0x7217
	.uleb128 0x1
	.long	0x118
	.byte	0
	.uleb128 0x6
	.long	.LASF312
	.byte	0x12
	.value	0x46d
	.byte	0x7
	.long	.LASF821
	.long	0x52ab
	.byte	0x1
	.long	0x53a9
	.long	0x53b4
	.uleb128 0x2
	.long	0x7226
	.uleb128 0x1
	.long	0x53b4
	.byte	0
	.uleb128 0x19
	.long	.LASF527
	.byte	0x12
	.value	0x424
	.byte	0x38
	.long	0x3861
	.uleb128 0x6
	.long	.LASF801
	.byte	0x12
	.value	0x472
	.byte	0x7
	.long	.LASF822
	.long	0x7230
	.byte	0x1
	.long	0x53db
	.long	0x53e6
	.uleb128 0x2
	.long	0x7217
	.uleb128 0x1
	.long	0x53b4
	.byte	0
	.uleb128 0x6
	.long	.LASF803
	.byte	0x12
	.value	0x477
	.byte	0x7
	.long	.LASF823
	.long	0x525a
	.byte	0x1
	.long	0x5400
	.long	0x540b
	.uleb128 0x2
	.long	0x7226
	.uleb128 0x1
	.long	0x53b4
	.byte	0
	.uleb128 0x6
	.long	.LASF805
	.byte	0x12
	.value	0x47c
	.byte	0x7
	.long	.LASF824
	.long	0x7230
	.byte	0x1
	.long	0x5425
	.long	0x5430
	.uleb128 0x2
	.long	0x7217
	.uleb128 0x1
	.long	0x53b4
	.byte	0
	.uleb128 0x6
	.long	.LASF807
	.byte	0x12
	.value	0x481
	.byte	0x7
	.long	.LASF825
	.long	0x525a
	.byte	0x1
	.long	0x544a
	.long	0x5455
	.uleb128 0x2
	.long	0x7226
	.uleb128 0x1
	.long	0x53b4
	.byte	0
	.uleb128 0x6
	.long	.LASF809
	.byte	0x12
	.value	0x486
	.byte	0x7
	.long	.LASF826
	.long	0x7221
	.byte	0x1
	.long	0x546f
	.long	0x5475
	.uleb128 0x2
	.long	0x7226
	.byte	0
	.uleb128 0x4
	.long	.LASF536
	.long	0x6876
	.uleb128 0x4
	.long	.LASF558
	.long	0x172f
	.byte	0
	.uleb128 0x8
	.long	0x525a
	.uleb128 0x1f
	.long	.LASF827
	.byte	0x1
	.byte	0x15
	.byte	0x30
	.byte	0xa
	.long	0x559c
	.uleb128 0x3
	.byte	0x15
	.byte	0x30
	.byte	0xa
	.long	0x26c9
	.uleb128 0x3
	.byte	0x15
	.byte	0x30
	.byte	0xa
	.long	0x268a
	.uleb128 0x3
	.byte	0x15
	.byte	0x30
	.byte	0xa
	.long	0x26fb
	.uleb128 0x3
	.byte	0x15
	.byte	0x30
	.byte	0xa
	.long	0x271c
	.uleb128 0x34
	.long	0x2671
	.uleb128 0x1c
	.long	.LASF770
	.byte	0x15
	.byte	0x61
	.byte	0x1d
	.long	.LASF828
	.long	0x25e3
	.long	0x54d9
	.uleb128 0x1
	.long	0x708c
	.byte	0
	.uleb128 0x3d
	.long	.LASF772
	.byte	0x15
	.byte	0x64
	.byte	0x26
	.long	.LASF829
	.long	0x54f4
	.uleb128 0x1
	.long	0x7091
	.uleb128 0x1
	.long	0x7091
	.byte	0
	.uleb128 0x33
	.long	.LASF774
	.byte	0x67
	.long	.LASF830
	.long	0x5b06
	.uleb128 0x33
	.long	.LASF776
	.byte	0x6a
	.long	.LASF831
	.long	0x5b06
	.uleb128 0x33
	.long	.LASF778
	.byte	0x6d
	.long	.LASF832
	.long	0x5b06
	.uleb128 0x33
	.long	.LASF780
	.byte	0x70
	.long	.LASF833
	.long	0x5b06
	.uleb128 0x33
	.long	.LASF782
	.byte	0x73
	.long	.LASF834
	.long	0x5b06
	.uleb128 0x9
	.long	.LASF56
	.byte	0x15
	.byte	0x38
	.byte	0x35
	.long	0x2752
	.uleb128 0x8
	.long	0x553a
	.uleb128 0x9
	.long	.LASF164
	.byte	0x15
	.byte	0x39
	.byte	0x35
	.long	0x267d
	.uleb128 0x9
	.long	.LASF167
	.byte	0x15
	.byte	0x3e
	.byte	0x35
	.long	0x70a0
	.uleb128 0x9
	.long	.LASF170
	.byte	0x15
	.byte	0x3f
	.byte	0x35
	.long	0x70a5
	.uleb128 0x1f
	.long	.LASF835
	.byte	0x1
	.byte	0x15
	.byte	0x77
	.byte	0xe
	.long	0x5592
	.uleb128 0x9
	.long	.LASF785
	.byte	0x15
	.byte	0x78
	.byte	0x41
	.long	0x275f
	.uleb128 0x7
	.string	"_Tp"
	.long	0x3f
	.byte	0
	.uleb128 0x4
	.long	.LASF242
	.long	0x25e3
	.byte	0
	.uleb128 0x3f
	.long	.LASF836
	.byte	0x8
	.byte	0x12
	.value	0x413
	.long	0x57ca
	.uleb128 0x4d
	.long	.LASF812
	.long	0x705a
	.uleb128 0x13
	.long	.LASF787
	.byte	0x12
	.value	0x42c
	.byte	0x1a
	.long	.LASF837
	.byte	0x1
	.long	0x55c8
	.long	0x55ce
	.uleb128 0x2
	.long	0x71f9
	.byte	0
	.uleb128 0x3a
	.long	.LASF787
	.byte	0x12
	.value	0x430
	.long	.LASF838
	.long	0x55e2
	.long	0x55ed
	.uleb128 0x2
	.long	0x71f9
	.uleb128 0x1
	.long	0x7203
	.byte	0
	.uleb128 0x19
	.long	.LASF167
	.byte	0x12
	.value	0x425
	.byte	0x32
	.long	0x383b
	.uleb128 0x6
	.long	.LASF790
	.byte	0x12
	.value	0x447
	.byte	0x7
	.long	.LASF839
	.long	0x55ed
	.byte	0x1
	.long	0x5614
	.long	0x561a
	.uleb128 0x2
	.long	0x7208
	.byte	0
	.uleb128 0x19
	.long	.LASF164
	.byte	0x12
	.value	0x426
	.byte	0x32
	.long	0x382f
	.uleb128 0x6
	.long	.LASF792
	.byte	0x12
	.value	0x44c
	.byte	0x7
	.long	.LASF840
	.long	0x561a
	.byte	0x1
	.long	0x5641
	.long	0x5647
	.uleb128 0x2
	.long	0x7208
	.byte	0
	.uleb128 0x6
	.long	.LASF794
	.byte	0x12
	.value	0x451
	.byte	0x7
	.long	.LASF841
	.long	0x7212
	.byte	0x1
	.long	0x5661
	.long	0x5667
	.uleb128 0x2
	.long	0x71f9
	.byte	0
	.uleb128 0x6
	.long	.LASF794
	.byte	0x12
	.value	0x459
	.byte	0x7
	.long	.LASF842
	.long	0x559c
	.byte	0x1
	.long	0x5681
	.long	0x568c
	.uleb128 0x2
	.long	0x71f9
	.uleb128 0x1
	.long	0x118
	.byte	0
	.uleb128 0x6
	.long	.LASF797
	.byte	0x12
	.value	0x45f
	.byte	0x7
	.long	.LASF843
	.long	0x7212
	.byte	0x1
	.long	0x56a6
	.long	0x56ac
	.uleb128 0x2
	.long	0x71f9
	.byte	0
	.uleb128 0x6
	.long	.LASF797
	.byte	0x12
	.value	0x467
	.byte	0x7
	.long	.LASF844
	.long	0x559c
	.byte	0x1
	.long	0x56c6
	.long	0x56d1
	.uleb128 0x2
	.long	0x71f9
	.uleb128 0x1
	.long	0x118
	.byte	0
	.uleb128 0x6
	.long	.LASF312
	.byte	0x12
	.value	0x46d
	.byte	0x7
	.long	.LASF845
	.long	0x55ed
	.byte	0x1
	.long	0x56eb
	.long	0x56f6
	.uleb128 0x2
	.long	0x7208
	.uleb128 0x1
	.long	0x56f6
	.byte	0
	.uleb128 0x19
	.long	.LASF527
	.byte	0x12
	.value	0x424
	.byte	0x38
	.long	0x3823
	.uleb128 0x6
	.long	.LASF801
	.byte	0x12
	.value	0x472
	.byte	0x7
	.long	.LASF846
	.long	0x7212
	.byte	0x1
	.long	0x571d
	.long	0x5728
	.uleb128 0x2
	.long	0x71f9
	.uleb128 0x1
	.long	0x56f6
	.byte	0
	.uleb128 0x6
	.long	.LASF803
	.byte	0x12
	.value	0x477
	.byte	0x7
	.long	.LASF847
	.long	0x559c
	.byte	0x1
	.long	0x5742
	.long	0x574d
	.uleb128 0x2
	.long	0x7208
	.uleb128 0x1
	.long	0x56f6
	.byte	0
	.uleb128 0x6
	.long	.LASF805
	.byte	0x12
	.value	0x47c
	.byte	0x7
	.long	.LASF848
	.long	0x7212
	.byte	0x1
	.long	0x5767
	.long	0x5772
	.uleb128 0x2
	.long	0x71f9
	.uleb128 0x1
	.long	0x56f6
	.byte	0
	.uleb128 0x6
	.long	.LASF807
	.byte	0x12
	.value	0x481
	.byte	0x7
	.long	.LASF849
	.long	0x559c
	.byte	0x1
	.long	0x578c
	.long	0x5797
	.uleb128 0x2
	.long	0x7208
	.uleb128 0x1
	.long	0x56f6
	.byte	0
	.uleb128 0x6
	.long	.LASF809
	.byte	0x12
	.value	0x486
	.byte	0x7
	.long	.LASF850
	.long	0x7203
	.byte	0x1
	.long	0x57b1
	.long	0x57b7
	.uleb128 0x2
	.long	0x7208
	.byte	0
	.uleb128 0x4
	.long	.LASF536
	.long	0x705a
	.uleb128 0x4
	.long	.LASF558
	.long	0x2b38
	.byte	0
	.uleb128 0x8
	.long	0x559c
	.uleb128 0x3f
	.long	.LASF851
	.byte	0x8
	.byte	0x12
	.value	0x413
	.long	0x59fd
	.uleb128 0x4d
	.long	.LASF812
	.long	0x7073
	.uleb128 0x13
	.long	.LASF787
	.byte	0x12
	.value	0x42c
	.byte	0x1a
	.long	.LASF852
	.byte	0x1
	.long	0x57fb
	.long	0x5801
	.uleb128 0x2
	.long	0x71db
	.byte	0
	.uleb128 0x3a
	.long	.LASF787
	.byte	0x12
	.value	0x430
	.long	.LASF853
	.long	0x5815
	.long	0x5820
	.uleb128 0x2
	.long	0x71db
	.uleb128 0x1
	.long	0x71e5
	.byte	0
	.uleb128 0x19
	.long	.LASF167
	.byte	0x12
	.value	0x425
	.byte	0x32
	.long	0x37f1
	.uleb128 0x6
	.long	.LASF790
	.byte	0x12
	.value	0x447
	.byte	0x7
	.long	.LASF854
	.long	0x5820
	.byte	0x1
	.long	0x5847
	.long	0x584d
	.uleb128 0x2
	.long	0x71ea
	.byte	0
	.uleb128 0x19
	.long	.LASF164
	.byte	0x12
	.value	0x426
	.byte	0x32
	.long	0x37e5
	.uleb128 0x6
	.long	.LASF792
	.byte	0x12
	.value	0x44c
	.byte	0x7
	.long	.LASF855
	.long	0x584d
	.byte	0x1
	.long	0x5874
	.long	0x587a
	.uleb128 0x2
	.long	0x71ea
	.byte	0
	.uleb128 0x6
	.long	.LASF794
	.byte	0x12
	.value	0x451
	.byte	0x7
	.long	.LASF856
	.long	0x71f4
	.byte	0x1
	.long	0x5894
	.long	0x589a
	.uleb128 0x2
	.long	0x71db
	.byte	0
	.uleb128 0x6
	.long	.LASF794
	.byte	0x12
	.value	0x459
	.byte	0x7
	.long	.LASF857
	.long	0x57cf
	.byte	0x1
	.long	0x58b4
	.long	0x58bf
	.uleb128 0x2
	.long	0x71db
	.uleb128 0x1
	.long	0x118
	.byte	0
	.uleb128 0x6
	.long	.LASF797
	.byte	0x12
	.value	0x45f
	.byte	0x7
	.long	.LASF858
	.long	0x71f4
	.byte	0x1
	.long	0x58d9
	.long	0x58df
	.uleb128 0x2
	.long	0x71db
	.byte	0
	.uleb128 0x6
	.long	.LASF797
	.byte	0x12
	.value	0x467
	.byte	0x7
	.long	.LASF859
	.long	0x57cf
	.byte	0x1
	.long	0x58f9
	.long	0x5904
	.uleb128 0x2
	.long	0x71db
	.uleb128 0x1
	.long	0x118
	.byte	0
	.uleb128 0x6
	.long	.LASF312
	.byte	0x12
	.value	0x46d
	.byte	0x7
	.long	.LASF860
	.long	0x5820
	.byte	0x1
	.long	0x591e
	.long	0x5929
	.uleb128 0x2
	.long	0x71ea
	.uleb128 0x1
	.long	0x5929
	.byte	0
	.uleb128 0x19
	.long	.LASF527
	.byte	0x12
	.value	0x424
	.byte	0x38
	.long	0x37d9
	.uleb128 0x6
	.long	.LASF801
	.byte	0x12
	.value	0x472
	.byte	0x7
	.long	.LASF861
	.long	0x71f4
	.byte	0x1
	.long	0x5950
	.long	0x595b
	.uleb128 0x2
	.long	0x71db
	.uleb128 0x1
	.long	0x5929
	.byte	0
	.uleb128 0x6
	.long	.LASF803
	.byte	0x12
	.value	0x477
	.byte	0x7
	.long	.LASF862
	.long	0x57cf
	.byte	0x1
	.long	0x5975
	.long	0x5980
	.uleb128 0x2
	.long	0x71ea
	.uleb128 0x1
	.long	0x5929
	.byte	0
	.uleb128 0x6
	.long	.LASF805
	.byte	0x12
	.value	0x47c
	.byte	0x7
	.long	.LASF863
	.long	0x71f4
	.byte	0x1
	.long	0x599a
	.long	0x59a5
	.uleb128 0x2
	.long	0x71db
	.uleb128 0x1
	.long	0x5929
	.byte	0
	.uleb128 0x6
	.long	.LASF807
	.byte	0x12
	.value	0x481
	.byte	0x7
	.long	.LASF864
	.long	0x57cf
	.byte	0x1
	.long	0x59bf
	.long	0x59ca
	.uleb128 0x2
	.long	0x71ea
	.uleb128 0x1
	.long	0x5929
	.byte	0
	.uleb128 0x6
	.long	.LASF809
	.byte	0x12
	.value	0x486
	.byte	0x7
	.long	.LASF865
	.long	0x71e5
	.byte	0x1
	.long	0x59e4
	.long	0x59ea
	.uleb128 0x2
	.long	0x71ea
	.byte	0
	.uleb128 0x4
	.long	.LASF536
	.long	0x7073
	.uleb128 0x4
	.long	.LASF558
	.long	0x2b38
	.byte	0
	.uleb128 0x8
	.long	0x57cf
	.uleb128 0xc
	.long	.LASF866
	.byte	0x12
	.value	0x532
	.byte	0x5
	.long	.LASF867
	.long	0x5174
	.long	0x5a34
	.uleb128 0x4
	.long	.LASF536
	.long	0x685d
	.uleb128 0x4
	.long	.LASF558
	.long	0x172f
	.uleb128 0x1
	.long	0x7b93
	.uleb128 0x1
	.long	0x7b93
	.byte	0
	.uleb128 0xc
	.long	.LASF868
	.byte	0x12
	.value	0x4c5
	.byte	0x5
	.long	.LASF869
	.long	0x5b06
	.long	0x5a66
	.uleb128 0x4
	.long	.LASF536
	.long	0x685d
	.uleb128 0x4
	.long	.LASF558
	.long	0x172f
	.uleb128 0x1
	.long	0x7b93
	.uleb128 0x1
	.long	0x7b93
	.byte	0
	.uleb128 0x68
	.long	.LASF870
	.byte	0x12
	.value	0x4d5
	.byte	0x5
	.long	.LASF871
	.long	0x5b06
	.uleb128 0x4
	.long	.LASF536
	.long	0x685d
	.uleb128 0x4
	.long	.LASF558
	.long	0x172f
	.uleb128 0x1
	.long	0x7b93
	.uleb128 0x1
	.long	0x7b93
	.byte	0
	.byte	0
	.uleb128 0x12
	.long	.LASF872
	.byte	0x2e
	.value	0x181
	.byte	0x14
	.long	0x4b
	.long	0x5ab1
	.uleb128 0x1
	.long	0x46f9
	.uleb128 0x1
	.long	0x4bc5
	.byte	0
	.uleb128 0x12
	.long	.LASF873
	.byte	0x2e
	.value	0x1ba
	.byte	0x16
	.long	0x5ad2
	.long	0x5ad2
	.uleb128 0x1
	.long	0x46f9
	.uleb128 0x1
	.long	0x4bc5
	.uleb128 0x1
	.long	0x118
	.byte	0
	.uleb128 0x27
	.byte	0x8
	.byte	0x5
	.long	.LASF874
	.uleb128 0x12
	.long	.LASF875
	.byte	0x2e
	.value	0x1c1
	.byte	0x1f
	.long	0x5afa
	.long	0x5afa
	.uleb128 0x1
	.long	0x46f9
	.uleb128 0x1
	.long	0x4bc5
	.uleb128 0x1
	.long	0x118
	.byte	0
	.uleb128 0x27
	.byte	0x8
	.byte	0x7
	.long	.LASF876
	.uleb128 0x69
	.long	.LASF1129
	.uleb128 0x27
	.byte	0x1
	.byte	0x2
	.long	.LASF877
	.uleb128 0x8
	.long	0x5b06
	.uleb128 0xb
	.long	0x5d7
	.uleb128 0xb
	.long	0x645
	.uleb128 0x8
	.long	0x5b17
	.uleb128 0x27
	.byte	0x1
	.byte	0x8
	.long	.LASF878
	.uleb128 0x27
	.byte	0x1
	.byte	0x6
	.long	.LASF879
	.uleb128 0x27
	.byte	0x2
	.byte	0x5
	.long	.LASF880
	.uleb128 0x27
	.byte	0x2
	.byte	0x10
	.long	.LASF881
	.uleb128 0x27
	.byte	0x4
	.byte	0x10
	.long	.LASF882
	.uleb128 0xb
	.long	0x670
	.uleb128 0xb
	.long	0x836
	.uleb128 0xd
	.long	0x836
	.uleb128 0x25
	.long	0x670
	.uleb128 0xd
	.long	0x670
	.uleb128 0xb
	.long	0x874
	.uleb128 0xd
	.long	0x8a1
	.uleb128 0xd
	.long	0x8ae
	.uleb128 0xb
	.long	0x8ae
	.uleb128 0xb
	.long	0x8a1
	.uleb128 0xd
	.long	0x9e9
	.uleb128 0x9
	.long	.LASF883
	.byte	0x31
	.byte	0x25
	.byte	0x15
	.long	0x5b28
	.uleb128 0x9
	.long	.LASF884
	.byte	0x31
	.byte	0x26
	.byte	0x17
	.long	0x5b21
	.uleb128 0x9
	.long	.LASF885
	.byte	0x31
	.byte	0x27
	.byte	0x1a
	.long	0x5b2f
	.uleb128 0x9
	.long	.LASF886
	.byte	0x31
	.byte	0x28
	.byte	0x1c
	.long	0x2e1
	.uleb128 0x9
	.long	.LASF887
	.byte	0x31
	.byte	0x29
	.byte	0x14
	.long	0x118
	.uleb128 0x8
	.long	0x5bab
	.uleb128 0x9
	.long	.LASF888
	.byte	0x31
	.byte	0x2a
	.byte	0x16
	.long	0x9f
	.uleb128 0x9
	.long	.LASF889
	.byte	0x31
	.byte	0x2c
	.byte	0x19
	.long	0x4c27
	.uleb128 0x9
	.long	.LASF890
	.byte	0x31
	.byte	0x2d
	.byte	0x1b
	.long	0x5e
	.uleb128 0x9
	.long	.LASF891
	.byte	0x31
	.byte	0x34
	.byte	0x12
	.long	0x5b7b
	.uleb128 0x9
	.long	.LASF892
	.byte	0x31
	.byte	0x35
	.byte	0x13
	.long	0x5b87
	.uleb128 0x9
	.long	.LASF893
	.byte	0x31
	.byte	0x36
	.byte	0x13
	.long	0x5b93
	.uleb128 0x9
	.long	.LASF894
	.byte	0x31
	.byte	0x37
	.byte	0x14
	.long	0x5b9f
	.uleb128 0x9
	.long	.LASF895
	.byte	0x31
	.byte	0x38
	.byte	0x13
	.long	0x5bab
	.uleb128 0x9
	.long	.LASF896
	.byte	0x31
	.byte	0x39
	.byte	0x14
	.long	0x5bbc
	.uleb128 0x9
	.long	.LASF897
	.byte	0x31
	.byte	0x3a
	.byte	0x13
	.long	0x5bc8
	.uleb128 0x9
	.long	.LASF898
	.byte	0x31
	.byte	0x3b
	.byte	0x14
	.long	0x5bd4
	.uleb128 0x9
	.long	.LASF899
	.byte	0x31
	.byte	0x48
	.byte	0x12
	.long	0x4c27
	.uleb128 0x9
	.long	.LASF900
	.byte	0x31
	.byte	0x49
	.byte	0x1b
	.long	0x5e
	.uleb128 0x9
	.long	.LASF901
	.byte	0x31
	.byte	0x98
	.byte	0x19
	.long	0x4c27
	.uleb128 0x9
	.long	.LASF902
	.byte	0x31
	.byte	0x99
	.byte	0x1b
	.long	0x4c27
	.uleb128 0x9
	.long	.LASF903
	.byte	0x31
	.byte	0xc2
	.byte	0x1b
	.long	0x4c27
	.uleb128 0x9
	.long	.LASF904
	.byte	0x32
	.byte	0x18
	.byte	0x12
	.long	0x5b7b
	.uleb128 0x9
	.long	.LASF905
	.byte	0x32
	.byte	0x19
	.byte	0x13
	.long	0x5b93
	.uleb128 0x9
	.long	.LASF906
	.byte	0x32
	.byte	0x1a
	.byte	0x13
	.long	0x5bab
	.uleb128 0x9
	.long	.LASF907
	.byte	0x32
	.byte	0x1b
	.byte	0x13
	.long	0x5bc8
	.uleb128 0x9
	.long	.LASF908
	.byte	0x33
	.byte	0x18
	.byte	0x13
	.long	0x5b87
	.uleb128 0x9
	.long	.LASF909
	.byte	0x33
	.byte	0x19
	.byte	0x14
	.long	0x5b9f
	.uleb128 0x9
	.long	.LASF910
	.byte	0x33
	.byte	0x1a
	.byte	0x14
	.long	0x5bbc
	.uleb128 0x9
	.long	.LASF911
	.byte	0x33
	.byte	0x1b
	.byte	0x14
	.long	0x5bd4
	.uleb128 0x9
	.long	.LASF912
	.byte	0x34
	.byte	0x2b
	.byte	0x18
	.long	0x5be0
	.uleb128 0x9
	.long	.LASF913
	.byte	0x34
	.byte	0x2c
	.byte	0x19
	.long	0x5bf8
	.uleb128 0x9
	.long	.LASF914
	.byte	0x34
	.byte	0x2d
	.byte	0x19
	.long	0x5c10
	.uleb128 0x9
	.long	.LASF915
	.byte	0x34
	.byte	0x2e
	.byte	0x19
	.long	0x5c28
	.uleb128 0x9
	.long	.LASF916
	.byte	0x34
	.byte	0x31
	.byte	0x19
	.long	0x5bec
	.uleb128 0x9
	.long	.LASF917
	.byte	0x34
	.byte	0x32
	.byte	0x1a
	.long	0x5c04
	.uleb128 0x9
	.long	.LASF918
	.byte	0x34
	.byte	0x33
	.byte	0x1a
	.long	0x5c1c
	.uleb128 0x9
	.long	.LASF919
	.byte	0x34
	.byte	0x34
	.byte	0x1a
	.long	0x5c34
	.uleb128 0x9
	.long	.LASF920
	.byte	0x34
	.byte	0x3a
	.byte	0x16
	.long	0x5b28
	.uleb128 0x9
	.long	.LASF921
	.byte	0x34
	.byte	0x3c
	.byte	0x13
	.long	0x4c27
	.uleb128 0x9
	.long	.LASF922
	.byte	0x34
	.byte	0x3d
	.byte	0x13
	.long	0x4c27
	.uleb128 0x9
	.long	.LASF923
	.byte	0x34
	.byte	0x3e
	.byte	0x13
	.long	0x4c27
	.uleb128 0x9
	.long	.LASF924
	.byte	0x34
	.byte	0x47
	.byte	0x18
	.long	0x5b21
	.uleb128 0x9
	.long	.LASF925
	.byte	0x34
	.byte	0x49
	.byte	0x1b
	.long	0x5e
	.uleb128 0x9
	.long	.LASF926
	.byte	0x34
	.byte	0x4a
	.byte	0x1b
	.long	0x5e
	.uleb128 0x9
	.long	.LASF927
	.byte	0x34
	.byte	0x4b
	.byte	0x1b
	.long	0x5e
	.uleb128 0x9
	.long	.LASF928
	.byte	0x34
	.byte	0x57
	.byte	0x13
	.long	0x4c27
	.uleb128 0x9
	.long	.LASF929
	.byte	0x34
	.byte	0x5a
	.byte	0x1b
	.long	0x5e
	.uleb128 0x9
	.long	.LASF930
	.byte	0x34
	.byte	0x65
	.byte	0x15
	.long	0x5c40
	.uleb128 0x9
	.long	.LASF931
	.byte	0x34
	.byte	0x66
	.byte	0x16
	.long	0x5c4c
	.uleb128 0x1f
	.long	.LASF932
	.byte	0x60
	.byte	0x35
	.byte	0x33
	.byte	0x8
	.long	0x5f12
	.uleb128 0xa
	.long	.LASF933
	.byte	0x35
	.byte	0x37
	.byte	0x9
	.long	0x4994
	.byte	0
	.uleb128 0xa
	.long	.LASF934
	.byte	0x35
	.byte	0x38
	.byte	0x9
	.long	0x4994
	.byte	0x8
	.uleb128 0xa
	.long	.LASF935
	.byte	0x35
	.byte	0x3e
	.byte	0x9
	.long	0x4994
	.byte	0x10
	.uleb128 0xa
	.long	.LASF936
	.byte	0x35
	.byte	0x44
	.byte	0x9
	.long	0x4994
	.byte	0x18
	.uleb128 0xa
	.long	.LASF937
	.byte	0x35
	.byte	0x45
	.byte	0x9
	.long	0x4994
	.byte	0x20
	.uleb128 0xa
	.long	.LASF938
	.byte	0x35
	.byte	0x46
	.byte	0x9
	.long	0x4994
	.byte	0x28
	.uleb128 0xa
	.long	.LASF939
	.byte	0x35
	.byte	0x47
	.byte	0x9
	.long	0x4994
	.byte	0x30
	.uleb128 0xa
	.long	.LASF940
	.byte	0x35
	.byte	0x48
	.byte	0x9
	.long	0x4994
	.byte	0x38
	.uleb128 0xa
	.long	.LASF941
	.byte	0x35
	.byte	0x49
	.byte	0x9
	.long	0x4994
	.byte	0x40
	.uleb128 0xa
	.long	.LASF942
	.byte	0x35
	.byte	0x4a
	.byte	0x9
	.long	0x4994
	.byte	0x48
	.uleb128 0xa
	.long	.LASF943
	.byte	0x35
	.byte	0x4b
	.byte	0x8
	.long	0x10c
	.byte	0x50
	.uleb128 0xa
	.long	.LASF944
	.byte	0x35
	.byte	0x4c
	.byte	0x8
	.long	0x10c
	.byte	0x51
	.uleb128 0xa
	.long	.LASF945
	.byte	0x35
	.byte	0x4e
	.byte	0x8
	.long	0x10c
	.byte	0x52
	.uleb128 0xa
	.long	.LASF946
	.byte	0x35
	.byte	0x50
	.byte	0x8
	.long	0x10c
	.byte	0x53
	.uleb128 0xa
	.long	.LASF947
	.byte	0x35
	.byte	0x52
	.byte	0x8
	.long	0x10c
	.byte	0x54
	.uleb128 0xa
	.long	.LASF948
	.byte	0x35
	.byte	0x54
	.byte	0x8
	.long	0x10c
	.byte	0x55
	.uleb128 0xa
	.long	.LASF949
	.byte	0x35
	.byte	0x5b
	.byte	0x8
	.long	0x10c
	.byte	0x56
	.uleb128 0xa
	.long	.LASF950
	.byte	0x35
	.byte	0x5c
	.byte	0x8
	.long	0x10c
	.byte	0x57
	.uleb128 0xa
	.long	.LASF951
	.byte	0x35
	.byte	0x5f
	.byte	0x8
	.long	0x10c
	.byte	0x58
	.uleb128 0xa
	.long	.LASF952
	.byte	0x35
	.byte	0x61
	.byte	0x8
	.long	0x10c
	.byte	0x59
	.uleb128 0xa
	.long	.LASF953
	.byte	0x35
	.byte	0x63
	.byte	0x8
	.long	0x10c
	.byte	0x5a
	.uleb128 0xa
	.long	.LASF954
	.byte	0x35
	.byte	0x65
	.byte	0x8
	.long	0x10c
	.byte	0x5b
	.uleb128 0xa
	.long	.LASF955
	.byte	0x35
	.byte	0x6c
	.byte	0x8
	.long	0x10c
	.byte	0x5c
	.uleb128 0xa
	.long	.LASF956
	.byte	0x35
	.byte	0x6d
	.byte	0x8
	.long	0x10c
	.byte	0x5d
	.byte	0
	.uleb128 0x1a
	.long	.LASF957
	.byte	0x35
	.byte	0x7a
	.byte	0xe
	.long	0x4994
	.long	0x5f2d
	.uleb128 0x1
	.long	0x118
	.uleb128 0x1
	.long	0x2e8
	.byte	0
	.uleb128 0x6a
	.long	.LASF959
	.byte	0x35
	.byte	0x7d
	.byte	0x16
	.long	0x5f39
	.uleb128 0xb
	.long	0x5dcc
	.uleb128 0x94
	.long	0x5f4a
	.uleb128 0x1
	.long	0xa6
	.byte	0
	.uleb128 0xb
	.long	0x5f3e
	.uleb128 0xb
	.long	0x5f54
	.uleb128 0x95
	.uleb128 0x48
	.long	.LASF960
	.byte	0x25
	.byte	0x38
	.byte	0xb
	.long	0x5f6b
	.uleb128 0x6b
	.byte	0x25
	.byte	0x3a
	.byte	0x18
	.long	0xbb9
	.byte	0
	.uleb128 0x47
	.byte	0x8
	.byte	0x36
	.byte	0x3c
	.byte	0x3
	.long	.LASF962
	.long	0x5f92
	.uleb128 0xa
	.long	.LASF963
	.byte	0x36
	.byte	0x3d
	.byte	0x9
	.long	0x118
	.byte	0
	.uleb128 0x56
	.string	"rem"
	.byte	0x3e
	.byte	0x9
	.long	0x118
	.byte	0x4
	.byte	0
	.uleb128 0x9
	.long	.LASF964
	.byte	0x36
	.byte	0x3f
	.byte	0x5
	.long	0x5f6b
	.uleb128 0x47
	.byte	0x10
	.byte	0x36
	.byte	0x44
	.byte	0x3
	.long	.LASF965
	.long	0x5fc5
	.uleb128 0xa
	.long	.LASF963
	.byte	0x36
	.byte	0x45
	.byte	0xe
	.long	0x4c27
	.byte	0
	.uleb128 0x56
	.string	"rem"
	.byte	0x46
	.byte	0xe
	.long	0x4c27
	.byte	0x8
	.byte	0
	.uleb128 0x9
	.long	.LASF966
	.byte	0x36
	.byte	0x47
	.byte	0x5
	.long	0x5f9e
	.uleb128 0x47
	.byte	0x10
	.byte	0x36
	.byte	0x4e
	.byte	0x3
	.long	.LASF967
	.long	0x5ff8
	.uleb128 0xa
	.long	.LASF963
	.byte	0x36
	.byte	0x4f
	.byte	0x13
	.long	0x5ad2
	.byte	0
	.uleb128 0x56
	.string	"rem"
	.byte	0x50
	.byte	0x13
	.long	0x5ad2
	.byte	0x8
	.byte	0
	.uleb128 0x9
	.long	.LASF968
	.byte	0x36
	.byte	0x51
	.byte	0x5
	.long	0x5fd1
	.uleb128 0x9
	.long	.LASF969
	.byte	0x37
	.byte	0x6c
	.byte	0x13
	.long	0x5c70
	.uleb128 0x1e
	.long	.LASF970
	.byte	0x36
	.value	0x330
	.byte	0xf
	.long	0x601d
	.uleb128 0xb
	.long	0x6022
	.uleb128 0x96
	.long	0x118
	.long	0x6037
	.uleb128 0x1
	.long	0x5f4f
	.uleb128 0x1
	.long	0x5f4f
	.byte	0
	.uleb128 0x12
	.long	.LASF971
	.byte	0x36
	.value	0x25a
	.byte	0xc
	.long	0x118
	.long	0x604e
	.uleb128 0x1
	.long	0x604e
	.byte	0
	.uleb128 0xb
	.long	0x6053
	.uleb128 0x97
	.uleb128 0xc
	.long	.LASF972
	.byte	0x36
	.value	0x25f
	.byte	0x12
	.long	.LASF972
	.long	0x118
	.long	0x6070
	.uleb128 0x1
	.long	0x604e
	.byte	0
	.uleb128 0x1a
	.long	.LASF973
	.byte	0x36
	.byte	0x66
	.byte	0xf
	.long	0x3f
	.long	0x6086
	.uleb128 0x1
	.long	0x2e8
	.byte	0
	.uleb128 0x1a
	.long	.LASF974
	.byte	0x36
	.byte	0x69
	.byte	0xc
	.long	0x118
	.long	0x609c
	.uleb128 0x1
	.long	0x2e8
	.byte	0
	.uleb128 0x1a
	.long	.LASF975
	.byte	0x36
	.byte	0x6c
	.byte	0x11
	.long	0x4c27
	.long	0x60b2
	.uleb128 0x1
	.long	0x2e8
	.byte	0
	.uleb128 0x12
	.long	.LASF976
	.byte	0x36
	.value	0x33c
	.byte	0xe
	.long	0xa6
	.long	0x60dd
	.uleb128 0x1
	.long	0x5f4f
	.uleb128 0x1
	.long	0x5f4f
	.uleb128 0x1
	.long	0x52
	.uleb128 0x1
	.long	0x52
	.uleb128 0x1
	.long	0x6010
	.byte	0
	.uleb128 0x98
	.string	"div"
	.byte	0x36
	.value	0x35c
	.byte	0xe
	.long	0x5f92
	.long	0x60fa
	.uleb128 0x1
	.long	0x118
	.uleb128 0x1
	.long	0x118
	.byte	0
	.uleb128 0x12
	.long	.LASF977
	.byte	0x36
	.value	0x281
	.byte	0xe
	.long	0x4994
	.long	0x6111
	.uleb128 0x1
	.long	0x2e8
	.byte	0
	.uleb128 0x12
	.long	.LASF978
	.byte	0x36
	.value	0x35e
	.byte	0xf
	.long	0x5fc5
	.long	0x612d
	.uleb128 0x1
	.long	0x4c27
	.uleb128 0x1
	.long	0x4c27
	.byte	0
	.uleb128 0x12
	.long	.LASF979
	.byte	0x36
	.value	0x3a2
	.byte	0xc
	.long	0x118
	.long	0x6149
	.uleb128 0x1
	.long	0x2e8
	.uleb128 0x1
	.long	0x52
	.byte	0
	.uleb128 0x12
	.long	.LASF980
	.byte	0x36
	.value	0x3ad
	.byte	0xf
	.long	0x52
	.long	0x616a
	.uleb128 0x1
	.long	0x46b0
	.uleb128 0x1
	.long	0x2e8
	.uleb128 0x1
	.long	0x52
	.byte	0
	.uleb128 0x12
	.long	.LASF981
	.byte	0x36
	.value	0x3a5
	.byte	0xc
	.long	0x118
	.long	0x618b
	.uleb128 0x1
	.long	0x46b0
	.uleb128 0x1
	.long	0x2e8
	.uleb128 0x1
	.long	0x52
	.byte	0
	.uleb128 0x41
	.long	.LASF983
	.byte	0x36
	.value	0x346
	.long	0x61ac
	.uleb128 0x1
	.long	0xa6
	.uleb128 0x1
	.long	0x52
	.uleb128 0x1
	.long	0x52
	.uleb128 0x1
	.long	0x6010
	.byte	0
	.uleb128 0x99
	.long	.LASF984
	.byte	0x36
	.value	0x276
	.byte	0xd
	.long	0x61c0
	.uleb128 0x1
	.long	0x118
	.byte	0
	.uleb128 0x55
	.long	.LASF985
	.byte	0x36
	.value	0x1c6
	.byte	0xc
	.long	0x118
	.uleb128 0x41
	.long	.LASF986
	.byte	0x36
	.value	0x1c8
	.long	0x61df
	.uleb128 0x1
	.long	0x9f
	.byte	0
	.uleb128 0x1a
	.long	.LASF987
	.byte	0x36
	.byte	0x76
	.byte	0xf
	.long	0x3f
	.long	0x61fa
	.uleb128 0x1
	.long	0x2e8
	.uleb128 0x1
	.long	0x61fa
	.byte	0
	.uleb128 0xb
	.long	0x4994
	.uleb128 0x1a
	.long	.LASF988
	.byte	0x36
	.byte	0xb1
	.byte	0x11
	.long	0x4c27
	.long	0x621f
	.uleb128 0x1
	.long	0x2e8
	.uleb128 0x1
	.long	0x61fa
	.uleb128 0x1
	.long	0x118
	.byte	0
	.uleb128 0x1a
	.long	.LASF989
	.byte	0x36
	.byte	0xb5
	.byte	0x1a
	.long	0x5e
	.long	0x623f
	.uleb128 0x1
	.long	0x2e8
	.uleb128 0x1
	.long	0x61fa
	.uleb128 0x1
	.long	0x118
	.byte	0
	.uleb128 0x12
	.long	.LASF990
	.byte	0x36
	.value	0x317
	.byte	0xc
	.long	0x118
	.long	0x6256
	.uleb128 0x1
	.long	0x2e8
	.byte	0
	.uleb128 0x12
	.long	.LASF991
	.byte	0x36
	.value	0x3b1
	.byte	0xf
	.long	0x52
	.long	0x6277
	.uleb128 0x1
	.long	0x4994
	.uleb128 0x1
	.long	0x46f9
	.uleb128 0x1
	.long	0x52
	.byte	0
	.uleb128 0x12
	.long	.LASF992
	.byte	0x36
	.value	0x3a9
	.byte	0xc
	.long	0x118
	.long	0x6293
	.uleb128 0x1
	.long	0x4994
	.uleb128 0x1
	.long	0x46b5
	.byte	0
	.uleb128 0x12
	.long	.LASF993
	.byte	0x36
	.value	0x362
	.byte	0x1e
	.long	0x5ff8
	.long	0x62af
	.uleb128 0x1
	.long	0x5ad2
	.uleb128 0x1
	.long	0x5ad2
	.byte	0
	.uleb128 0x1a
	.long	.LASF994
	.byte	0x36
	.byte	0x71
	.byte	0x24
	.long	0x5ad2
	.long	0x62c5
	.uleb128 0x1
	.long	0x2e8
	.byte	0
	.uleb128 0x1a
	.long	.LASF995
	.byte	0x36
	.byte	0xc9
	.byte	0x16
	.long	0x5ad2
	.long	0x62e5
	.uleb128 0x1
	.long	0x2e8
	.uleb128 0x1
	.long	0x61fa
	.uleb128 0x1
	.long	0x118
	.byte	0
	.uleb128 0x1a
	.long	.LASF996
	.byte	0x36
	.byte	0xce
	.byte	0x1f
	.long	0x5afa
	.long	0x6305
	.uleb128 0x1
	.long	0x2e8
	.uleb128 0x1
	.long	0x61fa
	.uleb128 0x1
	.long	0x118
	.byte	0
	.uleb128 0x1a
	.long	.LASF997
	.byte	0x36
	.byte	0x7c
	.byte	0xe
	.long	0x38
	.long	0x6320
	.uleb128 0x1
	.long	0x2e8
	.uleb128 0x1
	.long	0x61fa
	.byte	0
	.uleb128 0x1a
	.long	.LASF998
	.byte	0x36
	.byte	0x7f
	.byte	0x14
	.long	0x4b
	.long	0x633b
	.uleb128 0x1
	.long	0x2e8
	.uleb128 0x1
	.long	0x61fa
	.byte	0
	.uleb128 0x1f
	.long	.LASF999
	.byte	0x10
	.byte	0x38
	.byte	0xa
	.byte	0x10
	.long	0x6363
	.uleb128 0xa
	.long	.LASF1000
	.byte	0x38
	.byte	0xc
	.byte	0xb
	.long	0x5c58
	.byte	0
	.uleb128 0xa
	.long	.LASF1001
	.byte	0x38
	.byte	0xd
	.byte	0xf
	.long	0x125
	.byte	0x8
	.byte	0
	.uleb128 0x9
	.long	.LASF1002
	.byte	0x38
	.byte	0xe
	.byte	0x3
	.long	0x633b
	.uleb128 0x9a
	.long	.LASF1267
	.byte	0x1d
	.byte	0x2b
	.byte	0xe
	.uleb128 0x57
	.long	.LASF1003
	.uleb128 0xb
	.long	0x6378
	.uleb128 0xb
	.long	0x14e
	.uleb128 0x52
	.long	0x10c
	.long	0x6397
	.uleb128 0x53
	.long	0x5e
	.byte	0
	.byte	0
	.uleb128 0xb
	.long	0x636f
	.uleb128 0x57
	.long	.LASF1004
	.uleb128 0xb
	.long	0x639c
	.uleb128 0x57
	.long	.LASF1005
	.uleb128 0xb
	.long	0x63a6
	.uleb128 0x52
	.long	0x10c
	.long	0x63c0
	.uleb128 0x53
	.long	0x5e
	.byte	0x13
	.byte	0
	.uleb128 0x9
	.long	.LASF1006
	.byte	0x39
	.byte	0x54
	.byte	0x12
	.long	0x6363
	.uleb128 0x8
	.long	0x63c0
	.uleb128 0xb
	.long	0x2d5
	.uleb128 0x41
	.long	.LASF1007
	.byte	0x39
	.value	0x312
	.long	0x63e8
	.uleb128 0x1
	.long	0x63d1
	.byte	0
	.uleb128 0x1a
	.long	.LASF1008
	.byte	0x39
	.byte	0xb2
	.byte	0xc
	.long	0x118
	.long	0x63fe
	.uleb128 0x1
	.long	0x63d1
	.byte	0
	.uleb128 0x12
	.long	.LASF1009
	.byte	0x39
	.value	0x314
	.byte	0xc
	.long	0x118
	.long	0x6415
	.uleb128 0x1
	.long	0x63d1
	.byte	0
	.uleb128 0x12
	.long	.LASF1010
	.byte	0x39
	.value	0x316
	.byte	0xc
	.long	0x118
	.long	0x642c
	.uleb128 0x1
	.long	0x63d1
	.byte	0
	.uleb128 0x1a
	.long	.LASF1011
	.byte	0x39
	.byte	0xe6
	.byte	0xc
	.long	0x118
	.long	0x6442
	.uleb128 0x1
	.long	0x63d1
	.byte	0
	.uleb128 0x12
	.long	.LASF1012
	.byte	0x39
	.value	0x201
	.byte	0xc
	.long	0x118
	.long	0x6459
	.uleb128 0x1
	.long	0x63d1
	.byte	0
	.uleb128 0x12
	.long	.LASF1013
	.byte	0x39
	.value	0x2f8
	.byte	0xc
	.long	0x118
	.long	0x6475
	.uleb128 0x1
	.long	0x63d1
	.uleb128 0x1
	.long	0x6475
	.byte	0
	.uleb128 0xb
	.long	0x63c0
	.uleb128 0x12
	.long	.LASF1014
	.byte	0x39
	.value	0x250
	.byte	0xe
	.long	0x4994
	.long	0x649b
	.uleb128 0x1
	.long	0x4994
	.uleb128 0x1
	.long	0x118
	.uleb128 0x1
	.long	0x63d1
	.byte	0
	.uleb128 0x12
	.long	.LASF1015
	.byte	0x39
	.value	0x102
	.byte	0xe
	.long	0x63d1
	.long	0x64b7
	.uleb128 0x1
	.long	0x2e8
	.uleb128 0x1
	.long	0x2e8
	.byte	0
	.uleb128 0x12
	.long	.LASF1016
	.byte	0x39
	.value	0x2a3
	.byte	0xf
	.long	0x52
	.long	0x64dd
	.uleb128 0x1
	.long	0xa6
	.uleb128 0x1
	.long	0x52
	.uleb128 0x1
	.long	0x52
	.uleb128 0x1
	.long	0x63d1
	.byte	0
	.uleb128 0x12
	.long	.LASF1017
	.byte	0x39
	.value	0x109
	.byte	0xe
	.long	0x63d1
	.long	0x64fe
	.uleb128 0x1
	.long	0x2e8
	.uleb128 0x1
	.long	0x2e8
	.uleb128 0x1
	.long	0x63d1
	.byte	0
	.uleb128 0x12
	.long	.LASF1018
	.byte	0x39
	.value	0x2c9
	.byte	0xc
	.long	0x118
	.long	0x651f
	.uleb128 0x1
	.long	0x63d1
	.uleb128 0x1
	.long	0x4c27
	.uleb128 0x1
	.long	0x118
	.byte	0
	.uleb128 0x12
	.long	.LASF1019
	.byte	0x39
	.value	0x2fd
	.byte	0xc
	.long	0x118
	.long	0x653b
	.uleb128 0x1
	.long	0x63d1
	.uleb128 0x1
	.long	0x653b
	.byte	0
	.uleb128 0xb
	.long	0x63cc
	.uleb128 0x12
	.long	.LASF1020
	.byte	0x39
	.value	0x2ce
	.byte	0x11
	.long	0x4c27
	.long	0x6557
	.uleb128 0x1
	.long	0x63d1
	.byte	0
	.uleb128 0x12
	.long	.LASF1021
	.byte	0x39
	.value	0x202
	.byte	0xc
	.long	0x118
	.long	0x656e
	.uleb128 0x1
	.long	0x63d1
	.byte	0
	.uleb128 0x55
	.long	.LASF1022
	.byte	0x39
	.value	0x208
	.byte	0xc
	.long	0x118
	.uleb128 0x41
	.long	.LASF1023
	.byte	0x39
	.value	0x324
	.long	0x658d
	.uleb128 0x1
	.long	0x2e8
	.byte	0
	.uleb128 0x1a
	.long	.LASF1024
	.byte	0x39
	.byte	0x98
	.byte	0xc
	.long	0x118
	.long	0x65a3
	.uleb128 0x1
	.long	0x2e8
	.byte	0
	.uleb128 0x1a
	.long	.LASF1025
	.byte	0x39
	.byte	0x9a
	.byte	0xc
	.long	0x118
	.long	0x65be
	.uleb128 0x1
	.long	0x2e8
	.uleb128 0x1
	.long	0x2e8
	.byte	0
	.uleb128 0x41
	.long	.LASF1026
	.byte	0x39
	.value	0x2d3
	.long	0x65d0
	.uleb128 0x1
	.long	0x63d1
	.byte	0
	.uleb128 0x41
	.long	.LASF1027
	.byte	0x39
	.value	0x148
	.long	0x65e7
	.uleb128 0x1
	.long	0x63d1
	.uleb128 0x1
	.long	0x4994
	.byte	0
	.uleb128 0x12
	.long	.LASF1028
	.byte	0x39
	.value	0x14c
	.byte	0xc
	.long	0x118
	.long	0x660d
	.uleb128 0x1
	.long	0x63d1
	.uleb128 0x1
	.long	0x4994
	.uleb128 0x1
	.long	0x118
	.uleb128 0x1
	.long	0x52
	.byte	0
	.uleb128 0x6a
	.long	.LASF1029
	.byte	0x39
	.byte	0xbc
	.byte	0xe
	.long	0x63d1
	.uleb128 0x1a
	.long	.LASF1030
	.byte	0x39
	.byte	0xcd
	.byte	0xe
	.long	0x4994
	.long	0x662f
	.uleb128 0x1
	.long	0x4994
	.byte	0
	.uleb128 0x12
	.long	.LASF1031
	.byte	0x39
	.value	0x29c
	.byte	0xc
	.long	0x118
	.long	0x664b
	.uleb128 0x1
	.long	0x118
	.uleb128 0x1
	.long	0x63d1
	.byte	0
	.uleb128 0xb
	.long	0xe4d
	.uleb128 0x8
	.long	0x664b
	.uleb128 0xd
	.long	0xed7
	.uleb128 0xd
	.long	0xe4d
	.uleb128 0x9
	.long	.LASF1032
	.byte	0x3a
	.byte	0x26
	.byte	0x1b
	.long	0x5e
	.uleb128 0x9
	.long	.LASF1033
	.byte	0x3b
	.byte	0x30
	.byte	0x1a
	.long	0x6677
	.uleb128 0xb
	.long	0x5bb7
	.uleb128 0x1a
	.long	.LASF1034
	.byte	0x3a
	.byte	0x9f
	.byte	0xc
	.long	0x118
	.long	0x6697
	.uleb128 0x1
	.long	0xa8
	.uleb128 0x1
	.long	0x665f
	.byte	0
	.uleb128 0x1a
	.long	.LASF1035
	.byte	0x3b
	.byte	0x37
	.byte	0xf
	.long	0xa8
	.long	0x66b2
	.uleb128 0x1
	.long	0xa8
	.uleb128 0x1
	.long	0x666b
	.byte	0
	.uleb128 0x1a
	.long	.LASF1036
	.byte	0x3b
	.byte	0x34
	.byte	0x12
	.long	0x666b
	.long	0x66c8
	.uleb128 0x1
	.long	0x2e8
	.byte	0
	.uleb128 0x1a
	.long	.LASF1037
	.byte	0x3a
	.byte	0x9b
	.byte	0x11
	.long	0x665f
	.long	0x66de
	.uleb128 0x1
	.long	0x2e8
	.byte	0
	.uleb128 0xd
	.long	0xf15
	.uleb128 0x9b
	.long	0xf7e
	.uleb128 0x9
	.byte	0x3
	.quad	_ZStL8__ioinit
	.uleb128 0x48
	.long	.LASF1038
	.byte	0x3c
	.byte	0xf
	.byte	0xb
	.long	0x683a
	.uleb128 0x6c
	.long	.LASF1125
	.byte	0x3c
	.byte	0x11
	.byte	0xb
	.uleb128 0x9c
	.string	"v1"
	.byte	0x3c
	.byte	0x13
	.byte	0x12
	.uleb128 0x2e
	.long	.LASF1039
	.byte	0x1
	.byte	0x3c
	.byte	0x17
	.byte	0x7
	.long	0x6747
	.uleb128 0x2f
	.long	.LASF1040
	.byte	0x1c
	.long	.LASF1042
	.long	0x64a
	.uleb128 0x2f
	.long	.LASF1041
	.byte	0x21
	.long	.LASF1043
	.long	0x64a
	.uleb128 0x2f
	.long	.LASF1044
	.byte	0x26
	.long	.LASF1045
	.long	0x64a
	.byte	0
	.uleb128 0x8
	.long	0x670f
	.uleb128 0x2e
	.long	.LASF1046
	.byte	0x1
	.byte	0x3c
	.byte	0x2d
	.byte	0x7
	.long	0x6784
	.uleb128 0x2f
	.long	.LASF1040
	.byte	0x32
	.long	.LASF1047
	.long	0x64a
	.uleb128 0x2f
	.long	.LASF1041
	.byte	0x37
	.long	.LASF1048
	.long	0x64a
	.uleb128 0x2f
	.long	.LASF1044
	.byte	0x3c
	.long	.LASF1049
	.long	0xb6a
	.byte	0
	.uleb128 0x8
	.long	0x674c
	.uleb128 0x2e
	.long	.LASF1050
	.byte	0x1
	.byte	0x3c
	.byte	0x43
	.byte	0x7
	.long	0x67c1
	.uleb128 0x2f
	.long	.LASF1040
	.byte	0x48
	.long	.LASF1051
	.long	0xb6a
	.uleb128 0x2f
	.long	.LASF1041
	.byte	0x4d
	.long	.LASF1052
	.long	0xb6a
	.uleb128 0x2f
	.long	.LASF1044
	.byte	0x52
	.long	.LASF1053
	.long	0xb6a
	.byte	0
	.uleb128 0x8
	.long	0x6789
	.uleb128 0x2e
	.long	.LASF1054
	.byte	0x1
	.byte	0x3c
	.byte	0x58
	.byte	0x7
	.long	0x67fe
	.uleb128 0x2f
	.long	.LASF1040
	.byte	0x5d
	.long	.LASF1055
	.long	0xb6a
	.uleb128 0x2f
	.long	.LASF1041
	.byte	0x62
	.long	.LASF1056
	.long	0xb6a
	.uleb128 0x2f
	.long	.LASF1044
	.byte	0x67
	.long	.LASF1057
	.long	0x64a
	.byte	0
	.uleb128 0x8
	.long	0x67c6
	.uleb128 0x6d
	.string	"seq"
	.byte	0x6e
	.byte	0x1c
	.long	0x6747
	.byte	0x1
	.byte	0
	.uleb128 0x6d
	.string	"par"
	.byte	0x6f
	.byte	0x1b
	.long	0x6784
	.byte	0x1
	.byte	0
	.uleb128 0x6e
	.long	.LASF1059
	.byte	0x70
	.byte	0x27
	.long	0x67c1
	.byte	0x1
	.byte	0
	.uleb128 0x6e
	.long	.LASF1060
	.byte	0x71
	.byte	0x1e
	.long	0x67fe
	.byte	0x1
	.byte	0
	.byte	0
	.byte	0
	.byte	0
	.uleb128 0x4e
	.long	0x6803
	.uleb128 0x4e
	.long	0x6810
	.uleb128 0x4e
	.long	0x681d
	.uleb128 0x4e
	.long	0x682a
	.uleb128 0xb
	.long	0x1058
	.uleb128 0x8
	.long	0x684e
	.uleb128 0xd
	.long	0x11d5
	.uleb128 0xb
	.long	0x4c27
	.uleb128 0x8
	.long	0x685d
	.uleb128 0xb
	.long	0x11d5
	.uleb128 0x8
	.long	0x6867
	.uleb128 0xd
	.long	0x4c27
	.uleb128 0xb
	.long	0x4c2e
	.uleb128 0x8
	.long	0x6876
	.uleb128 0xd
	.long	0x4c2e
	.uleb128 0xb
	.long	0x11da
	.uleb128 0x8
	.long	0x6885
	.uleb128 0xd
	.long	0x1263
	.uleb128 0xd
	.long	0x11da
	.uleb128 0xd
	.long	0x12a1
	.uleb128 0xd
	.long	0x12ae
	.uleb128 0xd
	.long	0x4fb8
	.uleb128 0xd
	.long	0x4fc4
	.uleb128 0xb
	.long	0x1371
	.uleb128 0x8
	.long	0x68ad
	.uleb128 0x25
	.long	0x1371
	.uleb128 0xd
	.long	0x1417
	.uleb128 0xd
	.long	0x1371
	.uleb128 0xb
	.long	0x1428
	.uleb128 0x8
	.long	0x68c6
	.uleb128 0xd
	.long	0x14ff
	.uleb128 0x25
	.long	0x1428
	.uleb128 0x25
	.long	0x14f3
	.uleb128 0xd
	.long	0x14f3
	.uleb128 0xb
	.long	0x1364
	.uleb128 0x8
	.long	0x68e4
	.uleb128 0xb
	.long	0x1707
	.uleb128 0x8
	.long	0x68ee
	.uleb128 0xd
	.long	0x154b
	.uleb128 0x25
	.long	0x1364
	.uleb128 0xd
	.long	0x17f7
	.uleb128 0xb
	.long	0x172f
	.uleb128 0x8
	.long	0x6907
	.uleb128 0xd
	.long	0x18a8
	.uleb128 0xd
	.long	0x191b
	.uleb128 0xd
	.long	0x234e
	.uleb128 0x25
	.long	0x172f
	.uleb128 0xd
	.long	0x235f
	.uleb128 0xd
	.long	0x172f
	.uleb128 0xb
	.long	0x234e
	.uleb128 0x8
	.long	0x692f
	.uleb128 0x25
	.long	0x190e
	.uleb128 0xd
	.long	0x1804
	.uleb128 0x48
	.long	.LASF1061
	.byte	0x4
	.byte	0x6
	.byte	0xb
	.long	0x7043
	.uleb128 0x2e
	.long	.LASF1062
	.byte	0x30
	.byte	0x5
	.byte	0x11
	.byte	0xb
	.long	0x6b6c
	.uleb128 0x20
	.long	.LASF1063
	.byte	0x5
	.byte	0x1a
	.byte	0x9
	.long	.LASF1064
	.long	0x6970
	.long	0x6976
	.uleb128 0x2
	.long	0x7140
	.byte	0
	.uleb128 0x35
	.long	.LASF1063
	.byte	0x28
	.long	.LASF1065
	.long	0x6988
	.long	0x6993
	.uleb128 0x2
	.long	0x7140
	.uleb128 0x1
	.long	0x714a
	.byte	0
	.uleb128 0x35
	.long	.LASF1063
	.byte	0x30
	.long	.LASF1066
	.long	0x69a5
	.long	0x69b0
	.uleb128 0x2
	.long	0x7140
	.uleb128 0x1
	.long	0x714f
	.byte	0
	.uleb128 0x38
	.long	.LASF82
	.byte	0x5
	.byte	0x38
	.byte	0x11
	.long	.LASF1067
	.long	0x7154
	.long	0x69c8
	.long	0x69d3
	.uleb128 0x2
	.long	0x7140
	.uleb128 0x1
	.long	0x714a
	.byte	0
	.uleb128 0x38
	.long	.LASF82
	.byte	0x5
	.byte	0x41
	.byte	0x11
	.long	.LASF1068
	.long	0x7154
	.long	0x69eb
	.long	0x69f6
	.uleb128 0x2
	.long	0x7140
	.uleb128 0x1
	.long	0x714f
	.byte	0
	.uleb128 0x35
	.long	.LASF1069
	.byte	0x4a
	.long	.LASF1070
	.long	0x6a08
	.long	0x6a13
	.uleb128 0x2
	.long	0x7140
	.uleb128 0x2
	.long	0x118
	.byte	0
	.uleb128 0x17
	.long	.LASF1071
	.byte	0x5
	.byte	0x4c
	.byte	0x13
	.long	.LASF1072
	.long	0x6b71
	.byte	0x1
	.long	0x6a2c
	.long	0x6a32
	.uleb128 0x2
	.long	0x7159
	.byte	0
	.uleb128 0x17
	.long	.LASF298
	.byte	0x5
	.byte	0x51
	.byte	0x13
	.long	.LASF1073
	.long	0x6b71
	.byte	0x1
	.long	0x6a4b
	.long	0x6a51
	.uleb128 0x2
	.long	0x7159
	.byte	0
	.uleb128 0x17
	.long	.LASF1074
	.byte	0x5
	.byte	0x56
	.byte	0x20
	.long	.LASF1075
	.long	0x172f
	.byte	0x1
	.long	0x6a6a
	.long	0x6a70
	.uleb128 0x2
	.long	0x7159
	.byte	0
	.uleb128 0x17
	.long	.LASF1074
	.byte	0x5
	.byte	0x5b
	.byte	0x13
	.long	.LASF1076
	.long	0x6b71
	.byte	0x1
	.long	0x6a89
	.long	0x6a94
	.uleb128 0x2
	.long	0x7159
	.uleb128 0x1
	.long	0x6b71
	.byte	0
	.uleb128 0x17
	.long	.LASF276
	.byte	0x5
	.byte	0x60
	.byte	0xe
	.long	.LASF1077
	.long	0x7163
	.byte	0x1
	.long	0x6aad
	.long	0x6ab3
	.uleb128 0x2
	.long	0x7159
	.byte	0
	.uleb128 0x4c
	.string	"end"
	.byte	0x5
	.byte	0x65
	.byte	0xe
	.long	.LASF1079
	.long	0x7163
	.long	0x6acb
	.long	0x6ad1
	.uleb128 0x2
	.long	0x7159
	.byte	0
	.uleb128 0xa
	.long	.LASF1080
	.byte	0x5
	.byte	0x83
	.byte	0x20
	.long	0x2b38
	.byte	0
	.uleb128 0xa
	.long	.LASF1081
	.byte	0x5
	.byte	0x84
	.byte	0x20
	.long	0x172f
	.byte	0x18
	.uleb128 0x22
	.long	.LASF1082
	.byte	0x5
	.byte	0x86
	.byte	0xe
	.long	.LASF1083
	.long	0x6aff
	.long	0x6b05
	.uleb128 0x2
	.long	0x7140
	.byte	0
	.uleb128 0x17
	.long	.LASF1084
	.byte	0x5
	.byte	0x6b
	.byte	0x14
	.long	.LASF1085
	.long	0x706e
	.byte	0x1
	.long	0x6b35
	.long	0x6b4a
	.uleb128 0x6f
	.string	"T"
	.long	0x6b35
	.uleb128 0x42
	.long	0x118
	.uleb128 0x42
	.long	0x118
	.uleb128 0x42
	.long	0x118
	.byte	0
	.uleb128 0x2
	.long	0x7140
	.uleb128 0x1
	.long	0x118
	.uleb128 0x1
	.long	0x118
	.uleb128 0x1
	.long	0x118
	.byte	0
	.uleb128 0x4
	.long	.LASF1086
	.long	0x3f
	.uleb128 0x70
	.long	.LASF1124
	.uleb128 0x1b
	.long	0x4c27
	.byte	0x2
	.uleb128 0x1b
	.long	0x4c27
	.byte	0x3
	.uleb128 0x1b
	.long	0x4c27
	.byte	0x5
	.byte	0
	.byte	0
	.uleb128 0x8
	.long	0x694f
	.uleb128 0x9
	.long	.LASF173
	.byte	0x4
	.byte	0xb
	.byte	0x15
	.long	0x6004
	.uleb128 0x2e
	.long	.LASF1087
	.byte	0x30
	.byte	0x5
	.byte	0x11
	.byte	0xb
	.long	0x6e3b
	.uleb128 0x20
	.long	.LASF1063
	.byte	0x5
	.byte	0x1a
	.byte	0x9
	.long	.LASF1088
	.long	0x6b9e
	.long	0x6ba4
	.uleb128 0x2
	.long	0x7168
	.byte	0
	.uleb128 0x35
	.long	.LASF1063
	.byte	0x28
	.long	.LASF1089
	.long	0x6bb6
	.long	0x6bc1
	.uleb128 0x2
	.long	0x7168
	.uleb128 0x1
	.long	0x7172
	.byte	0
	.uleb128 0x35
	.long	.LASF1063
	.byte	0x30
	.long	.LASF1090
	.long	0x6bd3
	.long	0x6bde
	.uleb128 0x2
	.long	0x7168
	.uleb128 0x1
	.long	0x7177
	.byte	0
	.uleb128 0x38
	.long	.LASF82
	.byte	0x5
	.byte	0x38
	.byte	0x11
	.long	.LASF1091
	.long	0x717c
	.long	0x6bf6
	.long	0x6c01
	.uleb128 0x2
	.long	0x7168
	.uleb128 0x1
	.long	0x7172
	.byte	0
	.uleb128 0x38
	.long	.LASF82
	.byte	0x5
	.byte	0x41
	.byte	0x11
	.long	.LASF1092
	.long	0x717c
	.long	0x6c19
	.long	0x6c24
	.uleb128 0x2
	.long	0x7168
	.uleb128 0x1
	.long	0x7177
	.byte	0
	.uleb128 0x35
	.long	.LASF1069
	.byte	0x4a
	.long	.LASF1093
	.long	0x6c36
	.long	0x6c41
	.uleb128 0x2
	.long	0x7168
	.uleb128 0x2
	.long	0x118
	.byte	0
	.uleb128 0x17
	.long	.LASF1071
	.byte	0x5
	.byte	0x4c
	.byte	0x13
	.long	.LASF1094
	.long	0x6b71
	.byte	0x1
	.long	0x6c5a
	.long	0x6c60
	.uleb128 0x2
	.long	0x7181
	.byte	0
	.uleb128 0x17
	.long	.LASF298
	.byte	0x5
	.byte	0x51
	.byte	0x13
	.long	.LASF1095
	.long	0x6b71
	.byte	0x1
	.long	0x6c79
	.long	0x6c7f
	.uleb128 0x2
	.long	0x7181
	.byte	0
	.uleb128 0x17
	.long	.LASF1074
	.byte	0x5
	.byte	0x56
	.byte	0x20
	.long	.LASF1096
	.long	0x172f
	.byte	0x1
	.long	0x6c98
	.long	0x6c9e
	.uleb128 0x2
	.long	0x7181
	.byte	0
	.uleb128 0x17
	.long	.LASF1074
	.byte	0x5
	.byte	0x5b
	.byte	0x13
	.long	.LASF1097
	.long	0x6b71
	.byte	0x1
	.long	0x6cb7
	.long	0x6cc2
	.uleb128 0x2
	.long	0x7181
	.uleb128 0x1
	.long	0x6b71
	.byte	0
	.uleb128 0x17
	.long	.LASF276
	.byte	0x5
	.byte	0x60
	.byte	0xe
	.long	.LASF1098
	.long	0x7163
	.byte	0x1
	.long	0x6cdb
	.long	0x6ce1
	.uleb128 0x2
	.long	0x7181
	.byte	0
	.uleb128 0x4c
	.string	"end"
	.byte	0x5
	.byte	0x65
	.byte	0xe
	.long	.LASF1099
	.long	0x7163
	.long	0x6cf9
	.long	0x6cff
	.uleb128 0x2
	.long	0x7181
	.byte	0
	.uleb128 0xa
	.long	.LASF1080
	.byte	0x5
	.byte	0x83
	.byte	0x20
	.long	0x2b38
	.byte	0
	.uleb128 0xa
	.long	.LASF1081
	.byte	0x5
	.byte	0x84
	.byte	0x20
	.long	0x172f
	.byte	0x18
	.uleb128 0x22
	.long	.LASF1082
	.byte	0x5
	.byte	0x86
	.byte	0xe
	.long	.LASF1100
	.long	0x6d2d
	.long	0x6d33
	.uleb128 0x2
	.long	0x7168
	.byte	0
	.uleb128 0x22
	.long	.LASF1101
	.byte	0x5
	.byte	0xad
	.byte	0xe
	.long	.LASF1102
	.long	0x6d64
	.long	0x6d6f
	.uleb128 0x36
	.long	.LASF1105
	.byte	0xac
	.long	0x6d64
	.uleb128 0x1b
	.long	0x4c27
	.byte	0x2
	.uleb128 0x1b
	.long	0x4c27
	.byte	0x3
	.uleb128 0x1b
	.long	0x4c27
	.byte	0x37
	.byte	0
	.uleb128 0x2
	.long	0x7168
	.uleb128 0x1
	.long	0x7195
	.byte	0
	.uleb128 0x22
	.long	.LASF1103
	.byte	0x5
	.byte	0x91
	.byte	0xe
	.long	.LASF1104
	.long	0x6da0
	.long	0x6dab
	.uleb128 0x36
	.long	.LASF1105
	.byte	0x90
	.long	0x6da0
	.uleb128 0x1b
	.long	0x4c27
	.byte	0x2
	.uleb128 0x1b
	.long	0x4c27
	.byte	0x3
	.uleb128 0x1b
	.long	0x4c27
	.byte	0x5
	.byte	0
	.uleb128 0x2
	.long	0x7168
	.uleb128 0x1
	.long	0x714a
	.byte	0
	.uleb128 0x17
	.long	.LASF1106
	.byte	0x5
	.byte	0x3b
	.byte	0x11
	.long	.LASF1107
	.long	0x717c
	.byte	0x1
	.long	0x6de1
	.long	0x6dec
	.uleb128 0x36
	.long	.LASF1105
	.byte	0x3a
	.long	0x6de1
	.uleb128 0x1b
	.long	0x4c27
	.byte	0x2
	.uleb128 0x1b
	.long	0x4c27
	.byte	0x3
	.uleb128 0x1b
	.long	0x4c27
	.byte	0x37
	.byte	0
	.uleb128 0x2
	.long	0x7168
	.uleb128 0x1
	.long	0x7195
	.byte	0
	.uleb128 0x20
	.long	.LASF1108
	.byte	0x5
	.byte	0x2b
	.byte	0x9
	.long	.LASF1109
	.long	0x6e1d
	.long	0x6e28
	.uleb128 0x36
	.long	.LASF1105
	.byte	0x2a
	.long	0x6e1d
	.uleb128 0x1b
	.long	0x4c27
	.byte	0x2
	.uleb128 0x1b
	.long	0x4c27
	.byte	0x3
	.uleb128 0x1b
	.long	0x4c27
	.byte	0x5
	.byte	0
	.uleb128 0x2
	.long	0x7168
	.uleb128 0x1
	.long	0x714a
	.byte	0
	.uleb128 0x4
	.long	.LASF1086
	.long	0x3f
	.uleb128 0x9d
	.long	.LASF1124
	.byte	0x5
	.byte	0x10
	.byte	0x30
	.byte	0
	.uleb128 0x8
	.long	0x6b7d
	.uleb128 0x2e
	.long	.LASF1110
	.byte	0x30
	.byte	0x5
	.byte	0x11
	.byte	0xb
	.long	0x7018
	.uleb128 0x20
	.long	.LASF1063
	.byte	0x5
	.byte	0x1a
	.byte	0x9
	.long	.LASF1111
	.long	0x6e61
	.long	0x6e67
	.uleb128 0x2
	.long	0x718b
	.byte	0
	.uleb128 0x35
	.long	.LASF1063
	.byte	0x28
	.long	.LASF1112
	.long	0x6e79
	.long	0x6e84
	.uleb128 0x2
	.long	0x718b
	.uleb128 0x1
	.long	0x7195
	.byte	0
	.uleb128 0x35
	.long	.LASF1063
	.byte	0x30
	.long	.LASF1113
	.long	0x6e96
	.long	0x6ea1
	.uleb128 0x2
	.long	0x718b
	.uleb128 0x1
	.long	0x719a
	.byte	0
	.uleb128 0x38
	.long	.LASF82
	.byte	0x5
	.byte	0x38
	.byte	0x11
	.long	.LASF1114
	.long	0x719f
	.long	0x6eb9
	.long	0x6ec4
	.uleb128 0x2
	.long	0x718b
	.uleb128 0x1
	.long	0x7195
	.byte	0
	.uleb128 0x38
	.long	.LASF82
	.byte	0x5
	.byte	0x41
	.byte	0x11
	.long	.LASF1115
	.long	0x719f
	.long	0x6edc
	.long	0x6ee7
	.uleb128 0x2
	.long	0x718b
	.uleb128 0x1
	.long	0x719a
	.byte	0
	.uleb128 0x35
	.long	.LASF1069
	.byte	0x4a
	.long	.LASF1116
	.long	0x6ef9
	.long	0x6f04
	.uleb128 0x2
	.long	0x718b
	.uleb128 0x2
	.long	0x118
	.byte	0
	.uleb128 0x17
	.long	.LASF1071
	.byte	0x5
	.byte	0x4c
	.byte	0x13
	.long	.LASF1117
	.long	0x6b71
	.byte	0x1
	.long	0x6f1d
	.long	0x6f23
	.uleb128 0x2
	.long	0x71a4
	.byte	0
	.uleb128 0x17
	.long	.LASF298
	.byte	0x5
	.byte	0x51
	.byte	0x13
	.long	.LASF1118
	.long	0x6b71
	.byte	0x1
	.long	0x6f3c
	.long	0x6f42
	.uleb128 0x2
	.long	0x71a4
	.byte	0
	.uleb128 0x17
	.long	.LASF1074
	.byte	0x5
	.byte	0x56
	.byte	0x20
	.long	.LASF1119
	.long	0x172f
	.byte	0x1
	.long	0x6f5b
	.long	0x6f61
	.uleb128 0x2
	.long	0x71a4
	.byte	0
	.uleb128 0x17
	.long	.LASF1074
	.byte	0x5
	.byte	0x5b
	.byte	0x13
	.long	.LASF1120
	.long	0x6b71
	.byte	0x1
	.long	0x6f7a
	.long	0x6f85
	.uleb128 0x2
	.long	0x71a4
	.uleb128 0x1
	.long	0x6b71
	.byte	0
	.uleb128 0x17
	.long	.LASF276
	.byte	0x5
	.byte	0x60
	.byte	0xe
	.long	.LASF1121
	.long	0x7163
	.byte	0x1
	.long	0x6f9e
	.long	0x6fa4
	.uleb128 0x2
	.long	0x71a4
	.byte	0
	.uleb128 0x4c
	.string	"end"
	.byte	0x5
	.byte	0x65
	.byte	0xe
	.long	.LASF1122
	.long	0x7163
	.long	0x6fbc
	.long	0x6fc2
	.uleb128 0x2
	.long	0x71a4
	.byte	0
	.uleb128 0xa
	.long	.LASF1080
	.byte	0x5
	.byte	0x83
	.byte	0x20
	.long	0x2b38
	.byte	0
	.uleb128 0xa
	.long	.LASF1081
	.byte	0x5
	.byte	0x84
	.byte	0x20
	.long	0x172f
	.byte	0x18
	.uleb128 0x22
	.long	.LASF1082
	.byte	0x5
	.byte	0x86
	.byte	0xe
	.long	.LASF1123
	.long	0x6ff0
	.long	0x6ff6
	.uleb128 0x2
	.long	0x718b
	.byte	0
	.uleb128 0x4
	.long	.LASF1086
	.long	0x3f
	.uleb128 0x70
	.long	.LASF1124
	.uleb128 0x1b
	.long	0x4c27
	.byte	0x2
	.uleb128 0x1b
	.long	0x4c27
	.byte	0x3
	.uleb128 0x1b
	.long	0x4c27
	.byte	0x37
	.byte	0
	.byte	0
	.uleb128 0x8
	.long	0x6e40
	.uleb128 0x6c
	.long	.LASF1126
	.byte	0x4
	.byte	0xd
	.byte	0xf
	.uleb128 0x9e
	.long	.LASF1127
	.byte	0x4
	.byte	0x18
	.byte	0x13
	.long	.LASF1128
	.long	0x6b71
	.uleb128 0x1
	.long	0x6b71
	.uleb128 0x1
	.long	0x6b71
	.byte	0
	.byte	0
	.byte	0
	.uleb128 0x6b
	.byte	0x6
	.byte	0x6
	.byte	0x11
	.long	0x6943
	.uleb128 0xb
	.long	0x2461
	.uleb128 0x8
	.long	0x704b
	.uleb128 0xd
	.long	0x25de
	.uleb128 0xb
	.long	0x3f
	.uleb128 0x8
	.long	0x705a
	.uleb128 0xb
	.long	0x25de
	.uleb128 0x8
	.long	0x7064
	.uleb128 0xd
	.long	0x3f
	.uleb128 0xb
	.long	0x46
	.uleb128 0x8
	.long	0x7073
	.uleb128 0xd
	.long	0x46
	.uleb128 0xb
	.long	0x25e3
	.uleb128 0x8
	.long	0x7082
	.uleb128 0xd
	.long	0x266c
	.uleb128 0xd
	.long	0x25e3
	.uleb128 0xd
	.long	0x26aa
	.uleb128 0xd
	.long	0x26b7
	.uleb128 0xd
	.long	0x553a
	.uleb128 0xd
	.long	0x5546
	.uleb128 0xb
	.long	0x277a
	.uleb128 0x8
	.long	0x70aa
	.uleb128 0x25
	.long	0x277a
	.uleb128 0xd
	.long	0x2820
	.uleb128 0xd
	.long	0x277a
	.uleb128 0xb
	.long	0x2831
	.uleb128 0x8
	.long	0x70c3
	.uleb128 0xd
	.long	0x2908
	.uleb128 0x25
	.long	0x2831
	.uleb128 0x25
	.long	0x28fc
	.uleb128 0xd
	.long	0x28fc
	.uleb128 0xb
	.long	0x276d
	.uleb128 0x8
	.long	0x70e1
	.uleb128 0xb
	.long	0x2b10
	.uleb128 0x8
	.long	0x70eb
	.uleb128 0xd
	.long	0x2954
	.uleb128 0x25
	.long	0x276d
	.uleb128 0xd
	.long	0x2c00
	.uleb128 0xb
	.long	0x2b38
	.uleb128 0x8
	.long	0x7104
	.uleb128 0xd
	.long	0x2cb1
	.uleb128 0xd
	.long	0x2d24
	.uleb128 0xd
	.long	0x3723
	.uleb128 0x25
	.long	0x2b38
	.uleb128 0xd
	.long	0x3734
	.uleb128 0xd
	.long	0x2b38
	.uleb128 0xb
	.long	0x3723
	.uleb128 0x8
	.long	0x712c
	.uleb128 0x25
	.long	0x2d17
	.uleb128 0xd
	.long	0x2c0d
	.uleb128 0xb
	.long	0x694f
	.uleb128 0x8
	.long	0x7140
	.uleb128 0xd
	.long	0x6b6c
	.uleb128 0x25
	.long	0x694f
	.uleb128 0xd
	.long	0x694f
	.uleb128 0xb
	.long	0x6b6c
	.uleb128 0x8
	.long	0x7159
	.uleb128 0x69
	.long	.LASF1130
	.uleb128 0xb
	.long	0x6b7d
	.uleb128 0x8
	.long	0x7168
	.uleb128 0xd
	.long	0x6e3b
	.uleb128 0x25
	.long	0x6b7d
	.uleb128 0xd
	.long	0x6b7d
	.uleb128 0xb
	.long	0x6e3b
	.uleb128 0x8
	.long	0x7181
	.uleb128 0xb
	.long	0x6e40
	.uleb128 0x8
	.long	0x718b
	.uleb128 0xd
	.long	0x7018
	.uleb128 0x25
	.long	0x6e40
	.uleb128 0xd
	.long	0x6e40
	.uleb128 0xb
	.long	0x7018
	.uleb128 0x8
	.long	0x71a4
	.uleb128 0xb
	.long	0x2364
	.uleb128 0xb
	.long	0x2452
	.uleb128 0x8
	.long	0x71b3
	.uleb128 0xb
	.long	0x501a
	.uleb128 0x8
	.long	0x71bd
	.uleb128 0xd
	.long	0x6862
	.uleb128 0xb
	.long	0x5255
	.uleb128 0x8
	.long	0x71cc
	.uleb128 0xd
	.long	0x501a
	.uleb128 0xb
	.long	0x57cf
	.uleb128 0x8
	.long	0x71db
	.uleb128 0xd
	.long	0x7078
	.uleb128 0xb
	.long	0x59fd
	.uleb128 0x8
	.long	0x71ea
	.uleb128 0xd
	.long	0x57cf
	.uleb128 0xb
	.long	0x559c
	.uleb128 0x8
	.long	0x71f9
	.uleb128 0xd
	.long	0x705f
	.uleb128 0xb
	.long	0x57ca
	.uleb128 0x8
	.long	0x7208
	.uleb128 0xd
	.long	0x559c
	.uleb128 0xb
	.long	0x525a
	.uleb128 0x8
	.long	0x7217
	.uleb128 0xd
	.long	0x687b
	.uleb128 0xb
	.long	0x5488
	.uleb128 0x8
	.long	0x7226
	.uleb128 0xd
	.long	0x525a
	.uleb128 0x9f
	.long	.LASF1163
	.long	0xa6
	.uleb128 0x4f
	.long	0xe76
	.long	.LASF1131
	.long	0x7250
	.long	0x725a
	.uleb128 0x11
	.long	.LASF1133
	.long	0x6650
	.byte	0
	.uleb128 0x4f
	.long	0xe5d
	.long	.LASF1132
	.long	0x726b
	.long	0x7275
	.uleb128 0x11
	.long	.LASF1133
	.long	0x6650
	.byte	0
	.uleb128 0xa0
	.long	.LASF1268
	.uleb128 0xa1
	.long	.LASF1269
	.uleb128 0x71
	.long	.LASF1134
	.long	0xa6
	.long	0x7294
	.uleb128 0x1
	.long	0xa6
	.byte	0
	.uleb128 0x3d
	.long	.LASF1135
	.byte	0x1
	.byte	0x87
	.byte	0x6
	.long	.LASF1136
	.long	0x72af
	.uleb128 0x1
	.long	0xa6
	.uleb128 0x1
	.long	0x55c
	.byte	0
	.uleb128 0x1c
	.long	.LASF1137
	.byte	0x1
	.byte	0x7e
	.byte	0x1a
	.long	.LASF1138
	.long	0xa6
	.long	0x72c9
	.uleb128 0x1
	.long	0x55c
	.byte	0
	.uleb128 0xa2
	.long	.LASF1270
	.long	0x72d9
	.uleb128 0x1
	.long	0xa6
	.byte	0
	.uleb128 0xb
	.long	0x39ce
	.uleb128 0x8
	.long	0x72d9
	.uleb128 0x4f
	.long	0x39d7
	.long	.LASF1139
	.long	0x72f4
	.long	0x72fe
	.uleb128 0x11
	.long	.LASF1133
	.long	0x72de
	.byte	0
	.uleb128 0xa3
	.long	.LASF1140
	.long	0x7318
	.uleb128 0x1
	.long	0xa6
	.uleb128 0x1
	.long	0xa6
	.uleb128 0x1
	.long	0x5f4a
	.byte	0
	.uleb128 0x4f
	.long	0x39fe
	.long	.LASF1141
	.long	0x7329
	.long	0x7338
	.uleb128 0x11
	.long	.LASF1133
	.long	0x72de
	.uleb128 0x1
	.long	0x2e8
	.byte	0
	.uleb128 0x71
	.long	.LASF1142
	.long	0xa6
	.long	0x734b
	.uleb128 0x1
	.long	0x5e
	.byte	0
	.uleb128 0xa4
	.long	.LASF1271
	.quad	.LFB3394
	.quad	.LFE3394-.LFB3394
	.uleb128 0x1
	.byte	0x9c
	.uleb128 0xa5
	.long	.LASF1272
	.quad	.LFB3393
	.quad	.LFE3393-.LFB3393
	.uleb128 0x1
	.byte	0x9c
	.long	0x739e
	.uleb128 0x18
	.long	.LASF1143
	.byte	0x6
	.byte	0x15
	.byte	0x1
	.long	0x118
	.uleb128 0x2
	.byte	0x91
	.sleb128 -20
	.uleb128 0x18
	.long	.LASF1144
	.byte	0x6
	.byte	0x15
	.byte	0x1
	.long	0x118
	.uleb128 0x2
	.byte	0x91
	.sleb128 -24
	.byte	0
	.uleb128 0x28
	.long	0x5455
	.long	0x73bd
	.quad	.LFB3392
	.quad	.LFE3392-.LFB3392
	.uleb128 0x1
	.byte	0x9c
	.long	0x73ca
	.uleb128 0xe
	.long	.LASF1133
	.long	0x722b
	.uleb128 0x2
	.byte	0x91
	.sleb128 -24
	.byte	0
	.uleb128 0x26
	.long	0x3a1d
	.quad	.LFB3391
	.quad	.LFE3391-.LFB3391
	.uleb128 0x1
	.byte	0x9c
	.long	0x7438
	.uleb128 0x4
	.long	.LASF132
	.long	0x705a
	.uleb128 0x7
	.string	"_Tp"
	.long	0x3f
	.uleb128 0x5
	.long	.LASF1145
	.byte	0x2
	.value	0x395
	.byte	0x20
	.long	0x705a
	.uleb128 0x2
	.byte	0x91
	.sleb128 -40
	.uleb128 0x5
	.long	.LASF1146
	.byte	0x2
	.value	0x395
	.byte	0x3a
	.long	0x705a
	.uleb128 0x2
	.byte	0x91
	.sleb128 -48
	.uleb128 0x5
	.long	.LASF18
	.byte	0x2
	.value	0x396
	.byte	0x13
	.long	0x707d
	.uleb128 0x2
	.byte	0x91
	.sleb128 -56
	.uleb128 0x2b
	.long	.LASF1148
	.byte	0x2
	.value	0x398
	.byte	0x11
	.long	0x46
	.uleb128 0x2
	.byte	0x91
	.sleb128 -24
	.byte	0
	.uleb128 0xf
	.long	0x392a
	.quad	.LFB3390
	.quad	.LFE3390-.LFB3390
	.uleb128 0x1
	.byte	0x9c
	.long	0x749d
	.uleb128 0x7
	.string	"_Tp"
	.long	0x4c27
	.uleb128 0x5
	.long	.LASF1145
	.byte	0x2
	.value	0x1a4
	.byte	0x16
	.long	0x6876
	.uleb128 0x2
	.byte	0x91
	.sleb128 -40
	.uleb128 0x5
	.long	.LASF1146
	.byte	0x2
	.value	0x1a4
	.byte	0x2a
	.long	0x6876
	.uleb128 0x2
	.byte	0x91
	.sleb128 -48
	.uleb128 0x5
	.long	.LASF1149
	.byte	0x2
	.value	0x1a4
	.byte	0x37
	.long	0x685d
	.uleb128 0x2
	.byte	0x91
	.sleb128 -56
	.uleb128 0x2b
	.long	.LASF1150
	.byte	0x2
	.value	0x1ad
	.byte	0x14
	.long	0xb65
	.uleb128 0x2
	.byte	0x91
	.sleb128 -24
	.byte	0
	.uleb128 0xf
	.long	0x3a50
	.quad	.LFB3389
	.quad	.LFE3389-.LFB3389
	.uleb128 0x1
	.byte	0x9c
	.long	0x74db
	.uleb128 0x4
	.long	.LASF536
	.long	0x6876
	.uleb128 0x4
	.long	.LASF558
	.long	0x172f
	.uleb128 0x5
	.long	.LASF1151
	.byte	0x12
	.value	0x549
	.byte	0x46
	.long	0x525a
	.uleb128 0x2
	.byte	0x91
	.sleb128 -24
	.byte	0
	.uleb128 0xf
	.long	0x3a7d
	.quad	.LFB3388
	.quad	.LFE3388-.LFB3388
	.uleb128 0x1
	.byte	0x9c
	.long	0x7539
	.uleb128 0x4
	.long	.LASF561
	.long	0x705a
	.uleb128 0x7
	.string	"_Tp"
	.long	0x3f
	.uleb128 0x5
	.long	.LASF1145
	.byte	0x2
	.value	0x3c7
	.byte	0x14
	.long	0x705a
	.uleb128 0x2
	.byte	0x91
	.sleb128 -24
	.uleb128 0x5
	.long	.LASF1146
	.byte	0x2
	.value	0x3c7
	.byte	0x23
	.long	0x705a
	.uleb128 0x2
	.byte	0x91
	.sleb128 -32
	.uleb128 0x5
	.long	.LASF18
	.byte	0x2
	.value	0x3c7
	.byte	0x36
	.long	0x707d
	.uleb128 0x2
	.byte	0x91
	.sleb128 -40
	.byte	0
	.uleb128 0xf
	.long	0x3ab0
	.quad	.LFB3387
	.quad	.LFE3387-.LFB3387
	.uleb128 0x1
	.byte	0x9c
	.long	0x75a1
	.uleb128 0x2a
	.long	.LASF543
	.long	0x5b06
	.byte	0
	.uleb128 0x7
	.string	"_II"
	.long	0x6876
	.uleb128 0x7
	.string	"_OI"
	.long	0x685d
	.uleb128 0x5
	.long	.LASF1145
	.byte	0x2
	.value	0x1e6
	.byte	0x18
	.long	0x6876
	.uleb128 0x2
	.byte	0x91
	.sleb128 -24
	.uleb128 0x5
	.long	.LASF1146
	.byte	0x2
	.value	0x1e6
	.byte	0x25
	.long	0x6876
	.uleb128 0x2
	.byte	0x91
	.sleb128 -32
	.uleb128 0x5
	.long	.LASF1149
	.byte	0x2
	.value	0x1e6
	.byte	0x31
	.long	0x685d
	.uleb128 0x2
	.byte	0x91
	.sleb128 -40
	.byte	0
	.uleb128 0xf
	.long	0x3af1
	.quad	.LFB3386
	.quad	.LFE3386-.LFB3386
	.uleb128 0x1
	.byte	0x9c
	.long	0x75fc
	.uleb128 0x7
	.string	"_Tp"
	.long	0x4c27
	.uleb128 0x7
	.string	"_Up"
	.long	0x4c27
	.uleb128 0x18
	.long	.LASF1152
	.byte	0x2
	.byte	0x5a
	.byte	0x19
	.long	0x6876
	.uleb128 0x2
	.byte	0x91
	.sleb128 -24
	.uleb128 0x18
	.long	.LASF1153
	.byte	0x2
	.byte	0x5a
	.byte	0x2e
	.long	0x6876
	.uleb128 0x2
	.byte	0x91
	.sleb128 -32
	.uleb128 0x18
	.long	.LASF1154
	.byte	0x2
	.byte	0x5a
	.byte	0x3f
	.long	0x55c
	.uleb128 0x2
	.byte	0x91
	.sleb128 -40
	.byte	0
	.uleb128 0xf
	.long	0x3b27
	.quad	.LFB3385
	.quad	.LFE3385-.LFB3385
	.uleb128 0x1
	.byte	0x9c
	.long	0x7664
	.uleb128 0x2a
	.long	.LASF543
	.long	0x5b06
	.byte	0
	.uleb128 0x7
	.string	"_II"
	.long	0x525a
	.uleb128 0x7
	.string	"_OI"
	.long	0x685d
	.uleb128 0x5
	.long	.LASF1145
	.byte	0x2
	.value	0x20f
	.byte	0x17
	.long	0x525a
	.uleb128 0x2
	.byte	0x91
	.sleb128 -40
	.uleb128 0x5
	.long	.LASF1146
	.byte	0x2
	.value	0x20f
	.byte	0x24
	.long	0x525a
	.uleb128 0x2
	.byte	0x91
	.sleb128 -48
	.uleb128 0x5
	.long	.LASF1149
	.byte	0x2
	.value	0x20f
	.byte	0x30
	.long	0x685d
	.uleb128 0x2
	.byte	0x91
	.sleb128 -56
	.byte	0
	.uleb128 0x26
	.long	0x3b68
	.quad	.LFB3384
	.quad	.LFE3384-.LFB3384
	.uleb128 0x1
	.byte	0x9c
	.long	0x7699
	.uleb128 0x4
	.long	.LASF536
	.long	0x525a
	.uleb128 0x5
	.long	.LASF1151
	.byte	0x14
	.value	0x232
	.byte	0x1c
	.long	0x525a
	.uleb128 0x2
	.byte	0x91
	.sleb128 -24
	.byte	0
	.uleb128 0xf
	.long	0x3b8c
	.quad	.LFB3383
	.quad	.LFE3383-.LFB3383
	.uleb128 0x1
	.byte	0x9c
	.long	0x7708
	.uleb128 0x4
	.long	.LASF572
	.long	0x705a
	.uleb128 0x4
	.long	.LASF155
	.long	0x5e
	.uleb128 0x7
	.string	"_Tp"
	.long	0x3f
	.uleb128 0x5
	.long	.LASF1145
	.byte	0x2
	.value	0x454
	.byte	0x20
	.long	0x705a
	.uleb128 0x2
	.byte	0x91
	.sleb128 -24
	.uleb128 0x16
	.string	"__n"
	.byte	0x2
	.value	0x454
	.byte	0x2f
	.long	0x5e
	.uleb128 0x2
	.byte	0x91
	.sleb128 -32
	.uleb128 0x5
	.long	.LASF18
	.byte	0x2
	.value	0x454
	.byte	0x3f
	.long	0x707d
	.uleb128 0x2
	.byte	0x91
	.sleb128 -40
	.uleb128 0x24
	.long	0xba6
	.uleb128 0x2
	.byte	0x91
	.sleb128 0
	.byte	0
	.uleb128 0x26
	.long	0x3bd1
	.quad	.LFB3382
	.quad	.LFE3382-.LFB3382
	.uleb128 0x1
	.byte	0x9c
	.long	0x7735
	.uleb128 0x4
	.long	.LASF575
	.long	0x705a
	.uleb128 0x24
	.long	0x7203
	.uleb128 0x2
	.byte	0x91
	.sleb128 -24
	.byte	0
	.uleb128 0x26
	.long	0x3bf4
	.quad	.LFB3381
	.quad	.LFE3381-.LFB3381
	.uleb128 0x1
	.byte	0x9c
	.long	0x7772
	.uleb128 0x4
	.long	.LASF536
	.long	0x685d
	.uleb128 0x24
	.long	0x71c7
	.uleb128 0x2
	.byte	0x91
	.sleb128 -24
	.uleb128 0x5
	.long	.LASF1155
	.byte	0x2
	.value	0x14f
	.byte	0x2e
	.long	0x685d
	.uleb128 0x2
	.byte	0x91
	.sleb128 -32
	.byte	0
	.uleb128 0xf
	.long	0x3c1d
	.quad	.LFB3380
	.quad	.LFE3380-.LFB3380
	.uleb128 0x1
	.byte	0x9c
	.long	0x77da
	.uleb128 0x2a
	.long	.LASF543
	.long	0x5b06
	.byte	0
	.uleb128 0x7
	.string	"_II"
	.long	0x6876
	.uleb128 0x7
	.string	"_OI"
	.long	0x685d
	.uleb128 0x5
	.long	.LASF1145
	.byte	0x2
	.value	0x209
	.byte	0x18
	.long	0x6876
	.uleb128 0x2
	.byte	0x91
	.sleb128 -24
	.uleb128 0x5
	.long	.LASF1146
	.byte	0x2
	.value	0x209
	.byte	0x25
	.long	0x6876
	.uleb128 0x2
	.byte	0x91
	.sleb128 -32
	.uleb128 0x5
	.long	.LASF1149
	.byte	0x2
	.value	0x209
	.byte	0x31
	.long	0x685d
	.uleb128 0x2
	.byte	0x91
	.sleb128 -40
	.byte	0
	.uleb128 0x26
	.long	0x3c5e
	.quad	.LFB3379
	.quad	.LFE3379-.LFB3379
	.uleb128 0x1
	.byte	0x9c
	.long	0x780f
	.uleb128 0x4
	.long	.LASF536
	.long	0x685d
	.uleb128 0x5
	.long	.LASF1151
	.byte	0x2
	.value	0x139
	.byte	0x1c
	.long	0x685d
	.uleb128 0x2
	.byte	0x91
	.sleb128 -24
	.byte	0
	.uleb128 0x26
	.long	0x3c82
	.quad	.LFB3378
	.quad	.LFE3378-.LFB3378
	.uleb128 0x1
	.byte	0x9c
	.long	0x7844
	.uleb128 0x4
	.long	.LASF536
	.long	0x6876
	.uleb128 0x5
	.long	.LASF1151
	.byte	0x2
	.value	0x139
	.byte	0x1c
	.long	0x6876
	.uleb128 0x2
	.byte	0x91
	.sleb128 -24
	.byte	0
	.uleb128 0xf
	.long	0xbcd
	.quad	.LFB3377
	.quad	.LFE3377-.LFB3377
	.uleb128 0x1
	.byte	0x9c
	.long	0x78bb
	.uleb128 0x7
	.string	"_Tp"
	.long	0x4c27
	.uleb128 0x5
	.long	.LASF1152
	.byte	0x2
	.value	0x495
	.byte	0x13
	.long	0x6876
	.uleb128 0x2
	.byte	0x91
	.sleb128 -40
	.uleb128 0x5
	.long	.LASF1156
	.byte	0x2
	.value	0x495
	.byte	0x28
	.long	0x6876
	.uleb128 0x2
	.byte	0x91
	.sleb128 -48
	.uleb128 0x5
	.long	.LASF1153
	.byte	0x2
	.value	0x495
	.byte	0x3c
	.long	0x6876
	.uleb128 0x2
	.byte	0x91
	.sleb128 -56
	.uleb128 0x50
	.quad	.LBB63
	.quad	.LBE63-.LBB63
	.uleb128 0x2b
	.long	.LASF1157
	.byte	0x2
	.value	0x497
	.byte	0x15
	.long	0x569
	.uleb128 0x2
	.byte	0x91
	.sleb128 -24
	.byte	0
	.byte	0
	.uleb128 0xf
	.long	0x3ca6
	.quad	.LFB3376
	.quad	.LFE3376-.LFB3376
	.uleb128 0x1
	.byte	0x9c
	.long	0x7919
	.uleb128 0x7
	.string	"_II"
	.long	0x525a
	.uleb128 0x7
	.string	"_OI"
	.long	0x685d
	.uleb128 0x5
	.long	.LASF1145
	.byte	0x2
	.value	0x263
	.byte	0xe
	.long	0x525a
	.uleb128 0x2
	.byte	0x91
	.sleb128 -40
	.uleb128 0x5
	.long	.LASF1146
	.byte	0x2
	.value	0x263
	.byte	0x1b
	.long	0x525a
	.uleb128 0x2
	.byte	0x91
	.sleb128 -48
	.uleb128 0x5
	.long	.LASF1149
	.byte	0x2
	.value	0x263
	.byte	0x27
	.long	0x685d
	.uleb128 0x2
	.byte	0x91
	.sleb128 -56
	.byte	0
	.uleb128 0x28
	.long	0x25b6
	.long	0x7938
	.quad	.LFB3375
	.quad	.LFE3375-.LFB3375
	.uleb128 0x1
	.byte	0x9c
	.long	0x7945
	.uleb128 0xe
	.long	.LASF1133
	.long	0x7069
	.uleb128 0x2
	.byte	0x91
	.sleb128 -24
	.byte	0
	.uleb128 0xf
	.long	0x3cdd
	.quad	.LFB3374
	.quad	.LFE3374-.LFB3374
	.uleb128 0x1
	.byte	0x9c
	.long	0x79ac
	.uleb128 0x7
	.string	"_OI"
	.long	0x705a
	.uleb128 0x4
	.long	.LASF155
	.long	0x5e
	.uleb128 0x7
	.string	"_Tp"
	.long	0x3f
	.uleb128 0x5
	.long	.LASF1145
	.byte	0x2
	.value	0x477
	.byte	0x10
	.long	0x705a
	.uleb128 0x2
	.byte	0x91
	.sleb128 -24
	.uleb128 0x16
	.string	"__n"
	.byte	0x2
	.value	0x477
	.byte	0x1f
	.long	0x5e
	.uleb128 0x2
	.byte	0x91
	.sleb128 -32
	.uleb128 0x5
	.long	.LASF18
	.byte	0x2
	.value	0x477
	.byte	0x2f
	.long	0x707d
	.uleb128 0x2
	.byte	0x91
	.sleb128 -40
	.byte	0
	.uleb128 0xf
	.long	0x3d1d
	.quad	.LFB3373
	.quad	.LFE3373-.LFB3373
	.uleb128 0x1
	.byte	0x9c
	.long	0x79ea
	.uleb128 0x7
	.string	"_Tp"
	.long	0x3f
	.uleb128 0x67
	.long	.LASF1158
	.uleb128 0x29
	.string	"__p"
	.byte	0xe
	.byte	0x6d
	.byte	0x15
	.long	0x705a
	.uleb128 0x2
	.byte	0x91
	.sleb128 -24
	.uleb128 0xa6
	.byte	0xe
	.byte	0x6d
	.byte	0x21
	.byte	0
	.uleb128 0x26
	.long	0x3d41
	.quad	.LFB3372
	.quad	.LFE3372-.LFB3372
	.uleb128 0x1
	.byte	0x9c
	.long	0x7a1e
	.uleb128 0x7
	.string	"_Tp"
	.long	0x3f
	.uleb128 0x29
	.string	"__r"
	.byte	0xf
	.byte	0x31
	.byte	0x16
	.long	0x706e
	.uleb128 0x2
	.byte	0x91
	.sleb128 -24
	.byte	0
	.uleb128 0x14
	.long	0x2597
	.long	0x7a3d
	.quad	.LFB3371
	.quad	.LFE3371-.LFB3371
	.uleb128 0x1
	.byte	0x9c
	.long	0x7a4a
	.uleb128 0xe
	.long	.LASF1133
	.long	0x7069
	.uleb128 0x2
	.byte	0x91
	.sleb128 -24
	.byte	0
	.uleb128 0xf
	.long	0x3d64
	.quad	.LFB3369
	.quad	.LFE3369-.LFB3369
	.uleb128 0x1
	.byte	0x9c
	.long	0x7ab2
	.uleb128 0x2a
	.long	.LASF543
	.long	0x5b06
	.byte	0
	.uleb128 0x7
	.string	"_II"
	.long	0x6876
	.uleb128 0x7
	.string	"_OI"
	.long	0x685d
	.uleb128 0x5
	.long	.LASF1145
	.byte	0x2
	.value	0x20f
	.byte	0x17
	.long	0x6876
	.uleb128 0x2
	.byte	0x91
	.sleb128 -40
	.uleb128 0x5
	.long	.LASF1146
	.byte	0x2
	.value	0x20f
	.byte	0x24
	.long	0x6876
	.uleb128 0x2
	.byte	0x91
	.sleb128 -48
	.uleb128 0x5
	.long	.LASF1149
	.byte	0x2
	.value	0x20f
	.byte	0x30
	.long	0x685d
	.uleb128 0x2
	.byte	0x91
	.sleb128 -56
	.byte	0
	.uleb128 0x26
	.long	0x3da5
	.quad	.LFB3368
	.quad	.LFE3368-.LFB3368
	.uleb128 0x1
	.byte	0x9c
	.long	0x7ae7
	.uleb128 0x4
	.long	.LASF536
	.long	0x6876
	.uleb128 0x5
	.long	.LASF1151
	.byte	0x14
	.value	0x232
	.byte	0x1c
	.long	0x6876
	.uleb128 0x2
	.byte	0x91
	.sleb128 -24
	.byte	0
	.uleb128 0xf
	.long	0x3dc9
	.quad	.LFB3367
	.quad	.LFE3367-.LFB3367
	.uleb128 0x1
	.byte	0x9c
	.long	0x7b55
	.uleb128 0x4
	.long	.LASF598
	.long	0x685d
	.uleb128 0x4
	.long	.LASF599
	.long	0x685d
	.uleb128 0x5
	.long	.LASF1152
	.byte	0x2
	.value	0x4b4
	.byte	0x17
	.long	0x685d
	.uleb128 0x2
	.byte	0x91
	.sleb128 -40
	.uleb128 0x5
	.long	.LASF1156
	.byte	0x2
	.value	0x4b4
	.byte	0x26
	.long	0x685d
	.uleb128 0x2
	.byte	0x91
	.sleb128 -48
	.uleb128 0x5
	.long	.LASF1153
	.byte	0x2
	.value	0x4b4
	.byte	0x34
	.long	0x685d
	.uleb128 0x2
	.byte	0x91
	.sleb128 -56
	.uleb128 0x2b
	.long	.LASF1159
	.byte	0x2
	.value	0x4b7
	.byte	0x12
	.long	0x5b0d
	.uleb128 0x2
	.byte	0x91
	.sleb128 -17
	.byte	0
	.uleb128 0xf
	.long	0x3e00
	.quad	.LFB3366
	.quad	.LFE3366-.LFB3366
	.uleb128 0x1
	.byte	0x9c
	.long	0x7b93
	.uleb128 0x4
	.long	.LASF536
	.long	0x685d
	.uleb128 0x4
	.long	.LASF558
	.long	0x172f
	.uleb128 0x5
	.long	.LASF1151
	.byte	0x12
	.value	0x549
	.byte	0x46
	.long	0x501a
	.uleb128 0x2
	.byte	0x91
	.sleb128 -24
	.byte	0
	.uleb128 0xd
	.long	0x5255
	.uleb128 0xf
	.long	0x5a02
	.quad	.LFB3365
	.quad	.LFE3365-.LFB3365
	.uleb128 0x1
	.byte	0x9c
	.long	0x7be6
	.uleb128 0x4
	.long	.LASF536
	.long	0x685d
	.uleb128 0x4
	.long	.LASF558
	.long	0x172f
	.uleb128 0x5
	.long	.LASF1160
	.byte	0x12
	.value	0x532
	.byte	0x3f
	.long	0x7b93
	.uleb128 0x2
	.byte	0x91
	.sleb128 -40
	.uleb128 0x5
	.long	.LASF1161
	.byte	0x12
	.value	0x533
	.byte	0x38
	.long	0x7b93
	.uleb128 0x2
	.byte	0x91
	.sleb128 -48
	.byte	0
	.uleb128 0xf
	.long	0x3958
	.quad	.LFB3364
	.quad	.LFE3364-.LFB3364
	.uleb128 0x1
	.byte	0x9c
	.long	0x7c4b
	.uleb128 0x7
	.string	"_Tp"
	.long	0x3f
	.uleb128 0x5
	.long	.LASF1145
	.byte	0x2
	.value	0x1a4
	.byte	0x16
	.long	0x7073
	.uleb128 0x2
	.byte	0x91
	.sleb128 -40
	.uleb128 0x5
	.long	.LASF1146
	.byte	0x2
	.value	0x1a4
	.byte	0x2a
	.long	0x7073
	.uleb128 0x2
	.byte	0x91
	.sleb128 -48
	.uleb128 0x5
	.long	.LASF1149
	.byte	0x2
	.value	0x1a4
	.byte	0x37
	.long	0x705a
	.uleb128 0x2
	.byte	0x91
	.sleb128 -56
	.uleb128 0x2b
	.long	.LASF1150
	.byte	0x2
	.value	0x1ad
	.byte	0x14
	.long	0xb65
	.uleb128 0x2
	.byte	0x91
	.sleb128 -24
	.byte	0
	.uleb128 0xf
	.long	0xf98
	.quad	.LFB3363
	.quad	.LFE3363-.LFB3363
	.uleb128 0x1
	.byte	0x9c
	.long	0x7ca6
	.uleb128 0x4
	.long	.LASF148
	.long	0x525a
	.uleb128 0x4
	.long	.LASF132
	.long	0x685d
	.uleb128 0x18
	.long	.LASF1145
	.byte	0x11
	.byte	0x91
	.byte	0x26
	.long	0x525a
	.uleb128 0x2
	.byte	0x91
	.sleb128 -24
	.uleb128 0x18
	.long	.LASF1146
	.byte	0x11
	.byte	0x91
	.byte	0x3e
	.long	0x525a
	.uleb128 0x2
	.byte	0x91
	.sleb128 -32
	.uleb128 0x18
	.long	.LASF1149
	.byte	0x11
	.byte	0x92
	.byte	0x1a
	.long	0x685d
	.uleb128 0x2
	.byte	0x91
	.sleb128 -40
	.byte	0
	.uleb128 0xf
	.long	0x3e3a
	.quad	.LFB3362
	.quad	.LFE3362-.LFB3362
	.uleb128 0x1
	.byte	0x9c
	.long	0x7d24
	.uleb128 0x7
	.string	"_Tp"
	.long	0x3f
	.uleb128 0x7
	.string	"_Up"
	.long	0x3f
	.uleb128 0x5
	.long	.LASF1145
	.byte	0x11
	.value	0x44c
	.byte	0x19
	.long	0x705a
	.uleb128 0x2
	.byte	0x91
	.sleb128 -40
	.uleb128 0x5
	.long	.LASF1146
	.byte	0x11
	.value	0x44c
	.byte	0x27
	.long	0x705a
	.uleb128 0x2
	.byte	0x91
	.sleb128 -48
	.uleb128 0x5
	.long	.LASF1149
	.byte	0x11
	.value	0x44d
	.byte	0xb
	.long	0x705a
	.uleb128 0x2
	.byte	0x91
	.sleb128 -56
	.uleb128 0x5
	.long	.LASF1162
	.byte	0x11
	.value	0x44e
	.byte	0x2b
	.long	0x7091
	.uleb128 0x2
	.byte	0x91
	.sleb128 -64
	.uleb128 0x2b
	.long	.LASF17
	.byte	0x11
	.value	0x450
	.byte	0x11
	.long	0xb58
	.uleb128 0x2
	.byte	0x91
	.sleb128 -24
	.byte	0
	.uleb128 0x26
	.long	0x3e76
	.quad	.LFB3361
	.quad	.LFE3361-.LFB3361
	.uleb128 0x1
	.byte	0x9c
	.long	0x7d59
	.uleb128 0x4
	.long	.LASF536
	.long	0x705a
	.uleb128 0x5
	.long	.LASF1151
	.byte	0x2
	.value	0x139
	.byte	0x1c
	.long	0x705a
	.uleb128 0x2
	.byte	0x91
	.sleb128 -24
	.byte	0
	.uleb128 0x14
	.long	0x253e
	.long	0x7d78
	.quad	.LFB3360
	.quad	.LFE3360-.LFB3360
	.uleb128 0x1
	.byte	0x9c
	.long	0x7da8
	.uleb128 0xe
	.long	.LASF1133
	.long	0x7050
	.uleb128 0x2
	.byte	0x91
	.sleb128 -24
	.uleb128 0x29
	.string	"__n"
	.byte	0xa
	.byte	0x70
	.byte	0x1a
	.long	0x2567
	.uleb128 0x2
	.byte	0x91
	.sleb128 -32
	.uleb128 0x24
	.long	0x5f4f
	.uleb128 0x2
	.byte	0x91
	.sleb128 -40
	.uleb128 0x72
	.uleb128 0x73
	.long	.LASF1164
	.byte	0x84
	.long	0x54d
	.byte	0
	.byte	0
	.uleb128 0xf
	.long	0x101b
	.quad	.LFB3359
	.quad	.LFE3359-.LFB3359
	.uleb128 0x1
	.byte	0x9c
	.long	0x7e18
	.uleb128 0x4
	.long	.LASF132
	.long	0x705a
	.uleb128 0x4
	.long	.LASF155
	.long	0x5e
	.uleb128 0x5
	.long	.LASF1145
	.byte	0x11
	.value	0x28f
	.byte	0x2d
	.long	0x705a
	.uleb128 0x2
	.byte	0x91
	.sleb128 -40
	.uleb128 0x16
	.string	"__n"
	.byte	0x11
	.value	0x28f
	.byte	0x3c
	.long	0x5e
	.uleb128 0x2
	.byte	0x91
	.sleb128 -48
	.uleb128 0x50
	.quad	.LBB62
	.quad	.LBE62-.LBB62
	.uleb128 0x2b
	.long	.LASF1165
	.byte	0x11
	.value	0x293
	.byte	0x40
	.long	0x7e18
	.uleb128 0x2
	.byte	0x91
	.sleb128 -24
	.byte	0
	.byte	0
	.uleb128 0xb
	.long	0x3817
	.uleb128 0xf
	.long	0x271c
	.quad	.LFB3358
	.quad	.LFE3358-.LFB3358
	.uleb128 0x1
	.byte	0x9c
	.long	0x7e49
	.uleb128 0x16
	.string	"__a"
	.byte	0x9
	.value	0x223
	.byte	0x26
	.long	0x709b
	.uleb128 0x2
	.byte	0x91
	.sleb128 -24
	.byte	0
	.uleb128 0xf
	.long	0x3e9a
	.quad	.LFB3357
	.quad	.LFE3357-.LFB3357
	.uleb128 0x1
	.byte	0x9c
	.long	0x7ea7
	.uleb128 0x7
	.string	"_II"
	.long	0x6876
	.uleb128 0x7
	.string	"_OI"
	.long	0x685d
	.uleb128 0x5
	.long	.LASF1145
	.byte	0x2
	.value	0x263
	.byte	0xe
	.long	0x6876
	.uleb128 0x2
	.byte	0x91
	.sleb128 -40
	.uleb128 0x5
	.long	.LASF1146
	.byte	0x2
	.value	0x263
	.byte	0x1b
	.long	0x6876
	.uleb128 0x2
	.byte	0x91
	.sleb128 -48
	.uleb128 0x5
	.long	.LASF1149
	.byte	0x2
	.value	0x263
	.byte	0x27
	.long	0x685d
	.uleb128 0x2
	.byte	0x91
	.sleb128 -56
	.byte	0
	.uleb128 0x28
	.long	0x11ad
	.long	0x7ec6
	.quad	.LFB3356
	.quad	.LFE3356-.LFB3356
	.uleb128 0x1
	.byte	0x9c
	.long	0x7ed3
	.uleb128 0xe
	.long	.LASF1133
	.long	0x686c
	.uleb128 0x2
	.byte	0x91
	.sleb128 -24
	.byte	0
	.uleb128 0x14
	.long	0x118e
	.long	0x7ef2
	.quad	.LFB3355
	.quad	.LFE3355-.LFB3355
	.uleb128 0x1
	.byte	0x9c
	.long	0x7eff
	.uleb128 0xe
	.long	.LASF1133
	.long	0x686c
	.uleb128 0x2
	.byte	0x91
	.sleb128 -24
	.byte	0
	.uleb128 0xf
	.long	0x3ed1
	.quad	.LFB3349
	.quad	.LFE3349-.LFB3349
	.uleb128 0x1
	.byte	0x9c
	.long	0x7f5d
	.uleb128 0x4
	.long	.LASF598
	.long	0x501a
	.uleb128 0x4
	.long	.LASF599
	.long	0x501a
	.uleb128 0x5
	.long	.LASF1152
	.byte	0x2
	.value	0x4c0
	.byte	0x16
	.long	0x501a
	.uleb128 0x2
	.byte	0x91
	.sleb128 -40
	.uleb128 0x5
	.long	.LASF1156
	.byte	0x2
	.value	0x4c0
	.byte	0x25
	.long	0x501a
	.uleb128 0x2
	.byte	0x91
	.sleb128 -48
	.uleb128 0x5
	.long	.LASF1153
	.byte	0x2
	.value	0x4c0
	.byte	0x33
	.long	0x501a
	.uleb128 0x2
	.byte	0x91
	.sleb128 -56
	.byte	0
	.uleb128 0xf
	.long	0x3f08
	.quad	.LFB3348
	.quad	.LFE3348-.LFB3348
	.uleb128 0x1
	.byte	0x9c
	.long	0x7fa8
	.uleb128 0x4
	.long	.LASF613
	.long	0x501a
	.uleb128 0x18
	.long	.LASF1145
	.byte	0xc
	.byte	0x63
	.byte	0x26
	.long	0x501a
	.uleb128 0x2
	.byte	0x91
	.sleb128 -24
	.uleb128 0x18
	.long	.LASF1146
	.byte	0xc
	.byte	0x63
	.byte	0x45
	.long	0x501a
	.uleb128 0x2
	.byte	0x91
	.sleb128 -32
	.uleb128 0x24
	.long	0xba6
	.uleb128 0x2
	.byte	0x91
	.sleb128 0
	.byte	0
	.uleb128 0x26
	.long	0x3f35
	.quad	.LFB3347
	.quad	.LFE3347-.LFB3347
	.uleb128 0x1
	.byte	0x9c
	.long	0x7fd5
	.uleb128 0x4
	.long	.LASF575
	.long	0x501a
	.uleb128 0x24
	.long	0x7b93
	.uleb128 0x2
	.byte	0x91
	.sleb128 -24
	.byte	0
	.uleb128 0x14
	.long	0x5728
	.long	0x7ff4
	.quad	.LFB3346
	.quad	.LFE3346-.LFB3346
	.uleb128 0x1
	.byte	0x9c
	.long	0x8011
	.uleb128 0xe
	.long	.LASF1133
	.long	0x720d
	.uleb128 0x2
	.byte	0x91
	.sleb128 -40
	.uleb128 0x16
	.string	"__n"
	.byte	0x12
	.value	0x477
	.byte	0x21
	.long	0x56f6
	.uleb128 0x2
	.byte	0x91
	.sleb128 -48
	.byte	0
	.uleb128 0xf
	.long	0x3f58
	.quad	.LFB3345
	.quad	.LFE3345-.LFB3345
	.uleb128 0x1
	.byte	0x9c
	.long	0x8079
	.uleb128 0x2a
	.long	.LASF543
	.long	0x5b06
	.byte	0
	.uleb128 0x7
	.string	"_II"
	.long	0x7073
	.uleb128 0x7
	.string	"_OI"
	.long	0x705a
	.uleb128 0x5
	.long	.LASF1145
	.byte	0x2
	.value	0x1e6
	.byte	0x18
	.long	0x7073
	.uleb128 0x2
	.byte	0x91
	.sleb128 -24
	.uleb128 0x5
	.long	.LASF1146
	.byte	0x2
	.value	0x1e6
	.byte	0x25
	.long	0x7073
	.uleb128 0x2
	.byte	0x91
	.sleb128 -32
	.uleb128 0x5
	.long	.LASF1149
	.byte	0x2
	.value	0x1e6
	.byte	0x31
	.long	0x705a
	.uleb128 0x2
	.byte	0x91
	.sleb128 -40
	.byte	0
	.uleb128 0x28
	.long	0x5797
	.long	0x8098
	.quad	.LFB3344
	.quad	.LFE3344-.LFB3344
	.uleb128 0x1
	.byte	0x9c
	.long	0x80a5
	.uleb128 0xe
	.long	.LASF1133
	.long	0x720d
	.uleb128 0x2
	.byte	0x91
	.sleb128 -24
	.byte	0
	.uleb128 0x28
	.long	0x59ca
	.long	0x80c4
	.quad	.LFB3343
	.quad	.LFE3343-.LFB3343
	.uleb128 0x1
	.byte	0x9c
	.long	0x80d1
	.uleb128 0xe
	.long	.LASF1133
	.long	0x71ef
	.uleb128 0x2
	.byte	0x91
	.sleb128 -24
	.byte	0
	.uleb128 0x25
	.long	0x3907
	.uleb128 0x26
	.long	0x3f99
	.quad	.LFB3342
	.quad	.LFE3342-.LFB3342
	.uleb128 0x1
	.byte	0x9c
	.long	0x810a
	.uleb128 0x7
	.string	"_Tp"
	.long	0x6894
	.uleb128 0x29
	.string	"__t"
	.byte	0xf
	.byte	0x68
	.byte	0x10
	.long	0x6894
	.uleb128 0x2
	.byte	0x91
	.sleb128 -24
	.byte	0
	.uleb128 0x28
	.long	0x13de
	.long	0x8129
	.quad	.LFB3341
	.quad	.LFE3341-.LFB3341
	.uleb128 0x1
	.byte	0x9c
	.long	0x8145
	.uleb128 0xe
	.long	.LASF1133
	.long	0x68b2
	.uleb128 0x2
	.byte	0x91
	.sleb128 -24
	.uleb128 0x29
	.string	"__x"
	.byte	0x7
	.byte	0x71
	.byte	0x28
	.long	0x68bc
	.uleb128 0x2
	.byte	0x91
	.sleb128 -32
	.byte	0
	.uleb128 0xf
	.long	0x3fbc
	.quad	.LFB3340
	.quad	.LFE3340-.LFB3340
	.uleb128 0x1
	.byte	0x9c
	.long	0x81be
	.uleb128 0x4
	.long	.LASF148
	.long	0x525a
	.uleb128 0x4
	.long	.LASF132
	.long	0x685d
	.uleb128 0x18
	.long	.LASF1145
	.byte	0x11
	.byte	0xa3
	.byte	0x27
	.long	0x525a
	.uleb128 0x2
	.byte	0x91
	.sleb128 -40
	.uleb128 0x18
	.long	.LASF1146
	.byte	0x11
	.byte	0xa3
	.byte	0x3f
	.long	0x525a
	.uleb128 0x2
	.byte	0x91
	.sleb128 -48
	.uleb128 0x18
	.long	.LASF1149
	.byte	0x11
	.byte	0xa4
	.byte	0x1b
	.long	0x685d
	.uleb128 0x2
	.byte	0x91
	.sleb128 -56
	.uleb128 0x2d
	.long	.LASF1166
	.byte	0x11
	.byte	0xae
	.byte	0x12
	.long	0x5b0d
	.uleb128 0x2
	.byte	0x91
	.sleb128 -17
	.uleb128 0x2d
	.long	.LASF1167
	.byte	0x11
	.byte	0xb5
	.byte	0x12
	.long	0x5b0d
	.uleb128 0x2
	.byte	0x91
	.sleb128 -18
	.byte	0
	.uleb128 0x15
	.long	0x528c
	.long	0x81cb
	.long	0x81e2
	.uleb128 0x11
	.long	.LASF1133
	.long	0x721c
	.uleb128 0x30
	.string	"__i"
	.byte	0x12
	.value	0x430
	.byte	0x2a
	.long	0x7221
	.byte	0
	.uleb128 0x31
	.long	0x81be
	.long	.LASF1173
	.long	0x8205
	.quad	.LFB3338
	.quad	.LFE3338-.LFB3338
	.uleb128 0x1
	.byte	0x9c
	.long	0x8216
	.uleb128 0x10
	.long	0x81cb
	.uleb128 0x2
	.byte	0x91
	.sleb128 -24
	.uleb128 0x10
	.long	0x81d4
	.uleb128 0x2
	.byte	0x91
	.sleb128 -32
	.byte	0
	.uleb128 0x14
	.long	0x16d3
	.long	0x8235
	.quad	.LFB3336
	.quad	.LFE3336-.LFB3336
	.uleb128 0x1
	.byte	0x9c
	.long	0x8252
	.uleb128 0xe
	.long	.LASF1133
	.long	0x68e9
	.uleb128 0x2
	.byte	0x91
	.sleb128 -24
	.uleb128 0x16
	.string	"__n"
	.byte	0x7
	.value	0x189
	.byte	0x20
	.long	0x55c
	.uleb128 0x2
	.byte	0x91
	.sleb128 -32
	.byte	0
	.uleb128 0xf
	.long	0x132e
	.quad	.LFB3335
	.quad	.LFE3335-.LFB3335
	.uleb128 0x1
	.byte	0x9c
	.long	0x827e
	.uleb128 0x5
	.long	.LASF1161
	.byte	0x9
	.value	0x232
	.byte	0x43
	.long	0x689e
	.uleb128 0x2
	.byte	0x91
	.sleb128 -32
	.byte	0
	.uleb128 0xf
	.long	0x3ff2
	.quad	.LFB3334
	.quad	.LFE3334-.LFB3334
	.uleb128 0x1
	.byte	0x9c
	.long	0x82f5
	.uleb128 0x4
	.long	.LASF148
	.long	0x705a
	.uleb128 0x4
	.long	.LASF132
	.long	0x705a
	.uleb128 0x4
	.long	.LASF624
	.long	0x25e3
	.uleb128 0x5
	.long	.LASF1145
	.byte	0x11
	.value	0x467
	.byte	0x21
	.long	0x705a
	.uleb128 0x2
	.byte	0x91
	.sleb128 -40
	.uleb128 0x5
	.long	.LASF1146
	.byte	0x11
	.value	0x467
	.byte	0x39
	.long	0x705a
	.uleb128 0x2
	.byte	0x91
	.sleb128 -48
	.uleb128 0x5
	.long	.LASF1149
	.byte	0x11
	.value	0x468
	.byte	0x15
	.long	0x705a
	.uleb128 0x2
	.byte	0x91
	.sleb128 -56
	.uleb128 0x5
	.long	.LASF1162
	.byte	0x11
	.value	0x468
	.byte	0x2b
	.long	0x7091
	.uleb128 0x2
	.byte	0x91
	.sleb128 -64
	.byte	0
	.uleb128 0xf
	.long	0x268a
	.quad	.LFB3333
	.quad	.LFE3333-.LFB3333
	.uleb128 0x1
	.byte	0x9c
	.long	0x8331
	.uleb128 0x16
	.string	"__a"
	.byte	0x9
	.value	0x1cf
	.byte	0x20
	.long	0x7096
	.uleb128 0x2
	.byte	0x91
	.sleb128 -24
	.uleb128 0x16
	.string	"__n"
	.byte	0x9
	.value	0x1cf
	.byte	0x2f
	.long	0x26bc
	.uleb128 0x2
	.byte	0x91
	.sleb128 -32
	.byte	0
	.uleb128 0xd
	.long	0x65
	.uleb128 0x26
	.long	0x4037
	.quad	.LFB3332
	.quad	.LFE3332-.LFB3332
	.uleb128 0x1
	.byte	0x9c
	.long	0x8379
	.uleb128 0x7
	.string	"_Tp"
	.long	0x5e
	.uleb128 0x29
	.string	"__a"
	.byte	0x2
	.byte	0xfe
	.byte	0x14
	.long	0x8331
	.uleb128 0x2
	.byte	0x91
	.sleb128 -24
	.uleb128 0x29
	.string	"__b"
	.byte	0x2
	.byte	0xfe
	.byte	0x24
	.long	0x8331
	.uleb128 0x2
	.byte	0x91
	.sleb128 -32
	.byte	0
	.uleb128 0xf
	.long	0x405f
	.quad	.LFB3331
	.quad	.LFE3331-.LFB3331
	.uleb128 0x1
	.byte	0x9c
	.long	0x83d7
	.uleb128 0x4
	.long	.LASF132
	.long	0x705a
	.uleb128 0x4
	.long	.LASF155
	.long	0x5e
	.uleb128 0x5
	.long	.LASF1145
	.byte	0x11
	.value	0x2b3
	.byte	0x30
	.long	0x705a
	.uleb128 0x2
	.byte	0x91
	.sleb128 -40
	.uleb128 0x16
	.string	"__n"
	.byte	0x11
	.value	0x2b3
	.byte	0x3f
	.long	0x5e
	.uleb128 0x2
	.byte	0x91
	.sleb128 -48
	.uleb128 0x74
	.long	.LASF1191
	.byte	0x11
	.value	0x2b8
	.byte	0x16
	.long	0x5b0d
	.uleb128 0x2
	.byte	0x91
	.sleb128 -17
	.byte	0
	.uleb128 0x28
	.long	0x292a
	.long	0x83f6
	.quad	.LFB3330
	.quad	.LFE3330-.LFB3330
	.uleb128 0x1
	.byte	0x9c
	.long	0x8403
	.uleb128 0xe
	.long	.LASF1133
	.long	0x70f0
	.uleb128 0x2
	.byte	0x91
	.sleb128 -24
	.byte	0
	.uleb128 0xf
	.long	0x3643
	.quad	.LFB3329
	.quad	.LFE3329-.LFB3329
	.uleb128 0x1
	.byte	0x9c
	.long	0x844f
	.uleb128 0x16
	.string	"__a"
	.byte	0x7
	.value	0x777
	.byte	0x29
	.long	0x713b
	.uleb128 0x2
	.byte	0x91
	.sleb128 -40
	.uleb128 0x2b
	.long	.LASF1168
	.byte	0x7
	.value	0x77c
	.byte	0xf
	.long	0x569
	.uleb128 0x2
	.byte	0x91
	.sleb128 -24
	.uleb128 0x2b
	.long	.LASF1169
	.byte	0x7
	.value	0x77e
	.byte	0xf
	.long	0x569
	.uleb128 0x2
	.byte	0x91
	.sleb128 -32
	.byte	0
	.uleb128 0xf
	.long	0xfce
	.quad	.LFB3328
	.quad	.LFE3328-.LFB3328
	.uleb128 0x1
	.byte	0x9c
	.long	0x84aa
	.uleb128 0x4
	.long	.LASF148
	.long	0x6876
	.uleb128 0x4
	.long	.LASF132
	.long	0x685d
	.uleb128 0x18
	.long	.LASF1145
	.byte	0x11
	.byte	0x91
	.byte	0x26
	.long	0x6876
	.uleb128 0x2
	.byte	0x91
	.sleb128 -24
	.uleb128 0x18
	.long	.LASF1146
	.byte	0x11
	.byte	0x91
	.byte	0x3e
	.long	0x6876
	.uleb128 0x2
	.byte	0x91
	.sleb128 -32
	.uleb128 0x18
	.long	.LASF1149
	.byte	0x11
	.byte	0x92
	.byte	0x1a
	.long	0x685d
	.uleb128 0x2
	.byte	0x91
	.sleb128 -40
	.byte	0
	.uleb128 0x14
	.long	0x1135
	.long	0x84c9
	.quad	.LFB3327
	.quad	.LFE3327-.LFB3327
	.uleb128 0x1
	.byte	0x9c
	.long	0x84f9
	.uleb128 0xe
	.long	.LASF1133
	.long	0x6853
	.uleb128 0x2
	.byte	0x91
	.sleb128 -24
	.uleb128 0x29
	.string	"__n"
	.byte	0xa
	.byte	0x70
	.byte	0x1a
	.long	0x115e
	.uleb128 0x2
	.byte	0x91
	.sleb128 -32
	.uleb128 0x24
	.long	0x5f4f
	.uleb128 0x2
	.byte	0x91
	.sleb128 -40
	.uleb128 0x72
	.uleb128 0x73
	.long	.LASF1164
	.byte	0x84
	.long	0x54d
	.byte	0
	.byte	0
	.uleb128 0x26
	.long	0x4091
	.quad	.LFB3326
	.quad	.LFE3326-.LFB3326
	.uleb128 0x1
	.byte	0x9c
	.long	0x853c
	.uleb128 0x7
	.string	"_Tp"
	.long	0x5e
	.uleb128 0x29
	.string	"__a"
	.byte	0x2
	.byte	0xe6
	.byte	0x14
	.long	0x8331
	.uleb128 0x2
	.byte	0x91
	.sleb128 -24
	.uleb128 0x29
	.string	"__b"
	.byte	0x2
	.byte	0xe6
	.byte	0x24
	.long	0x8331
	.uleb128 0x2
	.byte	0x91
	.sleb128 -32
	.byte	0
	.uleb128 0xf
	.long	0x1313
	.quad	.LFB3325
	.quad	.LFE3325-.LFB3325
	.uleb128 0x1
	.byte	0x9c
	.long	0x8568
	.uleb128 0x16
	.string	"__a"
	.byte	0x9
	.value	0x223
	.byte	0x26
	.long	0x689e
	.uleb128 0x2
	.byte	0x91
	.sleb128 -24
	.byte	0
	.uleb128 0xf
	.long	0x5a34
	.quad	.LFB3315
	.quad	.LFE3315-.LFB3315
	.uleb128 0x1
	.byte	0x9c
	.long	0x85b6
	.uleb128 0x4
	.long	.LASF536
	.long	0x685d
	.uleb128 0x4
	.long	.LASF558
	.long	0x172f
	.uleb128 0x5
	.long	.LASF1160
	.byte	0x12
	.value	0x4c5
	.byte	0x40
	.long	0x7b93
	.uleb128 0x2
	.byte	0x91
	.sleb128 -40
	.uleb128 0x5
	.long	.LASF1161
	.byte	0x12
	.value	0x4c6
	.byte	0x39
	.long	0x7b93
	.uleb128 0x2
	.byte	0x91
	.sleb128 -48
	.byte	0
	.uleb128 0xf
	.long	0x40b9
	.quad	.LFB3314
	.quad	.LFE3314-.LFB3314
	.uleb128 0x1
	.byte	0x9c
	.long	0x8614
	.uleb128 0x4
	.long	.LASF598
	.long	0x501a
	.uleb128 0x4
	.long	.LASF599
	.long	0x501a
	.uleb128 0x5
	.long	.LASF1152
	.byte	0x2
	.value	0x609
	.byte	0x10
	.long	0x501a
	.uleb128 0x2
	.byte	0x91
	.sleb128 -24
	.uleb128 0x5
	.long	.LASF1156
	.byte	0x2
	.value	0x609
	.byte	0x1f
	.long	0x501a
	.uleb128 0x2
	.byte	0x91
	.sleb128 -32
	.uleb128 0x5
	.long	.LASF1153
	.byte	0x2
	.value	0x609
	.byte	0x2d
	.long	0x501a
	.uleb128 0x2
	.byte	0x91
	.sleb128 -40
	.byte	0
	.uleb128 0xf
	.long	0x40f0
	.quad	.LFB3313
	.quad	.LFE3313-.LFB3313
	.uleb128 0x1
	.byte	0x9c
	.long	0x8657
	.uleb128 0x4
	.long	.LASF148
	.long	0x501a
	.uleb128 0x18
	.long	.LASF1145
	.byte	0xc
	.byte	0x93
	.byte	0x1d
	.long	0x501a
	.uleb128 0x2
	.byte	0x91
	.sleb128 -24
	.uleb128 0x18
	.long	.LASF1146
	.byte	0xc
	.byte	0x93
	.byte	0x35
	.long	0x501a
	.uleb128 0x2
	.byte	0x91
	.sleb128 -32
	.byte	0
	.uleb128 0xf
	.long	0x4118
	.quad	.LFB3312
	.quad	.LFE3312-.LFB3312
	.uleb128 0x1
	.byte	0x9c
	.long	0x86a5
	.uleb128 0x4
	.long	.LASF637
	.long	0x559c
	.uleb128 0x7
	.string	"_To"
	.long	0x705a
	.uleb128 0x5
	.long	.LASF1170
	.byte	0x2
	.value	0x148
	.byte	0x18
	.long	0x559c
	.uleb128 0x2
	.byte	0x91
	.sleb128 -24
	.uleb128 0x5
	.long	.LASF1155
	.byte	0x2
	.value	0x148
	.byte	0x24
	.long	0x705a
	.uleb128 0x2
	.byte	0x91
	.sleb128 -32
	.byte	0
	.uleb128 0xf
	.long	0x414a
	.quad	.LFB3311
	.quad	.LFE3311-.LFB3311
	.uleb128 0x1
	.byte	0x9c
	.long	0x870d
	.uleb128 0x2a
	.long	.LASF543
	.long	0x5b06
	.byte	0
	.uleb128 0x7
	.string	"_II"
	.long	0x7073
	.uleb128 0x7
	.string	"_OI"
	.long	0x705a
	.uleb128 0x5
	.long	.LASF1145
	.byte	0x2
	.value	0x209
	.byte	0x18
	.long	0x7073
	.uleb128 0x2
	.byte	0x91
	.sleb128 -24
	.uleb128 0x5
	.long	.LASF1146
	.byte	0x2
	.value	0x209
	.byte	0x25
	.long	0x7073
	.uleb128 0x2
	.byte	0x91
	.sleb128 -32
	.uleb128 0x5
	.long	.LASF1149
	.byte	0x2
	.value	0x209
	.byte	0x31
	.long	0x705a
	.uleb128 0x2
	.byte	0x91
	.sleb128 -40
	.byte	0
	.uleb128 0xf
	.long	0x418b
	.quad	.LFB3310
	.quad	.LFE3310-.LFB3310
	.uleb128 0x1
	.byte	0x9c
	.long	0x874b
	.uleb128 0x4
	.long	.LASF536
	.long	0x705a
	.uleb128 0x4
	.long	.LASF558
	.long	0x2b38
	.uleb128 0x5
	.long	.LASF1151
	.byte	0x12
	.value	0x549
	.byte	0x46
	.long	0x559c
	.uleb128 0x2
	.byte	0x91
	.sleb128 -24
	.byte	0
	.uleb128 0xf
	.long	0x41b8
	.quad	.LFB3309
	.quad	.LFE3309-.LFB3309
	.uleb128 0x1
	.byte	0x9c
	.long	0x8789
	.uleb128 0x4
	.long	.LASF536
	.long	0x7073
	.uleb128 0x4
	.long	.LASF558
	.long	0x2b38
	.uleb128 0x5
	.long	.LASF1151
	.byte	0x12
	.value	0x549
	.byte	0x46
	.long	0x57cf
	.uleb128 0x2
	.byte	0x91
	.sleb128 -24
	.byte	0
	.uleb128 0xf
	.long	0x41e5
	.quad	.LFB3308
	.quad	.LFE3308-.LFB3308
	.uleb128 0x1
	.byte	0x9c
	.long	0x87ce
	.uleb128 0x4
	.long	.LASF242
	.long	0x11da
	.uleb128 0x5
	.long	.LASF1171
	.byte	0x9
	.value	0x2c6
	.byte	0x1d
	.long	0x6894
	.uleb128 0x2
	.byte	0x91
	.sleb128 -24
	.uleb128 0x5
	.long	.LASF1172
	.byte	0x9
	.value	0x2c6
	.byte	0x2c
	.long	0x6894
	.uleb128 0x2
	.byte	0x91
	.sleb128 -32
	.byte	0
	.uleb128 0x14
	.long	0x13fd
	.long	0x87ed
	.quad	.LFB3307
	.quad	.LFE3307-.LFB3307
	.uleb128 0x1
	.byte	0x9c
	.long	0x8818
	.uleb128 0xe
	.long	.LASF1133
	.long	0x68b2
	.uleb128 0x2
	.byte	0x91
	.sleb128 -56
	.uleb128 0x29
	.string	"__x"
	.byte	0x7
	.byte	0x7a
	.byte	0x22
	.long	0x68c1
	.uleb128 0x2
	.byte	0x91
	.sleb128 -64
	.uleb128 0x2d
	.long	.LASF1148
	.byte	0x7
	.byte	0x7e
	.byte	0x16
	.long	0x1371
	.uleb128 0x2
	.byte	0x91
	.sleb128 -48
	.byte	0
	.uleb128 0x15
	.long	0x187c
	.long	0x8825
	.long	0x883c
	.uleb128 0x11
	.long	.LASF1133
	.long	0x690c
	.uleb128 0x30
	.string	"__a"
	.byte	0x7
	.value	0x219
	.byte	0x24
	.long	0x6911
	.byte	0
	.uleb128 0x1d
	.long	0x8818
	.long	.LASF1174
	.long	0x885f
	.quad	.LFB3305
	.quad	.LFE3305-.LFB3305
	.uleb128 0x1
	.byte	0x9c
	.long	0x8870
	.uleb128 0x10
	.long	0x8825
	.uleb128 0x2
	.byte	0x91
	.sleb128 -24
	.uleb128 0x10
	.long	0x882e
	.uleb128 0x2
	.byte	0x91
	.sleb128 -32
	.byte	0
	.uleb128 0x14
	.long	0x1550
	.long	0x888f
	.quad	.LFB3303
	.quad	.LFE3303-.LFB3303
	.uleb128 0x1
	.byte	0x9c
	.long	0x889c
	.uleb128 0xe
	.long	.LASF1133
	.long	0x68f3
	.uleb128 0x2
	.byte	0x91
	.sleb128 -32
	.byte	0
	.uleb128 0x15
	.long	0x107f
	.long	0x88a9
	.long	0x88b8
	.uleb128 0x11
	.long	.LASF1133
	.long	0x6853
	.uleb128 0x1
	.long	0x6858
	.byte	0
	.uleb128 0x31
	.long	0x889c
	.long	.LASF1175
	.long	0x88db
	.quad	.LFB3301
	.quad	.LFE3301-.LFB3301
	.uleb128 0x1
	.byte	0x9c
	.long	0x88ec
	.uleb128 0x10
	.long	0x88a9
	.uleb128 0x2
	.byte	0x91
	.sleb128 -24
	.uleb128 0x10
	.long	0x88b2
	.uleb128 0x2
	.byte	0x91
	.sleb128 -32
	.byte	0
	.uleb128 0xf
	.long	0x420a
	.quad	.LFB3299
	.quad	.LFE3299-.LFB3299
	.uleb128 0x1
	.byte	0x9c
	.long	0x895b
	.uleb128 0x4
	.long	.LASF148
	.long	0x525a
	.uleb128 0x4
	.long	.LASF132
	.long	0x685d
	.uleb128 0x7
	.string	"_Tp"
	.long	0x4c27
	.uleb128 0x5
	.long	.LASF1145
	.byte	0x11
	.value	0x16d
	.byte	0x2b
	.long	0x525a
	.uleb128 0x2
	.byte	0x91
	.sleb128 -24
	.uleb128 0x5
	.long	.LASF1146
	.byte	0x11
	.value	0x16d
	.byte	0x43
	.long	0x525a
	.uleb128 0x2
	.byte	0x91
	.sleb128 -32
	.uleb128 0x5
	.long	.LASF1149
	.byte	0x11
	.value	0x16e
	.byte	0x18
	.long	0x685d
	.uleb128 0x2
	.byte	0x91
	.sleb128 -40
	.uleb128 0x24
	.long	0x6894
	.uleb128 0x2
	.byte	0x91
	.sleb128 -48
	.byte	0
	.uleb128 0x14
	.long	0x1b6f
	.long	0x897a
	.quad	.LFB3298
	.quad	.LFE3298-.LFB3298
	.uleb128 0x1
	.byte	0x9c
	.long	0x8987
	.uleb128 0xe
	.long	.LASF1133
	.long	0x6934
	.uleb128 0x2
	.byte	0x91
	.sleb128 -40
	.byte	0
	.uleb128 0x14
	.long	0x1b32
	.long	0x89a6
	.quad	.LFB3297
	.quad	.LFE3297-.LFB3297
	.uleb128 0x1
	.byte	0x9c
	.long	0x89b3
	.uleb128 0xe
	.long	.LASF1133
	.long	0x6934
	.uleb128 0x2
	.byte	0x91
	.sleb128 -40
	.byte	0
	.uleb128 0x15
	.long	0x15c2
	.long	0x89c0
	.long	0x89e4
	.uleb128 0x11
	.long	.LASF1133
	.long	0x68e9
	.uleb128 0x30
	.string	"__n"
	.byte	0x7
	.value	0x14a
	.byte	0x1b
	.long	0x55c
	.uleb128 0x30
	.string	"__a"
	.byte	0x7
	.value	0x14a
	.byte	0x36
	.long	0x68f8
	.byte	0
	.uleb128 0x1d
	.long	0x89b3
	.long	.LASF1176
	.long	0x8a07
	.quad	.LFB3295
	.quad	.LFE3295-.LFB3295
	.uleb128 0x1
	.byte	0x9c
	.long	0x8a20
	.uleb128 0x10
	.long	0x89c0
	.uleb128 0x2
	.byte	0x91
	.sleb128 -40
	.uleb128 0x10
	.long	0x89c9
	.uleb128 0x2
	.byte	0x91
	.sleb128 -48
	.uleb128 0x10
	.long	0x89d6
	.uleb128 0x2
	.byte	0x91
	.sleb128 -56
	.byte	0
	.uleb128 0xf
	.long	0x4f3d
	.quad	.LFB3293
	.quad	.LFE3293-.LFB3293
	.uleb128 0x1
	.byte	0x9c
	.long	0x8a4b
	.uleb128 0x29
	.string	"__a"
	.byte	0x15
	.byte	0x61
	.byte	0x3d
	.long	0x688f
	.uleb128 0x2
	.byte	0x91
	.sleb128 -32
	.byte	0
	.uleb128 0x28
	.long	0x1521
	.long	0x8a6a
	.quad	.LFB3292
	.quad	.LFE3292-.LFB3292
	.uleb128 0x1
	.byte	0x9c
	.long	0x8a77
	.uleb128 0xe
	.long	.LASF1133
	.long	0x68f3
	.uleb128 0x2
	.byte	0x91
	.sleb128 -24
	.byte	0
	.uleb128 0x14
	.long	0x116a
	.long	0x8a96
	.quad	.LFB3291
	.quad	.LFE3291-.LFB3291
	.uleb128 0x1
	.byte	0x9c
	.long	0x8ac1
	.uleb128 0xe
	.long	.LASF1133
	.long	0x6853
	.uleb128 0x2
	.byte	0x91
	.sleb128 -24
	.uleb128 0x29
	.string	"__p"
	.byte	0xa
	.byte	0x8e
	.byte	0x17
	.long	0x685d
	.uleb128 0x2
	.byte	0x91
	.sleb128 -32
	.uleb128 0x29
	.string	"__n"
	.byte	0xa
	.byte	0x8e
	.byte	0x26
	.long	0x115e
	.uleb128 0x2
	.byte	0x91
	.sleb128 -40
	.byte	0
	.uleb128 0xf
	.long	0x2c41
	.quad	.LFB3290
	.quad	.LFE3290-.LFB3290
	.uleb128 0x1
	.byte	0x9c
	.long	0x8b1d
	.uleb128 0x5
	.long	.LASF1145
	.byte	0x7
	.value	0x1f3
	.byte	0x1b
	.long	0x2bc4
	.uleb128 0x2
	.byte	0x91
	.sleb128 -24
	.uleb128 0x5
	.long	.LASF1146
	.byte	0x7
	.value	0x1f3
	.byte	0x2c
	.long	0x2bc4
	.uleb128 0x2
	.byte	0x91
	.sleb128 -32
	.uleb128 0x5
	.long	.LASF1149
	.byte	0x7
	.value	0x1f3
	.byte	0x3c
	.long	0x2bc4
	.uleb128 0x2
	.byte	0x91
	.sleb128 -40
	.uleb128 0x5
	.long	.LASF1162
	.byte	0x7
	.value	0x1f4
	.byte	0x15
	.long	0x70ff
	.uleb128 0x2
	.byte	0x91
	.sleb128 -48
	.byte	0
	.uleb128 0x14
	.long	0x2a97
	.long	0x8b3c
	.quad	.LFB3289
	.quad	.LFE3289-.LFB3289
	.uleb128 0x1
	.byte	0x9c
	.long	0x8b59
	.uleb128 0xe
	.long	.LASF1133
	.long	0x70e6
	.uleb128 0x2
	.byte	0x91
	.sleb128 -24
	.uleb128 0x16
	.string	"__n"
	.byte	0x7
	.value	0x177
	.byte	0x1a
	.long	0x55c
	.uleb128 0x2
	.byte	0x91
	.sleb128 -32
	.byte	0
	.uleb128 0x14
	.long	0x35fb
	.long	0x8b78
	.quad	.LFB3288
	.quad	.LFE3288-.LFB3288
	.uleb128 0x1
	.byte	0x9c
	.long	0x8bb6
	.uleb128 0xe
	.long	.LASF1133
	.long	0x7131
	.uleb128 0x2
	.byte	0x91
	.sleb128 -56
	.uleb128 0x16
	.string	"__n"
	.byte	0x7
	.value	0x763
	.byte	0x1e
	.long	0x2cda
	.uleb128 0x2
	.byte	0x91
	.sleb128 -64
	.uleb128 0x16
	.string	"__s"
	.byte	0x7
	.value	0x763
	.byte	0x2f
	.long	0x2e8
	.uleb128 0x3
	.byte	0x91
	.sleb128 -72
	.uleb128 0x2b
	.long	.LASF1157
	.byte	0x7
	.value	0x768
	.byte	0x12
	.long	0x2ce7
	.uleb128 0x2
	.byte	0x91
	.sleb128 -40
	.byte	0
	.uleb128 0xf
	.long	0x424f
	.quad	.LFB3287
	.quad	.LFE3287-.LFB3287
	.uleb128 0x1
	.byte	0x9c
	.long	0x8c15
	.uleb128 0x4
	.long	.LASF132
	.long	0x705a
	.uleb128 0x4
	.long	.LASF155
	.long	0x5e
	.uleb128 0x7
	.string	"_Tp"
	.long	0x3f
	.uleb128 0x5
	.long	.LASF1145
	.byte	0x11
	.value	0x2fc
	.byte	0x32
	.long	0x705a
	.uleb128 0x2
	.byte	0x91
	.sleb128 -24
	.uleb128 0x16
	.string	"__n"
	.byte	0x11
	.value	0x2fc
	.byte	0x41
	.long	0x5e
	.uleb128 0x2
	.byte	0x91
	.sleb128 -32
	.uleb128 0x24
	.long	0x7091
	.uleb128 0x2
	.byte	0x91
	.sleb128 -40
	.byte	0
	.uleb128 0x14
	.long	0x30cf
	.long	0x8c34
	.quad	.LFB3286
	.quad	.LFE3286-.LFB3286
	.uleb128 0x1
	.byte	0x9c
	.long	0x8c41
	.uleb128 0xe
	.long	.LASF1133
	.long	0x7131
	.uleb128 0x2
	.byte	0x91
	.sleb128 -24
	.byte	0
	.uleb128 0x28
	.long	0x5215
	.long	0x8c60
	.quad	.LFB3285
	.quad	.LFE3285-.LFB3285
	.uleb128 0x1
	.byte	0x9c
	.long	0x8c6d
	.uleb128 0xe
	.long	.LASF1133
	.long	0x71d1
	.uleb128 0x2
	.byte	0x91
	.sleb128 -24
	.byte	0
	.uleb128 0xf
	.long	0x428f
	.quad	.LFB3283
	.quad	.LFE3283-.LFB3283
	.uleb128 0x1
	.byte	0x9c
	.long	0x8ce6
	.uleb128 0x4
	.long	.LASF148
	.long	0x6876
	.uleb128 0x4
	.long	.LASF132
	.long	0x685d
	.uleb128 0x18
	.long	.LASF1145
	.byte	0x11
	.byte	0xa3
	.byte	0x27
	.long	0x6876
	.uleb128 0x2
	.byte	0x91
	.sleb128 -40
	.uleb128 0x18
	.long	.LASF1146
	.byte	0x11
	.byte	0xa3
	.byte	0x3f
	.long	0x6876
	.uleb128 0x2
	.byte	0x91
	.sleb128 -48
	.uleb128 0x18
	.long	.LASF1149
	.byte	0x11
	.byte	0xa4
	.byte	0x1b
	.long	0x685d
	.uleb128 0x2
	.byte	0x91
	.sleb128 -56
	.uleb128 0x2d
	.long	.LASF1166
	.byte	0x11
	.byte	0xae
	.byte	0x12
	.long	0x5b0d
	.uleb128 0x2
	.byte	0x91
	.sleb128 -17
	.uleb128 0x2d
	.long	.LASF1167
	.byte	0x11
	.byte	0xb5
	.byte	0x12
	.long	0x5b0d
	.uleb128 0x2
	.byte	0x91
	.sleb128 -18
	.byte	0
	.uleb128 0xf
	.long	0x1281
	.quad	.LFB3282
	.quad	.LFE3282-.LFB3282
	.uleb128 0x1
	.byte	0x9c
	.long	0x8d22
	.uleb128 0x16
	.string	"__a"
	.byte	0x9
	.value	0x1cf
	.byte	0x20
	.long	0x6899
	.uleb128 0x2
	.byte	0x91
	.sleb128 -24
	.uleb128 0x16
	.string	"__n"
	.byte	0x9
	.value	0x1cf
	.byte	0x2f
	.long	0x12b3
	.uleb128 0x2
	.byte	0x91
	.sleb128 -32
	.byte	0
	.uleb128 0xf
	.long	0x223a
	.quad	.LFB3281
	.quad	.LFE3281-.LFB3281
	.uleb128 0x1
	.byte	0x9c
	.long	0x8d6e
	.uleb128 0x16
	.string	"__a"
	.byte	0x7
	.value	0x777
	.byte	0x29
	.long	0x693e
	.uleb128 0x2
	.byte	0x91
	.sleb128 -40
	.uleb128 0x2b
	.long	.LASF1168
	.byte	0x7
	.value	0x77c
	.byte	0xf
	.long	0x569
	.uleb128 0x2
	.byte	0x91
	.sleb128 -24
	.uleb128 0x2b
	.long	.LASF1169
	.byte	0x7
	.value	0x77e
	.byte	0xf
	.long	0x569
	.uleb128 0x2
	.byte	0x91
	.sleb128 -32
	.byte	0
	.uleb128 0x14
	.long	0x2573
	.long	0x8d8d
	.quad	.LFB3280
	.quad	.LFE3280-.LFB3280
	.uleb128 0x1
	.byte	0x9c
	.long	0x8db8
	.uleb128 0xe
	.long	.LASF1133
	.long	0x7050
	.uleb128 0x2
	.byte	0x91
	.sleb128 -24
	.uleb128 0x29
	.string	"__p"
	.byte	0xa
	.byte	0x8e
	.byte	0x17
	.long	0x705a
	.uleb128 0x2
	.byte	0x91
	.sleb128 -32
	.uleb128 0x29
	.string	"__n"
	.byte	0xa
	.byte	0x8e
	.byte	0x26
	.long	0x2567
	.uleb128 0x2
	.byte	0x91
	.sleb128 -40
	.byte	0
	.uleb128 0xf
	.long	0x42c5
	.quad	.LFB3258
	.quad	.LFE3258-.LFB3258
	.uleb128 0x1
	.byte	0x9c
	.long	0x8e5c
	.uleb128 0x4
	.long	.LASF598
	.long	0x501a
	.uleb128 0x4
	.long	.LASF599
	.long	0x501a
	.uleb128 0x5
	.long	.LASF1152
	.byte	0x2
	.value	0x63b
	.byte	0x13
	.long	0x501a
	.uleb128 0x3
	.byte	0x91
	.sleb128 -72
	.uleb128 0x5
	.long	.LASF1156
	.byte	0x2
	.value	0x63b
	.byte	0x22
	.long	0x501a
	.uleb128 0x3
	.byte	0x91
	.sleb128 -80
	.uleb128 0x5
	.long	.LASF1153
	.byte	0x2
	.value	0x63b
	.byte	0x30
	.long	0x501a
	.uleb128 0x3
	.byte	0x91
	.sleb128 -88
	.uleb128 0x5
	.long	.LASF1177
	.byte	0x2
	.value	0x63b
	.byte	0x3f
	.long	0x501a
	.uleb128 0x3
	.byte	0x91
	.sleb128 -96
	.uleb128 0x50
	.quad	.LBB56
	.quad	.LBE56-.LBB56
	.uleb128 0x2b
	.long	.LASF1178
	.byte	0x2
	.value	0x643
	.byte	0x9
	.long	0x4c27
	.uleb128 0x2
	.byte	0x91
	.sleb128 -40
	.uleb128 0x2b
	.long	.LASF1179
	.byte	0x2
	.value	0x644
	.byte	0x9
	.long	0x4c27
	.uleb128 0x2
	.byte	0x91
	.sleb128 -48
	.byte	0
	.byte	0
	.uleb128 0xf
	.long	0x4301
	.quad	.LFB3256
	.quad	.LFE3256-.LFB3256
	.uleb128 0x1
	.byte	0x9c
	.long	0x8ec4
	.uleb128 0x2a
	.long	.LASF543
	.long	0x5b06
	.byte	0
	.uleb128 0x7
	.string	"_II"
	.long	0x57cf
	.uleb128 0x7
	.string	"_OI"
	.long	0x559c
	.uleb128 0x5
	.long	.LASF1145
	.byte	0x2
	.value	0x20f
	.byte	0x17
	.long	0x57cf
	.uleb128 0x2
	.byte	0x91
	.sleb128 -40
	.uleb128 0x5
	.long	.LASF1146
	.byte	0x2
	.value	0x20f
	.byte	0x24
	.long	0x57cf
	.uleb128 0x2
	.byte	0x91
	.sleb128 -48
	.uleb128 0x5
	.long	.LASF1149
	.byte	0x2
	.value	0x20f
	.byte	0x30
	.long	0x559c
	.uleb128 0x2
	.byte	0x91
	.sleb128 -56
	.byte	0
	.uleb128 0x26
	.long	0x4342
	.quad	.LFB3255
	.quad	.LFE3255-.LFB3255
	.uleb128 0x1
	.byte	0x9c
	.long	0x8ef9
	.uleb128 0x4
	.long	.LASF536
	.long	0x57cf
	.uleb128 0x5
	.long	.LASF1151
	.byte	0x14
	.value	0x232
	.byte	0x1c
	.long	0x57cf
	.uleb128 0x2
	.byte	0x91
	.sleb128 -24
	.byte	0
	.uleb128 0x15
	.long	0x55ce
	.long	0x8f06
	.long	0x8f1d
	.uleb128 0x11
	.long	.LASF1133
	.long	0x71fe
	.uleb128 0x30
	.string	"__i"
	.byte	0x12
	.value	0x430
	.byte	0x2a
	.long	0x7203
	.byte	0
	.uleb128 0x31
	.long	0x8ef9
	.long	.LASF1180
	.long	0x8f40
	.quad	.LFB3253
	.quad	.LFE3253-.LFB3253
	.uleb128 0x1
	.byte	0x9c
	.long	0x8f51
	.uleb128 0x10
	.long	0x8f06
	.uleb128 0x2
	.byte	0x91
	.sleb128 -24
	.uleb128 0x10
	.long	0x8f0f
	.uleb128 0x2
	.byte	0x91
	.sleb128 -32
	.byte	0
	.uleb128 0x15
	.long	0x5801
	.long	0x8f5e
	.long	0x8f75
	.uleb128 0x11
	.long	.LASF1133
	.long	0x71e0
	.uleb128 0x30
	.string	"__i"
	.byte	0x12
	.value	0x430
	.byte	0x2a
	.long	0x71e5
	.byte	0
	.uleb128 0x31
	.long	0x8f51
	.long	.LASF1181
	.long	0x8f98
	.quad	.LFB3250
	.quad	.LFE3250-.LFB3250
	.uleb128 0x1
	.byte	0x9c
	.long	0x8fa9
	.uleb128 0x10
	.long	0x8f5e
	.uleb128 0x2
	.byte	0x91
	.sleb128 -24
	.uleb128 0x10
	.long	0x8f67
	.uleb128 0x2
	.byte	0x91
	.sleb128 -32
	.byte	0
	.uleb128 0x14
	.long	0x22c1
	.long	0x8fc8
	.quad	.LFB3248
	.quad	.LFE3248-.LFB3248
	.uleb128 0x1
	.byte	0x9c
	.long	0x8fff
	.uleb128 0xe
	.long	.LASF1133
	.long	0x690c
	.uleb128 0x3
	.byte	0x91
	.sleb128 -72
	.uleb128 0x16
	.string	"__x"
	.byte	0x7
	.value	0x7a2
	.byte	0x1f
	.long	0x6920
	.uleb128 0x3
	.byte	0x91
	.sleb128 -80
	.uleb128 0x24
	.long	0xb6a
	.uleb128 0x2
	.byte	0x91
	.sleb128 0
	.uleb128 0x2b
	.long	.LASF1148
	.byte	0x7
	.value	0x7a4
	.byte	0x9
	.long	0x172f
	.uleb128 0x2
	.byte	0x91
	.sleb128 -64
	.byte	0
	.uleb128 0x15
	.long	0x13bf
	.long	0x900c
	.long	0x9022
	.uleb128 0x11
	.long	.LASF1133
	.long	0x68b2
	.uleb128 0x45
	.string	"__x"
	.byte	0x7
	.byte	0x69
	.byte	0x28
	.long	0x68b7
	.byte	0
	.uleb128 0x31
	.long	0x8fff
	.long	.LASF1182
	.long	0x9045
	.quad	.LFB3246
	.quad	.LFE3246-.LFB3246
	.uleb128 0x1
	.byte	0x9c
	.long	0x9056
	.uleb128 0x10
	.long	0x900c
	.uleb128 0x2
	.byte	0x91
	.sleb128 -24
	.uleb128 0x10
	.long	0x9015
	.uleb128 0x2
	.byte	0x91
	.sleb128 -32
	.byte	0
	.uleb128 0x15
	.long	0x1207
	.long	0x9063
	.long	0x9079
	.uleb128 0x11
	.long	.LASF1133
	.long	0x688a
	.uleb128 0x45
	.string	"__a"
	.byte	0x8
	.byte	0x9f
	.byte	0x22
	.long	0x688f
	.byte	0
	.uleb128 0x1d
	.long	0x9056
	.long	.LASF1183
	.long	0x909c
	.quad	.LFB3243
	.quad	.LFE3243-.LFB3243
	.uleb128 0x1
	.byte	0x9c
	.long	0x90ad
	.uleb128 0x10
	.long	0x9063
	.uleb128 0x2
	.byte	0x91
	.sleb128 -24
	.uleb128 0x10
	.long	0x906c
	.uleb128 0x2
	.byte	0x91
	.sleb128 -32
	.byte	0
	.uleb128 0x25
	.long	0x3892
	.uleb128 0xd
	.long	0x1428
	.uleb128 0x26
	.long	0x4366
	.quad	.LFB3241
	.quad	.LFE3241-.LFB3241
	.uleb128 0x1
	.byte	0x9c
	.long	0x90eb
	.uleb128 0x7
	.string	"_Tp"
	.long	0x90b2
	.uleb128 0x29
	.string	"__t"
	.byte	0xf
	.byte	0x68
	.byte	0x10
	.long	0x90b2
	.uleb128 0x2
	.byte	0x91
	.sleb128 -24
	.byte	0
	.uleb128 0x15
	.long	0x1920
	.long	0x90f8
	.long	0x910f
	.uleb128 0x11
	.long	.LASF1133
	.long	0x690c
	.uleb128 0x30
	.string	"__x"
	.byte	0x7
	.value	0x254
	.byte	0x1c
	.long	0x691b
	.byte	0
	.uleb128 0x1d
	.long	0x90eb
	.long	.LASF1184
	.long	0x9132
	.quad	.LFB3239
	.quad	.LFE3239-.LFB3239
	.uleb128 0x1
	.byte	0x9c
	.long	0x9145
	.uleb128 0x10
	.long	0x90f8
	.uleb128 0x3
	.byte	0x91
	.sleb128 -72
	.uleb128 0x10
	.long	0x9101
	.uleb128 0x3
	.byte	0x91
	.sleb128 -80
	.byte	0
	.uleb128 0x26
	.long	0xc13
	.quad	.LFB3237
	.quad	.LFE3237-.LFB3237
	.uleb128 0x1
	.byte	0x9c
	.long	0x917a
	.uleb128 0x4
	.long	.LASF132
	.long	0x685d
	.uleb128 0x24
	.long	0x685d
	.uleb128 0x2
	.byte	0x91
	.sleb128 -24
	.uleb128 0x24
	.long	0x685d
	.uleb128 0x2
	.byte	0x91
	.sleb128 -32
	.byte	0
	.uleb128 0xf
	.long	0x12f2
	.quad	.LFB3236
	.quad	.LFE3236-.LFB3236
	.uleb128 0x1
	.byte	0x9c
	.long	0x91c6
	.uleb128 0x16
	.string	"__a"
	.byte	0x9
	.value	0x1ef
	.byte	0x22
	.long	0x6899
	.uleb128 0x2
	.byte	0x91
	.sleb128 -24
	.uleb128 0x16
	.string	"__p"
	.byte	0x9
	.value	0x1ef
	.byte	0x2f
	.long	0x1274
	.uleb128 0x2
	.byte	0x91
	.sleb128 -32
	.uleb128 0x16
	.string	"__n"
	.byte	0x9
	.value	0x1ef
	.byte	0x3e
	.long	0x12b3
	.uleb128 0x2
	.byte	0x91
	.sleb128 -40
	.byte	0
	.uleb128 0x26
	.long	0xc37
	.quad	.LFB3235
	.quad	.LFE3235-.LFB3235
	.uleb128 0x1
	.byte	0x9c
	.long	0x91fb
	.uleb128 0x4
	.long	.LASF132
	.long	0x705a
	.uleb128 0x24
	.long	0x705a
	.uleb128 0x2
	.byte	0x91
	.sleb128 -24
	.uleb128 0x24
	.long	0x705a
	.uleb128 0x2
	.byte	0x91
	.sleb128 -32
	.byte	0
	.uleb128 0x14
	.long	0x365c
	.long	0x921a
	.quad	.LFB3234
	.quad	.LFE3234-.LFB3234
	.uleb128 0x1
	.byte	0x9c
	.long	0x9258
	.uleb128 0xe
	.long	.LASF1133
	.long	0x7109
	.uleb128 0x2
	.byte	0x91
	.sleb128 -40
	.uleb128 0x5
	.long	.LASF1000
	.byte	0x7
	.value	0x788
	.byte	0x1f
	.long	0x2bc4
	.uleb128 0x2
	.byte	0x91
	.sleb128 -48
	.uleb128 0x50
	.quad	.LBB48
	.quad	.LBE48-.LBB48
	.uleb128 0x75
	.string	"__n"
	.value	0x78a
	.byte	0x10
	.long	0x2cda
	.uleb128 0x2
	.byte	0x91
	.sleb128 -24
	.byte	0
	.byte	0
	.uleb128 0x14
	.long	0x3566
	.long	0x9277
	.quad	.LFB3230
	.quad	.LFE3230-.LFB3230
	.uleb128 0x1
	.byte	0x9c
	.long	0x92e2
	.uleb128 0xe
	.long	.LASF1133
	.long	0x7109
	.uleb128 0x3
	.byte	0x91
	.sleb128 -72
	.uleb128 0x16
	.string	"__n"
	.byte	0x13
	.value	0x273
	.byte	0x21
	.long	0x2cda
	.uleb128 0x3
	.byte	0x91
	.sleb128 -80
	.uleb128 0x76
	.long	.LLRL0
	.uleb128 0x2b
	.long	.LASF1185
	.byte	0x13
	.value	0x277
	.byte	0x14
	.long	0x2ce7
	.uleb128 0x2
	.byte	0x91
	.sleb128 -40
	.uleb128 0x2b
	.long	.LASF1186
	.byte	0x13
	.value	0x278
	.byte	0xe
	.long	0x2cda
	.uleb128 0x2
	.byte	0x91
	.sleb128 -48
	.uleb128 0x76
	.long	.LLRL1
	.uleb128 0x2b
	.long	.LASF1157
	.byte	0x13
	.value	0x288
	.byte	0x18
	.long	0x2ce7
	.uleb128 0x2
	.byte	0x91
	.sleb128 -56
	.uleb128 0x2b
	.long	.LASF1187
	.byte	0x13
	.value	0x28a
	.byte	0x10
	.long	0x2bc4
	.uleb128 0x2
	.byte	0x91
	.sleb128 -64
	.byte	0
	.byte	0
	.byte	0
	.uleb128 0x28
	.long	0x5078
	.long	0x9301
	.quad	.LFB3229
	.quad	.LFE3229-.LFB3229
	.uleb128 0x1
	.byte	0x9c
	.long	0x930e
	.uleb128 0xe
	.long	.LASF1133
	.long	0x71d1
	.uleb128 0x2
	.byte	0x91
	.sleb128 -24
	.byte	0
	.uleb128 0x28
	.long	0x50c5
	.long	0x932d
	.quad	.LFB3228
	.quad	.LFE3228-.LFB3228
	.uleb128 0x1
	.byte	0x9c
	.long	0x933a
	.uleb128 0xe
	.long	.LASF1133
	.long	0x71c2
	.uleb128 0x2
	.byte	0x91
	.sleb128 -24
	.byte	0
	.uleb128 0xf
	.long	0x5a66
	.quad	.LFB3227
	.quad	.LFE3227-.LFB3227
	.uleb128 0x1
	.byte	0x9c
	.long	0x9388
	.uleb128 0x4
	.long	.LASF536
	.long	0x685d
	.uleb128 0x4
	.long	.LASF558
	.long	0x172f
	.uleb128 0x5
	.long	.LASF1160
	.byte	0x12
	.value	0x4d5
	.byte	0x40
	.long	0x7b93
	.uleb128 0x2
	.byte	0x91
	.sleb128 -40
	.uleb128 0x5
	.long	.LASF1161
	.byte	0x12
	.value	0x4d6
	.byte	0x39
	.long	0x7b93
	.uleb128 0x2
	.byte	0x91
	.sleb128 -48
	.byte	0
	.uleb128 0x15
	.long	0x504c
	.long	0x9395
	.long	0x93ac
	.uleb128 0x11
	.long	.LASF1133
	.long	0x71c2
	.uleb128 0x30
	.string	"__i"
	.byte	0x12
	.value	0x430
	.byte	0x2a
	.long	0x71c7
	.byte	0
	.uleb128 0x31
	.long	0x9388
	.long	.LASF1188
	.long	0x93cf
	.quad	.LFB3225
	.quad	.LFE3225-.LFB3225
	.uleb128 0x1
	.byte	0x9c
	.long	0x93e0
	.uleb128 0x10
	.long	0x9395
	.uleb128 0x2
	.byte	0x91
	.sleb128 -24
	.uleb128 0x10
	.long	0x939e
	.uleb128 0x2
	.byte	0x91
	.sleb128 -32
	.byte	0
	.uleb128 0xf
	.long	0x4389
	.quad	.LFB3223
	.quad	.LFE3223-.LFB3223
	.uleb128 0x1
	.byte	0x9c
	.long	0x944f
	.uleb128 0x4
	.long	.LASF148
	.long	0x6876
	.uleb128 0x4
	.long	.LASF132
	.long	0x685d
	.uleb128 0x7
	.string	"_Tp"
	.long	0x4c27
	.uleb128 0x5
	.long	.LASF1145
	.byte	0x11
	.value	0x16d
	.byte	0x2b
	.long	0x6876
	.uleb128 0x2
	.byte	0x91
	.sleb128 -24
	.uleb128 0x5
	.long	.LASF1146
	.byte	0x11
	.value	0x16d
	.byte	0x43
	.long	0x6876
	.uleb128 0x2
	.byte	0x91
	.sleb128 -32
	.uleb128 0x5
	.long	.LASF1149
	.byte	0x11
	.value	0x16e
	.byte	0x18
	.long	0x685d
	.uleb128 0x2
	.byte	0x91
	.sleb128 -40
	.uleb128 0x24
	.long	0x6894
	.uleb128 0x2
	.byte	0x91
	.sleb128 -48
	.byte	0
	.uleb128 0x14
	.long	0x168e
	.long	0x946e
	.quad	.LFB3222
	.quad	.LFE3222-.LFB3222
	.uleb128 0x1
	.byte	0x9c
	.long	0x948b
	.uleb128 0xe
	.long	.LASF1133
	.long	0x68e9
	.uleb128 0x2
	.byte	0x91
	.sleb128 -24
	.uleb128 0x16
	.string	"__n"
	.byte	0x7
	.value	0x177
	.byte	0x1a
	.long	0x55c
	.uleb128 0x2
	.byte	0x91
	.sleb128 -32
	.byte	0
	.uleb128 0xf
	.long	0x221c
	.quad	.LFB3221
	.quad	.LFE3221-.LFB3221
	.uleb128 0x1
	.byte	0x9c
	.long	0x94c7
	.uleb128 0x16
	.string	"__n"
	.byte	0x7
	.value	0x76e
	.byte	0x23
	.long	0x18d1
	.uleb128 0x2
	.byte	0x91
	.sleb128 -56
	.uleb128 0x16
	.string	"__a"
	.byte	0x7
	.value	0x76e
	.byte	0x3e
	.long	0x6911
	.uleb128 0x2
	.byte	0x91
	.sleb128 -64
	.byte	0
	.uleb128 0x26
	.long	0x43ce
	.quad	.LFB3220
	.quad	.LFE3220-.LFB3220
	.uleb128 0x1
	.byte	0x9c
	.long	0x9512
	.uleb128 0x4
	.long	.LASF613
	.long	0x6876
	.uleb128 0x18
	.long	.LASF1145
	.byte	0xc
	.byte	0x63
	.byte	0x26
	.long	0x6876
	.uleb128 0x2
	.byte	0x91
	.sleb128 -24
	.uleb128 0x18
	.long	.LASF1146
	.byte	0xc
	.byte	0x63
	.byte	0x45
	.long	0x6876
	.uleb128 0x2
	.byte	0x91
	.sleb128 -32
	.uleb128 0x24
	.long	0xba6
	.uleb128 0x2
	.byte	0x91
	.sleb128 0
	.byte	0
	.uleb128 0x26
	.long	0x43fb
	.quad	.LFB3219
	.quad	.LFE3219-.LFB3219
	.uleb128 0x1
	.byte	0x9c
	.long	0x953f
	.uleb128 0x4
	.long	.LASF575
	.long	0x6876
	.uleb128 0x24
	.long	0x7221
	.uleb128 0x2
	.byte	0x91
	.sleb128 -24
	.byte	0
	.uleb128 0x28
	.long	0x23ed
	.long	0x955e
	.quad	.LFB3218
	.quad	.LFE3218-.LFB3218
	.uleb128 0x1
	.byte	0x9c
	.long	0x956b
	.uleb128 0xe
	.long	.LASF1133
	.long	0x71b8
	.uleb128 0x2
	.byte	0x91
	.sleb128 -24
	.byte	0
	.uleb128 0x15
	.long	0x1459
	.long	0x9578
	.long	0x958e
	.uleb128 0x11
	.long	.LASF1133
	.long	0x68cb
	.uleb128 0x45
	.string	"__a"
	.byte	0x7
	.byte	0x8f
	.byte	0x25
	.long	0x68d0
	.byte	0
	.uleb128 0x1d
	.long	0x956b
	.long	.LASF1189
	.long	0x95b1
	.quad	.LFB3216
	.quad	.LFE3216-.LFB3216
	.uleb128 0x1
	.byte	0x9c
	.long	0x95c2
	.uleb128 0x10
	.long	0x9578
	.uleb128 0x2
	.byte	0x91
	.sleb128 -24
	.uleb128 0x10
	.long	0x9581
	.uleb128 0x2
	.byte	0x91
	.sleb128 -32
	.byte	0
	.uleb128 0xf
	.long	0x26fb
	.quad	.LFB3214
	.quad	.LFE3214-.LFB3214
	.uleb128 0x1
	.byte	0x9c
	.long	0x960e
	.uleb128 0x16
	.string	"__a"
	.byte	0x9
	.value	0x1ef
	.byte	0x22
	.long	0x7096
	.uleb128 0x2
	.byte	0x91
	.sleb128 -24
	.uleb128 0x16
	.string	"__p"
	.byte	0x9
	.value	0x1ef
	.byte	0x2f
	.long	0x267d
	.uleb128 0x2
	.byte	0x91
	.sleb128 -32
	.uleb128 0x16
	.string	"__n"
	.byte	0x9
	.value	0x1ef
	.byte	0x3e
	.long	0x26bc
	.uleb128 0x2
	.byte	0x91
	.sleb128 -40
	.byte	0
	.uleb128 0x15
	.long	0x246e
	.long	0x961b
	.long	0x9625
	.uleb128 0x11
	.long	.LASF1133
	.long	0x7050
	.byte	0
	.uleb128 0x31
	.long	0x960e
	.long	.LASF1190
	.long	0x9648
	.quad	.LFB3212
	.quad	.LFE3212-.LFB3212
	.uleb128 0x1
	.byte	0x9c
	.long	0x9651
	.uleb128 0x10
	.long	0x961b
	.uleb128 0x2
	.byte	0x91
	.sleb128 -24
	.byte	0
	.uleb128 0x14
	.long	0x6f23
	.long	0x9670
	.quad	.LFB3156
	.quad	.LFE3156-.LFB3156
	.uleb128 0x1
	.byte	0x9c
	.long	0x967d
	.uleb128 0xe
	.long	.LASF1133
	.long	0x71a9
	.uleb128 0x2
	.byte	0x91
	.sleb128 -24
	.byte	0
	.uleb128 0xf
	.long	0x441e
	.quad	.LFB3155
	.quad	.LFE3155-.LFB3155
	.uleb128 0x1
	.byte	0x9c
	.long	0x96eb
	.uleb128 0x4
	.long	.LASF598
	.long	0x501a
	.uleb128 0x4
	.long	.LASF599
	.long	0x501a
	.uleb128 0x5
	.long	.LASF1152
	.byte	0x2
	.value	0x682
	.byte	0x10
	.long	0x501a
	.uleb128 0x2
	.byte	0x91
	.sleb128 -24
	.uleb128 0x5
	.long	.LASF1156
	.byte	0x2
	.value	0x682
	.byte	0x1f
	.long	0x501a
	.uleb128 0x2
	.byte	0x91
	.sleb128 -32
	.uleb128 0x5
	.long	.LASF1153
	.byte	0x2
	.value	0x682
	.byte	0x2d
	.long	0x501a
	.uleb128 0x2
	.byte	0x91
	.sleb128 -40
	.uleb128 0x5
	.long	.LASF1177
	.byte	0x2
	.value	0x682
	.byte	0x3c
	.long	0x501a
	.uleb128 0x2
	.byte	0x91
	.sleb128 -48
	.byte	0
	.uleb128 0x14
	.long	0x6f42
	.long	0x970a
	.quad	.LFB3154
	.quad	.LFE3154-.LFB3154
	.uleb128 0x1
	.byte	0x9c
	.long	0x9717
	.uleb128 0xe
	.long	.LASF1133
	.long	0x71a9
	.uleb128 0x2
	.byte	0x91
	.sleb128 -32
	.byte	0
	.uleb128 0xd
	.long	0x6b71
	.uleb128 0xf
	.long	0x445a
	.quad	.LFB3153
	.quad	.LFE3153-.LFB3153
	.uleb128 0x1
	.byte	0x9c
	.long	0x977a
	.uleb128 0x4
	.long	.LASF669
	.long	0x501a
	.uleb128 0x4
	.long	.LASF670
	.long	0x9fe1
	.uleb128 0x5
	.long	.LASF1145
	.byte	0xd
	.value	0xec5
	.byte	0x1d
	.long	0x501a
	.uleb128 0x2
	.byte	0x91
	.sleb128 -24
	.uleb128 0x5
	.long	.LASF1146
	.byte	0xd
	.value	0xec5
	.byte	0x35
	.long	0x501a
	.uleb128 0x2
	.byte	0x91
	.sleb128 -32
	.uleb128 0x16
	.string	"__f"
	.byte	0xd
	.value	0xec5
	.byte	0x47
	.long	0x9fe1
	.uleb128 0x2
	.byte	0x91
	.sleb128 -40
	.byte	0
	.uleb128 0xf
	.long	0x4491
	.quad	.LFB3152
	.quad	.LFE3152-.LFB3152
	.uleb128 0x1
	.byte	0x9c
	.long	0x97d8
	.uleb128 0x7
	.string	"_II"
	.long	0x57cf
	.uleb128 0x7
	.string	"_OI"
	.long	0x559c
	.uleb128 0x5
	.long	.LASF1145
	.byte	0x2
	.value	0x263
	.byte	0xe
	.long	0x57cf
	.uleb128 0x2
	.byte	0x91
	.sleb128 -40
	.uleb128 0x5
	.long	.LASF1146
	.byte	0x2
	.value	0x263
	.byte	0x1b
	.long	0x57cf
	.uleb128 0x2
	.byte	0x91
	.sleb128 -48
	.uleb128 0x5
	.long	.LASF1149
	.byte	0x2
	.value	0x263
	.byte	0x27
	.long	0x559c
	.uleb128 0x2
	.byte	0x91
	.sleb128 -56
	.byte	0
	.uleb128 0x14
	.long	0x2f0e
	.long	0x97f7
	.quad	.LFB3151
	.quad	.LFE3151-.LFB3151
	.uleb128 0x1
	.byte	0x9c
	.long	0x9804
	.uleb128 0xe
	.long	.LASF1133
	.long	0x7109
	.uleb128 0x2
	.byte	0x91
	.sleb128 -40
	.byte	0
	.uleb128 0x14
	.long	0x2f78
	.long	0x9823
	.quad	.LFB3150
	.quad	.LFE3150-.LFB3150
	.uleb128 0x1
	.byte	0x9c
	.long	0x9830
	.uleb128 0xe
	.long	.LASF1133
	.long	0x7131
	.uleb128 0x2
	.byte	0x91
	.sleb128 -40
	.byte	0
	.uleb128 0x14
	.long	0x2f3b
	.long	0x984f
	.quad	.LFB3149
	.quad	.LFE3149-.LFB3149
	.uleb128 0x1
	.byte	0x9c
	.long	0x985c
	.uleb128 0xe
	.long	.LASF1133
	.long	0x7131
	.uleb128 0x2
	.byte	0x91
	.sleb128 -40
	.byte	0
	.uleb128 0x14
	.long	0x1a67
	.long	0x987b
	.quad	.LFB3148
	.quad	.LFE3148-.LFB3148
	.uleb128 0x1
	.byte	0x9c
	.long	0x98a8
	.uleb128 0xe
	.long	.LASF1133
	.long	0x690c
	.uleb128 0x2
	.byte	0x91
	.sleb128 -40
	.uleb128 0x16
	.string	"__x"
	.byte	0x7
	.value	0x2f9
	.byte	0x1a
	.long	0x6920
	.uleb128 0x2
	.byte	0x91
	.sleb128 -48
	.uleb128 0x74
	.long	.LASF1192
	.byte	0x7
	.value	0x2fb
	.byte	0x11
	.long	0x5b0d
	.uleb128 0x2
	.byte	0x91
	.sleb128 -17
	.byte	0
	.uleb128 0x25
	.long	0x37b5
	.uleb128 0x26
	.long	0x44c8
	.quad	.LFB3147
	.quad	.LFE3147-.LFB3147
	.uleb128 0x1
	.byte	0x9c
	.long	0x98e1
	.uleb128 0x7
	.string	"_Tp"
	.long	0x692a
	.uleb128 0x29
	.string	"__t"
	.byte	0xf
	.byte	0x68
	.byte	0x10
	.long	0x692a
	.uleb128 0x2
	.byte	0x91
	.sleb128 -24
	.byte	0
	.uleb128 0x15
	.long	0x1478
	.long	0x98ee
	.long	0x9904
	.uleb128 0x11
	.long	.LASF1133
	.long	0x68cb
	.uleb128 0x45
	.string	"__x"
	.byte	0x7
	.byte	0x97
	.byte	0x1e
	.long	0x68d5
	.byte	0
	.uleb128 0x1d
	.long	0x98e1
	.long	.LASF1193
	.long	0x9927
	.quad	.LFB3145
	.quad	.LFE3145-.LFB3145
	.uleb128 0x1
	.byte	0x9c
	.long	0x9938
	.uleb128 0x10
	.long	0x98ee
	.uleb128 0x2
	.byte	0x91
	.sleb128 -40
	.uleb128 0x10
	.long	0x98f7
	.uleb128 0x2
	.byte	0x91
	.sleb128 -48
	.byte	0
	.uleb128 0x25
	.long	0x3792
	.uleb128 0x26
	.long	0x44eb
	.quad	.LFB3143
	.quad	.LFE3143-.LFB3143
	.uleb128 0x1
	.byte	0x9c
	.long	0x9971
	.uleb128 0x7
	.string	"_Tp"
	.long	0x172f
	.uleb128 0x29
	.string	"__t"
	.byte	0xf
	.byte	0x68
	.byte	0x10
	.long	0x6920
	.uleb128 0x2
	.byte	0x91
	.sleb128 -24
	.byte	0
	.uleb128 0x14
	.long	0x6a51
	.long	0x9990
	.quad	.LFB3142
	.quad	.LFE3142-.LFB3142
	.uleb128 0x1
	.byte	0x9c
	.long	0x999d
	.uleb128 0xe
	.long	.LASF1133
	.long	0x715e
	.uleb128 0x2
	.byte	0x91
	.sleb128 -32
	.byte	0
	.uleb128 0x15
	.long	0x13a5
	.long	0x99aa
	.long	0x99b4
	.uleb128 0x11
	.long	.LASF1133
	.long	0x68b2
	.byte	0
	.uleb128 0x31
	.long	0x999d
	.long	.LASF1194
	.long	0x99d7
	.quad	.LFB3140
	.quad	.LFE3140-.LFB3140
	.uleb128 0x1
	.byte	0x9c
	.long	0x99e0
	.uleb128 0x10
	.long	0x99aa
	.uleb128 0x2
	.byte	0x91
	.sleb128 -24
	.byte	0
	.uleb128 0xf
	.long	0x450e
	.quad	.LFB3138
	.quad	.LFE3138-.LFB3138
	.uleb128 0x1
	.byte	0x9c
	.long	0x9a23
	.uleb128 0x4
	.long	.LASF132
	.long	0x685d
	.uleb128 0x18
	.long	.LASF1145
	.byte	0xe
	.byte	0xb6
	.byte	0x1f
	.long	0x685d
	.uleb128 0x2
	.byte	0x91
	.sleb128 -24
	.uleb128 0x18
	.long	.LASF1146
	.byte	0xe
	.byte	0xb6
	.byte	0x39
	.long	0x685d
	.uleb128 0x2
	.byte	0x91
	.sleb128 -32
	.byte	0
	.uleb128 0x14
	.long	0x16b0
	.long	0x9a42
	.quad	.LFB3137
	.quad	.LFE3137-.LFB3137
	.uleb128 0x1
	.byte	0x9c
	.long	0x9a6f
	.uleb128 0xe
	.long	.LASF1133
	.long	0x68e9
	.uleb128 0x2
	.byte	0x91
	.sleb128 -24
	.uleb128 0x16
	.string	"__p"
	.byte	0x7
	.value	0x17f
	.byte	0x1d
	.long	0x141c
	.uleb128 0x2
	.byte	0x91
	.sleb128 -32
	.uleb128 0x16
	.string	"__n"
	.byte	0x7
	.value	0x17f
	.byte	0x29
	.long	0x55c
	.uleb128 0x2
	.byte	0x91
	.sleb128 -40
	.byte	0
	.uleb128 0xf
	.long	0x4532
	.quad	.LFB3135
	.quad	.LFE3135-.LFB3135
	.uleb128 0x1
	.byte	0x9c
	.long	0x9ab2
	.uleb128 0x4
	.long	.LASF132
	.long	0x705a
	.uleb128 0x18
	.long	.LASF1145
	.byte	0xe
	.byte	0xb6
	.byte	0x1f
	.long	0x705a
	.uleb128 0x2
	.byte	0x91
	.sleb128 -24
	.uleb128 0x18
	.long	.LASF1146
	.byte	0xe
	.byte	0xb6
	.byte	0x39
	.long	0x705a
	.uleb128 0x2
	.byte	0x91
	.sleb128 -32
	.byte	0
	.uleb128 0x14
	.long	0x30ef
	.long	0x9ad1
	.quad	.LFB3134
	.quad	.LFE3134-.LFB3134
	.uleb128 0x1
	.byte	0x9c
	.long	0x9aee
	.uleb128 0xe
	.long	.LASF1133
	.long	0x7109
	.uleb128 0x2
	.byte	0x91
	.sleb128 -24
	.uleb128 0x5
	.long	.LASF1195
	.byte	0x7
	.value	0x3f0
	.byte	0x18
	.long	0x2cda
	.uleb128 0x2
	.byte	0x91
	.sleb128 -32
	.byte	0
	.uleb128 0xf
	.long	0x4556
	.quad	.LFB3133
	.quad	.LFE3133-.LFB3133
	.uleb128 0x1
	.byte	0x9c
	.long	0x9b4c
	.uleb128 0x4
	.long	.LASF669
	.long	0x501a
	.uleb128 0x4
	.long	.LASF670
	.long	0xa4f7
	.uleb128 0x5
	.long	.LASF1145
	.byte	0xd
	.value	0xec5
	.byte	0x1d
	.long	0x501a
	.uleb128 0x2
	.byte	0x91
	.sleb128 -24
	.uleb128 0x5
	.long	.LASF1146
	.byte	0xd
	.value	0xec5
	.byte	0x35
	.long	0x501a
	.uleb128 0x2
	.byte	0x91
	.sleb128 -32
	.uleb128 0x16
	.string	"__f"
	.byte	0xd
	.value	0xec5
	.byte	0x47
	.long	0xa4f7
	.uleb128 0x2
	.byte	0x91
	.sleb128 -40
	.byte	0
	.uleb128 0x14
	.long	0x1b52
	.long	0x9b6b
	.quad	.LFB3132
	.quad	.LFE3132-.LFB3132
	.uleb128 0x1
	.byte	0x9c
	.long	0x9b78
	.uleb128 0xe
	.long	.LASF1133
	.long	0x690c
	.uleb128 0x2
	.byte	0x91
	.sleb128 -40
	.byte	0
	.uleb128 0x14
	.long	0x1b05
	.long	0x9b97
	.quad	.LFB3131
	.quad	.LFE3131-.LFB3131
	.uleb128 0x1
	.byte	0x9c
	.long	0x9ba4
	.uleb128 0xe
	.long	.LASF1133
	.long	0x690c
	.uleb128 0x2
	.byte	0x91
	.sleb128 -40
	.byte	0
	.uleb128 0x14
	.long	0x2307
	.long	0x9bcc
	.quad	.LFB3129
	.quad	.LFE3129-.LFB3129
	.uleb128 0x1
	.byte	0x9c
	.long	0x9c11
	.uleb128 0x4
	.long	.LASF132
	.long	0x6876
	.uleb128 0xe
	.long	.LASF1133
	.long	0x690c
	.uleb128 0x2
	.byte	0x91
	.sleb128 -56
	.uleb128 0x5
	.long	.LASF1145
	.byte	0x7
	.value	0x692
	.byte	0x27
	.long	0x6876
	.uleb128 0x2
	.byte	0x91
	.sleb128 -64
	.uleb128 0x5
	.long	.LASF1146
	.byte	0x7
	.value	0x692
	.byte	0x41
	.long	0x6876
	.uleb128 0x3
	.byte	0x91
	.sleb128 -72
	.uleb128 0x24
	.long	0xb80
	.uleb128 0x2
	.byte	0x91
	.sleb128 0
	.uleb128 0x75
	.string	"__n"
	.value	0x695
	.byte	0x14
	.long	0x18de
	.uleb128 0x2
	.byte	0x91
	.sleb128 -40
	.byte	0
	.uleb128 0xf
	.long	0x458d
	.quad	.LFB3130
	.quad	.LFE3130-.LFB3130
	.uleb128 0x1
	.byte	0x9c
	.long	0x9c54
	.uleb128 0x4
	.long	.LASF148
	.long	0x6876
	.uleb128 0x18
	.long	.LASF1145
	.byte	0xc
	.byte	0x93
	.byte	0x1d
	.long	0x6876
	.uleb128 0x2
	.byte	0x91
	.sleb128 -24
	.uleb128 0x18
	.long	.LASF1146
	.byte	0xc
	.byte	0x93
	.byte	0x35
	.long	0x6876
	.uleb128 0x2
	.byte	0x91
	.sleb128 -32
	.byte	0
	.uleb128 0x14
	.long	0x242b
	.long	0x9c73
	.quad	.LFB3128
	.quad	.LFE3128-.LFB3128
	.uleb128 0x1
	.byte	0x9c
	.long	0x9c80
	.uleb128 0xe
	.long	.LASF1133
	.long	0x71b8
	.uleb128 0x2
	.byte	0x91
	.sleb128 -40
	.byte	0
	.uleb128 0x28
	.long	0x240c
	.long	0x9c9f
	.quad	.LFB3127
	.quad	.LFE3127-.LFB3127
	.uleb128 0x1
	.byte	0x9c
	.long	0x9cac
	.uleb128 0xe
	.long	.LASF1133
	.long	0x71b8
	.uleb128 0x2
	.byte	0x91
	.sleb128 -24
	.byte	0
	.uleb128 0x15
	.long	0x1586
	.long	0x9cb9
	.long	0x9cd0
	.uleb128 0x11
	.long	.LASF1133
	.long	0x68e9
	.uleb128 0x30
	.string	"__a"
	.byte	0x7
	.value	0x13e
	.byte	0x2a
	.long	0x68f8
	.byte	0
	.uleb128 0x1d
	.long	0x9cac
	.long	.LASF1196
	.long	0x9cf3
	.quad	.LFB3125
	.quad	.LFE3125-.LFB3125
	.uleb128 0x1
	.byte	0x9c
	.long	0x9d04
	.uleb128 0x10
	.long	0x9cb9
	.uleb128 0x2
	.byte	0x91
	.sleb128 -24
	.uleb128 0x10
	.long	0x9cc2
	.uleb128 0x2
	.byte	0x91
	.sleb128 -32
	.byte	0
	.uleb128 0x15
	.long	0x109e
	.long	0x9d11
	.long	0x9d24
	.uleb128 0x11
	.long	.LASF1133
	.long	0x6853
	.uleb128 0x11
	.long	.LASF1197
	.long	0x120
	.byte	0
	.uleb128 0x31
	.long	0x9d04
	.long	.LASF1198
	.long	0x9d47
	.quad	.LFB3122
	.quad	.LFE3122-.LFB3122
	.uleb128 0x1
	.byte	0x9c
	.long	0x9d50
	.uleb128 0x10
	.long	0x9d11
	.uleb128 0x2
	.byte	0x91
	.sleb128 -24
	.byte	0
	.uleb128 0x15
	.long	0x1065
	.long	0x9d5d
	.long	0x9d67
	.uleb128 0x11
	.long	.LASF1133
	.long	0x6853
	.byte	0
	.uleb128 0x31
	.long	0x9d50
	.long	.LASF1199
	.long	0x9d8a
	.quad	.LFB3119
	.quad	.LFE3119-.LFB3119
	.uleb128 0x1
	.byte	0x9c
	.long	0x9d93
	.uleb128 0x10
	.long	0x9d5d
	.uleb128 0x2
	.byte	0x91
	.sleb128 -24
	.byte	0
	.uleb128 0x14
	.long	0x2ab9
	.long	0x9db2
	.quad	.LFB3117
	.quad	.LFE3117-.LFB3117
	.uleb128 0x1
	.byte	0x9c
	.long	0x9ddf
	.uleb128 0xe
	.long	.LASF1133
	.long	0x70e6
	.uleb128 0x2
	.byte	0x91
	.sleb128 -24
	.uleb128 0x16
	.string	"__p"
	.byte	0x7
	.value	0x17f
	.byte	0x1d
	.long	0x2825
	.uleb128 0x2
	.byte	0x91
	.sleb128 -32
	.uleb128 0x16
	.string	"__n"
	.byte	0x7
	.value	0x17f
	.byte	0x29
	.long	0x55c
	.uleb128 0x2
	.byte	0x91
	.sleb128 -40
	.byte	0
	.uleb128 0x15
	.long	0x24a7
	.long	0x9dec
	.long	0x9dff
	.uleb128 0x11
	.long	.LASF1133
	.long	0x7050
	.uleb128 0x11
	.long	.LASF1197
	.long	0x120
	.byte	0
	.uleb128 0x31
	.long	0x9ddf
	.long	.LASF1200
	.long	0x9e22
	.quad	.LFB3115
	.quad	.LFE3115-.LFB3115
	.uleb128 0x1
	.byte	0x9c
	.long	0x9e2b
	.uleb128 0x10
	.long	0x9dec
	.uleb128 0x2
	.byte	0x91
	.sleb128 -24
	.byte	0
	.uleb128 0x15
	.long	0x27ae
	.long	0x9e38
	.long	0x9e42
	.uleb128 0x11
	.long	.LASF1133
	.long	0x70af
	.byte	0
	.uleb128 0x31
	.long	0x9e2b
	.long	.LASF1201
	.long	0x9e65
	.quad	.LFB3112
	.quad	.LFE3112-.LFB3112
	.uleb128 0x1
	.byte	0x9c
	.long	0x9e6e
	.uleb128 0x10
	.long	0x9e38
	.uleb128 0x2
	.byte	0x91
	.sleb128 -24
	.byte	0
	.uleb128 0x15
	.long	0x25f6
	.long	0x9e7b
	.long	0x9e85
	.uleb128 0x11
	.long	.LASF1133
	.long	0x7087
	.byte	0
	.uleb128 0x1d
	.long	0x9e6e
	.long	.LASF1202
	.long	0x9ea8
	.quad	.LFB3109
	.quad	.LFE3109-.LFB3109
	.uleb128 0x1
	.byte	0x9c
	.long	0x9eb1
	.uleb128 0x10
	.long	0x9e7b
	.uleb128 0x2
	.byte	0x91
	.sleb128 -24
	.byte	0
	.uleb128 0x28
	.long	0x30af
	.long	0x9ed0
	.quad	.LFB3039
	.quad	.LFE3039-.LFB3039
	.uleb128 0x1
	.byte	0x9c
	.long	0x9edd
	.uleb128 0xe
	.long	.LASF1133
	.long	0x7131
	.uleb128 0x2
	.byte	0x91
	.sleb128 -24
	.byte	0
	.uleb128 0x14
	.long	0x6d33
	.long	0x9f19
	.quad	.LFB3036
	.quad	.LFE3036-.LFB3036
	.uleb128 0x1
	.byte	0x9c
	.long	0x9f47
	.uleb128 0x36
	.long	.LASF1105
	.byte	0xac
	.long	0x9f19
	.uleb128 0x1b
	.long	0x4c27
	.byte	0x2
	.uleb128 0x1b
	.long	0x4c27
	.byte	0x3
	.uleb128 0x1b
	.long	0x4c27
	.byte	0x37
	.byte	0
	.uleb128 0xe
	.long	.LASF1133
	.long	0x716d
	.uleb128 0x3
	.byte	0x91
	.sleb128 -120
	.uleb128 0x18
	.long	.LASF1203
	.byte	0x5
	.byte	0xad
	.byte	0x4b
	.long	0x7195
	.uleb128 0x3
	.byte	0x91
	.sleb128 -128
	.uleb128 0x2d
	.long	.LASF1204
	.byte	0x5
	.byte	0xaf
	.byte	0x12
	.long	0x172f
	.uleb128 0x3
	.byte	0x91
	.sleb128 -112
	.byte	0
	.uleb128 0x51
	.long	0x6fa4
	.long	0x57cf
	.long	0x9f6a
	.quad	.LFB3038
	.quad	.LFE3038-.LFB3038
	.uleb128 0x1
	.byte	0x9c
	.long	0x9f77
	.uleb128 0xe
	.long	.LASF1133
	.long	0x71a9
	.uleb128 0x2
	.byte	0x91
	.sleb128 -24
	.byte	0
	.uleb128 0x51
	.long	0x6f85
	.long	0x57cf
	.long	0x9f9a
	.quad	.LFB3037
	.quad	.LFE3037-.LFB3037
	.uleb128 0x1
	.byte	0x9c
	.long	0x9fa7
	.uleb128 0xe
	.long	.LASF1133
	.long	0x71a9
	.uleb128 0x2
	.byte	0x91
	.sleb128 -24
	.byte	0
	.uleb128 0x14
	.long	0x6fdc
	.long	0x9fc6
	.quad	.LFB3034
	.quad	.LFE3034-.LFB3034
	.uleb128 0x1
	.byte	0x9c
	.long	0xa0c4
	.uleb128 0xe
	.long	.LASF1133
	.long	0x7190
	.uleb128 0x2
	.byte	0x91
	.sleb128 -56
	.uleb128 0x2d
	.long	.LASF1205
	.byte	0x5
	.byte	0x88
	.byte	0x17
	.long	0x6b71
	.uleb128 0x2
	.byte	0x91
	.sleb128 -40
	.uleb128 0x77
	.byte	0x89
	.byte	0x43
	.uleb128 0x43
	.long	.LASF1206
	.long	.LASF1207
	.long	0x9ff5
	.long	0xa00a
	.uleb128 0x2
	.long	0x9ffa
	.uleb128 0xb
	.long	0x9fe1
	.uleb128 0x1
	.long	0xa004
	.uleb128 0x25
	.long	0x9fe1
	.byte	0
	.uleb128 0x43
	.long	.LASF1206
	.long	.LASF1208
	.long	0xa01b
	.long	0xa030
	.uleb128 0x2
	.long	0x9ffa
	.uleb128 0x1
	.long	0xa025
	.uleb128 0xd
	.long	0xa02a
	.uleb128 0x8
	.long	0x9fe1
	.byte	0
	.uleb128 0x78
	.long	.LASF1206
	.long	.LASF1219
	.long	0xa041
	.long	0xa047
	.uleb128 0x2
	.long	0x9ffa
	.byte	0
	.uleb128 0x43
	.long	.LASF1209
	.long	.LASF1210
	.long	0xa058
	.long	0xa063
	.uleb128 0x2
	.long	0x9ffa
	.uleb128 0x2
	.long	0x118
	.byte	0
	.uleb128 0xa
	.long	.LASF1211
	.byte	0x5
	.byte	0x8c
	.byte	0x21
	.long	0x9717
	.byte	0
	.uleb128 0x79
	.long	.LASF58
	.long	.LASF1222
	.long	0xa099
	.quad	.LFB3035
	.quad	.LFE3035-.LFB3035
	.uleb128 0x1
	.byte	0x9c
	.uleb128 0xb
	.long	0xa02a
	.uleb128 0x8
	.long	0xa08f
	.uleb128 0xe
	.long	.LASF1212
	.long	0xa094
	.uleb128 0x2
	.byte	0x91
	.sleb128 -40
	.uleb128 0x18
	.long	.LASF298
	.byte	0x5
	.byte	0x89
	.byte	0x4b
	.long	0x118
	.uleb128 0x2
	.byte	0x91
	.sleb128 -44
	.uleb128 0x7a
	.long	.LASF1205
	.long	0x9717
	.uleb128 0x3
	.byte	0x91
	.sleb128 -40
	.byte	0x6
	.byte	0
	.byte	0
	.byte	0
	.uleb128 0x14
	.long	0x6d6f
	.long	0xa100
	.quad	.LFB3022
	.quad	.LFE3022-.LFB3022
	.uleb128 0x1
	.byte	0x9c
	.long	0xa12e
	.uleb128 0x36
	.long	.LASF1105
	.byte	0x90
	.long	0xa100
	.uleb128 0x1b
	.long	0x4c27
	.byte	0x2
	.uleb128 0x1b
	.long	0x4c27
	.byte	0x3
	.uleb128 0x1b
	.long	0x4c27
	.byte	0x5
	.byte	0
	.uleb128 0xe
	.long	.LASF1133
	.long	0x716d
	.uleb128 0x3
	.byte	0x91
	.sleb128 -104
	.uleb128 0x18
	.long	.LASF1203
	.byte	0x5
	.byte	0x91
	.byte	0x4f
	.long	0x714a
	.uleb128 0x3
	.byte	0x91
	.sleb128 -112
	.uleb128 0x2d
	.long	.LASF1204
	.byte	0x5
	.byte	0x93
	.byte	0x12
	.long	0x172f
	.uleb128 0x3
	.byte	0x91
	.sleb128 -96
	.byte	0
	.uleb128 0x51
	.long	0x6ab3
	.long	0x57cf
	.long	0xa151
	.quad	.LFB3033
	.quad	.LFE3033-.LFB3033
	.uleb128 0x1
	.byte	0x9c
	.long	0xa15e
	.uleb128 0xe
	.long	.LASF1133
	.long	0x715e
	.uleb128 0x2
	.byte	0x91
	.sleb128 -24
	.byte	0
	.uleb128 0x51
	.long	0x6a94
	.long	0x57cf
	.long	0xa181
	.quad	.LFB3032
	.quad	.LFE3032-.LFB3032
	.uleb128 0x1
	.byte	0x9c
	.long	0xa18e
	.uleb128 0xe
	.long	.LASF1133
	.long	0x715e
	.uleb128 0x2
	.byte	0x91
	.sleb128 -24
	.byte	0
	.uleb128 0x15
	.long	0x1941
	.long	0xa19b
	.long	0xa1aa
	.uleb128 0x11
	.long	.LASF1133
	.long	0x690c
	.uleb128 0x1
	.long	0x6920
	.byte	0
	.uleb128 0x1d
	.long	0xa18e
	.long	.LASF1213
	.long	0xa1cd
	.quad	.LFB3027
	.quad	.LFE3027-.LFB3027
	.uleb128 0x1
	.byte	0x9c
	.long	0xa1de
	.uleb128 0x10
	.long	0xa19b
	.uleb128 0x2
	.byte	0x91
	.sleb128 -24
	.uleb128 0x10
	.long	0xa1a4
	.uleb128 0x2
	.byte	0x91
	.sleb128 -32
	.byte	0
	.uleb128 0x15
	.long	0x15e5
	.long	0xa1eb
	.long	0xa1fa
	.uleb128 0x11
	.long	.LASF1133
	.long	0x68e9
	.uleb128 0x1
	.long	0x68fd
	.byte	0
	.uleb128 0x1d
	.long	0xa1de
	.long	.LASF1214
	.long	0xa21d
	.quad	.LFB3025
	.quad	.LFE3025-.LFB3025
	.uleb128 0x1
	.byte	0x9c
	.long	0xa22e
	.uleb128 0x10
	.long	0xa1eb
	.uleb128 0x2
	.byte	0x91
	.sleb128 -24
	.uleb128 0x10
	.long	0xa1f4
	.uleb128 0x2
	.byte	0x91
	.sleb128 -32
	.byte	0
	.uleb128 0x15
	.long	0x143f
	.long	0xa23b
	.long	0xa245
	.uleb128 0x11
	.long	.LASF1133
	.long	0x68cb
	.byte	0
	.uleb128 0x1d
	.long	0xa22e
	.long	.LASF1215
	.long	0xa268
	.quad	.LFB3020
	.quad	.LFE3020-.LFB3020
	.uleb128 0x1
	.byte	0x9c
	.long	0xa271
	.uleb128 0x10
	.long	0xa23b
	.uleb128 0x2
	.byte	0x91
	.sleb128 -24
	.byte	0
	.uleb128 0x28
	.long	0x31be
	.long	0xa290
	.quad	.LFB3018
	.quad	.LFE3018-.LFB3018
	.uleb128 0x1
	.byte	0x9c
	.long	0xa2ad
	.uleb128 0xe
	.long	.LASF1133
	.long	0x7109
	.uleb128 0x2
	.byte	0x91
	.sleb128 -24
	.uleb128 0x16
	.string	"__n"
	.byte	0x7
	.value	0x461
	.byte	0x1c
	.long	0x2cda
	.uleb128 0x2
	.byte	0x91
	.sleb128 -32
	.byte	0
	.uleb128 0x28
	.long	0x1db5
	.long	0xa2cc
	.quad	.LFB3017
	.quad	.LFE3017-.LFB3017
	.uleb128 0x1
	.byte	0x9c
	.long	0xa2e9
	.uleb128 0xe
	.long	.LASF1133
	.long	0x690c
	.uleb128 0x2
	.byte	0x91
	.sleb128 -24
	.uleb128 0x16
	.string	"__n"
	.byte	0x7
	.value	0x461
	.byte	0x1c
	.long	0x18d1
	.uleb128 0x2
	.byte	0x91
	.sleb128 -32
	.byte	0
	.uleb128 0x14
	.long	0x6a32
	.long	0xa308
	.quad	.LFB3016
	.quad	.LFE3016-.LFB3016
	.uleb128 0x1
	.byte	0x9c
	.long	0xa315
	.uleb128 0xe
	.long	.LASF1133
	.long	0x715e
	.uleb128 0x2
	.byte	0x91
	.sleb128 -24
	.byte	0
	.uleb128 0x14
	.long	0x6a13
	.long	0xa334
	.quad	.LFB3015
	.quad	.LFE3015-.LFB3015
	.uleb128 0x1
	.byte	0x9c
	.long	0xa341
	.uleb128 0xe
	.long	.LASF1133
	.long	0x715e
	.uleb128 0x2
	.byte	0x91
	.sleb128 -24
	.byte	0
	.uleb128 0x28
	.long	0x1ca6
	.long	0xa360
	.quad	.LFB3014
	.quad	.LFE3014-.LFB3014
	.uleb128 0x1
	.byte	0x9c
	.long	0xa36d
	.uleb128 0xe
	.long	.LASF1133
	.long	0x6934
	.uleb128 0x2
	.byte	0x91
	.sleb128 -24
	.byte	0
	.uleb128 0xf
	.long	0x45b5
	.quad	.LFB3013
	.quad	.LFE3013-.LFB3013
	.uleb128 0x1
	.byte	0x9c
	.long	0xa3c3
	.uleb128 0x4
	.long	.LASF132
	.long	0x685d
	.uleb128 0x7
	.string	"_Tp"
	.long	0x4c27
	.uleb128 0x5
	.long	.LASF1145
	.byte	0x9
	.value	0x34f
	.byte	0x1f
	.long	0x685d
	.uleb128 0x2
	.byte	0x91
	.sleb128 -24
	.uleb128 0x5
	.long	.LASF1146
	.byte	0x9
	.value	0x34f
	.byte	0x39
	.long	0x685d
	.uleb128 0x2
	.byte	0x91
	.sleb128 -32
	.uleb128 0x24
	.long	0x6894
	.uleb128 0x2
	.byte	0x91
	.sleb128 -40
	.byte	0
	.uleb128 0x28
	.long	0x1504
	.long	0xa3e2
	.quad	.LFB3012
	.quad	.LFE3012-.LFB3012
	.uleb128 0x1
	.byte	0x9c
	.long	0xa3ef
	.uleb128 0xe
	.long	.LASF1133
	.long	0x68e9
	.uleb128 0x2
	.byte	0x91
	.sleb128 -24
	.byte	0
	.uleb128 0x15
	.long	0x1667
	.long	0xa3fc
	.long	0xa40f
	.uleb128 0x11
	.long	.LASF1133
	.long	0x68e9
	.uleb128 0x11
	.long	.LASF1197
	.long	0x120
	.byte	0
	.uleb128 0x1d
	.long	0xa3ef
	.long	.LASF1216
	.long	0xa432
	.quad	.LFB3010
	.quad	.LFE3010-.LFB3010
	.uleb128 0x1
	.byte	0x9c
	.long	0xa43b
	.uleb128 0x10
	.long	0xa3fc
	.uleb128 0x2
	.byte	0x91
	.sleb128 -24
	.byte	0
	.uleb128 0xf
	.long	0x45e8
	.quad	.LFB3008
	.quad	.LFE3008-.LFB3008
	.uleb128 0x1
	.byte	0x9c
	.long	0xa491
	.uleb128 0x4
	.long	.LASF132
	.long	0x705a
	.uleb128 0x7
	.string	"_Tp"
	.long	0x3f
	.uleb128 0x5
	.long	.LASF1145
	.byte	0x9
	.value	0x34f
	.byte	0x1f
	.long	0x705a
	.uleb128 0x2
	.byte	0x91
	.sleb128 -24
	.uleb128 0x5
	.long	.LASF1146
	.byte	0x9
	.value	0x34f
	.byte	0x39
	.long	0x705a
	.uleb128 0x2
	.byte	0x91
	.sleb128 -32
	.uleb128 0x24
	.long	0x7091
	.uleb128 0x2
	.byte	0x91
	.sleb128 -40
	.byte	0
	.uleb128 0x28
	.long	0x290d
	.long	0xa4b0
	.quad	.LFB3007
	.quad	.LFE3007-.LFB3007
	.uleb128 0x1
	.byte	0x9c
	.long	0xa4bd
	.uleb128 0xe
	.long	.LASF1133
	.long	0x70e6
	.uleb128 0x2
	.byte	0x91
	.sleb128 -24
	.byte	0
	.uleb128 0x14
	.long	0x6aeb
	.long	0xa4dc
	.quad	.LFB3005
	.quad	.LFE3005-.LFB3005
	.uleb128 0x1
	.byte	0x9c
	.long	0xa5da
	.uleb128 0xe
	.long	.LASF1133
	.long	0x7145
	.uleb128 0x2
	.byte	0x91
	.sleb128 -56
	.uleb128 0x2d
	.long	.LASF1205
	.byte	0x5
	.byte	0x88
	.byte	0x17
	.long	0x6b71
	.uleb128 0x2
	.byte	0x91
	.sleb128 -40
	.uleb128 0x77
	.byte	0x89
	.byte	0x43
	.uleb128 0x43
	.long	.LASF1206
	.long	.LASF1217
	.long	0xa50b
	.long	0xa520
	.uleb128 0x2
	.long	0xa510
	.uleb128 0xb
	.long	0xa4f7
	.uleb128 0x1
	.long	0xa51a
	.uleb128 0x25
	.long	0xa4f7
	.byte	0
	.uleb128 0x43
	.long	.LASF1206
	.long	.LASF1218
	.long	0xa531
	.long	0xa546
	.uleb128 0x2
	.long	0xa510
	.uleb128 0x1
	.long	0xa53b
	.uleb128 0xd
	.long	0xa540
	.uleb128 0x8
	.long	0xa4f7
	.byte	0
	.uleb128 0x78
	.long	.LASF1206
	.long	.LASF1220
	.long	0xa557
	.long	0xa55d
	.uleb128 0x2
	.long	0xa510
	.byte	0
	.uleb128 0x43
	.long	.LASF1209
	.long	.LASF1221
	.long	0xa56e
	.long	0xa579
	.uleb128 0x2
	.long	0xa510
	.uleb128 0x2
	.long	0x118
	.byte	0
	.uleb128 0xa
	.long	.LASF1211
	.byte	0x5
	.byte	0x8c
	.byte	0x21
	.long	0x9717
	.byte	0
	.uleb128 0x79
	.long	.LASF58
	.long	.LASF1223
	.long	0xa5af
	.quad	.LFB3006
	.quad	.LFE3006-.LFB3006
	.uleb128 0x1
	.byte	0x9c
	.uleb128 0xb
	.long	0xa540
	.uleb128 0x8
	.long	0xa5a5
	.uleb128 0xe
	.long	.LASF1212
	.long	0xa5aa
	.uleb128 0x2
	.byte	0x91
	.sleb128 -40
	.uleb128 0x18
	.long	.LASF298
	.byte	0x5
	.byte	0x89
	.byte	0x4b
	.long	0x118
	.uleb128 0x2
	.byte	0x91
	.sleb128 -44
	.uleb128 0x7a
	.long	.LASF1205
	.long	0x9717
	.uleb128 0x3
	.byte	0x91
	.sleb128 -40
	.byte	0x6
	.byte	0
	.byte	0
	.byte	0
	.uleb128 0x15
	.long	0x19fc
	.long	0xa5e7
	.long	0xa60b
	.uleb128 0x11
	.long	.LASF1133
	.long	0x690c
	.uleb128 0x30
	.string	"__l"
	.byte	0x7
	.value	0x2a1
	.byte	0x2b
	.long	0x2364
	.uleb128 0x30
	.string	"__a"
	.byte	0x7
	.value	0x2a2
	.byte	0x1d
	.long	0x6911
	.byte	0
	.uleb128 0x1d
	.long	0xa5da
	.long	.LASF1224
	.long	0xa62e
	.quad	.LFB3003
	.quad	.LFE3003-.LFB3003
	.uleb128 0x1
	.byte	0x9c
	.long	0xa648
	.uleb128 0x10
	.long	0xa5e7
	.uleb128 0x2
	.byte	0x91
	.sleb128 -56
	.uleb128 0x10
	.long	0xa5f0
	.uleb128 0x3
	.byte	0x91
	.sleb128 -80
	.uleb128 0x10
	.long	0xa5fd
	.uleb128 0x2
	.byte	0x91
	.sleb128 -64
	.byte	0
	.uleb128 0x15
	.long	0x1249
	.long	0xa655
	.long	0xa668
	.uleb128 0x11
	.long	.LASF1133
	.long	0x688a
	.uleb128 0x11
	.long	.LASF1197
	.long	0x120
	.byte	0
	.uleb128 0x1d
	.long	0xa648
	.long	.LASF1225
	.long	0xa68b
	.quad	.LFB3000
	.quad	.LFE3000-.LFB3000
	.uleb128 0x1
	.byte	0x9c
	.long	0xa694
	.uleb128 0x10
	.long	0xa655
	.uleb128 0x2
	.byte	0x91
	.sleb128 -24
	.byte	0
	.uleb128 0x15
	.long	0x11ed
	.long	0xa6a1
	.long	0xa6ab
	.uleb128 0x11
	.long	.LASF1133
	.long	0x688a
	.byte	0
	.uleb128 0x1d
	.long	0xa694
	.long	.LASF1226
	.long	0xa6ce
	.quad	.LFB2997
	.quad	.LFE2997-.LFB2997
	.uleb128 0x1
	.byte	0x9c
	.long	0xa6d7
	.uleb128 0x10
	.long	0xa6a1
	.uleb128 0x2
	.byte	0x91
	.sleb128 -24
	.byte	0
	.uleb128 0x15
	.long	0x2a70
	.long	0xa6e4
	.long	0xa6f7
	.uleb128 0x11
	.long	.LASF1133
	.long	0x70e6
	.uleb128 0x11
	.long	.LASF1197
	.long	0x120
	.byte	0
	.uleb128 0x1d
	.long	0xa6d7
	.long	.LASF1227
	.long	0xa71a
	.quad	.LFB2994
	.quad	.LFE2994-.LFB2994
	.uleb128 0x1
	.byte	0x9c
	.long	0xa723
	.uleb128 0x10
	.long	0xa6e4
	.uleb128 0x2
	.byte	0x91
	.sleb128 -24
	.byte	0
	.uleb128 0x15
	.long	0x2652
	.long	0xa730
	.long	0xa743
	.uleb128 0x11
	.long	.LASF1133
	.long	0x7087
	.uleb128 0x11
	.long	.LASF1197
	.long	0x120
	.byte	0
	.uleb128 0x1d
	.long	0xa723
	.long	.LASF1228
	.long	0xa766
	.quad	.LFB2991
	.quad	.LFE2991-.LFB2991
	.uleb128 0x1
	.byte	0x9c
	.long	0xa76f
	.uleb128 0x10
	.long	0xa730
	.uleb128 0x2
	.byte	0x91
	.sleb128 -24
	.byte	0
	.uleb128 0x15
	.long	0x2848
	.long	0xa77c
	.long	0xa786
	.uleb128 0x11
	.long	.LASF1133
	.long	0x70c8
	.byte	0
	.uleb128 0x1d
	.long	0xa76f
	.long	.LASF1229
	.long	0xa7a9
	.quad	.LFB2988
	.quad	.LFE2988-.LFB2988
	.uleb128 0x1
	.byte	0x9c
	.long	0xa7b2
	.uleb128 0x10
	.long	0xa77c
	.uleb128 0x2
	.byte	0x91
	.sleb128 -24
	.byte	0
	.uleb128 0xa7
	.long	0x461b
	.long	0xa7e1
	.uleb128 0x4
	.long	.LASF376
	.long	0x879
	.uleb128 0xa8
	.long	.LASF1230
	.byte	0x2a
	.value	0x20b
	.byte	0x2e
	.long	0x66de
	.uleb128 0x30
	.string	"__c"
	.byte	0x2a
	.value	0x20b
	.byte	0x3a
	.long	0x10c
	.byte	0
	.uleb128 0xd
	.long	0xf1e
	.uleb128 0xb
	.long	0xf15
	.uleb128 0x8
	.long	0xa7e6
	.uleb128 0xa9
	.long	0xf2a
	.long	0xa7fe
	.long	0xa814
	.uleb128 0x11
	.long	.LASF1133
	.long	0xa7eb
	.uleb128 0x45
	.string	"__n"
	.byte	0x2a
	.byte	0xa6
	.byte	0x17
	.long	0x4c27
	.byte	0
	.uleb128 0x14
	.long	0x6c60
	.long	0xa833
	.quad	.LFB2880
	.quad	.LFE2880-.LFB2880
	.uleb128 0x1
	.byte	0x9c
	.long	0xa840
	.uleb128 0xe
	.long	.LASF1133
	.long	0x7186
	.uleb128 0x2
	.byte	0x91
	.sleb128 -24
	.byte	0
	.uleb128 0x14
	.long	0x6dab
	.long	0xa87c
	.quad	.LFB2879
	.quad	.LFE2879-.LFB2879
	.uleb128 0x1
	.byte	0x9c
	.long	0xa898
	.uleb128 0x36
	.long	.LASF1105
	.byte	0x3a
	.long	0xa87c
	.uleb128 0x1b
	.long	0x4c27
	.byte	0x2
	.uleb128 0x1b
	.long	0x4c27
	.byte	0x3
	.uleb128 0x1b
	.long	0x4c27
	.byte	0x37
	.byte	0
	.uleb128 0xe
	.long	.LASF1133
	.long	0x716d
	.uleb128 0x2
	.byte	0x91
	.sleb128 -24
	.uleb128 0x18
	.long	.LASF1203
	.byte	0x5
	.byte	0x3b
	.byte	0x41
	.long	0x7195
	.uleb128 0x2
	.byte	0x91
	.sleb128 -32
	.byte	0
	.uleb128 0x15
	.long	0x6e4d
	.long	0xa8a5
	.long	0xa8af
	.uleb128 0x11
	.long	.LASF1133
	.long	0x7190
	.byte	0
	.uleb128 0x1d
	.long	0xa898
	.long	.LASF1231
	.long	0xa8d2
	.quad	.LFB2877
	.quad	.LFE2877-.LFB2877
	.uleb128 0x1
	.byte	0x9c
	.long	0xa8dc
	.uleb128 0x10
	.long	0xa8a5
	.uleb128 0x3
	.byte	0x91
	.sleb128 -88
	.byte	0
	.uleb128 0x15
	.long	0x6dec
	.long	0xa906
	.long	0xa91d
	.uleb128 0x36
	.long	.LASF1105
	.byte	0x2a
	.long	0xa906
	.uleb128 0x1b
	.long	0x4c27
	.byte	0x2
	.uleb128 0x1b
	.long	0x4c27
	.byte	0x3
	.uleb128 0x1b
	.long	0x4c27
	.byte	0x5
	.byte	0
	.uleb128 0x11
	.long	.LASF1133
	.long	0x716d
	.uleb128 0xaa
	.long	.LASF1203
	.byte	0x5
	.byte	0x2b
	.byte	0x36
	.long	0x714a
	.byte	0
	.uleb128 0x1d
	.long	0xa8dc
	.long	.LASF1232
	.long	0xa95d
	.quad	.LFB2874
	.quad	.LFE2874-.LFB2874
	.uleb128 0x1
	.byte	0x9c
	.long	0xa96e
	.uleb128 0x36
	.long	.LASF1105
	.byte	0x2a
	.long	0xa95d
	.uleb128 0x1b
	.long	0x4c27
	.byte	0x2
	.uleb128 0x1b
	.long	0x4c27
	.byte	0x3
	.uleb128 0x1b
	.long	0x4c27
	.byte	0x5
	.byte	0
	.uleb128 0x10
	.long	0xa906
	.uleb128 0x2
	.byte	0x91
	.sleb128 -40
	.uleb128 0x10
	.long	0xa90f
	.uleb128 0x2
	.byte	0x91
	.sleb128 -48
	.byte	0
	.uleb128 0x15
	.long	0x1862
	.long	0xa97b
	.long	0xa985
	.uleb128 0x11
	.long	.LASF1133
	.long	0x690c
	.byte	0
	.uleb128 0x1d
	.long	0xa96e
	.long	.LASF1233
	.long	0xa9a8
	.quad	.LFB2872
	.quad	.LFE2872-.LFB2872
	.uleb128 0x1
	.byte	0x9c
	.long	0xa9b1
	.uleb128 0x10
	.long	0xa97b
	.uleb128 0x2
	.byte	0x91
	.sleb128 -24
	.byte	0
	.uleb128 0x15
	.long	0x156d
	.long	0xa9be
	.long	0xa9c8
	.uleb128 0x11
	.long	.LASF1133
	.long	0x68e9
	.byte	0
	.uleb128 0x1d
	.long	0xa9b1
	.long	.LASF1234
	.long	0xa9eb
	.quad	.LFB2870
	.quad	.LFE2870-.LFB2870
	.uleb128 0x1
	.byte	0x9c
	.long	0xa9f4
	.uleb128 0x10
	.long	0xa9be
	.uleb128 0x2
	.byte	0x91
	.sleb128 -24
	.byte	0
	.uleb128 0x7b
	.long	0x14da
	.byte	0x85
	.long	0xaa02
	.long	0xaa15
	.uleb128 0x11
	.long	.LASF1133
	.long	0x68cb
	.uleb128 0x11
	.long	.LASF1197
	.long	0x120
	.byte	0
	.uleb128 0x1d
	.long	0xa9f4
	.long	.LASF1235
	.long	0xaa38
	.quad	.LFB2868
	.quad	.LFE2868-.LFB2868
	.uleb128 0x1
	.byte	0x9c
	.long	0xaa41
	.uleb128 0x10
	.long	0xaa02
	.uleb128 0x2
	.byte	0x91
	.sleb128 -24
	.byte	0
	.uleb128 0x14
	.long	0x6b05
	.long	0xaa77
	.quad	.LFB2862
	.quad	.LFE2862-.LFB2862
	.uleb128 0x1
	.byte	0x9c
	.long	0xaaf8
	.uleb128 0x6f
	.string	"T"
	.long	0xaa77
	.uleb128 0x42
	.long	0x118
	.uleb128 0x42
	.long	0x118
	.uleb128 0x42
	.long	0x118
	.byte	0
	.uleb128 0xe
	.long	.LASF1133
	.long	0x7145
	.uleb128 0x3
	.byte	0x91
	.sleb128 -152
	.uleb128 0xab
	.byte	0x5
	.byte	0x6b
	.byte	0x20
	.long	0xaaa9
	.uleb128 0x24
	.long	0x118
	.uleb128 0x3
	.byte	0x91
	.sleb128 -156
	.uleb128 0x24
	.long	0x118
	.uleb128 0x3
	.byte	0x91
	.sleb128 -160
	.uleb128 0x24
	.long	0x118
	.uleb128 0x3
	.byte	0x91
	.sleb128 -164
	.byte	0
	.uleb128 0x2d
	.long	.LASF1236
	.byte	0x5
	.byte	0x6d
	.byte	0x24
	.long	0x172f
	.uleb128 0x3
	.byte	0x91
	.sleb128 -144
	.uleb128 0x2d
	.long	.LASF1237
	.byte	0x5
	.byte	0x6e
	.byte	0x17
	.long	0x6b71
	.uleb128 0x3
	.byte	0x91
	.sleb128 -80
	.uleb128 0x2d
	.long	.LASF1238
	.byte	0x5
	.byte	0x73
	.byte	0x17
	.long	0x6b71
	.uleb128 0x2
	.byte	0x91
	.sleb128 -56
	.uleb128 0x2d
	.long	.LASF1205
	.byte	0x5
	.byte	0x74
	.byte	0x17
	.long	0x6b71
	.uleb128 0x2
	.byte	0x91
	.sleb128 -64
	.uleb128 0x2d
	.long	.LASF1239
	.byte	0x5
	.byte	0x75
	.byte	0x17
	.long	0x6b71
	.uleb128 0x3
	.byte	0x91
	.sleb128 -72
	.byte	0
	.uleb128 0x15
	.long	0x1a22
	.long	0xab05
	.long	0xab18
	.uleb128 0x11
	.long	.LASF1133
	.long	0x690c
	.uleb128 0x11
	.long	.LASF1197
	.long	0x120
	.byte	0
	.uleb128 0x1d
	.long	0xaaf8
	.long	.LASF1240
	.long	0xab3b
	.quad	.LFB2860
	.quad	.LFE2860-.LFB2860
	.uleb128 0x1
	.byte	0x9c
	.long	0xab44
	.uleb128 0x10
	.long	0xab05
	.uleb128 0x2
	.byte	0x91
	.sleb128 -24
	.byte	0
	.uleb128 0x15
	.long	0x2e2b
	.long	0xab51
	.long	0xab64
	.uleb128 0x11
	.long	.LASF1133
	.long	0x7109
	.uleb128 0x11
	.long	.LASF1197
	.long	0x120
	.byte	0
	.uleb128 0x1d
	.long	0xab44
	.long	.LASF1241
	.long	0xab87
	.quad	.LFB2857
	.quad	.LFE2857-.LFB2857
	.uleb128 0x1
	.byte	0x9c
	.long	0xab90
	.uleb128 0x10
	.long	0xab51
	.uleb128 0x2
	.byte	0x91
	.sleb128 -24
	.byte	0
	.uleb128 0x15
	.long	0x695c
	.long	0xab9d
	.long	0xaba7
	.uleb128 0x11
	.long	.LASF1133
	.long	0x7145
	.byte	0
	.uleb128 0x1d
	.long	0xab90
	.long	.LASF1242
	.long	0xabca
	.quad	.LFB2854
	.quad	.LFE2854-.LFB2854
	.uleb128 0x1
	.byte	0x9c
	.long	0xabd4
	.uleb128 0x10
	.long	0xab9d
	.uleb128 0x3
	.byte	0x91
	.sleb128 -88
	.byte	0
	.uleb128 0x15
	.long	0x2c6b
	.long	0xabe1
	.long	0xabeb
	.uleb128 0x11
	.long	.LASF1133
	.long	0x7109
	.byte	0
	.uleb128 0x1d
	.long	0xabd4
	.long	.LASF1243
	.long	0xac0e
	.quad	.LFB2852
	.quad	.LFE2852-.LFB2852
	.uleb128 0x1
	.byte	0x9c
	.long	0xac17
	.uleb128 0x10
	.long	0xabe1
	.uleb128 0x2
	.byte	0x91
	.sleb128 -24
	.byte	0
	.uleb128 0x15
	.long	0x2976
	.long	0xac24
	.long	0xac2e
	.uleb128 0x11
	.long	.LASF1133
	.long	0x70e6
	.byte	0
	.uleb128 0x1d
	.long	0xac17
	.long	.LASF1244
	.long	0xac51
	.quad	.LFB2850
	.quad	.LFE2850-.LFB2850
	.uleb128 0x1
	.byte	0x9c
	.long	0xac5a
	.uleb128 0x10
	.long	0xac24
	.uleb128 0x2
	.byte	0x91
	.sleb128 -24
	.byte	0
	.uleb128 0x7b
	.long	0x28e3
	.byte	0x85
	.long	0xac68
	.long	0xac7b
	.uleb128 0x11
	.long	.LASF1133
	.long	0x70c8
	.uleb128 0x11
	.long	.LASF1197
	.long	0x120
	.byte	0
	.uleb128 0x1d
	.long	0xac5a
	.long	.LASF1245
	.long	0xac9e
	.quad	.LFB2848
	.quad	.LFE2848-.LFB2848
	.uleb128 0x1
	.byte	0x9c
	.long	0xaca7
	.uleb128 0x10
	.long	0xac68
	.uleb128 0x2
	.byte	0x91
	.sleb128 -24
	.byte	0
	.uleb128 0xac
	.long	.LASF1246
	.byte	0x6
	.byte	0x8
	.byte	0x5
	.long	0x118
	.quad	.LFB2570
	.quad	.LFE2570-.LFB2570
	.uleb128 0x1
	.byte	0x9c
	.long	0xad15
	.uleb128 0x18
	.long	.LASF1247
	.byte	0x6
	.byte	0x8
	.byte	0xe
	.long	0x118
	.uleb128 0x3
	.byte	0x91
	.sleb128 -180
	.uleb128 0x18
	.long	.LASF1248
	.byte	0x6
	.byte	0x8
	.byte	0x1b
	.long	0x61fa
	.uleb128 0x3
	.byte	0x91
	.sleb128 -192
	.uleb128 0x58
	.string	"t1"
	.byte	0xa
	.byte	0x1d
	.long	0x694f
	.uleb128 0x3
	.byte	0x91
	.sleb128 -80
	.uleb128 0x58
	.string	"t2"
	.byte	0xc
	.byte	0x14
	.long	0x6b7d
	.uleb128 0x3
	.byte	0x91
	.sleb128 -128
	.uleb128 0x58
	.string	"t3"
	.byte	0xe
	.byte	0x1e
	.long	0x6e40
	.uleb128 0x3
	.byte	0x91
	.sleb128 -176
	.byte	0
	.uleb128 0x15
	.long	0x6ee7
	.long	0xad22
	.long	0xad35
	.uleb128 0x11
	.long	.LASF1133
	.long	0x7190
	.uleb128 0x11
	.long	.LASF1197
	.long	0x120
	.byte	0
	.uleb128 0x1d
	.long	0xad15
	.long	.LASF1249
	.long	0xad58
	.quad	.LFB2578
	.quad	.LFE2578-.LFB2578
	.uleb128 0x1
	.byte	0x9c
	.long	0xad61
	.uleb128 0x10
	.long	0xad22
	.uleb128 0x2
	.byte	0x91
	.sleb128 -24
	.byte	0
	.uleb128 0x15
	.long	0x6c24
	.long	0xad6e
	.long	0xad81
	.uleb128 0x11
	.long	.LASF1133
	.long	0x716d
	.uleb128 0x11
	.long	.LASF1197
	.long	0x120
	.byte	0
	.uleb128 0x1d
	.long	0xad61
	.long	.LASF1250
	.long	0xada4
	.quad	.LFB2575
	.quad	.LFE2575-.LFB2575
	.uleb128 0x1
	.byte	0x9c
	.long	0xadad
	.uleb128 0x10
	.long	0xad6e
	.uleb128 0x2
	.byte	0x91
	.sleb128 -24
	.byte	0
	.uleb128 0x15
	.long	0x69f6
	.long	0xadba
	.long	0xadcd
	.uleb128 0x11
	.long	.LASF1133
	.long	0x7145
	.uleb128 0x11
	.long	.LASF1197
	.long	0x120
	.byte	0
	.uleb128 0x1d
	.long	0xadad
	.long	.LASF1251
	.long	0xadf0
	.quad	.LFB2572
	.quad	.LFE2572-.LFB2572
	.uleb128 0x1
	.byte	0x9c
	.long	0xadf9
	.uleb128 0x10
	.long	0xadba
	.uleb128 0x2
	.byte	0x91
	.sleb128 -24
	.byte	0
	.uleb128 0xf
	.long	0x7025
	.quad	.LFB1754
	.quad	.LFE1754-.LFB1754
	.uleb128 0x1
	.byte	0x9c
	.long	0xae33
	.uleb128 0x18
	.long	.LASF1252
	.byte	0x4
	.byte	0x18
	.byte	0x29
	.long	0x6b71
	.uleb128 0x2
	.byte	0x91
	.sleb128 -40
	.uleb128 0x18
	.long	.LASF1253
	.byte	0x4
	.byte	0x19
	.byte	0x29
	.long	0x6b71
	.uleb128 0x2
	.byte	0x91
	.sleb128 -48
	.byte	0
	.uleb128 0x28
	.long	0x5f5
	.long	0xae52
	.quad	.LFB907
	.quad	.LFE907-.LFB907
	.uleb128 0x1
	.byte	0x9c
	.long	0xae5f
	.uleb128 0xe
	.long	.LASF1133
	.long	0x5b1c
	.uleb128 0x2
	.byte	0x91
	.sleb128 -24
	.byte	0
	.uleb128 0x26
	.long	0x4644
	.quad	.LFB652
	.quad	.LFE652-.LFB652
	.uleb128 0x1
	.byte	0x9c
	.long	0xae8b
	.uleb128 0x16
	.string	"__n"
	.byte	0x2
	.value	0x3f1
	.byte	0x23
	.long	0x5e
	.uleb128 0x2
	.byte	0x91
	.sleb128 -24
	.byte	0
	.uleb128 0xad
	.long	.LASF1137
	.byte	0x1
	.byte	0xae
	.byte	0x21
	.long	.LASF1254
	.long	0xa6
	.quad	.LFB40
	.quad	.LFE40-.LFB40
	.uleb128 0x1
	.byte	0x9c
	.long	0xaeca
	.uleb128 0x24
	.long	0x55c
	.uleb128 0x2
	.byte	0x91
	.sleb128 -24
	.uleb128 0x29
	.string	"__p"
	.byte	0x1
	.byte	0xae
	.byte	0x41
	.long	0xa6
	.uleb128 0x2
	.byte	0x91
	.sleb128 -32
	.byte	0
	.uleb128 0x27
	.byte	0x10
	.byte	0x5
	.long	.LASF1255
	.uleb128 0x27
	.byte	0x10
	.byte	0x7
	.long	.LASF1256
	.byte	0
	.section	.debug_abbrev,"",@progbits
.Ldebug_abbrev0:
	.uleb128 0x1
	.uleb128 0x5
	.byte	0
	.uleb128 0x49
	.uleb128 0x13
	.byte	0
	.byte	0
	.uleb128 0x2
	.uleb128 0x5
	.byte	0
	.uleb128 0x49
	.uleb128 0x13
	.uleb128 0x34
	.uleb128 0x19
	.byte	0
	.byte	0
	.uleb128 0x3
	.uleb128 0x8
	.byte	0
	.uleb128 0x3a
	.uleb128 0xb
	.uleb128 0x3b
	.uleb128 0xb
	.uleb128 0x39
	.uleb128 0xb
	.uleb128 0x18
	.uleb128 0x13
	.byte	0
	.byte	0
	.uleb128 0x4
	.uleb128 0x2f
	.byte	0
	.uleb128 0x3
	.uleb128 0xe
	.uleb128 0x49
	.uleb128 0x13
	.byte	0
	.byte	0
	.uleb128 0x5
	.uleb128 0x5
	.byte	0
	.uleb128 0x3
	.uleb128 0xe
	.uleb128 0x3a
	.uleb128 0xb
	.uleb128 0x3b
	.uleb128 0x5
	.uleb128 0x39
	.uleb128 0xb
	.uleb128 0x49
	.uleb128 0x13
	.uleb128 0x2
	.uleb128 0x18
	.byte	0
	.byte	0
	.uleb128 0x6
	.uleb128 0x2e
	.byte	0x1
	.uleb128 0x3f
	.uleb128 0x19
	.uleb128 0x3
	.uleb128 0xe
	.uleb128 0x3a
	.uleb128 0xb
	.uleb128 0x3b
	.uleb128 0x5
	.uleb128 0x39
	.uleb128 0xb
	.uleb128 0x6e
	.uleb128 0xe
	.uleb128 0x49
	.uleb128 0x13
	.uleb128 0x32
	.uleb128 0xb
	.uleb128 0x3c
	.uleb128 0x19
	.uleb128 0x64
	.uleb128 0x13
	.uleb128 0x1
	.uleb128 0x13
	.byte	0
	.byte	0
	.uleb128 0x7
	.uleb128 0x2f
	.byte	0
	.uleb128 0x3
	.uleb128 0x8
	.uleb128 0x49
	.uleb128 0x13
	.byte	0
	.byte	0
	.uleb128 0x8
	.uleb128 0x26
	.byte	0
	.uleb128 0x49
	.uleb128 0x13
	.byte	0
	.byte	0
	.uleb128 0x9
	.uleb128 0x16
	.byte	0
	.uleb128 0x3
	.uleb128 0xe
	.uleb128 0x3a
	.uleb128 0xb
	.uleb128 0x3b
	.uleb128 0xb
	.uleb128 0x39
	.uleb128 0xb
	.uleb128 0x49
	.uleb128 0x13
	.byte	0
	.byte	0
	.uleb128 0xa
	.uleb128 0xd
	.byte	0
	.uleb128 0x3
	.uleb128 0xe
	.uleb128 0x3a
	.uleb128 0xb
	.uleb128 0x3b
	.uleb128 0xb
	.uleb128 0x39
	.uleb128 0xb
	.uleb128 0x49
	.uleb128 0x13
	.uleb128 0x38
	.uleb128 0xb
	.byte	0
	.byte	0
	.uleb128 0xb
	.uleb128 0xf
	.byte	0
	.uleb128 0xb
	.uleb128 0x21
	.sleb128 8
	.uleb128 0x49
	.uleb128 0x13
	.byte	0
	.byte	0
	.uleb128 0xc
	.uleb128 0x2e
	.byte	0x1
	.uleb128 0x3f
	.uleb128 0x19
	.uleb128 0x3
	.uleb128 0xe
	.uleb128 0x3a
	.uleb128 0xb
	.uleb128 0x3b
	.uleb128 0x5
	.uleb128 0x39
	.uleb128 0xb
	.uleb128 0x6e
	.uleb128 0xe
	.uleb128 0x49
	.uleb128 0x13
	.uleb128 0x3c
	.uleb128 0x19
	.uleb128 0x1
	.uleb128 0x13
	.byte	0
	.byte	0
	.uleb128 0xd
	.uleb128 0x10
	.byte	0
	.uleb128 0xb
	.uleb128 0x21
	.sleb128 8
	.uleb128 0x49
	.uleb128 0x13
	.byte	0
	.byte	0
	.uleb128 0xe
	.uleb128 0x5
	.byte	0
	.uleb128 0x3
	.uleb128 0xe
	.uleb128 0x49
	.uleb128 0x13
	.uleb128 0x34
	.uleb128 0x19
	.uleb128 0x2
	.uleb128 0x18
	.byte	0
	.byte	0
	.uleb128 0xf
	.uleb128 0x2e
	.byte	0x1
	.uleb128 0x47
	.uleb128 0x13
	.uleb128 0x11
	.uleb128 0x1
	.uleb128 0x12
	.uleb128 0x7
	.uleb128 0x40
	.uleb128 0x18
	.uleb128 0x7c
	.uleb128 0x19
	.uleb128 0x1
	.uleb128 0x13
	.byte	0
	.byte	0
	.uleb128 0x10
	.uleb128 0x5
	.byte	0
	.uleb128 0x31
	.uleb128 0x13
	.uleb128 0x2
	.uleb128 0x18
	.byte	0
	.byte	0
	.uleb128 0x11
	.uleb128 0x5
	.byte	0
	.uleb128 0x3
	.uleb128 0xe
	.uleb128 0x49
	.uleb128 0x13
	.uleb128 0x34
	.uleb128 0x19
	.byte	0
	.byte	0
	.uleb128 0x12
	.uleb128 0x2e
	.byte	0x1
	.uleb128 0x3f
	.uleb128 0x19
	.uleb128 0x3
	.uleb128 0xe
	.uleb128 0x3a
	.uleb128 0xb
	.uleb128 0x3b
	.uleb128 0x5
	.uleb128 0x39
	.uleb128 0xb
	.uleb128 0x49
	.uleb128 0x13
	.uleb128 0x3c
	.uleb128 0x19
	.uleb128 0x1
	.uleb128 0x13
	.byte	0
	.byte	0
	.uleb128 0x13
	.uleb128 0x2e
	.byte	0x1
	.uleb128 0x3f
	.uleb128 0x19
	.uleb128 0x3
	.uleb128 0xe
	.uleb128 0x3a
	.uleb128 0xb
	.uleb128 0x3b
	.uleb128 0x5
	.uleb128 0x39
	.uleb128 0xb
	.uleb128 0x6e
	.uleb128 0xe
	.uleb128 0x32
	.uleb128 0xb
	.uleb128 0x3c
	.uleb128 0x19
	.uleb128 0x64
	.uleb128 0x13
	.uleb128 0x1
	.uleb128 0x13
	.byte	0
	.byte	0
	.uleb128 0x14
	.uleb128 0x2e
	.byte	0x1
	.uleb128 0x47
	.uleb128 0x13
	.uleb128 0x64
	.uleb128 0x13
	.uleb128 0x11
	.uleb128 0x1
	.uleb128 0x12
	.uleb128 0x7
	.uleb128 0x40
	.uleb128 0x18
	.uleb128 0x7c
	.uleb128 0x19
	.uleb128 0x1
	.uleb128 0x13
	.byte	0
	.byte	0
	.uleb128 0x15
	.uleb128 0x2e
	.byte	0x1
	.uleb128 0x47
	.uleb128 0x13
	.uleb128 0x64
	.uleb128 0x13
	.uleb128 0x20
	.uleb128 0x21
	.sleb128 2
	.uleb128 0x1
	.uleb128 0x13
	.byte	0
	.byte	0
	.uleb128 0x16
	.uleb128 0x5
	.byte	0
	.uleb128 0x3
	.uleb128 0x8
	.uleb128 0x3a
	.uleb128 0xb
	.uleb128 0x3b
	.uleb128 0x5
	.uleb128 0x39
	.uleb128 0xb
	.uleb128 0x49
	.uleb128 0x13
	.uleb128 0x2
	.uleb128 0x18
	.byte	0
	.byte	0
	.uleb128 0x17
	.uleb128 0x2e
	.byte	0x1
	.uleb128 0x3f
	.uleb128 0x19
	.uleb128 0x3
	.uleb128 0xe
	.uleb128 0x3a
	.uleb128 0xb
	.uleb128 0x3b
	.uleb128 0xb
	.uleb128 0x39
	.uleb128 0xb
	.uleb128 0x6e
	.uleb128 0xe
	.uleb128 0x49
	.uleb128 0x13
	.uleb128 0x32
	.uleb128 0xb
	.uleb128 0x3c
	.uleb128 0x19
	.uleb128 0x64
	.uleb128 0x13
	.uleb128 0x1
	.uleb128 0x13
	.byte	0
	.byte	0
	.uleb128 0x18
	.uleb128 0x5
	.byte	0
	.uleb128 0x3
	.uleb128 0xe
	.uleb128 0x3a
	.uleb128 0xb
	.uleb128 0x3b
	.uleb128 0xb
	.uleb128 0x39
	.uleb128 0xb
	.uleb128 0x49
	.uleb128 0x13
	.uleb128 0x2
	.uleb128 0x18
	.byte	0
	.byte	0
	.uleb128 0x19
	.uleb128 0x16
	.byte	0
	.uleb128 0x3
	.uleb128 0xe
	.uleb128 0x3a
	.uleb128 0xb
	.uleb128 0x3b
	.uleb128 0x5
	.uleb128 0x39
	.uleb128 0xb
	.uleb128 0x49
	.uleb128 0x13
	.uleb128 0x32
	.uleb128 0x21
	.sleb128 1
	.byte	0
	.byte	0
	.uleb128 0x1a
	.uleb128 0x2e
	.byte	0x1
	.uleb128 0x3f
	.uleb128 0x19
	.uleb128 0x3
	.uleb128 0xe
	.uleb128 0x3a
	.uleb128 0xb
	.uleb128 0x3b
	.uleb128 0xb
	.uleb128 0x39
	.uleb128 0xb
	.uleb128 0x49
	.uleb128 0x13
	.uleb128 0x3c
	.uleb128 0x19
	.uleb128 0x1
	.uleb128 0x13
	.byte	0
	.byte	0
	.uleb128 0x1b
	.uleb128 0x30
	.byte	0
	.uleb128 0x49
	.uleb128 0x13
	.uleb128 0x1c
	.uleb128 0xb
	.byte	0
	.byte	0
	.uleb128 0x1c
	.uleb128 0x2e
	.byte	0x1
	.uleb128 0x3f
	.uleb128 0x19
	.uleb128 0x3
	.uleb128 0xe
	.uleb128 0x3a
	.uleb128 0xb
	.uleb128 0x3b
	.uleb128 0xb
	.uleb128 0x39
	.uleb128 0xb
	.uleb128 0x6e
	.uleb128 0xe
	.uleb128 0x49
	.uleb128 0x13
	.uleb128 0x3c
	.uleb128 0x19
	.uleb128 0x1
	.uleb128 0x13
	.byte	0
	.byte	0
	.uleb128 0x1d
	.uleb128 0x2e
	.byte	0x1
	.uleb128 0x31
	.uleb128 0x13
	.uleb128 0x6e
	.uleb128 0xe
	.uleb128 0x64
	.uleb128 0x13
	.uleb128 0x11
	.uleb128 0x1
	.uleb128 0x12
	.uleb128 0x7
	.uleb128 0x40
	.uleb128 0x18
	.uleb128 0x7c
	.uleb128 0x19
	.uleb128 0x1
	.uleb128 0x13
	.byte	0
	.byte	0
	.uleb128 0x1e
	.uleb128 0x16
	.byte	0
	.uleb128 0x3
	.uleb128 0xe
	.uleb128 0x3a
	.uleb128 0xb
	.uleb128 0x3b
	.uleb128 0x5
	.uleb128 0x39
	.uleb128 0xb
	.uleb128 0x49
	.uleb128 0x13
	.byte	0
	.byte	0
	.uleb128 0x1f
	.uleb128 0x13
	.byte	0x1
	.uleb128 0x3
	.uleb128 0xe
	.uleb128 0xb
	.uleb128 0xb
	.uleb128 0x3a
	.uleb128 0xb
	.uleb128 0x3b
	.uleb128 0xb
	.uleb128 0x39
	.uleb128 0xb
	.uleb128 0x1
	.uleb128 0x13
	.byte	0
	.byte	0
	.uleb128 0x20
	.uleb128 0x2e
	.byte	0x1
	.uleb128 0x3f
	.uleb128 0x19
	.uleb128 0x3
	.uleb128 0xe
	.uleb128 0x3a
	.uleb128 0xb
	.uleb128 0x3b
	.uleb128 0xb
	.uleb128 0x39
	.uleb128 0xb
	.uleb128 0x6e
	.uleb128 0xe
	.uleb128 0x32
	.uleb128 0x21
	.sleb128 1
	.uleb128 0x3c
	.uleb128 0x19
	.uleb128 0x64
	.uleb128 0x13
	.uleb128 0x1
	.uleb128 0x13
	.byte	0
	.byte	0
	.uleb128 0x21
	.uleb128 0x8
	.byte	0
	.uleb128 0x3a
	.uleb128 0xb
	.uleb128 0x3b
	.uleb128 0x5
	.uleb128 0x39
	.uleb128 0xb
	.uleb128 0x18
	.uleb128 0x13
	.byte	0
	.byte	0
	.uleb128 0x22
	.uleb128 0x2e
	.byte	0x1
	.uleb128 0x3f
	.uleb128 0x19
	.uleb128 0x3
	.uleb128 0xe
	.uleb128 0x3a
	.uleb128 0xb
	.uleb128 0x3b
	.uleb128 0xb
	.uleb128 0x39
	.uleb128 0xb
	.uleb128 0x6e
	.uleb128 0xe
	.uleb128 0x3c
	.uleb128 0x19
	.uleb128 0x64
	.uleb128 0x13
	.uleb128 0x1
	.uleb128 0x13
	.byte	0
	.byte	0
	.uleb128 0x23
	.uleb128 0x2e
	.byte	0x1
	.uleb128 0x3f
	.uleb128 0x19
	.uleb128 0x3
	.uleb128 0xe
	.uleb128 0x3a
	.uleb128 0x21
	.sleb128 7
	.uleb128 0x3b
	.uleb128 0x5
	.uleb128 0x39
	.uleb128 0x21
	.sleb128 7
	.uleb128 0x6e
	.uleb128 0xe
	.uleb128 0x3c
	.uleb128 0x19
	.uleb128 0x64
	.uleb128 0x13
	.uleb128 0x1
	.uleb128 0x13
	.byte	0
	.byte	0
	.uleb128 0x24
	.uleb128 0x5
	.byte	0
	.uleb128 0x49
	.uleb128 0x13
	.uleb128 0x2
	.uleb128 0x18
	.byte	0
	.byte	0
	.uleb128 0x25
	.uleb128 0x42
	.byte	0
	.uleb128 0xb
	.uleb128 0x21
	.sleb128 8
	.uleb128 0x49
	.uleb128 0x13
	.byte	0
	.byte	0
	.uleb128 0x26
	.uleb128 0x2e
	.byte	0x1
	.uleb128 0x47
	.uleb128 0x13
	.uleb128 0x11
	.uleb128 0x1
	.uleb128 0x12
	.uleb128 0x7
	.uleb128 0x40
	.uleb128 0x18
	.uleb128 0x7a
	.uleb128 0x19
	.uleb128 0x1
	.uleb128 0x13
	.byte	0
	.byte	0
	.uleb128 0x27
	.uleb128 0x24
	.byte	0
	.uleb128 0xb
	.uleb128 0xb
	.uleb128 0x3e
	.uleb128 0xb
	.uleb128 0x3
	.uleb128 0xe
	.byte	0
	.byte	0
	.uleb128 0x28
	.uleb128 0x2e
	.byte	0x1
	.uleb128 0x47
	.uleb128 0x13
	.uleb128 0x64
	.uleb128 0x13
	.uleb128 0x11
	.uleb128 0x1
	.uleb128 0x12
	.uleb128 0x7
	.uleb128 0x40
	.uleb128 0x18
	.uleb128 0x7a
	.uleb128 0x19
	.uleb128 0x1
	.uleb128 0x13
	.byte	0
	.byte	0
	.uleb128 0x29
	.uleb128 0x5
	.byte	0
	.uleb128 0x3
	.uleb128 0x8
	.uleb128 0x3a
	.uleb128 0xb
	.uleb128 0x3b
	.uleb128 0xb
	.uleb128 0x39
	.uleb128 0xb
	.uleb128 0x49
	.uleb128 0x13
	.uleb128 0x2
	.uleb128 0x18
	.byte	0
	.byte	0
	.uleb128 0x2a
	.uleb128 0x30
	.byte	0
	.uleb128 0x3
	.uleb128 0xe
	.uleb128 0x49
	.uleb128 0x13
	.uleb128 0x1c
	.uleb128 0xb
	.byte	0
	.byte	0
	.uleb128 0x2b
	.uleb128 0x34
	.byte	0
	.uleb128 0x3
	.uleb128 0xe
	.uleb128 0x3a
	.uleb128 0xb
	.uleb128 0x3b
	.uleb128 0x5
	.uleb128 0x39
	.uleb128 0xb
	.uleb128 0x49
	.uleb128 0x13
	.uleb128 0x2
	.uleb128 0x18
	.byte	0
	.byte	0
	.uleb128 0x2c
	.uleb128 0x16
	.byte	0
	.uleb128 0x3
	.uleb128 0xe
	.uleb128 0x3a
	.uleb128 0xb
	.uleb128 0x3b
	.uleb128 0xb
	.uleb128 0x39
	.uleb128 0xb
	.uleb128 0x49
	.uleb128 0x13
	.uleb128 0x32
	.uleb128 0x21
	.sleb128 1
	.byte	0
	.byte	0
	.uleb128 0x2d
	.uleb128 0x34
	.byte	0
	.uleb128 0x3
	.uleb128 0xe
	.uleb128 0x3a
	.uleb128 0xb
	.uleb128 0x3b
	.uleb128 0xb
	.uleb128 0x39
	.uleb128 0xb
	.uleb128 0x49
	.uleb128 0x13
	.uleb128 0x2
	.uleb128 0x18
	.byte	0
	.byte	0
	.uleb128 0x2e
	.uleb128 0x2
	.byte	0x1
	.uleb128 0x3
	.uleb128 0xe
	.uleb128 0xb
	.uleb128 0xb
	.uleb128 0x3a
	.uleb128 0xb
	.uleb128 0x3b
	.uleb128 0xb
	.uleb128 0x39
	.uleb128 0xb
	.uleb128 0x1
	.uleb128 0x13
	.byte	0
	.byte	0
	.uleb128 0x2f
	.uleb128 0x2e
	.byte	0
	.uleb128 0x3f
	.uleb128 0x19
	.uleb128 0x3
	.uleb128 0xe
	.uleb128 0x3a
	.uleb128 0x21
	.sleb128 60
	.uleb128 0x3b
	.uleb128 0xb
	.uleb128 0x39
	.uleb128 0x21
	.sleb128 5
	.uleb128 0x6e
	.uleb128 0xe
	.uleb128 0x49
	.uleb128 0x13
	.uleb128 0x32
	.uleb128 0x21
	.sleb128 1
	.uleb128 0x3c
	.uleb128 0x19
	.byte	0
	.byte	0
	.uleb128 0x30
	.uleb128 0x5
	.byte	0
	.uleb128 0x3
	.uleb128 0x8
	.uleb128 0x3a
	.uleb128 0xb
	.uleb128 0x3b
	.uleb128 0x5
	.uleb128 0x39
	.uleb128 0xb
	.uleb128 0x49
	.uleb128 0x13
	.byte	0
	.byte	0
	.uleb128 0x31
	.uleb128 0x2e
	.byte	0x1
	.uleb128 0x31
	.uleb128 0x13
	.uleb128 0x6e
	.uleb128 0xe
	.uleb128 0x64
	.uleb128 0x13
	.uleb128 0x11
	.uleb128 0x1
	.uleb128 0x12
	.uleb128 0x7
	.uleb128 0x40
	.uleb128 0x18
	.uleb128 0x7a
	.uleb128 0x19
	.uleb128 0x1
	.uleb128 0x13
	.byte	0
	.byte	0
	.uleb128 0x32
	.uleb128 0x13
	.byte	0x1
	.uleb128 0x3
	.uleb128 0xe
	.uleb128 0xb
	.uleb128 0x21
	.sleb128 1
	.uleb128 0x3a
	.uleb128 0xb
	.uleb128 0x3b
	.uleb128 0x5
	.uleb128 0x39
	.uleb128 0x21
	.sleb128 12
	.uleb128 0x1
	.uleb128 0x13
	.byte	0
	.byte	0
	.uleb128 0x33
	.uleb128 0x2e
	.byte	0
	.uleb128 0x3f
	.uleb128 0x19
	.uleb128 0x3
	.uleb128 0xe
	.uleb128 0x3a
	.uleb128 0x21
	.sleb128 21
	.uleb128 0x3b
	.uleb128 0xb
	.uleb128 0x39
	.uleb128 0x21
	.sleb128 27
	.uleb128 0x6e
	.uleb128 0xe
	.uleb128 0x49
	.uleb128 0x13
	.uleb128 0x3c
	.uleb128 0x19
	.byte	0
	.byte	0
	.uleb128 0x34
	.uleb128 0x1c
	.byte	0
	.uleb128 0x49
	.uleb128 0x13
	.uleb128 0x38
	.uleb128 0x21
	.sleb128 0
	.byte	0
	.byte	0
	.uleb128 0x35
	.uleb128 0x2e
	.byte	0x1
	.uleb128 0x3f
	.uleb128 0x19
	.uleb128 0x3
	.uleb128 0xe
	.uleb128 0x3a
	.uleb128 0x21
	.sleb128 5
	.uleb128 0x3b
	.uleb128 0xb
	.uleb128 0x39
	.uleb128 0x21
	.sleb128 9
	.uleb128 0x6e
	.uleb128 0xe
	.uleb128 0x32
	.uleb128 0x21
	.sleb128 1
	.uleb128 0x3c
	.uleb128 0x19
	.uleb128 0x8b
	.uleb128 0x21
	.sleb128 1
	.uleb128 0x64
	.uleb128 0x13
	.uleb128 0x1
	.uleb128 0x13
	.byte	0
	.byte	0
	.uleb128 0x36
	.uleb128 0x4107
	.byte	0x1
	.uleb128 0x3
	.uleb128 0xe
	.uleb128 0x3a
	.uleb128 0x21
	.sleb128 5
	.uleb128 0x3b
	.uleb128 0xb
	.uleb128 0x39
	.uleb128 0x21
	.sleb128 32
	.uleb128 0x1
	.uleb128 0x13
	.byte	0
	.byte	0
	.uleb128 0x37
	.uleb128 0x2e
	.byte	0x1
	.uleb128 0x3f
	.uleb128 0x19
	.uleb128 0x3
	.uleb128 0xe
	.uleb128 0x3a
	.uleb128 0xb
	.uleb128 0x3b
	.uleb128 0x5
	.uleb128 0x39
	.uleb128 0xb
	.uleb128 0x6e
	.uleb128 0xe
	.uleb128 0x3c
	.uleb128 0x19
	.uleb128 0x1
	.uleb128 0x13
	.byte	0
	.byte	0
	.uleb128 0x38
	.uleb128 0x2e
	.byte	0x1
	.uleb128 0x3f
	.uleb128 0x19
	.uleb128 0x3
	.uleb128 0xe
	.uleb128 0x3a
	.uleb128 0xb
	.uleb128 0x3b
	.uleb128 0xb
	.uleb128 0x39
	.uleb128 0xb
	.uleb128 0x6e
	.uleb128 0xe
	.uleb128 0x49
	.uleb128 0x13
	.uleb128 0x32
	.uleb128 0x21
	.sleb128 1
	.uleb128 0x3c
	.uleb128 0x19
	.uleb128 0x8b
	.uleb128 0x21
	.sleb128 1
	.uleb128 0x64
	.uleb128 0x13
	.uleb128 0x1
	.uleb128 0x13
	.byte	0
	.byte	0
	.uleb128 0x39
	.uleb128 0x2e
	.byte	0x1
	.uleb128 0x3f
	.uleb128 0x19
	.uleb128 0x3
	.uleb128 0xe
	.uleb128 0x3a
	.uleb128 0x21
	.sleb128 7
	.uleb128 0x3b
	.uleb128 0x5
	.uleb128 0x39
	.uleb128 0x21
	.sleb128 7
	.uleb128 0x6e
	.uleb128 0xe
	.uleb128 0x49
	.uleb128 0x13
	.uleb128 0x3c
	.uleb128 0x19
	.uleb128 0x64
	.uleb128 0x13
	.uleb128 0x1
	.uleb128 0x13
	.byte	0
	.byte	0
	.uleb128 0x3a
	.uleb128 0x2e
	.byte	0x1
	.uleb128 0x3f
	.uleb128 0x19
	.uleb128 0x3
	.uleb128 0xe
	.uleb128 0x3a
	.uleb128 0xb
	.uleb128 0x3b
	.uleb128 0x5
	.uleb128 0x39
	.uleb128 0x21
	.sleb128 7
	.uleb128 0x6e
	.uleb128 0xe
	.uleb128 0x32
	.uleb128 0x21
	.sleb128 1
	.uleb128 0x3c
	.uleb128 0x19
	.uleb128 0x63
	.uleb128 0x19
	.uleb128 0x64
	.uleb128 0x13
	.uleb128 0x1
	.uleb128 0x13
	.byte	0
	.byte	0
	.uleb128 0x3b
	.uleb128 0x2e
	.byte	0x1
	.uleb128 0x3f
	.uleb128 0x19
	.uleb128 0x3
	.uleb128 0x8
	.uleb128 0x3a
	.uleb128 0x21
	.sleb128 7
	.uleb128 0x3b
	.uleb128 0x5
	.uleb128 0x39
	.uleb128 0x21
	.sleb128 7
	.uleb128 0x6e
	.uleb128 0xe
	.uleb128 0x49
	.uleb128 0x13
	.uleb128 0x32
	.uleb128 0x21
	.sleb128 1
	.uleb128 0x3c
	.uleb128 0x19
	.uleb128 0x64
	.uleb128 0x13
	.uleb128 0x1
	.uleb128 0x13
	.byte	0
	.byte	0
	.uleb128 0x3c
	.uleb128 0x2e
	.byte	0x1
	.uleb128 0x3f
	.uleb128 0x19
	.uleb128 0x3
	.uleb128 0xe
	.uleb128 0x3a
	.uleb128 0xb
	.uleb128 0x3b
	.uleb128 0xb
	.uleb128 0x39
	.uleb128 0xb
	.uleb128 0x6e
	.uleb128 0xe
	.uleb128 0x49
	.uleb128 0x13
	.uleb128 0x3c
	.uleb128 0x19
	.uleb128 0x64
	.uleb128 0x13
	.uleb128 0x1
	.uleb128 0x13
	.byte	0
	.byte	0
	.uleb128 0x3d
	.uleb128 0x2e
	.byte	0x1
	.uleb128 0x3f
	.uleb128 0x19
	.uleb128 0x3
	.uleb128 0xe
	.uleb128 0x3a
	.uleb128 0xb
	.uleb128 0x3b
	.uleb128 0xb
	.uleb128 0x39
	.uleb128 0xb
	.uleb128 0x6e
	.uleb128 0xe
	.uleb128 0x3c
	.uleb128 0x19
	.uleb128 0x1
	.uleb128 0x13
	.byte	0
	.byte	0
	.uleb128 0x3e
	.uleb128 0x2
	.byte	0
	.uleb128 0x3
	.uleb128 0xe
	.uleb128 0x3c
	.uleb128 0x19
	.byte	0
	.byte	0
	.uleb128 0x3f
	.uleb128 0x2
	.byte	0x1
	.uleb128 0x3
	.uleb128 0xe
	.uleb128 0xb
	.uleb128 0xb
	.uleb128 0x3a
	.uleb128 0xb
	.uleb128 0x3b
	.uleb128 0x5
	.uleb128 0x39
	.uleb128 0x21
	.sleb128 11
	.uleb128 0x1
	.uleb128 0x13
	.byte	0
	.byte	0
	.uleb128 0x40
	.uleb128 0x18
	.byte	0
	.byte	0
	.byte	0
	.uleb128 0x41
	.uleb128 0x2e
	.byte	0x1
	.uleb128 0x3f
	.uleb128 0x19
	.uleb128 0x3
	.uleb128 0xe
	.uleb128 0x3a
	.uleb128 0xb
	.uleb128 0x3b
	.uleb128 0x5
	.uleb128 0x39
	.uleb128 0x21
	.sleb128 13
	.uleb128 0x3c
	.uleb128 0x19
	.uleb128 0x1
	.uleb128 0x13
	.byte	0
	.byte	0
	.uleb128 0x42
	.uleb128 0x2f
	.byte	0
	.uleb128 0x49
	.uleb128 0x13
	.byte	0
	.byte	0
	.uleb128 0x43
	.uleb128 0x2e
	.byte	0x1
	.uleb128 0x3f
	.uleb128 0x19
	.uleb128 0x3
	.uleb128 0xe
	.uleb128 0x6e
	.uleb128 0xe
	.uleb128 0x34
	.uleb128 0x19
	.uleb128 0x3c
	.uleb128 0x19
	.uleb128 0x64
	.uleb128 0x13
	.uleb128 0x1
	.uleb128 0x13
	.byte	0
	.byte	0
	.uleb128 0x44
	.uleb128 0x2e
	.byte	0x1
	.uleb128 0x3f
	.uleb128 0x19
	.uleb128 0x3
	.uleb128 0xe
	.uleb128 0x3a
	.uleb128 0xb
	.uleb128 0x3b
	.uleb128 0x5
	.uleb128 0x39
	.uleb128 0x21
	.sleb128 7
	.uleb128 0x6e
	.uleb128 0xe
	.uleb128 0x32
	.uleb128 0x21
	.sleb128 1
	.uleb128 0x3c
	.uleb128 0x19
	.uleb128 0x8b
	.uleb128 0x21
	.sleb128 1
	.uleb128 0x64
	.uleb128 0x13
	.uleb128 0x1
	.uleb128 0x13
	.byte	0
	.byte	0
	.uleb128 0x45
	.uleb128 0x5
	.byte	0
	.uleb128 0x3
	.uleb128 0x8
	.uleb128 0x3a
	.uleb128 0xb
	.uleb128 0x3b
	.uleb128 0xb
	.uleb128 0x39
	.uleb128 0xb
	.uleb128 0x49
	.uleb128 0x13
	.byte	0
	.byte	0
	.uleb128 0x46
	.uleb128 0xd
	.byte	0
	.uleb128 0x3
	.uleb128 0xe
	.uleb128 0x3a
	.uleb128 0x21
	.sleb128 23
	.uleb128 0x3b
	.uleb128 0x21
	.sleb128 0
	.uleb128 0x49
	.uleb128 0x13
	.uleb128 0x38
	.uleb128 0xb
	.byte	0
	.byte	0
	.uleb128 0x47
	.uleb128 0x13
	.byte	0x1
	.uleb128 0xb
	.uleb128 0xb
	.uleb128 0x3a
	.uleb128 0xb
	.uleb128 0x3b
	.uleb128 0xb
	.uleb128 0x39
	.uleb128 0xb
	.uleb128 0x6e
	.uleb128 0xe
	.uleb128 0x1
	.uleb128 0x13
	.byte	0
	.byte	0
	.uleb128 0x48
	.uleb128 0x39
	.byte	0x1
	.uleb128 0x3
	.uleb128 0xe
	.uleb128 0x3a
	.uleb128 0xb
	.uleb128 0x3b
	.uleb128 0xb
	.uleb128 0x39
	.uleb128 0xb
	.uleb128 0x1
	.uleb128 0x13
	.byte	0
	.byte	0
	.uleb128 0x49
	.uleb128 0x1c
	.byte	0
	.uleb128 0x49
	.uleb128 0x13
	.uleb128 0x38
	.uleb128 0x21
	.sleb128 0
	.uleb128 0x32
	.uleb128 0xb
	.byte	0
	.byte	0
	.uleb128 0x4a
	.uleb128 0x2e
	.byte	0x1
	.uleb128 0x3f
	.uleb128 0x19
	.uleb128 0x3
	.uleb128 0xe
	.uleb128 0x3a
	.uleb128 0x21
	.sleb128 7
	.uleb128 0x3b
	.uleb128 0x5
	.uleb128 0x39
	.uleb128 0x21
	.sleb128 7
	.uleb128 0x6e
	.uleb128 0xe
	.uleb128 0x3c
	.uleb128 0x19
	.uleb128 0x8b
	.uleb128 0x21
	.sleb128 1
	.uleb128 0x64
	.uleb128 0x13
	.uleb128 0x1
	.uleb128 0x13
	.byte	0
	.byte	0
	.uleb128 0x4b
	.uleb128 0x2e
	.byte	0x1
	.uleb128 0x3f
	.uleb128 0x19
	.uleb128 0x3
	.uleb128 0xe
	.uleb128 0x3a
	.uleb128 0x21
	.sleb128 7
	.uleb128 0x3b
	.uleb128 0x5
	.uleb128 0x39
	.uleb128 0x21
	.sleb128 7
	.uleb128 0x6e
	.uleb128 0xe
	.uleb128 0x49
	.uleb128 0x13
	.uleb128 0x32
	.uleb128 0x21
	.sleb128 2
	.uleb128 0x3c
	.uleb128 0x19
	.uleb128 0x1
	.uleb128 0x13
	.byte	0
	.byte	0
	.uleb128 0x4c
	.uleb128 0x2e
	.byte	0x1
	.uleb128 0x3f
	.uleb128 0x19
	.uleb128 0x3
	.uleb128 0x8
	.uleb128 0x3a
	.uleb128 0xb
	.uleb128 0x3b
	.uleb128 0xb
	.uleb128 0x39
	.uleb128 0xb
	.uleb128 0x6e
	.uleb128 0xe
	.uleb128 0x49
	.uleb128 0x13
	.uleb128 0x32
	.uleb128 0x21
	.sleb128 1
	.uleb128 0x3c
	.uleb128 0x19
	.uleb128 0x64
	.uleb128 0x13
	.uleb128 0x1
	.uleb128 0x13
	.byte	0
	.byte	0
	.uleb128 0x4d
	.uleb128 0xd
	.byte	0
	.uleb128 0x3
	.uleb128 0xe
	.uleb128 0x3a
	.uleb128 0x21
	.sleb128 18
	.uleb128 0x3b
	.uleb128 0x21
	.sleb128 1046
	.uleb128 0x39
	.uleb128 0x21
	.sleb128 17
	.uleb128 0x49
	.uleb128 0x13
	.uleb128 0x38
	.uleb128 0x21
	.sleb128 0
	.uleb128 0x32
	.uleb128 0x21
	.sleb128 2
	.byte	0
	.byte	0
	.uleb128 0x4e
	.uleb128 0x34
	.byte	0
	.uleb128 0x47
	.uleb128 0x13
	.byte	0
	.byte	0
	.uleb128 0x4f
	.uleb128 0x2e
	.byte	0x1
	.uleb128 0x31
	.uleb128 0x13
	.uleb128 0x6e
	.uleb128 0xe
	.uleb128 0x64
	.uleb128 0x13
	.uleb128 0x1
	.uleb128 0x13
	.byte	0
	.byte	0
	.uleb128 0x50
	.uleb128 0xb
	.byte	0x1
	.uleb128 0x11
	.uleb128 0x1
	.uleb128 0x12
	.uleb128 0x7
	.byte	0
	.byte	0
	.uleb128 0x51
	.uleb128 0x2e
	.byte	0x1
	.uleb128 0x47
	.uleb128 0x13
	.uleb128 0x49
	.uleb128 0x13
	.uleb128 0x64
	.uleb128 0x13
	.uleb128 0x11
	.uleb128 0x1
	.uleb128 0x12
	.uleb128 0x7
	.uleb128 0x40
	.uleb128 0x18
	.uleb128 0x7c
	.uleb128 0x19
	.uleb128 0x1
	.uleb128 0x13
	.byte	0
	.byte	0
	.uleb128 0x52
	.uleb128 0x1
	.byte	0x1
	.uleb128 0x49
	.uleb128 0x13
	.uleb128 0x1
	.uleb128 0x13
	.byte	0
	.byte	0
	.uleb128 0x53
	.uleb128 0x21
	.byte	0
	.uleb128 0x49
	.uleb128 0x13
	.uleb128 0x2f
	.uleb128 0xb
	.byte	0
	.byte	0
	.uleb128 0x54
	.uleb128 0x2
	.byte	0x1
	.uleb128 0x3
	.uleb128 0xe
	.uleb128 0x3c
	.uleb128 0x19
	.uleb128 0x1
	.uleb128 0x13
	.byte	0
	.byte	0
	.uleb128 0x55
	.uleb128 0x2e
	.byte	0
	.uleb128 0x3f
	.uleb128 0x19
	.uleb128 0x3
	.uleb128 0xe
	.uleb128 0x3a
	.uleb128 0xb
	.uleb128 0x3b
	.uleb128 0x5
	.uleb128 0x39
	.uleb128 0xb
	.uleb128 0x49
	.uleb128 0x13
	.uleb128 0x3c
	.uleb128 0x19
	.byte	0
	.byte	0
	.uleb128 0x56
	.uleb128 0xd
	.byte	0
	.uleb128 0x3
	.uleb128 0x8
	.uleb128 0x3a
	.uleb128 0x21
	.sleb128 54
	.uleb128 0x3b
	.uleb128 0xb
	.uleb128 0x39
	.uleb128 0xb
	.uleb128 0x49
	.uleb128 0x13
	.uleb128 0x38
	.uleb128 0xb
	.byte	0
	.byte	0
	.uleb128 0x57
	.uleb128 0x13
	.byte	0
	.uleb128 0x3
	.uleb128 0xe
	.uleb128 0x3c
	.uleb128 0x19
	.byte	0
	.byte	0
	.uleb128 0x58
	.uleb128 0x34
	.byte	0
	.uleb128 0x3
	.uleb128 0x8
	.uleb128 0x3a
	.uleb128 0x21
	.sleb128 6
	.uleb128 0x3b
	.uleb128 0xb
	.uleb128 0x39
	.uleb128 0xb
	.uleb128 0x49
	.uleb128 0x13
	.uleb128 0x2
	.uleb128 0x18
	.byte	0
	.byte	0
	.uleb128 0x59
	.uleb128 0xd
	.byte	0
	.uleb128 0x3
	.uleb128 0xe
	.uleb128 0x3a
	.uleb128 0x21
	.sleb128 26
	.uleb128 0x3b
	.uleb128 0xb
	.uleb128 0x39
	.uleb128 0xb
	.uleb128 0x49
	.uleb128 0x13
	.byte	0
	.byte	0
	.uleb128 0x5a
	.uleb128 0x30
	.byte	0
	.uleb128 0x3
	.uleb128 0x8
	.uleb128 0x49
	.uleb128 0x13
	.uleb128 0x1c
	.uleb128 0xb
	.byte	0
	.byte	0
	.uleb128 0x5b
	.uleb128 0x39
	.byte	0
	.uleb128 0x3
	.uleb128 0xe
	.uleb128 0x3a
	.uleb128 0x21
	.sleb128 3
	.uleb128 0x3b
	.uleb128 0x5
	.uleb128 0x39
	.uleb128 0x21
	.sleb128 13
	.byte	0
	.byte	0
	.uleb128 0x5c
	.uleb128 0x2e
	.byte	0x1
	.uleb128 0x3f
	.uleb128 0x19
	.uleb128 0x3
	.uleb128 0xe
	.uleb128 0x3a
	.uleb128 0xb
	.uleb128 0x3b
	.uleb128 0xb
	.uleb128 0x39
	.uleb128 0xb
	.uleb128 0x6e
	.uleb128 0xe
	.uleb128 0x87
	.uleb128 0x19
	.uleb128 0x3c
	.uleb128 0x19
	.uleb128 0x1
	.uleb128 0x13
	.byte	0
	.byte	0
	.uleb128 0x5d
	.uleb128 0x2e
	.byte	0x1
	.uleb128 0x3f
	.uleb128 0x19
	.uleb128 0x3
	.uleb128 0x8
	.uleb128 0x3a
	.uleb128 0x21
	.sleb128 34
	.uleb128 0x3b
	.uleb128 0x5
	.uleb128 0x39
	.uleb128 0x21
	.sleb128 7
	.uleb128 0x6e
	.uleb128 0xe
	.uleb128 0x49
	.uleb128 0x13
	.uleb128 0x3c
	.uleb128 0x19
	.uleb128 0x1
	.uleb128 0x13
	.byte	0
	.byte	0
	.uleb128 0x5e
	.uleb128 0x39
	.byte	0
	.uleb128 0x3
	.uleb128 0xe
	.uleb128 0x3a
	.uleb128 0xb
	.uleb128 0x3b
	.uleb128 0xb
	.uleb128 0x39
	.uleb128 0xb
	.byte	0
	.byte	0
	.uleb128 0x5f
	.uleb128 0x2e
	.byte	0x1
	.uleb128 0x3f
	.uleb128 0x19
	.uleb128 0x3
	.uleb128 0xe
	.uleb128 0x3a
	.uleb128 0x21
	.sleb128 40
	.uleb128 0x3b
	.uleb128 0x5
	.uleb128 0x39
	.uleb128 0x21
	.sleb128 7
	.uleb128 0x6e
	.uleb128 0xe
	.uleb128 0x32
	.uleb128 0x21
	.sleb128 1
	.uleb128 0x3c
	.uleb128 0x19
	.uleb128 0x64
	.uleb128 0x13
	.uleb128 0x20
	.uleb128 0x21
	.sleb128 0
	.uleb128 0x1
	.uleb128 0x13
	.byte	0
	.byte	0
	.uleb128 0x60
	.uleb128 0x2f
	.byte	0
	.uleb128 0x3
	.uleb128 0xe
	.uleb128 0x49
	.uleb128 0x13
	.uleb128 0x1e
	.uleb128 0x19
	.byte	0
	.byte	0
	.uleb128 0x61
	.uleb128 0x2e
	.byte	0x1
	.uleb128 0x3f
	.uleb128 0x19
	.uleb128 0x3
	.uleb128 0xe
	.uleb128 0x3a
	.uleb128 0x21
	.sleb128 8
	.uleb128 0x3b
	.uleb128 0xb
	.uleb128 0x39
	.uleb128 0x21
	.sleb128 7
	.uleb128 0x6e
	.uleb128 0xe
	.uleb128 0x32
	.uleb128 0x21
	.sleb128 1
	.uleb128 0x3c
	.uleb128 0x19
	.uleb128 0x64
	.uleb128 0x13
	.byte	0
	.byte	0
	.uleb128 0x62
	.uleb128 0x2e
	.byte	0x1
	.uleb128 0x3f
	.uleb128 0x19
	.uleb128 0x3
	.uleb128 0xe
	.uleb128 0x3a
	.uleb128 0x21
	.sleb128 7
	.uleb128 0x3b
	.uleb128 0xb
	.uleb128 0x39
	.uleb128 0x21
	.sleb128 2
	.uleb128 0x6e
	.uleb128 0xe
	.uleb128 0x3c
	.uleb128 0x19
	.uleb128 0x64
	.uleb128 0x13
	.byte	0
	.byte	0
	.uleb128 0x63
	.uleb128 0x2e
	.byte	0x1
	.uleb128 0x3f
	.uleb128 0x19
	.uleb128 0x3
	.uleb128 0xe
	.uleb128 0x6e
	.uleb128 0xe
	.uleb128 0x34
	.uleb128 0x19
	.uleb128 0x3c
	.uleb128 0x19
	.uleb128 0x64
	.uleb128 0x13
	.byte	0
	.byte	0
	.uleb128 0x64
	.uleb128 0xd
	.byte	0
	.uleb128 0x3
	.uleb128 0xe
	.uleb128 0x3a
	.uleb128 0x21
	.sleb128 7
	.uleb128 0x3b
	.uleb128 0x21
	.sleb128 371
	.uleb128 0x39
	.uleb128 0x21
	.sleb128 20
	.uleb128 0x49
	.uleb128 0x13
	.uleb128 0x38
	.uleb128 0x21
	.sleb128 0
	.byte	0
	.byte	0
	.uleb128 0x65
	.uleb128 0x2e
	.byte	0
	.uleb128 0x3f
	.uleb128 0x19
	.uleb128 0x3
	.uleb128 0xe
	.uleb128 0x3a
	.uleb128 0x21
	.sleb128 7
	.uleb128 0x3b
	.uleb128 0x21
	.sleb128 478
	.uleb128 0x39
	.uleb128 0x21
	.sleb128 7
	.uleb128 0x6e
	.uleb128 0xe
	.uleb128 0x49
	.uleb128 0x13
	.uleb128 0x3c
	.uleb128 0x19
	.byte	0
	.byte	0
	.uleb128 0x66
	.uleb128 0x2e
	.byte	0
	.uleb128 0x3f
	.uleb128 0x19
	.uleb128 0x3
	.uleb128 0xe
	.uleb128 0x3a
	.uleb128 0x21
	.sleb128 44
	.uleb128 0x3b
	.uleb128 0xb
	.uleb128 0x39
	.uleb128 0x21
	.sleb128 3
	.uleb128 0x6e
	.uleb128 0xe
	.uleb128 0x87
	.uleb128 0x19
	.uleb128 0x3c
	.uleb128 0x19
	.byte	0
	.byte	0
	.uleb128 0x67
	.uleb128 0x4107
	.byte	0
	.uleb128 0x3
	.uleb128 0xe
	.byte	0
	.byte	0
	.uleb128 0x68
	.uleb128 0x2e
	.byte	0x1
	.uleb128 0x3f
	.uleb128 0x19
	.uleb128 0x3
	.uleb128 0xe
	.uleb128 0x3a
	.uleb128 0xb
	.uleb128 0x3b
	.uleb128 0x5
	.uleb128 0x39
	.uleb128 0xb
	.uleb128 0x6e
	.uleb128 0xe
	.uleb128 0x49
	.uleb128 0x13
	.uleb128 0x3c
	.uleb128 0x19
	.byte	0
	.byte	0
	.uleb128 0x69
	.uleb128 0x3b
	.byte	0
	.uleb128 0x3
	.uleb128 0xe
	.byte	0
	.byte	0
	.uleb128 0x6a
	.uleb128 0x2e
	.byte	0
	.uleb128 0x3f
	.uleb128 0x19
	.uleb128 0x3
	.uleb128 0xe
	.uleb128 0x3a
	.uleb128 0xb
	.uleb128 0x3b
	.uleb128 0xb
	.uleb128 0x39
	.uleb128 0xb
	.uleb128 0x49
	.uleb128 0x13
	.uleb128 0x3c
	.uleb128 0x19
	.byte	0
	.byte	0
	.uleb128 0x6b
	.uleb128 0x3a
	.byte	0
	.uleb128 0x3a
	.uleb128 0xb
	.uleb128 0x3b
	.uleb128 0xb
	.uleb128 0x39
	.uleb128 0xb
	.uleb128 0x18
	.uleb128 0x13
	.byte	0
	.byte	0
	.uleb128 0x6c
	.uleb128 0x39
	.byte	0x1
	.uleb128 0x3
	.uleb128 0xe
	.uleb128 0x3a
	.uleb128 0xb
	.uleb128 0x3b
	.uleb128 0xb
	.uleb128 0x39
	.uleb128 0xb
	.byte	0
	.byte	0
	.uleb128 0x6d
	.uleb128 0x34
	.byte	0
	.uleb128 0x3
	.uleb128 0x8
	.uleb128 0x3a
	.uleb128 0x21
	.sleb128 60
	.uleb128 0x3b
	.uleb128 0xb
	.uleb128 0x39
	.uleb128 0xb
	.uleb128 0x49
	.uleb128 0x13
	.uleb128 0x3c
	.uleb128 0x19
	.uleb128 0x1c
	.uleb128 0xa
	.uleb128 0x6c
	.uleb128 0x19
	.byte	0
	.byte	0
	.uleb128 0x6e
	.uleb128 0x34
	.byte	0
	.uleb128 0x3
	.uleb128 0xe
	.uleb128 0x3a
	.uleb128 0x21
	.sleb128 60
	.uleb128 0x3b
	.uleb128 0xb
	.uleb128 0x39
	.uleb128 0xb
	.uleb128 0x49
	.uleb128 0x13
	.uleb128 0x3c
	.uleb128 0x19
	.uleb128 0x1c
	.uleb128 0xa
	.uleb128 0x6c
	.uleb128 0x19
	.byte	0
	.byte	0
	.uleb128 0x6f
	.uleb128 0x4107
	.byte	0x1
	.uleb128 0x3
	.uleb128 0x8
	.uleb128 0x1
	.uleb128 0x13
	.byte	0
	.byte	0
	.uleb128 0x70
	.uleb128 0x4107
	.byte	0x1
	.uleb128 0x3
	.uleb128 0xe
	.uleb128 0x3a
	.uleb128 0x21
	.sleb128 5
	.uleb128 0x3b
	.uleb128 0x21
	.sleb128 16
	.uleb128 0x39
	.uleb128 0x21
	.sleb128 48
	.byte	0
	.byte	0
	.uleb128 0x71
	.uleb128 0x2e
	.byte	0x1
	.uleb128 0x3f
	.uleb128 0x19
	.uleb128 0x3
	.uleb128 0xe
	.uleb128 0x49
	.uleb128 0x13
	.uleb128 0x34
	.uleb128 0x19
	.uleb128 0x3c
	.uleb128 0x19
	.uleb128 0x1
	.uleb128 0x13
	.byte	0
	.byte	0
	.uleb128 0x72
	.uleb128 0xb
	.byte	0x1
	.byte	0
	.byte	0
	.uleb128 0x73
	.uleb128 0x34
	.byte	0
	.uleb128 0x3
	.uleb128 0xe
	.uleb128 0x3a
	.uleb128 0x21
	.sleb128 10
	.uleb128 0x3b
	.uleb128 0xb
	.uleb128 0x39
	.uleb128 0x21
	.sleb128 23
	.uleb128 0x49
	.uleb128 0x13
	.byte	0
	.byte	0
	.uleb128 0x74
	.uleb128 0x34
	.byte	0
	.uleb128 0x3
	.uleb128 0xe
	.uleb128 0x3a
	.uleb128 0xb
	.uleb128 0x3b
	.uleb128 0x5
	.uleb128 0x39
	.uleb128 0xb
	.uleb128 0x49
	.uleb128 0x13
	.uleb128 0x6c
	.uleb128 0x19
	.uleb128 0x2
	.uleb128 0x18
	.byte	0
	.byte	0
	.uleb128 0x75
	.uleb128 0x34
	.byte	0
	.uleb128 0x3
	.uleb128 0x8
	.uleb128 0x3a
	.uleb128 0x21
	.sleb128 7
	.uleb128 0x3b
	.uleb128 0x5
	.uleb128 0x39
	.uleb128 0xb
	.uleb128 0x49
	.uleb128 0x13
	.uleb128 0x2
	.uleb128 0x18
	.byte	0
	.byte	0
	.uleb128 0x76
	.uleb128 0xb
	.byte	0x1
	.uleb128 0x55
	.uleb128 0x17
	.byte	0
	.byte	0
	.uleb128 0x77
	.uleb128 0x13
	.byte	0x1
	.uleb128 0xb
	.uleb128 0x21
	.sleb128 8
	.uleb128 0x3a
	.uleb128 0x21
	.sleb128 5
	.uleb128 0x3b
	.uleb128 0xb
	.uleb128 0x39
	.uleb128 0xb
	.byte	0
	.byte	0
	.uleb128 0x78
	.uleb128 0x2e
	.byte	0x1
	.uleb128 0x3f
	.uleb128 0x19
	.uleb128 0x3
	.uleb128 0xe
	.uleb128 0x6e
	.uleb128 0xe
	.uleb128 0x34
	.uleb128 0x19
	.uleb128 0x3c
	.uleb128 0x19
	.uleb128 0x8a
	.uleb128 0x19
	.uleb128 0x64
	.uleb128 0x13
	.uleb128 0x1
	.uleb128 0x13
	.byte	0
	.byte	0
	.uleb128 0x79
	.uleb128 0x2e
	.byte	0x1
	.uleb128 0x3f
	.uleb128 0x19
	.uleb128 0x3
	.uleb128 0xe
	.uleb128 0x6e
	.uleb128 0xe
	.uleb128 0x34
	.uleb128 0x19
	.uleb128 0x64
	.uleb128 0x13
	.uleb128 0x11
	.uleb128 0x1
	.uleb128 0x12
	.uleb128 0x7
	.uleb128 0x40
	.uleb128 0x18
	.uleb128 0x7c
	.uleb128 0x19
	.byte	0
	.byte	0
	.uleb128 0x7a
	.uleb128 0x34
	.byte	0
	.uleb128 0x3
	.uleb128 0xe
	.uleb128 0x49
	.uleb128 0x13
	.uleb128 0x34
	.uleb128 0x19
	.uleb128 0x2
	.uleb128 0x18
	.byte	0
	.byte	0
	.uleb128 0x7b
	.uleb128 0x2e
	.byte	0x1
	.uleb128 0x47
	.uleb128 0x13
	.uleb128 0x3a
	.uleb128 0x21
	.sleb128 7
	.uleb128 0x3b
	.uleb128 0xb
	.uleb128 0x39
	.uleb128 0x21
	.sleb128 14
	.uleb128 0x64
	.uleb128 0x13
	.uleb128 0x20
	.uleb128 0x21
	.sleb128 2
	.uleb128 0x1
	.uleb128 0x13
	.byte	0
	.byte	0
	.uleb128 0x7c
	.uleb128 0x11
	.byte	0x1
	.uleb128 0x25
	.uleb128 0xe
	.uleb128 0x13
	.uleb128 0xb
	.uleb128 0x3
	.uleb128 0x1f
	.uleb128 0x1b
	.uleb128 0x1f
	.uleb128 0x55
	.uleb128 0x17
	.uleb128 0x11
	.uleb128 0x1
	.uleb128 0x10
	.uleb128 0x17
	.byte	0
	.byte	0
	.uleb128 0x7d
	.uleb128 0x13
	.byte	0x1
	.uleb128 0x3
	.uleb128 0xe
	.uleb128 0xb
	.uleb128 0xb
	.uleb128 0x3a
	.uleb128 0xb
	.uleb128 0x3b
	.uleb128 0xb
	.uleb128 0x1
	.uleb128 0x13
	.byte	0
	.byte	0
	.uleb128 0x7e
	.uleb128 0xf
	.byte	0
	.uleb128 0xb
	.uleb128 0xb
	.byte	0
	.byte	0
	.uleb128 0x7f
	.uleb128 0x17
	.byte	0x1
	.uleb128 0xb
	.uleb128 0xb
	.uleb128 0x3a
	.uleb128 0xb
	.uleb128 0x3b
	.uleb128 0xb
	.uleb128 0x39
	.uleb128 0xb
	.uleb128 0x1
	.uleb128 0x13
	.byte	0
	.byte	0
	.uleb128 0x80
	.uleb128 0x24
	.byte	0
	.uleb128 0xb
	.uleb128 0xb
	.uleb128 0x3e
	.uleb128 0xb
	.uleb128 0x3
	.uleb128 0x8
	.byte	0
	.byte	0
	.uleb128 0x81
	.uleb128 0x39
	.byte	0x1
	.uleb128 0x3
	.uleb128 0x8
	.uleb128 0x3a
	.uleb128 0xb
	.uleb128 0x3b
	.uleb128 0x5
	.uleb128 0x39
	.uleb128 0xb
	.uleb128 0x1
	.uleb128 0x13
	.byte	0
	.byte	0
	.uleb128 0x82
	.uleb128 0x4
	.byte	0
	.uleb128 0x3
	.uleb128 0xe
	.uleb128 0x6d
	.uleb128 0x19
	.uleb128 0x3e
	.uleb128 0xb
	.uleb128 0xb
	.uleb128 0xb
	.uleb128 0x49
	.uleb128 0x13
	.uleb128 0x3a
	.uleb128 0xb
	.uleb128 0x3b
	.uleb128 0xb
	.uleb128 0x39
	.uleb128 0xb
	.byte	0
	.byte	0
	.uleb128 0x83
	.uleb128 0x2e
	.byte	0x1
	.uleb128 0x3f
	.uleb128 0x19
	.uleb128 0x3
	.uleb128 0xe
	.uleb128 0x3a
	.uleb128 0xb
	.uleb128 0x3b
	.uleb128 0xb
	.uleb128 0x39
	.uleb128 0xb
	.uleb128 0x6e
	.uleb128 0xe
	.uleb128 0x3c
	.uleb128 0x19
	.uleb128 0x63
	.uleb128 0x19
	.uleb128 0x64
	.uleb128 0x13
	.uleb128 0x1
	.uleb128 0x13
	.byte	0
	.byte	0
	.uleb128 0x84
	.uleb128 0x2e
	.byte	0x1
	.uleb128 0x3f
	.uleb128 0x19
	.uleb128 0x3
	.uleb128 0xe
	.uleb128 0x3a
	.uleb128 0xb
	.uleb128 0x3b
	.uleb128 0xb
	.uleb128 0x39
	.uleb128 0xb
	.uleb128 0x6e
	.uleb128 0xe
	.uleb128 0x49
	.uleb128 0x13
	.uleb128 0x32
	.uleb128 0xb
	.uleb128 0x3c
	.uleb128 0x19
	.uleb128 0x63
	.uleb128 0x19
	.uleb128 0x64
	.uleb128 0x13
	.uleb128 0x1
	.uleb128 0x13
	.byte	0
	.byte	0
	.uleb128 0x85
	.uleb128 0x2e
	.byte	0x1
	.uleb128 0x3f
	.uleb128 0x19
	.uleb128 0x3
	.uleb128 0xe
	.uleb128 0x3a
	.uleb128 0xb
	.uleb128 0x3b
	.uleb128 0xb
	.uleb128 0x39
	.uleb128 0xb
	.uleb128 0x6e
	.uleb128 0xe
	.uleb128 0x49
	.uleb128 0x13
	.uleb128 0x32
	.uleb128 0xb
	.uleb128 0x3c
	.uleb128 0x19
	.uleb128 0x64
	.uleb128 0x13
	.byte	0
	.byte	0
	.uleb128 0x86
	.uleb128 0x2e
	.byte	0
	.uleb128 0x3f
	.uleb128 0x19
	.uleb128 0x3
	.uleb128 0x8
	.uleb128 0x3a
	.uleb128 0xb
	.uleb128 0x3b
	.uleb128 0x5
	.uleb128 0x39
	.uleb128 0xb
	.uleb128 0x6e
	.uleb128 0xe
	.uleb128 0x49
	.uleb128 0x13
	.uleb128 0x3c
	.uleb128 0x19
	.byte	0
	.byte	0
	.uleb128 0x87
	.uleb128 0x13
	.byte	0
	.uleb128 0x3
	.uleb128 0xe
	.uleb128 0xb
	.uleb128 0xb
	.uleb128 0x3a
	.uleb128 0xb
	.uleb128 0x3b
	.uleb128 0xb
	.uleb128 0x39
	.uleb128 0xb
	.byte	0
	.byte	0
	.uleb128 0x88
	.uleb128 0x2e
	.byte	0x1
	.uleb128 0x3f
	.uleb128 0x19
	.uleb128 0x3
	.uleb128 0xe
	.uleb128 0x3a
	.uleb128 0xb
	.uleb128 0x3b
	.uleb128 0xb
	.uleb128 0x39
	.uleb128 0xb
	.uleb128 0x6e
	.uleb128 0xe
	.uleb128 0x3c
	.uleb128 0x19
	.byte	0
	.byte	0
	.uleb128 0x89
	.uleb128 0x39
	.byte	0
	.uleb128 0x3
	.uleb128 0xe
	.uleb128 0x3a
	.uleb128 0xb
	.uleb128 0x3b
	.uleb128 0x5
	.uleb128 0x39
	.uleb128 0xb
	.uleb128 0x89
	.uleb128 0x19
	.byte	0
	.byte	0
	.uleb128 0x8a
	.uleb128 0x39
	.byte	0
	.uleb128 0x3
	.uleb128 0x8
	.uleb128 0x3a
	.uleb128 0xb
	.uleb128 0x3b
	.uleb128 0xb
	.uleb128 0x39
	.uleb128 0xb
	.uleb128 0x89
	.uleb128 0x19
	.byte	0
	.byte	0
	.uleb128 0x8b
	.uleb128 0x2
	.byte	0x1
	.uleb128 0x3
	.uleb128 0xe
	.uleb128 0xb
	.uleb128 0xb
	.uleb128 0x3a
	.uleb128 0xb
	.uleb128 0x3b
	.uleb128 0x5
	.uleb128 0x39
	.uleb128 0xb
	.uleb128 0x32
	.uleb128 0xb
	.uleb128 0x1
	.uleb128 0x13
	.byte	0
	.byte	0
	.uleb128 0x8c
	.uleb128 0x2e
	.byte	0x1
	.uleb128 0x3f
	.uleb128 0x19
	.uleb128 0x3
	.uleb128 0xe
	.uleb128 0x3a
	.uleb128 0xb
	.uleb128 0x3b
	.uleb128 0x5
	.uleb128 0x39
	.uleb128 0xb
	.uleb128 0x6e
	.uleb128 0xe
	.uleb128 0x49
	.uleb128 0x13
	.uleb128 0x32
	.uleb128 0xb
	.uleb128 0x3c
	.uleb128 0x19
	.uleb128 0x8b
	.uleb128 0xb
	.uleb128 0x64
	.uleb128 0x13
	.byte	0
	.byte	0
	.uleb128 0x8d
	.uleb128 0x34
	.byte	0
	.uleb128 0x3
	.uleb128 0xe
	.uleb128 0x3a
	.uleb128 0xb
	.uleb128 0x3b
	.uleb128 0xb
	.uleb128 0x39
	.uleb128 0xb
	.uleb128 0x6e
	.uleb128 0xe
	.uleb128 0x49
	.uleb128 0x13
	.uleb128 0x3f
	.uleb128 0x19
	.uleb128 0x3c
	.uleb128 0x19
	.byte	0
	.byte	0
	.uleb128 0x8e
	.uleb128 0x34
	.byte	0
	.uleb128 0x3
	.uleb128 0xe
	.uleb128 0x3a
	.uleb128 0xb
	.uleb128 0x3b
	.uleb128 0xb
	.uleb128 0x39
	.uleb128 0xb
	.uleb128 0x49
	.uleb128 0x13
	.uleb128 0x3c
	.uleb128 0x19
	.byte	0
	.byte	0
	.uleb128 0x8f
	.uleb128 0x2e
	.byte	0x1
	.uleb128 0x3f
	.uleb128 0x19
	.uleb128 0x3
	.uleb128 0xe
	.uleb128 0x3a
	.uleb128 0xb
	.uleb128 0x3b
	.uleb128 0xb
	.uleb128 0x39
	.uleb128 0xb
	.uleb128 0x6e
	.uleb128 0xe
	.uleb128 0x4c
	.uleb128 0xb
	.uleb128 0x1d
	.uleb128 0x13
	.uleb128 0x32
	.uleb128 0xb
	.uleb128 0x3c
	.uleb128 0x19
	.uleb128 0x64
	.uleb128 0x13
	.uleb128 0x20
	.uleb128 0xb
	.uleb128 0x1
	.uleb128 0x13
	.byte	0
	.byte	0
	.uleb128 0x90
	.uleb128 0x2e
	.byte	0x1
	.uleb128 0x3f
	.uleb128 0x19
	.uleb128 0x3
	.uleb128 0xe
	.uleb128 0x3a
	.uleb128 0xb
	.uleb128 0x3b
	.uleb128 0xb
	.uleb128 0x39
	.uleb128 0xb
	.uleb128 0x6e
	.uleb128 0xe
	.uleb128 0x32
	.uleb128 0xb
	.uleb128 0x3c
	.uleb128 0x19
	.uleb128 0x63
	.uleb128 0x19
	.uleb128 0x64
	.uleb128 0x13
	.uleb128 0x20
	.uleb128 0xb
	.byte	0
	.byte	0
	.uleb128 0x91
	.uleb128 0x13
	.byte	0x1
	.uleb128 0x3
	.uleb128 0x8
	.uleb128 0xb
	.uleb128 0xb
	.uleb128 0x3a
	.uleb128 0xb
	.uleb128 0x3b
	.uleb128 0xb
	.uleb128 0x39
	.uleb128 0xb
	.uleb128 0x1
	.uleb128 0x13
	.byte	0
	.byte	0
	.uleb128 0x92
	.uleb128 0x39
	.byte	0x1
	.uleb128 0x3
	.uleb128 0xe
	.uleb128 0x3a
	.uleb128 0xb
	.uleb128 0x3b
	.uleb128 0x5
	.uleb128 0x39
	.uleb128 0xb
	.uleb128 0x1
	.uleb128 0x13
	.byte	0
	.byte	0
	.uleb128 0x93
	.uleb128 0x2e
	.byte	0x1
	.uleb128 0x3f
	.uleb128 0x19
	.uleb128 0x3
	.uleb128 0x8
	.uleb128 0x3a
	.uleb128 0xb
	.uleb128 0x3b
	.uleb128 0xb
	.uleb128 0x39
	.uleb128 0xb
	.uleb128 0x6e
	.uleb128 0xe
	.uleb128 0x49
	.uleb128 0x13
	.uleb128 0x3c
	.uleb128 0x19
	.uleb128 0x1
	.uleb128 0x13
	.byte	0
	.byte	0
	.uleb128 0x94
	.uleb128 0x15
	.byte	0x1
	.uleb128 0x1
	.uleb128 0x13
	.byte	0
	.byte	0
	.uleb128 0x95
	.uleb128 0x26
	.byte	0
	.byte	0
	.byte	0
	.uleb128 0x96
	.uleb128 0x15
	.byte	0x1
	.uleb128 0x49
	.uleb128 0x13
	.uleb128 0x1
	.uleb128 0x13
	.byte	0
	.byte	0
	.uleb128 0x97
	.uleb128 0x15
	.byte	0
	.byte	0
	.byte	0
	.uleb128 0x98
	.uleb128 0x2e
	.byte	0x1
	.uleb128 0x3f
	.uleb128 0x19
	.uleb128 0x3
	.uleb128 0x8
	.uleb128 0x3a
	.uleb128 0xb
	.uleb128 0x3b
	.uleb128 0x5
	.uleb128 0x39
	.uleb128 0xb
	.uleb128 0x49
	.uleb128 0x13
	.uleb128 0x3c
	.uleb128 0x19
	.uleb128 0x1
	.uleb128 0x13
	.byte	0
	.byte	0
	.uleb128 0x99
	.uleb128 0x2e
	.byte	0x1
	.uleb128 0x3f
	.uleb128 0x19
	.uleb128 0x3
	.uleb128 0xe
	.uleb128 0x3a
	.uleb128 0xb
	.uleb128 0x3b
	.uleb128 0x5
	.uleb128 0x39
	.uleb128 0xb
	.uleb128 0x87
	.uleb128 0x19
	.uleb128 0x3c
	.uleb128 0x19
	.uleb128 0x1
	.uleb128 0x13
	.byte	0
	.byte	0
	.uleb128 0x9a
	.uleb128 0x16
	.byte	0
	.uleb128 0x3
	.uleb128 0xe
	.uleb128 0x3a
	.uleb128 0xb
	.uleb128 0x3b
	.uleb128 0xb
	.uleb128 0x39
	.uleb128 0xb
	.byte	0
	.byte	0
	.uleb128 0x9b
	.uleb128 0x34
	.byte	0
	.uleb128 0x47
	.uleb128 0x13
	.uleb128 0x2
	.uleb128 0x18
	.byte	0
	.byte	0
	.uleb128 0x9c
	.uleb128 0x39
	.byte	0x1
	.uleb128 0x3
	.uleb128 0x8
	.uleb128 0x3a
	.uleb128 0xb
	.uleb128 0x3b
	.uleb128 0xb
	.uleb128 0x39
	.uleb128 0xb
	.uleb128 0x89
	.uleb128 0x19
	.byte	0
	.byte	0
	.uleb128 0x9d
	.uleb128 0x4107
	.byte	0
	.uleb128 0x3
	.uleb128 0xe
	.uleb128 0x3a
	.uleb128 0xb
	.uleb128 0x3b
	.uleb128 0xb
	.uleb128 0x39
	.uleb128 0xb
	.byte	0
	.byte	0
	.uleb128 0x9e
	.uleb128 0x2e
	.byte	0x1
	.uleb128 0x3f
	.uleb128 0x19
	.uleb128 0x3
	.uleb128 0xe
	.uleb128 0x3a
	.uleb128 0xb
	.uleb128 0x3b
	.uleb128 0xb
	.uleb128 0x39
	.uleb128 0xb
	.uleb128 0x6e
	.uleb128 0xe
	.uleb128 0x49
	.uleb128 0x13
	.uleb128 0x3c
	.uleb128 0x19
	.byte	0
	.byte	0
	.uleb128 0x9f
	.uleb128 0x34
	.byte	0
	.uleb128 0x3
	.uleb128 0xe
	.uleb128 0x49
	.uleb128 0x13
	.uleb128 0x3f
	.uleb128 0x19
	.uleb128 0x34
	.uleb128 0x19
	.uleb128 0x3c
	.uleb128 0x19
	.byte	0
	.byte	0
	.uleb128 0xa0
	.uleb128 0x2e
	.byte	0
	.uleb128 0x3f
	.uleb128 0x19
	.uleb128 0x3
	.uleb128 0xe
	.uleb128 0x34
	.uleb128 0x19
	.uleb128 0x3c
	.uleb128 0x19
	.byte	0
	.byte	0
	.uleb128 0xa1
	.uleb128 0x2e
	.byte	0
	.uleb128 0x3f
	.uleb128 0x19
	.uleb128 0x3
	.uleb128 0xe
	.uleb128 0x34
	.uleb128 0x19
	.uleb128 0x87
	.uleb128 0x19
	.uleb128 0x3c
	.uleb128 0x19
	.byte	0
	.byte	0
	.uleb128 0xa2
	.uleb128 0x2e
	.byte	0x1
	.uleb128 0x3f
	.uleb128 0x19
	.uleb128 0x3
	.uleb128 0xe
	.uleb128 0x34
	.uleb128 0x19
	.uleb128 0x3c
	.uleb128 0x19
	.uleb128 0x1
	.uleb128 0x13
	.byte	0
	.byte	0
	.uleb128 0xa3
	.uleb128 0x2e
	.byte	0x1
	.uleb128 0x3f
	.uleb128 0x19
	.uleb128 0x3
	.uleb128 0xe
	.uleb128 0x34
	.uleb128 0x19
	.uleb128 0x87
	.uleb128 0x19
	.uleb128 0x3c
	.uleb128 0x19
	.uleb128 0x1
	.uleb128 0x13
	.byte	0
	.byte	0
	.uleb128 0xa4
	.uleb128 0x2e
	.byte	0
	.uleb128 0x3
	.uleb128 0xe
	.uleb128 0x34
	.uleb128 0x19
	.uleb128 0x11
	.uleb128 0x1
	.uleb128 0x12
	.uleb128 0x7
	.uleb128 0x40
	.uleb128 0x18
	.uleb128 0x7c
	.uleb128 0x19
	.byte	0
	.byte	0
	.uleb128 0xa5
	.uleb128 0x2e
	.byte	0x1
	.uleb128 0x3
	.uleb128 0xe
	.uleb128 0x34
	.uleb128 0x19
	.uleb128 0x11
	.uleb128 0x1
	.uleb128 0x12
	.uleb128 0x7
	.uleb128 0x40
	.uleb128 0x18
	.uleb128 0x7c
	.uleb128 0x19
	.uleb128 0x1
	.uleb128 0x13
	.byte	0
	.byte	0
	.uleb128 0xa6
	.uleb128 0x4108
	.byte	0
	.uleb128 0x3a
	.uleb128 0xb
	.uleb128 0x3b
	.uleb128 0xb
	.uleb128 0x39
	.uleb128 0xb
	.byte	0
	.byte	0
	.uleb128 0xa7
	.uleb128 0x2e
	.byte	0x1
	.uleb128 0x47
	.uleb128 0x13
	.uleb128 0x1
	.uleb128 0x13
	.byte	0
	.byte	0
	.uleb128 0xa8
	.uleb128 0x5
	.byte	0
	.uleb128 0x3
	.uleb128 0xe
	.uleb128 0x3a
	.uleb128 0xb
	.uleb128 0x3b
	.uleb128 0x5
	.uleb128 0x39
	.uleb128 0xb
	.uleb128 0x49
	.uleb128 0x13
	.byte	0
	.byte	0
	.uleb128 0xa9
	.uleb128 0x2e
	.byte	0x1
	.uleb128 0x47
	.uleb128 0x13
	.uleb128 0x64
	.uleb128 0x13
	.uleb128 0x1
	.uleb128 0x13
	.byte	0
	.byte	0
	.uleb128 0xaa
	.uleb128 0x5
	.byte	0
	.uleb128 0x3
	.uleb128 0xe
	.uleb128 0x3a
	.uleb128 0xb
	.uleb128 0x3b
	.uleb128 0xb
	.uleb128 0x39
	.uleb128 0xb
	.uleb128 0x49
	.uleb128 0x13
	.byte	0
	.byte	0
	.uleb128 0xab
	.uleb128 0x4108
	.byte	0x1
	.uleb128 0x3a
	.uleb128 0xb
	.uleb128 0x3b
	.uleb128 0xb
	.uleb128 0x39
	.uleb128 0xb
	.uleb128 0x1
	.uleb128 0x13
	.byte	0
	.byte	0
	.uleb128 0xac
	.uleb128 0x2e
	.byte	0x1
	.uleb128 0x3f
	.uleb128 0x19
	.uleb128 0x3
	.uleb128 0xe
	.uleb128 0x3a
	.uleb128 0xb
	.uleb128 0x3b
	.uleb128 0xb
	.uleb128 0x39
	.uleb128 0xb
	.uleb128 0x49
	.uleb128 0x13
	.uleb128 0x11
	.uleb128 0x1
	.uleb128 0x12
	.uleb128 0x7
	.uleb128 0x40
	.uleb128 0x18
	.uleb128 0x7c
	.uleb128 0x19
	.uleb128 0x1
	.uleb128 0x13
	.byte	0
	.byte	0
	.uleb128 0xad
	.uleb128 0x2e
	.byte	0x1
	.uleb128 0x3f
	.uleb128 0x19
	.uleb128 0x3
	.uleb128 0xe
	.uleb128 0x3a
	.uleb128 0xb
	.uleb128 0x3b
	.uleb128 0xb
	.uleb128 0x39
	.uleb128 0xb
	.uleb128 0x6e
	.uleb128 0xe
	.uleb128 0x49
	.uleb128 0x13
	.uleb128 0x11
	.uleb128 0x1
	.uleb128 0x12
	.uleb128 0x7
	.uleb128 0x40
	.uleb128 0x18
	.uleb128 0x7a
	.uleb128 0x19
	.uleb128 0x1
	.uleb128 0x13
	.byte	0
	.byte	0
	.byte	0
	.section	.debug_aranges,"",@progbits
	.long	0xc9c
	.value	0x2
	.long	.Ldebug_info0
	.byte	0x8
	.byte	0
	.value	0
	.value	0
	.quad	.Ltext0
	.quad	.Letext0-.Ltext0
	.quad	.LFB40
	.quad	.LFE40-.LFB40
	.quad	.LFB652
	.quad	.LFE652-.LFB652
	.quad	.LFB907
	.quad	.LFE907-.LFB907
	.quad	.LFB2572
	.quad	.LFE2572-.LFB2572
	.quad	.LFB2575
	.quad	.LFE2575-.LFB2575
	.quad	.LFB2578
	.quad	.LFE2578-.LFB2578
	.quad	.LFB2848
	.quad	.LFE2848-.LFB2848
	.quad	.LFB2850
	.quad	.LFE2850-.LFB2850
	.quad	.LFB2852
	.quad	.LFE2852-.LFB2852
	.quad	.LFB2854
	.quad	.LFE2854-.LFB2854
	.quad	.LFB2857
	.quad	.LFE2857-.LFB2857
	.quad	.LFB2860
	.quad	.LFE2860-.LFB2860
	.quad	.LFB2862
	.quad	.LFE2862-.LFB2862
	.quad	.LFB2868
	.quad	.LFE2868-.LFB2868
	.quad	.LFB2870
	.quad	.LFE2870-.LFB2870
	.quad	.LFB2872
	.quad	.LFE2872-.LFB2872
	.quad	.LFB2874
	.quad	.LFE2874-.LFB2874
	.quad	.LFB2877
	.quad	.LFE2877-.LFB2877
	.quad	.LFB2879
	.quad	.LFE2879-.LFB2879
	.quad	.LFB2880
	.quad	.LFE2880-.LFB2880
	.quad	.LFB2988
	.quad	.LFE2988-.LFB2988
	.quad	.LFB2991
	.quad	.LFE2991-.LFB2991
	.quad	.LFB2994
	.quad	.LFE2994-.LFB2994
	.quad	.LFB2997
	.quad	.LFE2997-.LFB2997
	.quad	.LFB3000
	.quad	.LFE3000-.LFB3000
	.quad	.LFB3003
	.quad	.LFE3003-.LFB3003
	.quad	.LFB3006
	.quad	.LFE3006-.LFB3006
	.quad	.LFB3005
	.quad	.LFE3005-.LFB3005
	.quad	.LFB3007
	.quad	.LFE3007-.LFB3007
	.quad	.LFB3008
	.quad	.LFE3008-.LFB3008
	.quad	.LFB3010
	.quad	.LFE3010-.LFB3010
	.quad	.LFB3012
	.quad	.LFE3012-.LFB3012
	.quad	.LFB3013
	.quad	.LFE3013-.LFB3013
	.quad	.LFB3014
	.quad	.LFE3014-.LFB3014
	.quad	.LFB3015
	.quad	.LFE3015-.LFB3015
	.quad	.LFB3016
	.quad	.LFE3016-.LFB3016
	.quad	.LFB3017
	.quad	.LFE3017-.LFB3017
	.quad	.LFB3018
	.quad	.LFE3018-.LFB3018
	.quad	.LFB3020
	.quad	.LFE3020-.LFB3020
	.quad	.LFB3025
	.quad	.LFE3025-.LFB3025
	.quad	.LFB3027
	.quad	.LFE3027-.LFB3027
	.quad	.LFB3032
	.quad	.LFE3032-.LFB3032
	.quad	.LFB3033
	.quad	.LFE3033-.LFB3033
	.quad	.LFB3022
	.quad	.LFE3022-.LFB3022
	.quad	.LFB3035
	.quad	.LFE3035-.LFB3035
	.quad	.LFB3034
	.quad	.LFE3034-.LFB3034
	.quad	.LFB3037
	.quad	.LFE3037-.LFB3037
	.quad	.LFB3038
	.quad	.LFE3038-.LFB3038
	.quad	.LFB3036
	.quad	.LFE3036-.LFB3036
	.quad	.LFB3039
	.quad	.LFE3039-.LFB3039
	.quad	.LFB3109
	.quad	.LFE3109-.LFB3109
	.quad	.LFB3112
	.quad	.LFE3112-.LFB3112
	.quad	.LFB3115
	.quad	.LFE3115-.LFB3115
	.quad	.LFB3117
	.quad	.LFE3117-.LFB3117
	.quad	.LFB3119
	.quad	.LFE3119-.LFB3119
	.quad	.LFB3122
	.quad	.LFE3122-.LFB3122
	.quad	.LFB3125
	.quad	.LFE3125-.LFB3125
	.quad	.LFB3127
	.quad	.LFE3127-.LFB3127
	.quad	.LFB3128
	.quad	.LFE3128-.LFB3128
	.quad	.LFB3130
	.quad	.LFE3130-.LFB3130
	.quad	.LFB3129
	.quad	.LFE3129-.LFB3129
	.quad	.LFB3131
	.quad	.LFE3131-.LFB3131
	.quad	.LFB3132
	.quad	.LFE3132-.LFB3132
	.quad	.LFB3133
	.quad	.LFE3133-.LFB3133
	.quad	.LFB3134
	.quad	.LFE3134-.LFB3134
	.quad	.LFB3135
	.quad	.LFE3135-.LFB3135
	.quad	.LFB3137
	.quad	.LFE3137-.LFB3137
	.quad	.LFB3138
	.quad	.LFE3138-.LFB3138
	.quad	.LFB3140
	.quad	.LFE3140-.LFB3140
	.quad	.LFB3142
	.quad	.LFE3142-.LFB3142
	.quad	.LFB3143
	.quad	.LFE3143-.LFB3143
	.quad	.LFB3145
	.quad	.LFE3145-.LFB3145
	.quad	.LFB3147
	.quad	.LFE3147-.LFB3147
	.quad	.LFB3148
	.quad	.LFE3148-.LFB3148
	.quad	.LFB3149
	.quad	.LFE3149-.LFB3149
	.quad	.LFB3150
	.quad	.LFE3150-.LFB3150
	.quad	.LFB3151
	.quad	.LFE3151-.LFB3151
	.quad	.LFB3152
	.quad	.LFE3152-.LFB3152
	.quad	.LFB3153
	.quad	.LFE3153-.LFB3153
	.quad	.LFB3154
	.quad	.LFE3154-.LFB3154
	.quad	.LFB3155
	.quad	.LFE3155-.LFB3155
	.quad	.LFB3156
	.quad	.LFE3156-.LFB3156
	.quad	.LFB3212
	.quad	.LFE3212-.LFB3212
	.quad	.LFB3214
	.quad	.LFE3214-.LFB3214
	.quad	.LFB3216
	.quad	.LFE3216-.LFB3216
	.quad	.LFB3218
	.quad	.LFE3218-.LFB3218
	.quad	.LFB3219
	.quad	.LFE3219-.LFB3219
	.quad	.LFB3220
	.quad	.LFE3220-.LFB3220
	.quad	.LFB3221
	.quad	.LFE3221-.LFB3221
	.quad	.LFB3222
	.quad	.LFE3222-.LFB3222
	.quad	.LFB3223
	.quad	.LFE3223-.LFB3223
	.quad	.LFB3225
	.quad	.LFE3225-.LFB3225
	.quad	.LFB3227
	.quad	.LFE3227-.LFB3227
	.quad	.LFB3228
	.quad	.LFE3228-.LFB3228
	.quad	.LFB3229
	.quad	.LFE3229-.LFB3229
	.quad	.LFB3230
	.quad	.LFE3230-.LFB3230
	.quad	.LFB3234
	.quad	.LFE3234-.LFB3234
	.quad	.LFB3235
	.quad	.LFE3235-.LFB3235
	.quad	.LFB3236
	.quad	.LFE3236-.LFB3236
	.quad	.LFB3237
	.quad	.LFE3237-.LFB3237
	.quad	.LFB3239
	.quad	.LFE3239-.LFB3239
	.quad	.LFB3241
	.quad	.LFE3241-.LFB3241
	.quad	.LFB3243
	.quad	.LFE3243-.LFB3243
	.quad	.LFB3246
	.quad	.LFE3246-.LFB3246
	.quad	.LFB3248
	.quad	.LFE3248-.LFB3248
	.quad	.LFB3250
	.quad	.LFE3250-.LFB3250
	.quad	.LFB3253
	.quad	.LFE3253-.LFB3253
	.quad	.LFB3255
	.quad	.LFE3255-.LFB3255
	.quad	.LFB3256
	.quad	.LFE3256-.LFB3256
	.quad	.LFB3258
	.quad	.LFE3258-.LFB3258
	.quad	.LFB3280
	.quad	.LFE3280-.LFB3280
	.quad	.LFB3281
	.quad	.LFE3281-.LFB3281
	.quad	.LFB3282
	.quad	.LFE3282-.LFB3282
	.quad	.LFB3283
	.quad	.LFE3283-.LFB3283
	.quad	.LFB3285
	.quad	.LFE3285-.LFB3285
	.quad	.LFB3286
	.quad	.LFE3286-.LFB3286
	.quad	.LFB3287
	.quad	.LFE3287-.LFB3287
	.quad	.LFB3288
	.quad	.LFE3288-.LFB3288
	.quad	.LFB3289
	.quad	.LFE3289-.LFB3289
	.quad	.LFB3290
	.quad	.LFE3290-.LFB3290
	.quad	.LFB3291
	.quad	.LFE3291-.LFB3291
	.quad	.LFB3292
	.quad	.LFE3292-.LFB3292
	.quad	.LFB3293
	.quad	.LFE3293-.LFB3293
	.quad	.LFB3295
	.quad	.LFE3295-.LFB3295
	.quad	.LFB3297
	.quad	.LFE3297-.LFB3297
	.quad	.LFB3298
	.quad	.LFE3298-.LFB3298
	.quad	.LFB3299
	.quad	.LFE3299-.LFB3299
	.quad	.LFB3301
	.quad	.LFE3301-.LFB3301
	.quad	.LFB3303
	.quad	.LFE3303-.LFB3303
	.quad	.LFB3305
	.quad	.LFE3305-.LFB3305
	.quad	.LFB3307
	.quad	.LFE3307-.LFB3307
	.quad	.LFB3308
	.quad	.LFE3308-.LFB3308
	.quad	.LFB3309
	.quad	.LFE3309-.LFB3309
	.quad	.LFB3310
	.quad	.LFE3310-.LFB3310
	.quad	.LFB3311
	.quad	.LFE3311-.LFB3311
	.quad	.LFB3312
	.quad	.LFE3312-.LFB3312
	.quad	.LFB3313
	.quad	.LFE3313-.LFB3313
	.quad	.LFB3314
	.quad	.LFE3314-.LFB3314
	.quad	.LFB3315
	.quad	.LFE3315-.LFB3315
	.quad	.LFB3325
	.quad	.LFE3325-.LFB3325
	.quad	.LFB3326
	.quad	.LFE3326-.LFB3326
	.quad	.LFB3327
	.quad	.LFE3327-.LFB3327
	.quad	.LFB3328
	.quad	.LFE3328-.LFB3328
	.quad	.LFB3329
	.quad	.LFE3329-.LFB3329
	.quad	.LFB3330
	.quad	.LFE3330-.LFB3330
	.quad	.LFB3331
	.quad	.LFE3331-.LFB3331
	.quad	.LFB3332
	.quad	.LFE3332-.LFB3332
	.quad	.LFB3333
	.quad	.LFE3333-.LFB3333
	.quad	.LFB3334
	.quad	.LFE3334-.LFB3334
	.quad	.LFB3335
	.quad	.LFE3335-.LFB3335
	.quad	.LFB3336
	.quad	.LFE3336-.LFB3336
	.quad	.LFB3338
	.quad	.LFE3338-.LFB3338
	.quad	.LFB3340
	.quad	.LFE3340-.LFB3340
	.quad	.LFB3341
	.quad	.LFE3341-.LFB3341
	.quad	.LFB3342
	.quad	.LFE3342-.LFB3342
	.quad	.LFB3343
	.quad	.LFE3343-.LFB3343
	.quad	.LFB3344
	.quad	.LFE3344-.LFB3344
	.quad	.LFB3345
	.quad	.LFE3345-.LFB3345
	.quad	.LFB3346
	.quad	.LFE3346-.LFB3346
	.quad	.LFB3347
	.quad	.LFE3347-.LFB3347
	.quad	.LFB3348
	.quad	.LFE3348-.LFB3348
	.quad	.LFB3349
	.quad	.LFE3349-.LFB3349
	.quad	.LFB3355
	.quad	.LFE3355-.LFB3355
	.quad	.LFB3356
	.quad	.LFE3356-.LFB3356
	.quad	.LFB3357
	.quad	.LFE3357-.LFB3357
	.quad	.LFB3358
	.quad	.LFE3358-.LFB3358
	.quad	.LFB3359
	.quad	.LFE3359-.LFB3359
	.quad	.LFB3360
	.quad	.LFE3360-.LFB3360
	.quad	.LFB3361
	.quad	.LFE3361-.LFB3361
	.quad	.LFB3362
	.quad	.LFE3362-.LFB3362
	.quad	.LFB3363
	.quad	.LFE3363-.LFB3363
	.quad	.LFB3364
	.quad	.LFE3364-.LFB3364
	.quad	.LFB3365
	.quad	.LFE3365-.LFB3365
	.quad	.LFB3366
	.quad	.LFE3366-.LFB3366
	.quad	.LFB3367
	.quad	.LFE3367-.LFB3367
	.quad	.LFB3368
	.quad	.LFE3368-.LFB3368
	.quad	.LFB3369
	.quad	.LFE3369-.LFB3369
	.quad	.LFB3371
	.quad	.LFE3371-.LFB3371
	.quad	.LFB3372
	.quad	.LFE3372-.LFB3372
	.quad	.LFB3373
	.quad	.LFE3373-.LFB3373
	.quad	.LFB3374
	.quad	.LFE3374-.LFB3374
	.quad	.LFB3375
	.quad	.LFE3375-.LFB3375
	.quad	.LFB3376
	.quad	.LFE3376-.LFB3376
	.quad	.LFB3377
	.quad	.LFE3377-.LFB3377
	.quad	.LFB3378
	.quad	.LFE3378-.LFB3378
	.quad	.LFB3379
	.quad	.LFE3379-.LFB3379
	.quad	.LFB3380
	.quad	.LFE3380-.LFB3380
	.quad	.LFB3381
	.quad	.LFE3381-.LFB3381
	.quad	.LFB3382
	.quad	.LFE3382-.LFB3382
	.quad	.LFB3383
	.quad	.LFE3383-.LFB3383
	.quad	.LFB3384
	.quad	.LFE3384-.LFB3384
	.quad	.LFB3385
	.quad	.LFE3385-.LFB3385
	.quad	.LFB3386
	.quad	.LFE3386-.LFB3386
	.quad	.LFB3387
	.quad	.LFE3387-.LFB3387
	.quad	.LFB3388
	.quad	.LFE3388-.LFB3388
	.quad	.LFB3389
	.quad	.LFE3389-.LFB3389
	.quad	.LFB3390
	.quad	.LFE3390-.LFB3390
	.quad	.LFB3391
	.quad	.LFE3391-.LFB3391
	.quad	.LFB3392
	.quad	.LFE3392-.LFB3392
	.quad	0
	.quad	0
	.section	.debug_rnglists,"",@progbits
.Ldebug_ranges0:
	.long	.Ldebug_ranges3-.Ldebug_ranges2
.Ldebug_ranges2:
	.value	0x5
	.byte	0x8
	.byte	0
	.long	0
.LLRL0:
	.byte	0x5
	.quad	.LBB38
	.byte	0x4
	.uleb128 .LBB38-.LBB38
	.uleb128 .LBE38-.LBB38
	.byte	0x4
	.uleb128 .LBB44-.LBB38
	.uleb128 .LBE44-.LBB38
	.byte	0x4
	.uleb128 .LBB45-.LBB38
	.uleb128 .LBE45-.LBB38
	.byte	0
.LLRL1:
	.byte	0x5
	.quad	.LBB40
	.byte	0x4
	.uleb128 .LBB40-.LBB40
	.uleb128 .LBE40-.LBB40
	.byte	0x4
	.uleb128 .LBB41-.LBB40
	.uleb128 .LBE41-.LBB40
	.byte	0
.LLRL2:
	.byte	0x7
	.quad	.Ltext0
	.uleb128 .Letext0-.Ltext0
	.byte	0x7
	.quad	.LFB40
	.uleb128 .LFE40-.LFB40
	.byte	0x7
	.quad	.LFB652
	.uleb128 .LFE652-.LFB652
	.byte	0x7
	.quad	.LFB907
	.uleb128 .LFE907-.LFB907
	.byte	0x7
	.quad	.LFB2572
	.uleb128 .LFE2572-.LFB2572
	.byte	0x7
	.quad	.LFB2575
	.uleb128 .LFE2575-.LFB2575
	.byte	0x7
	.quad	.LFB2578
	.uleb128 .LFE2578-.LFB2578
	.byte	0x7
	.quad	.LFB2848
	.uleb128 .LFE2848-.LFB2848
	.byte	0x7
	.quad	.LFB2850
	.uleb128 .LFE2850-.LFB2850
	.byte	0x7
	.quad	.LFB2852
	.uleb128 .LFE2852-.LFB2852
	.byte	0x7
	.quad	.LFB2854
	.uleb128 .LFE2854-.LFB2854
	.byte	0x7
	.quad	.LFB2857
	.uleb128 .LFE2857-.LFB2857
	.byte	0x7
	.quad	.LFB2860
	.uleb128 .LFE2860-.LFB2860
	.byte	0x7
	.quad	.LFB2862
	.uleb128 .LFE2862-.LFB2862
	.byte	0x7
	.quad	.LFB2868
	.uleb128 .LFE2868-.LFB2868
	.byte	0x7
	.quad	.LFB2870
	.uleb128 .LFE2870-.LFB2870
	.byte	0x7
	.quad	.LFB2872
	.uleb128 .LFE2872-.LFB2872
	.byte	0x7
	.quad	.LFB2874
	.uleb128 .LFE2874-.LFB2874
	.byte	0x7
	.quad	.LFB2877
	.uleb128 .LFE2877-.LFB2877
	.byte	0x7
	.quad	.LFB2879
	.uleb128 .LFE2879-.LFB2879
	.byte	0x7
	.quad	.LFB2880
	.uleb128 .LFE2880-.LFB2880
	.byte	0x7
	.quad	.LFB2988
	.uleb128 .LFE2988-.LFB2988
	.byte	0x7
	.quad	.LFB2991
	.uleb128 .LFE2991-.LFB2991
	.byte	0x7
	.quad	.LFB2994
	.uleb128 .LFE2994-.LFB2994
	.byte	0x7
	.quad	.LFB2997
	.uleb128 .LFE2997-.LFB2997
	.byte	0x7
	.quad	.LFB3000
	.uleb128 .LFE3000-.LFB3000
	.byte	0x7
	.quad	.LFB3003
	.uleb128 .LFE3003-.LFB3003
	.byte	0x7
	.quad	.LFB3006
	.uleb128 .LFE3006-.LFB3006
	.byte	0x7
	.quad	.LFB3005
	.uleb128 .LFE3005-.LFB3005
	.byte	0x7
	.quad	.LFB3007
	.uleb128 .LFE3007-.LFB3007
	.byte	0x7
	.quad	.LFB3008
	.uleb128 .LFE3008-.LFB3008
	.byte	0x7
	.quad	.LFB3010
	.uleb128 .LFE3010-.LFB3010
	.byte	0x7
	.quad	.LFB3012
	.uleb128 .LFE3012-.LFB3012
	.byte	0x7
	.quad	.LFB3013
	.uleb128 .LFE3013-.LFB3013
	.byte	0x7
	.quad	.LFB3014
	.uleb128 .LFE3014-.LFB3014
	.byte	0x7
	.quad	.LFB3015
	.uleb128 .LFE3015-.LFB3015
	.byte	0x7
	.quad	.LFB3016
	.uleb128 .LFE3016-.LFB3016
	.byte	0x7
	.quad	.LFB3017
	.uleb128 .LFE3017-.LFB3017
	.byte	0x7
	.quad	.LFB3018
	.uleb128 .LFE3018-.LFB3018
	.byte	0x7
	.quad	.LFB3020
	.uleb128 .LFE3020-.LFB3020
	.byte	0x7
	.quad	.LFB3025
	.uleb128 .LFE3025-.LFB3025
	.byte	0x7
	.quad	.LFB3027
	.uleb128 .LFE3027-.LFB3027
	.byte	0x7
	.quad	.LFB3032
	.uleb128 .LFE3032-.LFB3032
	.byte	0x7
	.quad	.LFB3033
	.uleb128 .LFE3033-.LFB3033
	.byte	0x7
	.quad	.LFB3022
	.uleb128 .LFE3022-.LFB3022
	.byte	0x7
	.quad	.LFB3035
	.uleb128 .LFE3035-.LFB3035
	.byte	0x7
	.quad	.LFB3034
	.uleb128 .LFE3034-.LFB3034
	.byte	0x7
	.quad	.LFB3037
	.uleb128 .LFE3037-.LFB3037
	.byte	0x7
	.quad	.LFB3038
	.uleb128 .LFE3038-.LFB3038
	.byte	0x7
	.quad	.LFB3036
	.uleb128 .LFE3036-.LFB3036
	.byte	0x7
	.quad	.LFB3039
	.uleb128 .LFE3039-.LFB3039
	.byte	0x7
	.quad	.LFB3109
	.uleb128 .LFE3109-.LFB3109
	.byte	0x7
	.quad	.LFB3112
	.uleb128 .LFE3112-.LFB3112
	.byte	0x7
	.quad	.LFB3115
	.uleb128 .LFE3115-.LFB3115
	.byte	0x7
	.quad	.LFB3117
	.uleb128 .LFE3117-.LFB3117
	.byte	0x7
	.quad	.LFB3119
	.uleb128 .LFE3119-.LFB3119
	.byte	0x7
	.quad	.LFB3122
	.uleb128 .LFE3122-.LFB3122
	.byte	0x7
	.quad	.LFB3125
	.uleb128 .LFE3125-.LFB3125
	.byte	0x7
	.quad	.LFB3127
	.uleb128 .LFE3127-.LFB3127
	.byte	0x7
	.quad	.LFB3128
	.uleb128 .LFE3128-.LFB3128
	.byte	0x7
	.quad	.LFB3130
	.uleb128 .LFE3130-.LFB3130
	.byte	0x7
	.quad	.LFB3129
	.uleb128 .LFE3129-.LFB3129
	.byte	0x7
	.quad	.LFB3131
	.uleb128 .LFE3131-.LFB3131
	.byte	0x7
	.quad	.LFB3132
	.uleb128 .LFE3132-.LFB3132
	.byte	0x7
	.quad	.LFB3133
	.uleb128 .LFE3133-.LFB3133
	.byte	0x7
	.quad	.LFB3134
	.uleb128 .LFE3134-.LFB3134
	.byte	0x7
	.quad	.LFB3135
	.uleb128 .LFE3135-.LFB3135
	.byte	0x7
	.quad	.LFB3137
	.uleb128 .LFE3137-.LFB3137
	.byte	0x7
	.quad	.LFB3138
	.uleb128 .LFE3138-.LFB3138
	.byte	0x7
	.quad	.LFB3140
	.uleb128 .LFE3140-.LFB3140
	.byte	0x7
	.quad	.LFB3142
	.uleb128 .LFE3142-.LFB3142
	.byte	0x7
	.quad	.LFB3143
	.uleb128 .LFE3143-.LFB3143
	.byte	0x7
	.quad	.LFB3145
	.uleb128 .LFE3145-.LFB3145
	.byte	0x7
	.quad	.LFB3147
	.uleb128 .LFE3147-.LFB3147
	.byte	0x7
	.quad	.LFB3148
	.uleb128 .LFE3148-.LFB3148
	.byte	0x7
	.quad	.LFB3149
	.uleb128 .LFE3149-.LFB3149
	.byte	0x7
	.quad	.LFB3150
	.uleb128 .LFE3150-.LFB3150
	.byte	0x7
	.quad	.LFB3151
	.uleb128 .LFE3151-.LFB3151
	.byte	0x7
	.quad	.LFB3152
	.uleb128 .LFE3152-.LFB3152
	.byte	0x7
	.quad	.LFB3153
	.uleb128 .LFE3153-.LFB3153
	.byte	0x7
	.quad	.LFB3154
	.uleb128 .LFE3154-.LFB3154
	.byte	0x7
	.quad	.LFB3155
	.uleb128 .LFE3155-.LFB3155
	.byte	0x7
	.quad	.LFB3156
	.uleb128 .LFE3156-.LFB3156
	.byte	0x7
	.quad	.LFB3212
	.uleb128 .LFE3212-.LFB3212
	.byte	0x7
	.quad	.LFB3214
	.uleb128 .LFE3214-.LFB3214
	.byte	0x7
	.quad	.LFB3216
	.uleb128 .LFE3216-.LFB3216
	.byte	0x7
	.quad	.LFB3218
	.uleb128 .LFE3218-.LFB3218
	.byte	0x7
	.quad	.LFB3219
	.uleb128 .LFE3219-.LFB3219
	.byte	0x7
	.quad	.LFB3220
	.uleb128 .LFE3220-.LFB3220
	.byte	0x7
	.quad	.LFB3221
	.uleb128 .LFE3221-.LFB3221
	.byte	0x7
	.quad	.LFB3222
	.uleb128 .LFE3222-.LFB3222
	.byte	0x7
	.quad	.LFB3223
	.uleb128 .LFE3223-.LFB3223
	.byte	0x7
	.quad	.LFB3225
	.uleb128 .LFE3225-.LFB3225
	.byte	0x7
	.quad	.LFB3227
	.uleb128 .LFE3227-.LFB3227
	.byte	0x7
	.quad	.LFB3228
	.uleb128 .LFE3228-.LFB3228
	.byte	0x7
	.quad	.LFB3229
	.uleb128 .LFE3229-.LFB3229
	.byte	0x7
	.quad	.LFB3230
	.uleb128 .LFE3230-.LFB3230
	.byte	0x7
	.quad	.LFB3234
	.uleb128 .LFE3234-.LFB3234
	.byte	0x7
	.quad	.LFB3235
	.uleb128 .LFE3235-.LFB3235
	.byte	0x7
	.quad	.LFB3236
	.uleb128 .LFE3236-.LFB3236
	.byte	0x7
	.quad	.LFB3237
	.uleb128 .LFE3237-.LFB3237
	.byte	0x7
	.quad	.LFB3239
	.uleb128 .LFE3239-.LFB3239
	.byte	0x7
	.quad	.LFB3241
	.uleb128 .LFE3241-.LFB3241
	.byte	0x7
	.quad	.LFB3243
	.uleb128 .LFE3243-.LFB3243
	.byte	0x7
	.quad	.LFB3246
	.uleb128 .LFE3246-.LFB3246
	.byte	0x7
	.quad	.LFB3248
	.uleb128 .LFE3248-.LFB3248
	.byte	0x7
	.quad	.LFB3250
	.uleb128 .LFE3250-.LFB3250
	.byte	0x7
	.quad	.LFB3253
	.uleb128 .LFE3253-.LFB3253
	.byte	0x7
	.quad	.LFB3255
	.uleb128 .LFE3255-.LFB3255
	.byte	0x7
	.quad	.LFB3256
	.uleb128 .LFE3256-.LFB3256
	.byte	0x7
	.quad	.LFB3258
	.uleb128 .LFE3258-.LFB3258
	.byte	0x7
	.quad	.LFB3280
	.uleb128 .LFE3280-.LFB3280
	.byte	0x7
	.quad	.LFB3281
	.uleb128 .LFE3281-.LFB3281
	.byte	0x7
	.quad	.LFB3282
	.uleb128 .LFE3282-.LFB3282
	.byte	0x7
	.quad	.LFB3283
	.uleb128 .LFE3283-.LFB3283
	.byte	0x7
	.quad	.LFB3285
	.uleb128 .LFE3285-.LFB3285
	.byte	0x7
	.quad	.LFB3286
	.uleb128 .LFE3286-.LFB3286
	.byte	0x7
	.quad	.LFB3287
	.uleb128 .LFE3287-.LFB3287
	.byte	0x7
	.quad	.LFB3288
	.uleb128 .LFE3288-.LFB3288
	.byte	0x7
	.quad	.LFB3289
	.uleb128 .LFE3289-.LFB3289
	.byte	0x7
	.quad	.LFB3290
	.uleb128 .LFE3290-.LFB3290
	.byte	0x7
	.quad	.LFB3291
	.uleb128 .LFE3291-.LFB3291
	.byte	0x7
	.quad	.LFB3292
	.uleb128 .LFE3292-.LFB3292
	.byte	0x7
	.quad	.LFB3293
	.uleb128 .LFE3293-.LFB3293
	.byte	0x7
	.quad	.LFB3295
	.uleb128 .LFE3295-.LFB3295
	.byte	0x7
	.quad	.LFB3297
	.uleb128 .LFE3297-.LFB3297
	.byte	0x7
	.quad	.LFB3298
	.uleb128 .LFE3298-.LFB3298
	.byte	0x7
	.quad	.LFB3299
	.uleb128 .LFE3299-.LFB3299
	.byte	0x7
	.quad	.LFB3301
	.uleb128 .LFE3301-.LFB3301
	.byte	0x7
	.quad	.LFB3303
	.uleb128 .LFE3303-.LFB3303
	.byte	0x7
	.quad	.LFB3305
	.uleb128 .LFE3305-.LFB3305
	.byte	0x7
	.quad	.LFB3307
	.uleb128 .LFE3307-.LFB3307
	.byte	0x7
	.quad	.LFB3308
	.uleb128 .LFE3308-.LFB3308
	.byte	0x7
	.quad	.LFB3309
	.uleb128 .LFE3309-.LFB3309
	.byte	0x7
	.quad	.LFB3310
	.uleb128 .LFE3310-.LFB3310
	.byte	0x7
	.quad	.LFB3311
	.uleb128 .LFE3311-.LFB3311
	.byte	0x7
	.quad	.LFB3312
	.uleb128 .LFE3312-.LFB3312
	.byte	0x7
	.quad	.LFB3313
	.uleb128 .LFE3313-.LFB3313
	.byte	0x7
	.quad	.LFB3314
	.uleb128 .LFE3314-.LFB3314
	.byte	0x7
	.quad	.LFB3315
	.uleb128 .LFE3315-.LFB3315
	.byte	0x7
	.quad	.LFB3325
	.uleb128 .LFE3325-.LFB3325
	.byte	0x7
	.quad	.LFB3326
	.uleb128 .LFE3326-.LFB3326
	.byte	0x7
	.quad	.LFB3327
	.uleb128 .LFE3327-.LFB3327
	.byte	0x7
	.quad	.LFB3328
	.uleb128 .LFE3328-.LFB3328
	.byte	0x7
	.quad	.LFB3329
	.uleb128 .LFE3329-.LFB3329
	.byte	0x7
	.quad	.LFB3330
	.uleb128 .LFE3330-.LFB3330
	.byte	0x7
	.quad	.LFB3331
	.uleb128 .LFE3331-.LFB3331
	.byte	0x7
	.quad	.LFB3332
	.uleb128 .LFE3332-.LFB3332
	.byte	0x7
	.quad	.LFB3333
	.uleb128 .LFE3333-.LFB3333
	.byte	0x7
	.quad	.LFB3334
	.uleb128 .LFE3334-.LFB3334
	.byte	0x7
	.quad	.LFB3335
	.uleb128 .LFE3335-.LFB3335
	.byte	0x7
	.quad	.LFB3336
	.uleb128 .LFE3336-.LFB3336
	.byte	0x7
	.quad	.LFB3338
	.uleb128 .LFE3338-.LFB3338
	.byte	0x7
	.quad	.LFB3340
	.uleb128 .LFE3340-.LFB3340
	.byte	0x7
	.quad	.LFB3341
	.uleb128 .LFE3341-.LFB3341
	.byte	0x7
	.quad	.LFB3342
	.uleb128 .LFE3342-.LFB3342
	.byte	0x7
	.quad	.LFB3343
	.uleb128 .LFE3343-.LFB3343
	.byte	0x7
	.quad	.LFB3344
	.uleb128 .LFE3344-.LFB3344
	.byte	0x7
	.quad	.LFB3345
	.uleb128 .LFE3345-.LFB3345
	.byte	0x7
	.quad	.LFB3346
	.uleb128 .LFE3346-.LFB3346
	.byte	0x7
	.quad	.LFB3347
	.uleb128 .LFE3347-.LFB3347
	.byte	0x7
	.quad	.LFB3348
	.uleb128 .LFE3348-.LFB3348
	.byte	0x7
	.quad	.LFB3349
	.uleb128 .LFE3349-.LFB3349
	.byte	0x7
	.quad	.LFB3355
	.uleb128 .LFE3355-.LFB3355
	.byte	0x7
	.quad	.LFB3356
	.uleb128 .LFE3356-.LFB3356
	.byte	0x7
	.quad	.LFB3357
	.uleb128 .LFE3357-.LFB3357
	.byte	0x7
	.quad	.LFB3358
	.uleb128 .LFE3358-.LFB3358
	.byte	0x7
	.quad	.LFB3359
	.uleb128 .LFE3359-.LFB3359
	.byte	0x7
	.quad	.LFB3360
	.uleb128 .LFE3360-.LFB3360
	.byte	0x7
	.quad	.LFB3361
	.uleb128 .LFE3361-.LFB3361
	.byte	0x7
	.quad	.LFB3362
	.uleb128 .LFE3362-.LFB3362
	.byte	0x7
	.quad	.LFB3363
	.uleb128 .LFE3363-.LFB3363
	.byte	0x7
	.quad	.LFB3364
	.uleb128 .LFE3364-.LFB3364
	.byte	0x7
	.quad	.LFB3365
	.uleb128 .LFE3365-.LFB3365
	.byte	0x7
	.quad	.LFB3366
	.uleb128 .LFE3366-.LFB3366
	.byte	0x7
	.quad	.LFB3367
	.uleb128 .LFE3367-.LFB3367
	.byte	0x7
	.quad	.LFB3368
	.uleb128 .LFE3368-.LFB3368
	.byte	0x7
	.quad	.LFB3369
	.uleb128 .LFE3369-.LFB3369
	.byte	0x7
	.quad	.LFB3371
	.uleb128 .LFE3371-.LFB3371
	.byte	0x7
	.quad	.LFB3372
	.uleb128 .LFE3372-.LFB3372
	.byte	0x7
	.quad	.LFB3373
	.uleb128 .LFE3373-.LFB3373
	.byte	0x7
	.quad	.LFB3374
	.uleb128 .LFE3374-.LFB3374
	.byte	0x7
	.quad	.LFB3375
	.uleb128 .LFE3375-.LFB3375
	.byte	0x7
	.quad	.LFB3376
	.uleb128 .LFE3376-.LFB3376
	.byte	0x7
	.quad	.LFB3377
	.uleb128 .LFE3377-.LFB3377
	.byte	0x7
	.quad	.LFB3378
	.uleb128 .LFE3378-.LFB3378
	.byte	0x7
	.quad	.LFB3379
	.uleb128 .LFE3379-.LFB3379
	.byte	0x7
	.quad	.LFB3380
	.uleb128 .LFE3380-.LFB3380
	.byte	0x7
	.quad	.LFB3381
	.uleb128 .LFE3381-.LFB3381
	.byte	0x7
	.quad	.LFB3382
	.uleb128 .LFE3382-.LFB3382
	.byte	0x7
	.quad	.LFB3383
	.uleb128 .LFE3383-.LFB3383
	.byte	0x7
	.quad	.LFB3384
	.uleb128 .LFE3384-.LFB3384
	.byte	0x7
	.quad	.LFB3385
	.uleb128 .LFE3385-.LFB3385
	.byte	0x7
	.quad	.LFB3386
	.uleb128 .LFE3386-.LFB3386
	.byte	0x7
	.quad	.LFB3387
	.uleb128 .LFE3387-.LFB3387
	.byte	0x7
	.quad	.LFB3388
	.uleb128 .LFE3388-.LFB3388
	.byte	0x7
	.quad	.LFB3389
	.uleb128 .LFE3389-.LFB3389
	.byte	0x7
	.quad	.LFB3390
	.uleb128 .LFE3390-.LFB3390
	.byte	0x7
	.quad	.LFB3391
	.uleb128 .LFE3391-.LFB3391
	.byte	0x7
	.quad	.LFB3392
	.uleb128 .LFE3392-.LFB3392
	.byte	0
.Ldebug_ranges3:
	.section	.debug_line,"",@progbits
.Ldebug_line0:
	.section	.debug_str,"MS",@progbits,1
.LASF226:
	.string	"_ZNSt12_Vector_baseIlSaIlEEC4ERKS0_"
.LASF874:
	.string	"long long int"
.LASF941:
	.string	"positive_sign"
.LASF385:
	.string	"_ZNKSt16initializer_listIlE5beginEv"
.LASF619:
	.string	"_ZSt4moveIRSaIlEEONSt16remove_referenceIT_E4typeEOS3_"
.LASF980:
	.string	"mbstowcs"
.LASF1089:
	.string	"_ZN9container6tensorIdJEEC4ERKS1_"
.LASF968:
	.string	"lldiv_t"
.LASF49:
	.string	"__pad5"
.LASF989:
	.string	"strtoul"
.LASF503:
	.string	"_ZNSt6vectorIdSaIdEE5eraseEN9__gnu_cxx17__normal_iteratorIPKdS1_EES6_"
.LASF958:
	.string	"getwchar"
.LASF7:
	.string	"long unsigned int"
.LASF230:
	.string	"_ZNSt12_Vector_baseIlSaIlEEC4EOS0_"
.LASF788:
	.string	"_ZN9__gnu_cxx17__normal_iteratorIPlSt6vectorIlSaIlEEEC4Ev"
.LASF1038:
	.string	"__pstl"
.LASF148:
	.string	"_InputIterator"
.LASF1029:
	.string	"tmpfile"
.LASF577:
	.string	"_ZSt12__niter_wrapIPlET_RKS1_S1_"
.LASF444:
	.string	"_ZNSt6vectorIdSaIdEE14_S_do_relocateEPdS2_S2_RS0_St17integral_constantIbLb1EE"
.LASF213:
	.string	"_ZNSt12_Vector_baseIlSaIlEE12_Vector_implC4Ev"
.LASF381:
	.string	"initializer_list"
.LASF463:
	.string	"_ZNSt6vectorIdSaIdEE6assignESt16initializer_listIdE"
.LASF48:
	.string	"_freeres_buf"
.LASF304:
	.string	"shrink_to_fit"
.LASF1063:
	.string	"tensor"
.LASF1164:
	.string	"__al"
.LASF229:
	.string	"_ZNSt12_Vector_baseIlSaIlEEC4EOS1_"
.LASF557:
	.string	"_ZSt12__niter_baseIPKlSt6vectorIlSaIlEEET_N9__gnu_cxx17__normal_iteratorIS5_T0_EE"
.LASF508:
	.string	"_ZNSt6vectorIdSaIdEE14_M_fill_assignEmRKd"
.LASF310:
	.string	"reserve"
.LASF669:
	.string	"_IIter"
.LASF1174:
	.string	"_ZNSt6vectorIlSaIlEEC2ERKS0_"
.LASF1252:
	.string	"index"
.LASF118:
	.string	"_ZNSt11char_traitsIcE7not_eofERKi"
.LASF355:
	.string	"_ZNSt6vectorIlSaIlEE16_M_shrink_to_fitEv"
.LASF691:
	.string	"__size_to_integer"
.LASF220:
	.string	"_ZNSt12_Vector_baseIlSaIlEE19_M_get_Tp_allocatorEv"
.LASF839:
	.string	"_ZNK9__gnu_cxx17__normal_iteratorIPdSt6vectorIdSaIdEEEdeEv"
.LASF372:
	.string	"_ZNSt6vectorIlSaIlEE14_M_move_assignEOS1_St17integral_constantIbLb1EE"
.LASF466:
	.string	"_ZNSt6vectorIdSaIdEE3endEv"
.LASF288:
	.string	"_ZNSt6vectorIlSaIlEE4rendEv"
.LASF532:
	.string	"iterator_traits<long int const*>"
.LASF585:
	.string	"_ZSt4copyIN9__gnu_cxx17__normal_iteratorIPKlSt6vectorIlSaIlEEEEPlET0_T_SA_S9_"
.LASF1184:
	.string	"_ZNSt6vectorIlSaIlEEC2ERKS1_"
.LASF845:
	.string	"_ZNK9__gnu_cxx17__normal_iteratorIPdSt6vectorIdSaIdEEEixEl"
.LASF294:
	.string	"crbegin"
.LASF1215:
	.string	"_ZNSt12_Vector_baseIlSaIlEE12_Vector_implC2Ev"
.LASF929:
	.string	"uintptr_t"
.LASF787:
	.string	"__normal_iterator"
.LASF483:
	.string	"_ZNSt6vectorIdSaIdEE7reserveEm"
.LASF575:
	.string	"_Iter"
.LASF1054:
	.string	"unsequenced_policy"
.LASF603:
	.string	"__relocate_a_1<double, double>"
.LASF312:
	.string	"operator[]"
.LASF321:
	.string	"_ZNKSt6vectorIlSaIlEE5frontEv"
.LASF933:
	.string	"decimal_point"
.LASF324:
	.string	"_ZNKSt6vectorIlSaIlEE4backEv"
.LASF1114:
	.string	"_ZN9container6tensorIdJLl2ELl3ELl55EEEaSERKS1_"
.LASF673:
	.string	"move<std::vector<long int>&>"
.LASF461:
	.string	"_ZNSt6vectorIdSaIdEEaSESt16initializer_listIdE"
.LASF1145:
	.string	"__first"
.LASF541:
	.string	"__copy_m<double>"
.LASF1073:
	.string	"_ZNK9container6tensorIdJLl2ELl3ELl5EEE4sizeEv"
.LASF1031:
	.string	"ungetc"
.LASF548:
	.string	"_ZSt17__throw_bad_allocv"
.LASF1094:
	.string	"_ZNK9container6tensorIdJEE5orderEv"
.LASF464:
	.string	"_ZNSt6vectorIdSaIdEE5beginEv"
.LASF501:
	.string	"_ZNSt6vectorIdSaIdEE6insertEN9__gnu_cxx17__normal_iteratorIPKdS1_EEmRS4_"
.LASF597:
	.string	"_ZSt12__equal_aux1IPlS0_EbT_S1_T0_"
.LASF899:
	.string	"__intmax_t"
.LASF932:
	.string	"lconv"
.LASF935:
	.string	"grouping"
.LASF719:
	.string	"__isoc99_vswscanf"
.LASF953:
	.string	"int_n_cs_precedes"
.LASF405:
	.string	"_ZNSt16allocator_traitsISaIdEE8allocateERS0_m"
.LASF422:
	.string	"_ZNSt12_Vector_baseIdSaIdEE12_Vector_implD4Ev"
.LASF1107:
	.string	"_ZN9container6tensorIdJEEaSIJLl2ELl3ELl55EEEERS1_RKNS0_IdJXspT_EEEE"
.LASF474:
	.string	"_ZNKSt6vectorIdSaIdEE7crbeginEv"
.LASF712:
	.string	"__isoc99_swscanf"
.LASF1074:
	.string	"shape"
.LASF343:
	.string	"_ZNSt6vectorIlSaIlEE5clearEv"
.LASF1237:
	.string	"n_indices"
.LASF664:
	.string	"__iterator_category<long int const*>"
.LASF850:
	.string	"_ZNK9__gnu_cxx17__normal_iteratorIPdSt6vectorIdSaIdEEE4baseEv"
.LASF1003:
	.string	"_IO_marker"
.LASF380:
	.string	"_M_len"
.LASF1110:
	.string	"tensor<double, 2, 3, 55>"
.LASF1083:
	.string	"_ZN9container6tensorIdJLl2ELl3ELl5EEE11_initializeEv"
.LASF1125:
	.string	"execution"
.LASF1221:
	.string	"_ZZN9container6tensorIdJLl2ELl3ELl5EEE11_initializeEvENUliE_D4Ev"
.LASF608:
	.string	"_ZSt4copyIPKlPlET0_T_S4_S3_"
.LASF918:
	.string	"uint_least32_t"
.LASF119:
	.string	"_CharT"
.LASF129:
	.string	"_BoolType"
.LASF733:
	.string	"tm_mday"
.LASF870:
	.string	"operator!=<long int*, std::vector<long int> >"
.LASF1270:
	.string	"__cxa_free_exception"
.LASF448:
	.string	"_ZNSt6vectorIdSaIdEEC4ERKS0_"
.LASF77:
	.string	"_ZNKSt15__exception_ptr13exception_ptr6_M_getEv"
.LASF1022:
	.string	"getchar"
.LASF212:
	.string	"_Vector_impl"
.LASF910:
	.string	"uint32_t"
.LASF167:
	.string	"reference"
.LASF1190:
	.string	"_ZNSt15__new_allocatorIdEC2Ev"
.LASF104:
	.string	"move"
.LASF1018:
	.string	"fseek"
.LASF250:
	.string	"_S_use_relocate"
.LASF740:
	.string	"tm_zone"
.LASF1213:
	.string	"_ZNSt6vectorIlSaIlEEC2EOS1_"
.LASF451:
	.string	"_ZNSt6vectorIdSaIdEEC4ERKS1_"
.LASF1178:
	.string	"__d1"
.LASF652:
	.string	"__equal4<__gnu_cxx::__normal_iterator<long int*, std::vector<long int> >, __gnu_cxx::__normal_iterator<long int*, std::vector<long int> > >"
.LASF275:
	.string	"iterator"
.LASF6:
	.string	"long double"
.LASF522:
	.string	"initializer_list<double>"
.LASF419:
	.string	"_ZNSt12_Vector_baseIdSaIdEE12_Vector_implC4EOS0_OS2_"
.LASF688:
	.string	"_ZSt8_DestroyIPddEvT_S1_RSaIT0_E"
.LASF1179:
	.string	"__d2"
.LASF589:
	.string	"_ZSt10_ConstructIdJEEvPT_DpOT0_"
.LASF609:
	.string	"__equal_aux<__gnu_cxx::__normal_iterator<long int*, std::vector<long int> >, __gnu_cxx::__normal_iterator<long int*, std::vector<long int> > >"
.LASF1260:
	.string	"_ZNSt11char_traitsIcE3eofEv"
.LASF1005:
	.string	"_IO_wide_data"
.LASF694:
	.string	"fgetwc"
.LASF695:
	.string	"fgetws"
.LASF916:
	.string	"uint_least8_t"
.LASF133:
	.string	"__cxx11"
.LASF1220:
	.string	"_ZZN9container6tensorIdJLl2ELl3ELl5EEE11_initializeEvENUliE_C4Ev"
.LASF123:
	.string	"bidirectional_iterator_tag"
.LASF189:
	.string	"allocator_traits<std::allocator<long int> >"
.LASF581:
	.string	"_ZSt12__niter_baseIPlET_S1_"
.LASF211:
	.string	"_ZNSt12_Vector_baseIlSaIlEE17_Vector_impl_data12_M_swap_dataERS2_"
.LASF125:
	.string	"__debug"
.LASF170:
	.string	"const_reference"
.LASF571:
	.string	"_ZSt10__fill_n_aIPdmdET_S1_T0_RKT1_St26random_access_iterator_tag"
.LASF791:
	.string	"_ZNK9__gnu_cxx17__normal_iteratorIPlSt6vectorIlSaIlEEEdeEv"
.LASF217:
	.string	"_ZNSt12_Vector_baseIlSaIlEE12_Vector_implC4EOS0_OS2_"
.LASF80:
	.string	"_ZNSt15__exception_ptr13exception_ptrC4EDn"
.LASF1138:
	.string	"_Znwm"
.LASF986:
	.string	"srand"
.LASF1104:
	.string	"_ZN9container6tensorIdJEE26_diff_type_copy_initializeIJLl2ELl3ELl5EEEEvRKNS0_IdJXspT_EEEE"
.LASF800:
	.string	"_ZNK9__gnu_cxx17__normal_iteratorIPlSt6vectorIlSaIlEEEixEl"
.LASF877:
	.string	"bool"
.LASF254:
	.string	"_S_relocate"
.LASF287:
	.string	"rend"
.LASF1142:
	.string	"__cxa_allocate_exception"
.LASF236:
	.string	"_M_allocate"
.LASF604:
	.string	"_ZSt14__relocate_a_1IddENSt9enable_ifIXsrSt24__is_bitwise_relocatableIT_vE5valueEPS2_E4typeES4_S4_S4_RSaIT0_E"
.LASF896:
	.string	"__uint_least32_t"
.LASF491:
	.string	"_ZNSt6vectorIdSaIdEE4backEv"
.LASF542:
	.string	"_ZNSt11__copy_moveILb0ELb1ESt26random_access_iterator_tagE8__copy_mIdEEPT_PKS3_S6_S4_"
.LASF1076:
	.string	"_ZNK9container6tensorIdJLl2ELl3ELl5EEE5shapeEl"
.LASF298:
	.string	"size"
.LASF338:
	.string	"erase"
.LASF141:
	.string	"basic_ostream<char, std::char_traits<char> >"
.LASF1075:
	.string	"_ZNK9container6tensorIdJLl2ELl3ELl5EEE5shapeEv"
.LASF625:
	.string	"max<long unsigned int>"
.LASF203:
	.string	"_M_finish"
.LASF852:
	.string	"_ZN9__gnu_cxx17__normal_iteratorIPKdSt6vectorIdSaIdEEEC4Ev"
.LASF188:
	.string	"_ZNSaIlED4Ev"
.LASF984:
	.string	"quick_exit"
.LASF731:
	.string	"tm_min"
.LASF937:
	.string	"currency_symbol"
.LASF699:
	.string	"fwide"
.LASF973:
	.string	"atof"
.LASF974:
	.string	"atoi"
.LASF206:
	.string	"_ZNSt12_Vector_baseIlSaIlEE17_Vector_impl_dataC4EOS2_"
.LASF1208:
	.string	"_ZZN9container6tensorIdJLl2ELl3ELl55EEE11_initializeEvENUliE_C4ERKS2_"
.LASF1105:
	.string	"rhs_dims"
.LASF1061:
	.string	"container"
.LASF396:
	.string	"_ZNSt15__new_allocatorIdE10deallocateEPdm"
.LASF1090:
	.string	"_ZN9container6tensorIdJEEC4EOS1_"
.LASF569:
	.string	"_ZSt12__miter_baseIN9__gnu_cxx17__normal_iteratorIPKlSt6vectorIlSaIlEEEEET_S8_"
.LASF51:
	.string	"_unused2"
.LASF1151:
	.string	"__it"
.LASF13:
	.string	"size_t"
.LASF349:
	.string	"_ZNSt6vectorIlSaIlEE14_M_fill_assignEmRKl"
.LASF359:
	.string	"_ZNSt6vectorIlSaIlEE14_M_emplace_auxEN9__gnu_cxx17__normal_iteratorIPKlS1_EEOl"
.LASF382:
	.string	"_ZNSt16initializer_listIlEC4EPKlm"
.LASF690:
	.string	"_ZStlsISt11char_traitsIcEERSt13basic_ostreamIcT_ES5_c"
.LASF564:
	.string	"__memcmp<long int, long int>"
.LASF153:
	.string	"__uninit_default_n<double*, long unsigned int>"
.LASF184:
	.string	"operator bool"
.LASF1080:
	.string	"_data"
.LASF265:
	.string	"_ZNSt6vectorIlSaIlEEC4EOS1_RKS0_St17integral_constantIbLb0EE"
.LASF761:
	.string	"__isoc99_wscanf"
.LASF432:
	.string	"_ZNSt12_Vector_baseIdSaIdEEC4EOS1_RKS0_"
.LASF566:
	.string	"__copy_move_a<false, __gnu_cxx::__normal_iterator<long int const*, std::vector<long int> >, long int*>"
.LASF601:
	.string	"_ZSt12__niter_baseIPlSt6vectorIlSaIlEEET_N9__gnu_cxx17__normal_iteratorIS4_T0_EE"
.LASF424:
	.string	"_ZNKSt12_Vector_baseIdSaIdEE19_M_get_Tp_allocatorEv"
.LASF93:
	.string	"nullptr_t"
.LASF331:
	.string	"pop_back"
.LASF711:
	.string	"swscanf"
.LASF290:
	.string	"cbegin"
.LASF842:
	.string	"_ZN9__gnu_cxx17__normal_iteratorIPdSt6vectorIdSaIdEEEppEi"
.LASF841:
	.string	"_ZN9__gnu_cxx17__normal_iteratorIPdSt6vectorIdSaIdEEEppEv"
.LASF815:
	.string	"_ZNK9__gnu_cxx17__normal_iteratorIPKlSt6vectorIlSaIlEEEdeEv"
.LASF50:
	.string	"_mode"
.LASF1133:
	.string	"this"
.LASF596:
	.string	"__equal_aux1<long int*, long int*>"
.LASF185:
	.string	"_ZNKSt15__exception_ptr13exception_ptrcvbEv"
.LASF383:
	.string	"_ZNSt16initializer_listIlEC4Ev"
.LASF668:
	.string	"_ZSt8for_eachIN9__gnu_cxx17__normal_iteratorIPlSt6vectorIlSaIlEEEEZN9container6tensorIdJLl2ELl3ELl55EEE11_initializeEvEUliE_ET0_T_SC_SB_"
.LASF59:
	.string	"_ZNKSt17integral_constantIbLb0EEcvbEv"
.LASF357:
	.string	"_ZNSt6vectorIlSaIlEE14_M_insert_rvalEN9__gnu_cxx17__normal_iteratorIPKlS1_EEOl"
.LASF716:
	.string	"__isoc99_vfwscanf"
.LASF1132:
	.string	"_ZNSt8ios_base4InitC1Ev"
.LASF401:
	.string	"_ZNSaIdEC4ERKS_"
.LASF390:
	.string	"_ZNSt15__new_allocatorIdEC4Ev"
.LASF268:
	.string	"~vector"
.LASF962:
	.string	"5div_t"
.LASF771:
	.string	"_ZN9__gnu_cxx14__alloc_traitsISaIlElE17_S_select_on_copyERKS1_"
.LASF149:
	.string	"__uninit_copy<long int const*, long int*>"
.LASF811:
	.string	"__normal_iterator<long int const*, std::vector<long int, std::allocator<long int> > >"
.LASF702:
	.string	"__isoc99_fwscanf"
.LASF121:
	.string	"true_type"
.LASF786:
	.string	"__normal_iterator<long int*, std::vector<long int, std::allocator<long int> > >"
.LASF955:
	.string	"int_p_sign_posn"
.LASF1111:
	.string	"_ZN9container6tensorIdJLl2ELl3ELl55EEEC4Ev"
.LASF963:
	.string	"quot"
.LASF16:
	.string	"__wchb"
.LASF1171:
	.string	"__one"
.LASF107:
	.string	"_ZNSt11char_traitsIcE4copyEPcPKcm"
.LASF204:
	.string	"_M_end_of_storage"
.LASF1272:
	.string	"__static_initialization_and_destruction_0"
.LASF665:
	.string	"_ZSt19__iterator_categoryIPKlENSt15iterator_traitsIT_E17iterator_categoryERKS3_"
.LASF734:
	.string	"tm_mon"
.LASF991:
	.string	"wcstombs"
.LASF1035:
	.string	"towctrans"
.LASF1217:
	.string	"_ZZN9container6tensorIdJLl2ELl3ELl5EEE11_initializeEvENUliE_C4EOS2_"
.LASF586:
	.string	"fill_n<double*, long unsigned int, double>"
.LASF605:
	.string	"__niter_base<double*>"
.LASF975:
	.string	"atol"
.LASF336:
	.string	"_ZNSt6vectorIlSaIlEE6insertEN9__gnu_cxx17__normal_iteratorIPKlS1_EESt16initializer_listIlE"
.LASF379:
	.string	"_M_array"
.LASF1255:
	.string	"__int128"
.LASF591:
	.string	"_ZSt11__addressofIdEPT_RS0_"
.LASF768:
	.string	"__ops"
.LASF1071:
	.string	"order"
.LASF925:
	.string	"uint_fast16_t"
.LASF126:
	.string	"__equal<true>"
.LASF199:
	.string	"rebind_alloc"
.LASF884:
	.string	"__uint8_t"
.LASF732:
	.string	"tm_hour"
.LASF1265:
	.string	"_ZNSt13runtime_errorD4Ev"
.LASF105:
	.string	"_ZNSt11char_traitsIcE4moveEPcPKcm"
.LASF931:
	.string	"uintmax_t"
.LASF41:
	.string	"_vtable_offset"
.LASF1158:
	.string	"_Args"
.LASF138:
	.string	"_ZNSt8ios_base4InitC4ERKS0_"
.LASF492:
	.string	"_ZNKSt6vectorIdSaIdEE4backEv"
.LASF327:
	.string	"_ZNKSt6vectorIlSaIlEE4dataEv"
.LASF160:
	.string	"_ZNSt15__new_allocatorIlEC4ERKS0_"
.LASF71:
	.string	"_ZNSt15__exception_ptr13exception_ptrC4EPv"
.LASF475:
	.string	"_ZNKSt6vectorIdSaIdEE5crendEv"
.LASF813:
	.string	"_ZN9__gnu_cxx17__normal_iteratorIPKlSt6vectorIlSaIlEEEC4Ev"
.LASF1141:
	.string	"_ZNSt13runtime_errorC1EPKc"
.LASF279:
	.string	"_ZNKSt6vectorIlSaIlEE5beginEv"
.LASF814:
	.string	"_ZN9__gnu_cxx17__normal_iteratorIPKlSt6vectorIlSaIlEEEC4ERKS2_"
.LASF550:
	.string	"__throw_length_error"
.LASF1206:
	.string	"<lambda>"
.LASF568:
	.string	"__miter_base<__gnu_cxx::__normal_iterator<long int const*, std::vector<long int> > >"
.LASF545:
	.string	"_Category"
.LASF247:
	.string	"_S_nothrow_relocate"
.LASF1122:
	.string	"_ZNK9container6tensorIdJLl2ELl3ELl55EEE3endEv"
.LASF363:
	.string	"_ZNSt6vectorIlSaIlEE17_S_check_init_lenEmRKS0_"
.LASF981:
	.string	"mbtowc"
.LASF202:
	.string	"_M_start"
.LASF978:
	.string	"ldiv"
.LASF56:
	.string	"value_type"
.LASF737:
	.string	"tm_yday"
.LASF427:
	.string	"_ZNSt12_Vector_baseIdSaIdEEC4ERKS0_"
.LASF507:
	.string	"_ZNSt6vectorIdSaIdEE21_M_default_initializeEm"
.LASF1015:
	.string	"fopen"
.LASF313:
	.string	"_ZNSt6vectorIlSaIlEEixEm"
.LASF311:
	.string	"_ZNSt6vectorIlSaIlEE7reserveEm"
.LASF73:
	.string	"_M_release"
.LASF506:
	.string	"_ZNSt6vectorIdSaIdEE18_M_fill_initializeEmRKd"
.LASF907:
	.string	"int64_t"
.LASF726:
	.string	"wcscoll"
.LASF540:
	.string	"_ZNSt11__copy_moveILb0ELb1ESt26random_access_iterator_tagE8__copy_mIlEEPT_PKS3_S6_S4_"
.LASF796:
	.string	"_ZN9__gnu_cxx17__normal_iteratorIPlSt6vectorIlSaIlEEEppEi"
.LASF263:
	.string	"_ZNSt6vectorIlSaIlEEC4ERKS1_RKS0_"
.LASF1087:
	.string	"tensor<double>"
.LASF335:
	.string	"_ZNSt6vectorIlSaIlEE6insertEN9__gnu_cxx17__normal_iteratorIPKlS1_EEOl"
.LASF1170:
	.string	"__from"
.LASF795:
	.string	"_ZN9__gnu_cxx17__normal_iteratorIPlSt6vectorIlSaIlEEEppEv"
.LASF783:
	.string	"_ZN9__gnu_cxx14__alloc_traitsISaIlElE15_S_nothrow_moveEv"
.LASF686:
	.string	"_ZSt8_DestroyIPllEvT_S1_RSaIT0_E"
.LASF1106:
	.string	"operator=<2, 3, 55>"
.LASF549:
	.string	"_ZSt28__throw_bad_array_new_lengthv"
.LASF1229:
	.string	"_ZNSt12_Vector_baseIdSaIdEE12_Vector_implC2Ev"
.LASF1249:
	.string	"_ZN9container6tensorIdJLl2ELl3ELl55EEED2Ev"
.LASF147:
	.string	"_ZNSt20__uninitialized_copyILb1EE13__uninit_copyIN9__gnu_cxx17__normal_iteratorIPKlSt6vectorIlSaIlEEEEPlEET0_T_SC_SB_"
.LASF1193:
	.string	"_ZNSt12_Vector_baseIlSaIlEE12_Vector_implC2EOS2_"
.LASF300:
	.string	"_ZNKSt6vectorIlSaIlEE8max_sizeEv"
.LASF23:
	.string	"_flags"
.LASF1124:
	.string	"dims"
.LASF944:
	.string	"frac_digits"
.LASF1098:
	.string	"_ZNK9container6tensorIdJEE5beginEv"
.LASF347:
	.string	"_ZNSt6vectorIlSaIlEE21_M_default_initializeEm"
.LASF746:
	.string	"wcsspn"
.LASF534:
	.string	"enable_if<true, double*>"
.LASF523:
	.string	"reverse_iterator<__gnu_cxx::__normal_iterator<double*, std::vector<double, std::allocator<double> > > >"
.LASF713:
	.string	"ungetwc"
.LASF5:
	.string	"double"
.LASF233:
	.string	"~_Vector_base"
.LASF1037:
	.string	"wctype"
.LASF1102:
	.string	"_ZN9container6tensorIdJEE22_diff_type_copy_assginIJLl2ELl3ELl55EEEEvRKNS0_IdJXspT_EEEE"
.LASF33:
	.string	"_IO_backup_base"
.LASF1092:
	.string	"_ZN9container6tensorIdJEEaSEOS1_"
.LASF972:
	.string	"at_quick_exit"
.LASF20:
	.string	"__mbstate_t"
.LASF416:
	.string	"_ZNSt12_Vector_baseIdSaIdEE12_Vector_implC4ERKS0_"
.LASF259:
	.string	"_ZNSt6vectorIlSaIlEEC4EmRKS0_"
.LASF193:
	.string	"const_void_pointer"
.LASF490:
	.string	"_ZNKSt6vectorIdSaIdEE5frontEv"
.LASF961:
	.string	"11__mbstate_t"
.LASF580:
	.string	"__niter_base<long int*>"
.LASF626:
	.string	"_ZSt3maxImERKT_S2_S2_"
.LASF701:
	.string	"fwscanf"
.LASF1169:
	.string	"__allocmax"
.LASF95:
	.string	"char_type"
.LASF1021:
	.string	"getc"
.LASF1146:
	.string	"__last"
.LASF145:
	.string	"__uninitialized_copy<true>"
.LASF1072:
	.string	"_ZNK9container6tensorIdJLl2ELl3ELl5EEE5orderEv"
.LASF397:
	.string	"_ZNKSt15__new_allocatorIdE8max_sizeEv"
.LASF954:
	.string	"int_n_sep_by_space"
.LASF64:
	.string	"_ZNKSt17integral_constantIbLb1EEclEv"
.LASF144:
	.string	"ostream"
.LASF375:
	.string	"_ZNSt6vectorIlSaIlEE19_M_range_initializeIPKlEEvT_S5_St20forward_iterator_tag"
.LASF1101:
	.string	"_diff_type_copy_assgin<2, 3, 55>"
.LASF614:
	.string	"__iterator_category<__gnu_cxx::__normal_iterator<long int*, std::vector<long int> > >"
.LASF672:
	.string	"_ZSt4copyIN9__gnu_cxx17__normal_iteratorIPKdSt6vectorIdSaIdEEEENS1_IPdS6_EEET0_T_SB_SA_"
.LASF231:
	.string	"_ZNSt12_Vector_baseIlSaIlEEC4EOS1_RKS0_"
.LASF1240:
	.string	"_ZNSt6vectorIlSaIlEED2Ev"
.LASF593:
	.string	"_ZSt13__copy_move_aILb0EPKlPlET1_T0_S4_S3_"
.LASF291:
	.string	"_ZNKSt6vectorIlSaIlEE6cbeginEv"
.LASF152:
	.string	"__uninitialized_default_n_1<true>"
.LASF743:
	.string	"wcsncmp"
.LASF402:
	.string	"_ZNSaIdEaSERKS_"
.LASF25:
	.string	"_IO_read_end"
.LASF328:
	.string	"push_back"
.LASF765:
	.string	"wcsstr"
.LASF256:
	.string	"vector"
.LASF395:
	.string	"_ZNSt15__new_allocatorIdE8allocateEmPKv"
.LASF966:
	.string	"ldiv_t"
.LASF169:
	.string	"_ZNKSt15__new_allocatorIlE7addressERKl"
.LASF1198:
	.string	"_ZNSt15__new_allocatorIlED2Ev"
.LASF32:
	.string	"_IO_save_base"
.LASF505:
	.string	"_ZNSt6vectorIdSaIdEE5clearEv"
.LASF108:
	.string	"assign"
.LASF517:
	.string	"_ZNSt6vectorIdSaIdEE15_M_erase_at_endEPd"
.LASF101:
	.string	"_ZNSt11char_traitsIcE6lengthEPKc"
.LASF140:
	.string	"ios_base"
.LASF939:
	.string	"mon_thousands_sep"
.LASF602:
	.string	"__enable_if_t"
.LASF29:
	.string	"_IO_write_end"
.LASF364:
	.string	"_S_max_size"
.LASF334:
	.string	"_ZNSt6vectorIlSaIlEE6insertEN9__gnu_cxx17__normal_iteratorIPKlS1_EERS4_"
.LASF1204:
	.string	"rhs_dim_vector"
.LASF214:
	.string	"_ZNSt12_Vector_baseIlSaIlEE12_Vector_implC4ERKS0_"
.LASF612:
	.string	"_ZSt10__distanceIN9__gnu_cxx17__normal_iteratorIPlSt6vectorIlSaIlEEEEENSt15iterator_traitsIT_E15difference_typeES8_S8_St26random_access_iterator_tag"
.LASF423:
	.string	"_ZNSt12_Vector_baseIdSaIdEE19_M_get_Tp_allocatorEv"
.LASF527:
	.string	"difference_type"
.LASF826:
	.string	"_ZNK9__gnu_cxx17__normal_iteratorIPKlSt6vectorIlSaIlEEE4baseEv"
.LASF560:
	.string	"_ZSt8__fill_aIPddEvT_S1_RKT0_"
.LASF671:
	.string	"copy<__gnu_cxx::__normal_iterator<double const*, std::vector<double, std::allocator<double> > >, __gnu_cxx::__normal_iterator<double*, std::vector<double, std::allocator<double> > > >"
.LASF471:
	.string	"_ZNKSt6vectorIdSaIdEE4rendEv"
.LASF862:
	.string	"_ZNK9__gnu_cxx17__normal_iteratorIPKdSt6vectorIdSaIdEEEplEl"
.LASF723:
	.string	"wcrtomb"
.LASF635:
	.string	"__niter_wrap<__gnu_cxx::__normal_iterator<double*, std::vector<double, std::allocator<double> > >, double*>"
.LASF110:
	.string	"to_char_type"
.LASF161:
	.string	"~__new_allocator"
.LASF1216:
	.string	"_ZNSt12_Vector_baseIlSaIlEED2Ev"
.LASF30:
	.string	"_IO_buf_base"
.LASF1112:
	.string	"_ZN9container6tensorIdJLl2ELl3ELl55EEEC4ERKS1_"
.LASF393:
	.string	"_ZNKSt15__new_allocatorIdE7addressERd"
.LASF1226:
	.string	"_ZNSaIlEC2Ev"
.LASF1234:
	.string	"_ZNSt12_Vector_baseIlSaIlEEC2Ev"
.LASF631:
	.string	"equal<__gnu_cxx::__normal_iterator<long int*, std::vector<long int> >, __gnu_cxx::__normal_iterator<long int*, std::vector<long int> > >"
.LASF44:
	.string	"_offset"
.LASF886:
	.string	"__uint16_t"
.LASF1207:
	.string	"_ZZN9container6tensorIdJLl2ELl3ELl55EEE11_initializeEvENUliE_C4EOS2_"
.LASF1019:
	.string	"fsetpos"
.LASF449:
	.string	"_ZNSt6vectorIdSaIdEEC4EmRKS0_"
.LASF172:
	.string	"_ZNSt15__new_allocatorIlE8allocateEmPKv"
.LASF579:
	.string	"_ZSt14__copy_move_a1ILb0EPKlPlET1_T0_S4_S3_"
.LASF132:
	.string	"_ForwardIterator"
.LASF741:
	.string	"wcslen"
.LASF1253:
	.string	"oor_index"
.LASF682:
	.string	"_ZSt8for_eachIN9__gnu_cxx17__normal_iteratorIPlSt6vectorIlSaIlEEEEZN9container6tensorIdJLl2ELl3ELl5EEE11_initializeEvEUliE_ET0_T_SC_SB_"
.LASF191:
	.string	"allocator_type"
.LASF1017:
	.string	"freopen"
.LASF600:
	.string	"__niter_base<long int*, std::vector<long int> >"
.LASF76:
	.string	"_M_get"
.LASF911:
	.string	"uint64_t"
.LASF784:
	.string	"rebind<long int>"
.LASF387:
	.string	"reverse_iterator<__gnu_cxx::__normal_iterator<long int*, std::vector<long int, std::allocator<long int> > > >"
.LASF704:
	.string	"mbrlen"
.LASF409:
	.string	"_ZNSt16allocator_traitsISaIdEE37select_on_container_copy_constructionERKS0_"
.LASF965:
	.string	"6ldiv_t"
.LASF481:
	.string	"_ZNKSt6vectorIdSaIdEE8capacityEv"
.LASF1187:
	.string	"__new_start"
.LASF1147:
	.string	"__ioinit"
.LASF760:
	.string	"wscanf"
.LASF306:
	.string	"capacity"
.LASF869:
	.string	"_ZN9__gnu_cxxeqIPlSt6vectorIlSaIlEEEEbRKNS_17__normal_iteratorIT_T0_EESA_"
.LASF472:
	.string	"_ZNKSt6vectorIdSaIdEE6cbeginEv"
.LASF1263:
	.string	"_ZSt4cout"
.LASF720:
	.string	"vwprintf"
.LASF538:
	.string	"__copy_move<false, true, std::random_access_iterator_tag>"
.LASF687:
	.string	"_Destroy<double*, double>"
.LASF91:
	.string	"rethrow_exception"
.LASF674:
	.string	"_ZSt4moveIRSt6vectorIlSaIlEEEONSt16remove_referenceIT_E4typeEOS5_"
.LASF1137:
	.string	"operator new"
.LASF415:
	.string	"_ZNSt12_Vector_baseIdSaIdEE12_Vector_implC4Ev"
.LASF196:
	.string	"_ZNSt16allocator_traitsISaIlEE8max_sizeERKS0_"
.LASF1109:
	.string	"_ZN9container6tensorIdJEEC4IJLl2ELl3ELl5EEEERKNS0_IdJXspT_EEEE"
.LASF292:
	.string	"cend"
.LASF219:
	.string	"_M_get_Tp_allocator"
.LASF369:
	.string	"_ZNSt6vectorIlSaIlEE8_M_eraseEN9__gnu_cxx17__normal_iteratorIPlS1_EE"
.LASF350:
	.string	"_M_fill_insert"
.LASF1126:
	.string	"details"
.LASF209:
	.string	"_M_swap_data"
.LASF285:
	.string	"const_reverse_iterator"
.LASF323:
	.string	"_ZNSt6vectorIlSaIlEE4backEv"
.LASF983:
	.string	"qsort"
.LASF857:
	.string	"_ZN9__gnu_cxx17__normal_iteratorIPKdSt6vectorIdSaIdEEEppEi"
.LASF660:
	.string	"__uninitialized_copy_a<long int const*, long int*, long int>"
.LASF856:
	.string	"_ZN9__gnu_cxx17__normal_iteratorIPKdSt6vectorIdSaIdEEEppEv"
.LASF61:
	.string	"integral_constant<bool, true>"
.LASF844:
	.string	"_ZN9__gnu_cxx17__normal_iteratorIPdSt6vectorIdSaIdEEEmmEi"
.LASF329:
	.string	"_ZNSt6vectorIlSaIlEE9push_backERKl"
.LASF237:
	.string	"_ZNSt12_Vector_baseIlSaIlEE11_M_allocateEm"
.LASF843:
	.string	"_ZN9__gnu_cxx17__normal_iteratorIPdSt6vectorIdSaIdEEEmmEv"
.LASF177:
	.string	"_ZNKSt15__new_allocatorIlE8max_sizeEv"
.LASF60:
	.string	"_ZNKSt17integral_constantIbLb0EEclEv"
.LASF171:
	.string	"allocate"
.LASF479:
	.string	"_ZNSt6vectorIdSaIdEE6resizeEmRKd"
.LASF724:
	.string	"wcscat"
.LASF1079:
	.string	"_ZNK9container6tensorIdJLl2ELl3ELl5EEE3endEv"
.LASF1267:
	.string	"_IO_lock_t"
.LASF174:
	.string	"deallocate"
.LASF24:
	.string	"_IO_read_ptr"
.LASF3:
	.string	"__float128"
.LASF1192:
	.string	"__move_storage"
.LASF155:
	.string	"_Size"
.LASF1050:
	.string	"parallel_unsequenced_policy"
.LASF38:
	.string	"_flags2"
.LASF394:
	.string	"_ZNKSt15__new_allocatorIdE7addressERKd"
.LASF192:
	.string	"_ZNSt16allocator_traitsISaIlEE8allocateERS0_mPKv"
.LASF1026:
	.string	"rewind"
.LASF777:
	.string	"_ZN9__gnu_cxx14__alloc_traitsISaIlElE27_S_propagate_on_move_assignEv"
.LASF352:
	.string	"_M_default_append"
.LASF947:
	.string	"n_cs_precedes"
.LASF45:
	.string	"_codecvt"
.LASF269:
	.string	"_ZNSt6vectorIlSaIlEED4Ev"
.LASF454:
	.string	"_ZNSt6vectorIdSaIdEEC4EOS1_RKS0_St17integral_constantIbLb1EE"
.LASF632:
	.string	"_ZSt5equalIN9__gnu_cxx17__normal_iteratorIPlSt6vectorIlSaIlEEEES6_EbT_S7_T0_"
.LASF535:
	.string	"__iterator_traits<__gnu_cxx::__normal_iterator<long int*, std::vector<long int, std::allocator<long int> > >, void>"
.LASF280:
	.string	"_ZNSt6vectorIlSaIlEE3endEv"
.LASF898:
	.string	"__uint_least64_t"
.LASF89:
	.string	"__cxa_exception_type"
.LASF500:
	.string	"_ZNSt6vectorIdSaIdEE6insertEN9__gnu_cxx17__normal_iteratorIPKdS1_EESt16initializer_listIdE"
.LASF647:
	.string	"_ZSt22__uninitialized_copy_aIN9__gnu_cxx17__normal_iteratorIPKlSt6vectorIlSaIlEEEEPllET0_T_SA_S9_RSaIT1_E"
.LASF28:
	.string	"_IO_write_ptr"
.LASF83:
	.string	"_ZNSt15__exception_ptr13exception_ptraSERKS0_"
.LASF1251:
	.string	"_ZN9container6tensorIdJLl2ELl3ELl5EEED2Ev"
.LASF551:
	.string	"_ZSt20__throw_length_errorPKc"
.LASF124:
	.string	"random_access_iterator_tag"
.LASF162:
	.string	"_ZNSt15__new_allocatorIlED4Ev"
.LASF1173:
	.string	"_ZN9__gnu_cxx17__normal_iteratorIPKlSt6vectorIlSaIlEEEC2ERKS2_"
.LASF1236:
	.string	"index_list"
.LASF218:
	.string	"_Tp_alloc_type"
.LASF823:
	.string	"_ZNK9__gnu_cxx17__normal_iteratorIPKlSt6vectorIlSaIlEEEplEl"
.LASF1175:
	.string	"_ZNSt15__new_allocatorIlEC2ERKS0_"
.LASF730:
	.string	"tm_sec"
.LASF831:
	.string	"_ZN9__gnu_cxx14__alloc_traitsISaIdEdE27_S_propagate_on_move_assignEv"
.LASF1214:
	.string	"_ZNSt12_Vector_baseIlSaIlEEC2EOS1_"
.LASF836:
	.string	"__normal_iterator<double*, std::vector<double, std::allocator<double> > >"
.LASF510:
	.string	"_ZNSt6vectorIdSaIdEE17_M_default_appendEm"
.LASF374:
	.string	"_M_range_initialize<long int const*>"
.LASF286:
	.string	"_ZNKSt6vectorIlSaIlEE6rbeginEv"
.LASF1052:
	.string	"_ZN6__pstl9execution2v127parallel_unsequenced_policy14__allow_vectorEv"
.LASF654:
	.string	"__copy_move_a<false, __gnu_cxx::__normal_iterator<double const*, std::vector<double, std::allocator<double> > >, __gnu_cxx::__normal_iterator<double*, std::vector<double, std::allocator<double> > > >"
.LASF166:
	.string	"_ZNKSt15__new_allocatorIlE7addressERl"
.LASF928:
	.string	"intptr_t"
.LASF1129:
	.string	"decltype(nullptr)"
.LASF1067:
	.string	"_ZN9container6tensorIdJLl2ELl3ELl5EEEaSERKS1_"
.LASF883:
	.string	"__int8_t"
.LASF476:
	.string	"_ZNKSt6vectorIdSaIdEE4sizeEv"
.LASF919:
	.string	"uint_least64_t"
.LASF234:
	.string	"_ZNSt12_Vector_baseIlSaIlEED4Ev"
.LASF948:
	.string	"n_sep_by_space"
.LASF441:
	.string	"_ZNSt6vectorIdSaIdEE19_S_nothrow_relocateESt17integral_constantIbLb0EE"
.LASF228:
	.string	"_ZNSt12_Vector_baseIlSaIlEEC4EmRKS0_"
.LASF182:
	.string	"_ZNSaIlEC4Ev"
.LASF692:
	.string	"_ZSt17__size_to_integerm"
.LASF533:
	.string	"remove_reference<std::_Vector_base<long int, std::allocator<long int> >::_Vector_impl&>"
.LASF934:
	.string	"thousands_sep"
.LASF252:
	.string	"_ZNSt6vectorIlSaIlEE14_S_do_relocateEPlS2_S2_RS0_St17integral_constantIbLb1EE"
.LASF762:
	.string	"wcschr"
.LASF555:
	.string	"_ZSt9__fill_a1IPddEN9__gnu_cxx11__enable_ifIXsrSt11__is_scalarIT0_E7__valueEvE6__typeET_S8_RKS4_"
.LASF547:
	.string	"__throw_bad_array_new_length"
.LASF370:
	.string	"_ZNSt6vectorIlSaIlEE8_M_eraseEN9__gnu_cxx17__normal_iteratorIPlS1_EES5_"
.LASF822:
	.string	"_ZN9__gnu_cxx17__normal_iteratorIPKlSt6vectorIlSaIlEEEpLEl"
.LASF1168:
	.string	"__diffmax"
.LASF708:
	.string	"putwc"
.LASF361:
	.string	"_ZNKSt6vectorIlSaIlEE12_M_check_lenEmPKc"
.LASF168:
	.string	"const_pointer"
.LASF496:
	.string	"_ZNSt6vectorIdSaIdEE9push_backEOd"
.LASF846:
	.string	"_ZN9__gnu_cxx17__normal_iteratorIPdSt6vectorIdSaIdEEEpLEl"
.LASF650:
	.string	"uninitialized_copy<long int const*, long int*>"
.LASF183:
	.string	"_ZNSaIlEC4ERKS_"
.LASF1211:
	.string	"__size_1d"
.LASF72:
	.string	"_M_addref"
.LASF465:
	.string	"_ZNKSt6vectorIdSaIdEE5beginEv"
.LASF924:
	.string	"uint_fast8_t"
.LASF43:
	.string	"_lock"
.LASF818:
	.string	"_ZN9__gnu_cxx17__normal_iteratorIPKlSt6vectorIlSaIlEEEppEi"
.LASF561:
	.string	"_FIte"
.LASF817:
	.string	"_ZN9__gnu_cxx17__normal_iteratorIPKlSt6vectorIlSaIlEEEppEv"
.LASF574:
	.string	"_ZSt19__iterator_categoryIPdENSt15iterator_traitsIT_E17iterator_categoryERKS2_"
.LASF912:
	.string	"int_least8_t"
.LASF487:
	.string	"_ZNSt6vectorIdSaIdEE2atEm"
.LASF987:
	.string	"strtod"
.LASF997:
	.string	"strtof"
.LASF630:
	.string	"_ZSt3minImERKT_S2_S2_"
.LASF799:
	.string	"_ZN9__gnu_cxx17__normal_iteratorIPlSt6vectorIlSaIlEEEmmEi"
.LASF243:
	.string	"__type_identity<std::allocator<long int> >"
.LASF988:
	.string	"strtol"
.LASF893:
	.string	"__int_least16_t"
.LASF100:
	.string	"_ZNSt11char_traitsIcE7compareEPKcS2_m"
.LASF798:
	.string	"_ZN9__gnu_cxx17__normal_iteratorIPlSt6vectorIlSaIlEEEmmEv"
.LASF392:
	.string	"_ZNSt15__new_allocatorIdED4Ev"
.LASF63:
	.string	"_ZNKSt17integral_constantIbLb1EEcvbEv"
.LASF926:
	.string	"uint_fast32_t"
.LASF68:
	.string	"__exception_ptr"
.LASF753:
	.string	"wcsxfrm"
.LASF1269:
	.string	"__cxa_rethrow"
.LASF829:
	.string	"_ZN9__gnu_cxx14__alloc_traitsISaIdEdE10_S_on_swapERS1_S3_"
.LASF31:
	.string	"_IO_buf_end"
.LASF53:
	.string	"short unsigned int"
.LASF950:
	.string	"n_sign_posn"
.LASF872:
	.string	"wcstold"
.LASF913:
	.string	"int_least16_t"
.LASF67:
	.string	"__swappable_with_details"
.LASF270:
	.string	"_ZNSt6vectorIlSaIlEEaSERKS1_"
.LASF873:
	.string	"wcstoll"
.LASF653:
	.string	"_ZSt8__equal4IN9__gnu_cxx17__normal_iteratorIPlSt6vectorIlSaIlEEEES6_EbT_S7_T0_S8_"
.LASF1048:
	.string	"_ZN6__pstl9execution2v115parallel_policy14__allow_vectorEv"
.LASF484:
	.string	"_ZNSt6vectorIdSaIdEEixEm"
.LASF469:
	.string	"_ZNKSt6vectorIdSaIdEE6rbeginEv"
.LASF544:
	.string	"_IsSimple"
.LASF745:
	.string	"wcsrtombs"
.LASF1004:
	.string	"_IO_codecvt"
.LASF993:
	.string	"lldiv"
.LASF70:
	.string	"exception_ptr"
.LASF725:
	.string	"wcscmp"
.LASF867:
	.string	"_ZN9__gnu_cxxmiIPlSt6vectorIlSaIlEEEENS_17__normal_iteratorIT_T0_E15difference_typeERKS8_SB_"
.LASF633:
	.string	"distance<__gnu_cxx::__normal_iterator<long int*, std::vector<long int> > >"
.LASF885:
	.string	"__int16_t"
.LASF1060:
	.string	"unseq"
.LASF728:
	.string	"wcscspn"
.LASF267:
	.string	"_ZNSt6vectorIlSaIlEEC4ESt16initializer_listIlERKS0_"
.LASF190:
	.string	"_ZNSt16allocator_traitsISaIlEE8allocateERS0_m"
.LASF26:
	.string	"_IO_read_base"
.LASF1157:
	.string	"__len"
.LASF1046:
	.string	"parallel_policy"
.LASF436:
	.string	"_ZNSt12_Vector_baseIdSaIdEE13_M_deallocateEPdm"
.LASF1166:
	.string	"__can_memmove"
.LASF837:
	.string	"_ZN9__gnu_cxx17__normal_iteratorIPdSt6vectorIdSaIdEEEC4Ev"
.LASF1223:
	.string	"_ZZN9container6tensorIdJLl2ELl3ELl5EEE11_initializeEvENKUliE_clEi"
.LASF180:
	.string	"allocator<long int>"
.LASF429:
	.string	"_ZNSt12_Vector_baseIdSaIdEEC4EmRKS0_"
.LASF537:
	.string	"remove_reference<std::allocator<long int>&>"
.LASF1077:
	.string	"_ZNK9container6tensorIdJLl2ELl3ELl5EEE5beginEv"
.LASF445:
	.string	"_ZNSt6vectorIdSaIdEE14_S_do_relocateEPdS2_S2_RS0_St17integral_constantIbLb0EE"
.LASF248:
	.string	"_ZNSt6vectorIlSaIlEE19_S_nothrow_relocateESt17integral_constantIbLb1EE"
.LASF1189:
	.string	"_ZNSt12_Vector_baseIlSaIlEE12_Vector_implC2ERKS0_"
.LASF530:
	.string	"iterator_traits<double const*>"
.LASF223:
	.string	"_ZNKSt12_Vector_baseIlSaIlEE13get_allocatorEv"
.LASF15:
	.string	"__wch"
.LASF360:
	.string	"_M_check_len"
.LASF742:
	.string	"wcsncat"
.LASF165:
	.string	"address"
.LASF949:
	.string	"p_sign_posn"
.LASF908:
	.string	"uint8_t"
.LASF1070:
	.string	"_ZN9container6tensorIdJLl2ELl3ELl5EEED4Ev"
.LASF1081:
	.string	"_dims"
.LASF22:
	.string	"__FILE"
.LASF900:
	.string	"__uintmax_t"
.LASF98:
	.string	"compare"
.LASF1264:
	.string	"~runtime_error"
.LASF373:
	.string	"_ZNSt6vectorIlSaIlEE14_M_move_assignEOS1_St17integral_constantIbLb0EE"
.LASF497:
	.string	"_ZNSt6vectorIdSaIdEE8pop_backEv"
.LASF452:
	.string	"_ZNSt6vectorIdSaIdEEC4EOS1_"
.LASF727:
	.string	"wcscpy"
.LASF18:
	.string	"__value"
.LASF433:
	.string	"_ZNSt12_Vector_baseIdSaIdEEC4ERKS0_OS1_"
.LASF42:
	.string	"_shortbuf"
.LASF437:
	.string	"_ZNSt12_Vector_baseIdSaIdEE17_M_create_storageEm"
.LASF640:
	.string	"__niter_base<double*, std::vector<double, std::allocator<double> > >"
.LASF69:
	.string	"_M_exception_object"
.LASF781:
	.string	"_ZN9__gnu_cxx14__alloc_traitsISaIlElE15_S_always_equalEv"
.LASF754:
	.string	"wctob"
.LASF871:
	.string	"_ZN9__gnu_cxxneIPlSt6vectorIlSaIlEEEEbRKNS_17__normal_iteratorIT_T0_EESA_"
.LASF677:
	.string	"_Destroy<long int*>"
.LASF224:
	.string	"_Vector_base"
.LASF493:
	.string	"_ZNSt6vectorIdSaIdEE4dataEv"
.LASF1011:
	.string	"fflush"
.LASF303:
	.string	"_ZNSt6vectorIlSaIlEE6resizeEmRKl"
.LASF92:
	.string	"_ZSt17rethrow_exceptionNSt15__exception_ptr13exception_ptrE"
.LASF302:
	.string	"_ZNSt6vectorIlSaIlEE6resizeEm"
.LASF4:
	.string	"float"
.LASF1103:
	.string	"_diff_type_copy_initialize<2, 3, 5>"
.LASF584:
	.string	"copy<__gnu_cxx::__normal_iterator<long int const*, std::vector<long int> >, long int*>"
.LASF17:
	.string	"__count"
.LASF878:
	.string	"unsigned char"
.LASF667:
	.string	"for_each<__gnu_cxx::__normal_iterator<long int*, std::vector<long int> >, container::tensor<double, 2, 3, 55>::_initialize()::<lambda(int)> >"
.LASF1241:
	.string	"_ZNSt6vectorIdSaIdEED2Ev"
.LASF260:
	.string	"_ZNSt6vectorIlSaIlEEC4EmRKlRKS0_"
.LASF763:
	.string	"wcspbrk"
.LASF1225:
	.string	"_ZNSaIlED2Ev"
.LASF1167:
	.string	"__assignable"
.LASF272:
	.string	"_ZNSt6vectorIlSaIlEEaSESt16initializer_listIlE"
.LASF864:
	.string	"_ZNK9__gnu_cxx17__normal_iteratorIPKdSt6vectorIdSaIdEEEmiEl"
.LASF1196:
	.string	"_ZNSt12_Vector_baseIlSaIlEEC2ERKS0_"
.LASF952:
	.string	"int_p_sep_by_space"
.LASF386:
	.string	"type_info"
.LASF802:
	.string	"_ZN9__gnu_cxx17__normal_iteratorIPlSt6vectorIlSaIlEEEpLEl"
.LASF1009:
	.string	"feof"
.LASF1025:
	.string	"rename"
.LASF936:
	.string	"int_curr_symbol"
.LASF706:
	.string	"mbsinit"
.LASF642:
	.string	"__niter_base<double const*, std::vector<double, std::allocator<double> > >"
.LASF710:
	.string	"swprintf"
.LASF377:
	.string	"__type_identity_t"
.LASF1209:
	.string	"~<lambda>"
.LASF1036:
	.string	"wctrans"
.LASF1182:
	.string	"_ZNSt12_Vector_baseIlSaIlEE17_Vector_impl_dataC2EOS2_"
.LASF758:
	.string	"wmemset"
.LASF729:
	.string	"wcsftime"
.LASF1002:
	.string	"__fpos_t"
.LASF278:
	.string	"const_iterator"
.LASF684:
	.string	"_ZSt8distanceIPKlENSt15iterator_traitsIT_E15difference_typeES3_S3_"
.LASF957:
	.string	"setlocale"
.LASF868:
	.string	"operator==<long int*, std::vector<long int> >"
.LASF353:
	.string	"_ZNSt6vectorIlSaIlEE17_M_default_appendEm"
.LASF1159:
	.string	"__simple"
.LASF495:
	.string	"_ZNSt6vectorIdSaIdEE9push_backERKd"
.LASF274:
	.string	"_ZNSt6vectorIlSaIlEE6assignESt16initializer_listIlE"
.LASF1007:
	.string	"clearerr"
.LASF752:
	.string	"wcstoul"
.LASF346:
	.string	"_M_default_initialize"
.LASF1231:
	.string	"_ZN9container6tensorIdJLl2ELl3ELl55EEEC2Ev"
.LASF639:
	.string	"_ZSt14__copy_move_a1ILb0EPKdPdET1_T0_S4_S3_"
.LASF276:
	.string	"begin"
.LASF782:
	.string	"_S_nothrow_move"
.LASF587:
	.string	"_ZSt6fill_nIPdmdET_S1_T0_RKT1_"
.LASF289:
	.string	"_ZNKSt6vectorIlSaIlEE4rendEv"
.LASF251:
	.string	"_S_do_relocate"
.LASF769:
	.string	"__alloc_traits<std::allocator<long int>, long int>"
.LASF244:
	.string	"type"
.LASF418:
	.string	"_ZNSt12_Vector_baseIdSaIdEE12_Vector_implC4EOS0_"
.LASF718:
	.string	"vswscanf"
.LASF901:
	.string	"__off_t"
.LASF137:
	.string	"_ZNSt8ios_base4InitD4Ev"
.LASF838:
	.string	"_ZN9__gnu_cxx17__normal_iteratorIPdSt6vectorIdSaIdEEEC4ERKS1_"
.LASF1227:
	.string	"_ZNSt12_Vector_baseIdSaIdEED2Ev"
.LASF644:
	.string	"__alloc_on_move<std::allocator<long int> >"
.LASF703:
	.string	"getwc"
.LASF1024:
	.string	"remove"
.LASF1228:
	.string	"_ZNSaIdED2Ev"
.LASF186:
	.string	"_ZNSaIlEaSERKS_"
.LASF866:
	.string	"operator-<long int*, std::vector<long int> >"
.LASF457:
	.string	"_ZNSt6vectorIdSaIdEEC4ESt16initializer_listIdERKS0_"
.LASF317:
	.string	"_ZNSt6vectorIlSaIlEE2atEm"
.LASF1049:
	.string	"_ZN6__pstl9execution2v115parallel_policy16__allow_parallelEv"
.LASF135:
	.string	"~Init"
.LASF520:
	.string	"_ZNSt6vectorIdSaIdEE14_M_move_assignEOS1_St17integral_constantIbLb1EE"
.LASF717:
	.string	"vswprintf"
.LASF834:
	.string	"_ZN9__gnu_cxx14__alloc_traitsISaIdEdE15_S_nothrow_moveEv"
.LASF594:
	.string	"__miter_base<long int const*>"
.LASF478:
	.string	"_ZNSt6vectorIdSaIdEE6resizeEm"
.LASF134:
	.string	"Init"
.LASF859:
	.string	"_ZN9__gnu_cxx17__normal_iteratorIPKdSt6vectorIdSaIdEEEmmEi"
.LASF1127:
	.string	"index_check"
.LASF342:
	.string	"clear"
.LASF858:
	.string	"_ZN9__gnu_cxx17__normal_iteratorIPKdSt6vectorIdSaIdEEEmmEv"
.LASF590:
	.string	"__addressof<double>"
.LASF378:
	.string	"initializer_list<long int>"
.LASF499:
	.string	"_ZNSt6vectorIdSaIdEE6insertEN9__gnu_cxx17__normal_iteratorIPKdS1_EEOd"
.LASF770:
	.string	"_S_select_on_copy"
.LASF689:
	.string	"operator<< <std::char_traits<char> >"
.LASF1194:
	.string	"_ZNSt12_Vector_baseIlSaIlEE17_Vector_impl_dataC2Ev"
.LASF956:
	.string	"int_n_sign_posn"
.LASF1043:
	.string	"_ZN6__pstl9execution2v116sequenced_policy14__allow_vectorEv"
.LASF1139:
	.string	"_ZNSt13runtime_errorD1Ev"
.LASF1233:
	.string	"_ZNSt6vectorIlSaIlEEC2Ev"
.LASF9:
	.string	"fp_offset"
.LASF562:
	.string	"__copy_move_a2<false, long int const*, long int*>"
.LASF1230:
	.string	"__out"
.LASF511:
	.string	"_ZNSt6vectorIdSaIdEE16_M_shrink_to_fitEv"
.LASF888:
	.string	"__uint32_t"
.LASF1266:
	.string	"_ZN9__gnu_cxx3divExx"
.LASF994:
	.string	"atoll"
.LASF117:
	.string	"not_eof"
.LASF1013:
	.string	"fgetpos"
.LASF178:
	.string	"_M_max_size"
.LASF1199:
	.string	"_ZNSt15__new_allocatorIlEC2Ev"
.LASF804:
	.string	"_ZNK9__gnu_cxx17__normal_iteratorIPlSt6vectorIlSaIlEEEplEl"
.LASF1250:
	.string	"_ZN9container6tensorIdJEED2Ev"
.LASF46:
	.string	"_wide_data"
.LASF1053:
	.string	"_ZN6__pstl9execution2v127parallel_unsequenced_policy16__allow_parallelEv"
.LASF498:
	.string	"_ZNSt6vectorIdSaIdEE6insertEN9__gnu_cxx17__normal_iteratorIPKdS1_EERS4_"
.LASF835:
	.string	"rebind<double>"
.LASF1012:
	.string	"fgetc"
.LASF930:
	.string	"intmax_t"
.LASF1014:
	.string	"fgets"
.LASF643:
	.string	"_ZSt12__niter_baseIPKdSt6vectorIdSaIdEEET_N9__gnu_cxx17__normal_iteratorIS5_T0_EE"
.LASF657:
	.string	"_ZSt12__miter_baseIN9__gnu_cxx17__normal_iteratorIPKdSt6vectorIdSaIdEEEEET_S8_"
.LASF1210:
	.string	"_ZZN9container6tensorIdJLl2ELl3ELl55EEE11_initializeEvENUliE_D4Ev"
.LASF1032:
	.string	"wctype_t"
.LASF88:
	.string	"_ZNSt15__exception_ptr13exception_ptr4swapERS0_"
.LASF592:
	.string	"__copy_move_a<false, long int const*, long int*>"
.LASF235:
	.string	"_M_impl"
.LASF438:
	.string	"__type_identity<std::allocator<double> >"
.LASF825:
	.string	"_ZNK9__gnu_cxx17__normal_iteratorIPKlSt6vectorIlSaIlEEEmiEl"
.LASF467:
	.string	"_ZNKSt6vectorIdSaIdEE3endEv"
.LASF942:
	.string	"negative_sign"
.LASF301:
	.string	"resize"
.LASF39:
	.string	"_old_offset"
.LASF977:
	.string	"getenv"
.LASF645:
	.string	"_ZSt15__alloc_on_moveISaIlEEvRT_S2_"
.LASF707:
	.string	"mbsrtowcs"
.LASF87:
	.string	"swap"
.LASF458:
	.string	"_ZNSt6vectorIdSaIdEED4Ev"
.LASF999:
	.string	"_G_fpos_t"
.LASF462:
	.string	"_ZNSt6vectorIdSaIdEE6assignEmRKd"
.LASF744:
	.string	"wcsncpy"
.LASF1066:
	.string	"_ZN9container6tensorIdJLl2ELl3ELl5EEEC4EOS1_"
.LASF435:
	.string	"_ZNSt12_Vector_baseIdSaIdEE11_M_allocateEm"
.LASF828:
	.string	"_ZN9__gnu_cxx14__alloc_traitsISaIdEdE17_S_select_on_copyERKS1_"
.LASF356:
	.string	"_M_insert_rval"
.LASF1128:
	.string	"_ZN9container7details11index_checkEll"
.LASF456:
	.string	"_ZNSt6vectorIdSaIdEEC4EOS1_RKS0_"
.LASF1001:
	.string	"__state"
.LASF460:
	.string	"_ZNSt6vectorIdSaIdEEaSEOS1_"
.LASF1040:
	.string	"__allow_unsequenced"
.LASF97:
	.string	"_ZNSt11char_traitsIcE2ltERKcS2_"
.LASF960:
	.string	"__gnu_debug"
.LASF241:
	.string	"_ZNSt12_Vector_baseIlSaIlEE17_M_create_storageEm"
.LASF573:
	.string	"__iterator_category<double*>"
.LASF175:
	.string	"_ZNSt15__new_allocatorIlE10deallocateEPlm"
.LASF779:
	.string	"_ZN9__gnu_cxx14__alloc_traitsISaIlElE20_S_propagate_on_swapEv"
.LASF881:
	.string	"char16_t"
.LASF232:
	.string	"_ZNSt12_Vector_baseIlSaIlEEC4ERKS0_OS1_"
.LASF34:
	.string	"_IO_save_end"
.LASF531:
	.string	"iterator_traits<double*>"
.LASF58:
	.string	"operator()"
.LASF322:
	.string	"back"
.LASF398:
	.string	"_ZNKSt15__new_allocatorIdE11_M_max_sizeEv"
.LASF1262:
	.string	"_ZNSt12_Destroy_auxILb1EE9__destroyIPdEEvT_S3_"
.LASF810:
	.string	"_ZNK9__gnu_cxx17__normal_iteratorIPlSt6vectorIlSaIlEEE4baseEv"
.LASF1082:
	.string	"_initialize"
.LASF1135:
	.string	"operator delete"
.LASF680:
	.string	"_ZSt8_DestroyIPdEvT_S1_"
.LASF971:
	.string	"atexit"
.LASF861:
	.string	"_ZN9__gnu_cxx17__normal_iteratorIPKdSt6vectorIdSaIdEEEpLEl"
.LASF305:
	.string	"_ZNSt6vectorIlSaIlEE13shrink_to_fitEv"
.LASF164:
	.string	"pointer"
.LASF1116:
	.string	"_ZN9container6tensorIdJLl2ELl3ELl55EEED4Ev"
.LASF473:
	.string	"_ZNKSt6vectorIdSaIdEE4cendEv"
.LASF299:
	.string	"_ZNKSt6vectorIlSaIlEE4sizeEv"
.LASF1039:
	.string	"sequenced_policy"
.LASF848:
	.string	"_ZN9__gnu_cxx17__normal_iteratorIPdSt6vectorIdSaIdEEEmIEl"
.LASF1160:
	.string	"__lhs"
.LASF1134:
	.string	"__cxa_begin_catch"
.LASF709:
	.string	"putwchar"
.LASF847:
	.string	"_ZNK9__gnu_cxx17__normal_iteratorIPdSt6vectorIdSaIdEEEplEl"
.LASF434:
	.string	"_ZNSt12_Vector_baseIdSaIdEED4Ev"
.LASF543:
	.string	"_IsMove"
.LASF1120:
	.string	"_ZNK9container6tensorIdJLl2ELl3ELl55EEE5shapeEl"
.LASF518:
	.string	"_ZNSt6vectorIdSaIdEE8_M_eraseEN9__gnu_cxx17__normal_iteratorIPdS1_EE"
.LASF567:
	.string	"_ZSt13__copy_move_aILb0EN9__gnu_cxx17__normal_iteratorIPKlSt6vectorIlSaIlEEEEPlET1_T0_SA_S9_"
.LASF1119:
	.string	"_ZNK9container6tensorIdJLl2ELl3ELl55EEE5shapeEv"
.LASF820:
	.string	"_ZN9__gnu_cxx17__normal_iteratorIPKlSt6vectorIlSaIlEEEmmEi"
.LASF819:
	.string	"_ZN9__gnu_cxx17__normal_iteratorIPKlSt6vectorIlSaIlEEEmmEv"
.LASF403:
	.string	"_ZNSaIdED4Ev"
.LASF509:
	.string	"_ZNSt6vectorIdSaIdEE14_M_fill_insertEN9__gnu_cxx17__normal_iteratorIPdS1_EEmRKd"
.LASF187:
	.string	"~allocator"
.LASF66:
	.string	"__swappable_details"
.LASF1123:
	.string	"_ZN9container6tensorIdJLl2ELl3ELl55EEE11_initializeEv"
.LASF618:
	.string	"move<std::allocator<long int>&>"
.LASF238:
	.string	"_M_deallocate"
.LASF368:
	.string	"_M_erase"
.LASF801:
	.string	"operator+="
.LASF131:
	.string	"__destroy<long int*>"
.LASF86:
	.string	"_ZNSt15__exception_ptr13exception_ptrD4Ev"
.LASF1235:
	.string	"_ZNSt12_Vector_baseIlSaIlEE12_Vector_implD2Ev"
.LASF696:
	.string	"wchar_t"
.LASF946:
	.string	"p_sep_by_space"
.LASF242:
	.string	"_Alloc"
.LASF780:
	.string	"_S_always_equal"
.LASF583:
	.string	"_ZSt12__niter_baseIPKlET_S2_"
.LASF576:
	.string	"__niter_wrap<long int*>"
.LASF715:
	.string	"vfwscanf"
.LASF927:
	.string	"uint_fast64_t"
.LASF1162:
	.string	"__alloc"
.LASF1149:
	.string	"__result"
.LASF406:
	.string	"_ZNSt16allocator_traitsISaIdEE8allocateERS0_mPKv"
.LASF875:
	.string	"wcstoull"
.LASF651:
	.string	"_ZSt18uninitialized_copyIPKlPlET0_T_S4_S3_"
.LASF738:
	.string	"tm_isdst"
.LASF307:
	.string	"_ZNKSt6vectorIlSaIlEE8capacityEv"
.LASF945:
	.string	"p_cs_precedes"
.LASF127:
	.string	"equal<long int>"
.LASF205:
	.string	"_ZNSt12_Vector_baseIlSaIlEE17_Vector_impl_dataC4Ev"
.LASF410:
	.string	"_Vector_base<double, std::allocator<double> >"
.LASF81:
	.string	"_ZNSt15__exception_ptr13exception_ptrC4EOS0_"
.LASF611:
	.string	"__distance<__gnu_cxx::__normal_iterator<long int*, std::vector<long int> > >"
.LASF257:
	.string	"_ZNSt6vectorIlSaIlEEC4Ev"
.LASF1259:
	.string	"align_val_t"
.LASF805:
	.string	"operator-="
.LASF792:
	.string	"operator->"
.LASF1099:
	.string	"_ZNK9container6tensorIdJEE3endEv"
.LASF833:
	.string	"_ZN9__gnu_cxx14__alloc_traitsISaIdEdE15_S_always_equalEv"
.LASF295:
	.string	"_ZNKSt6vectorIlSaIlEE7crbeginEv"
.LASF1218:
	.string	"_ZZN9container6tensorIdJLl2ELl3ELl5EEE11_initializeEvENUliE_C4ERKS2_"
.LASF525:
	.string	"iterator_traits<long int*>"
.LASF399:
	.string	"allocator<double>"
.LASF320:
	.string	"_ZNSt6vectorIlSaIlEE5frontEv"
.LASF1256:
	.string	"__int128 unsigned"
.LASF749:
	.string	"wcstok"
.LASF1242:
	.string	"_ZN9container6tensorIdJLl2ELl3ELl5EEEC2Ev"
.LASF1188:
	.string	"_ZN9__gnu_cxx17__normal_iteratorIPlSt6vectorIlSaIlEEEC2ERKS1_"
.LASF880:
	.string	"short int"
.LASF524:
	.string	"reverse_iterator<__gnu_cxx::__normal_iterator<double const*, std::vector<double, std::allocator<double> > > >"
.LASF159:
	.string	"_ZNSt15__new_allocatorIlEC4Ev"
.LASF1093:
	.string	"_ZN9container6tensorIdJEED4Ev"
.LASF239:
	.string	"_ZNSt12_Vector_baseIlSaIlEE13_M_deallocateEPlm"
.LASF683:
	.string	"distance<long int const*>"
.LASF504:
	.string	"_ZNSt6vectorIdSaIdEE4swapERS1_"
.LASF553:
	.string	"_ZNSt13runtime_errorC4EPKc"
.LASF453:
	.string	"_ZNSt6vectorIdSaIdEEC4ERKS1_RKS0_"
.LASF624:
	.string	"_Allocator"
.LASF404:
	.string	"allocator_traits<std::allocator<double> >"
.LASF959:
	.string	"localeconv"
.LASF459:
	.string	"_ZNSt6vectorIdSaIdEEaSERKS1_"
.LASF1078:
	.string	"_ZNKSt16initializer_listIlE3endEv"
.LASF314:
	.string	"_ZNKSt6vectorIlSaIlEEixEm"
.LASF35:
	.string	"_markers"
.LASF488:
	.string	"_ZNKSt6vectorIdSaIdEE2atEm"
.LASF37:
	.string	"_fileno"
.LASF57:
	.string	"operator std::integral_constant<bool, false>::value_type"
.LASF895:
	.string	"__int_least32_t"
.LASF1144:
	.string	"__priority"
.LASF201:
	.string	"_Vector_impl_data"
.LASF384:
	.string	"_ZNKSt16initializer_listIlE4sizeEv"
.LASF849:
	.string	"_ZNK9__gnu_cxx17__normal_iteratorIPdSt6vectorIdSaIdEEEmiEl"
.LASF227:
	.string	"_ZNSt12_Vector_baseIlSaIlEEC4Em"
.LASF1154:
	.string	"__num"
.LASF225:
	.string	"_ZNSt12_Vector_baseIlSaIlEEC4Ev"
.LASF855:
	.string	"_ZNK9__gnu_cxx17__normal_iteratorIPKdSt6vectorIdSaIdEEEptEv"
.LASF613:
	.string	"_RandomAccessIterator"
.LASF1212:
	.string	"__closure"
.LASF102:
	.string	"find"
.LASF1044:
	.string	"__allow_parallel"
.LASF351:
	.string	"_ZNSt6vectorIlSaIlEE14_M_fill_insertEN9__gnu_cxx17__normal_iteratorIPlS1_EEmRKl"
.LASF903:
	.string	"__ssize_t"
.LASF914:
	.string	"int_least32_t"
.LASF514:
	.string	"_ZNKSt6vectorIdSaIdEE12_M_check_lenEmPKc"
.LASF1143:
	.string	"__initialize_p"
.LASF264:
	.string	"_ZNSt6vectorIlSaIlEEC4EOS1_RKS0_St17integral_constantIbLb1EE"
.LASF751:
	.string	"long int"
.LASF262:
	.string	"_ZNSt6vectorIlSaIlEEC4EOS1_"
.LASF887:
	.string	"__int32_t"
.LASF757:
	.string	"wmemmove"
.LASF1180:
	.string	"_ZN9__gnu_cxx17__normal_iteratorIPdSt6vectorIdSaIdEEEC2ERKS1_"
.LASF646:
	.string	"__uninitialized_copy_a<__gnu_cxx::__normal_iterator<long int const*, std::vector<long int> >, long int*, long int>"
.LASF641:
	.string	"_ZSt12__niter_baseIPdSt6vectorIdSaIdEEET_N9__gnu_cxx17__normal_iteratorIS4_T0_EE"
.LASF194:
	.string	"_ZNSt11char_traitsIcE6assignERcRKc"
.LASF806:
	.string	"_ZN9__gnu_cxx17__normal_iteratorIPlSt6vectorIlSaIlEEEmIEl"
.LASF1205:
	.string	"size_1d"
.LASF767:
	.string	"__gnu_cxx"
.LASF326:
	.string	"_ZNSt6vectorIlSaIlEE4dataEv"
.LASF921:
	.string	"int_fast16_t"
.LASF772:
	.string	"_S_on_swap"
.LASF1041:
	.string	"__allow_vector"
.LASF207:
	.string	"_M_copy_data"
.LASF794:
	.string	"operator++"
.LASF1068:
	.string	"_ZN9container6tensorIdJLl2ELl3ELl5EEEaSEOS1_"
.LASF348:
	.string	"_M_fill_assign"
.LASF1197:
	.string	"__in_chrg"
.LASF255:
	.string	"_ZNSt6vectorIlSaIlEE11_S_relocateEPlS2_S2_RS0_"
.LASF1224:
	.string	"_ZNSt6vectorIlSaIlEEC2ESt16initializer_listIlERKS0_"
.LASF982:
	.string	"__destroy<double*>"
.LASF337:
	.string	"_ZNSt6vectorIlSaIlEE6insertEN9__gnu_cxx17__normal_iteratorIPKlS1_EEmRS4_"
.LASF27:
	.string	"_IO_write_base"
.LASF443:
	.string	"_ZNSt6vectorIdSaIdEE15_S_use_relocateEv"
.LASF1136:
	.string	"_ZdlPvm"
.LASF266:
	.string	"_ZNSt6vectorIlSaIlEEC4EOS1_RKS0_"
.LASF103:
	.string	"_ZNSt11char_traitsIcE4findEPKcmRS1_"
.LASF1130:
	.string	"auto"
.LASF179:
	.string	"_ZNKSt15__new_allocatorIlE11_M_max_sizeEv"
.LASF1091:
	.string	"_ZN9container6tensorIdJEEaSERKS1_"
.LASF638:
	.string	"__copy_move_a1<false, double const*, double*>"
.LASF1113:
	.string	"_ZN9container6tensorIdJLl2ELl3ELl55EEEC4EOS1_"
.LASF1057:
	.string	"_ZN6__pstl9execution2v118unsequenced_policy16__allow_parallelEv"
.LASF273:
	.string	"_ZNSt6vectorIlSaIlEE6assignEmRKl"
.LASF55:
	.string	"integral_constant<bool, false>"
.LASF1203:
	.string	"rhs_tensor"
.LASF554:
	.string	"__fill_a1<double*, double>"
.LASF330:
	.string	"_ZNSt6vectorIlSaIlEE9push_backEOl"
.LASF115:
	.string	"eq_int_type"
.LASF519:
	.string	"_ZNSt6vectorIdSaIdEE8_M_eraseEN9__gnu_cxx17__normal_iteratorIPdS1_EES5_"
.LASF905:
	.string	"int16_t"
.LASF1000:
	.string	"__pos"
.LASF163:
	.string	"__ostream_type"
.LASF421:
	.string	"_ZNSt12_Vector_baseIlSaIlEE12_Vector_implD4Ev"
.LASF623:
	.string	"_ZSt12__relocate_aIPdS0_SaIdEET0_T_S3_S2_RT1_"
.LASF1185:
	.string	"__size"
.LASF216:
	.string	"_ZNSt12_Vector_baseIlSaIlEE12_Vector_implC4EOS0_"
.LASF1085:
	.string	"_ZN9container6tensorIdJLl2ELl3ELl5EEEclIJiiiEEERdDpT_"
.LASF246:
	.string	"vector<long int, std::allocator<long int> >"
.LASF1008:
	.string	"fclose"
.LASF679:
	.string	"_Destroy<double*>"
.LASF339:
	.string	"_ZNSt6vectorIlSaIlEE5eraseEN9__gnu_cxx17__normal_iteratorIPKlS1_EE"
.LASF615:
	.string	"_ZSt19__iterator_categoryIN9__gnu_cxx17__normal_iteratorIPlSt6vectorIlSaIlEEEEENSt15iterator_traitsIT_E17iterator_categoryERKS8_"
.LASF865:
	.string	"_ZNK9__gnu_cxx17__normal_iteratorIPKdSt6vectorIdSaIdEEE4baseEv"
.LASF412:
	.string	"_ZNSt12_Vector_baseIdSaIdEE17_Vector_impl_dataC4EOS2_"
.LASF778:
	.string	"_S_propagate_on_swap"
.LASF797:
	.string	"operator--"
.LASF417:
	.string	"_ZNSt12_Vector_baseIdSaIdEE12_Vector_implC4EOS2_"
.LASF1027:
	.string	"setbuf"
.LASF923:
	.string	"int_fast64_t"
.LASF1155:
	.string	"__res"
.LASF992:
	.string	"wctomb"
.LASF1254:
	.string	"_ZnwmPv"
.LASF371:
	.string	"_M_move_assign"
.LASF340:
	.string	"_ZNSt6vectorIlSaIlEE5eraseEN9__gnu_cxx17__normal_iteratorIPKlS1_EES6_"
.LASF240:
	.string	"_M_create_storage"
.LASF1064:
	.string	"_ZN9container6tensorIdJLl2ELl3ELl5EEEC4Ev"
.LASF158:
	.string	"__new_allocator"
.LASF40:
	.string	"_cur_column"
.LASF676:
	.string	"_ZSt4moveISt6vectorIlSaIlEEEONSt16remove_referenceIT_E4typeEOS4_"
.LASF516:
	.string	"_ZNSt6vectorIdSaIdEE11_S_max_sizeERKS0_"
.LASF112:
	.string	"int_type"
.LASF1152:
	.string	"__first1"
.LASF1153:
	.string	"__first2"
.LASF367:
	.string	"_ZNSt6vectorIlSaIlEE15_M_erase_at_endEPl"
.LASF84:
	.string	"_ZNSt15__exception_ptr13exception_ptraSEOS0_"
.LASF308:
	.string	"empty"
.LASF156:
	.string	"_TrivialValueType"
.LASF1156:
	.string	"__last1"
.LASF1177:
	.string	"__last2"
.LASF658:
	.string	"move<std::_Vector_base<long int, std::allocator<long int> >::_Vector_impl&>"
.LASF558:
	.string	"_Container"
.LASF851:
	.string	"__normal_iterator<double const*, std::vector<double, std::allocator<double> > >"
.LASF808:
	.string	"_ZNK9__gnu_cxx17__normal_iteratorIPlSt6vectorIlSaIlEEEmiEl"
.LASF940:
	.string	"mon_grouping"
.LASF245:
	.string	"_Type"
.LASF570:
	.string	"__fill_n_a<double*, long unsigned int, double>"
.LASF309:
	.string	"_ZNKSt6vectorIlSaIlEE5emptyEv"
.LASF766:
	.string	"wmemchr"
.LASF1140:
	.string	"__cxa_throw"
.LASF816:
	.string	"_ZNK9__gnu_cxx17__normal_iteratorIPKlSt6vectorIlSaIlEEEptEv"
.LASF1261:
	.string	"input_iterator_tag"
.LASF979:
	.string	"mblen"
.LASF735:
	.string	"tm_year"
.LASF853:
	.string	"_ZN9__gnu_cxx17__normal_iteratorIPKdSt6vectorIdSaIdEEEC4ERKS2_"
.LASF1161:
	.string	"__rhs"
.LASF967:
	.string	"7lldiv_t"
.LASF685:
	.string	"_Destroy<long int*, long int>"
.LASF113:
	.string	"to_int_type"
.LASF142:
	.string	"operator<<"
.LASF122:
	.string	"forward_iterator_tag"
.LASF1257:
	.string	"GNU C++17 12.2.0 -mtune=generic -march=x86-64 -g -std=c++17 -fasynchronous-unwind-tables"
.LASF1243:
	.string	"_ZNSt6vectorIdSaIdEEC2Ev"
.LASF407:
	.string	"_ZNSt16allocator_traitsISaIdEE10deallocateERS0_Pdm"
.LASF79:
	.string	"_ZNSt15__exception_ptr13exception_ptrC4ERKS0_"
.LASF1117:
	.string	"_ZNK9container6tensorIdJLl2ELl3ELl55EEE5orderEv"
.LASF606:
	.string	"_ZSt12__niter_baseIPdET_S1_"
.LASF1222:
	.string	"_ZZN9container6tensorIdJLl2ELl3ELl55EEE11_initializeEvENKUliE_clEi"
.LASF996:
	.string	"strtoull"
.LASF376:
	.string	"_Traits"
.LASF578:
	.string	"__copy_move_a1<false, long int const*, long int*>"
.LASF431:
	.string	"_ZNSt12_Vector_baseIdSaIdEEC4EOS0_"
.LASF902:
	.string	"__off64_t"
.LASF747:
	.string	"wcstod"
.LASF65:
	.string	"false_type"
.LASF748:
	.string	"wcstof"
.LASF736:
	.string	"tm_wday"
.LASF750:
	.string	"wcstol"
.LASF284:
	.string	"_ZNSt6vectorIlSaIlEE6rbeginEv"
.LASF366:
	.string	"_M_erase_at_end"
.LASF150:
	.string	"_ZNSt20__uninitialized_copyILb1EE13__uninit_copyIPKlPlEET0_T_S6_S5_"
.LASF681:
	.string	"for_each<__gnu_cxx::__normal_iterator<long int*, std::vector<long int> >, container::tensor<double, 2, 3, 5>::_initialize()::<lambda(int)> >"
.LASF318:
	.string	"_ZNKSt6vectorIlSaIlEE2atEm"
.LASF1200:
	.string	"_ZNSt15__new_allocatorIdED2Ev"
.LASF75:
	.string	"_ZNSt15__exception_ptr13exception_ptr10_M_releaseEv"
.LASF627:
	.string	"__uninitialized_default_n<double*, long unsigned int>"
.LASF879:
	.string	"signed char"
.LASF661:
	.string	"_ZSt22__uninitialized_copy_aIPKlPllET0_T_S4_S3_RSaIT1_E"
.LASF1055:
	.string	"_ZN6__pstl9execution2v118unsequenced_policy19__allow_unsequencedEv"
.LASF430:
	.string	"_ZNSt12_Vector_baseIdSaIdEEC4EOS1_"
.LASF1023:
	.string	"perror"
.LASF388:
	.string	"reverse_iterator<__gnu_cxx::__normal_iterator<long int const*, std::vector<long int, std::allocator<long int> > > >"
.LASF1183:
	.string	"_ZNSaIlEC2ERKS_"
.LASF389:
	.string	"__new_allocator<double>"
.LASF1238:
	.string	"index_1d"
.LASF332:
	.string	"_ZNSt6vectorIlSaIlEE8pop_backEv"
.LASF662:
	.string	"__distance<long int const*>"
.LASF139:
	.string	"_ZNSt8ios_base4InitaSERKS0_"
.LASF470:
	.string	"_ZNSt6vectorIdSaIdEE4rendEv"
.LASF832:
	.string	"_ZN9__gnu_cxx14__alloc_traitsISaIdEdE20_S_propagate_on_swapEv"
.LASF1047:
	.string	"_ZN6__pstl9execution2v115parallel_policy19__allow_unsequencedEv"
.LASF722:
	.string	"__isoc99_vwscanf"
.LASF693:
	.string	"btowc"
.LASF128:
	.string	"_ZNSt7__equalILb1EE5equalIlEEbPKT_S4_S4_"
.LASF565:
	.string	"_ZSt8__memcmpIllEiPKT_PKT0_m"
.LASF1108:
	.string	"tensor<2, 3, 5>"
.LASF197:
	.string	"select_on_container_copy_construction"
.LASF439:
	.string	"vector<double, std::allocator<double> >"
.LASF74:
	.string	"_ZNSt15__exception_ptr13exception_ptr9_M_addrefEv"
.LASF755:
	.string	"wmemcmp"
.LASF774:
	.string	"_S_propagate_on_copy_assign"
.LASF890:
	.string	"__uint64_t"
.LASF1232:
	.string	"_ZN9container6tensorIdJEEC2IJLl2ELl3ELl5EEEERKNS0_IdJXspT_EEEE"
.LASF176:
	.string	"max_size"
.LASF598:
	.string	"_II1"
.LASF599:
	.string	"_II2"
.LASF136:
	.string	"_ZNSt8ios_base4InitC4Ev"
.LASF1244:
	.string	"_ZNSt12_Vector_baseIdSaIdEEC2Ev"
.LASF143:
	.string	"_ZNSolsEl"
.LASF94:
	.string	"char_traits<char>"
.LASF315:
	.string	"_M_range_check"
.LASF628:
	.string	"_ZSt25__uninitialized_default_nIPdmET_S1_T0_"
.LASF1065:
	.string	"_ZN9container6tensorIdJLl2ELl3ELl5EEEC4ERKS1_"
.LASF195:
	.string	"_ZNSt16allocator_traitsISaIlEE10deallocateERS0_Plm"
.LASF271:
	.string	"_ZNSt6vectorIlSaIlEEaSEOS1_"
.LASF678:
	.string	"_ZSt8_DestroyIPlEvT_S1_"
.LASF1202:
	.string	"_ZNSaIdEC2Ev"
.LASF1086:
	.string	"data_type"
.LASF863:
	.string	"_ZN9__gnu_cxx17__normal_iteratorIPKdSt6vectorIdSaIdEEEmIEl"
.LASF208:
	.string	"_ZNSt12_Vector_baseIlSaIlEE17_Vector_impl_data12_M_copy_dataERKS2_"
.LASF414:
	.string	"_ZNSt12_Vector_baseIdSaIdEE17_Vector_impl_data12_M_swap_dataERS2_"
.LASF455:
	.string	"_ZNSt6vectorIdSaIdEEC4EOS1_RKS0_St17integral_constantIbLb0EE"
.LASF1201:
	.string	"_ZNSt12_Vector_baseIdSaIdEE17_Vector_impl_dataC2Ev"
.LASF277:
	.string	"_ZNSt6vectorIlSaIlEE5beginEv"
.LASF785:
	.string	"other"
.LASF563:
	.string	"_ZSt14__copy_move_a2ILb0EPKlPlET1_T0_S4_S3_"
.LASF610:
	.string	"_ZSt11__equal_auxIN9__gnu_cxx17__normal_iteratorIPlSt6vectorIlSaIlEEEES6_EbT_S7_T0_"
.LASF1271:
	.string	"_GLOBAL__sub_I__ZN9container7details11index_checkEll"
.LASF909:
	.string	"uint16_t"
.LASF1118:
	.string	"_ZNK9container6tensorIdJLl2ELl3ELl55EEE4sizeEv"
.LASF515:
	.string	"_ZNSt6vectorIdSaIdEE17_S_check_init_lenEmRKS0_"
.LASF1030:
	.string	"tmpnam"
.LASF1100:
	.string	"_ZN9container6tensorIdJEE11_initializeEv"
.LASF283:
	.string	"rbegin"
.LASF622:
	.string	"__relocate_a<double*, double*, std::allocator<double> >"
.LASF876:
	.string	"long long unsigned int"
.LASF776:
	.string	"_S_propagate_on_move_assign"
.LASF756:
	.string	"wmemcpy"
.LASF1115:
	.string	"_ZN9container6tensorIdJLl2ELl3ELl55EEEaSEOS1_"
.LASF425:
	.string	"_ZNKSt12_Vector_baseIdSaIdEE13get_allocatorEv"
.LASF420:
	.string	"~_Vector_impl"
.LASF293:
	.string	"_ZNKSt6vectorIlSaIlEE4cendEv"
.LASF106:
	.string	"copy"
.LASF990:
	.string	"system"
.LASF854:
	.string	"_ZNK9__gnu_cxx17__normal_iteratorIPKdSt6vectorIdSaIdEEEdeEv"
.LASF539:
	.string	"__copy_m<long int>"
.LASF358:
	.string	"_M_emplace_aux"
.LASF154:
	.string	"_ZNSt27__uninitialized_default_n_1ILb1EE18__uninit_default_nIPdmEET_S3_T0_"
.LASF468:
	.string	"_ZNSt6vectorIdSaIdEE6rbeginEv"
.LASF109:
	.string	"_ZNSt11char_traitsIcE6assignEPcmc"
.LASF790:
	.string	"operator*"
.LASF803:
	.string	"operator+"
.LASF807:
	.string	"operator-"
.LASF860:
	.string	"_ZNK9__gnu_cxx17__normal_iteratorIPKdSt6vectorIdSaIdEEEixEl"
.LASF316:
	.string	"_ZNKSt6vectorIlSaIlEE14_M_range_checkEm"
.LASF1045:
	.string	"_ZN6__pstl9execution2v116sequenced_policy16__allow_parallelEv"
.LASF964:
	.string	"div_t"
.LASF82:
	.string	"operator="
.LASF1020:
	.string	"ftell"
.LASF62:
	.string	"operator std::integral_constant<bool, true>::value_type"
.LASF258:
	.string	"_ZNSt6vectorIlSaIlEEC4ERKS0_"
.LASF882:
	.string	"char32_t"
.LASF985:
	.string	"rand"
.LASF666:
	.string	"_ZSt5equalIN9__gnu_cxx17__normal_iteratorIPlSt6vectorIlSaIlEEEES6_EbT_S7_T0_S8_"
.LASF198:
	.string	"_ZNSt16allocator_traitsISaIlEE37select_on_container_copy_constructionERKS0_"
.LASF1219:
	.string	"_ZZN9container6tensorIdJLl2ELl3ELl55EEE11_initializeEvENUliE_C4Ev"
.LASF656:
	.string	"__miter_base<__gnu_cxx::__normal_iterator<double const*, std::vector<double, std::allocator<double> > > >"
.LASF261:
	.string	"_ZNSt6vectorIlSaIlEEC4ERKS1_"
.LASF442:
	.string	"_ZNSt6vectorIlSaIlEE15_S_use_relocateEv"
.LASF637:
	.string	"_From"
.LASF446:
	.string	"_ZNSt6vectorIdSaIdEE11_S_relocateEPdS2_S2_RS0_"
.LASF253:
	.string	"_ZNSt6vectorIlSaIlEE14_S_do_relocateEPlS2_S2_RS0_St17integral_constantIbLb0EE"
.LASF1056:
	.string	"_ZN6__pstl9execution2v118unsequenced_policy14__allow_vectorEv"
.LASF1176:
	.string	"_ZNSt12_Vector_baseIlSaIlEEC2EmRKS0_"
.LASF341:
	.string	"_ZNSt6vectorIlSaIlEE4swapERS1_"
.LASF362:
	.string	"_S_check_init_len"
.LASF146:
	.string	"__uninit_copy<__gnu_cxx::__normal_iterator<long int const*, std::vector<long int> >, long int*>"
.LASF215:
	.string	"_ZNSt12_Vector_baseIlSaIlEE12_Vector_implC4EOS2_"
.LASF173:
	.string	"size_type"
.LASF2:
	.string	"__unknown__"
.LASF413:
	.string	"_ZNSt12_Vector_baseIdSaIdEE17_Vector_impl_data12_M_copy_dataERKS2_"
.LASF840:
	.string	"_ZNK9__gnu_cxx17__normal_iteratorIPdSt6vectorIdSaIdEEEptEv"
.LASF809:
	.string	"base"
.LASF52:
	.string	"FILE"
.LASF648:
	.string	"__uninitialized_default_n_a<double*, long unsigned int, double>"
.LASF447:
	.string	"_ZNSt6vectorIdSaIdEEC4Ev"
.LASF210:
	.string	"_ZNSt12_Destroy_auxILb1EE9__destroyIPlEEvT_S3_"
.LASF894:
	.string	"__uint_least16_t"
.LASF1163:
	.string	"__dso_handle"
.LASF221:
	.string	"_ZNKSt12_Vector_baseIlSaIlEE19_M_get_Tp_allocatorEv"
.LASF670:
	.string	"_Funct"
.LASF617:
	.string	"_ZSt14__copy_move_a2ILb0EPKdPdET1_T0_S4_S3_"
.LASF450:
	.string	"_ZNSt6vectorIdSaIdEEC4EmRKdRKS0_"
.LASF588:
	.string	"_Construct<double>"
.LASF19:
	.string	"char"
.LASF1058:
	.string	"cout"
.LASF489:
	.string	"_ZNSt6vectorIdSaIdEE5frontEv"
.LASF546:
	.string	"__throw_bad_alloc"
.LASF1034:
	.string	"iswctype"
.LASF1131:
	.string	"_ZNSt8ios_base4InitD1Ev"
.LASF181:
	.string	"allocator"
.LASF526:
	.string	"iterator_category"
.LASF1016:
	.string	"fread"
.LASF345:
	.string	"_ZNSt6vectorIlSaIlEE18_M_fill_initializeEmRKl"
.LASF739:
	.string	"tm_gmtoff"
.LASF556:
	.string	"__niter_base<long int const*, std::vector<long int> >"
.LASF634:
	.string	"_ZSt8distanceIN9__gnu_cxx17__normal_iteratorIPlSt6vectorIlSaIlEEEEENSt15iterator_traitsIT_E15difference_typeES8_S8_"
.LASF151:
	.string	"_TrivialValueTypes"
.LASF721:
	.string	"vwscanf"
.LASF116:
	.string	"_ZNSt11char_traitsIcE11eq_int_typeERKiS2_"
.LASF365:
	.string	"_ZNSt6vectorIlSaIlEE11_S_max_sizeERKS0_"
.LASF111:
	.string	"_ZNSt11char_traitsIcE12to_char_typeERKi"
.LASF200:
	.string	"_Vector_base<long int, std::allocator<long int> >"
.LASF222:
	.string	"get_allocator"
.LASF572:
	.string	"_OutputIterator"
.LASF621:
	.string	"_ZSt18uninitialized_copyIN9__gnu_cxx17__normal_iteratorIPKlSt6vectorIlSaIlEEEEPlET0_T_SA_S9_"
.LASF485:
	.string	"_ZNKSt6vectorIdSaIdEEixEm"
.LASF922:
	.string	"int_fast32_t"
.LASF824:
	.string	"_ZN9__gnu_cxx17__normal_iteratorIPKlSt6vectorIlSaIlEEEmIEl"
.LASF1097:
	.string	"_ZNK9container6tensorIdJEE5shapeEl"
.LASF157:
	.string	"__new_allocator<long int>"
.LASF1096:
	.string	"_ZNK9container6tensorIdJEE5shapeEv"
.LASF1069:
	.string	"~tensor"
.LASF607:
	.string	"copy<long int const*, long int*>"
.LASF636:
	.string	"_ZSt12__niter_wrapIN9__gnu_cxx17__normal_iteratorIPdSt6vectorIdSaIdEEEES2_ET_S7_T0_"
.LASF1165:
	.string	"__val"
.LASF391:
	.string	"_ZNSt15__new_allocatorIdEC4ERKS0_"
.LASF917:
	.string	"uint_least16_t"
.LASF428:
	.string	"_ZNSt12_Vector_baseIdSaIdEEC4Em"
.LASF1148:
	.string	"__tmp"
.LASF426:
	.string	"_ZNSt12_Vector_baseIdSaIdEEC4Ev"
.LASF1195:
	.string	"__new_size"
.LASF319:
	.string	"front"
.LASF333:
	.string	"insert"
.LASF773:
	.string	"_ZN9__gnu_cxx14__alloc_traitsISaIlElE10_S_on_swapERS1_S3_"
.LASF400:
	.string	"_ZNSaIdEC4Ev"
.LASF325:
	.string	"data"
.LASF90:
	.string	"_ZNKSt15__exception_ptr13exception_ptr20__cxa_exception_typeEv"
.LASF78:
	.string	"_ZNSt15__exception_ptr13exception_ptrC4Ev"
.LASF705:
	.string	"mbrtowc"
.LASF411:
	.string	"_ZNSt12_Vector_baseIdSaIdEE17_Vector_impl_dataC4Ev"
.LASF249:
	.string	"_ZNSt6vectorIlSaIlEE19_S_nothrow_relocateESt17integral_constantIbLb0EE"
.LASF1062:
	.string	"tensor<double, 2, 3, 5>"
.LASF1150:
	.string	"_Num"
.LASF938:
	.string	"mon_decimal_point"
.LASF96:
	.string	"_ZNSt11char_traitsIcE2eqERKcS2_"
.LASF1095:
	.string	"_ZNK9container6tensorIdJEE4sizeEv"
.LASF36:
	.string	"_chain"
.LASF1258:
	.string	"typedef __va_list_tag __va_list_tag"
.LASF344:
	.string	"_M_fill_initialize"
.LASF970:
	.string	"__compar_fn_t"
.LASF477:
	.string	"_ZNKSt6vectorIdSaIdEE8max_sizeEv"
.LASF775:
	.string	"_ZN9__gnu_cxx14__alloc_traitsISaIlElE27_S_propagate_on_copy_assignEv"
.LASF1268:
	.string	"__cxa_end_catch"
.LASF629:
	.string	"min<long unsigned int>"
.LASF1084:
	.string	"operator()<int, int, int>"
.LASF1006:
	.string	"fpos_t"
.LASF812:
	.string	"_M_current"
.LASF891:
	.string	"__int_least8_t"
.LASF821:
	.string	"_ZNK9__gnu_cxx17__normal_iteratorIPKlSt6vectorIlSaIlEEEixEl"
.LASF281:
	.string	"_ZNKSt6vectorIlSaIlEE3endEv"
.LASF10:
	.string	"overflow_arg_area"
.LASF11:
	.string	"reg_save_area"
.LASF897:
	.string	"__int_least64_t"
.LASF998:
	.string	"strtold"
.LASF995:
	.string	"strtoll"
.LASF408:
	.string	"_ZNSt16allocator_traitsISaIdEE8max_sizeERKS0_"
.LASF528:
	.string	"remove_reference<std::vector<long int, std::allocator<long int> > >"
.LASF700:
	.string	"fwprintf"
.LASF1181:
	.string	"_ZN9__gnu_cxx17__normal_iteratorIPKdSt6vectorIdSaIdEEEC2ERKS2_"
.LASF1246:
	.string	"main"
.LASF830:
	.string	"_ZN9__gnu_cxx14__alloc_traitsISaIdEdE27_S_propagate_on_copy_assignEv"
.LASF85:
	.string	"~exception_ptr"
.LASF1088:
	.string	"_ZN9container6tensorIdJEEC4Ev"
.LASF915:
	.string	"int_least64_t"
.LASF943:
	.string	"int_frac_digits"
.LASF595:
	.string	"_ZSt12__miter_baseIPKlET_S2_"
.LASF1028:
	.string	"setvbuf"
.LASF47:
	.string	"_freeres_list"
.LASF793:
	.string	"_ZNK9__gnu_cxx17__normal_iteratorIPlSt6vectorIlSaIlEEEptEv"
.LASF1059:
	.string	"par_unseq"
.LASF889:
	.string	"__int64_t"
.LASF440:
	.string	"_ZNSt6vectorIdSaIdEE19_S_nothrow_relocateESt17integral_constantIbLb1EE"
.LASF486:
	.string	"_ZNKSt6vectorIdSaIdEE14_M_range_checkEm"
.LASF1239:
	.string	"current_dim"
.LASF951:
	.string	"int_p_cs_precedes"
.LASF827:
	.string	"__alloc_traits<std::allocator<double>, double>"
.LASF1186:
	.string	"__navail"
.LASF759:
	.string	"wprintf"
.LASF54:
	.string	"_IO_FILE"
.LASF659:
	.string	"_ZSt4moveIRNSt12_Vector_baseIlSaIlEE12_Vector_implEEONSt16remove_referenceIT_E4typeEOS6_"
.LASF1245:
	.string	"_ZNSt12_Vector_baseIdSaIdEE12_Vector_implD2Ev"
.LASF120:
	.string	"ptrdiff_t"
.LASF655:
	.string	"_ZSt13__copy_move_aILb0EN9__gnu_cxx17__normal_iteratorIPKdSt6vectorIdSaIdEEEENS1_IPdS6_EEET1_T0_SB_SA_"
.LASF789:
	.string	"_ZN9__gnu_cxx17__normal_iteratorIPlSt6vectorIlSaIlEEEC4ERKS1_"
.LASF536:
	.string	"_Iterator"
.LASF8:
	.string	"gp_offset"
.LASF296:
	.string	"crend"
.LASF892:
	.string	"__uint_least8_t"
.LASF1191:
	.string	"__can_fill"
.LASF559:
	.string	"__fill_a<double*, double>"
.LASF969:
	.string	"ssize_t"
.LASF1247:
	.string	"argc"
.LASF1121:
	.string	"_ZNK9container6tensorIdJLl2ELl3ELl55EEE5beginEv"
.LASF502:
	.string	"_ZNSt6vectorIdSaIdEE5eraseEN9__gnu_cxx17__normal_iteratorIPKdS1_EE"
.LASF1010:
	.string	"ferror"
.LASF663:
	.string	"_ZSt10__distanceIPKlENSt15iterator_traitsIT_E15difference_typeES3_S3_St26random_access_iterator_tag"
.LASF354:
	.string	"_M_shrink_to_fit"
.LASF1042:
	.string	"_ZN6__pstl9execution2v116sequenced_policy19__allow_unsequencedEv"
.LASF1248:
	.string	"argv"
.LASF114:
	.string	"_ZNSt11char_traitsIcE11to_int_typeERKc"
.LASF714:
	.string	"vfwprintf"
.LASF513:
	.string	"_ZNSt6vectorIdSaIdEE14_M_emplace_auxEN9__gnu_cxx17__normal_iteratorIPKdS1_EEOd"
.LASF582:
	.string	"__niter_base<long int const*>"
.LASF906:
	.string	"int32_t"
.LASF616:
	.string	"__copy_move_a2<false, double const*, double*>"
.LASF99:
	.string	"length"
.LASF920:
	.string	"int_fast8_t"
.LASF764:
	.string	"wcsrchr"
.LASF697:
	.string	"fputwc"
.LASF904:
	.string	"int8_t"
.LASF698:
	.string	"fputws"
.LASF649:
	.string	"_ZSt27__uninitialized_default_n_aIPdmdET_S1_T0_RSaIT1_E"
.LASF21:
	.string	"mbstate_t"
.LASF480:
	.string	"_ZNSt6vectorIdSaIdEE13shrink_to_fitEv"
.LASF529:
	.string	"remove_reference<std::vector<long int, std::allocator<long int> >&>"
.LASF14:
	.string	"wint_t"
.LASF1033:
	.string	"wctrans_t"
.LASF552:
	.string	"runtime_error"
.LASF494:
	.string	"_ZNKSt6vectorIdSaIdEE4dataEv"
.LASF1051:
	.string	"_ZN6__pstl9execution2v127parallel_unsequenced_policy19__allow_unsequencedEv"
.LASF297:
	.string	"_ZNKSt6vectorIlSaIlEE5crendEv"
.LASF675:
	.string	"move<std::vector<long int> >"
.LASF620:
	.string	"uninitialized_copy<__gnu_cxx::__normal_iterator<long int const*, std::vector<long int> >, long int*>"
.LASF1172:
	.string	"__two"
.LASF512:
	.string	"_ZNSt6vectorIdSaIdEE14_M_insert_rvalEN9__gnu_cxx17__normal_iteratorIPKdS1_EEOd"
.LASF12:
	.string	"unsigned int"
.LASF521:
	.string	"_ZNSt6vectorIdSaIdEE14_M_move_assignEOS1_St17integral_constantIbLb0EE"
.LASF282:
	.string	"reverse_iterator"
.LASF482:
	.string	"_ZNKSt6vectorIdSaIdEE5emptyEv"
.LASF130:
	.string	"_Destroy_aux<true>"
.LASF976:
	.string	"bsearch"
	.section	.debug_line_str,"MS",@progbits,1
.LASF1:
	.string	"/home/xunililak/Code/Projects/10-Tensor"
.LASF0:
	.string	"Application.cpp"
	.hidden	DW.ref.__gxx_personality_v0
	.weak	DW.ref.__gxx_personality_v0
	.section	.data.rel.local.DW.ref.__gxx_personality_v0,"awG",@progbits,DW.ref.__gxx_personality_v0,comdat
	.align 8
	.type	DW.ref.__gxx_personality_v0, @object
	.size	DW.ref.__gxx_personality_v0, 8
DW.ref.__gxx_personality_v0:
	.quad	__gxx_personality_v0
	.hidden	__dso_handle
	.ident	"GCC: (Debian 12.2.0-3) 12.2.0"
	.section	.note.GNU-stack,"",@progbits
