	.file	"Application.cpp"
# GNU C++17 (Debian 12.2.0-3) version 12.2.0 (x86_64-linux-gnu)
#	compiled by GNU C version 12.2.0, GMP version 6.2.1, MPFR version 4.1.0, MPC version 1.2.1, isl version isl-0.25-GMP

# GGC heuristics: --param ggc-min-expand=100 --param ggc-min-heapsize=131072
# options passed: -mtune=generic -march=x86-64 -g -std=c++17 -fasynchronous-unwind-tables
	.text
.Ltext0:
	.file 0 "/home/xunililak/Code/Projects/10-Tensor" "Application.cpp"
	.section	.text._ZnwmPv,"axG",@progbits,_ZnwmPv,comdat
	.weak	_ZnwmPv
	.type	_ZnwmPv, @function
_ZnwmPv:
.LFB40:
	.file 1 "/usr/include/c++/12/new"
	.loc 1 175 1
	.cfi_startproc
	pushq	%rbp	#
	.cfi_def_cfa_offset 16
	.cfi_offset 6, -16
	movq	%rsp, %rbp	#,
	.cfi_def_cfa_register 6
	movq	%rdi, -8(%rbp)	# D.3371, D.3371
	movq	%rsi, -16(%rbp)	# __p, __p
# /usr/include/c++/12/new:175: { return __p; }
	.loc 1 175 10
	movq	-16(%rbp), %rax	# __p, _2
# /usr/include/c++/12/new:175: { return __p; }
	.loc 1 175 15
	popq	%rbp	#
	.cfi_def_cfa 7, 8
	ret	
	.cfi_endproc
.LFE40:
	.size	_ZnwmPv, .-_ZnwmPv
	.section	.text._ZSt17__size_to_integerm,"axG",@progbits,_ZSt17__size_to_integerm,comdat
	.weak	_ZSt17__size_to_integerm
	.type	_ZSt17__size_to_integerm, @function
_ZSt17__size_to_integerm:
.LFB652:
	.file 2 "/usr/include/c++/12/bits/stl_algobase.h"
	.loc 2 1009 40
	.cfi_startproc
	pushq	%rbp	#
	.cfi_def_cfa_offset 16
	.cfi_offset 6, -16
	movq	%rsp, %rbp	#,
	.cfi_def_cfa_register 6
	movq	%rdi, -8(%rbp)	# __n, __n
# /usr/include/c++/12/bits/stl_algobase.h:1009:   __size_to_integer(unsigned long __n) { return __n; }
	.loc 2 1009 49
	movq	-8(%rbp), %rax	# __n, _2
# /usr/include/c++/12/bits/stl_algobase.h:1009:   __size_to_integer(unsigned long __n) { return __n; }
	.loc 2 1009 54
	popq	%rbp	#
	.cfi_def_cfa 7, 8
	ret	
	.cfi_endproc
.LFE652:
	.size	_ZSt17__size_to_integerm, .-_ZSt17__size_to_integerm
	.section	.text._ZNKSt17integral_constantIbLb1EEcvbEv,"axG",@progbits,_ZNKSt17integral_constantIbLb1EEcvbEv,comdat
	.align 2
	.weak	_ZNKSt17integral_constantIbLb1EEcvbEv
	.type	_ZNKSt17integral_constantIbLb1EEcvbEv, @function
_ZNKSt17integral_constantIbLb1EEcvbEv:
.LFB907:
	.file 3 "/usr/include/c++/12/type_traits"
	.loc 3 67 17
	.cfi_startproc
	pushq	%rbp	#
	.cfi_def_cfa_offset 16
	.cfi_offset 6, -16
	movq	%rsp, %rbp	#,
	.cfi_def_cfa_register 6
	movq	%rdi, -8(%rbp)	# this, this
# /usr/include/c++/12/type_traits:67:       constexpr operator value_type() const noexcept { return value; }
	.loc 3 67 63
	movl	$1, %eax	#, _1
# /usr/include/c++/12/type_traits:67:       constexpr operator value_type() const noexcept { return value; }
	.loc 3 67 70
	popq	%rbp	#
	.cfi_def_cfa 7, 8
	ret	
	.cfi_endproc
.LFE907:
	.size	_ZNKSt17integral_constantIbLb1EEcvbEv, .-_ZNKSt17integral_constantIbLb1EEcvbEv
	.local	_ZStL8__ioinit
	.comm	_ZStL8__ioinit,1,1
	.section	.rodata
.LC0:
	.string	"Index out of range."
	.text
	.globl	_ZN9container7details11index_checkEll
	.type	_ZN9container7details11index_checkEll, @function
_ZN9container7details11index_checkEll:
.LFB1754:
	.file 4 "src/Tensor/../Utils/Utils.hpp"
	.loc 4 26 9
	.cfi_startproc
	.cfi_personality 0x9b,DW.ref.__gxx_personality_v0
	.cfi_lsda 0x1b,.LLSDA1754
	pushq	%rbp	#
	.cfi_def_cfa_offset 16
	.cfi_offset 6, -16
	movq	%rsp, %rbp	#,
	.cfi_def_cfa_register 6
	pushq	%r12	#
	pushq	%rbx	#
	subq	$16, %rsp	#,
	.cfi_offset 12, -24
	.cfi_offset 3, -32
	movq	%rdi, -24(%rbp)	# index, index
	movq	%rsi, -32(%rbp)	# oor_index, oor_index
# src/Tensor/../Utils/Utils.hpp:27:             if (index >= oor_index || index < -oor_index)
	.loc 4 27 13
	movq	-24(%rbp), %rax	# index, tmp87
	cmpq	-32(%rbp), %rax	# oor_index, tmp87
	jge	.L8	#,
# src/Tensor/../Utils/Utils.hpp:27:             if (index >= oor_index || index < -oor_index)
	.loc 4 27 47 discriminator 1
	movq	-32(%rbp), %rax	# oor_index, tmp88
	negq	%rax	# _1
# src/Tensor/../Utils/Utils.hpp:27:             if (index >= oor_index || index < -oor_index)
	.loc 4 27 36 discriminator 1
	cmpq	%rax, -24(%rbp)	# _1, index
	jge	.L9	#,
.L8:
# src/Tensor/../Utils/Utils.hpp:28:                 throw std::runtime_error("Index out of range.");
	.loc 4 28 63
	movl	$16, %edi	#,
	call	__cxa_allocate_exception@PLT	#
	movq	%rax, %rbx	# tmp89, _10
# src/Tensor/../Utils/Utils.hpp:28:                 throw std::runtime_error("Index out of range.");
	.loc 4 28 17
	leaq	.LC0(%rip), %rax	#, tmp90
	movq	%rax, %rsi	# tmp90,
	movq	%rbx, %rdi	# _10,
.LEHB0:
	call	_ZNSt13runtime_errorC1EPKc@PLT	#
.LEHE0:
# src/Tensor/../Utils/Utils.hpp:28:                 throw std::runtime_error("Index out of range.");
	.loc 4 28 63 discriminator 2
	movq	_ZNSt13runtime_errorD1Ev@GOTPCREL(%rip), %rax	#, tmp92
	movq	%rax, %rdx	# tmp91,
	leaq	_ZTISt13runtime_error(%rip), %rax	#, tmp93
	movq	%rax, %rsi	# tmp93,
	movq	%rbx, %rdi	# _10,
.LEHB1:
	call	__cxa_throw@PLT	#
.L9:
# src/Tensor/../Utils/Utils.hpp:29:             return index >= 0 ? index : oor_index + index;
	.loc 4 29 31
	cmpq	$0, -24(%rbp)	#, index
	jns	.L10	#,
# src/Tensor/../Utils/Utils.hpp:29:             return index >= 0 ? index : oor_index + index;
	.loc 4 29 31 is_stmt 0 discriminator 1
	movq	-32(%rbp), %rdx	# oor_index, tmp94
	movq	-24(%rbp), %rax	# index, tmp95
	addq	%rdx, %rax	# tmp94, iftmp.0_2
# src/Tensor/../Utils/Utils.hpp:29:             return index >= 0 ? index : oor_index + index;
	.loc 4 29 53 is_stmt 1 discriminator 1
	jmp	.L15	#
.L10:
# src/Tensor/../Utils/Utils.hpp:29:             return index >= 0 ? index : oor_index + index;
	.loc 4 29 31 discriminator 2
	movq	-24(%rbp), %rax	# index, iftmp.0_2
# src/Tensor/../Utils/Utils.hpp:29:             return index >= 0 ? index : oor_index + index;
	.loc 4 29 53 discriminator 2
	jmp	.L15	#
.L14:
# src/Tensor/../Utils/Utils.hpp:28:                 throw std::runtime_error("Index out of range.");
	.loc 4 28 63
	movq	%rax, %r12	#, tmp97
	movq	%rbx, %rdi	# _10,
	call	__cxa_free_exception@PLT	#
	movq	%r12, %rax	# tmp97, D.68627
	movq	%rax, %rdi	# D.68627,
	call	_Unwind_Resume@PLT	#
.LEHE1:
.L15:
# src/Tensor/../Utils/Utils.hpp:30:         }
	.loc 4 30 9
	addq	$16, %rsp	#,
	popq	%rbx	#
	popq	%r12	#
	popq	%rbp	#
	.cfi_def_cfa 7, 8
	ret	
	.cfi_endproc
.LFE1754:
	.globl	__gxx_personality_v0
	.section	.gcc_except_table,"a",@progbits
.LLSDA1754:
	.byte	0xff
	.byte	0xff
	.byte	0x1
	.uleb128 .LLSDACSE1754-.LLSDACSB1754
.LLSDACSB1754:
	.uleb128 .LEHB0-.LFB1754
	.uleb128 .LEHE0-.LEHB0
	.uleb128 .L14-.LFB1754
	.uleb128 0
	.uleb128 .LEHB1-.LFB1754
	.uleb128 .LEHE1-.LEHB1
	.uleb128 0
	.uleb128 0
.LLSDACSE1754:
	.text
	.size	_ZN9container7details11index_checkEll, .-_ZN9container7details11index_checkEll
	.section	.rodata
	.type	_ZN6__pstl9execution2v1L3seqE, @object
	.size	_ZN6__pstl9execution2v1L3seqE, 1
_ZN6__pstl9execution2v1L3seqE:
	.zero	1
	.type	_ZN6__pstl9execution2v1L3parE, @object
	.size	_ZN6__pstl9execution2v1L3parE, 1
_ZN6__pstl9execution2v1L3parE:
	.zero	1
	.type	_ZN6__pstl9execution2v1L9par_unseqE, @object
	.size	_ZN6__pstl9execution2v1L9par_unseqE, 1
_ZN6__pstl9execution2v1L9par_unseqE:
	.zero	1
	.type	_ZN6__pstl9execution2v1L5unseqE, @object
	.size	_ZN6__pstl9execution2v1L5unseqE, 1
_ZN6__pstl9execution2v1L5unseqE:
	.zero	1
	.section	.text._ZN9container6tensorIdJLl2ELl3ELl5EEED2Ev,"axG",@progbits,_ZN9container6tensorIdJLl2ELl3ELl5EEED5Ev,comdat
	.align 2
	.weak	_ZN9container6tensorIdJLl2ELl3ELl5EEED2Ev
	.type	_ZN9container6tensorIdJLl2ELl3ELl5EEED2Ev, @function
_ZN9container6tensorIdJLl2ELl3ELl5EEED2Ev:
.LFB2570:
	.file 5 "src/Tensor/Tensor.hpp"
	.loc 5 72 9
	.cfi_startproc
	pushq	%rbp	#
	.cfi_def_cfa_offset 16
	.cfi_offset 6, -16
	movq	%rsp, %rbp	#,
	.cfi_def_cfa_register 6
	subq	$16, %rsp	#,
	movq	%rdi, -8(%rbp)	# this, this
.LBB2:
# src/Tensor/Tensor.hpp:72:         ~tensor() = default;
	.loc 5 72 9
	movq	-8(%rbp), %rax	# this, tmp84
	addq	$24, %rax	#, _1
	movq	%rax, %rdi	# _1,
	call	_ZNSt6vectorIlSaIlEED1Ev	#
	movq	-8(%rbp), %rax	# this, _2
	movq	%rax, %rdi	# _2,
	call	_ZNSt6vectorIdSaIdEED1Ev	#
.LBE2:
	nop	
	leave	
	.cfi_def_cfa 7, 8
	ret	
	.cfi_endproc
.LFE2570:
	.size	_ZN9container6tensorIdJLl2ELl3ELl5EEED2Ev, .-_ZN9container6tensorIdJLl2ELl3ELl5EEED2Ev
	.weak	_ZN9container6tensorIdJLl2ELl3ELl5EEED1Ev
	.set	_ZN9container6tensorIdJLl2ELl3ELl5EEED1Ev,_ZN9container6tensorIdJLl2ELl3ELl5EEED2Ev
	.section	.text._ZN9container6tensorIdJEED2Ev,"axG",@progbits,_ZN9container6tensorIdJEED5Ev,comdat
	.align 2
	.weak	_ZN9container6tensorIdJEED2Ev
	.type	_ZN9container6tensorIdJEED2Ev, @function
_ZN9container6tensorIdJEED2Ev:
.LFB2573:
	.loc 5 72 9
	.cfi_startproc
	pushq	%rbp	#
	.cfi_def_cfa_offset 16
	.cfi_offset 6, -16
	movq	%rsp, %rbp	#,
	.cfi_def_cfa_register 6
	subq	$16, %rsp	#,
	movq	%rdi, -8(%rbp)	# this, this
.LBB3:
# src/Tensor/Tensor.hpp:72:         ~tensor() = default;
	.loc 5 72 9
	movq	-8(%rbp), %rax	# this, tmp84
	addq	$24, %rax	#, _1
	movq	%rax, %rdi	# _1,
	call	_ZNSt6vectorIlSaIlEED1Ev	#
	movq	-8(%rbp), %rax	# this, _2
	movq	%rax, %rdi	# _2,
	call	_ZNSt6vectorIdSaIdEED1Ev	#
.LBE3:
	nop	
	leave	
	.cfi_def_cfa 7, 8
	ret	
	.cfi_endproc
.LFE2573:
	.size	_ZN9container6tensorIdJEED2Ev, .-_ZN9container6tensorIdJEED2Ev
	.weak	_ZN9container6tensorIdJEED1Ev
	.set	_ZN9container6tensorIdJEED1Ev,_ZN9container6tensorIdJEED2Ev
	.text
	.globl	main
	.type	main, @function
main:
.LFB2568:
	.file 6 "Application.cpp"
	.loc 6 9 1
	.cfi_startproc
	.cfi_personality 0x9b,DW.ref.__gxx_personality_v0
	.cfi_lsda 0x1b,.LLSDA2568
	pushq	%rbp	#
	.cfi_def_cfa_offset 16
	.cfi_offset 6, -16
	movq	%rsp, %rbp	#,
	.cfi_def_cfa_register 6
	pushq	%rbx	#
	subq	$168, %rsp	#,
	.cfi_offset 3, -24
	movl	%edi, -164(%rbp)	# argc, argc
	movq	%rsi, -176(%rbp)	# argv, argv
# Application.cpp:10:     tensor<double, 2, 3, 5> t1{};
	.loc 6 10 32
	leaq	-64(%rbp), %rax	#, tmp89
	movq	%rax, %rdi	# tmp89,
.LEHB2:
	call	_ZN9container6tensorIdJLl2ELl3ELl5EEEC1Ev	#
.LEHE2:
# Application.cpp:11:     t1(0, 0, 0) = 99;
	.loc 6 11 7
	leaq	-64(%rbp), %rax	#, tmp90
	movl	$0, %ecx	#,
	movl	$0, %edx	#,
	movl	$0, %esi	#,
	movq	%rax, %rdi	# tmp90,
.LEHB3:
	call	_ZN9container6tensorIdJLl2ELl3ELl5EEEclIJiiiEEERdDpT_	#
# Application.cpp:11:     t1(0, 0, 0) = 99;
	.loc 6 11 17
	movsd	.LC1(%rip), %xmm0	#, tmp91
	movsd	%xmm0, (%rax)	# tmp91, *_1
# Application.cpp:12:     tensor<double> t2{t1};
	.loc 6 12 25
	leaq	-64(%rbp), %rdx	#, tmp92
	leaq	-112(%rbp), %rax	#, tmp93
	movq	%rdx, %rsi	# tmp92,
	movq	%rax, %rdi	# tmp93,
	call	_ZN9container6tensorIdJEEC1IJLl2ELl3ELl5EEEERKNS0_IdJXspT_EEEE	#
.LEHE3:
# Application.cpp:14:     tensor<double, 2, 3, 5> t3{std::move(t2)};
	.loc 6 14 41
	leaq	-112(%rbp), %rax	#, tmp94
	movq	%rax, %rdi	# tmp94,
	call	_ZSt4moveIRN9container6tensorIdJEEEEONSt16remove_referenceIT_E4typeEOS5_	#
	movq	%rax, %rdx	#, _2
# Application.cpp:14:     tensor<double, 2, 3, 5> t3{std::move(t2)};
	.loc 6 14 45
	leaq	-160(%rbp), %rax	#, tmp95
	movq	%rdx, %rsi	# _2,
	movq	%rax, %rdi	# tmp95,
.LEHB4:
	call	_ZN9container6tensorIdJLl2ELl3ELl5EEEC1IJEEEONS0_IdJXspT_EEEE	#
.LEHE4:
# Application.cpp:16:     std::cout << t2.shape(0) << '\n';
	.loc 6 16 28
	leaq	-112(%rbp), %rax	#, tmp96
	movl	$0, %esi	#,
	movq	%rax, %rdi	# tmp96,
.LEHB5:
	call	_ZNK9container6tensorIdJEE5shapeEl	#
	movq	%rax, %rsi	# _3,
	leaq	_ZSt4cout(%rip), %rax	#, tmp97
	movq	%rax, %rdi	# tmp97,
	call	_ZNSolsEl@PLT	#
# Application.cpp:16:     std::cout << t2.shape(0) << '\n';
	.loc 6 16 33 discriminator 1
	movl	$10, %esi	#,
	movq	%rax, %rdi	# _4,
	call	_ZStlsISt11char_traitsIcEERSt13basic_ostreamIcT_ES5_c@PLT	#
.LEHE5:
# Application.cpp:18:     return 0;
	.loc 6 18 12
	movl	$0, %ebx	#, _22
# Application.cpp:19: }
	.loc 6 19 1
	leaq	-160(%rbp), %rax	#, tmp98
	movq	%rax, %rdi	# tmp98,
	call	_ZN9container6tensorIdJLl2ELl3ELl5EEED1Ev	#
	leaq	-112(%rbp), %rax	#, tmp99
	movq	%rax, %rdi	# tmp99,
	call	_ZN9container6tensorIdJEED1Ev	#
	leaq	-64(%rbp), %rax	#, tmp100
	movq	%rax, %rdi	# tmp100,
	call	_ZN9container6tensorIdJLl2ELl3ELl5EEED1Ev	#
	movl	%ebx, %eax	# _22, <retval>
	jmp	.L26	#
.L25:
	movq	%rax, %rbx	#, tmp104
	leaq	-160(%rbp), %rax	#, tmp102
	movq	%rax, %rdi	# tmp102,
	call	_ZN9container6tensorIdJLl2ELl3ELl5EEED1Ev	#
	jmp	.L21	#
.L24:
	movq	%rax, %rbx	#, tmp103
.L21:
	leaq	-112(%rbp), %rax	#, tmp107
	movq	%rax, %rdi	# tmp107,
	call	_ZN9container6tensorIdJEED1Ev	#
	jmp	.L22	#
.L23:
	movq	%rax, %rbx	#, tmp108
.L22:
	leaq	-64(%rbp), %rax	#, tmp110
	movq	%rax, %rdi	# tmp110,
	call	_ZN9container6tensorIdJLl2ELl3ELl5EEED1Ev	#
	movq	%rbx, %rax	# tmp108, D.68629
	movq	%rax, %rdi	# D.68629,
.LEHB6:
	call	_Unwind_Resume@PLT	#
.LEHE6:
.L26:
	movq	-8(%rbp), %rbx	#,
	leave	
	.cfi_def_cfa 7, 8
	ret	
	.cfi_endproc
.LFE2568:
	.section	.gcc_except_table
.LLSDA2568:
	.byte	0xff
	.byte	0xff
	.byte	0x1
	.uleb128 .LLSDACSE2568-.LLSDACSB2568
.LLSDACSB2568:
	.uleb128 .LEHB2-.LFB2568
	.uleb128 .LEHE2-.LEHB2
	.uleb128 0
	.uleb128 0
	.uleb128 .LEHB3-.LFB2568
	.uleb128 .LEHE3-.LEHB3
	.uleb128 .L23-.LFB2568
	.uleb128 0
	.uleb128 .LEHB4-.LFB2568
	.uleb128 .LEHE4-.LEHB4
	.uleb128 .L24-.LFB2568
	.uleb128 0
	.uleb128 .LEHB5-.LFB2568
	.uleb128 .LEHE5-.LEHB5
	.uleb128 .L25-.LFB2568
	.uleb128 0
	.uleb128 .LEHB6-.LFB2568
	.uleb128 .LEHE6-.LEHB6
	.uleb128 0
	.uleb128 0
.LLSDACSE2568:
	.text
	.size	main, .-main
	.section	.text._ZNSt12_Vector_baseIdSaIdEE12_Vector_implD2Ev,"axG",@progbits,_ZNSt12_Vector_baseIdSaIdEE12_Vector_implD5Ev,comdat
	.align 2
	.weak	_ZNSt12_Vector_baseIdSaIdEE12_Vector_implD2Ev
	.type	_ZNSt12_Vector_baseIdSaIdEE12_Vector_implD2Ev, @function
_ZNSt12_Vector_baseIdSaIdEE12_Vector_implD2Ev:
.LFB2843:
	.file 7 "/usr/include/c++/12/bits/stl_vector.h"
	.loc 7 133 14
	.cfi_startproc
	pushq	%rbp	#
	.cfi_def_cfa_offset 16
	.cfi_offset 6, -16
	movq	%rsp, %rbp	#,
	.cfi_def_cfa_register 6
	subq	$16, %rsp	#,
	movq	%rdi, -8(%rbp)	# this, this
.LBB4:
# /usr/include/c++/12/bits/stl_vector.h:133:       struct _Vector_impl
	.loc 7 133 14
	movq	-8(%rbp), %rax	# this, tmp82
	movq	%rax, %rdi	# tmp82,
	call	_ZNSaIdED2Ev	#
.LBE4:
	nop	
	leave	
	.cfi_def_cfa 7, 8
	ret	
	.cfi_endproc
.LFE2843:
	.size	_ZNSt12_Vector_baseIdSaIdEE12_Vector_implD2Ev, .-_ZNSt12_Vector_baseIdSaIdEE12_Vector_implD2Ev
	.weak	_ZNSt12_Vector_baseIdSaIdEE12_Vector_implD1Ev
	.set	_ZNSt12_Vector_baseIdSaIdEE12_Vector_implD1Ev,_ZNSt12_Vector_baseIdSaIdEE12_Vector_implD2Ev
	.section	.text._ZNSt12_Vector_baseIdSaIdEEC2Ev,"axG",@progbits,_ZNSt12_Vector_baseIdSaIdEEC5Ev,comdat
	.align 2
	.weak	_ZNSt12_Vector_baseIdSaIdEEC2Ev
	.type	_ZNSt12_Vector_baseIdSaIdEEC2Ev, @function
_ZNSt12_Vector_baseIdSaIdEEC2Ev:
.LFB2845:
	.loc 7 312 7
	.cfi_startproc
	pushq	%rbp	#
	.cfi_def_cfa_offset 16
	.cfi_offset 6, -16
	movq	%rsp, %rbp	#,
	.cfi_def_cfa_register 6
	subq	$16, %rsp	#,
	movq	%rdi, -8(%rbp)	# this, this
.LBB5:
# /usr/include/c++/12/bits/stl_vector.h:312:       _Vector_base() = default;
	.loc 7 312 7
	movq	-8(%rbp), %rax	# this, _1
	movq	%rax, %rdi	# _1,
	call	_ZNSt12_Vector_baseIdSaIdEE12_Vector_implC1Ev	#
.LBE5:
	nop	
	leave	
	.cfi_def_cfa 7, 8
	ret	
	.cfi_endproc
.LFE2845:
	.size	_ZNSt12_Vector_baseIdSaIdEEC2Ev, .-_ZNSt12_Vector_baseIdSaIdEEC2Ev
	.weak	_ZNSt12_Vector_baseIdSaIdEEC1Ev
	.set	_ZNSt12_Vector_baseIdSaIdEEC1Ev,_ZNSt12_Vector_baseIdSaIdEEC2Ev
	.section	.text._ZNSt6vectorIdSaIdEEC2Ev,"axG",@progbits,_ZNSt6vectorIdSaIdEEC5Ev,comdat
	.align 2
	.weak	_ZNSt6vectorIdSaIdEEC2Ev
	.type	_ZNSt6vectorIdSaIdEEC2Ev, @function
_ZNSt6vectorIdSaIdEEC2Ev:
.LFB2847:
	.loc 7 526 7
	.cfi_startproc
	pushq	%rbp	#
	.cfi_def_cfa_offset 16
	.cfi_offset 6, -16
	movq	%rsp, %rbp	#,
	.cfi_def_cfa_register 6
	subq	$16, %rsp	#,
	movq	%rdi, -8(%rbp)	# this, this
.LBB6:
# /usr/include/c++/12/bits/stl_vector.h:526:       vector() = default;
	.loc 7 526 7
	movq	-8(%rbp), %rax	# this, _1
	movq	%rax, %rdi	# _1,
	call	_ZNSt12_Vector_baseIdSaIdEEC2Ev	#
.LBE6:
	nop	
	leave	
	.cfi_def_cfa 7, 8
	ret	
	.cfi_endproc
.LFE2847:
	.size	_ZNSt6vectorIdSaIdEEC2Ev, .-_ZNSt6vectorIdSaIdEEC2Ev
	.weak	_ZNSt6vectorIdSaIdEEC1Ev
	.set	_ZNSt6vectorIdSaIdEEC1Ev,_ZNSt6vectorIdSaIdEEC2Ev
	.section	.text._ZN9container6tensorIdJLl2ELl3ELl5EEEC2Ev,"axG",@progbits,_ZN9container6tensorIdJLl2ELl3ELl5EEEC5Ev,comdat
	.align 2
	.weak	_ZN9container6tensorIdJLl2ELl3ELl5EEEC2Ev
	.type	_ZN9container6tensorIdJLl2ELl3ELl5EEEC2Ev, @function
_ZN9container6tensorIdJLl2ELl3ELl5EEEC2Ev:
.LFB2849:
	.loc 5 26 9
	.cfi_startproc
	.cfi_personality 0x9b,DW.ref.__gxx_personality_v0
	.cfi_lsda 0x1b,.LLSDA2849
	pushq	%rbp	#
	.cfi_def_cfa_offset 16
	.cfi_offset 6, -16
	movq	%rsp, %rbp	#,
	.cfi_def_cfa_register 6
	pushq	%r13	#
	pushq	%r12	#
	pushq	%rbx	#
	subq	$56, %rsp	#,
	.cfi_offset 13, -24
	.cfi_offset 12, -32
	.cfi_offset 3, -40
	movq	%rdi, -72(%rbp)	# this, this
.LBB7:
# src/Tensor/Tensor.hpp:26:         tensor() : _dims{dims...}
	.loc 5 26 33
	movq	-72(%rbp), %rax	# this, _1
	movq	%rax, %rdi	# _1,
	call	_ZNSt6vectorIdSaIdEEC1Ev	#
# src/Tensor/Tensor.hpp:26:         tensor() : _dims{dims...}
	.loc 5 26 20
	movq	-72(%rbp), %rax	# this, tmp88
	leaq	24(%rax), %rbx	#, _2
	movq	$2, -64(%rbp)	#, D.62204[0]
	movq	$3, -56(%rbp)	#, D.62204[1]
	movq	$5, -48(%rbp)	#, D.62204[2]
	leaq	-64(%rbp), %rax	#, tmp89
	movq	%rax, %r12	# tmp89, D.62203
	movl	$3, %r13d	#, D.62203
	leaq	-33(%rbp), %rax	#, tmp90
	movq	%rax, %rdi	# tmp90,
	call	_ZNSaIlEC1Ev	#
	leaq	-33(%rbp), %rax	#, tmp91
	movq	%r12, %r8	# D.62203, tmp92
	movq	%r13, %r9	# D.62203,
	movq	%r12, %rsi	# D.62203, tmp93
	movq	%r13, %rdi	# D.62203,
	movq	%rdi, %rdx	#, tmp95
	movq	%rax, %rcx	# tmp91,
	movq	%r8, %rsi	# tmp94,
	movq	%rbx, %rdi	# _2,
.LEHB7:
	call	_ZNSt6vectorIlSaIlEEC1ESt16initializer_listIlERKS0_	#
.LEHE7:
# src/Tensor/Tensor.hpp:26:         tensor() : _dims{dims...}
	.loc 5 26 20 is_stmt 0 discriminator 2
	leaq	-33(%rbp), %rax	#, tmp96
	movq	%rax, %rdi	# tmp96,
	call	_ZNSaIlED1Ev	#
# src/Tensor/Tensor.hpp:29:                 this->_initialize();
	.loc 5 29 34 is_stmt 1 discriminator 2
	movq	-72(%rbp), %rax	# this, tmp97
	movq	%rax, %rdi	# tmp97,
.LEHB8:
	call	_ZN9container6tensorIdJLl2ELl3ELl5EEE11_initializeEv	#
.LEHE8:
.LBE7:
# src/Tensor/Tensor.hpp:30:         }
	.loc 5 30 9
	jmp	.L36	#
.L34:
.LBB8:
# src/Tensor/Tensor.hpp:26:         tensor() : _dims{dims...}
	.loc 5 26 20
	movq	%rax, %rbx	#, tmp100
	leaq	-33(%rbp), %rax	#, tmp98
	movq	%rax, %rdi	# tmp98,
	call	_ZNSaIlED1Ev	#
	jmp	.L32	#
.L35:
# src/Tensor/Tensor.hpp:30:         }
	.loc 5 30 9
	movq	%rax, %rbx	#, tmp104
	movq	-72(%rbp), %rax	# this, tmp103
	addq	$24, %rax	#, _3
	movq	%rax, %rdi	# _3,
	call	_ZNSt6vectorIlSaIlEED1Ev	#
.L32:
	movq	-72(%rbp), %rax	# this, _4
	movq	%rax, %rdi	# _4,
	call	_ZNSt6vectorIdSaIdEED1Ev	#
	movq	%rbx, %rax	# tmp99, D.68630
	movq	%rax, %rdi	# D.68630,
.LEHB9:
	call	_Unwind_Resume@PLT	#
.LEHE9:
.L36:
.LBE8:
	addq	$56, %rsp	#,
	popq	%rbx	#
	popq	%r12	#
	popq	%r13	#
	popq	%rbp	#
	.cfi_def_cfa 7, 8
	ret	
	.cfi_endproc
.LFE2849:
	.section	.gcc_except_table
.LLSDA2849:
	.byte	0xff
	.byte	0xff
	.byte	0x1
	.uleb128 .LLSDACSE2849-.LLSDACSB2849
.LLSDACSB2849:
	.uleb128 .LEHB7-.LFB2849
	.uleb128 .LEHE7-.LEHB7
	.uleb128 .L34-.LFB2849
	.uleb128 0
	.uleb128 .LEHB8-.LFB2849
	.uleb128 .LEHE8-.LEHB8
	.uleb128 .L35-.LFB2849
	.uleb128 0
	.uleb128 .LEHB9-.LFB2849
	.uleb128 .LEHE9-.LEHB9
	.uleb128 0
	.uleb128 0
.LLSDACSE2849:
	.section	.text._ZN9container6tensorIdJLl2ELl3ELl5EEEC2Ev,"axG",@progbits,_ZN9container6tensorIdJLl2ELl3ELl5EEEC5Ev,comdat
	.size	_ZN9container6tensorIdJLl2ELl3ELl5EEEC2Ev, .-_ZN9container6tensorIdJLl2ELl3ELl5EEEC2Ev
	.weak	_ZN9container6tensorIdJLl2ELl3ELl5EEEC1Ev
	.set	_ZN9container6tensorIdJLl2ELl3ELl5EEEC1Ev,_ZN9container6tensorIdJLl2ELl3ELl5EEEC2Ev
	.section	.text._ZNSt6vectorIdSaIdEED2Ev,"axG",@progbits,_ZNSt6vectorIdSaIdEED5Ev,comdat
	.align 2
	.weak	_ZNSt6vectorIdSaIdEED2Ev
	.type	_ZNSt6vectorIdSaIdEED2Ev, @function
_ZNSt6vectorIdSaIdEED2Ev:
.LFB2852:
	.loc 7 728 7
	.cfi_startproc
	.cfi_personality 0x9b,DW.ref.__gxx_personality_v0
	.cfi_lsda 0x1b,.LLSDA2852
	pushq	%rbp	#
	.cfi_def_cfa_offset 16
	.cfi_offset 6, -16
	movq	%rsp, %rbp	#,
	.cfi_def_cfa_register 6
	subq	$16, %rsp	#,
	movq	%rdi, -8(%rbp)	# this, this
.LBB9:
# /usr/include/c++/12/bits/stl_vector.h:731: 		      _M_get_Tp_allocator());
	.loc 7 731 28
	movq	-8(%rbp), %rax	# this, _1
	movq	%rax, %rdi	# _1,
	call	_ZNSt12_Vector_baseIdSaIdEE19_M_get_Tp_allocatorEv	#
	movq	%rax, %rdx	#, _2
# /usr/include/c++/12/bits/stl_vector.h:730: 	std::_Destroy(this->_M_impl._M_start, this->_M_impl._M_finish,
	.loc 7 730 15
	movq	-8(%rbp), %rax	# this, tmp87
	movq	8(%rax), %rcx	# this_6(D)->D.58674._M_impl.D.58013._M_finish, _3
	movq	-8(%rbp), %rax	# this, tmp88
	movq	(%rax), %rax	# this_6(D)->D.58674._M_impl.D.58013._M_start, _4
	movq	%rcx, %rsi	# _3,
	movq	%rax, %rdi	# _4,
	call	_ZSt8_DestroyIPddEvT_S1_RSaIT0_E	#
# /usr/include/c++/12/bits/stl_vector.h:733:       }
	.loc 7 733 7
	movq	-8(%rbp), %rax	# this, _5
	movq	%rax, %rdi	# _5,
	call	_ZNSt12_Vector_baseIdSaIdEED2Ev	#
.LBE9:
	nop	
	leave	
	.cfi_def_cfa 7, 8
	ret	
	.cfi_endproc
.LFE2852:
	.section	.gcc_except_table
.LLSDA2852:
	.byte	0xff
	.byte	0xff
	.byte	0x1
	.uleb128 .LLSDACSE2852-.LLSDACSB2852
.LLSDACSB2852:
.LLSDACSE2852:
	.section	.text._ZNSt6vectorIdSaIdEED2Ev,"axG",@progbits,_ZNSt6vectorIdSaIdEED5Ev,comdat
	.size	_ZNSt6vectorIdSaIdEED2Ev, .-_ZNSt6vectorIdSaIdEED2Ev
	.weak	_ZNSt6vectorIdSaIdEED1Ev
	.set	_ZNSt6vectorIdSaIdEED1Ev,_ZNSt6vectorIdSaIdEED2Ev
	.section	.text._ZNSt6vectorIlSaIlEED2Ev,"axG",@progbits,_ZNSt6vectorIlSaIlEED5Ev,comdat
	.align 2
	.weak	_ZNSt6vectorIlSaIlEED2Ev
	.type	_ZNSt6vectorIlSaIlEED2Ev, @function
_ZNSt6vectorIlSaIlEED2Ev:
.LFB2855:
	.loc 7 728 7
	.cfi_startproc
	.cfi_personality 0x9b,DW.ref.__gxx_personality_v0
	.cfi_lsda 0x1b,.LLSDA2855
	pushq	%rbp	#
	.cfi_def_cfa_offset 16
	.cfi_offset 6, -16
	movq	%rsp, %rbp	#,
	.cfi_def_cfa_register 6
	subq	$16, %rsp	#,
	movq	%rdi, -8(%rbp)	# this, this
.LBB10:
# /usr/include/c++/12/bits/stl_vector.h:731: 		      _M_get_Tp_allocator());
	.loc 7 731 28
	movq	-8(%rbp), %rax	# this, _1
	movq	%rax, %rdi	# _1,
	call	_ZNSt12_Vector_baseIlSaIlEE19_M_get_Tp_allocatorEv	#
	movq	%rax, %rdx	#, _2
# /usr/include/c++/12/bits/stl_vector.h:730: 	std::_Destroy(this->_M_impl._M_start, this->_M_impl._M_finish,
	.loc 7 730 15
	movq	-8(%rbp), %rax	# this, tmp87
	movq	8(%rax), %rcx	# this_6(D)->D.54811._M_impl.D.54123._M_finish, _3
	movq	-8(%rbp), %rax	# this, tmp88
	movq	(%rax), %rax	# this_6(D)->D.54811._M_impl.D.54123._M_start, _4
	movq	%rcx, %rsi	# _3,
	movq	%rax, %rdi	# _4,
	call	_ZSt8_DestroyIPllEvT_S1_RSaIT0_E	#
# /usr/include/c++/12/bits/stl_vector.h:733:       }
	.loc 7 733 7
	movq	-8(%rbp), %rax	# this, _5
	movq	%rax, %rdi	# _5,
	call	_ZNSt12_Vector_baseIlSaIlEED2Ev	#
.LBE10:
	nop	
	leave	
	.cfi_def_cfa 7, 8
	ret	
	.cfi_endproc
.LFE2855:
	.section	.gcc_except_table
.LLSDA2855:
	.byte	0xff
	.byte	0xff
	.byte	0x1
	.uleb128 .LLSDACSE2855-.LLSDACSB2855
.LLSDACSB2855:
.LLSDACSE2855:
	.section	.text._ZNSt6vectorIlSaIlEED2Ev,"axG",@progbits,_ZNSt6vectorIlSaIlEED5Ev,comdat
	.size	_ZNSt6vectorIlSaIlEED2Ev, .-_ZNSt6vectorIlSaIlEED2Ev
	.weak	_ZNSt6vectorIlSaIlEED1Ev
	.set	_ZNSt6vectorIlSaIlEED1Ev,_ZNSt6vectorIlSaIlEED2Ev
	.section	.rodata
	.align 8
.LC2:
	.string	"The number of indices must be equal to the tensor's order."
	.section	.text._ZN9container6tensorIdJLl2ELl3ELl5EEEclIJiiiEEERdDpT_,"axG",@progbits,_ZN9container6tensorIdJLl2ELl3ELl5EEEclIJiiiEEERdDpT_,comdat
	.align 2
	.weak	_ZN9container6tensorIdJLl2ELl3ELl5EEEclIJiiiEEERdDpT_
	.type	_ZN9container6tensorIdJLl2ELl3ELl5EEEclIJiiiEEERdDpT_, @function
_ZN9container6tensorIdJLl2ELl3ELl5EEEclIJiiiEEERdDpT_:
.LFB2857:
	.loc 5 105 20
	.cfi_startproc
	.cfi_personality 0x9b,DW.ref.__gxx_personality_v0
	.cfi_lsda 0x1b,.LLSDA2857
	pushq	%rbp	#
	.cfi_def_cfa_offset 16
	.cfi_offset 6, -16
	movq	%rsp, %rbp	#,
	.cfi_def_cfa_register 6
	pushq	%r13	#
	pushq	%r12	#
	pushq	%rbx	#
	subq	$136, %rsp	#,
	.cfi_offset 13, -24
	.cfi_offset 12, -32
	.cfi_offset 3, -40
	movq	%rdi, -136(%rbp)	# this, this
	movl	%esi, -140(%rbp)	# indices#0, indices#0
	movl	%edx, -144(%rbp)	# indices#1, indices#1
	movl	%ecx, -148(%rbp)	# indices#2, indices#2
# src/Tensor/Tensor.hpp:107:             std::vector<size_type> index_list{indices...};
	.loc 5 107 47
	movl	-140(%rbp), %eax	# indices#0, tmp109
	cltq
# src/Tensor/Tensor.hpp:107:             std::vector<size_type> index_list{indices...};
	.loc 5 107 36
	movq	%rax, -96(%rbp)	# _1, D.62242[0]
# src/Tensor/Tensor.hpp:107:             std::vector<size_type> index_list{indices...};
	.loc 5 107 47
	movl	-144(%rbp), %eax	# indices#1, tmp110
	cltq
# src/Tensor/Tensor.hpp:107:             std::vector<size_type> index_list{indices...};
	.loc 5 107 36
	movq	%rax, -88(%rbp)	# _2, D.62242[1]
# src/Tensor/Tensor.hpp:107:             std::vector<size_type> index_list{indices...};
	.loc 5 107 47
	movl	-148(%rbp), %eax	# indices#2, tmp111
	cltq
# src/Tensor/Tensor.hpp:107:             std::vector<size_type> index_list{indices...};
	.loc 5 107 36
	movq	%rax, -80(%rbp)	# _3, D.62242[2]
	leaq	-96(%rbp), %rax	#, tmp112
	movq	%rax, %r12	# tmp112, D.62243
	movl	$3, %r13d	#, D.62243
	leaq	-65(%rbp), %rax	#, tmp113
	movq	%rax, %rdi	# tmp113,
	call	_ZNSaIlEC1Ev	#
	leaq	-65(%rbp), %rdx	#, tmp114
	movq	%r12, %rsi	# D.62243, tmp115
	movq	%r13, %rdi	# D.62243,
	movq	%r12, %rcx	# D.62243, tmp116
	movq	%r13, %rbx	# D.62243,
	movq	%rbx, %rdi	#, tmp118
	leaq	-128(%rbp), %rax	#, tmp119
	movq	%rdx, %rcx	# tmp114,
	movq	%rdi, %rdx	# tmp118,
	movq	%rax, %rdi	# tmp119,
.LEHB10:
	call	_ZNSt6vectorIlSaIlEEC1ESt16initializer_listIlERKS0_	#
.LEHE10:
# src/Tensor/Tensor.hpp:107:             std::vector<size_type> index_list{indices...};
	.loc 5 107 36 is_stmt 0 discriminator 2
	leaq	-65(%rbp), %rax	#, tmp120
	movq	%rax, %rdi	# tmp120,
	call	_ZNSaIlED1Ev	#
# src/Tensor/Tensor.hpp:108:             size_type n_indices = index_list.size();
	.loc 5 108 50 is_stmt 1 discriminator 2
	leaq	-128(%rbp), %rax	#, tmp121
	movq	%rax, %rdi	# tmp121,
	call	_ZNKSt6vectorIlSaIlEE4sizeEv	#
# src/Tensor/Tensor.hpp:108:             size_type n_indices = index_list.size();
	.loc 5 108 23 discriminator 2
	movq	%rax, -64(%rbp)	# _4, n_indices
# src/Tensor/Tensor.hpp:110:             if (n_indices != this->order())
	.loc 5 110 41 discriminator 2
	movq	-136(%rbp), %rax	# this, tmp122
	movq	%rax, %rdi	# tmp122,
	call	_ZNK9container6tensorIdJLl2ELl3ELl5EEE5orderEv	#
# src/Tensor/Tensor.hpp:110:             if (n_indices != this->order())
	.loc 5 110 27 discriminator 2
	cmpq	%rax, -64(%rbp)	# _5, n_indices
	setne	%al	#, retval.23_43
# src/Tensor/Tensor.hpp:110:             if (n_indices != this->order())
	.loc 5 110 13 discriminator 2
	testb	%al, %al	# retval.23_43
	je	.L40	#,
# src/Tensor/Tensor.hpp:111:                 throw std::runtime_error("The number of indices must be equal to the tensor's order.");
	.loc 5 111 17
	movl	$16, %edi	#,
	call	__cxa_allocate_exception@PLT	#
	movq	%rax, %rbx	# tmp123, _64
	leaq	.LC2(%rip), %rax	#, tmp124
	movq	%rax, %rsi	# tmp124,
	movq	%rbx, %rdi	# _64,
.LEHB11:
	call	_ZNSt13runtime_errorC1EPKc@PLT	#
.LEHE11:
# src/Tensor/Tensor.hpp:111:                 throw std::runtime_error("The number of indices must be equal to the tensor's order.");
	.loc 5 111 17 is_stmt 0 discriminator 2
	movq	_ZNSt13runtime_errorD1Ev@GOTPCREL(%rip), %rax	#, tmp126
	movq	%rax, %rdx	# tmp125,
	leaq	_ZTISt13runtime_error(%rip), %rax	#, tmp127
	movq	%rax, %rsi	# tmp127,
	movq	%rbx, %rdi	# _64,
.LEHB12:
	call	__cxa_throw@PLT	#
.L40:
# src/Tensor/Tensor.hpp:113:             size_type index_1d = 0;
	.loc 5 113 23 is_stmt 1
	movq	$0, -40(%rbp)	#, index_1d
# src/Tensor/Tensor.hpp:114:             size_type size_1d = this->size();
	.loc 5 114 43
	movq	-136(%rbp), %rax	# this, tmp128
	movq	%rax, %rdi	# tmp128,
	call	_ZNK9container6tensorIdJLl2ELl3ELl5EEE4sizeEv	#
	movq	%rax, -48(%rbp)	# tmp129, size_1d
# src/Tensor/Tensor.hpp:115:             size_type current_dim = 0;
	.loc 5 115 23
	movq	$0, -56(%rbp)	#, current_dim
# src/Tensor/Tensor.hpp:117:             for (current_dim = 0; current_dim < n_indices; ++current_dim)
	.loc 5 117 30
	movq	$0, -56(%rbp)	#, current_dim
# src/Tensor/Tensor.hpp:117:             for (current_dim = 0; current_dim < n_indices; ++current_dim)
	.loc 5 117 13
	jmp	.L41	#
.L42:
# src/Tensor/Tensor.hpp:118:                 index_1d += details::index_check(index_list[current_dim], _dims[current_dim]) * (size_1d /= _dims[current_dim]);
	.loc 5 118 49
	movq	-136(%rbp), %rax	# this, tmp130
	leaq	24(%rax), %rdx	#, _6
	movq	-56(%rbp), %rax	# current_dim, current_dim.24_7
	movq	%rax, %rsi	# current_dim.24_7,
	movq	%rdx, %rdi	# _6,
	call	_ZNSt6vectorIlSaIlEEixEm	#
	movq	(%rax), %rbx	# *_8, _9
	movq	-56(%rbp), %rdx	# current_dim, current_dim.25_10
	leaq	-128(%rbp), %rax	#, tmp131
	movq	%rdx, %rsi	# current_dim.25_10,
	movq	%rax, %rdi	# tmp131,
	call	_ZNSt6vectorIlSaIlEEixEm	#
	movq	(%rax), %rax	# *_11, _12
	movq	%rbx, %rsi	# _9,
	movq	%rax, %rdi	# _12,
	call	_ZN9container7details11index_checkEll	#
.LEHE12:
	movq	%rax, %rbx	#, _13
# src/Tensor/Tensor.hpp:118:                 index_1d += details::index_check(index_list[current_dim], _dims[current_dim]) * (size_1d /= _dims[current_dim]);
	.loc 5 118 106
	movq	-136(%rbp), %rax	# this, tmp132
	leaq	24(%rax), %rdx	#, _14
	movq	-56(%rbp), %rax	# current_dim, current_dim.26_15
	movq	%rax, %rsi	# current_dim.26_15,
	movq	%rdx, %rdi	# _14,
	call	_ZNSt6vectorIlSaIlEEixEm	#
	movq	(%rax), %rcx	# *_16, _58
	movq	-48(%rbp), %rax	# size_1d, tmp135
	cqto
	idivq	%rcx	# _58
	movq	%rax, -48(%rbp)	# tmp133, size_1d
# src/Tensor/Tensor.hpp:118:                 index_1d += details::index_check(index_list[current_dim], _dims[current_dim]) * (size_1d /= _dims[current_dim]);
	.loc 5 118 95
	movq	%rbx, %rax	# _13, _13
	imulq	-48(%rbp), %rax	# size_1d, _13
# src/Tensor/Tensor.hpp:118:                 index_1d += details::index_check(index_list[current_dim], _dims[current_dim]) * (size_1d /= _dims[current_dim]);
	.loc 5 118 26
	addq	%rax, -40(%rbp)	# _60, index_1d
# src/Tensor/Tensor.hpp:117:             for (current_dim = 0; current_dim < n_indices; ++current_dim)
	.loc 5 117 13
	addq	$1, -56(%rbp)	#, current_dim
.L41:
# src/Tensor/Tensor.hpp:117:             for (current_dim = 0; current_dim < n_indices; ++current_dim)
	.loc 5 117 47 discriminator 2
	movq	-56(%rbp), %rax	# current_dim, tmp136
	cmpq	-64(%rbp), %rax	# n_indices, tmp136
	jl	.L42	#,
# src/Tensor/Tensor.hpp:120:             return this->_data[index_1d];
	.loc 5 120 31
	movq	-136(%rbp), %rax	# this, _17
	movq	-40(%rbp), %rdx	# index_1d, index_1d.27_18
	movq	%rdx, %rsi	# index_1d.27_18,
	movq	%rax, %rdi	# _17,
	call	_ZNSt6vectorIdSaIdEEixEm	#
	movq	%rax, %rbx	#, _50
# src/Tensor/Tensor.hpp:120:             return this->_data[index_1d];
	.loc 5 120 40
	nop	
# src/Tensor/Tensor.hpp:121:         }
	.loc 5 121 9
	leaq	-128(%rbp), %rax	#, tmp137
	movq	%rax, %rdi	# tmp137,
	call	_ZNSt6vectorIlSaIlEED1Ev	#
# src/Tensor/Tensor.hpp:120:             return this->_data[index_1d];
	.loc 5 120 40
	movq	%rbx, %rax	# _50, <retval>
	jmp	.L50	#
.L47:
# src/Tensor/Tensor.hpp:107:             std::vector<size_type> index_list{indices...};
	.loc 5 107 36
	movq	%rax, %rbx	#, tmp140
	leaq	-65(%rbp), %rax	#, tmp139
	movq	%rax, %rdi	# tmp139,
	call	_ZNSaIlED1Ev	#
	movq	%rbx, %rax	# tmp140, D.68631
	movq	%rax, %rdi	# D.68631,
.LEHB13:
	call	_Unwind_Resume@PLT	#
.L48:
# src/Tensor/Tensor.hpp:111:                 throw std::runtime_error("The number of indices must be equal to the tensor's order.");
	.loc 5 111 17
	movq	%rax, %r12	#, tmp142
	movq	%rbx, %rdi	# _64,
	call	__cxa_free_exception@PLT	#
	movq	%r12, %rbx	# tmp142, tmp141
	jmp	.L46	#
.L49:
# src/Tensor/Tensor.hpp:121:         }
	.loc 5 121 9
	movq	%rax, %rbx	#, tmp141
.L46:
	leaq	-128(%rbp), %rax	#, tmp145
	movq	%rax, %rdi	# tmp145,
	call	_ZNSt6vectorIlSaIlEED1Ev	#
	movq	%rbx, %rax	# tmp141, D.68632
	movq	%rax, %rdi	# D.68632,
	call	_Unwind_Resume@PLT	#
.LEHE13:
.L50:
	addq	$136, %rsp	#,
	popq	%rbx	#
	popq	%r12	#
	popq	%r13	#
	popq	%rbp	#
	.cfi_def_cfa 7, 8
	ret	
	.cfi_endproc
.LFE2857:
	.section	.gcc_except_table
.LLSDA2857:
	.byte	0xff
	.byte	0xff
	.byte	0x1
	.uleb128 .LLSDACSE2857-.LLSDACSB2857
.LLSDACSB2857:
	.uleb128 .LEHB10-.LFB2857
	.uleb128 .LEHE10-.LEHB10
	.uleb128 .L47-.LFB2857
	.uleb128 0
	.uleb128 .LEHB11-.LFB2857
	.uleb128 .LEHE11-.LEHB11
	.uleb128 .L48-.LFB2857
	.uleb128 0
	.uleb128 .LEHB12-.LFB2857
	.uleb128 .LEHE12-.LEHB12
	.uleb128 .L49-.LFB2857
	.uleb128 0
	.uleb128 .LEHB13-.LFB2857
	.uleb128 .LEHE13-.LEHB13
	.uleb128 0
	.uleb128 0
.LLSDACSE2857:
	.section	.text._ZN9container6tensorIdJLl2ELl3ELl5EEEclIJiiiEEERdDpT_,"axG",@progbits,_ZN9container6tensorIdJLl2ELl3ELl5EEEclIJiiiEEERdDpT_,comdat
	.size	_ZN9container6tensorIdJLl2ELl3ELl5EEEclIJiiiEEERdDpT_, .-_ZN9container6tensorIdJLl2ELl3ELl5EEEclIJiiiEEERdDpT_
	.section	.text._ZNSt12_Vector_baseIlSaIlEE12_Vector_implD2Ev,"axG",@progbits,_ZNSt12_Vector_baseIlSaIlEE12_Vector_implD5Ev,comdat
	.align 2
	.weak	_ZNSt12_Vector_baseIlSaIlEE12_Vector_implD2Ev
	.type	_ZNSt12_Vector_baseIlSaIlEE12_Vector_implD2Ev, @function
_ZNSt12_Vector_baseIlSaIlEE12_Vector_implD2Ev:
.LFB2863:
	.loc 7 133 14
	.cfi_startproc
	pushq	%rbp	#
	.cfi_def_cfa_offset 16
	.cfi_offset 6, -16
	movq	%rsp, %rbp	#,
	.cfi_def_cfa_register 6
	subq	$16, %rsp	#,
	movq	%rdi, -8(%rbp)	# this, this
.LBB11:
# /usr/include/c++/12/bits/stl_vector.h:133:       struct _Vector_impl
	.loc 7 133 14
	movq	-8(%rbp), %rax	# this, tmp82
	movq	%rax, %rdi	# tmp82,
	call	_ZNSaIlED2Ev	#
.LBE11:
	nop	
	leave	
	.cfi_def_cfa 7, 8
	ret	
	.cfi_endproc
.LFE2863:
	.size	_ZNSt12_Vector_baseIlSaIlEE12_Vector_implD2Ev, .-_ZNSt12_Vector_baseIlSaIlEE12_Vector_implD2Ev
	.weak	_ZNSt12_Vector_baseIlSaIlEE12_Vector_implD1Ev
	.set	_ZNSt12_Vector_baseIlSaIlEE12_Vector_implD1Ev,_ZNSt12_Vector_baseIlSaIlEE12_Vector_implD2Ev
	.section	.text._ZNSt12_Vector_baseIlSaIlEEC2Ev,"axG",@progbits,_ZNSt12_Vector_baseIlSaIlEEC5Ev,comdat
	.align 2
	.weak	_ZNSt12_Vector_baseIlSaIlEEC2Ev
	.type	_ZNSt12_Vector_baseIlSaIlEEC2Ev, @function
_ZNSt12_Vector_baseIlSaIlEEC2Ev:
.LFB2865:
	.loc 7 312 7
	.cfi_startproc
	pushq	%rbp	#
	.cfi_def_cfa_offset 16
	.cfi_offset 6, -16
	movq	%rsp, %rbp	#,
	.cfi_def_cfa_register 6
	subq	$16, %rsp	#,
	movq	%rdi, -8(%rbp)	# this, this
.LBB12:
# /usr/include/c++/12/bits/stl_vector.h:312:       _Vector_base() = default;
	.loc 7 312 7
	movq	-8(%rbp), %rax	# this, _1
	movq	%rax, %rdi	# _1,
	call	_ZNSt12_Vector_baseIlSaIlEE12_Vector_implC1Ev	#
.LBE12:
	nop	
	leave	
	.cfi_def_cfa 7, 8
	ret	
	.cfi_endproc
.LFE2865:
	.size	_ZNSt12_Vector_baseIlSaIlEEC2Ev, .-_ZNSt12_Vector_baseIlSaIlEEC2Ev
	.weak	_ZNSt12_Vector_baseIlSaIlEEC1Ev
	.set	_ZNSt12_Vector_baseIlSaIlEEC1Ev,_ZNSt12_Vector_baseIlSaIlEEC2Ev
	.section	.text._ZNSt6vectorIlSaIlEEC2Ev,"axG",@progbits,_ZNSt6vectorIlSaIlEEC5Ev,comdat
	.align 2
	.weak	_ZNSt6vectorIlSaIlEEC2Ev
	.type	_ZNSt6vectorIlSaIlEEC2Ev, @function
_ZNSt6vectorIlSaIlEEC2Ev:
.LFB2867:
	.loc 7 526 7
	.cfi_startproc
	pushq	%rbp	#
	.cfi_def_cfa_offset 16
	.cfi_offset 6, -16
	movq	%rsp, %rbp	#,
	.cfi_def_cfa_register 6
	subq	$16, %rsp	#,
	movq	%rdi, -8(%rbp)	# this, this
.LBB13:
# /usr/include/c++/12/bits/stl_vector.h:526:       vector() = default;
	.loc 7 526 7
	movq	-8(%rbp), %rax	# this, _1
	movq	%rax, %rdi	# _1,
	call	_ZNSt12_Vector_baseIlSaIlEEC2Ev	#
.LBE13:
	nop	
	leave	
	.cfi_def_cfa 7, 8
	ret	
	.cfi_endproc
.LFE2867:
	.size	_ZNSt6vectorIlSaIlEEC2Ev, .-_ZNSt6vectorIlSaIlEEC2Ev
	.weak	_ZNSt6vectorIlSaIlEEC1Ev
	.set	_ZNSt6vectorIlSaIlEEC1Ev,_ZNSt6vectorIlSaIlEEC2Ev
	.section	.text._ZN9container6tensorIdJEEC2IJLl2ELl3ELl5EEEERKNS0_IdJXspT_EEEE,"axG",@progbits,_ZN9container6tensorIdJEEC5IJLl2ELl3ELl5EEEERKNS0_IdJXspT_EEEE,comdat
	.align 2
	.weak	_ZN9container6tensorIdJEEC2IJLl2ELl3ELl5EEEERKNS0_IdJXspT_EEEE
	.type	_ZN9container6tensorIdJEEC2IJLl2ELl3ELl5EEEERKNS0_IdJXspT_EEEE, @function
_ZN9container6tensorIdJEEC2IJLl2ELl3ELl5EEEERKNS0_IdJXspT_EEEE:
.LFB2869:
	.loc 5 43 9
	.cfi_startproc
	.cfi_personality 0x9b,DW.ref.__gxx_personality_v0
	.cfi_lsda 0x1b,.LLSDA2869
	pushq	%rbp	#
	.cfi_def_cfa_offset 16
	.cfi_offset 6, -16
	movq	%rsp, %rbp	#,
	.cfi_def_cfa_register 6
	pushq	%rbx	#
	subq	$24, %rsp	#,
	.cfi_offset 3, -24
	movq	%rdi, -24(%rbp)	# this, this
	movq	%rsi, -32(%rbp)	# rhs_tensor, rhs_tensor
.LBB14:
# src/Tensor/Tensor.hpp:43:         tensor(const tensor<data_type, rhs_dims...> &rhs_tensor) : _dims{dims...}
	.loc 5 43 81
	movq	-24(%rbp), %rax	# this, _1
	movq	%rax, %rdi	# _1,
	call	_ZNSt6vectorIdSaIdEEC1Ev	#
# src/Tensor/Tensor.hpp:43:         tensor(const tensor<data_type, rhs_dims...> &rhs_tensor) : _dims{dims...}
	.loc 5 43 68
	movq	-24(%rbp), %rax	# this, tmp87
	pxor	%xmm0, %xmm0	# tmp88
	movups	%xmm0, 24(%rax)	# tmp88, this_6(D)->_dims
	movq	%xmm0, 40(%rax)	# tmp88, this_6(D)->_dims
	movq	-24(%rbp), %rax	# this, tmp89
	addq	$24, %rax	#, _2
	movq	%rax, %rdi	# _2,
	call	_ZNSt6vectorIlSaIlEEC1Ev	#
# src/Tensor/Tensor.hpp:45:             this->_diff_type_copy_initialize(rhs_tensor);
	.loc 5 45 45
	movq	-32(%rbp), %rdx	# rhs_tensor, tmp90
	movq	-24(%rbp), %rax	# this, tmp91
	movq	%rdx, %rsi	# tmp90,
	movq	%rax, %rdi	# tmp91,
.LEHB14:
	call	_ZN9container6tensorIdJEE26_diff_type_copy_initializeIJLl2ELl3ELl5EEEEvRKNS0_IdJXspT_EEEE	#
.LEHE14:
.LBE14:
# src/Tensor/Tensor.hpp:46:         }
	.loc 5 46 9
	jmp	.L57	#
.L56:
.LBB15:
	movq	%rax, %rbx	#, tmp94
	movq	-24(%rbp), %rax	# this, tmp92
	addq	$24, %rax	#, _3
	movq	%rax, %rdi	# _3,
	call	_ZNSt6vectorIlSaIlEED1Ev	#
	movq	-24(%rbp), %rax	# this, _4
	movq	%rax, %rdi	# _4,
	call	_ZNSt6vectorIdSaIdEED1Ev	#
	movq	%rbx, %rax	# tmp93, D.68635
	movq	%rax, %rdi	# D.68635,
.LEHB15:
	call	_Unwind_Resume@PLT	#
.LEHE15:
.L57:
.LBE15:
	movq	-8(%rbp), %rbx	#,
	leave	
	.cfi_def_cfa 7, 8
	ret	
	.cfi_endproc
.LFE2869:
	.section	.gcc_except_table
.LLSDA2869:
	.byte	0xff
	.byte	0xff
	.byte	0x1
	.uleb128 .LLSDACSE2869-.LLSDACSB2869
.LLSDACSB2869:
	.uleb128 .LEHB14-.LFB2869
	.uleb128 .LEHE14-.LEHB14
	.uleb128 .L56-.LFB2869
	.uleb128 0
	.uleb128 .LEHB15-.LFB2869
	.uleb128 .LEHE15-.LEHB15
	.uleb128 0
	.uleb128 0
.LLSDACSE2869:
	.section	.text._ZN9container6tensorIdJEEC2IJLl2ELl3ELl5EEEERKNS0_IdJXspT_EEEE,"axG",@progbits,_ZN9container6tensorIdJEEC5IJLl2ELl3ELl5EEEERKNS0_IdJXspT_EEEE,comdat
	.size	_ZN9container6tensorIdJEEC2IJLl2ELl3ELl5EEEERKNS0_IdJXspT_EEEE, .-_ZN9container6tensorIdJEEC2IJLl2ELl3ELl5EEEERKNS0_IdJXspT_EEEE
	.weak	_ZN9container6tensorIdJEEC1IJLl2ELl3ELl5EEEERKNS0_IdJXspT_EEEE
	.set	_ZN9container6tensorIdJEEC1IJLl2ELl3ELl5EEEERKNS0_IdJXspT_EEEE,_ZN9container6tensorIdJEEC2IJLl2ELl3ELl5EEEERKNS0_IdJXspT_EEEE
	.section	.text._ZSt4moveIRN9container6tensorIdJEEEEONSt16remove_referenceIT_E4typeEOS5_,"axG",@progbits,_ZSt4moveIRN9container6tensorIdJEEEEONSt16remove_referenceIT_E4typeEOS5_,comdat
	.weak	_ZSt4moveIRN9container6tensorIdJEEEEONSt16remove_referenceIT_E4typeEOS5_
	.type	_ZSt4moveIRN9container6tensorIdJEEEEONSt16remove_referenceIT_E4typeEOS5_, @function
_ZSt4moveIRN9container6tensorIdJEEEEONSt16remove_referenceIT_E4typeEOS5_:
.LFB2871:
	.file 8 "/usr/include/c++/12/bits/move.h"
	.loc 8 104 5
	.cfi_startproc
	pushq	%rbp	#
	.cfi_def_cfa_offset 16
	.cfi_offset 6, -16
	movq	%rsp, %rbp	#,
	.cfi_def_cfa_register 6
	movq	%rdi, -8(%rbp)	# __t, __t
# /usr/include/c++/12/bits/move.h:105:     { return static_cast<typename std::remove_reference<_Tp>::type&&>(__t); }
	.loc 8 105 74
	movq	-8(%rbp), %rax	# __t, _2
# /usr/include/c++/12/bits/move.h:105:     { return static_cast<typename std::remove_reference<_Tp>::type&&>(__t); }
	.loc 8 105 77
	popq	%rbp	#
	.cfi_def_cfa 7, 8
	ret	
	.cfi_endproc
.LFE2871:
	.size	_ZSt4moveIRN9container6tensorIdJEEEEONSt16remove_referenceIT_E4typeEOS5_, .-_ZSt4moveIRN9container6tensorIdJEEEEONSt16remove_referenceIT_E4typeEOS5_
	.section	.text._ZN9container6tensorIdJLl2ELl3ELl5EEEC2IJEEEONS0_IdJXspT_EEEE,"axG",@progbits,_ZN9container6tensorIdJLl2ELl3ELl5EEEC5IJEEEONS0_IdJXspT_EEEE,comdat
	.align 2
	.weak	_ZN9container6tensorIdJLl2ELl3ELl5EEEC2IJEEEONS0_IdJXspT_EEEE
	.type	_ZN9container6tensorIdJLl2ELl3ELl5EEEC2IJEEEONS0_IdJXspT_EEEE, @function
_ZN9container6tensorIdJLl2ELl3ELl5EEEC2IJEEEONS0_IdJXspT_EEEE:
.LFB2873:
	.loc 5 51 9
	.cfi_startproc
	.cfi_personality 0x9b,DW.ref.__gxx_personality_v0
	.cfi_lsda 0x1b,.LLSDA2873
	pushq	%rbp	#
	.cfi_def_cfa_offset 16
	.cfi_offset 6, -16
	movq	%rsp, %rbp	#,
	.cfi_def_cfa_register 6
	pushq	%r13	#
	pushq	%r12	#
	pushq	%rbx	#
	subq	$56, %rsp	#,
	.cfi_offset 13, -24
	.cfi_offset 12, -32
	.cfi_offset 3, -40
	movq	%rdi, -72(%rbp)	# this, this
	movq	%rsi, -80(%rbp)	# rhs_tensor, rhs_tensor
.LBB16:
# src/Tensor/Tensor.hpp:51:         tensor(tensor<data_type, rhs_dims...> &&rhs_tensor) : _dims{dims...}
	.loc 5 51 76
	movq	-72(%rbp), %rax	# this, _1
	movq	%rax, %rdi	# _1,
	call	_ZNSt6vectorIdSaIdEEC1Ev	#
# src/Tensor/Tensor.hpp:51:         tensor(tensor<data_type, rhs_dims...> &&rhs_tensor) : _dims{dims...}
	.loc 5 51 63
	movq	-72(%rbp), %rax	# this, tmp89
	leaq	24(%rax), %rbx	#, _2
	movq	$2, -64(%rbp)	#, D.62406[0]
	movq	$3, -56(%rbp)	#, D.62406[1]
	movq	$5, -48(%rbp)	#, D.62406[2]
	leaq	-64(%rbp), %rax	#, tmp90
	movq	%rax, %r12	# tmp90, D.62405
	movl	$3, %r13d	#, D.62405
	leaq	-33(%rbp), %rax	#, tmp91
	movq	%rax, %rdi	# tmp91,
	call	_ZNSaIlEC1Ev	#
	leaq	-33(%rbp), %rax	#, tmp92
	movq	%r12, %r8	# D.62405, tmp93
	movq	%r13, %r9	# D.62405,
	movq	%r12, %rsi	# D.62405, tmp94
	movq	%r13, %rdi	# D.62405,
	movq	%rdi, %rdx	#, tmp96
	movq	%rax, %rcx	# tmp92,
	movq	%r8, %rsi	# tmp95,
	movq	%rbx, %rdi	# _2,
.LEHB16:
	call	_ZNSt6vectorIlSaIlEEC1ESt16initializer_listIlERKS0_	#
.LEHE16:
# src/Tensor/Tensor.hpp:51:         tensor(tensor<data_type, rhs_dims...> &&rhs_tensor) : _dims{dims...}
	.loc 5 51 63 is_stmt 0 discriminator 2
	leaq	-33(%rbp), %rax	#, tmp97
	movq	%rax, %rdi	# tmp97,
	call	_ZNSaIlED1Ev	#
# src/Tensor/Tensor.hpp:53:             this->_diff_type_move_initialize(std::move(rhs_tensor));
	.loc 5 53 55 is_stmt 1 discriminator 2
	movq	-80(%rbp), %rax	# rhs_tensor, tmp98
	movq	%rax, %rdi	# tmp98,
	call	_ZSt4moveIRN9container6tensorIdJEEEEONSt16remove_referenceIT_E4typeEOS5_	#
	movq	%rax, %rdx	#, _3
# src/Tensor/Tensor.hpp:53:             this->_diff_type_move_initialize(std::move(rhs_tensor));
	.loc 5 53 45 discriminator 2
	movq	-72(%rbp), %rax	# this, tmp99
	movq	%rdx, %rsi	# _3,
	movq	%rax, %rdi	# tmp99,
.LEHB17:
	call	_ZN9container6tensorIdJLl2ELl3ELl5EEE26_diff_type_move_initializeIJEEEvONS0_IdJXspT_EEEE	#
.LEHE17:
.LBE16:
# src/Tensor/Tensor.hpp:54:         }
	.loc 5 54 9
	jmp	.L66	#
.L64:
.LBB17:
# src/Tensor/Tensor.hpp:51:         tensor(tensor<data_type, rhs_dims...> &&rhs_tensor) : _dims{dims...}
	.loc 5 51 63
	movq	%rax, %rbx	#, tmp102
	leaq	-33(%rbp), %rax	#, tmp100
	movq	%rax, %rdi	# tmp100,
	call	_ZNSaIlED1Ev	#
	jmp	.L62	#
.L65:
# src/Tensor/Tensor.hpp:54:         }
	.loc 5 54 9
	movq	%rax, %rbx	#, tmp106
	movq	-72(%rbp), %rax	# this, tmp105
	addq	$24, %rax	#, _4
	movq	%rax, %rdi	# _4,
	call	_ZNSt6vectorIlSaIlEED1Ev	#
.L62:
	movq	-72(%rbp), %rax	# this, _5
	movq	%rax, %rdi	# _5,
	call	_ZNSt6vectorIdSaIdEED1Ev	#
	movq	%rbx, %rax	# tmp101, D.68636
	movq	%rax, %rdi	# D.68636,
.LEHB18:
	call	_Unwind_Resume@PLT	#
.LEHE18:
.L66:
.LBE17:
	addq	$56, %rsp	#,
	popq	%rbx	#
	popq	%r12	#
	popq	%r13	#
	popq	%rbp	#
	.cfi_def_cfa 7, 8
	ret	
	.cfi_endproc
.LFE2873:
	.section	.gcc_except_table
.LLSDA2873:
	.byte	0xff
	.byte	0xff
	.byte	0x1
	.uleb128 .LLSDACSE2873-.LLSDACSB2873
.LLSDACSB2873:
	.uleb128 .LEHB16-.LFB2873
	.uleb128 .LEHE16-.LEHB16
	.uleb128 .L64-.LFB2873
	.uleb128 0
	.uleb128 .LEHB17-.LFB2873
	.uleb128 .LEHE17-.LEHB17
	.uleb128 .L65-.LFB2873
	.uleb128 0
	.uleb128 .LEHB18-.LFB2873
	.uleb128 .LEHE18-.LEHB18
	.uleb128 0
	.uleb128 0
.LLSDACSE2873:
	.section	.text._ZN9container6tensorIdJLl2ELl3ELl5EEEC2IJEEEONS0_IdJXspT_EEEE,"axG",@progbits,_ZN9container6tensorIdJLl2ELl3ELl5EEEC5IJEEEONS0_IdJXspT_EEEE,comdat
	.size	_ZN9container6tensorIdJLl2ELl3ELl5EEEC2IJEEEONS0_IdJXspT_EEEE, .-_ZN9container6tensorIdJLl2ELl3ELl5EEEC2IJEEEONS0_IdJXspT_EEEE
	.weak	_ZN9container6tensorIdJLl2ELl3ELl5EEEC1IJEEEONS0_IdJXspT_EEEE
	.set	_ZN9container6tensorIdJLl2ELl3ELl5EEEC1IJEEEONS0_IdJXspT_EEEE,_ZN9container6tensorIdJLl2ELl3ELl5EEEC2IJEEEONS0_IdJXspT_EEEE
	.section	.text._ZNK9container6tensorIdJEE5shapeEl,"axG",@progbits,_ZNK9container6tensorIdJEE5shapeEl,comdat
	.align 2
	.weak	_ZNK9container6tensorIdJEE5shapeEl
	.type	_ZNK9container6tensorIdJEE5shapeEl, @function
_ZNK9container6tensorIdJEE5shapeEl:
.LFB2875:
	.loc 5 89 19
	.cfi_startproc
	pushq	%rbp	#
	.cfi_def_cfa_offset 16
	.cfi_offset 6, -16
	movq	%rsp, %rbp	#,
	.cfi_def_cfa_register 6
	pushq	%rbx	#
	subq	$24, %rsp	#,
	.cfi_offset 3, -24
	movq	%rdi, -24(%rbp)	# this, this
	movq	%rsi, -32(%rbp)	# dim_index, dim_index
# src/Tensor/Tensor.hpp:91:             return this->_dims[details::index_check(dim_index, this->_dims.size())];
	.loc 5 91 83
	movq	-24(%rbp), %rax	# this, tmp91
	leaq	24(%rax), %rbx	#, _1
# src/Tensor/Tensor.hpp:91:             return this->_dims[details::index_check(dim_index, this->_dims.size())];
	.loc 5 91 80
	movq	-24(%rbp), %rax	# this, tmp92
	addq	$24, %rax	#, _2
	movq	%rax, %rdi	# _2,
	call	_ZNKSt6vectorIlSaIlEE4sizeEv	#
# src/Tensor/Tensor.hpp:91:             return this->_dims[details::index_check(dim_index, this->_dims.size())];
	.loc 5 91 52
	movq	%rax, %rdx	# _3, _4
	movq	-32(%rbp), %rax	# dim_index, tmp93
	movq	%rdx, %rsi	# _4,
	movq	%rax, %rdi	# tmp93,
	call	_ZN9container7details11index_checkEll	#
# src/Tensor/Tensor.hpp:91:             return this->_dims[details::index_check(dim_index, this->_dims.size())];
	.loc 5 91 83
	movq	%rax, %rsi	# _6,
	movq	%rbx, %rdi	# _1,
	call	_ZNKSt6vectorIlSaIlEEixEm	#
	movq	(%rax), %rax	# *_7, _15
# src/Tensor/Tensor.hpp:92:         }
	.loc 5 92 9
	movq	-8(%rbp), %rbx	#,
	leave	
	.cfi_def_cfa 7, 8
	ret	
	.cfi_endproc
.LFE2875:
	.size	_ZNK9container6tensorIdJEE5shapeEl, .-_ZNK9container6tensorIdJEE5shapeEl
	.section	.text._ZNSt12_Vector_baseIdSaIdEE12_Vector_implC2Ev,"axG",@progbits,_ZNSt12_Vector_baseIdSaIdEE12_Vector_implC5Ev,comdat
	.align 2
	.weak	_ZNSt12_Vector_baseIdSaIdEE12_Vector_implC2Ev
	.type	_ZNSt12_Vector_baseIdSaIdEE12_Vector_implC2Ev, @function
_ZNSt12_Vector_baseIdSaIdEE12_Vector_implC2Ev:
.LFB2983:
	.loc 7 137 2
	.cfi_startproc
	pushq	%rbp	#
	.cfi_def_cfa_offset 16
	.cfi_offset 6, -16
	movq	%rsp, %rbp	#,
	.cfi_def_cfa_register 6
	subq	$16, %rsp	#,
	movq	%rdi, -8(%rbp)	# this, this
.LBB18:
# /usr/include/c++/12/bits/stl_vector.h:139: 	: _Tp_alloc_type()
	.loc 7 139 19
	movq	-8(%rbp), %rax	# this, tmp83
	movq	%rax, %rdi	# tmp83,
	call	_ZNSaIdEC2Ev	#
	movq	-8(%rbp), %rax	# this, _1
	movq	%rax, %rdi	# _1,
	call	_ZNSt12_Vector_baseIdSaIdEE17_Vector_impl_dataC2Ev	#
.LBE18:
# /usr/include/c++/12/bits/stl_vector.h:140: 	{ }
	.loc 7 140 4
	nop	
	leave	
	.cfi_def_cfa 7, 8
	ret	
	.cfi_endproc
.LFE2983:
	.size	_ZNSt12_Vector_baseIdSaIdEE12_Vector_implC2Ev, .-_ZNSt12_Vector_baseIdSaIdEE12_Vector_implC2Ev
	.weak	_ZNSt12_Vector_baseIdSaIdEE12_Vector_implC1Ev
	.set	_ZNSt12_Vector_baseIdSaIdEE12_Vector_implC1Ev,_ZNSt12_Vector_baseIdSaIdEE12_Vector_implC2Ev
	.section	.text._ZNSaIdED2Ev,"axG",@progbits,_ZNSaIdED5Ev,comdat
	.align 2
	.weak	_ZNSaIdED2Ev
	.type	_ZNSaIdED2Ev, @function
_ZNSaIdED2Ev:
.LFB2986:
	.file 9 "/usr/include/c++/12/bits/allocator.h"
	.loc 9 174 7
	.cfi_startproc
	pushq	%rbp	#
	.cfi_def_cfa_offset 16
	.cfi_offset 6, -16
	movq	%rsp, %rbp	#,
	.cfi_def_cfa_register 6
	subq	$16, %rsp	#,
	movq	%rdi, -8(%rbp)	# this, this
.LBB19:
# /usr/include/c++/12/bits/allocator.h:174:       ~allocator() _GLIBCXX_NOTHROW { }
	.loc 9 174 39
	movq	-8(%rbp), %rax	# this, tmp82
	movq	%rax, %rdi	# tmp82,
	call	_ZNSt15__new_allocatorIdED2Ev	#
.LBE19:
	nop	
	leave	
	.cfi_def_cfa 7, 8
	ret	
	.cfi_endproc
.LFE2986:
	.size	_ZNSaIdED2Ev, .-_ZNSaIdED2Ev
	.weak	_ZNSaIdED1Ev
	.set	_ZNSaIdED1Ev,_ZNSaIdED2Ev
	.section	.text._ZNSt12_Vector_baseIdSaIdEED2Ev,"axG",@progbits,_ZNSt12_Vector_baseIdSaIdEED5Ev,comdat
	.align 2
	.weak	_ZNSt12_Vector_baseIdSaIdEED2Ev
	.type	_ZNSt12_Vector_baseIdSaIdEED2Ev, @function
_ZNSt12_Vector_baseIdSaIdEED2Ev:
.LFB2989:
	.loc 7 364 7
	.cfi_startproc
	.cfi_personality 0x9b,DW.ref.__gxx_personality_v0
	.cfi_lsda 0x1b,.LLSDA2989
	pushq	%rbp	#
	.cfi_def_cfa_offset 16
	.cfi_offset 6, -16
	movq	%rsp, %rbp	#,
	.cfi_def_cfa_register 6
	subq	$16, %rsp	#,
	movq	%rdi, -8(%rbp)	# this, this
.LBB20:
# /usr/include/c++/12/bits/stl_vector.h:367: 		      _M_impl._M_end_of_storage - _M_impl._M_start);
	.loc 7 367 17
	movq	-8(%rbp), %rax	# this, tmp89
	movq	16(%rax), %rdx	# this_9(D)->_M_impl.D.58013._M_end_of_storage, _1
# /usr/include/c++/12/bits/stl_vector.h:367: 		      _M_impl._M_end_of_storage - _M_impl._M_start);
	.loc 7 367 45
	movq	-8(%rbp), %rax	# this, tmp90
	movq	(%rax), %rax	# this_9(D)->_M_impl.D.58013._M_start, _2
# /usr/include/c++/12/bits/stl_vector.h:367: 		      _M_impl._M_end_of_storage - _M_impl._M_start);
	.loc 7 367 35
	subq	%rax, %rdx	# _2, _3
	movq	%rdx, %rax	# _3, _3
	sarq	$3, %rax	#, _3
# /usr/include/c++/12/bits/stl_vector.h:366: 	_M_deallocate(_M_impl._M_start,
	.loc 7 366 15
	movq	%rax, %rdx	# _4, _5
	movq	-8(%rbp), %rax	# this, tmp92
	movq	(%rax), %rcx	# this_9(D)->_M_impl.D.58013._M_start, _6
	movq	-8(%rbp), %rax	# this, tmp93
	movq	%rcx, %rsi	# _6,
	movq	%rax, %rdi	# tmp93,
	call	_ZNSt12_Vector_baseIdSaIdEE13_M_deallocateEPdm	#
# /usr/include/c++/12/bits/stl_vector.h:368:       }
	.loc 7 368 7
	movq	-8(%rbp), %rax	# this, _7
	movq	%rax, %rdi	# _7,
	call	_ZNSt12_Vector_baseIdSaIdEE12_Vector_implD1Ev	#
.LBE20:
	nop	
	leave	
	.cfi_def_cfa 7, 8
	ret	
	.cfi_endproc
.LFE2989:
	.section	.gcc_except_table
.LLSDA2989:
	.byte	0xff
	.byte	0xff
	.byte	0x1
	.uleb128 .LLSDACSE2989-.LLSDACSB2989
.LLSDACSB2989:
.LLSDACSE2989:
	.section	.text._ZNSt12_Vector_baseIdSaIdEED2Ev,"axG",@progbits,_ZNSt12_Vector_baseIdSaIdEED5Ev,comdat
	.size	_ZNSt12_Vector_baseIdSaIdEED2Ev, .-_ZNSt12_Vector_baseIdSaIdEED2Ev
	.weak	_ZNSt12_Vector_baseIdSaIdEED1Ev
	.set	_ZNSt12_Vector_baseIdSaIdEED1Ev,_ZNSt12_Vector_baseIdSaIdEED2Ev
	.section	.text._ZNSaIlEC2Ev,"axG",@progbits,_ZNSaIlEC5Ev,comdat
	.align 2
	.weak	_ZNSaIlEC2Ev
	.type	_ZNSaIlEC2Ev, @function
_ZNSaIlEC2Ev:
.LFB2992:
	.loc 9 156 7
	.cfi_startproc
	pushq	%rbp	#
	.cfi_def_cfa_offset 16
	.cfi_offset 6, -16
	movq	%rsp, %rbp	#,
	.cfi_def_cfa_register 6
	subq	$16, %rsp	#,
	movq	%rdi, -8(%rbp)	# this, this
.LBB21:
# /usr/include/c++/12/bits/allocator.h:156:       allocator() _GLIBCXX_NOTHROW { }
	.loc 9 156 36
	movq	-8(%rbp), %rax	# this, tmp82
	movq	%rax, %rdi	# tmp82,
	call	_ZNSt15__new_allocatorIlEC2Ev	#
.LBE21:
# /usr/include/c++/12/bits/allocator.h:156:       allocator() _GLIBCXX_NOTHROW { }
	.loc 9 156 38
	nop	
	leave	
	.cfi_def_cfa 7, 8
	ret	
	.cfi_endproc
.LFE2992:
	.size	_ZNSaIlEC2Ev, .-_ZNSaIlEC2Ev
	.weak	_ZNSaIlEC1Ev
	.set	_ZNSaIlEC1Ev,_ZNSaIlEC2Ev
	.section	.text._ZNSaIlED2Ev,"axG",@progbits,_ZNSaIlED5Ev,comdat
	.align 2
	.weak	_ZNSaIlED2Ev
	.type	_ZNSaIlED2Ev, @function
_ZNSaIlED2Ev:
.LFB2995:
	.loc 9 174 7
	.cfi_startproc
	pushq	%rbp	#
	.cfi_def_cfa_offset 16
	.cfi_offset 6, -16
	movq	%rsp, %rbp	#,
	.cfi_def_cfa_register 6
	subq	$16, %rsp	#,
	movq	%rdi, -8(%rbp)	# this, this
.LBB22:
# /usr/include/c++/12/bits/allocator.h:174:       ~allocator() _GLIBCXX_NOTHROW { }
	.loc 9 174 39
	movq	-8(%rbp), %rax	# this, tmp82
	movq	%rax, %rdi	# tmp82,
	call	_ZNSt15__new_allocatorIlED2Ev	#
.LBE22:
	nop	
	leave	
	.cfi_def_cfa 7, 8
	ret	
	.cfi_endproc
.LFE2995:
	.size	_ZNSaIlED2Ev, .-_ZNSaIlED2Ev
	.weak	_ZNSaIlED1Ev
	.set	_ZNSaIlED1Ev,_ZNSaIlED2Ev
	.section	.text._ZNSt6vectorIlSaIlEEC2ESt16initializer_listIlERKS0_,"axG",@progbits,_ZNSt6vectorIlSaIlEEC5ESt16initializer_listIlERKS0_,comdat
	.align 2
	.weak	_ZNSt6vectorIlSaIlEEC2ESt16initializer_listIlERKS0_
	.type	_ZNSt6vectorIlSaIlEEC2ESt16initializer_listIlERKS0_, @function
_ZNSt6vectorIlSaIlEEC2ESt16initializer_listIlERKS0_:
.LFB2998:
	.loc 7 673 7
	.cfi_startproc
	.cfi_personality 0x9b,DW.ref.__gxx_personality_v0
	.cfi_lsda 0x1b,.LLSDA2998
	pushq	%rbp	#
	.cfi_def_cfa_offset 16
	.cfi_offset 6, -16
	movq	%rsp, %rbp	#,
	.cfi_def_cfa_register 6
	pushq	%rbx	#
	subq	$56, %rsp	#,
	.cfi_offset 3, -24
	movq	%rdi, -40(%rbp)	# this, this
	movq	%rsi, %rax	# __l, tmp90
	movq	%rdx, %rsi	# __l, tmp91
	movq	%rsi, %rdx	# tmp91,
	movq	%rax, -64(%rbp)	# tmp89, __l
	movq	%rdx, -56(%rbp)	#, __l
	movq	%rcx, -48(%rbp)	# __a, __a
.LBB23:
# /usr/include/c++/12/bits/stl_vector.h:675:       : _Base(__a)
	.loc 7 675 18
	movq	-40(%rbp), %rax	# this, _1
	movq	-48(%rbp), %rdx	# __a, tmp92
	movq	%rdx, %rsi	# tmp92,
	movq	%rax, %rdi	# _1,
	call	_ZNSt12_Vector_baseIlSaIlEEC2ERKS0_	#
# /usr/include/c++/12/bits/stl_vector.h:677: 	_M_range_initialize(__l.begin(), __l.end(),
	.loc 7 677 21
	leaq	-64(%rbp), %rax	#, tmp93
	movq	%rax, %rdi	# tmp93,
	call	_ZNKSt16initializer_listIlE3endEv	#
	movq	%rax, %rbx	#, _3
	leaq	-64(%rbp), %rax	#, tmp94
	movq	%rax, %rdi	# tmp94,
	call	_ZNKSt16initializer_listIlE5beginEv	#
	movq	%rax, %rcx	#, _4
	movq	-40(%rbp), %rax	# this, tmp95
	movq	%rbx, %rdx	# _3,
	movq	%rcx, %rsi	# _4,
	movq	%rax, %rdi	# tmp95,
.LEHB19:
	call	_ZNSt6vectorIlSaIlEE19_M_range_initializeIPKlEEvT_S5_St20forward_iterator_tag	#
.LEHE19:
.LBE23:
# /usr/include/c++/12/bits/stl_vector.h:679:       }
	.loc 7 679 7
	jmp	.L77	#
.L76:
.LBB24:
	movq	%rax, %rbx	#, tmp96
	movq	-40(%rbp), %rax	# this, _5
	movq	%rax, %rdi	# _5,
	call	_ZNSt12_Vector_baseIlSaIlEED2Ev	#
	movq	%rbx, %rax	# tmp96, D.68637
	movq	%rax, %rdi	# D.68637,
.LEHB20:
	call	_Unwind_Resume@PLT	#
.LEHE20:
.L77:
.LBE24:
	movq	-8(%rbp), %rbx	#,
	leave	
	.cfi_def_cfa 7, 8
	ret	
	.cfi_endproc
.LFE2998:
	.section	.gcc_except_table
.LLSDA2998:
	.byte	0xff
	.byte	0xff
	.byte	0x1
	.uleb128 .LLSDACSE2998-.LLSDACSB2998
.LLSDACSB2998:
	.uleb128 .LEHB19-.LFB2998
	.uleb128 .LEHE19-.LEHB19
	.uleb128 .L76-.LFB2998
	.uleb128 0
	.uleb128 .LEHB20-.LFB2998
	.uleb128 .LEHE20-.LEHB20
	.uleb128 0
	.uleb128 0
.LLSDACSE2998:
	.section	.text._ZNSt6vectorIlSaIlEEC2ESt16initializer_listIlERKS0_,"axG",@progbits,_ZNSt6vectorIlSaIlEEC5ESt16initializer_listIlERKS0_,comdat
	.size	_ZNSt6vectorIlSaIlEEC2ESt16initializer_listIlERKS0_, .-_ZNSt6vectorIlSaIlEEC2ESt16initializer_listIlERKS0_
	.weak	_ZNSt6vectorIlSaIlEEC1ESt16initializer_listIlERKS0_
	.set	_ZNSt6vectorIlSaIlEEC1ESt16initializer_listIlERKS0_,_ZNSt6vectorIlSaIlEEC2ESt16initializer_listIlERKS0_
	.section	.rodata
.LC3:
	.string	"dim <= 0"
	.section	.text._ZZN9container6tensorIdJLl2ELl3ELl5EEE11_initializeEvENKUliE_clEi,"axG",@progbits,_ZZN9container6tensorIdJLl2ELl3ELl5EEE11_initializeEvENKUliE_clEi,comdat
	.align 2
	.weak	_ZZN9container6tensorIdJLl2ELl3ELl5EEE11_initializeEvENKUliE_clEi
	.type	_ZZN9container6tensorIdJLl2ELl3ELl5EEE11_initializeEvENKUliE_clEi, @function
_ZZN9container6tensorIdJLl2ELl3ELl5EEE11_initializeEvENKUliE_clEi:
.LFB3001:
	.loc 5 135 67
	.cfi_startproc
	.cfi_personality 0x9b,DW.ref.__gxx_personality_v0
	.cfi_lsda 0x1b,.LLSDA3001
	pushq	%rbp	#
	.cfi_def_cfa_offset 16
	.cfi_offset 6, -16
	movq	%rsp, %rbp	#,
	.cfi_def_cfa_register 6
	pushq	%r12	#
	pushq	%rbx	#
	subq	$16, %rsp	#,
	.cfi_offset 12, -24
	.cfi_offset 3, -32
	movq	%rdi, -24(%rbp)	# __closure, __closure
	movl	%esi, -28(%rbp)	# size, size
# src/Tensor/Tensor.hpp:136:                           { if (size <= 0)
	.loc 5 136 29
	cmpl	$0, -28(%rbp)	#, size
	jg	.L79	#,
# src/Tensor/Tensor.hpp:137:                                     throw std::runtime_error("dim <= 0");
	.loc 5 137 37
	movl	$16, %edi	#,
	call	__cxa_allocate_exception@PLT	#
	movq	%rax, %rbx	# tmp89, _11
	leaq	.LC3(%rip), %rax	#, tmp90
	movq	%rax, %rsi	# tmp90,
	movq	%rbx, %rdi	# _11,
.LEHB21:
	call	_ZNSt13runtime_errorC1EPKc@PLT	#
.LEHE21:
# src/Tensor/Tensor.hpp:137:                                     throw std::runtime_error("dim <= 0");
	.loc 5 137 37 is_stmt 0 discriminator 2
	movq	_ZNSt13runtime_errorD1Ev@GOTPCREL(%rip), %rax	#, tmp92
	movq	%rax, %rdx	# tmp91,
	leaq	_ZTISt13runtime_error(%rip), %rax	#, tmp93
	movq	%rax, %rsi	# tmp93,
	movq	%rbx, %rdi	# _11,
.LEHB22:
	call	__cxa_throw@PLT	#
.L79:
# src/Tensor/Tensor.hpp:135:             std::for_each(this->_dims.begin(), this->_dims.end(), [&](int size)
	.loc 5 135 67 is_stmt 1
	movq	-24(%rbp), %rax	# __closure, tmp94
	movq	(%rax), %rax	# __closure_8(D)->__size_1d, _1
# src/Tensor/Tensor.hpp:138:                                 size_1d *= size; });          // exception: dim <= 0
	.loc 5 138 41
	movq	(%rax), %rcx	# *_1, _2
# src/Tensor/Tensor.hpp:138:                                 size_1d *= size; });          // exception: dim <= 0
	.loc 5 138 44
	movl	-28(%rbp), %eax	# size, tmp95
	movslq	%eax, %rdx	# tmp95, _3
# src/Tensor/Tensor.hpp:135:             std::for_each(this->_dims.begin(), this->_dims.end(), [&](int size)
	.loc 5 135 67
	movq	-24(%rbp), %rax	# __closure, tmp96
	movq	(%rax), %rax	# __closure_8(D)->__size_1d, _4
# src/Tensor/Tensor.hpp:138:                                 size_1d *= size; });          // exception: dim <= 0
	.loc 5 138 41
	imulq	%rcx, %rdx	# _2, _5
	movq	%rdx, (%rax)	# _5, *_4
# src/Tensor/Tensor.hpp:135:             std::for_each(this->_dims.begin(), this->_dims.end(), [&](int size)
	.loc 5 135 67
	jmp	.L82	#
.L81:
# src/Tensor/Tensor.hpp:137:                                     throw std::runtime_error("dim <= 0");
	.loc 5 137 37
	movq	%rax, %r12	#, tmp97
	movq	%rbx, %rdi	# _11,
	call	__cxa_free_exception@PLT	#
	movq	%r12, %rax	# tmp97, D.68638
	movq	%rax, %rdi	# D.68638,
	call	_Unwind_Resume@PLT	#
.LEHE22:
.L82:
# src/Tensor/Tensor.hpp:135:             std::for_each(this->_dims.begin(), this->_dims.end(), [&](int size)
	.loc 5 135 67
	addq	$16, %rsp	#,
	popq	%rbx	#
	popq	%r12	#
	popq	%rbp	#
	.cfi_def_cfa 7, 8
	ret	
	.cfi_endproc
.LFE3001:
	.section	.gcc_except_table
.LLSDA3001:
	.byte	0xff
	.byte	0xff
	.byte	0x1
	.uleb128 .LLSDACSE3001-.LLSDACSB3001
.LLSDACSB3001:
	.uleb128 .LEHB21-.LFB3001
	.uleb128 .LEHE21-.LEHB21
	.uleb128 .L81-.LFB3001
	.uleb128 0
	.uleb128 .LEHB22-.LFB3001
	.uleb128 .LEHE22-.LEHB22
	.uleb128 0
	.uleb128 0
.LLSDACSE3001:
	.section	.text._ZZN9container6tensorIdJLl2ELl3ELl5EEE11_initializeEvENKUliE_clEi,"axG",@progbits,_ZZN9container6tensorIdJLl2ELl3ELl5EEE11_initializeEvENKUliE_clEi,comdat
	.size	_ZZN9container6tensorIdJLl2ELl3ELl5EEE11_initializeEvENKUliE_clEi, .-_ZZN9container6tensorIdJLl2ELl3ELl5EEE11_initializeEvENKUliE_clEi
	.section	.text._ZN9container6tensorIdJLl2ELl3ELl5EEE11_initializeEv,"axG",@progbits,_ZN9container6tensorIdJLl2ELl3ELl5EEE11_initializeEv,comdat
	.align 2
	.weak	_ZN9container6tensorIdJLl2ELl3ELl5EEE11_initializeEv
	.type	_ZN9container6tensorIdJLl2ELl3ELl5EEE11_initializeEv, @function
_ZN9container6tensorIdJLl2ELl3ELl5EEE11_initializeEv:
.LFB3000:
	.loc 5 132 14
	.cfi_startproc
	pushq	%rbp	#
	.cfi_def_cfa_offset 16
	.cfi_offset 6, -16
	movq	%rsp, %rbp	#,
	.cfi_def_cfa_register 6
	pushq	%r12	#
	pushq	%rbx	#
	subq	$32, %rsp	#,
	.cfi_offset 12, -24
	.cfi_offset 3, -32
	movq	%rdi, -40(%rbp)	# this, this
# src/Tensor/Tensor.hpp:134:             size_type size_1d = 1;
	.loc 5 134 23
	movq	$1, -24(%rbp)	#, size_1d
# src/Tensor/Tensor.hpp:135:             std::for_each(this->_dims.begin(), this->_dims.end(), [&](int size)
	.loc 5 135 26
	leaq	-24(%rbp), %rax	#, tmp91
	movq	%rax, %r12	# tmp91, D.67813
	movq	-40(%rbp), %rax	# this, tmp92
	addq	$24, %rax	#, _1
	movq	%rax, %rdi	# _1,
	call	_ZNSt6vectorIlSaIlEE3endEv	#
	movq	%rax, %rbx	#, D.67814
	movq	-40(%rbp), %rax	# this, tmp93
	addq	$24, %rax	#, _2
	movq	%rax, %rdi	# _2,
	call	_ZNSt6vectorIlSaIlEE5beginEv	#
	movq	%r12, %rdx	# D.67813,
	movq	%rbx, %rsi	# D.67814,
	movq	%rax, %rdi	# D.67815,
	call	_ZSt8for_eachIN9__gnu_cxx17__normal_iteratorIPlSt6vectorIlSaIlEEEEZN9container6tensorIdJLl2ELl3ELl5EEE11_initializeEvEUliE_ET0_T_SC_SB_	#
# src/Tensor/Tensor.hpp:139:             this->_data.resize(size_1d); // exception: bad_alloc
	.loc 5 139 31
	movq	-40(%rbp), %rax	# this, _3
	movq	-24(%rbp), %rdx	# size_1d, size_1d.8_4
	movq	%rdx, %rsi	# size_1d.9_5,
	movq	%rax, %rdi	# _3,
	call	_ZNSt6vectorIdSaIdEE6resizeEm	#
# src/Tensor/Tensor.hpp:140:         }
	.loc 5 140 9
	nop	
	addq	$32, %rsp	#,
	popq	%rbx	#
	popq	%r12	#
	popq	%rbp	#
	.cfi_def_cfa 7, 8
	ret	
	.cfi_endproc
.LFE3000:
	.size	_ZN9container6tensorIdJLl2ELl3ELl5EEE11_initializeEv, .-_ZN9container6tensorIdJLl2ELl3ELl5EEE11_initializeEv
	.section	.text._ZNSt12_Vector_baseIdSaIdEE19_M_get_Tp_allocatorEv,"axG",@progbits,_ZNSt12_Vector_baseIdSaIdEE19_M_get_Tp_allocatorEv,comdat
	.align 2
	.weak	_ZNSt12_Vector_baseIdSaIdEE19_M_get_Tp_allocatorEv
	.type	_ZNSt12_Vector_baseIdSaIdEE19_M_get_Tp_allocatorEv, @function
_ZNSt12_Vector_baseIdSaIdEE19_M_get_Tp_allocatorEv:
.LFB3002:
	.loc 7 298 7
	.cfi_startproc
	pushq	%rbp	#
	.cfi_def_cfa_offset 16
	.cfi_offset 6, -16
	movq	%rsp, %rbp	#,
	.cfi_def_cfa_register 6
	movq	%rdi, -8(%rbp)	# this, this
# /usr/include/c++/12/bits/stl_vector.h:299:       { return this->_M_impl; }
	.loc 7 299 22
	movq	-8(%rbp), %rax	# this, _2
# /usr/include/c++/12/bits/stl_vector.h:299:       { return this->_M_impl; }
	.loc 7 299 31
	popq	%rbp	#
	.cfi_def_cfa 7, 8
	ret	
	.cfi_endproc
.LFE3002:
	.size	_ZNSt12_Vector_baseIdSaIdEE19_M_get_Tp_allocatorEv, .-_ZNSt12_Vector_baseIdSaIdEE19_M_get_Tp_allocatorEv
	.section	.text._ZSt8_DestroyIPddEvT_S1_RSaIT0_E,"axG",@progbits,_ZSt8_DestroyIPddEvT_S1_RSaIT0_E,comdat
	.weak	_ZSt8_DestroyIPddEvT_S1_RSaIT0_E
	.type	_ZSt8_DestroyIPddEvT_S1_RSaIT0_E, @function
_ZSt8_DestroyIPddEvT_S1_RSaIT0_E:
.LFB3003:
	.file 10 "/usr/include/c++/12/bits/alloc_traits.h"
	.loc 10 847 5
	.cfi_startproc
	pushq	%rbp	#
	.cfi_def_cfa_offset 16
	.cfi_offset 6, -16
	movq	%rsp, %rbp	#,
	.cfi_def_cfa_register 6
	subq	$32, %rsp	#,
	movq	%rdi, -8(%rbp)	# __first, __first
	movq	%rsi, -16(%rbp)	# __last, __last
	movq	%rdx, -24(%rbp)	# D.63873, D.63873
# /usr/include/c++/12/bits/alloc_traits.h:850:       _Destroy(__first, __last);
	.loc 10 850 15
	movq	-16(%rbp), %rdx	# __last, tmp82
	movq	-8(%rbp), %rax	# __first, tmp83
	movq	%rdx, %rsi	# tmp82,
	movq	%rax, %rdi	# tmp83,
	call	_ZSt8_DestroyIPdEvT_S1_	#
# /usr/include/c++/12/bits/alloc_traits.h:851:     }
	.loc 10 851 5
	nop	
	leave	
	.cfi_def_cfa 7, 8
	ret	
	.cfi_endproc
.LFE3003:
	.size	_ZSt8_DestroyIPddEvT_S1_RSaIT0_E, .-_ZSt8_DestroyIPddEvT_S1_RSaIT0_E
	.section	.text._ZNSt12_Vector_baseIlSaIlEED2Ev,"axG",@progbits,_ZNSt12_Vector_baseIlSaIlEED5Ev,comdat
	.align 2
	.weak	_ZNSt12_Vector_baseIlSaIlEED2Ev
	.type	_ZNSt12_Vector_baseIlSaIlEED2Ev, @function
_ZNSt12_Vector_baseIlSaIlEED2Ev:
.LFB3005:
	.loc 7 364 7
	.cfi_startproc
	.cfi_personality 0x9b,DW.ref.__gxx_personality_v0
	.cfi_lsda 0x1b,.LLSDA3005
	pushq	%rbp	#
	.cfi_def_cfa_offset 16
	.cfi_offset 6, -16
	movq	%rsp, %rbp	#,
	.cfi_def_cfa_register 6
	subq	$16, %rsp	#,
	movq	%rdi, -8(%rbp)	# this, this
.LBB25:
# /usr/include/c++/12/bits/stl_vector.h:367: 		      _M_impl._M_end_of_storage - _M_impl._M_start);
	.loc 7 367 17
	movq	-8(%rbp), %rax	# this, tmp89
	movq	16(%rax), %rdx	# this_9(D)->_M_impl.D.54123._M_end_of_storage, _1
# /usr/include/c++/12/bits/stl_vector.h:367: 		      _M_impl._M_end_of_storage - _M_impl._M_start);
	.loc 7 367 45
	movq	-8(%rbp), %rax	# this, tmp90
	movq	(%rax), %rax	# this_9(D)->_M_impl.D.54123._M_start, _2
# /usr/include/c++/12/bits/stl_vector.h:367: 		      _M_impl._M_end_of_storage - _M_impl._M_start);
	.loc 7 367 35
	subq	%rax, %rdx	# _2, _3
	movq	%rdx, %rax	# _3, _3
	sarq	$3, %rax	#, _3
# /usr/include/c++/12/bits/stl_vector.h:366: 	_M_deallocate(_M_impl._M_start,
	.loc 7 366 15
	movq	%rax, %rdx	# _4, _5
	movq	-8(%rbp), %rax	# this, tmp92
	movq	(%rax), %rcx	# this_9(D)->_M_impl.D.54123._M_start, _6
	movq	-8(%rbp), %rax	# this, tmp93
	movq	%rcx, %rsi	# _6,
	movq	%rax, %rdi	# tmp93,
	call	_ZNSt12_Vector_baseIlSaIlEE13_M_deallocateEPlm	#
# /usr/include/c++/12/bits/stl_vector.h:368:       }
	.loc 7 368 7
	movq	-8(%rbp), %rax	# this, _7
	movq	%rax, %rdi	# _7,
	call	_ZNSt12_Vector_baseIlSaIlEE12_Vector_implD1Ev	#
.LBE25:
	nop	
	leave	
	.cfi_def_cfa 7, 8
	ret	
	.cfi_endproc
.LFE3005:
	.section	.gcc_except_table
.LLSDA3005:
	.byte	0xff
	.byte	0xff
	.byte	0x1
	.uleb128 .LLSDACSE3005-.LLSDACSB3005
.LLSDACSB3005:
.LLSDACSE3005:
	.section	.text._ZNSt12_Vector_baseIlSaIlEED2Ev,"axG",@progbits,_ZNSt12_Vector_baseIlSaIlEED5Ev,comdat
	.size	_ZNSt12_Vector_baseIlSaIlEED2Ev, .-_ZNSt12_Vector_baseIlSaIlEED2Ev
	.weak	_ZNSt12_Vector_baseIlSaIlEED1Ev
	.set	_ZNSt12_Vector_baseIlSaIlEED1Ev,_ZNSt12_Vector_baseIlSaIlEED2Ev
	.section	.text._ZNSt12_Vector_baseIlSaIlEE19_M_get_Tp_allocatorEv,"axG",@progbits,_ZNSt12_Vector_baseIlSaIlEE19_M_get_Tp_allocatorEv,comdat
	.align 2
	.weak	_ZNSt12_Vector_baseIlSaIlEE19_M_get_Tp_allocatorEv
	.type	_ZNSt12_Vector_baseIlSaIlEE19_M_get_Tp_allocatorEv, @function
_ZNSt12_Vector_baseIlSaIlEE19_M_get_Tp_allocatorEv:
.LFB3007:
	.loc 7 298 7
	.cfi_startproc
	pushq	%rbp	#
	.cfi_def_cfa_offset 16
	.cfi_offset 6, -16
	movq	%rsp, %rbp	#,
	.cfi_def_cfa_register 6
	movq	%rdi, -8(%rbp)	# this, this
# /usr/include/c++/12/bits/stl_vector.h:299:       { return this->_M_impl; }
	.loc 7 299 22
	movq	-8(%rbp), %rax	# this, _2
# /usr/include/c++/12/bits/stl_vector.h:299:       { return this->_M_impl; }
	.loc 7 299 31
	popq	%rbp	#
	.cfi_def_cfa 7, 8
	ret	
	.cfi_endproc
.LFE3007:
	.size	_ZNSt12_Vector_baseIlSaIlEE19_M_get_Tp_allocatorEv, .-_ZNSt12_Vector_baseIlSaIlEE19_M_get_Tp_allocatorEv
	.section	.text._ZSt8_DestroyIPllEvT_S1_RSaIT0_E,"axG",@progbits,_ZSt8_DestroyIPllEvT_S1_RSaIT0_E,comdat
	.weak	_ZSt8_DestroyIPllEvT_S1_RSaIT0_E
	.type	_ZSt8_DestroyIPllEvT_S1_RSaIT0_E, @function
_ZSt8_DestroyIPllEvT_S1_RSaIT0_E:
.LFB3008:
	.loc 10 847 5
	.cfi_startproc
	pushq	%rbp	#
	.cfi_def_cfa_offset 16
	.cfi_offset 6, -16
	movq	%rsp, %rbp	#,
	.cfi_def_cfa_register 6
	subq	$32, %rsp	#,
	movq	%rdi, -8(%rbp)	# __first, __first
	movq	%rsi, -16(%rbp)	# __last, __last
	movq	%rdx, -24(%rbp)	# D.63888, D.63888
# /usr/include/c++/12/bits/alloc_traits.h:850:       _Destroy(__first, __last);
	.loc 10 850 15
	movq	-16(%rbp), %rdx	# __last, tmp82
	movq	-8(%rbp), %rax	# __first, tmp83
	movq	%rdx, %rsi	# tmp82,
	movq	%rax, %rdi	# tmp83,
	call	_ZSt8_DestroyIPlEvT_S1_	#
# /usr/include/c++/12/bits/alloc_traits.h:851:     }
	.loc 10 851 5
	nop	
	leave	
	.cfi_def_cfa 7, 8
	ret	
	.cfi_endproc
.LFE3008:
	.size	_ZSt8_DestroyIPllEvT_S1_RSaIT0_E, .-_ZSt8_DestroyIPllEvT_S1_RSaIT0_E
	.section	.text._ZNKSt6vectorIlSaIlEE4sizeEv,"axG",@progbits,_ZNKSt6vectorIlSaIlEE4sizeEv,comdat
	.align 2
	.weak	_ZNKSt6vectorIlSaIlEE4sizeEv
	.type	_ZNKSt6vectorIlSaIlEE4sizeEv, @function
_ZNKSt6vectorIlSaIlEE4sizeEv:
.LFB3009:
	.loc 7 987 7
	.cfi_startproc
	pushq	%rbp	#
	.cfi_def_cfa_offset 16
	.cfi_offset 6, -16
	movq	%rsp, %rbp	#,
	.cfi_def_cfa_register 6
	movq	%rdi, -8(%rbp)	# this, this
# /usr/include/c++/12/bits/stl_vector.h:988:       { return size_type(this->_M_impl._M_finish - this->_M_impl._M_start); }
	.loc 7 988 40
	movq	-8(%rbp), %rax	# this, tmp88
	movq	8(%rax), %rdx	# this_6(D)->D.54811._M_impl.D.54123._M_finish, _1
# /usr/include/c++/12/bits/stl_vector.h:988:       { return size_type(this->_M_impl._M_finish - this->_M_impl._M_start); }
	.loc 7 988 66
	movq	-8(%rbp), %rax	# this, tmp89
	movq	(%rax), %rax	# this_6(D)->D.54811._M_impl.D.54123._M_start, _2
# /usr/include/c++/12/bits/stl_vector.h:988:       { return size_type(this->_M_impl._M_finish - this->_M_impl._M_start); }
	.loc 7 988 50
	subq	%rax, %rdx	# _2, _3
	movq	%rdx, %rax	# _3, _3
	sarq	$3, %rax	#, _3
# /usr/include/c++/12/bits/stl_vector.h:988:       { return size_type(this->_M_impl._M_finish - this->_M_impl._M_start); }
	.loc 7 988 77
	popq	%rbp	#
	.cfi_def_cfa 7, 8
	ret	
	.cfi_endproc
.LFE3009:
	.size	_ZNKSt6vectorIlSaIlEE4sizeEv, .-_ZNKSt6vectorIlSaIlEE4sizeEv
	.section	.text._ZNK9container6tensorIdJLl2ELl3ELl5EEE5orderEv,"axG",@progbits,_ZNK9container6tensorIdJLl2ELl3ELl5EEE5orderEv,comdat
	.align 2
	.weak	_ZNK9container6tensorIdJLl2ELl3ELl5EEE5orderEv
	.type	_ZNK9container6tensorIdJLl2ELl3ELl5EEE5orderEv, @function
_ZNK9container6tensorIdJLl2ELl3ELl5EEE5orderEv:
.LFB3010:
	.loc 5 74 19
	.cfi_startproc
	pushq	%rbp	#
	.cfi_def_cfa_offset 16
	.cfi_offset 6, -16
	movq	%rsp, %rbp	#,
	.cfi_def_cfa_register 6
	subq	$16, %rsp	#,
	movq	%rdi, -8(%rbp)	# this, this
# src/Tensor/Tensor.hpp:76:             return this->_dims.size();
	.loc 5 76 36
	movq	-8(%rbp), %rax	# this, tmp86
	addq	$24, %rax	#, _1
	movq	%rax, %rdi	# _1,
	call	_ZNKSt6vectorIlSaIlEE4sizeEv	#
# src/Tensor/Tensor.hpp:77:         }
	.loc 5 77 9
	leave	
	.cfi_def_cfa 7, 8
	ret	
	.cfi_endproc
.LFE3010:
	.size	_ZNK9container6tensorIdJLl2ELl3ELl5EEE5orderEv, .-_ZNK9container6tensorIdJLl2ELl3ELl5EEE5orderEv
	.section	.text._ZNK9container6tensorIdJLl2ELl3ELl5EEE4sizeEv,"axG",@progbits,_ZNK9container6tensorIdJLl2ELl3ELl5EEE4sizeEv,comdat
	.align 2
	.weak	_ZNK9container6tensorIdJLl2ELl3ELl5EEE4sizeEv
	.type	_ZNK9container6tensorIdJLl2ELl3ELl5EEE4sizeEv, @function
_ZNK9container6tensorIdJLl2ELl3ELl5EEE4sizeEv:
.LFB3011:
	.loc 5 79 19
	.cfi_startproc
	pushq	%rbp	#
	.cfi_def_cfa_offset 16
	.cfi_offset 6, -16
	movq	%rsp, %rbp	#,
	.cfi_def_cfa_register 6
	subq	$16, %rsp	#,
	movq	%rdi, -8(%rbp)	# this, this
# src/Tensor/Tensor.hpp:81:             return this->_data.size();
	.loc 5 81 36
	movq	-8(%rbp), %rax	# this, _1
	movq	%rax, %rdi	# _1,
	call	_ZNKSt6vectorIdSaIdEE4sizeEv	#
# src/Tensor/Tensor.hpp:82:         }
	.loc 5 82 9
	leave	
	.cfi_def_cfa 7, 8
	ret	
	.cfi_endproc
.LFE3011:
	.size	_ZNK9container6tensorIdJLl2ELl3ELl5EEE4sizeEv, .-_ZNK9container6tensorIdJLl2ELl3ELl5EEE4sizeEv
	.section	.text._ZNSt6vectorIlSaIlEEixEm,"axG",@progbits,_ZNSt6vectorIlSaIlEEixEm,comdat
	.align 2
	.weak	_ZNSt6vectorIlSaIlEEixEm
	.type	_ZNSt6vectorIlSaIlEEixEm, @function
_ZNSt6vectorIlSaIlEEixEm:
.LFB3012:
	.loc 7 1121 7
	.cfi_startproc
	pushq	%rbp	#
	.cfi_def_cfa_offset 16
	.cfi_offset 6, -16
	movq	%rsp, %rbp	#,
	.cfi_def_cfa_register 6
	movq	%rdi, -8(%rbp)	# this, this
	movq	%rsi, -16(%rbp)	# __n, __n
# /usr/include/c++/12/bits/stl_vector.h:1124: 	return *(this->_M_impl._M_start + __n);
	.loc 7 1124 25
	movq	-8(%rbp), %rax	# this, tmp86
	movq	(%rax), %rax	# this_4(D)->D.54811._M_impl.D.54123._M_start, _1
# /usr/include/c++/12/bits/stl_vector.h:1124: 	return *(this->_M_impl._M_start + __n);
	.loc 7 1124 34
	movq	-16(%rbp), %rdx	# __n, tmp87
	salq	$3, %rdx	#, _2
# /usr/include/c++/12/bits/stl_vector.h:1124: 	return *(this->_M_impl._M_start + __n);
	.loc 7 1124 39
	addq	%rdx, %rax	# _2, _6
# /usr/include/c++/12/bits/stl_vector.h:1125:       }
	.loc 7 1125 7
	popq	%rbp	#
	.cfi_def_cfa 7, 8
	ret	
	.cfi_endproc
.LFE3012:
	.size	_ZNSt6vectorIlSaIlEEixEm, .-_ZNSt6vectorIlSaIlEEixEm
	.section	.text._ZNSt6vectorIdSaIdEEixEm,"axG",@progbits,_ZNSt6vectorIdSaIdEEixEm,comdat
	.align 2
	.weak	_ZNSt6vectorIdSaIdEEixEm
	.type	_ZNSt6vectorIdSaIdEEixEm, @function
_ZNSt6vectorIdSaIdEEixEm:
.LFB3013:
	.loc 7 1121 7
	.cfi_startproc
	pushq	%rbp	#
	.cfi_def_cfa_offset 16
	.cfi_offset 6, -16
	movq	%rsp, %rbp	#,
	.cfi_def_cfa_register 6
	movq	%rdi, -8(%rbp)	# this, this
	movq	%rsi, -16(%rbp)	# __n, __n
# /usr/include/c++/12/bits/stl_vector.h:1124: 	return *(this->_M_impl._M_start + __n);
	.loc 7 1124 25
	movq	-8(%rbp), %rax	# this, tmp86
	movq	(%rax), %rax	# this_4(D)->D.58674._M_impl.D.58013._M_start, _1
# /usr/include/c++/12/bits/stl_vector.h:1124: 	return *(this->_M_impl._M_start + __n);
	.loc 7 1124 34
	movq	-16(%rbp), %rdx	# __n, tmp87
	salq	$3, %rdx	#, _2
# /usr/include/c++/12/bits/stl_vector.h:1124: 	return *(this->_M_impl._M_start + __n);
	.loc 7 1124 39
	addq	%rdx, %rax	# _2, _6
# /usr/include/c++/12/bits/stl_vector.h:1125:       }
	.loc 7 1125 7
	popq	%rbp	#
	.cfi_def_cfa 7, 8
	ret	
	.cfi_endproc
.LFE3013:
	.size	_ZNSt6vectorIdSaIdEEixEm, .-_ZNSt6vectorIdSaIdEEixEm
	.section	.text._ZNSt12_Vector_baseIlSaIlEE12_Vector_implC2Ev,"axG",@progbits,_ZNSt12_Vector_baseIlSaIlEE12_Vector_implC5Ev,comdat
	.align 2
	.weak	_ZNSt12_Vector_baseIlSaIlEE12_Vector_implC2Ev
	.type	_ZNSt12_Vector_baseIlSaIlEE12_Vector_implC2Ev, @function
_ZNSt12_Vector_baseIlSaIlEE12_Vector_implC2Ev:
.LFB3015:
	.loc 7 137 2
	.cfi_startproc
	pushq	%rbp	#
	.cfi_def_cfa_offset 16
	.cfi_offset 6, -16
	movq	%rsp, %rbp	#,
	.cfi_def_cfa_register 6
	subq	$16, %rsp	#,
	movq	%rdi, -8(%rbp)	# this, this
.LBB26:
# /usr/include/c++/12/bits/stl_vector.h:139: 	: _Tp_alloc_type()
	.loc 7 139 19
	movq	-8(%rbp), %rax	# this, tmp83
	movq	%rax, %rdi	# tmp83,
	call	_ZNSaIlEC2Ev	#
	movq	-8(%rbp), %rax	# this, _1
	movq	%rax, %rdi	# _1,
	call	_ZNSt12_Vector_baseIlSaIlEE17_Vector_impl_dataC2Ev	#
.LBE26:
# /usr/include/c++/12/bits/stl_vector.h:140: 	{ }
	.loc 7 140 4
	nop	
	leave	
	.cfi_def_cfa 7, 8
	ret	
	.cfi_endproc
.LFE3015:
	.size	_ZNSt12_Vector_baseIlSaIlEE12_Vector_implC2Ev, .-_ZNSt12_Vector_baseIlSaIlEE12_Vector_implC2Ev
	.weak	_ZNSt12_Vector_baseIlSaIlEE12_Vector_implC1Ev
	.set	_ZNSt12_Vector_baseIlSaIlEE12_Vector_implC1Ev,_ZNSt12_Vector_baseIlSaIlEE12_Vector_implC2Ev
	.section	.text._ZNK9container6tensorIdJLl2ELl3ELl5EEE5beginEv,"axG",@progbits,_ZNK9container6tensorIdJLl2ELl3ELl5EEE5beginEv,comdat
	.align 2
	.weak	_ZNK9container6tensorIdJLl2ELl3ELl5EEE5beginEv
	.type	_ZNK9container6tensorIdJLl2ELl3ELl5EEE5beginEv, @function
_ZNK9container6tensorIdJLl2ELl3ELl5EEE5beginEv:
.LFB3021:
	.loc 5 94 14
	.cfi_startproc
	pushq	%rbp	#
	.cfi_def_cfa_offset 16
	.cfi_offset 6, -16
	movq	%rsp, %rbp	#,
	.cfi_def_cfa_register 6
	subq	$16, %rsp	#,
	movq	%rdi, -8(%rbp)	# this, this
# src/Tensor/Tensor.hpp:96:             return this->_data.begin();
	.loc 5 96 37
	movq	-8(%rbp), %rax	# this, _1
	movq	%rax, %rdi	# _1,
	call	_ZNKSt6vectorIdSaIdEE5beginEv	#
# src/Tensor/Tensor.hpp:97:         }
	.loc 5 97 9
	leave	
	.cfi_def_cfa 7, 8
	ret	
	.cfi_endproc
.LFE3021:
	.size	_ZNK9container6tensorIdJLl2ELl3ELl5EEE5beginEv, .-_ZNK9container6tensorIdJLl2ELl3ELl5EEE5beginEv
	.section	.text._ZNK9container6tensorIdJLl2ELl3ELl5EEE3endEv,"axG",@progbits,_ZNK9container6tensorIdJLl2ELl3ELl5EEE3endEv,comdat
	.align 2
	.weak	_ZNK9container6tensorIdJLl2ELl3ELl5EEE3endEv
	.type	_ZNK9container6tensorIdJLl2ELl3ELl5EEE3endEv, @function
_ZNK9container6tensorIdJLl2ELl3ELl5EEE3endEv:
.LFB3022:
	.loc 5 99 14
	.cfi_startproc
	pushq	%rbp	#
	.cfi_def_cfa_offset 16
	.cfi_offset 6, -16
	movq	%rsp, %rbp	#,
	.cfi_def_cfa_register 6
	subq	$16, %rsp	#,
	movq	%rdi, -8(%rbp)	# this, this
# src/Tensor/Tensor.hpp:101:             return this->_data.end();
	.loc 5 101 35
	movq	-8(%rbp), %rax	# this, _1
	movq	%rax, %rdi	# _1,
	call	_ZNKSt6vectorIdSaIdEE3endEv	#
# src/Tensor/Tensor.hpp:102:         }
	.loc 5 102 9
	leave	
	.cfi_def_cfa 7, 8
	ret	
	.cfi_endproc
.LFE3022:
	.size	_ZNK9container6tensorIdJLl2ELl3ELl5EEE3endEv, .-_ZNK9container6tensorIdJLl2ELl3ELl5EEE3endEv
	.section	.text._ZN9container6tensorIdJEE26_diff_type_copy_initializeIJLl2ELl3ELl5EEEEvRKNS0_IdJXspT_EEEE,"axG",@progbits,_ZN9container6tensorIdJEE26_diff_type_copy_initializeIJLl2ELl3ELl5EEEEvRKNS0_IdJXspT_EEEE,comdat
	.align 2
	.weak	_ZN9container6tensorIdJEE26_diff_type_copy_initializeIJLl2ELl3ELl5EEEEvRKNS0_IdJXspT_EEEE
	.type	_ZN9container6tensorIdJEE26_diff_type_copy_initializeIJLl2ELl3ELl5EEEEvRKNS0_IdJXspT_EEEE, @function
_ZN9container6tensorIdJEE26_diff_type_copy_initializeIJLl2ELl3ELl5EEEEvRKNS0_IdJXspT_EEEE:
.LFB3017:
	.loc 5 143 14
	.cfi_startproc
	.cfi_personality 0x9b,DW.ref.__gxx_personality_v0
	.cfi_lsda 0x1b,.LLSDA3017
	pushq	%rbp	#
	.cfi_def_cfa_offset 16
	.cfi_offset 6, -16
	movq	%rsp, %rbp	#,
	.cfi_def_cfa_register 6
	pushq	%r12	#
	pushq	%rbx	#
	subq	$48, %rsp	#,
	.cfi_offset 12, -24
	.cfi_offset 3, -32
	movq	%rdi, -56(%rbp)	# this, this
	movq	%rsi, -64(%rbp)	# rhs_tensor, rhs_tensor
# src/Tensor/Tensor.hpp:145:             auto rhs_dim_vector = rhs_tensor.shape();
	.loc 5 145 18
	leaq	-48(%rbp), %rax	#, tmp93
	movq	-64(%rbp), %rdx	# rhs_tensor, tmp94
	movq	%rdx, %rsi	# tmp94,
	movq	%rax, %rdi	# tmp93,
	call	_ZNK9container6tensorIdJLl2ELl3ELl5EEE5shapeEv	#
# src/Tensor/Tensor.hpp:151:             this->_dims = std::move(rhs_dim_vector);
	.loc 5 151 36
	leaq	-48(%rbp), %rax	#, tmp95
	movq	%rax, %rdi	# tmp95,
	call	_ZSt4moveIRSt6vectorIlSaIlEEEONSt16remove_referenceIT_E4typeEOS5_	#
	movq	%rax, %rdx	#, _1
# src/Tensor/Tensor.hpp:151:             this->_dims = std::move(rhs_dim_vector);
	.loc 5 151 25
	movq	-56(%rbp), %rax	# this, tmp96
	addq	$24, %rax	#, _2
	movq	%rdx, %rsi	# _1,
	movq	%rax, %rdi	# _2,
	call	_ZNSt6vectorIlSaIlEEaSEOS1_	#
# src/Tensor/Tensor.hpp:152:             this->_data.resize(rhs_tensor.size());
	.loc 5 152 31
	movq	-56(%rbp), %rbx	# this, _3
# src/Tensor/Tensor.hpp:152:             this->_data.resize(rhs_tensor.size());
	.loc 5 152 47
	movq	-64(%rbp), %rax	# rhs_tensor, tmp97
	movq	%rax, %rdi	# tmp97,
	call	_ZNK9container6tensorIdJLl2ELl3ELl5EEE4sizeEv	#
# src/Tensor/Tensor.hpp:152:             this->_data.resize(rhs_tensor.size());
	.loc 5 152 31
	movq	%rax, %rsi	# _5,
	movq	%rbx, %rdi	# _3,
.LEHB23:
	call	_ZNSt6vectorIdSaIdEE6resizeEm	#
# src/Tensor/Tensor.hpp:153:             std::copy(rhs_tensor.begin(), rhs_tensor.end(), this->_data.begin());
	.loc 5 153 22
	movq	-56(%rbp), %rax	# this, _6
	movq	%rax, %rdi	# _6,
	call	_ZNSt6vectorIdSaIdEE5beginEv	#
	movq	%rax, %r12	#, D.67994
	movq	-64(%rbp), %rax	# rhs_tensor, tmp98
	movq	%rax, %rdi	# tmp98,
	call	_ZNK9container6tensorIdJLl2ELl3ELl5EEE3endEv	#
	movq	%rax, %rbx	#, D.67995
	movq	-64(%rbp), %rax	# rhs_tensor, tmp99
	movq	%rax, %rdi	# tmp99,
	call	_ZNK9container6tensorIdJLl2ELl3ELl5EEE5beginEv	#
	movq	%r12, %rdx	# D.67994,
	movq	%rbx, %rsi	# D.67995,
	movq	%rax, %rdi	# D.67996,
	call	_ZSt4copyIN9__gnu_cxx17__normal_iteratorIPKdSt6vectorIdSaIdEEEENS1_IPdS6_EEET0_T_SB_SA_	#
.LEHE23:
# src/Tensor/Tensor.hpp:154:         }
	.loc 5 154 9
	leaq	-48(%rbp), %rax	#, tmp100
	movq	%rax, %rdi	# tmp100,
	call	_ZNSt6vectorIlSaIlEED1Ev	#
	jmp	.L109	#
.L108:
	movq	%rax, %rbx	#, tmp102
	leaq	-48(%rbp), %rax	#, tmp101
	movq	%rax, %rdi	# tmp101,
	call	_ZNSt6vectorIlSaIlEED1Ev	#
	movq	%rbx, %rax	# tmp102, D.68640
	movq	%rax, %rdi	# D.68640,
.LEHB24:
	call	_Unwind_Resume@PLT	#
.LEHE24:
.L109:
	addq	$48, %rsp	#,
	popq	%rbx	#
	popq	%r12	#
	popq	%rbp	#
	.cfi_def_cfa 7, 8
	ret	
	.cfi_endproc
.LFE3017:
	.section	.gcc_except_table
.LLSDA3017:
	.byte	0xff
	.byte	0xff
	.byte	0x1
	.uleb128 .LLSDACSE3017-.LLSDACSB3017
.LLSDACSB3017:
	.uleb128 .LEHB23-.LFB3017
	.uleb128 .LEHE23-.LEHB23
	.uleb128 .L108-.LFB3017
	.uleb128 0
	.uleb128 .LEHB24-.LFB3017
	.uleb128 .LEHE24-.LEHB24
	.uleb128 0
	.uleb128 0
.LLSDACSE3017:
	.section	.text._ZN9container6tensorIdJEE26_diff_type_copy_initializeIJLl2ELl3ELl5EEEEvRKNS0_IdJXspT_EEEE,"axG",@progbits,_ZN9container6tensorIdJEE26_diff_type_copy_initializeIJLl2ELl3ELl5EEEEvRKNS0_IdJXspT_EEEE,comdat
	.size	_ZN9container6tensorIdJEE26_diff_type_copy_initializeIJLl2ELl3ELl5EEEEvRKNS0_IdJXspT_EEEE, .-_ZN9container6tensorIdJEE26_diff_type_copy_initializeIJLl2ELl3ELl5EEEEvRKNS0_IdJXspT_EEEE
	.section	.text._ZNSt12_Vector_baseIlSaIlEEC2EOS1_,"axG",@progbits,_ZNSt12_Vector_baseIlSaIlEEC5EOS1_,comdat
	.align 2
	.weak	_ZNSt12_Vector_baseIlSaIlEEC2EOS1_
	.type	_ZNSt12_Vector_baseIlSaIlEEC2EOS1_, @function
_ZNSt12_Vector_baseIlSaIlEEC2EOS1_:
.LFB3026:
	.loc 7 335 7
	.cfi_startproc
	pushq	%rbp	#
	.cfi_def_cfa_offset 16
	.cfi_offset 6, -16
	movq	%rsp, %rbp	#,
	.cfi_def_cfa_register 6
	subq	$16, %rsp	#,
	movq	%rdi, -8(%rbp)	# this, this
	movq	%rsi, -16(%rbp)	# D.54205, D.54205
.LBB27:
# /usr/include/c++/12/bits/stl_vector.h:335:       _Vector_base(_Vector_base&&) = default;
	.loc 7 335 7
	movq	-8(%rbp), %rax	# this, _1
	movq	-16(%rbp), %rdx	# D.54205, _2
	movq	%rdx, %rsi	# _2,
	movq	%rax, %rdi	# _1,
	call	_ZNSt12_Vector_baseIlSaIlEE12_Vector_implC1EOS2_	#
.LBE27:
	nop	
	leave	
	.cfi_def_cfa 7, 8
	ret	
	.cfi_endproc
.LFE3026:
	.size	_ZNSt12_Vector_baseIlSaIlEEC2EOS1_, .-_ZNSt12_Vector_baseIlSaIlEEC2EOS1_
	.weak	_ZNSt12_Vector_baseIlSaIlEEC1EOS1_
	.set	_ZNSt12_Vector_baseIlSaIlEEC1EOS1_,_ZNSt12_Vector_baseIlSaIlEEC2EOS1_
	.section	.text._ZNSt6vectorIlSaIlEEC2EOS1_,"axG",@progbits,_ZNSt6vectorIlSaIlEEC5EOS1_,comdat
	.align 2
	.weak	_ZNSt6vectorIlSaIlEEC2EOS1_
	.type	_ZNSt6vectorIlSaIlEEC2EOS1_, @function
_ZNSt6vectorIlSaIlEEC2EOS1_:
.LFB3028:
	.loc 7 615 7
	.cfi_startproc
	pushq	%rbp	#
	.cfi_def_cfa_offset 16
	.cfi_offset 6, -16
	movq	%rsp, %rbp	#,
	.cfi_def_cfa_register 6
	subq	$16, %rsp	#,
	movq	%rdi, -8(%rbp)	# this, this
	movq	%rsi, -16(%rbp)	# D.54770, D.54770
.LBB28:
# /usr/include/c++/12/bits/stl_vector.h:615:       vector(vector&&) noexcept = default;
	.loc 7 615 7
	movq	-8(%rbp), %rax	# this, _1
	movq	-16(%rbp), %rdx	# D.54770, _2
	movq	%rdx, %rsi	# _2,
	movq	%rax, %rdi	# _1,
	call	_ZNSt12_Vector_baseIlSaIlEEC2EOS1_	#
.LBE28:
	nop	
	leave	
	.cfi_def_cfa 7, 8
	ret	
	.cfi_endproc
.LFE3028:
	.size	_ZNSt6vectorIlSaIlEEC2EOS1_, .-_ZNSt6vectorIlSaIlEEC2EOS1_
	.weak	_ZNSt6vectorIlSaIlEEC1EOS1_
	.set	_ZNSt6vectorIlSaIlEEC1EOS1_,_ZNSt6vectorIlSaIlEEC2EOS1_
	.section	.text._ZNK9container6tensorIdJEE5beginEv,"axG",@progbits,_ZNK9container6tensorIdJEE5beginEv,comdat
	.align 2
	.weak	_ZNK9container6tensorIdJEE5beginEv
	.type	_ZNK9container6tensorIdJEE5beginEv, @function
_ZNK9container6tensorIdJEE5beginEv:
.LFB3030:
	.loc 5 94 14
	.cfi_startproc
	pushq	%rbp	#
	.cfi_def_cfa_offset 16
	.cfi_offset 6, -16
	movq	%rsp, %rbp	#,
	.cfi_def_cfa_register 6
	subq	$16, %rsp	#,
	movq	%rdi, -8(%rbp)	# this, this
# src/Tensor/Tensor.hpp:96:             return this->_data.begin();
	.loc 5 96 37
	movq	-8(%rbp), %rax	# this, _1
	movq	%rax, %rdi	# _1,
	call	_ZNKSt6vectorIdSaIdEE5beginEv	#
# src/Tensor/Tensor.hpp:97:         }
	.loc 5 97 9
	leave	
	.cfi_def_cfa 7, 8
	ret	
	.cfi_endproc
.LFE3030:
	.size	_ZNK9container6tensorIdJEE5beginEv, .-_ZNK9container6tensorIdJEE5beginEv
	.section	.text._ZNK9container6tensorIdJEE3endEv,"axG",@progbits,_ZNK9container6tensorIdJEE3endEv,comdat
	.align 2
	.weak	_ZNK9container6tensorIdJEE3endEv
	.type	_ZNK9container6tensorIdJEE3endEv, @function
_ZNK9container6tensorIdJEE3endEv:
.LFB3031:
	.loc 5 99 14
	.cfi_startproc
	pushq	%rbp	#
	.cfi_def_cfa_offset 16
	.cfi_offset 6, -16
	movq	%rsp, %rbp	#,
	.cfi_def_cfa_register 6
	subq	$16, %rsp	#,
	movq	%rdi, -8(%rbp)	# this, this
# src/Tensor/Tensor.hpp:101:             return this->_data.end();
	.loc 5 101 35
	movq	-8(%rbp), %rax	# this, _1
	movq	%rax, %rdi	# _1,
	call	_ZNKSt6vectorIdSaIdEE3endEv	#
# src/Tensor/Tensor.hpp:102:         }
	.loc 5 102 9
	leave	
	.cfi_def_cfa 7, 8
	ret	
	.cfi_endproc
.LFE3031:
	.size	_ZNK9container6tensorIdJEE3endEv, .-_ZNK9container6tensorIdJEE3endEv
	.section	.rodata
.LC4:
	.string	"Dimensions mismatch."
	.section	.text._ZN9container6tensorIdJLl2ELl3ELl5EEE26_diff_type_move_initializeIJEEEvONS0_IdJXspT_EEEE,"axG",@progbits,_ZN9container6tensorIdJLl2ELl3ELl5EEE26_diff_type_move_initializeIJEEEvONS0_IdJXspT_EEEE,comdat
	.align 2
	.weak	_ZN9container6tensorIdJLl2ELl3ELl5EEE26_diff_type_move_initializeIJEEEvONS0_IdJXspT_EEEE
	.type	_ZN9container6tensorIdJLl2ELl3ELl5EEE26_diff_type_move_initializeIJEEEvONS0_IdJXspT_EEEE, @function
_ZN9container6tensorIdJLl2ELl3ELl5EEE26_diff_type_move_initializeIJEEEvONS0_IdJXspT_EEEE:
.LFB3023:
	.loc 5 157 14
	.cfi_startproc
	.cfi_personality 0x9b,DW.ref.__gxx_personality_v0
	.cfi_lsda 0x1b,.LLSDA3023
	pushq	%rbp	#
	.cfi_def_cfa_offset 16
	.cfi_offset 6, -16
	movq	%rsp, %rbp	#,
	.cfi_def_cfa_register 6
	pushq	%r13	#
	pushq	%r12	#
	pushq	%rbx	#
	subq	$88, %rsp	#,
	.cfi_offset 13, -24
	.cfi_offset 12, -32
	.cfi_offset 3, -40
	movq	%rdi, -104(%rbp)	# this, this
	movq	%rsi, -112(%rbp)	# rhs_tensor, rhs_tensor
# src/Tensor/Tensor.hpp:159:             auto rhs_dim_vector = std::move(rhs_tensor.shape());
	.loc 5 159 44
	leaq	-64(%rbp), %rax	#, tmp103
	movq	-112(%rbp), %rdx	# rhs_tensor, tmp104
	movq	%rdx, %rsi	# tmp104,
	movq	%rax, %rdi	# tmp103,
	call	_ZNK9container6tensorIdJEE5shapeEv	#
	leaq	-64(%rbp), %rax	#, tmp105
	movq	%rax, %rdi	# tmp105,
	call	_ZSt4moveISt6vectorIlSaIlEEEONSt16remove_referenceIT_E4typeEOS4_	#
	movq	%rax, %rdx	#, _1
# src/Tensor/Tensor.hpp:159:             auto rhs_dim_vector = std::move(rhs_tensor.shape());
	.loc 5 159 18
	leaq	-96(%rbp), %rax	#, tmp106
	movq	%rdx, %rsi	# _1,
	movq	%rax, %rdi	# tmp106,
	call	_ZNSt6vectorIlSaIlEEC1EOS1_	#
# src/Tensor/Tensor.hpp:159:             auto rhs_dim_vector = std::move(rhs_tensor.shape());
	.loc 5 159 44
	leaq	-64(%rbp), %rax	#, tmp107
	movq	%rax, %rdi	# tmp107,
	call	_ZNSt6vectorIlSaIlEED1Ev	#
# src/Tensor/Tensor.hpp:161:                 if (!std::equal(rhs_dim_vector.begin(), rhs_dim_vector.end(),
	.loc 5 161 32
	movq	-104(%rbp), %rax	# this, tmp108
	addq	$24, %rax	#, _2
	movq	%rax, %rdi	# _2,
	call	_ZNSt6vectorIlSaIlEE3endEv	#
	movq	%rax, %r13	#, D.68107
	movq	-104(%rbp), %rax	# this, tmp109
	addq	$24, %rax	#, _3
	movq	%rax, %rdi	# _3,
	call	_ZNSt6vectorIlSaIlEE5beginEv	#
	movq	%rax, %r12	#, D.68108
	leaq	-96(%rbp), %rax	#, tmp110
	movq	%rax, %rdi	# tmp110,
	call	_ZNSt6vectorIlSaIlEE3endEv	#
	movq	%rax, %rbx	#, D.68109
	leaq	-96(%rbp), %rax	#, tmp111
	movq	%rax, %rdi	# tmp111,
	call	_ZNSt6vectorIlSaIlEE5beginEv	#
	movq	%r13, %rcx	# D.68107,
	movq	%r12, %rdx	# D.68108,
	movq	%rbx, %rsi	# D.68109,
	movq	%rax, %rdi	# D.68110,
.LEHB25:
	call	_ZSt5equalIN9__gnu_cxx17__normal_iteratorIPlSt6vectorIlSaIlEEEES6_EbT_S7_T0_S8_	#
.LEHE25:
	xorl	$1, %eax	#, retval.32_26
# src/Tensor/Tensor.hpp:161:                 if (!std::equal(rhs_dim_vector.begin(), rhs_dim_vector.end(),
	.loc 5 161 17
	testb	%al, %al	# retval.32_26
	je	.L117	#,
# src/Tensor/Tensor.hpp:163:                     throw std::runtime_error("Dimensions mismatch.");
	.loc 5 163 21
	movl	$16, %edi	#,
	call	__cxa_allocate_exception@PLT	#
	movq	%rax, %rbx	# tmp112, _38
	leaq	.LC4(%rip), %rax	#, tmp113
	movq	%rax, %rsi	# tmp113,
	movq	%rbx, %rdi	# _38,
.LEHB26:
	call	_ZNSt13runtime_errorC1EPKc@PLT	#
.LEHE26:
# src/Tensor/Tensor.hpp:163:                     throw std::runtime_error("Dimensions mismatch.");
	.loc 5 163 21 is_stmt 0 discriminator 2
	movq	_ZNSt13runtime_errorD1Ev@GOTPCREL(%rip), %rax	#, tmp115
	movq	%rax, %rdx	# tmp114,
	leaq	_ZTISt13runtime_error(%rip), %rax	#, tmp116
	movq	%rax, %rsi	# tmp116,
	movq	%rbx, %rdi	# _38,
.LEHB27:
	call	__cxa_throw@PLT	#
.L117:
# src/Tensor/Tensor.hpp:165:             this->_dims = std::move(rhs_dim_vector);
	.loc 5 165 36 is_stmt 1
	leaq	-96(%rbp), %rax	#, tmp117
	movq	%rax, %rdi	# tmp117,
	call	_ZSt4moveIRSt6vectorIlSaIlEEEONSt16remove_referenceIT_E4typeEOS5_	#
	movq	%rax, %rdx	#, _5
# src/Tensor/Tensor.hpp:165:             this->_dims = std::move(rhs_dim_vector);
	.loc 5 165 25
	movq	-104(%rbp), %rax	# this, tmp118
	addq	$24, %rax	#, _6
	movq	%rdx, %rsi	# _5,
	movq	%rax, %rdi	# _6,
	call	_ZNSt6vectorIlSaIlEEaSEOS1_	#
# src/Tensor/Tensor.hpp:166:             this->_data.resize(rhs_tensor.size());
	.loc 5 166 31
	movq	-104(%rbp), %rbx	# this, _7
# src/Tensor/Tensor.hpp:166:             this->_data.resize(rhs_tensor.size());
	.loc 5 166 47
	movq	-112(%rbp), %rax	# rhs_tensor, tmp119
	movq	%rax, %rdi	# tmp119,
	call	_ZNK9container6tensorIdJEE4sizeEv	#
# src/Tensor/Tensor.hpp:166:             this->_data.resize(rhs_tensor.size());
	.loc 5 166 31
	movq	%rax, %rsi	# _9,
	movq	%rbx, %rdi	# _7,
	call	_ZNSt6vectorIdSaIdEE6resizeEm	#
# src/Tensor/Tensor.hpp:167:             std::move(rhs_tensor.begin(), rhs_tensor.end(), this->_data.begin());
	.loc 5 167 22
	movq	-104(%rbp), %rax	# this, _10
	movq	%rax, %rdi	# _10,
	call	_ZNSt6vectorIdSaIdEE5beginEv	#
	movq	%rax, %r12	#, D.68113
	movq	-112(%rbp), %rax	# rhs_tensor, tmp120
	movq	%rax, %rdi	# tmp120,
	call	_ZNK9container6tensorIdJEE3endEv	#
	movq	%rax, %rbx	#, D.68114
	movq	-112(%rbp), %rax	# rhs_tensor, tmp121
	movq	%rax, %rdi	# tmp121,
	call	_ZNK9container6tensorIdJEE5beginEv	#
	movq	%r12, %rdx	# D.68113,
	movq	%rbx, %rsi	# D.68114,
	movq	%rax, %rdi	# D.68115,
	call	_ZSt4moveIN9__gnu_cxx17__normal_iteratorIPKdSt6vectorIdSaIdEEEENS1_IPdS6_EEET0_T_SB_SA_	#
.LEHE27:
# src/Tensor/Tensor.hpp:168:         }
	.loc 5 168 9
	leaq	-96(%rbp), %rax	#, tmp122
	movq	%rax, %rdi	# tmp122,
	call	_ZNSt6vectorIlSaIlEED1Ev	#
	jmp	.L122	#
.L121:
# src/Tensor/Tensor.hpp:163:                     throw std::runtime_error("Dimensions mismatch.");
	.loc 5 163 21
	movq	%rax, %r12	#, tmp124
	movq	%rbx, %rdi	# _38,
	call	__cxa_free_exception@PLT	#
	movq	%r12, %rbx	# tmp124, tmp123
	jmp	.L119	#
.L120:
# src/Tensor/Tensor.hpp:168:         }
	.loc 5 168 9
	movq	%rax, %rbx	#, tmp123
.L119:
	leaq	-96(%rbp), %rax	#, tmp127
	movq	%rax, %rdi	# tmp127,
	call	_ZNSt6vectorIlSaIlEED1Ev	#
	movq	%rbx, %rax	# tmp123, D.68642
	movq	%rax, %rdi	# D.68642,
.LEHB28:
	call	_Unwind_Resume@PLT	#
.LEHE28:
.L122:
	addq	$88, %rsp	#,
	popq	%rbx	#
	popq	%r12	#
	popq	%r13	#
	popq	%rbp	#
	.cfi_def_cfa 7, 8
	ret	
	.cfi_endproc
.LFE3023:
	.section	.gcc_except_table
.LLSDA3023:
	.byte	0xff
	.byte	0xff
	.byte	0x1
	.uleb128 .LLSDACSE3023-.LLSDACSB3023
.LLSDACSB3023:
	.uleb128 .LEHB25-.LFB3023
	.uleb128 .LEHE25-.LEHB25
	.uleb128 .L120-.LFB3023
	.uleb128 0
	.uleb128 .LEHB26-.LFB3023
	.uleb128 .LEHE26-.LEHB26
	.uleb128 .L121-.LFB3023
	.uleb128 0
	.uleb128 .LEHB27-.LFB3023
	.uleb128 .LEHE27-.LEHB27
	.uleb128 .L120-.LFB3023
	.uleb128 0
	.uleb128 .LEHB28-.LFB3023
	.uleb128 .LEHE28-.LEHB28
	.uleb128 0
	.uleb128 0
.LLSDACSE3023:
	.section	.text._ZN9container6tensorIdJLl2ELl3ELl5EEE26_diff_type_move_initializeIJEEEvONS0_IdJXspT_EEEE,"axG",@progbits,_ZN9container6tensorIdJLl2ELl3ELl5EEE26_diff_type_move_initializeIJEEEvONS0_IdJXspT_EEEE,comdat
	.size	_ZN9container6tensorIdJLl2ELl3ELl5EEE26_diff_type_move_initializeIJEEEvONS0_IdJXspT_EEEE, .-_ZN9container6tensorIdJLl2ELl3ELl5EEE26_diff_type_move_initializeIJEEEvONS0_IdJXspT_EEEE
	.section	.text._ZNKSt6vectorIlSaIlEEixEm,"axG",@progbits,_ZNKSt6vectorIlSaIlEEixEm,comdat
	.align 2
	.weak	_ZNKSt6vectorIlSaIlEEixEm
	.type	_ZNKSt6vectorIlSaIlEEixEm, @function
_ZNKSt6vectorIlSaIlEEixEm:
.LFB3032:
	.loc 7 1140 7
	.cfi_startproc
	pushq	%rbp	#
	.cfi_def_cfa_offset 16
	.cfi_offset 6, -16
	movq	%rsp, %rbp	#,
	.cfi_def_cfa_register 6
	movq	%rdi, -8(%rbp)	# this, this
	movq	%rsi, -16(%rbp)	# __n, __n
# /usr/include/c++/12/bits/stl_vector.h:1143: 	return *(this->_M_impl._M_start + __n);
	.loc 7 1143 25
	movq	-8(%rbp), %rax	# this, tmp86
	movq	(%rax), %rax	# this_4(D)->D.54811._M_impl.D.54123._M_start, _1
# /usr/include/c++/12/bits/stl_vector.h:1143: 	return *(this->_M_impl._M_start + __n);
	.loc 7 1143 34
	movq	-16(%rbp), %rdx	# __n, tmp87
	salq	$3, %rdx	#, _2
# /usr/include/c++/12/bits/stl_vector.h:1143: 	return *(this->_M_impl._M_start + __n);
	.loc 7 1143 39
	addq	%rdx, %rax	# _2, _6
# /usr/include/c++/12/bits/stl_vector.h:1144:       }
	.loc 7 1144 7
	popq	%rbp	#
	.cfi_def_cfa 7, 8
	ret	
	.cfi_endproc
.LFE3032:
	.size	_ZNKSt6vectorIlSaIlEEixEm, .-_ZNKSt6vectorIlSaIlEEixEm
	.section	.text._ZNSaIdEC2Ev,"axG",@progbits,_ZNSaIdEC5Ev,comdat
	.align 2
	.weak	_ZNSaIdEC2Ev
	.type	_ZNSaIdEC2Ev, @function
_ZNSaIdEC2Ev:
.LFB3102:
	.loc 9 156 7
	.cfi_startproc
	pushq	%rbp	#
	.cfi_def_cfa_offset 16
	.cfi_offset 6, -16
	movq	%rsp, %rbp	#,
	.cfi_def_cfa_register 6
	subq	$16, %rsp	#,
	movq	%rdi, -8(%rbp)	# this, this
.LBB29:
# /usr/include/c++/12/bits/allocator.h:156:       allocator() _GLIBCXX_NOTHROW { }
	.loc 9 156 36
	movq	-8(%rbp), %rax	# this, tmp82
	movq	%rax, %rdi	# tmp82,
	call	_ZNSt15__new_allocatorIdEC2Ev	#
.LBE29:
# /usr/include/c++/12/bits/allocator.h:156:       allocator() _GLIBCXX_NOTHROW { }
	.loc 9 156 38
	nop	
	leave	
	.cfi_def_cfa 7, 8
	ret	
	.cfi_endproc
.LFE3102:
	.size	_ZNSaIdEC2Ev, .-_ZNSaIdEC2Ev
	.weak	_ZNSaIdEC1Ev
	.set	_ZNSaIdEC1Ev,_ZNSaIdEC2Ev
	.section	.text._ZNSt12_Vector_baseIdSaIdEE17_Vector_impl_dataC2Ev,"axG",@progbits,_ZNSt12_Vector_baseIdSaIdEE17_Vector_impl_dataC5Ev,comdat
	.align 2
	.weak	_ZNSt12_Vector_baseIdSaIdEE17_Vector_impl_dataC2Ev
	.type	_ZNSt12_Vector_baseIdSaIdEE17_Vector_impl_dataC2Ev, @function
_ZNSt12_Vector_baseIdSaIdEE17_Vector_impl_dataC2Ev:
.LFB3105:
	.loc 7 99 2
	.cfi_startproc
	pushq	%rbp	#
	.cfi_def_cfa_offset 16
	.cfi_offset 6, -16
	movq	%rsp, %rbp	#,
	.cfi_def_cfa_register 6
	movq	%rdi, -8(%rbp)	# this, this
.LBB30:
# /usr/include/c++/12/bits/stl_vector.h:100: 	: _M_start(), _M_finish(), _M_end_of_storage()
	.loc 7 100 4
	movq	-8(%rbp), %rax	# this, tmp82
	movq	$0, (%rax)	#, this_2(D)->_M_start
# /usr/include/c++/12/bits/stl_vector.h:100: 	: _M_start(), _M_finish(), _M_end_of_storage()
	.loc 7 100 16
	movq	-8(%rbp), %rax	# this, tmp83
	movq	$0, 8(%rax)	#, this_2(D)->_M_finish
# /usr/include/c++/12/bits/stl_vector.h:100: 	: _M_start(), _M_finish(), _M_end_of_storage()
	.loc 7 100 29
	movq	-8(%rbp), %rax	# this, tmp84
	movq	$0, 16(%rax)	#, this_2(D)->_M_end_of_storage
.LBE30:
# /usr/include/c++/12/bits/stl_vector.h:101: 	{ }
	.loc 7 101 4
	nop	
	popq	%rbp	#
	.cfi_def_cfa 7, 8
	ret	
	.cfi_endproc
.LFE3105:
	.size	_ZNSt12_Vector_baseIdSaIdEE17_Vector_impl_dataC2Ev, .-_ZNSt12_Vector_baseIdSaIdEE17_Vector_impl_dataC2Ev
	.weak	_ZNSt12_Vector_baseIdSaIdEE17_Vector_impl_dataC1Ev
	.set	_ZNSt12_Vector_baseIdSaIdEE17_Vector_impl_dataC1Ev,_ZNSt12_Vector_baseIdSaIdEE17_Vector_impl_dataC2Ev
	.section	.text._ZNSt15__new_allocatorIdED2Ev,"axG",@progbits,_ZNSt15__new_allocatorIdED5Ev,comdat
	.align 2
	.weak	_ZNSt15__new_allocatorIdED2Ev
	.type	_ZNSt15__new_allocatorIdED2Ev, @function
_ZNSt15__new_allocatorIdED2Ev:
.LFB3108:
	.file 11 "/usr/include/c++/12/bits/new_allocator.h"
	.loc 11 90 7
	.cfi_startproc
	pushq	%rbp	#
	.cfi_def_cfa_offset 16
	.cfi_offset 6, -16
	movq	%rsp, %rbp	#,
	.cfi_def_cfa_register 6
	movq	%rdi, -8(%rbp)	# this, this
# /usr/include/c++/12/bits/new_allocator.h:90:       ~__new_allocator() _GLIBCXX_USE_NOEXCEPT { }
	.loc 11 90 50
	nop	
	popq	%rbp	#
	.cfi_def_cfa 7, 8
	ret	
	.cfi_endproc
.LFE3108:
	.size	_ZNSt15__new_allocatorIdED2Ev, .-_ZNSt15__new_allocatorIdED2Ev
	.weak	_ZNSt15__new_allocatorIdED1Ev
	.set	_ZNSt15__new_allocatorIdED1Ev,_ZNSt15__new_allocatorIdED2Ev
	.section	.text._ZNSt12_Vector_baseIdSaIdEE13_M_deallocateEPdm,"axG",@progbits,_ZNSt12_Vector_baseIdSaIdEE13_M_deallocateEPdm,comdat
	.align 2
	.weak	_ZNSt12_Vector_baseIdSaIdEE13_M_deallocateEPdm
	.type	_ZNSt12_Vector_baseIdSaIdEE13_M_deallocateEPdm, @function
_ZNSt12_Vector_baseIdSaIdEE13_M_deallocateEPdm:
.LFB3110:
	.loc 7 383 7
	.cfi_startproc
	pushq	%rbp	#
	.cfi_def_cfa_offset 16
	.cfi_offset 6, -16
	movq	%rsp, %rbp	#,
	.cfi_def_cfa_register 6
	subq	$32, %rsp	#,
	movq	%rdi, -8(%rbp)	# this, this
	movq	%rsi, -16(%rbp)	# __p, __p
	movq	%rdx, -24(%rbp)	# __n, __n
# /usr/include/c++/12/bits/stl_vector.h:386: 	if (__p)
	.loc 7 386 2
	cmpq	$0, -16(%rbp)	#, __p
	je	.L130	#,
# /usr/include/c++/12/bits/stl_vector.h:387: 	  _Tr::deallocate(_M_impl, __p, __n);
	.loc 7 387 20
	movq	-8(%rbp), %rax	# this, _1
# /usr/include/c++/12/bits/stl_vector.h:387: 	  _Tr::deallocate(_M_impl, __p, __n);
	.loc 7 387 19
	movq	-24(%rbp), %rdx	# __n, tmp83
	movq	-16(%rbp), %rcx	# __p, tmp84
	movq	%rcx, %rsi	# tmp84,
	movq	%rax, %rdi	# _1,
	call	_ZNSt16allocator_traitsISaIdEE10deallocateERS0_Pdm	#
.L130:
# /usr/include/c++/12/bits/stl_vector.h:388:       }
	.loc 7 388 7
	nop	
	leave	
	.cfi_def_cfa 7, 8
	ret	
	.cfi_endproc
.LFE3110:
	.size	_ZNSt12_Vector_baseIdSaIdEE13_M_deallocateEPdm, .-_ZNSt12_Vector_baseIdSaIdEE13_M_deallocateEPdm
	.section	.text._ZNSt15__new_allocatorIlEC2Ev,"axG",@progbits,_ZNSt15__new_allocatorIlEC5Ev,comdat
	.align 2
	.weak	_ZNSt15__new_allocatorIlEC2Ev
	.type	_ZNSt15__new_allocatorIlEC2Ev, @function
_ZNSt15__new_allocatorIlEC2Ev:
.LFB3112:
	.loc 11 80 7
	.cfi_startproc
	pushq	%rbp	#
	.cfi_def_cfa_offset 16
	.cfi_offset 6, -16
	movq	%rsp, %rbp	#,
	.cfi_def_cfa_register 6
	movq	%rdi, -8(%rbp)	# this, this
# /usr/include/c++/12/bits/new_allocator.h:80:       __new_allocator() _GLIBCXX_USE_NOEXCEPT { }
	.loc 11 80 49
	nop	
	popq	%rbp	#
	.cfi_def_cfa 7, 8
	ret	
	.cfi_endproc
.LFE3112:
	.size	_ZNSt15__new_allocatorIlEC2Ev, .-_ZNSt15__new_allocatorIlEC2Ev
	.weak	_ZNSt15__new_allocatorIlEC1Ev
	.set	_ZNSt15__new_allocatorIlEC1Ev,_ZNSt15__new_allocatorIlEC2Ev
	.section	.text._ZNSt15__new_allocatorIlED2Ev,"axG",@progbits,_ZNSt15__new_allocatorIlED5Ev,comdat
	.align 2
	.weak	_ZNSt15__new_allocatorIlED2Ev
	.type	_ZNSt15__new_allocatorIlED2Ev, @function
_ZNSt15__new_allocatorIlED2Ev:
.LFB3115:
	.loc 11 90 7
	.cfi_startproc
	pushq	%rbp	#
	.cfi_def_cfa_offset 16
	.cfi_offset 6, -16
	movq	%rsp, %rbp	#,
	.cfi_def_cfa_register 6
	movq	%rdi, -8(%rbp)	# this, this
# /usr/include/c++/12/bits/new_allocator.h:90:       ~__new_allocator() _GLIBCXX_USE_NOEXCEPT { }
	.loc 11 90 50
	nop	
	popq	%rbp	#
	.cfi_def_cfa 7, 8
	ret	
	.cfi_endproc
.LFE3115:
	.size	_ZNSt15__new_allocatorIlED2Ev, .-_ZNSt15__new_allocatorIlED2Ev
	.weak	_ZNSt15__new_allocatorIlED1Ev
	.set	_ZNSt15__new_allocatorIlED1Ev,_ZNSt15__new_allocatorIlED2Ev
	.section	.text._ZNSt12_Vector_baseIlSaIlEEC2ERKS0_,"axG",@progbits,_ZNSt12_Vector_baseIlSaIlEEC5ERKS0_,comdat
	.align 2
	.weak	_ZNSt12_Vector_baseIlSaIlEEC2ERKS0_
	.type	_ZNSt12_Vector_baseIlSaIlEEC2ERKS0_, @function
_ZNSt12_Vector_baseIlSaIlEEC2ERKS0_:
.LFB3118:
	.loc 7 318 7
	.cfi_startproc
	pushq	%rbp	#
	.cfi_def_cfa_offset 16
	.cfi_offset 6, -16
	movq	%rsp, %rbp	#,
	.cfi_def_cfa_register 6
	subq	$16, %rsp	#,
	movq	%rdi, -8(%rbp)	# this, this
	movq	%rsi, -16(%rbp)	# __a, __a
.LBB31:
# /usr/include/c++/12/bits/stl_vector.h:319:       : _M_impl(__a) { }
	.loc 7 319 9
	movq	-8(%rbp), %rax	# this, _1
	movq	-16(%rbp), %rdx	# __a, tmp84
	movq	%rdx, %rsi	# tmp84,
	movq	%rax, %rdi	# _1,
	call	_ZNSt12_Vector_baseIlSaIlEE12_Vector_implC1ERKS0_	#
.LBE31:
# /usr/include/c++/12/bits/stl_vector.h:319:       : _M_impl(__a) { }
	.loc 7 319 24
	nop	
	leave	
	.cfi_def_cfa 7, 8
	ret	
	.cfi_endproc
.LFE3118:
	.size	_ZNSt12_Vector_baseIlSaIlEEC2ERKS0_, .-_ZNSt12_Vector_baseIlSaIlEEC2ERKS0_
	.weak	_ZNSt12_Vector_baseIlSaIlEEC1ERKS0_
	.set	_ZNSt12_Vector_baseIlSaIlEEC1ERKS0_,_ZNSt12_Vector_baseIlSaIlEEC2ERKS0_
	.section	.text._ZNKSt16initializer_listIlE5beginEv,"axG",@progbits,_ZNKSt16initializer_listIlE5beginEv,comdat
	.align 2
	.weak	_ZNKSt16initializer_listIlE5beginEv
	.type	_ZNKSt16initializer_listIlE5beginEv, @function
_ZNKSt16initializer_listIlE5beginEv:
.LFB3120:
	.file 12 "/usr/include/c++/12/initializer_list"
	.loc 12 75 7
	.cfi_startproc
	pushq	%rbp	#
	.cfi_def_cfa_offset 16
	.cfi_offset 6, -16
	movq	%rsp, %rbp	#,
	.cfi_def_cfa_register 6
	movq	%rdi, -8(%rbp)	# this, this
# /usr/include/c++/12/initializer_list:75:       begin() const noexcept { return _M_array; }
	.loc 12 75 39
	movq	-8(%rbp), %rax	# this, tmp84
	movq	(%rax), %rax	# this_2(D)->_M_array, _3
# /usr/include/c++/12/initializer_list:75:       begin() const noexcept { return _M_array; }
	.loc 12 75 49
	popq	%rbp	#
	.cfi_def_cfa 7, 8
	ret	
	.cfi_endproc
.LFE3120:
	.size	_ZNKSt16initializer_listIlE5beginEv, .-_ZNKSt16initializer_listIlE5beginEv
	.section	.text._ZNKSt16initializer_listIlE3endEv,"axG",@progbits,_ZNKSt16initializer_listIlE3endEv,comdat
	.align 2
	.weak	_ZNKSt16initializer_listIlE3endEv
	.type	_ZNKSt16initializer_listIlE3endEv, @function
_ZNKSt16initializer_listIlE3endEv:
.LFB3121:
	.loc 12 79 7
	.cfi_startproc
	pushq	%rbp	#
	.cfi_def_cfa_offset 16
	.cfi_offset 6, -16
	movq	%rsp, %rbp	#,
	.cfi_def_cfa_register 6
	pushq	%rbx	#
	subq	$24, %rsp	#,
	.cfi_offset 3, -24
	movq	%rdi, -24(%rbp)	# this, this
# /usr/include/c++/12/initializer_list:79:       end() const noexcept { return begin() + size(); }
	.loc 12 79 42
	movq	-24(%rbp), %rax	# this, tmp87
	movq	%rax, %rdi	# tmp87,
	call	_ZNKSt16initializer_listIlE5beginEv	#
	movq	%rax, %rbx	#, _1
# /usr/include/c++/12/initializer_list:79:       end() const noexcept { return begin() + size(); }
	.loc 12 79 51
	movq	-24(%rbp), %rax	# this, tmp88
	movq	%rax, %rdi	# tmp88,
	call	_ZNKSt16initializer_listIlE4sizeEv	#
# /usr/include/c++/12/initializer_list:79:       end() const noexcept { return begin() + size(); }
	.loc 12 79 45
	salq	$3, %rax	#, _3
# /usr/include/c++/12/initializer_list:79:       end() const noexcept { return begin() + size(); }
	.loc 12 79 52
	addq	%rbx, %rax	# _1, _8
# /usr/include/c++/12/initializer_list:79:       end() const noexcept { return begin() + size(); }
	.loc 12 79 55
	movq	-8(%rbp), %rbx	#,
	leave	
	.cfi_def_cfa 7, 8
	ret	
	.cfi_endproc
.LFE3121:
	.size	_ZNKSt16initializer_listIlE3endEv, .-_ZNKSt16initializer_listIlE3endEv
	.section	.text._ZSt8distanceIPKlENSt15iterator_traitsIT_E15difference_typeES3_S3_,"axG",@progbits,_ZSt8distanceIPKlENSt15iterator_traitsIT_E15difference_typeES3_S3_,comdat
	.weak	_ZSt8distanceIPKlENSt15iterator_traitsIT_E15difference_typeES3_S3_
	.type	_ZSt8distanceIPKlENSt15iterator_traitsIT_E15difference_typeES3_S3_, @function
_ZSt8distanceIPKlENSt15iterator_traitsIT_E15difference_typeES3_S3_:
.LFB3123:
	.file 13 "/usr/include/c++/12/bits/stl_iterator_base_funcs.h"
	.loc 13 147 5
	.cfi_startproc
	pushq	%rbp	#
	.cfi_def_cfa_offset 16
	.cfi_offset 6, -16
	movq	%rsp, %rbp	#,
	.cfi_def_cfa_register 6
	subq	$16, %rsp	#,
	movq	%rdi, -8(%rbp)	# __first, __first
	movq	%rsi, -16(%rbp)	# __last, __last
# /usr/include/c++/12/bits/stl_iterator_base_funcs.h:151: 			     std::__iterator_category(__first));
	.loc 13 151 33
	leaq	-8(%rbp), %rax	#, tmp86
	movq	%rax, %rdi	# tmp86,
	call	_ZSt19__iterator_categoryIPKlENSt15iterator_traitsIT_E17iterator_categoryERKS3_	#
# /usr/include/c++/12/bits/stl_iterator_base_funcs.h:150:       return std::__distance(__first, __last,
	.loc 13 150 29
	movq	-8(%rbp), %rax	# __first, __first.1_1
	movq	-16(%rbp), %rdx	# __last, tmp87
	movq	%rdx, %rsi	# tmp87,
	movq	%rax, %rdi	# __first.1_1,
	call	_ZSt10__distanceIPKlENSt15iterator_traitsIT_E15difference_typeES3_S3_St26random_access_iterator_tag	#
# /usr/include/c++/12/bits/stl_iterator_base_funcs.h:152:     }
	.loc 13 152 5
	leave	
	.cfi_def_cfa 7, 8
	ret	
	.cfi_endproc
.LFE3123:
	.size	_ZSt8distanceIPKlENSt15iterator_traitsIT_E15difference_typeES3_S3_, .-_ZSt8distanceIPKlENSt15iterator_traitsIT_E15difference_typeES3_S3_
	.section	.text._ZNSt6vectorIlSaIlEE19_M_range_initializeIPKlEEvT_S5_St20forward_iterator_tag,"axG",@progbits,_ZNSt6vectorIlSaIlEE19_M_range_initializeIPKlEEvT_S5_St20forward_iterator_tag,comdat
	.align 2
	.weak	_ZNSt6vectorIlSaIlEE19_M_range_initializeIPKlEEvT_S5_St20forward_iterator_tag
	.type	_ZNSt6vectorIlSaIlEE19_M_range_initializeIPKlEEvT_S5_St20forward_iterator_tag, @function
_ZNSt6vectorIlSaIlEE19_M_range_initializeIPKlEEvT_S5_St20forward_iterator_tag:
.LFB3122:
	.loc 7 1682 2
	.cfi_startproc
	pushq	%rbp	#
	.cfi_def_cfa_offset 16
	.cfi_offset 6, -16
	movq	%rsp, %rbp	#,
	.cfi_def_cfa_register 6
	pushq	%rbx	#
	subq	$56, %rsp	#,
	.cfi_offset 3, -24
	movq	%rdi, -40(%rbp)	# this, this
	movq	%rsi, -48(%rbp)	# __first, __first
	movq	%rdx, -56(%rbp)	# __last, __last
# /usr/include/c++/12/bits/stl_vector.h:1685: 	  const size_type __n = std::distance(__first, __last);
	.loc 7 1685 39
	movq	-56(%rbp), %rdx	# __last, tmp95
	movq	-48(%rbp), %rax	# __first, tmp96
	movq	%rdx, %rsi	# tmp95,
	movq	%rax, %rdi	# tmp96,
	call	_ZSt8distanceIPKlENSt15iterator_traitsIT_E15difference_typeES3_S3_	#
# /usr/include/c++/12/bits/stl_vector.h:1685: 	  const size_type __n = std::distance(__first, __last);
	.loc 7 1685 20
	movq	%rax, -24(%rbp)	# _1, __n
# /usr/include/c++/12/bits/stl_vector.h:1687: 	    = this->_M_allocate(_S_check_init_len(__n, _M_get_Tp_allocator()));
	.loc 7 1687 25
	movq	-40(%rbp), %rbx	# this, _2
# /usr/include/c++/12/bits/stl_vector.h:1687: 	    = this->_M_allocate(_S_check_init_len(__n, _M_get_Tp_allocator()));
	.loc 7 1687 68
	movq	-40(%rbp), %rax	# this, _3
	movq	%rax, %rdi	# _3,
	call	_ZNSt12_Vector_baseIlSaIlEE19_M_get_Tp_allocatorEv	#
	movq	%rax, %rdx	#, _4
# /usr/include/c++/12/bits/stl_vector.h:1687: 	    = this->_M_allocate(_S_check_init_len(__n, _M_get_Tp_allocator()));
	.loc 7 1687 25
	movq	-24(%rbp), %rax	# __n, tmp97
	movq	%rdx, %rsi	# _4,
	movq	%rax, %rdi	# tmp97,
	call	_ZNSt6vectorIlSaIlEE17_S_check_init_lenEmRKS0_	#
	movq	%rax, %rsi	# _5,
	movq	%rbx, %rdi	# _2,
	call	_ZNSt12_Vector_baseIlSaIlEE11_M_allocateEm	#
# /usr/include/c++/12/bits/stl_vector.h:1687: 	    = this->_M_allocate(_S_check_init_len(__n, _M_get_Tp_allocator()));
	.loc 7 1687 6
	movq	-40(%rbp), %rdx	# this, tmp98
	movq	%rax, (%rdx)	# _6, this_20(D)->D.54811._M_impl.D.54123._M_start
# /usr/include/c++/12/bits/stl_vector.h:1688: 	  this->_M_impl._M_end_of_storage = this->_M_impl._M_start + __n;
	.loc 7 1688 52
	movq	-40(%rbp), %rax	# this, tmp99
	movq	(%rax), %rax	# this_20(D)->D.54811._M_impl.D.54123._M_start, _7
# /usr/include/c++/12/bits/stl_vector.h:1688: 	  this->_M_impl._M_end_of_storage = this->_M_impl._M_start + __n;
	.loc 7 1688 61
	movq	-24(%rbp), %rdx	# __n, tmp100
	salq	$3, %rdx	#, _8
	addq	%rax, %rdx	# _7, _9
# /usr/include/c++/12/bits/stl_vector.h:1688: 	  this->_M_impl._M_end_of_storage = this->_M_impl._M_start + __n;
	.loc 7 1688 36
	movq	-40(%rbp), %rax	# this, tmp101
	movq	%rdx, 16(%rax)	# _9, this_20(D)->D.54811._M_impl.D.54123._M_end_of_storage
# /usr/include/c++/12/bits/stl_vector.h:1692: 					_M_get_Tp_allocator());
	.loc 7 1692 25
	movq	-40(%rbp), %rax	# this, _10
	movq	%rax, %rdi	# _10,
	call	_ZNSt12_Vector_baseIlSaIlEE19_M_get_Tp_allocatorEv	#
	movq	%rax, %rcx	#, _11
# /usr/include/c++/12/bits/stl_vector.h:1690: 	    std::__uninitialized_copy_a(__first, __last,
	.loc 7 1690 33
	movq	-40(%rbp), %rax	# this, tmp102
	movq	(%rax), %rdx	# this_20(D)->D.54811._M_impl.D.54123._M_start, _12
	movq	-56(%rbp), %rsi	# __last, tmp103
	movq	-48(%rbp), %rax	# __first, tmp104
	movq	%rax, %rdi	# tmp104,
	call	_ZSt22__uninitialized_copy_aIPKlPllET0_T_S4_S3_RSaIT1_E	#
# /usr/include/c++/12/bits/stl_vector.h:1689: 	  this->_M_impl._M_finish =
	.loc 7 1689 28
	movq	-40(%rbp), %rdx	# this, tmp105
	movq	%rax, 8(%rdx)	# _13, this_20(D)->D.54811._M_impl.D.54123._M_finish
# /usr/include/c++/12/bits/stl_vector.h:1693: 	}
	.loc 7 1693 2
	nop	
	movq	-8(%rbp), %rbx	#,
	leave	
	.cfi_def_cfa 7, 8
	ret	
	.cfi_endproc
.LFE3122:
	.size	_ZNSt6vectorIlSaIlEE19_M_range_initializeIPKlEEvT_S5_St20forward_iterator_tag, .-_ZNSt6vectorIlSaIlEE19_M_range_initializeIPKlEEvT_S5_St20forward_iterator_tag
	.section	.text._ZNSt6vectorIlSaIlEE5beginEv,"axG",@progbits,_ZNSt6vectorIlSaIlEE5beginEv,comdat
	.align 2
	.weak	_ZNSt6vectorIlSaIlEE5beginEv
	.type	_ZNSt6vectorIlSaIlEE5beginEv, @function
_ZNSt6vectorIlSaIlEE5beginEv:
.LFB3124:
	.loc 7 868 7
	.cfi_startproc
	pushq	%rbp	#
	.cfi_def_cfa_offset 16
	.cfi_offset 6, -16
	movq	%rsp, %rbp	#,
	.cfi_def_cfa_register 6
	subq	$32, %rsp	#,
	movq	%rdi, -24(%rbp)	# this, this
# /usr/include/c++/12/bits/stl_vector.h:869:       { return iterator(this->_M_impl._M_start); }
	.loc 7 869 39
	movq	-24(%rbp), %rdx	# this, _1
# /usr/include/c++/12/bits/stl_vector.h:869:       { return iterator(this->_M_impl._M_start); }
	.loc 7 869 16
	leaq	-8(%rbp), %rax	#, tmp85
	movq	%rdx, %rsi	# _1,
	movq	%rax, %rdi	# tmp85,
	call	_ZN9__gnu_cxx17__normal_iteratorIPlSt6vectorIlSaIlEEEC1ERKS1_	#
# /usr/include/c++/12/bits/stl_vector.h:869:       { return iterator(this->_M_impl._M_start); }
	.loc 7 869 47
	movq	-8(%rbp), %rax	# D.64724, D.67820
# /usr/include/c++/12/bits/stl_vector.h:869:       { return iterator(this->_M_impl._M_start); }
	.loc 7 869 50
	leave	
	.cfi_def_cfa 7, 8
	ret	
	.cfi_endproc
.LFE3124:
	.size	_ZNSt6vectorIlSaIlEE5beginEv, .-_ZNSt6vectorIlSaIlEE5beginEv
	.section	.text._ZNSt6vectorIlSaIlEE3endEv,"axG",@progbits,_ZNSt6vectorIlSaIlEE3endEv,comdat
	.align 2
	.weak	_ZNSt6vectorIlSaIlEE3endEv
	.type	_ZNSt6vectorIlSaIlEE3endEv, @function
_ZNSt6vectorIlSaIlEE3endEv:
.LFB3125:
	.loc 7 888 7
	.cfi_startproc
	pushq	%rbp	#
	.cfi_def_cfa_offset 16
	.cfi_offset 6, -16
	movq	%rsp, %rbp	#,
	.cfi_def_cfa_register 6
	subq	$32, %rsp	#,
	movq	%rdi, -24(%rbp)	# this, this
# /usr/include/c++/12/bits/stl_vector.h:889:       { return iterator(this->_M_impl._M_finish); }
	.loc 7 889 39
	movq	-24(%rbp), %rax	# this, tmp85
	leaq	8(%rax), %rdx	#, _1
# /usr/include/c++/12/bits/stl_vector.h:889:       { return iterator(this->_M_impl._M_finish); }
	.loc 7 889 16
	leaq	-8(%rbp), %rax	#, tmp86
	movq	%rdx, %rsi	# _1,
	movq	%rax, %rdi	# tmp86,
	call	_ZN9__gnu_cxx17__normal_iteratorIPlSt6vectorIlSaIlEEEC1ERKS1_	#
# /usr/include/c++/12/bits/stl_vector.h:889:       { return iterator(this->_M_impl._M_finish); }
	.loc 7 889 48
	movq	-8(%rbp), %rax	# D.64726, D.67817
# /usr/include/c++/12/bits/stl_vector.h:889:       { return iterator(this->_M_impl._M_finish); }
	.loc 7 889 51
	leave	
	.cfi_def_cfa 7, 8
	ret	
	.cfi_endproc
.LFE3125:
	.size	_ZNSt6vectorIlSaIlEE3endEv, .-_ZNSt6vectorIlSaIlEE3endEv
	.section	.text._ZSt8for_eachIN9__gnu_cxx17__normal_iteratorIPlSt6vectorIlSaIlEEEEZN9container6tensorIdJLl2ELl3ELl5EEE11_initializeEvEUliE_ET0_T_SC_SB_,"axG",@progbits,_ZSt8for_eachIN9__gnu_cxx17__normal_iteratorIPlSt6vectorIlSaIlEEEEZN9container6tensorIdJLl2ELl3ELl5EEE11_initializeEvEUliE_ET0_T_SC_SB_,comdat
	.weak	_ZSt8for_eachIN9__gnu_cxx17__normal_iteratorIPlSt6vectorIlSaIlEEEEZN9container6tensorIdJLl2ELl3ELl5EEE11_initializeEvEUliE_ET0_T_SC_SB_
	.type	_ZSt8for_eachIN9__gnu_cxx17__normal_iteratorIPlSt6vectorIlSaIlEEEEZN9container6tensorIdJLl2ELl3ELl5EEE11_initializeEvEUliE_ET0_T_SC_SB_, @function
_ZSt8for_eachIN9__gnu_cxx17__normal_iteratorIPlSt6vectorIlSaIlEEEEZN9container6tensorIdJLl2ELl3ELl5EEE11_initializeEvEUliE_ET0_T_SC_SB_:
.LFB3126:
	.file 14 "/usr/include/c++/12/bits/stl_algo.h"
	.loc 14 3781 5
	.cfi_startproc
	pushq	%rbp	#
	.cfi_def_cfa_offset 16
	.cfi_offset 6, -16
	movq	%rsp, %rbp	#,
	.cfi_def_cfa_register 6
	subq	$32, %rsp	#,
	movq	%rdi, -8(%rbp)	# __first, __first
	movq	%rsi, -16(%rbp)	# __last, __last
	movq	%rdx, -24(%rbp)	# __f, __f
# /usr/include/c++/12/bits/stl_algo.h:3786:       for (; __first != __last; ++__first)
	.loc 14 3786 7
	jmp	.L146	#
.L147:
# /usr/include/c++/12/bits/stl_algo.h:3787: 	__f(*__first);
	.loc 14 3787 6 discriminator 2
	leaq	-8(%rbp), %rax	#, tmp88
	movq	%rax, %rdi	# tmp88,
	call	_ZNK9__gnu_cxx17__normal_iteratorIPlSt6vectorIlSaIlEEEdeEv	#
# /usr/include/c++/12/bits/stl_algo.h:3787: 	__f(*__first);
	.loc 14 3787 5 discriminator 2
	movq	(%rax), %rax	# *_1, _2
	movl	%eax, %edx	# _2, _3
	leaq	-24(%rbp), %rax	#, tmp89
	movl	%edx, %esi	# _3,
	movq	%rax, %rdi	# tmp89,
	call	_ZZN9container6tensorIdJLl2ELl3ELl5EEE11_initializeEvENKUliE_clEi	#
# /usr/include/c++/12/bits/stl_algo.h:3786:       for (; __first != __last; ++__first)
	.loc 14 3786 33 discriminator 2
	leaq	-8(%rbp), %rax	#, tmp90
	movq	%rax, %rdi	# tmp90,
	call	_ZN9__gnu_cxx17__normal_iteratorIPlSt6vectorIlSaIlEEEppEv	#
.L146:
# /usr/include/c++/12/bits/stl_algo.h:3786:       for (; __first != __last; ++__first)
	.loc 14 3786 22 discriminator 1
	leaq	-16(%rbp), %rdx	#, tmp91
	leaq	-8(%rbp), %rax	#, tmp92
	movq	%rdx, %rsi	# tmp91,
	movq	%rax, %rdi	# tmp92,
	call	_ZN9__gnu_cxxneIPlSt6vectorIlSaIlEEEEbRKNS_17__normal_iteratorIT_T0_EESA_	#
	testb	%al, %al	# retval.10_7
	jne	.L147	#,
# /usr/include/c++/12/bits/stl_algo.h:3788:       return __f; // N.B. [alg.foreach] says std::move(f) but it's redundant.
	.loc 14 3788 14
	movq	-24(%rbp), %rax	# __f, D.67824
# /usr/include/c++/12/bits/stl_algo.h:3789:     }
	.loc 14 3789 5
	leave	
	.cfi_def_cfa 7, 8
	ret	
	.cfi_endproc
.LFE3126:
	.size	_ZSt8for_eachIN9__gnu_cxx17__normal_iteratorIPlSt6vectorIlSaIlEEEEZN9container6tensorIdJLl2ELl3ELl5EEE11_initializeEvEUliE_ET0_T_SC_SB_, .-_ZSt8for_eachIN9__gnu_cxx17__normal_iteratorIPlSt6vectorIlSaIlEEEEZN9container6tensorIdJLl2ELl3ELl5EEE11_initializeEvEUliE_ET0_T_SC_SB_
	.section	.text._ZNSt6vectorIdSaIdEE6resizeEm,"axG",@progbits,_ZNSt6vectorIdSaIdEE6resizeEm,comdat
	.align 2
	.weak	_ZNSt6vectorIdSaIdEE6resizeEm
	.type	_ZNSt6vectorIdSaIdEE6resizeEm, @function
_ZNSt6vectorIdSaIdEE6resizeEm:
.LFB3127:
	.loc 7 1008 7
	.cfi_startproc
	pushq	%rbp	#
	.cfi_def_cfa_offset 16
	.cfi_offset 6, -16
	movq	%rsp, %rbp	#,
	.cfi_def_cfa_register 6
	subq	$16, %rsp	#,
	movq	%rdi, -8(%rbp)	# this, this
	movq	%rsi, -16(%rbp)	# __new_size, __new_size
# /usr/include/c++/12/bits/stl_vector.h:1010: 	if (__new_size > size())
	.loc 7 1010 23
	movq	-8(%rbp), %rax	# this, tmp91
	movq	%rax, %rdi	# tmp91,
	call	_ZNKSt6vectorIdSaIdEE4sizeEv	#
# /usr/include/c++/12/bits/stl_vector.h:1010: 	if (__new_size > size())
	.loc 7 1010 17
	cmpq	-16(%rbp), %rax	# __new_size, _1
	setb	%al	#, retval.11_13
# /usr/include/c++/12/bits/stl_vector.h:1010: 	if (__new_size > size())
	.loc 7 1010 2
	testb	%al, %al	# retval.11_13
	je	.L150	#,
# /usr/include/c++/12/bits/stl_vector.h:1011: 	  _M_default_append(__new_size - size());
	.loc 7 1011 39
	movq	-8(%rbp), %rax	# this, tmp92
	movq	%rax, %rdi	# tmp92,
	call	_ZNKSt6vectorIdSaIdEE4sizeEv	#
# /usr/include/c++/12/bits/stl_vector.h:1011: 	  _M_default_append(__new_size - size());
	.loc 7 1011 21
	movq	-16(%rbp), %rdx	# __new_size, tmp93
	subq	%rax, %rdx	# _2, _3
	movq	-8(%rbp), %rax	# this, tmp94
	movq	%rdx, %rsi	# _3,
	movq	%rax, %rdi	# tmp94,
	call	_ZNSt6vectorIdSaIdEE17_M_default_appendEm	#
# /usr/include/c++/12/bits/stl_vector.h:1014:       }
	.loc 7 1014 7
	jmp	.L152	#
.L150:
# /usr/include/c++/12/bits/stl_vector.h:1012: 	else if (__new_size < size())
	.loc 7 1012 28
	movq	-8(%rbp), %rax	# this, tmp95
	movq	%rax, %rdi	# tmp95,
	call	_ZNKSt6vectorIdSaIdEE4sizeEv	#
# /usr/include/c++/12/bits/stl_vector.h:1012: 	else if (__new_size < size())
	.loc 7 1012 22
	cmpq	%rax, -16(%rbp)	# _4, __new_size
	setb	%al	#, retval.12_15
# /usr/include/c++/12/bits/stl_vector.h:1012: 	else if (__new_size < size())
	.loc 7 1012 7
	testb	%al, %al	# retval.12_15
	je	.L152	#,
# /usr/include/c++/12/bits/stl_vector.h:1013: 	  _M_erase_at_end(this->_M_impl._M_start + __new_size);
	.loc 7 1013 34
	movq	-8(%rbp), %rax	# this, tmp96
	movq	(%rax), %rax	# this_10(D)->D.58674._M_impl.D.58013._M_start, _5
# /usr/include/c++/12/bits/stl_vector.h:1013: 	  _M_erase_at_end(this->_M_impl._M_start + __new_size);
	.loc 7 1013 43
	movq	-16(%rbp), %rdx	# __new_size, tmp97
	salq	$3, %rdx	#, _6
# /usr/include/c++/12/bits/stl_vector.h:1013: 	  _M_erase_at_end(this->_M_impl._M_start + __new_size);
	.loc 7 1013 19
	addq	%rax, %rdx	# _5, _7
	movq	-8(%rbp), %rax	# this, tmp98
	movq	%rdx, %rsi	# _7,
	movq	%rax, %rdi	# tmp98,
	call	_ZNSt6vectorIdSaIdEE15_M_erase_at_endEPd	#
.L152:
# /usr/include/c++/12/bits/stl_vector.h:1014:       }
	.loc 7 1014 7
	nop	
	leave	
	.cfi_def_cfa 7, 8
	ret	
	.cfi_endproc
.LFE3127:
	.size	_ZNSt6vectorIdSaIdEE6resizeEm, .-_ZNSt6vectorIdSaIdEE6resizeEm
	.section	.text._ZSt8_DestroyIPdEvT_S1_,"axG",@progbits,_ZSt8_DestroyIPdEvT_S1_,comdat
	.weak	_ZSt8_DestroyIPdEvT_S1_
	.type	_ZSt8_DestroyIPdEvT_S1_, @function
_ZSt8_DestroyIPdEvT_S1_:
.LFB3128:
	.file 15 "/usr/include/c++/12/bits/stl_construct.h"
	.loc 15 182 5
	.cfi_startproc
	pushq	%rbp	#
	.cfi_def_cfa_offset 16
	.cfi_offset 6, -16
	movq	%rsp, %rbp	#,
	.cfi_def_cfa_register 6
	subq	$16, %rsp	#,
	movq	%rdi, -8(%rbp)	# __first, __first
	movq	%rsi, -16(%rbp)	# __last, __last
# /usr/include/c++/12/bits/stl_construct.h:196: 	__destroy(__first, __last);
	.loc 15 196 11
	movq	-16(%rbp), %rdx	# __last, tmp82
	movq	-8(%rbp), %rax	# __first, tmp83
	movq	%rdx, %rsi	# tmp82,
	movq	%rax, %rdi	# tmp83,
	call	_ZNSt12_Destroy_auxILb1EE9__destroyIPdEEvT_S3_	#
# /usr/include/c++/12/bits/stl_construct.h:197:     }
	.loc 15 197 5
	nop	
	leave	
	.cfi_def_cfa 7, 8
	ret	
	.cfi_endproc
.LFE3128:
	.size	_ZSt8_DestroyIPdEvT_S1_, .-_ZSt8_DestroyIPdEvT_S1_
	.section	.text._ZNSt12_Vector_baseIlSaIlEE13_M_deallocateEPlm,"axG",@progbits,_ZNSt12_Vector_baseIlSaIlEE13_M_deallocateEPlm,comdat
	.align 2
	.weak	_ZNSt12_Vector_baseIlSaIlEE13_M_deallocateEPlm
	.type	_ZNSt12_Vector_baseIlSaIlEE13_M_deallocateEPlm, @function
_ZNSt12_Vector_baseIlSaIlEE13_M_deallocateEPlm:
.LFB3130:
	.loc 7 383 7
	.cfi_startproc
	pushq	%rbp	#
	.cfi_def_cfa_offset 16
	.cfi_offset 6, -16
	movq	%rsp, %rbp	#,
	.cfi_def_cfa_register 6
	subq	$32, %rsp	#,
	movq	%rdi, -8(%rbp)	# this, this
	movq	%rsi, -16(%rbp)	# __p, __p
	movq	%rdx, -24(%rbp)	# __n, __n
# /usr/include/c++/12/bits/stl_vector.h:386: 	if (__p)
	.loc 7 386 2
	cmpq	$0, -16(%rbp)	#, __p
	je	.L156	#,
# /usr/include/c++/12/bits/stl_vector.h:387: 	  _Tr::deallocate(_M_impl, __p, __n);
	.loc 7 387 20
	movq	-8(%rbp), %rax	# this, _1
# /usr/include/c++/12/bits/stl_vector.h:387: 	  _Tr::deallocate(_M_impl, __p, __n);
	.loc 7 387 19
	movq	-24(%rbp), %rdx	# __n, tmp83
	movq	-16(%rbp), %rcx	# __p, tmp84
	movq	%rcx, %rsi	# tmp84,
	movq	%rax, %rdi	# _1,
	call	_ZNSt16allocator_traitsISaIlEE10deallocateERS0_Plm	#
.L156:
# /usr/include/c++/12/bits/stl_vector.h:388:       }
	.loc 7 388 7
	nop	
	leave	
	.cfi_def_cfa 7, 8
	ret	
	.cfi_endproc
.LFE3130:
	.size	_ZNSt12_Vector_baseIlSaIlEE13_M_deallocateEPlm, .-_ZNSt12_Vector_baseIlSaIlEE13_M_deallocateEPlm
	.section	.text._ZSt8_DestroyIPlEvT_S1_,"axG",@progbits,_ZSt8_DestroyIPlEvT_S1_,comdat
	.weak	_ZSt8_DestroyIPlEvT_S1_
	.type	_ZSt8_DestroyIPlEvT_S1_, @function
_ZSt8_DestroyIPlEvT_S1_:
.LFB3131:
	.loc 15 182 5
	.cfi_startproc
	pushq	%rbp	#
	.cfi_def_cfa_offset 16
	.cfi_offset 6, -16
	movq	%rsp, %rbp	#,
	.cfi_def_cfa_register 6
	subq	$16, %rsp	#,
	movq	%rdi, -8(%rbp)	# __first, __first
	movq	%rsi, -16(%rbp)	# __last, __last
# /usr/include/c++/12/bits/stl_construct.h:196: 	__destroy(__first, __last);
	.loc 15 196 11
	movq	-16(%rbp), %rdx	# __last, tmp82
	movq	-8(%rbp), %rax	# __first, tmp83
	movq	%rdx, %rsi	# tmp82,
	movq	%rax, %rdi	# tmp83,
	call	_ZNSt12_Destroy_auxILb1EE9__destroyIPlEEvT_S3_	#
# /usr/include/c++/12/bits/stl_construct.h:197:     }
	.loc 15 197 5
	nop	
	leave	
	.cfi_def_cfa 7, 8
	ret	
	.cfi_endproc
.LFE3131:
	.size	_ZSt8_DestroyIPlEvT_S1_, .-_ZSt8_DestroyIPlEvT_S1_
	.section	.text._ZNKSt6vectorIdSaIdEE4sizeEv,"axG",@progbits,_ZNKSt6vectorIdSaIdEE4sizeEv,comdat
	.align 2
	.weak	_ZNKSt6vectorIdSaIdEE4sizeEv
	.type	_ZNKSt6vectorIdSaIdEE4sizeEv, @function
_ZNKSt6vectorIdSaIdEE4sizeEv:
.LFB3132:
	.loc 7 987 7
	.cfi_startproc
	pushq	%rbp	#
	.cfi_def_cfa_offset 16
	.cfi_offset 6, -16
	movq	%rsp, %rbp	#,
	.cfi_def_cfa_register 6
	movq	%rdi, -8(%rbp)	# this, this
# /usr/include/c++/12/bits/stl_vector.h:988:       { return size_type(this->_M_impl._M_finish - this->_M_impl._M_start); }
	.loc 7 988 40
	movq	-8(%rbp), %rax	# this, tmp88
	movq	8(%rax), %rdx	# this_6(D)->D.58674._M_impl.D.58013._M_finish, _1
# /usr/include/c++/12/bits/stl_vector.h:988:       { return size_type(this->_M_impl._M_finish - this->_M_impl._M_start); }
	.loc 7 988 66
	movq	-8(%rbp), %rax	# this, tmp89
	movq	(%rax), %rax	# this_6(D)->D.58674._M_impl.D.58013._M_start, _2
# /usr/include/c++/12/bits/stl_vector.h:988:       { return size_type(this->_M_impl._M_finish - this->_M_impl._M_start); }
	.loc 7 988 50
	subq	%rax, %rdx	# _2, _3
	movq	%rdx, %rax	# _3, _3
	sarq	$3, %rax	#, _3
# /usr/include/c++/12/bits/stl_vector.h:988:       { return size_type(this->_M_impl._M_finish - this->_M_impl._M_start); }
	.loc 7 988 77
	popq	%rbp	#
	.cfi_def_cfa 7, 8
	ret	
	.cfi_endproc
.LFE3132:
	.size	_ZNKSt6vectorIdSaIdEE4sizeEv, .-_ZNKSt6vectorIdSaIdEE4sizeEv
	.section	.text._ZNSt12_Vector_baseIlSaIlEE17_Vector_impl_dataC2Ev,"axG",@progbits,_ZNSt12_Vector_baseIlSaIlEE17_Vector_impl_dataC5Ev,comdat
	.align 2
	.weak	_ZNSt12_Vector_baseIlSaIlEE17_Vector_impl_dataC2Ev
	.type	_ZNSt12_Vector_baseIlSaIlEE17_Vector_impl_dataC2Ev, @function
_ZNSt12_Vector_baseIlSaIlEE17_Vector_impl_dataC2Ev:
.LFB3134:
	.loc 7 99 2
	.cfi_startproc
	pushq	%rbp	#
	.cfi_def_cfa_offset 16
	.cfi_offset 6, -16
	movq	%rsp, %rbp	#,
	.cfi_def_cfa_register 6
	movq	%rdi, -8(%rbp)	# this, this
.LBB32:
# /usr/include/c++/12/bits/stl_vector.h:100: 	: _M_start(), _M_finish(), _M_end_of_storage()
	.loc 7 100 4
	movq	-8(%rbp), %rax	# this, tmp82
	movq	$0, (%rax)	#, this_2(D)->_M_start
# /usr/include/c++/12/bits/stl_vector.h:100: 	: _M_start(), _M_finish(), _M_end_of_storage()
	.loc 7 100 16
	movq	-8(%rbp), %rax	# this, tmp83
	movq	$0, 8(%rax)	#, this_2(D)->_M_finish
# /usr/include/c++/12/bits/stl_vector.h:100: 	: _M_start(), _M_finish(), _M_end_of_storage()
	.loc 7 100 29
	movq	-8(%rbp), %rax	# this, tmp84
	movq	$0, 16(%rax)	#, this_2(D)->_M_end_of_storage
.LBE32:
# /usr/include/c++/12/bits/stl_vector.h:101: 	{ }
	.loc 7 101 4
	nop	
	popq	%rbp	#
	.cfi_def_cfa 7, 8
	ret	
	.cfi_endproc
.LFE3134:
	.size	_ZNSt12_Vector_baseIlSaIlEE17_Vector_impl_dataC2Ev, .-_ZNSt12_Vector_baseIlSaIlEE17_Vector_impl_dataC2Ev
	.weak	_ZNSt12_Vector_baseIlSaIlEE17_Vector_impl_dataC1Ev
	.set	_ZNSt12_Vector_baseIlSaIlEE17_Vector_impl_dataC1Ev,_ZNSt12_Vector_baseIlSaIlEE17_Vector_impl_dataC2Ev
	.section	.text._ZNK9container6tensorIdJLl2ELl3ELl5EEE5shapeEv,"axG",@progbits,_ZNK9container6tensorIdJLl2ELl3ELl5EEE5shapeEv,comdat
	.align 2
	.weak	_ZNK9container6tensorIdJLl2ELl3ELl5EEE5shapeEv
	.type	_ZNK9container6tensorIdJLl2ELl3ELl5EEE5shapeEv, @function
_ZNK9container6tensorIdJLl2ELl3ELl5EEE5shapeEv:
.LFB3136:
	.loc 5 84 32
	.cfi_startproc
	.cfi_personality 0x9b,DW.ref.__gxx_personality_v0
	.cfi_lsda 0x1b,.LLSDA3136
	pushq	%rbp	#
	.cfi_def_cfa_offset 16
	.cfi_offset 6, -16
	movq	%rsp, %rbp	#,
	.cfi_def_cfa_register 6
	subq	$16, %rsp	#,
	movq	%rdi, -8(%rbp)	# .result_ptr, .result_ptr
	movq	%rsi, -16(%rbp)	# this, this
# src/Tensor/Tensor.hpp:86:             return this->_dims;
	.loc 5 86 26
	movq	-16(%rbp), %rax	# this, tmp83
	leaq	24(%rax), %rdx	#, _1
	movq	-8(%rbp), %rax	# <retval>, tmp84
	movq	%rdx, %rsi	# _1,
	movq	%rax, %rdi	# tmp84,
	call	_ZNSt6vectorIlSaIlEEC1ERKS1_	#
# src/Tensor/Tensor.hpp:87:         }
	.loc 5 87 9
	movq	-8(%rbp), %rax	# <retval>,
	leave	
	.cfi_def_cfa 7, 8
	ret	
	.cfi_endproc
.LFE3136:
	.section	.gcc_except_table
.LLSDA3136:
	.byte	0xff
	.byte	0xff
	.byte	0x1
	.uleb128 .LLSDACSE3136-.LLSDACSB3136
.LLSDACSB3136:
.LLSDACSE3136:
	.section	.text._ZNK9container6tensorIdJLl2ELl3ELl5EEE5shapeEv,"axG",@progbits,_ZNK9container6tensorIdJLl2ELl3ELl5EEE5shapeEv,comdat
	.size	_ZNK9container6tensorIdJLl2ELl3ELl5EEE5shapeEv, .-_ZNK9container6tensorIdJLl2ELl3ELl5EEE5shapeEv
	.section	.text._ZSt4moveIRSt6vectorIlSaIlEEEONSt16remove_referenceIT_E4typeEOS5_,"axG",@progbits,_ZSt4moveIRSt6vectorIlSaIlEEEONSt16remove_referenceIT_E4typeEOS5_,comdat
	.weak	_ZSt4moveIRSt6vectorIlSaIlEEEONSt16remove_referenceIT_E4typeEOS5_
	.type	_ZSt4moveIRSt6vectorIlSaIlEEEONSt16remove_referenceIT_E4typeEOS5_, @function
_ZSt4moveIRSt6vectorIlSaIlEEEONSt16remove_referenceIT_E4typeEOS5_:
.LFB3137:
	.loc 8 104 5
	.cfi_startproc
	pushq	%rbp	#
	.cfi_def_cfa_offset 16
	.cfi_offset 6, -16
	movq	%rsp, %rbp	#,
	.cfi_def_cfa_register 6
	movq	%rdi, -8(%rbp)	# __t, __t
# /usr/include/c++/12/bits/move.h:105:     { return static_cast<typename std::remove_reference<_Tp>::type&&>(__t); }
	.loc 8 105 74
	movq	-8(%rbp), %rax	# __t, _2
# /usr/include/c++/12/bits/move.h:105:     { return static_cast<typename std::remove_reference<_Tp>::type&&>(__t); }
	.loc 8 105 77
	popq	%rbp	#
	.cfi_def_cfa 7, 8
	ret	
	.cfi_endproc
.LFE3137:
	.size	_ZSt4moveIRSt6vectorIlSaIlEEEONSt16remove_referenceIT_E4typeEOS5_, .-_ZSt4moveIRSt6vectorIlSaIlEEEONSt16remove_referenceIT_E4typeEOS5_
	.section	.text._ZNSt6vectorIlSaIlEEaSEOS1_,"axG",@progbits,_ZNSt6vectorIlSaIlEEaSEOS1_,comdat
	.align 2
	.weak	_ZNSt6vectorIlSaIlEEaSEOS1_
	.type	_ZNSt6vectorIlSaIlEEaSEOS1_, @function
_ZNSt6vectorIlSaIlEEaSEOS1_:
.LFB3138:
	.loc 7 761 7
	.cfi_startproc
	pushq	%rbp	#
	.cfi_def_cfa_offset 16
	.cfi_offset 6, -16
	movq	%rsp, %rbp	#,
	.cfi_def_cfa_register 6
	subq	$32, %rsp	#,
	movq	%rdi, -24(%rbp)	# this, this
	movq	%rsi, -32(%rbp)	# __x, __x
# /usr/include/c++/12/bits/stl_vector.h:763: 	constexpr bool __move_storage =
	.loc 7 763 17
	movb	$1, -1(%rbp)	#, __move_storage
# /usr/include/c++/12/bits/stl_vector.h:766: 	_M_move_assign(std::move(__x), __bool_constant<__move_storage>());
	.loc 7 766 26
	movq	-32(%rbp), %rax	# __x, tmp86
	movq	%rax, %rdi	# tmp86,
	call	_ZSt4moveIRSt6vectorIlSaIlEEEONSt16remove_referenceIT_E4typeEOS5_	#
	movq	%rax, %rdx	#, _1
# /usr/include/c++/12/bits/stl_vector.h:766: 	_M_move_assign(std::move(__x), __bool_constant<__move_storage>());
	.loc 7 766 16
	movq	-24(%rbp), %rax	# this, tmp87
	movq	%rdx, %rsi	# _1,
	movq	%rax, %rdi	# tmp87,
	call	_ZNSt6vectorIlSaIlEE14_M_move_assignEOS1_St17integral_constantIbLb1EE	#
# /usr/include/c++/12/bits/stl_vector.h:767: 	return *this;
	.loc 7 767 10
	movq	-24(%rbp), %rax	# this, _8
# /usr/include/c++/12/bits/stl_vector.h:768:       }
	.loc 7 768 7
	leave	
	.cfi_def_cfa 7, 8
	ret	
	.cfi_endproc
.LFE3138:
	.size	_ZNSt6vectorIlSaIlEEaSEOS1_, .-_ZNSt6vectorIlSaIlEEaSEOS1_
	.section	.text._ZNKSt6vectorIdSaIdEE5beginEv,"axG",@progbits,_ZNKSt6vectorIdSaIdEE5beginEv,comdat
	.align 2
	.weak	_ZNKSt6vectorIdSaIdEE5beginEv
	.type	_ZNKSt6vectorIdSaIdEE5beginEv, @function
_ZNKSt6vectorIdSaIdEE5beginEv:
.LFB3139:
	.loc 7 878 7
	.cfi_startproc
	pushq	%rbp	#
	.cfi_def_cfa_offset 16
	.cfi_offset 6, -16
	movq	%rsp, %rbp	#,
	.cfi_def_cfa_register 6
	subq	$32, %rsp	#,
	movq	%rdi, -24(%rbp)	# this, this
# /usr/include/c++/12/bits/stl_vector.h:879:       { return const_iterator(this->_M_impl._M_start); }
	.loc 7 879 45
	movq	-24(%rbp), %rdx	# this, _1
# /usr/include/c++/12/bits/stl_vector.h:879:       { return const_iterator(this->_M_impl._M_start); }
	.loc 7 879 16
	leaq	-8(%rbp), %rax	#, tmp85
	movq	%rdx, %rsi	# _1,
	movq	%rax, %rdi	# tmp85,
	call	_ZN9__gnu_cxx17__normal_iteratorIPKdSt6vectorIdSaIdEEEC1ERKS2_	#
# /usr/include/c++/12/bits/stl_vector.h:879:       { return const_iterator(this->_M_impl._M_start); }
	.loc 7 879 53
	movq	-8(%rbp), %rax	# D.65080, D.68063
# /usr/include/c++/12/bits/stl_vector.h:879:       { return const_iterator(this->_M_impl._M_start); }
	.loc 7 879 56
	leave	
	.cfi_def_cfa 7, 8
	ret	
	.cfi_endproc
.LFE3139:
	.size	_ZNKSt6vectorIdSaIdEE5beginEv, .-_ZNKSt6vectorIdSaIdEE5beginEv
	.section	.text._ZNKSt6vectorIdSaIdEE3endEv,"axG",@progbits,_ZNKSt6vectorIdSaIdEE3endEv,comdat
	.align 2
	.weak	_ZNKSt6vectorIdSaIdEE3endEv
	.type	_ZNKSt6vectorIdSaIdEE3endEv, @function
_ZNKSt6vectorIdSaIdEE3endEv:
.LFB3140:
	.loc 7 898 7
	.cfi_startproc
	pushq	%rbp	#
	.cfi_def_cfa_offset 16
	.cfi_offset 6, -16
	movq	%rsp, %rbp	#,
	.cfi_def_cfa_register 6
	subq	$32, %rsp	#,
	movq	%rdi, -24(%rbp)	# this, this
# /usr/include/c++/12/bits/stl_vector.h:899:       { return const_iterator(this->_M_impl._M_finish); }
	.loc 7 899 45
	movq	-24(%rbp), %rax	# this, tmp85
	leaq	8(%rax), %rdx	#, _1
# /usr/include/c++/12/bits/stl_vector.h:899:       { return const_iterator(this->_M_impl._M_finish); }
	.loc 7 899 16
	leaq	-8(%rbp), %rax	#, tmp86
	movq	%rdx, %rsi	# _1,
	movq	%rax, %rdi	# tmp86,
	call	_ZN9__gnu_cxx17__normal_iteratorIPKdSt6vectorIdSaIdEEEC1ERKS2_	#
# /usr/include/c++/12/bits/stl_vector.h:899:       { return const_iterator(this->_M_impl._M_finish); }
	.loc 7 899 54
	movq	-8(%rbp), %rax	# D.65082, D.68058
# /usr/include/c++/12/bits/stl_vector.h:899:       { return const_iterator(this->_M_impl._M_finish); }
	.loc 7 899 57
	leave	
	.cfi_def_cfa 7, 8
	ret	
	.cfi_endproc
.LFE3140:
	.size	_ZNKSt6vectorIdSaIdEE3endEv, .-_ZNKSt6vectorIdSaIdEE3endEv
	.section	.text._ZNSt6vectorIdSaIdEE5beginEv,"axG",@progbits,_ZNSt6vectorIdSaIdEE5beginEv,comdat
	.align 2
	.weak	_ZNSt6vectorIdSaIdEE5beginEv
	.type	_ZNSt6vectorIdSaIdEE5beginEv, @function
_ZNSt6vectorIdSaIdEE5beginEv:
.LFB3141:
	.loc 7 868 7
	.cfi_startproc
	pushq	%rbp	#
	.cfi_def_cfa_offset 16
	.cfi_offset 6, -16
	movq	%rsp, %rbp	#,
	.cfi_def_cfa_register 6
	subq	$32, %rsp	#,
	movq	%rdi, -24(%rbp)	# this, this
# /usr/include/c++/12/bits/stl_vector.h:869:       { return iterator(this->_M_impl._M_start); }
	.loc 7 869 39
	movq	-24(%rbp), %rdx	# this, _1
# /usr/include/c++/12/bits/stl_vector.h:869:       { return iterator(this->_M_impl._M_start); }
	.loc 7 869 16
	leaq	-8(%rbp), %rax	#, tmp85
	movq	%rdx, %rsi	# _1,
	movq	%rax, %rdi	# tmp85,
	call	_ZN9__gnu_cxx17__normal_iteratorIPdSt6vectorIdSaIdEEEC1ERKS1_	#
# /usr/include/c++/12/bits/stl_vector.h:869:       { return iterator(this->_M_impl._M_start); }
	.loc 7 869 47
	movq	-8(%rbp), %rax	# D.65102, D.68053
# /usr/include/c++/12/bits/stl_vector.h:869:       { return iterator(this->_M_impl._M_start); }
	.loc 7 869 50
	leave	
	.cfi_def_cfa 7, 8
	ret	
	.cfi_endproc
.LFE3141:
	.size	_ZNSt6vectorIdSaIdEE5beginEv, .-_ZNSt6vectorIdSaIdEE5beginEv
	.section	.text._ZSt4copyIN9__gnu_cxx17__normal_iteratorIPKdSt6vectorIdSaIdEEEENS1_IPdS6_EEET0_T_SB_SA_,"axG",@progbits,_ZSt4copyIN9__gnu_cxx17__normal_iteratorIPKdSt6vectorIdSaIdEEEENS1_IPdS6_EEET0_T_SB_SA_,comdat
	.weak	_ZSt4copyIN9__gnu_cxx17__normal_iteratorIPKdSt6vectorIdSaIdEEEENS1_IPdS6_EEET0_T_SB_SA_
	.type	_ZSt4copyIN9__gnu_cxx17__normal_iteratorIPKdSt6vectorIdSaIdEEEENS1_IPdS6_EEET0_T_SB_SA_, @function
_ZSt4copyIN9__gnu_cxx17__normal_iteratorIPKdSt6vectorIdSaIdEEEENS1_IPdS6_EEET0_T_SB_SA_:
.LFB3142:
	.loc 2 611 5
	.cfi_startproc
	pushq	%rbp	#
	.cfi_def_cfa_offset 16
	.cfi_offset 6, -16
	movq	%rsp, %rbp	#,
	.cfi_def_cfa_register 6
	pushq	%rbx	#
	subq	$40, %rsp	#,
	.cfi_offset 3, -24
	movq	%rdi, -24(%rbp)	# __first, __first
	movq	%rsi, -32(%rbp)	# __last, __last
	movq	%rdx, -40(%rbp)	# __result, __result
# /usr/include/c++/12/bits/stl_algobase.h:620: 	     (std::__miter_base(__first), std::__miter_base(__last), __result);
	.loc 2 620 7
	movq	-32(%rbp), %rax	# __last, tmp86
	movq	%rax, %rdi	# tmp86,
	call	_ZSt12__miter_baseIN9__gnu_cxx17__normal_iteratorIPKdSt6vectorIdSaIdEEEEET_S8_	#
	movq	%rax, %rbx	#, D.68067
	movq	-24(%rbp), %rax	# __first, tmp87
	movq	%rax, %rdi	# tmp87,
	call	_ZSt12__miter_baseIN9__gnu_cxx17__normal_iteratorIPKdSt6vectorIdSaIdEEEEET_S8_	#
	movq	%rax, %rcx	#, D.68068
	movq	-40(%rbp), %rax	# __result, tmp88
	movq	%rax, %rdx	# tmp88,
	movq	%rbx, %rsi	# D.68067,
	movq	%rcx, %rdi	# D.68068,
	call	_ZSt13__copy_move_aILb0EN9__gnu_cxx17__normal_iteratorIPKdSt6vectorIdSaIdEEEENS1_IPdS6_EEET1_T0_SB_SA_	#
# /usr/include/c++/12/bits/stl_algobase.h:621:     }
	.loc 2 621 5
	movq	-8(%rbp), %rbx	#,
	leave	
	.cfi_def_cfa 7, 8
	ret	
	.cfi_endproc
.LFE3142:
	.size	_ZSt4copyIN9__gnu_cxx17__normal_iteratorIPKdSt6vectorIdSaIdEEEENS1_IPdS6_EEET0_T_SB_SA_, .-_ZSt4copyIN9__gnu_cxx17__normal_iteratorIPKdSt6vectorIdSaIdEEEENS1_IPdS6_EEET0_T_SB_SA_
	.section	.text._ZNK9container6tensorIdJEE5shapeEv,"axG",@progbits,_ZNK9container6tensorIdJEE5shapeEv,comdat
	.align 2
	.weak	_ZNK9container6tensorIdJEE5shapeEv
	.type	_ZNK9container6tensorIdJEE5shapeEv, @function
_ZNK9container6tensorIdJEE5shapeEv:
.LFB3143:
	.loc 5 84 32
	.cfi_startproc
	.cfi_personality 0x9b,DW.ref.__gxx_personality_v0
	.cfi_lsda 0x1b,.LLSDA3143
	pushq	%rbp	#
	.cfi_def_cfa_offset 16
	.cfi_offset 6, -16
	movq	%rsp, %rbp	#,
	.cfi_def_cfa_register 6
	subq	$16, %rsp	#,
	movq	%rdi, -8(%rbp)	# .result_ptr, .result_ptr
	movq	%rsi, -16(%rbp)	# this, this
# src/Tensor/Tensor.hpp:86:             return this->_dims;
	.loc 5 86 26
	movq	-16(%rbp), %rax	# this, tmp83
	leaq	24(%rax), %rdx	#, _1
	movq	-8(%rbp), %rax	# <retval>, tmp84
	movq	%rdx, %rsi	# _1,
	movq	%rax, %rdi	# tmp84,
	call	_ZNSt6vectorIlSaIlEEC1ERKS1_	#
# src/Tensor/Tensor.hpp:87:         }
	.loc 5 87 9
	movq	-8(%rbp), %rax	# <retval>,
	leave	
	.cfi_def_cfa 7, 8
	ret	
	.cfi_endproc
.LFE3143:
	.section	.gcc_except_table
.LLSDA3143:
	.byte	0xff
	.byte	0xff
	.byte	0x1
	.uleb128 .LLSDACSE3143-.LLSDACSB3143
.LLSDACSB3143:
.LLSDACSE3143:
	.section	.text._ZNK9container6tensorIdJEE5shapeEv,"axG",@progbits,_ZNK9container6tensorIdJEE5shapeEv,comdat
	.size	_ZNK9container6tensorIdJEE5shapeEv, .-_ZNK9container6tensorIdJEE5shapeEv
	.section	.text._ZSt4moveISt6vectorIlSaIlEEEONSt16remove_referenceIT_E4typeEOS4_,"axG",@progbits,_ZSt4moveISt6vectorIlSaIlEEEONSt16remove_referenceIT_E4typeEOS4_,comdat
	.weak	_ZSt4moveISt6vectorIlSaIlEEEONSt16remove_referenceIT_E4typeEOS4_
	.type	_ZSt4moveISt6vectorIlSaIlEEEONSt16remove_referenceIT_E4typeEOS4_, @function
_ZSt4moveISt6vectorIlSaIlEEEONSt16remove_referenceIT_E4typeEOS4_:
.LFB3144:
	.loc 8 104 5
	.cfi_startproc
	pushq	%rbp	#
	.cfi_def_cfa_offset 16
	.cfi_offset 6, -16
	movq	%rsp, %rbp	#,
	.cfi_def_cfa_register 6
	movq	%rdi, -8(%rbp)	# __t, __t
# /usr/include/c++/12/bits/move.h:105:     { return static_cast<typename std::remove_reference<_Tp>::type&&>(__t); }
	.loc 8 105 74
	movq	-8(%rbp), %rax	# __t, _2
# /usr/include/c++/12/bits/move.h:105:     { return static_cast<typename std::remove_reference<_Tp>::type&&>(__t); }
	.loc 8 105 77
	popq	%rbp	#
	.cfi_def_cfa 7, 8
	ret	
	.cfi_endproc
.LFE3144:
	.size	_ZSt4moveISt6vectorIlSaIlEEEONSt16remove_referenceIT_E4typeEOS4_, .-_ZSt4moveISt6vectorIlSaIlEEEONSt16remove_referenceIT_E4typeEOS4_
	.section	.text._ZNSt12_Vector_baseIlSaIlEE12_Vector_implC2EOS2_,"axG",@progbits,_ZNSt12_Vector_baseIlSaIlEE12_Vector_implC5EOS2_,comdat
	.align 2
	.weak	_ZNSt12_Vector_baseIlSaIlEE12_Vector_implC2EOS2_
	.type	_ZNSt12_Vector_baseIlSaIlEE12_Vector_implC2EOS2_, @function
_ZNSt12_Vector_baseIlSaIlEE12_Vector_implC2EOS2_:
.LFB3146:
	.loc 7 151 2
	.cfi_startproc
	pushq	%rbp	#
	.cfi_def_cfa_offset 16
	.cfi_offset 6, -16
	movq	%rsp, %rbp	#,
	.cfi_def_cfa_register 6
	pushq	%rbx	#
	subq	$24, %rsp	#,
	.cfi_offset 3, -24
	movq	%rdi, -24(%rbp)	# this, this
	movq	%rsi, -32(%rbp)	# __x, __x
.LBB33:
# /usr/include/c++/12/bits/stl_vector.h:152: 	: _Tp_alloc_type(std::move(__x)), _Vector_impl_data(std::move(__x))
	.loc 7 152 28
	movq	-32(%rbp), %rax	# __x, tmp86
	movq	%rax, %rdi	# tmp86,
	call	_ZSt4moveIRNSt12_Vector_baseIlSaIlEE12_Vector_implEEONSt16remove_referenceIT_E4typeEOS6_	#
	movq	%rax, %rdx	#, _1
# /usr/include/c++/12/bits/stl_vector.h:152: 	: _Tp_alloc_type(std::move(__x)), _Vector_impl_data(std::move(__x))
	.loc 7 152 68
	movq	-24(%rbp), %rax	# this, tmp87
	movq	%rdx, %rsi	# _1,
	movq	%rax, %rdi	# tmp87,
	call	_ZNSaIlEC2ERKS_	#
	movq	-24(%rbp), %rbx	# this, _2
# /usr/include/c++/12/bits/stl_vector.h:152: 	: _Tp_alloc_type(std::move(__x)), _Vector_impl_data(std::move(__x))
	.loc 7 152 63
	movq	-32(%rbp), %rax	# __x, tmp88
	movq	%rax, %rdi	# tmp88,
	call	_ZSt4moveIRNSt12_Vector_baseIlSaIlEE12_Vector_implEEONSt16remove_referenceIT_E4typeEOS6_	#
# /usr/include/c++/12/bits/stl_vector.h:152: 	: _Tp_alloc_type(std::move(__x)), _Vector_impl_data(std::move(__x))
	.loc 7 152 68
	movq	%rax, %rsi	# _4,
	movq	%rbx, %rdi	# _2,
	call	_ZNSt12_Vector_baseIlSaIlEE17_Vector_impl_dataC2EOS2_	#
.LBE33:
# /usr/include/c++/12/bits/stl_vector.h:153: 	{ }
	.loc 7 153 4
	nop	
	movq	-8(%rbp), %rbx	#,
	leave	
	.cfi_def_cfa 7, 8
	ret	
	.cfi_endproc
.LFE3146:
	.size	_ZNSt12_Vector_baseIlSaIlEE12_Vector_implC2EOS2_, .-_ZNSt12_Vector_baseIlSaIlEE12_Vector_implC2EOS2_
	.weak	_ZNSt12_Vector_baseIlSaIlEE12_Vector_implC1EOS2_
	.set	_ZNSt12_Vector_baseIlSaIlEE12_Vector_implC1EOS2_,_ZNSt12_Vector_baseIlSaIlEE12_Vector_implC2EOS2_
	.section	.text._ZSt5equalIN9__gnu_cxx17__normal_iteratorIPlSt6vectorIlSaIlEEEES6_EbT_S7_T0_S8_,"axG",@progbits,_ZSt5equalIN9__gnu_cxx17__normal_iteratorIPlSt6vectorIlSaIlEEEES6_EbT_S7_T0_S8_,comdat
	.weak	_ZSt5equalIN9__gnu_cxx17__normal_iteratorIPlSt6vectorIlSaIlEEEES6_EbT_S7_T0_S8_
	.type	_ZSt5equalIN9__gnu_cxx17__normal_iteratorIPlSt6vectorIlSaIlEEEES6_EbT_S7_T0_S8_, @function
_ZSt5equalIN9__gnu_cxx17__normal_iteratorIPlSt6vectorIlSaIlEEEES6_EbT_S7_T0_S8_:
.LFB3148:
	.loc 2 1666 5
	.cfi_startproc
	pushq	%rbp	#
	.cfi_def_cfa_offset 16
	.cfi_offset 6, -16
	movq	%rsp, %rbp	#,
	.cfi_def_cfa_register 6
	subq	$32, %rsp	#,
	movq	%rdi, -8(%rbp)	# __first1, __first1
	movq	%rsi, -16(%rbp)	# __last1, __last1
	movq	%rdx, -24(%rbp)	# __first2, __first2
	movq	%rcx, -32(%rbp)	# __last2, __last2
# /usr/include/c++/12/bits/stl_algobase.h:1677:       return _GLIBCXX_STD_A::__equal4(__first1, __last1, __first2, __last2);
	.loc 2 1677 38
	movq	-32(%rbp), %rcx	# __last2, tmp84
	movq	-24(%rbp), %rdx	# __first2, tmp85
	movq	-16(%rbp), %rsi	# __last1, tmp86
	movq	-8(%rbp), %rax	# __first1, tmp87
	movq	%rax, %rdi	# tmp87,
	call	_ZSt8__equal4IN9__gnu_cxx17__normal_iteratorIPlSt6vectorIlSaIlEEEES6_EbT_S7_T0_S8_	#
# /usr/include/c++/12/bits/stl_algobase.h:1678:     }
	.loc 2 1678 5
	leave	
	.cfi_def_cfa 7, 8
	ret	
	.cfi_endproc
.LFE3148:
	.size	_ZSt5equalIN9__gnu_cxx17__normal_iteratorIPlSt6vectorIlSaIlEEEES6_EbT_S7_T0_S8_, .-_ZSt5equalIN9__gnu_cxx17__normal_iteratorIPlSt6vectorIlSaIlEEEES6_EbT_S7_T0_S8_
	.section	.text._ZNK9container6tensorIdJEE4sizeEv,"axG",@progbits,_ZNK9container6tensorIdJEE4sizeEv,comdat
	.align 2
	.weak	_ZNK9container6tensorIdJEE4sizeEv
	.type	_ZNK9container6tensorIdJEE4sizeEv, @function
_ZNK9container6tensorIdJEE4sizeEv:
.LFB3149:
	.loc 5 79 19
	.cfi_startproc
	pushq	%rbp	#
	.cfi_def_cfa_offset 16
	.cfi_offset 6, -16
	movq	%rsp, %rbp	#,
	.cfi_def_cfa_register 6
	subq	$16, %rsp	#,
	movq	%rdi, -8(%rbp)	# this, this
# src/Tensor/Tensor.hpp:81:             return this->_data.size();
	.loc 5 81 36
	movq	-8(%rbp), %rax	# this, _1
	movq	%rax, %rdi	# _1,
	call	_ZNKSt6vectorIdSaIdEE4sizeEv	#
# src/Tensor/Tensor.hpp:82:         }
	.loc 5 82 9
	leave	
	.cfi_def_cfa 7, 8
	ret	
	.cfi_endproc
.LFE3149:
	.size	_ZNK9container6tensorIdJEE4sizeEv, .-_ZNK9container6tensorIdJEE4sizeEv
	.section	.text._ZSt4moveIN9__gnu_cxx17__normal_iteratorIPKdSt6vectorIdSaIdEEEENS1_IPdS6_EEET0_T_SB_SA_,"axG",@progbits,_ZSt4moveIN9__gnu_cxx17__normal_iteratorIPKdSt6vectorIdSaIdEEEENS1_IPdS6_EEET0_T_SB_SA_,comdat
	.weak	_ZSt4moveIN9__gnu_cxx17__normal_iteratorIPKdSt6vectorIdSaIdEEEENS1_IPdS6_EEET0_T_SB_SA_
	.type	_ZSt4moveIN9__gnu_cxx17__normal_iteratorIPKdSt6vectorIdSaIdEEEENS1_IPdS6_EEET0_T_SB_SA_, @function
_ZSt4moveIN9__gnu_cxx17__normal_iteratorIPKdSt6vectorIdSaIdEEEENS1_IPdS6_EEET0_T_SB_SA_:
.LFB3150:
	.loc 2 644 5
	.cfi_startproc
	pushq	%rbp	#
	.cfi_def_cfa_offset 16
	.cfi_offset 6, -16
	movq	%rsp, %rbp	#,
	.cfi_def_cfa_register 6
	pushq	%rbx	#
	subq	$40, %rsp	#,
	.cfi_offset 3, -24
	movq	%rdi, -24(%rbp)	# __first, __first
	movq	%rsi, -32(%rbp)	# __last, __last
	movq	%rdx, -40(%rbp)	# __result, __result
# /usr/include/c++/12/bits/stl_algobase.h:652:       return std::__copy_move_a<true>(std::__miter_base(__first),
	.loc 2 652 38
	movq	-32(%rbp), %rax	# __last, tmp86
	movq	%rax, %rdi	# tmp86,
	call	_ZSt12__miter_baseIN9__gnu_cxx17__normal_iteratorIPKdSt6vectorIdSaIdEEEEET_S8_	#
	movq	%rax, %rbx	#, D.68190
	movq	-24(%rbp), %rax	# __first, tmp87
	movq	%rax, %rdi	# tmp87,
	call	_ZSt12__miter_baseIN9__gnu_cxx17__normal_iteratorIPKdSt6vectorIdSaIdEEEEET_S8_	#
	movq	%rax, %rcx	#, D.68191
	movq	-40(%rbp), %rax	# __result, tmp88
	movq	%rax, %rdx	# tmp88,
	movq	%rbx, %rsi	# D.68190,
	movq	%rcx, %rdi	# D.68191,
	call	_ZSt13__copy_move_aILb1EN9__gnu_cxx17__normal_iteratorIPKdSt6vectorIdSaIdEEEENS1_IPdS6_EEET1_T0_SB_SA_	#
# /usr/include/c++/12/bits/stl_algobase.h:654:     }
	.loc 2 654 5
	movq	-8(%rbp), %rbx	#,
	leave	
	.cfi_def_cfa 7, 8
	ret	
	.cfi_endproc
.LFE3150:
	.size	_ZSt4moveIN9__gnu_cxx17__normal_iteratorIPKdSt6vectorIdSaIdEEEENS1_IPdS6_EEET0_T_SB_SA_, .-_ZSt4moveIN9__gnu_cxx17__normal_iteratorIPKdSt6vectorIdSaIdEEEENS1_IPdS6_EEET0_T_SB_SA_
	.section	.text._ZNSt15__new_allocatorIdEC2Ev,"axG",@progbits,_ZNSt15__new_allocatorIdEC5Ev,comdat
	.align 2
	.weak	_ZNSt15__new_allocatorIdEC2Ev
	.type	_ZNSt15__new_allocatorIdEC2Ev, @function
_ZNSt15__new_allocatorIdEC2Ev:
.LFB3206:
	.loc 11 80 7
	.cfi_startproc
	pushq	%rbp	#
	.cfi_def_cfa_offset 16
	.cfi_offset 6, -16
	movq	%rsp, %rbp	#,
	.cfi_def_cfa_register 6
	movq	%rdi, -8(%rbp)	# this, this
# /usr/include/c++/12/bits/new_allocator.h:80:       __new_allocator() _GLIBCXX_USE_NOEXCEPT { }
	.loc 11 80 49
	nop	
	popq	%rbp	#
	.cfi_def_cfa 7, 8
	ret	
	.cfi_endproc
.LFE3206:
	.size	_ZNSt15__new_allocatorIdEC2Ev, .-_ZNSt15__new_allocatorIdEC2Ev
	.weak	_ZNSt15__new_allocatorIdEC1Ev
	.set	_ZNSt15__new_allocatorIdEC1Ev,_ZNSt15__new_allocatorIdEC2Ev
	.section	.text._ZNSt16allocator_traitsISaIdEE10deallocateERS0_Pdm,"axG",@progbits,_ZNSt16allocator_traitsISaIdEE10deallocateERS0_Pdm,comdat
	.weak	_ZNSt16allocator_traitsISaIdEE10deallocateERS0_Pdm
	.type	_ZNSt16allocator_traitsISaIdEE10deallocateERS0_Pdm, @function
_ZNSt16allocator_traitsISaIdEE10deallocateERS0_Pdm:
.LFB3208:
	.loc 10 495 7
	.cfi_startproc
	pushq	%rbp	#
	.cfi_def_cfa_offset 16
	.cfi_offset 6, -16
	movq	%rsp, %rbp	#,
	.cfi_def_cfa_register 6
	subq	$32, %rsp	#,
	movq	%rdi, -8(%rbp)	# __a, __a
	movq	%rsi, -16(%rbp)	# __p, __p
	movq	%rdx, -24(%rbp)	# __n, __n
# /usr/include/c++/12/bits/alloc_traits.h:496:       { __a.deallocate(__p, __n); }
	.loc 10 496 23
	movq	-24(%rbp), %rdx	# __n, tmp82
	movq	-16(%rbp), %rcx	# __p, tmp83
	movq	-8(%rbp), %rax	# __a, tmp84
	movq	%rcx, %rsi	# tmp83,
	movq	%rax, %rdi	# tmp84,
	call	_ZNSt15__new_allocatorIdE10deallocateEPdm	#
# /usr/include/c++/12/bits/alloc_traits.h:496:       { __a.deallocate(__p, __n); }
	.loc 10 496 35
	nop	
	leave	
	.cfi_def_cfa 7, 8
	ret	
	.cfi_endproc
.LFE3208:
	.size	_ZNSt16allocator_traitsISaIdEE10deallocateERS0_Pdm, .-_ZNSt16allocator_traitsISaIdEE10deallocateERS0_Pdm
	.section	.text._ZNSt12_Vector_baseIlSaIlEE12_Vector_implC2ERKS0_,"axG",@progbits,_ZNSt12_Vector_baseIlSaIlEE12_Vector_implC5ERKS0_,comdat
	.align 2
	.weak	_ZNSt12_Vector_baseIlSaIlEE12_Vector_implC2ERKS0_
	.type	_ZNSt12_Vector_baseIlSaIlEE12_Vector_implC2ERKS0_, @function
_ZNSt12_Vector_baseIlSaIlEE12_Vector_implC2ERKS0_:
.LFB3210:
	.loc 7 143 2
	.cfi_startproc
	pushq	%rbp	#
	.cfi_def_cfa_offset 16
	.cfi_offset 6, -16
	movq	%rsp, %rbp	#,
	.cfi_def_cfa_register 6
	subq	$16, %rsp	#,
	movq	%rdi, -8(%rbp)	# this, this
	movq	%rsi, -16(%rbp)	# __a, __a
.LBB34:
# /usr/include/c++/12/bits/stl_vector.h:144: 	: _Tp_alloc_type(__a)
	.loc 7 144 22
	movq	-16(%rbp), %rdx	# __a, tmp83
	movq	-8(%rbp), %rax	# this, tmp84
	movq	%rdx, %rsi	# tmp83,
	movq	%rax, %rdi	# tmp84,
	call	_ZNSaIlEC2ERKS_	#
	movq	-8(%rbp), %rax	# this, _1
	movq	%rax, %rdi	# _1,
	call	_ZNSt12_Vector_baseIlSaIlEE17_Vector_impl_dataC2Ev	#
.LBE34:
# /usr/include/c++/12/bits/stl_vector.h:145: 	{ }
	.loc 7 145 4
	nop	
	leave	
	.cfi_def_cfa 7, 8
	ret	
	.cfi_endproc
.LFE3210:
	.size	_ZNSt12_Vector_baseIlSaIlEE12_Vector_implC2ERKS0_, .-_ZNSt12_Vector_baseIlSaIlEE12_Vector_implC2ERKS0_
	.weak	_ZNSt12_Vector_baseIlSaIlEE12_Vector_implC1ERKS0_
	.set	_ZNSt12_Vector_baseIlSaIlEE12_Vector_implC1ERKS0_,_ZNSt12_Vector_baseIlSaIlEE12_Vector_implC2ERKS0_
	.section	.text._ZNKSt16initializer_listIlE4sizeEv,"axG",@progbits,_ZNKSt16initializer_listIlE4sizeEv,comdat
	.align 2
	.weak	_ZNKSt16initializer_listIlE4sizeEv
	.type	_ZNKSt16initializer_listIlE4sizeEv, @function
_ZNKSt16initializer_listIlE4sizeEv:
.LFB3212:
	.loc 12 71 7
	.cfi_startproc
	pushq	%rbp	#
	.cfi_def_cfa_offset 16
	.cfi_offset 6, -16
	movq	%rsp, %rbp	#,
	.cfi_def_cfa_register 6
	movq	%rdi, -8(%rbp)	# this, this
# /usr/include/c++/12/initializer_list:71:       size() const noexcept { return _M_len; }
	.loc 12 71 38
	movq	-8(%rbp), %rax	# this, tmp84
	movq	8(%rax), %rax	# this_2(D)->_M_len, _3
# /usr/include/c++/12/initializer_list:71:       size() const noexcept { return _M_len; }
	.loc 12 71 46
	popq	%rbp	#
	.cfi_def_cfa 7, 8
	ret	
	.cfi_endproc
.LFE3212:
	.size	_ZNKSt16initializer_listIlE4sizeEv, .-_ZNKSt16initializer_listIlE4sizeEv
	.section	.text._ZSt19__iterator_categoryIPKlENSt15iterator_traitsIT_E17iterator_categoryERKS3_,"axG",@progbits,_ZSt19__iterator_categoryIPKlENSt15iterator_traitsIT_E17iterator_categoryERKS3_,comdat
	.weak	_ZSt19__iterator_categoryIPKlENSt15iterator_traitsIT_E17iterator_categoryERKS3_
	.type	_ZSt19__iterator_categoryIPKlENSt15iterator_traitsIT_E17iterator_categoryERKS3_, @function
_ZSt19__iterator_categoryIPKlENSt15iterator_traitsIT_E17iterator_categoryERKS3_:
.LFB3213:
	.file 16 "/usr/include/c++/12/bits/stl_iterator_base_types.h"
	.loc 16 238 5
	.cfi_startproc
	pushq	%rbp	#
	.cfi_def_cfa_offset 16
	.cfi_offset 6, -16
	movq	%rsp, %rbp	#,
	.cfi_def_cfa_register 6
	movq	%rdi, -8(%rbp)	# D.65732, D.65732
# /usr/include/c++/12/bits/stl_iterator_base_types.h:239:     { return typename iterator_traits<_Iter>::iterator_category(); }
	.loc 16 239 65
	nop	
# /usr/include/c++/12/bits/stl_iterator_base_types.h:239:     { return typename iterator_traits<_Iter>::iterator_category(); }
	.loc 16 239 68
	popq	%rbp	#
	.cfi_def_cfa 7, 8
	ret	
	.cfi_endproc
.LFE3213:
	.size	_ZSt19__iterator_categoryIPKlENSt15iterator_traitsIT_E17iterator_categoryERKS3_, .-_ZSt19__iterator_categoryIPKlENSt15iterator_traitsIT_E17iterator_categoryERKS3_
	.section	.text._ZSt10__distanceIPKlENSt15iterator_traitsIT_E15difference_typeES3_S3_St26random_access_iterator_tag,"axG",@progbits,_ZSt10__distanceIPKlENSt15iterator_traitsIT_E15difference_typeES3_S3_St26random_access_iterator_tag,comdat
	.weak	_ZSt10__distanceIPKlENSt15iterator_traitsIT_E15difference_typeES3_S3_St26random_access_iterator_tag
	.type	_ZSt10__distanceIPKlENSt15iterator_traitsIT_E15difference_typeES3_S3_St26random_access_iterator_tag, @function
_ZSt10__distanceIPKlENSt15iterator_traitsIT_E15difference_typeES3_S3_St26random_access_iterator_tag:
.LFB3214:
	.loc 13 99 5
	.cfi_startproc
	pushq	%rbp	#
	.cfi_def_cfa_offset 16
	.cfi_offset 6, -16
	movq	%rsp, %rbp	#,
	.cfi_def_cfa_register 6
	movq	%rdi, -8(%rbp)	# __first, __first
	movq	%rsi, -16(%rbp)	# __last, __last
# /usr/include/c++/12/bits/stl_iterator_base_funcs.h:105:       return __last - __first;
	.loc 13 105 21
	movq	-16(%rbp), %rax	# __last, tmp85
	subq	-8(%rbp), %rax	# __first, _1
# /usr/include/c++/12/bits/stl_iterator_base_funcs.h:105:       return __last - __first;
	.loc 13 105 23
	sarq	$3, %rax	#, tmp86
# /usr/include/c++/12/bits/stl_iterator_base_funcs.h:106:     }
	.loc 13 106 5
	popq	%rbp	#
	.cfi_def_cfa 7, 8
	ret	
	.cfi_endproc
.LFE3214:
	.size	_ZSt10__distanceIPKlENSt15iterator_traitsIT_E15difference_typeES3_S3_St26random_access_iterator_tag, .-_ZSt10__distanceIPKlENSt15iterator_traitsIT_E15difference_typeES3_S3_St26random_access_iterator_tag
	.section	.rodata
	.align 8
.LC5:
	.string	"cannot create std::vector larger than max_size()"
	.section	.text._ZNSt6vectorIlSaIlEE17_S_check_init_lenEmRKS0_,"axG",@progbits,_ZNSt6vectorIlSaIlEE17_S_check_init_lenEmRKS0_,comdat
	.weak	_ZNSt6vectorIlSaIlEE17_S_check_init_lenEmRKS0_
	.type	_ZNSt6vectorIlSaIlEE17_S_check_init_lenEmRKS0_, @function
_ZNSt6vectorIlSaIlEE17_S_check_init_lenEmRKS0_:
.LFB3215:
	.loc 7 1902 7
	.cfi_startproc
	pushq	%rbp	#
	.cfi_def_cfa_offset 16
	.cfi_offset 6, -16
	movq	%rsp, %rbp	#,
	.cfi_def_cfa_register 6
	pushq	%rbx	#
	subq	$40, %rsp	#,
	.cfi_offset 3, -24
	movq	%rdi, -40(%rbp)	# __n, __n
	movq	%rsi, -48(%rbp)	# __a, __a
# /usr/include/c++/12/bits/stl_vector.h:1904: 	if (__n > _S_max_size(_Tp_alloc_type(__a)))
	.loc 7 1904 24
	movq	-48(%rbp), %rdx	# __a, tmp86
	leaq	-17(%rbp), %rax	#, tmp87
	movq	%rdx, %rsi	# tmp86,
	movq	%rax, %rdi	# tmp87,
	call	_ZNSaIlEC1ERKS_	#
# /usr/include/c++/12/bits/stl_vector.h:1904: 	if (__n > _S_max_size(_Tp_alloc_type(__a)))
	.loc 7 1904 23
	leaq	-17(%rbp), %rax	#, tmp88
	movq	%rax, %rdi	# tmp88,
	call	_ZNSt6vectorIlSaIlEE11_S_max_sizeERKS0_	#
# /usr/include/c++/12/bits/stl_vector.h:1904: 	if (__n > _S_max_size(_Tp_alloc_type(__a)))
	.loc 7 1904 10
	cmpq	-40(%rbp), %rax	# __n, _1
	setb	%bl	#, retval.2_7
# /usr/include/c++/12/bits/stl_vector.h:1904: 	if (__n > _S_max_size(_Tp_alloc_type(__a)))
	.loc 7 1904 24
	leaq	-17(%rbp), %rax	#, tmp89
	movq	%rax, %rdi	# tmp89,
	call	_ZNSaIlED1Ev	#
# /usr/include/c++/12/bits/stl_vector.h:1904: 	if (__n > _S_max_size(_Tp_alloc_type(__a)))
	.loc 7 1904 2
	testb	%bl, %bl	# retval.2_7
	je	.L196	#,
# /usr/include/c++/12/bits/stl_vector.h:1905: 	  __throw_length_error(
	.loc 7 1905 24
	leaq	.LC5(%rip), %rax	#, tmp90
	movq	%rax, %rdi	# tmp90,
	call	_ZSt20__throw_length_errorPKc@PLT	#
.L196:
# /usr/include/c++/12/bits/stl_vector.h:1907: 	return __n;
	.loc 7 1907 9
	movq	-40(%rbp), %rax	# __n, _10
# /usr/include/c++/12/bits/stl_vector.h:1908:       }
	.loc 7 1908 7
	movq	-8(%rbp), %rbx	#,
	leave	
	.cfi_def_cfa 7, 8
	ret	
	.cfi_endproc
.LFE3215:
	.size	_ZNSt6vectorIlSaIlEE17_S_check_init_lenEmRKS0_, .-_ZNSt6vectorIlSaIlEE17_S_check_init_lenEmRKS0_
	.section	.text._ZNSt12_Vector_baseIlSaIlEE11_M_allocateEm,"axG",@progbits,_ZNSt12_Vector_baseIlSaIlEE11_M_allocateEm,comdat
	.align 2
	.weak	_ZNSt12_Vector_baseIlSaIlEE11_M_allocateEm
	.type	_ZNSt12_Vector_baseIlSaIlEE11_M_allocateEm, @function
_ZNSt12_Vector_baseIlSaIlEE11_M_allocateEm:
.LFB3216:
	.loc 7 375 7
	.cfi_startproc
	pushq	%rbp	#
	.cfi_def_cfa_offset 16
	.cfi_offset 6, -16
	movq	%rsp, %rbp	#,
	.cfi_def_cfa_register 6
	subq	$16, %rsp	#,
	movq	%rdi, -8(%rbp)	# this, this
	movq	%rsi, -16(%rbp)	# __n, __n
# /usr/include/c++/12/bits/stl_vector.h:378: 	return __n != 0 ? _Tr::allocate(_M_impl, __n) : pointer();
	.loc 7 378 18
	cmpq	$0, -16(%rbp)	#, __n
	je	.L199	#,
# /usr/include/c++/12/bits/stl_vector.h:378: 	return __n != 0 ? _Tr::allocate(_M_impl, __n) : pointer();
	.loc 7 378 34 discriminator 1
	movq	-8(%rbp), %rax	# this, _1
# /usr/include/c++/12/bits/stl_vector.h:378: 	return __n != 0 ? _Tr::allocate(_M_impl, __n) : pointer();
	.loc 7 378 33 discriminator 1
	movq	-16(%rbp), %rdx	# __n, tmp85
	movq	%rdx, %rsi	# tmp85,
	movq	%rax, %rdi	# _1,
	call	_ZNSt16allocator_traitsISaIlEE8allocateERS0_m	#
# /usr/include/c++/12/bits/stl_vector.h:378: 	return __n != 0 ? _Tr::allocate(_M_impl, __n) : pointer();
	.loc 7 378 58 discriminator 1
	jmp	.L201	#
.L199:
# /usr/include/c++/12/bits/stl_vector.h:378: 	return __n != 0 ? _Tr::allocate(_M_impl, __n) : pointer();
	.loc 7 378 18 discriminator 2
	movl	$0, %eax	#, _9
.L201:
# /usr/include/c++/12/bits/stl_vector.h:379:       }
	.loc 7 379 7 discriminator 5
	leave	
	.cfi_def_cfa 7, 8
	ret	
	.cfi_endproc
.LFE3216:
	.size	_ZNSt12_Vector_baseIlSaIlEE11_M_allocateEm, .-_ZNSt12_Vector_baseIlSaIlEE11_M_allocateEm
	.section	.text._ZSt22__uninitialized_copy_aIPKlPllET0_T_S4_S3_RSaIT1_E,"axG",@progbits,_ZSt22__uninitialized_copy_aIPKlPllET0_T_S4_S3_RSaIT1_E,comdat
	.weak	_ZSt22__uninitialized_copy_aIPKlPllET0_T_S4_S3_RSaIT1_E
	.type	_ZSt22__uninitialized_copy_aIPKlPllET0_T_S4_S3_RSaIT1_E, @function
_ZSt22__uninitialized_copy_aIPKlPllET0_T_S4_S3_RSaIT1_E:
.LFB3217:
	.file 17 "/usr/include/c++/12/bits/stl_uninitialized.h"
	.loc 17 365 5
	.cfi_startproc
	pushq	%rbp	#
	.cfi_def_cfa_offset 16
	.cfi_offset 6, -16
	movq	%rsp, %rbp	#,
	.cfi_def_cfa_register 6
	subq	$32, %rsp	#,
	movq	%rdi, -8(%rbp)	# __first, __first
	movq	%rsi, -16(%rbp)	# __last, __last
	movq	%rdx, -24(%rbp)	# __result, __result
	movq	%rcx, -32(%rbp)	# D.65757, D.65757
# /usr/include/c++/12/bits/stl_uninitialized.h:372:       return std::uninitialized_copy(__first, __last, __result);
	.loc 17 372 37
	movq	-24(%rbp), %rdx	# __result, tmp84
	movq	-16(%rbp), %rcx	# __last, tmp85
	movq	-8(%rbp), %rax	# __first, tmp86
	movq	%rcx, %rsi	# tmp85,
	movq	%rax, %rdi	# tmp86,
	call	_ZSt18uninitialized_copyIPKlPlET0_T_S4_S3_	#
# /usr/include/c++/12/bits/stl_uninitialized.h:373:     }
	.loc 17 373 5
	leave	
	.cfi_def_cfa 7, 8
	ret	
	.cfi_endproc
.LFE3217:
	.size	_ZSt22__uninitialized_copy_aIPKlPllET0_T_S4_S3_RSaIT1_E, .-_ZSt22__uninitialized_copy_aIPKlPllET0_T_S4_S3_RSaIT1_E
	.section	.text._ZN9__gnu_cxx17__normal_iteratorIPlSt6vectorIlSaIlEEEC2ERKS1_,"axG",@progbits,_ZN9__gnu_cxx17__normal_iteratorIPlSt6vectorIlSaIlEEEC5ERKS1_,comdat
	.align 2
	.weak	_ZN9__gnu_cxx17__normal_iteratorIPlSt6vectorIlSaIlEEEC2ERKS1_
	.type	_ZN9__gnu_cxx17__normal_iteratorIPlSt6vectorIlSaIlEEEC2ERKS1_, @function
_ZN9__gnu_cxx17__normal_iteratorIPlSt6vectorIlSaIlEEEC2ERKS1_:
.LFB3219:
	.file 18 "/usr/include/c++/12/bits/stl_iterator.h"
	.loc 18 1072 7
	.cfi_startproc
	pushq	%rbp	#
	.cfi_def_cfa_offset 16
	.cfi_offset 6, -16
	movq	%rsp, %rbp	#,
	.cfi_def_cfa_register 6
	movq	%rdi, -8(%rbp)	# this, this
	movq	%rsi, -16(%rbp)	# __i, __i
.LBB35:
# /usr/include/c++/12/bits/stl_iterator.h:1073:       : _M_current(__i) { }
	.loc 18 1073 9
	movq	-16(%rbp), %rax	# __i, tmp83
	movq	(%rax), %rdx	# *__i_5(D), _1
	movq	-8(%rbp), %rax	# this, tmp84
	movq	%rdx, (%rax)	# _1, this_3(D)->_M_current
.LBE35:
# /usr/include/c++/12/bits/stl_iterator.h:1073:       : _M_current(__i) { }
	.loc 18 1073 27
	nop	
	popq	%rbp	#
	.cfi_def_cfa 7, 8
	ret	
	.cfi_endproc
.LFE3219:
	.size	_ZN9__gnu_cxx17__normal_iteratorIPlSt6vectorIlSaIlEEEC2ERKS1_, .-_ZN9__gnu_cxx17__normal_iteratorIPlSt6vectorIlSaIlEEEC2ERKS1_
	.weak	_ZN9__gnu_cxx17__normal_iteratorIPlSt6vectorIlSaIlEEEC1ERKS1_
	.set	_ZN9__gnu_cxx17__normal_iteratorIPlSt6vectorIlSaIlEEEC1ERKS1_,_ZN9__gnu_cxx17__normal_iteratorIPlSt6vectorIlSaIlEEEC2ERKS1_
	.section	.text._ZN9__gnu_cxxneIPlSt6vectorIlSaIlEEEEbRKNS_17__normal_iteratorIT_T0_EESA_,"axG",@progbits,_ZN9__gnu_cxxneIPlSt6vectorIlSaIlEEEEbRKNS_17__normal_iteratorIT_T0_EESA_,comdat
	.weak	_ZN9__gnu_cxxneIPlSt6vectorIlSaIlEEEEbRKNS_17__normal_iteratorIT_T0_EESA_
	.type	_ZN9__gnu_cxxneIPlSt6vectorIlSaIlEEEEbRKNS_17__normal_iteratorIT_T0_EESA_, @function
_ZN9__gnu_cxxneIPlSt6vectorIlSaIlEEEEbRKNS_17__normal_iteratorIT_T0_EESA_:
.LFB3221:
	.loc 18 1237 5
	.cfi_startproc
	pushq	%rbp	#
	.cfi_def_cfa_offset 16
	.cfi_offset 6, -16
	movq	%rsp, %rbp	#,
	.cfi_def_cfa_register 6
	pushq	%rbx	#
	subq	$24, %rsp	#,
	.cfi_offset 3, -24
	movq	%rdi, -24(%rbp)	# __lhs, __lhs
	movq	%rsi, -32(%rbp)	# __rhs, __rhs
# /usr/include/c++/12/bits/stl_iterator.h:1240:     { return __lhs.base() != __rhs.base(); }
	.loc 18 1240 24
	movq	-24(%rbp), %rax	# __lhs, tmp88
	movq	%rax, %rdi	# tmp88,
	call	_ZNK9__gnu_cxx17__normal_iteratorIPlSt6vectorIlSaIlEEE4baseEv	#
# /usr/include/c++/12/bits/stl_iterator.h:1240:     { return __lhs.base() != __rhs.base(); }
	.loc 18 1240 27
	movq	(%rax), %rbx	# *_1, _2
# /usr/include/c++/12/bits/stl_iterator.h:1240:     { return __lhs.base() != __rhs.base(); }
	.loc 18 1240 40
	movq	-32(%rbp), %rax	# __rhs, tmp89
	movq	%rax, %rdi	# tmp89,
	call	_ZNK9__gnu_cxx17__normal_iteratorIPlSt6vectorIlSaIlEEE4baseEv	#
# /usr/include/c++/12/bits/stl_iterator.h:1240:     { return __lhs.base() != __rhs.base(); }
	.loc 18 1240 27
	movq	(%rax), %rax	# *_3, _4
# /usr/include/c++/12/bits/stl_iterator.h:1240:     { return __lhs.base() != __rhs.base(); }
	.loc 18 1240 41
	cmpq	%rax, %rbx	# _4, _2
	setne	%al	#, _10
# /usr/include/c++/12/bits/stl_iterator.h:1240:     { return __lhs.base() != __rhs.base(); }
	.loc 18 1240 44
	movq	-8(%rbp), %rbx	#,
	leave	
	.cfi_def_cfa 7, 8
	ret	
	.cfi_endproc
.LFE3221:
	.size	_ZN9__gnu_cxxneIPlSt6vectorIlSaIlEEEEbRKNS_17__normal_iteratorIT_T0_EESA_, .-_ZN9__gnu_cxxneIPlSt6vectorIlSaIlEEEEbRKNS_17__normal_iteratorIT_T0_EESA_
	.section	.text._ZN9__gnu_cxx17__normal_iteratorIPlSt6vectorIlSaIlEEEppEv,"axG",@progbits,_ZN9__gnu_cxx17__normal_iteratorIPlSt6vectorIlSaIlEEEppEv,comdat
	.align 2
	.weak	_ZN9__gnu_cxx17__normal_iteratorIPlSt6vectorIlSaIlEEEppEv
	.type	_ZN9__gnu_cxx17__normal_iteratorIPlSt6vectorIlSaIlEEEppEv, @function
_ZN9__gnu_cxx17__normal_iteratorIPlSt6vectorIlSaIlEEEppEv:
.LFB3222:
	.loc 18 1105 7
	.cfi_startproc
	pushq	%rbp	#
	.cfi_def_cfa_offset 16
	.cfi_offset 6, -16
	movq	%rsp, %rbp	#,
	.cfi_def_cfa_register 6
	movq	%rdi, -8(%rbp)	# this, this
# /usr/include/c++/12/bits/stl_iterator.h:1107: 	++_M_current;
	.loc 18 1107 4
	movq	-8(%rbp), %rax	# this, tmp86
	movq	(%rax), %rax	# this_4(D)->_M_current, _1
# /usr/include/c++/12/bits/stl_iterator.h:1107: 	++_M_current;
	.loc 18 1107 2
	leaq	8(%rax), %rdx	#, _2
	movq	-8(%rbp), %rax	# this, tmp87
	movq	%rdx, (%rax)	# _2, this_4(D)->_M_current
# /usr/include/c++/12/bits/stl_iterator.h:1108: 	return *this;
	.loc 18 1108 10
	movq	-8(%rbp), %rax	# this, _6
# /usr/include/c++/12/bits/stl_iterator.h:1109:       }
	.loc 18 1109 7
	popq	%rbp	#
	.cfi_def_cfa 7, 8
	ret	
	.cfi_endproc
.LFE3222:
	.size	_ZN9__gnu_cxx17__normal_iteratorIPlSt6vectorIlSaIlEEEppEv, .-_ZN9__gnu_cxx17__normal_iteratorIPlSt6vectorIlSaIlEEEppEv
	.section	.text._ZNK9__gnu_cxx17__normal_iteratorIPlSt6vectorIlSaIlEEEdeEv,"axG",@progbits,_ZNK9__gnu_cxx17__normal_iteratorIPlSt6vectorIlSaIlEEEdeEv,comdat
	.align 2
	.weak	_ZNK9__gnu_cxx17__normal_iteratorIPlSt6vectorIlSaIlEEEdeEv
	.type	_ZNK9__gnu_cxx17__normal_iteratorIPlSt6vectorIlSaIlEEEdeEv, @function
_ZNK9__gnu_cxx17__normal_iteratorIPlSt6vectorIlSaIlEEEdeEv:
.LFB3223:
	.loc 18 1095 7
	.cfi_startproc
	pushq	%rbp	#
	.cfi_def_cfa_offset 16
	.cfi_offset 6, -16
	movq	%rsp, %rbp	#,
	.cfi_def_cfa_register 6
	movq	%rdi, -8(%rbp)	# this, this
# /usr/include/c++/12/bits/stl_iterator.h:1096:       { return *_M_current; }
	.loc 18 1096 17
	movq	-8(%rbp), %rax	# this, tmp84
	movq	(%rax), %rax	# this_2(D)->_M_current, _3
# /usr/include/c++/12/bits/stl_iterator.h:1096:       { return *_M_current; }
	.loc 18 1096 29
	popq	%rbp	#
	.cfi_def_cfa 7, 8
	ret	
	.cfi_endproc
.LFE3223:
	.size	_ZNK9__gnu_cxx17__normal_iteratorIPlSt6vectorIlSaIlEEEdeEv, .-_ZNK9__gnu_cxx17__normal_iteratorIPlSt6vectorIlSaIlEEEdeEv
	.section	.rodata
.LC6:
	.string	"vector::_M_default_append"
	.section	.text._ZNSt6vectorIdSaIdEE17_M_default_appendEm,"axG",@progbits,_ZNSt6vectorIdSaIdEE17_M_default_appendEm,comdat
	.align 2
	.weak	_ZNSt6vectorIdSaIdEE17_M_default_appendEm
	.type	_ZNSt6vectorIdSaIdEE17_M_default_appendEm, @function
_ZNSt6vectorIdSaIdEE17_M_default_appendEm:
.LFB3224:
	.file 19 "/usr/include/c++/12/bits/vector.tcc"
	.loc 19 626 5
	.cfi_startproc
	.cfi_personality 0x9b,DW.ref.__gxx_personality_v0
	.cfi_lsda 0x1b,.LLSDA3224
	pushq	%rbp	#
	.cfi_def_cfa_offset 16
	.cfi_offset 6, -16
	movq	%rsp, %rbp	#,
	.cfi_def_cfa_register 6
	pushq	%rbx	#
	subq	$56, %rsp	#,
	.cfi_offset 3, -24
	movq	%rdi, -56(%rbp)	# this, this
	movq	%rsi, -64(%rbp)	# __n, __n
.LBB36:
# /usr/include/c++/12/bits/vector.tcc:629:       if (__n != 0)
	.loc 19 629 7
	cmpq	$0, -64(%rbp)	#, __n
	je	.L222	#,
.LBB37:
# /usr/include/c++/12/bits/vector.tcc:631: 	  const size_type __size = size();
	.loc 19 631 33
	movq	-56(%rbp), %rax	# this, tmp120
	movq	%rax, %rdi	# tmp120,
	call	_ZNKSt6vectorIdSaIdEE4sizeEv	#
	movq	%rax, -24(%rbp)	# tmp121, __size
# /usr/include/c++/12/bits/vector.tcc:632: 	  size_type __navail = size_type(this->_M_impl._M_end_of_storage
	.loc 19 632 49
	movq	-56(%rbp), %rax	# this, tmp122
	movq	16(%rax), %rdx	# this_42(D)->D.58674._M_impl.D.58013._M_end_of_storage, _1
# /usr/include/c++/12/bits/vector.tcc:633: 					 - this->_M_impl._M_finish);
	.loc 19 633 23
	movq	-56(%rbp), %rax	# this, tmp123
	movq	8(%rax), %rax	# this_42(D)->D.58674._M_impl.D.58013._M_finish, _2
# /usr/include/c++/12/bits/vector.tcc:633: 					 - this->_M_impl._M_finish);
	.loc 19 633 7
	subq	%rax, %rdx	# _2, _3
	movq	%rdx, %rax	# _3, _3
	sarq	$3, %rax	#, _3
# /usr/include/c++/12/bits/vector.tcc:632: 	  size_type __navail = size_type(this->_M_impl._M_end_of_storage
	.loc 19 632 14
	movq	%rax, -32(%rbp)	# _4, __navail
# /usr/include/c++/12/bits/vector.tcc:635: 	  if (__size > max_size() || __navail > max_size() - __size)
	.loc 19 635 25
	movq	-56(%rbp), %rax	# this, tmp125
	movq	%rax, %rdi	# tmp125,
	call	_ZNKSt6vectorIdSaIdEE8max_sizeEv	#
# /usr/include/c++/12/bits/vector.tcc:635: 	  if (__size > max_size() || __navail > max_size() - __size)
	.loc 19 635 28
	cmpq	-24(%rbp), %rax	# __size, _5
	jb	.L213	#,
# /usr/include/c++/12/bits/vector.tcc:635: 	  if (__size > max_size() || __navail > max_size() - __size)
	.loc 19 635 50 discriminator 2
	movq	-56(%rbp), %rax	# this, tmp126
	movq	%rax, %rdi	# tmp126,
	call	_ZNKSt6vectorIdSaIdEE8max_sizeEv	#
# /usr/include/c++/12/bits/vector.tcc:635: 	  if (__size > max_size() || __navail > max_size() - __size)
	.loc 19 635 53 discriminator 2
	subq	-24(%rbp), %rax	# __size, _7
# /usr/include/c++/12/bits/vector.tcc:635: 	  if (__size > max_size() || __navail > max_size() - __size)
	.loc 19 635 28 discriminator 2
	cmpq	-32(%rbp), %rax	# __navail, _7
	jnb	.L214	#,
.L213:
# /usr/include/c++/12/bits/vector.tcc:635: 	  if (__size > max_size() || __navail > max_size() - __size)
	.loc 19 635 28 is_stmt 0 discriminator 3
	movl	$1, %eax	#, iftmp.14_35
	jmp	.L215	#
.L214:
# /usr/include/c++/12/bits/vector.tcc:635: 	  if (__size > max_size() || __navail > max_size() - __size)
	.loc 19 635 28 discriminator 4
	movl	$0, %eax	#, iftmp.14_35
.L215:
# /usr/include/c++/12/bits/vector.tcc:635: 	  if (__size > max_size() || __navail > max_size() - __size)
	.loc 19 635 4 is_stmt 1 discriminator 6
	testb	%al, %al	# iftmp.14_35
.LBB38:
# /usr/include/c++/12/bits/vector.tcc:638: 	  if (__navail >= __n)
	.loc 19 638 4 discriminator 6
	movq	-32(%rbp), %rax	# __navail, tmp127
	cmpq	-64(%rbp), %rax	# __n, tmp127
	jb	.L217	#,
# /usr/include/c++/12/bits/vector.tcc:643: 						 __n, _M_get_Tp_allocator());
	.loc 19 643 32
	movq	-56(%rbp), %rax	# this, _8
	movq	%rax, %rdi	# _8,
	call	_ZNSt12_Vector_baseIdSaIdEE19_M_get_Tp_allocatorEv	#
	movq	%rax, %rdx	#, _9
# /usr/include/c++/12/bits/vector.tcc:642: 		std::__uninitialized_default_n_a(this->_M_impl._M_finish,
	.loc 19 642 35
	movq	-56(%rbp), %rax	# this, tmp128
	movq	8(%rax), %rax	# this_42(D)->D.58674._M_impl.D.58013._M_finish, _10
	movq	-64(%rbp), %rcx	# __n, tmp129
	movq	%rcx, %rsi	# tmp129,
	movq	%rax, %rdi	# _10,
.LEHB29:
	call	_ZSt27__uninitialized_default_n_aIPdmdET_S1_T0_RSaIT1_E	#
# /usr/include/c++/12/bits/vector.tcc:641: 	      this->_M_impl._M_finish =
	.loc 19 641 32
	movq	-56(%rbp), %rdx	# this, tmp130
	movq	%rax, 8(%rdx)	# _11, this_42(D)->D.58674._M_impl.D.58013._M_finish
.LBE38:
.LBE37:
.LBE36:
# /usr/include/c++/12/bits/vector.tcc:698:     }
	.loc 19 698 5
	jmp	.L222	#
.L217:
.LBB45:
.LBB43:
.LBB41:
.LBB39:
# /usr/include/c++/12/bits/vector.tcc:649: 		_M_check_len(__n, "vector::_M_default_append");
	.loc 19 649 15
	movq	-64(%rbp), %rcx	# __n, tmp131
	movq	-56(%rbp), %rax	# this, tmp132
	leaq	.LC6(%rip), %rdx	#, tmp133
	movq	%rcx, %rsi	# tmp131,
	movq	%rax, %rdi	# tmp132,
	call	_ZNKSt6vectorIdSaIdEE12_M_check_lenEmPKc	#
	movq	%rax, -40(%rbp)	# _52, __len
# /usr/include/c++/12/bits/vector.tcc:650: 	      pointer __new_start(this->_M_allocate(__len));
	.loc 19 650 45
	movq	-56(%rbp), %rax	# this, _12
	movq	-40(%rbp), %rdx	# __len, tmp134
	movq	%rdx, %rsi	# tmp134,
	movq	%rax, %rdi	# _12,
	call	_ZNSt12_Vector_baseIdSaIdEE11_M_allocateEm	#
.LEHE29:
	movq	%rax, -48(%rbp)	# _55, __new_start
# /usr/include/c++/12/bits/vector.tcc:656: 			      __n, _M_get_Tp_allocator());
	.loc 19 656 34
	movq	-56(%rbp), %rax	# this, _13
	movq	%rax, %rdi	# _13,
	call	_ZNSt12_Vector_baseIdSaIdEE19_M_get_Tp_allocatorEv	#
	movq	%rax, %rdx	#, _14
# /usr/include/c++/12/bits/vector.tcc:655: 		      std::__uninitialized_default_n_a(__new_start + __size,
	.loc 19 655 54
	movq	-24(%rbp), %rax	# __size, tmp135
	leaq	0(,%rax,8), %rcx	#, _15
# /usr/include/c++/12/bits/vector.tcc:655: 		      std::__uninitialized_default_n_a(__new_start + __size,
	.loc 19 655 41
	movq	-48(%rbp), %rax	# __new_start, tmp136
	addq	%rax, %rcx	# tmp136, _16
	movq	-64(%rbp), %rax	# __n, tmp137
	movq	%rax, %rsi	# tmp137,
	movq	%rcx, %rdi	# _16,
.LEHB30:
	call	_ZSt27__uninitialized_default_n_aIPdmdET_S1_T0_RSaIT1_E	#
.LEHE30:
# /usr/include/c++/12/bits/vector.tcc:664: 			      __new_start, _M_get_Tp_allocator());
	.loc 19 664 42
	movq	-56(%rbp), %rax	# this, _19
	movq	%rax, %rdi	# _19,
	call	_ZNSt12_Vector_baseIdSaIdEE19_M_get_Tp_allocatorEv	#
	movq	%rax, %rcx	#, _20
# /usr/include/c++/12/bits/vector.tcc:663: 		  _S_relocate(this->_M_impl._M_start, this->_M_impl._M_finish,
	.loc 19 663 16
	movq	-56(%rbp), %rax	# this, tmp138
	movq	8(%rax), %rsi	# this_42(D)->D.58674._M_impl.D.58013._M_finish, _21
	movq	-56(%rbp), %rax	# this, tmp139
	movq	(%rax), %rax	# this_42(D)->D.58674._M_impl.D.58013._M_start, _22
	movq	-48(%rbp), %rdx	# __new_start, tmp140
	movq	%rax, %rdi	# _22,
	call	_ZNSt6vectorIdSaIdEE11_S_relocateEPdS2_S2_RS0_	#
# /usr/include/c++/12/bits/vector.tcc:690: 	      _M_deallocate(this->_M_impl._M_start,
	.loc 19 690 21
	movq	-56(%rbp), %rax	# this, _23
# /usr/include/c++/12/bits/vector.tcc:691: 			    this->_M_impl._M_end_of_storage
	.loc 19 691 22
	movq	-56(%rbp), %rdx	# this, tmp141
	movq	16(%rdx), %rcx	# this_42(D)->D.58674._M_impl.D.58013._M_end_of_storage, _24
# /usr/include/c++/12/bits/vector.tcc:692: 			    - this->_M_impl._M_start);
	.loc 19 692 24
	movq	-56(%rbp), %rdx	# this, tmp142
	movq	(%rdx), %rdx	# this_42(D)->D.58674._M_impl.D.58013._M_start, _25
# /usr/include/c++/12/bits/vector.tcc:692: 			    - this->_M_impl._M_start);
	.loc 19 692 8
	subq	%rdx, %rcx	# _25, _26
	sarq	$3, %rcx	#, _26
	movq	%rcx, %rdx	# _26, tmp143
# /usr/include/c++/12/bits/vector.tcc:690: 	      _M_deallocate(this->_M_impl._M_start,
	.loc 19 690 21
	movq	%rdx, %rsi	# _27, _28
	movq	-56(%rbp), %rdx	# this, tmp144
	movq	(%rdx), %rcx	# this_42(D)->D.58674._M_impl.D.58013._M_start, _29
	movq	%rsi, %rdx	# _28,
	movq	%rcx, %rsi	# _29,
	movq	%rax, %rdi	# _23,
.LEHB31:
	call	_ZNSt12_Vector_baseIdSaIdEE13_M_deallocateEPdm	#
.LEHE31:
# /usr/include/c++/12/bits/vector.tcc:693: 	      this->_M_impl._M_start = __new_start;
	.loc 19 693 31
	movq	-56(%rbp), %rax	# this, tmp145
	movq	-48(%rbp), %rdx	# __new_start, tmp146
	movq	%rdx, (%rax)	# tmp146, this_42(D)->D.58674._M_impl.D.58013._M_start
# /usr/include/c++/12/bits/vector.tcc:694: 	      this->_M_impl._M_finish = __new_start + __size + __n;
	.loc 19 694 55
	movq	-24(%rbp), %rdx	# __size, tmp147
	movq	-64(%rbp), %rax	# __n, tmp148
	addq	%rdx, %rax	# tmp147, _30
	leaq	0(,%rax,8), %rdx	#, _31
	movq	-48(%rbp), %rax	# __new_start, tmp149
	addq	%rax, %rdx	# tmp149, _32
# /usr/include/c++/12/bits/vector.tcc:694: 	      this->_M_impl._M_finish = __new_start + __size + __n;
	.loc 19 694 32
	movq	-56(%rbp), %rax	# this, tmp150
	movq	%rdx, 8(%rax)	# _32, this_42(D)->D.58674._M_impl.D.58013._M_finish
# /usr/include/c++/12/bits/vector.tcc:695: 	      this->_M_impl._M_end_of_storage = __new_start + __len;
	.loc 19 695 54
	movq	-40(%rbp), %rax	# __len, tmp151
	leaq	0(,%rax,8), %rdx	#, _33
	movq	-48(%rbp), %rax	# __new_start, tmp152
	addq	%rax, %rdx	# tmp152, _34
# /usr/include/c++/12/bits/vector.tcc:695: 	      this->_M_impl._M_end_of_storage = __new_start + __len;
	.loc 19 695 40
	movq	-56(%rbp), %rax	# this, tmp153
	movq	%rdx, 16(%rax)	# _34, this_42(D)->D.58674._M_impl.D.58013._M_end_of_storage
.LBE39:
.LBE41:
.LBE43:
.LBE45:
# /usr/include/c++/12/bits/vector.tcc:698:     }
	.loc 19 698 5
	jmp	.L222	#
.L220:
.LBB46:
.LBB44:
.LBB42:
.LBB40:
# /usr/include/c++/12/bits/vector.tcc:658: 		  __catch(...)
	.loc 19 658 5
	movq	%rax, %rdi	# _17,
	call	__cxa_begin_catch@PLT	#
# /usr/include/c++/12/bits/vector.tcc:660: 		      _M_deallocate(__new_start, __len);
	.loc 19 660 22
	movq	-56(%rbp), %rax	# this, _18
	movq	-40(%rbp), %rdx	# __len, tmp155
	movq	-48(%rbp), %rcx	# __new_start, tmp156
	movq	%rcx, %rsi	# tmp156,
	movq	%rax, %rdi	# _18,
.LEHB32:
	call	_ZNSt12_Vector_baseIdSaIdEE13_M_deallocateEPdm	#
# /usr/include/c++/12/bits/vector.tcc:661: 		      __throw_exception_again;
	.loc 19 661 9
	call	__cxa_rethrow@PLT	#
.LEHE32:
.L221:
# /usr/include/c++/12/bits/vector.tcc:658: 		  __catch(...)
	.loc 19 658 5
	movq	%rax, %rbx	#, tmp157
	call	__cxa_end_catch@PLT	#
	movq	%rbx, %rax	# tmp157, D.68648
	movq	%rax, %rdi	# D.68648,
.LEHB33:
	call	_Unwind_Resume@PLT	#
.LEHE33:
.L222:
.LBE40:
.LBE42:
.LBE44:
.LBE46:
# /usr/include/c++/12/bits/vector.tcc:698:     }
	.loc 19 698 5
	nop	
	movq	-8(%rbp), %rbx	#,
	leave	
	.cfi_def_cfa 7, 8
	ret	
	.cfi_endproc
.LFE3224:
	.section	.gcc_except_table
	.align 4
.LLSDA3224:
	.byte	0xff
	.byte	0x9b
	.uleb128 .LLSDATT3224-.LLSDATTD3224
.LLSDATTD3224:
	.byte	0x1
	.uleb128 .LLSDACSE3224-.LLSDACSB3224
.LLSDACSB3224:
	.uleb128 .LEHB29-.LFB3224
	.uleb128 .LEHE29-.LEHB29
	.uleb128 0
	.uleb128 0
	.uleb128 .LEHB30-.LFB3224
	.uleb128 .LEHE30-.LEHB30
	.uleb128 .L220-.LFB3224
	.uleb128 0x1
	.uleb128 .LEHB31-.LFB3224
	.uleb128 .LEHE31-.LEHB31
	.uleb128 0
	.uleb128 0
	.uleb128 .LEHB32-.LFB3224
	.uleb128 .LEHE32-.LEHB32
	.uleb128 .L221-.LFB3224
	.uleb128 0
	.uleb128 .LEHB33-.LFB3224
	.uleb128 .LEHE33-.LEHB33
	.uleb128 0
	.uleb128 0
.LLSDACSE3224:
	.byte	0x1
	.byte	0
	.align 4
	.long	0

.LLSDATT3224:
	.section	.text._ZNSt6vectorIdSaIdEE17_M_default_appendEm,"axG",@progbits,_ZNSt6vectorIdSaIdEE17_M_default_appendEm,comdat
	.size	_ZNSt6vectorIdSaIdEE17_M_default_appendEm, .-_ZNSt6vectorIdSaIdEE17_M_default_appendEm
	.section	.text._ZNSt6vectorIdSaIdEE15_M_erase_at_endEPd,"axG",@progbits,_ZNSt6vectorIdSaIdEE15_M_erase_at_endEPd,comdat
	.align 2
	.weak	_ZNSt6vectorIdSaIdEE15_M_erase_at_endEPd
	.type	_ZNSt6vectorIdSaIdEE15_M_erase_at_endEPd, @function
_ZNSt6vectorIdSaIdEE15_M_erase_at_endEPd:
.LFB3228:
	.loc 7 1928 7
	.cfi_startproc
	.cfi_personality 0x9b,DW.ref.__gxx_personality_v0
	.cfi_lsda 0x1b,.LLSDA3228
	pushq	%rbp	#
	.cfi_def_cfa_offset 16
	.cfi_offset 6, -16
	movq	%rsp, %rbp	#,
	.cfi_def_cfa_register 6
	subq	$32, %rsp	#,
	movq	%rdi, -24(%rbp)	# this, this
	movq	%rsi, -32(%rbp)	# __pos, __pos
.LBB47:
# /usr/include/c++/12/bits/stl_vector.h:1930: 	if (size_type __n = this->_M_impl._M_finish - __pos)
	.loc 7 1930 36
	movq	-24(%rbp), %rax	# this, tmp88
	movq	8(%rax), %rax	# this_9(D)->D.58674._M_impl.D.58013._M_finish, _1
# /usr/include/c++/12/bits/stl_vector.h:1930: 	if (size_type __n = this->_M_impl._M_finish - __pos)
	.loc 7 1930 46
	subq	-32(%rbp), %rax	# __pos, _2
	sarq	$3, %rax	#, tmp89
# /usr/include/c++/12/bits/stl_vector.h:1930: 	if (size_type __n = this->_M_impl._M_finish - __pos)
	.loc 7 1930 16
	movq	%rax, -8(%rbp)	# _3, __n
# /usr/include/c++/12/bits/stl_vector.h:1930: 	if (size_type __n = this->_M_impl._M_finish - __pos)
	.loc 7 1930 2
	cmpq	$0, -8(%rbp)	#, __n
	je	.L225	#,
# /usr/include/c++/12/bits/stl_vector.h:1933: 			  _M_get_Tp_allocator());
	.loc 7 1933 25
	movq	-24(%rbp), %rax	# this, _4
	movq	%rax, %rdi	# _4,
	call	_ZNSt12_Vector_baseIdSaIdEE19_M_get_Tp_allocatorEv	#
	movq	%rax, %rdx	#, _5
# /usr/include/c++/12/bits/stl_vector.h:1932: 	    std::_Destroy(__pos, this->_M_impl._M_finish,
	.loc 7 1932 19
	movq	-24(%rbp), %rax	# this, tmp90
	movq	8(%rax), %rcx	# this_9(D)->D.58674._M_impl.D.58013._M_finish, _6
	movq	-32(%rbp), %rax	# __pos, tmp91
	movq	%rcx, %rsi	# _6,
	movq	%rax, %rdi	# tmp91,
	call	_ZSt8_DestroyIPddEvT_S1_RSaIT0_E	#
# /usr/include/c++/12/bits/stl_vector.h:1934: 	    this->_M_impl._M_finish = __pos;
	.loc 7 1934 30
	movq	-24(%rbp), %rax	# this, tmp92
	movq	-32(%rbp), %rdx	# __pos, tmp93
	movq	%rdx, 8(%rax)	# tmp93, this_9(D)->D.58674._M_impl.D.58013._M_finish
.L225:
.LBE47:
# /usr/include/c++/12/bits/stl_vector.h:1937:       }
	.loc 7 1937 7
	nop	
	leave	
	.cfi_def_cfa 7, 8
	ret	
	.cfi_endproc
.LFE3228:
	.section	.gcc_except_table
.LLSDA3228:
	.byte	0xff
	.byte	0xff
	.byte	0x1
	.uleb128 .LLSDACSE3228-.LLSDACSB3228
.LLSDACSB3228:
.LLSDACSE3228:
	.section	.text._ZNSt6vectorIdSaIdEE15_M_erase_at_endEPd,"axG",@progbits,_ZNSt6vectorIdSaIdEE15_M_erase_at_endEPd,comdat
	.size	_ZNSt6vectorIdSaIdEE15_M_erase_at_endEPd, .-_ZNSt6vectorIdSaIdEE15_M_erase_at_endEPd
	.section	.text._ZNSt12_Destroy_auxILb1EE9__destroyIPdEEvT_S3_,"axG",@progbits,_ZNSt12_Destroy_auxILb1EE9__destroyIPdEEvT_S3_,comdat
	.weak	_ZNSt12_Destroy_auxILb1EE9__destroyIPdEEvT_S3_
	.type	_ZNSt12_Destroy_auxILb1EE9__destroyIPdEEvT_S3_, @function
_ZNSt12_Destroy_auxILb1EE9__destroyIPdEEvT_S3_:
.LFB3229:
	.loc 15 172 9
	.cfi_startproc
	pushq	%rbp	#
	.cfi_def_cfa_offset 16
	.cfi_offset 6, -16
	movq	%rsp, %rbp	#,
	.cfi_def_cfa_register 6
	movq	%rdi, -8(%rbp)	# D.66080, D.66080
	movq	%rsi, -16(%rbp)	# D.66081, D.66081
# /usr/include/c++/12/bits/stl_construct.h:172:         __destroy(_ForwardIterator, _ForwardIterator) { }
	.loc 15 172 57
	nop	
	popq	%rbp	#
	.cfi_def_cfa 7, 8
	ret	
	.cfi_endproc
.LFE3229:
	.size	_ZNSt12_Destroy_auxILb1EE9__destroyIPdEEvT_S3_, .-_ZNSt12_Destroy_auxILb1EE9__destroyIPdEEvT_S3_
	.section	.text._ZNSt16allocator_traitsISaIlEE10deallocateERS0_Plm,"axG",@progbits,_ZNSt16allocator_traitsISaIlEE10deallocateERS0_Plm,comdat
	.weak	_ZNSt16allocator_traitsISaIlEE10deallocateERS0_Plm
	.type	_ZNSt16allocator_traitsISaIlEE10deallocateERS0_Plm, @function
_ZNSt16allocator_traitsISaIlEE10deallocateERS0_Plm:
.LFB3230:
	.loc 10 495 7
	.cfi_startproc
	pushq	%rbp	#
	.cfi_def_cfa_offset 16
	.cfi_offset 6, -16
	movq	%rsp, %rbp	#,
	.cfi_def_cfa_register 6
	subq	$32, %rsp	#,
	movq	%rdi, -8(%rbp)	# __a, __a
	movq	%rsi, -16(%rbp)	# __p, __p
	movq	%rdx, -24(%rbp)	# __n, __n
# /usr/include/c++/12/bits/alloc_traits.h:496:       { __a.deallocate(__p, __n); }
	.loc 10 496 23
	movq	-24(%rbp), %rdx	# __n, tmp82
	movq	-16(%rbp), %rcx	# __p, tmp83
	movq	-8(%rbp), %rax	# __a, tmp84
	movq	%rcx, %rsi	# tmp83,
	movq	%rax, %rdi	# tmp84,
	call	_ZNSt15__new_allocatorIlE10deallocateEPlm	#
# /usr/include/c++/12/bits/alloc_traits.h:496:       { __a.deallocate(__p, __n); }
	.loc 10 496 35
	nop	
	leave	
	.cfi_def_cfa 7, 8
	ret	
	.cfi_endproc
.LFE3230:
	.size	_ZNSt16allocator_traitsISaIlEE10deallocateERS0_Plm, .-_ZNSt16allocator_traitsISaIlEE10deallocateERS0_Plm
	.section	.text._ZNSt12_Destroy_auxILb1EE9__destroyIPlEEvT_S3_,"axG",@progbits,_ZNSt12_Destroy_auxILb1EE9__destroyIPlEEvT_S3_,comdat
	.weak	_ZNSt12_Destroy_auxILb1EE9__destroyIPlEEvT_S3_
	.type	_ZNSt12_Destroy_auxILb1EE9__destroyIPlEEvT_S3_, @function
_ZNSt12_Destroy_auxILb1EE9__destroyIPlEEvT_S3_:
.LFB3231:
	.loc 15 172 9
	.cfi_startproc
	pushq	%rbp	#
	.cfi_def_cfa_offset 16
	.cfi_offset 6, -16
	movq	%rsp, %rbp	#,
	.cfi_def_cfa_register 6
	movq	%rdi, -8(%rbp)	# D.66087, D.66087
	movq	%rsi, -16(%rbp)	# D.66088, D.66088
# /usr/include/c++/12/bits/stl_construct.h:172:         __destroy(_ForwardIterator, _ForwardIterator) { }
	.loc 15 172 57
	nop	
	popq	%rbp	#
	.cfi_def_cfa 7, 8
	ret	
	.cfi_endproc
.LFE3231:
	.size	_ZNSt12_Destroy_auxILb1EE9__destroyIPlEEvT_S3_, .-_ZNSt12_Destroy_auxILb1EE9__destroyIPlEEvT_S3_
	.section	.text._ZNSt6vectorIlSaIlEEC2ERKS1_,"axG",@progbits,_ZNSt6vectorIlSaIlEEC5ERKS1_,comdat
	.align 2
	.weak	_ZNSt6vectorIlSaIlEEC2ERKS1_
	.type	_ZNSt6vectorIlSaIlEEC2ERKS1_, @function
_ZNSt6vectorIlSaIlEEC2ERKS1_:
.LFB3233:
	.loc 7 596 7
	.cfi_startproc
	.cfi_personality 0x9b,DW.ref.__gxx_personality_v0
	.cfi_lsda 0x1b,.LLSDA3233
	pushq	%rbp	#
	.cfi_def_cfa_offset 16
	.cfi_offset 6, -16
	movq	%rsp, %rbp	#,
	.cfi_def_cfa_register 6
	pushq	%r13	#
	pushq	%r12	#
	pushq	%rbx	#
	subq	$40, %rsp	#,
	.cfi_offset 13, -24
	.cfi_offset 12, -32
	.cfi_offset 3, -40
	movq	%rdi, -56(%rbp)	# this, this
	movq	%rsi, -64(%rbp)	# __x, __x
.LBB48:
# /usr/include/c++/12/bits/stl_vector.h:598: 	_Alloc_traits::_S_select_on_copy(__x._M_get_Tp_allocator()))
	.loc 7 598 61
	movq	-56(%rbp), %rbx	# this, _1
# /usr/include/c++/12/bits/stl_vector.h:598: 	_Alloc_traits::_S_select_on_copy(__x._M_get_Tp_allocator()))
	.loc 7 598 58
	movq	-64(%rbp), %rax	# __x, _2
	movq	%rax, %rdi	# _2,
	call	_ZNKSt12_Vector_baseIlSaIlEE19_M_get_Tp_allocatorEv	#
	movq	%rax, %rdx	#, _3
# /usr/include/c++/12/bits/stl_vector.h:598: 	_Alloc_traits::_S_select_on_copy(__x._M_get_Tp_allocator()))
	.loc 7 598 61
	leaq	-33(%rbp), %rax	#, tmp95
	movq	%rdx, %rsi	# _3,
	movq	%rax, %rdi	# tmp95,
.LEHB34:
	call	_ZN9__gnu_cxx14__alloc_traitsISaIlElE17_S_select_on_copyERKS1_	#
.LEHE34:
	movq	-64(%rbp), %rax	# __x, tmp96
	movq	%rax, %rdi	# tmp96,
	call	_ZNKSt6vectorIlSaIlEE4sizeEv	#
	movq	%rax, %rcx	#, _4
	leaq	-33(%rbp), %rax	#, tmp97
	movq	%rax, %rdx	# tmp97,
	movq	%rcx, %rsi	# _4,
	movq	%rbx, %rdi	# _1,
.LEHB35:
	call	_ZNSt12_Vector_baseIlSaIlEEC2EmRKS0_	#
.LEHE35:
# /usr/include/c++/12/bits/stl_vector.h:598: 	_Alloc_traits::_S_select_on_copy(__x._M_get_Tp_allocator()))
	.loc 7 598 61 is_stmt 0 discriminator 4
	leaq	-33(%rbp), %rax	#, tmp98
	movq	%rax, %rdi	# tmp98,
	call	_ZNSaIlED1Ev	#
# /usr/include/c++/12/bits/stl_vector.h:603: 				      _M_get_Tp_allocator());
	.loc 7 603 30 is_stmt 1 discriminator 4
	movq	-56(%rbp), %rax	# this, _5
	movq	%rax, %rdi	# _5,
	call	_ZNSt12_Vector_baseIlSaIlEE19_M_get_Tp_allocatorEv	#
	movq	%rax, %r13	#, _6
# /usr/include/c++/12/bits/stl_vector.h:601: 	  std::__uninitialized_copy_a(__x.begin(), __x.end(),
	.loc 7 601 31 discriminator 4
	movq	-56(%rbp), %rax	# this, tmp99
	movq	(%rax), %rbx	# this_12(D)->D.54811._M_impl.D.54123._M_start, _7
	movq	-64(%rbp), %rax	# __x, tmp100
	movq	%rax, %rdi	# tmp100,
	call	_ZNKSt6vectorIlSaIlEE3endEv	#
	movq	%rax, %r12	#, D.68001
	movq	-64(%rbp), %rax	# __x, tmp101
	movq	%rax, %rdi	# tmp101,
	call	_ZNKSt6vectorIlSaIlEE5beginEv	#
	movq	%r13, %rcx	# _6,
	movq	%rbx, %rdx	# _7,
	movq	%r12, %rsi	# D.68001,
	movq	%rax, %rdi	# D.68002,
.LEHB36:
	call	_ZSt22__uninitialized_copy_aIN9__gnu_cxx17__normal_iteratorIPKlSt6vectorIlSaIlEEEEPllET0_T_SA_S9_RSaIT1_E	#
.LEHE36:
# /usr/include/c++/12/bits/stl_vector.h:600: 	this->_M_impl._M_finish =
	.loc 7 600 26 discriminator 4
	movq	-56(%rbp), %rdx	# this, tmp102
	movq	%rax, 8(%rdx)	# _8, this_12(D)->D.54811._M_impl.D.54123._M_finish
.LBE48:
# /usr/include/c++/12/bits/stl_vector.h:604:       }
	.loc 7 604 7 discriminator 4
	jmp	.L234	#
.L232:
.LBB49:
# /usr/include/c++/12/bits/stl_vector.h:598: 	_Alloc_traits::_S_select_on_copy(__x._M_get_Tp_allocator()))
	.loc 7 598 61
	movq	%rax, %rbx	#, tmp104
	leaq	-33(%rbp), %rax	#, tmp103
	movq	%rax, %rdi	# tmp103,
	call	_ZNSaIlED1Ev	#
	movq	%rbx, %rax	# tmp104, D.68650
	movq	%rax, %rdi	# D.68650,
.LEHB37:
	call	_Unwind_Resume@PLT	#
.L233:
# /usr/include/c++/12/bits/stl_vector.h:604:       }
	.loc 7 604 7
	movq	%rax, %rbx	#, tmp105
	movq	-56(%rbp), %rax	# this, _9
	movq	%rax, %rdi	# _9,
	call	_ZNSt12_Vector_baseIlSaIlEED2Ev	#
	movq	%rbx, %rax	# tmp105, D.68651
	movq	%rax, %rdi	# D.68651,
	call	_Unwind_Resume@PLT	#
.LEHE37:
.L234:
.LBE49:
	addq	$40, %rsp	#,
	popq	%rbx	#
	popq	%r12	#
	popq	%r13	#
	popq	%rbp	#
	.cfi_def_cfa 7, 8
	ret	
	.cfi_endproc
.LFE3233:
	.section	.gcc_except_table
.LLSDA3233:
	.byte	0xff
	.byte	0xff
	.byte	0x1
	.uleb128 .LLSDACSE3233-.LLSDACSB3233
.LLSDACSB3233:
	.uleb128 .LEHB34-.LFB3233
	.uleb128 .LEHE34-.LEHB34
	.uleb128 0
	.uleb128 0
	.uleb128 .LEHB35-.LFB3233
	.uleb128 .LEHE35-.LEHB35
	.uleb128 .L232-.LFB3233
	.uleb128 0
	.uleb128 .LEHB36-.LFB3233
	.uleb128 .LEHE36-.LEHB36
	.uleb128 .L233-.LFB3233
	.uleb128 0
	.uleb128 .LEHB37-.LFB3233
	.uleb128 .LEHE37-.LEHB37
	.uleb128 0
	.uleb128 0
.LLSDACSE3233:
	.section	.text._ZNSt6vectorIlSaIlEEC2ERKS1_,"axG",@progbits,_ZNSt6vectorIlSaIlEEC5ERKS1_,comdat
	.size	_ZNSt6vectorIlSaIlEEC2ERKS1_, .-_ZNSt6vectorIlSaIlEEC2ERKS1_
	.weak	_ZNSt6vectorIlSaIlEEC1ERKS1_
	.set	_ZNSt6vectorIlSaIlEEC1ERKS1_,_ZNSt6vectorIlSaIlEEC2ERKS1_
	.section	.text._ZNSt6vectorIlSaIlEE14_M_move_assignEOS1_St17integral_constantIbLb1EE,"axG",@progbits,_ZNSt6vectorIlSaIlEE14_M_move_assignEOS1_St17integral_constantIbLb1EE,comdat
	.align 2
	.weak	_ZNSt6vectorIlSaIlEE14_M_move_assignEOS1_St17integral_constantIbLb1EE
	.type	_ZNSt6vectorIlSaIlEE14_M_move_assignEOS1_St17integral_constantIbLb1EE, @function
_ZNSt6vectorIlSaIlEE14_M_move_assignEOS1_St17integral_constantIbLb1EE:
.LFB3235:
	.loc 7 1954 7
	.cfi_startproc
	pushq	%rbp	#
	.cfi_def_cfa_offset 16
	.cfi_offset 6, -16
	movq	%rsp, %rbp	#,
	.cfi_def_cfa_register 6
	pushq	%rbx	#
	subq	$56, %rsp	#,
	.cfi_offset 3, -24
	movq	%rdi, -56(%rbp)	# this, this
	movq	%rsi, -64(%rbp)	# __x, __x
# /usr/include/c++/12/bits/stl_vector.h:1956: 	vector __tmp(get_allocator());
	.loc 7 1956 9
	movq	-56(%rbp), %rdx	# this, _1
	leaq	-17(%rbp), %rax	#, tmp90
	movq	%rdx, %rsi	# _1,
	movq	%rax, %rdi	# tmp90,
	call	_ZNKSt12_Vector_baseIlSaIlEE13get_allocatorEv	#
	leaq	-17(%rbp), %rdx	#, tmp91
	leaq	-48(%rbp), %rax	#, tmp92
	movq	%rdx, %rsi	# tmp91,
	movq	%rax, %rdi	# tmp92,
	call	_ZNSt6vectorIlSaIlEEC1ERKS0_	#
	leaq	-17(%rbp), %rax	#, tmp93
	movq	%rax, %rdi	# tmp93,
	call	_ZNSaIlED1Ev	#
# /usr/include/c++/12/bits/stl_vector.h:1957: 	this->_M_impl._M_swap_data(__x._M_impl);
	.loc 7 1957 28
	movq	-56(%rbp), %rax	# this, _2
	movq	-64(%rbp), %rdx	# __x, _3
	movq	%rdx, %rsi	# _3,
	movq	%rax, %rdi	# _2,
	call	_ZNSt12_Vector_baseIlSaIlEE17_Vector_impl_data12_M_swap_dataERS2_	#
# /usr/include/c++/12/bits/stl_vector.h:1958: 	__tmp._M_impl._M_swap_data(__x._M_impl);
	.loc 7 1958 28
	movq	-64(%rbp), %rdx	# __x, _4
	leaq	-48(%rbp), %rax	#, tmp94
	movq	%rdx, %rsi	# _4,
	movq	%rax, %rdi	# tmp94,
	call	_ZNSt12_Vector_baseIlSaIlEE17_Vector_impl_data12_M_swap_dataERS2_	#
# /usr/include/c++/12/bits/stl_vector.h:1959: 	std::__alloc_on_move(_M_get_Tp_allocator(), __x._M_get_Tp_allocator());
	.loc 7 1959 69
	movq	-64(%rbp), %rax	# __x, _5
	movq	%rax, %rdi	# _5,
	call	_ZNSt12_Vector_baseIlSaIlEE19_M_get_Tp_allocatorEv	#
	movq	%rax, %rbx	#, _6
# /usr/include/c++/12/bits/stl_vector.h:1959: 	std::__alloc_on_move(_M_get_Tp_allocator(), __x._M_get_Tp_allocator());
	.loc 7 1959 42
	movq	-56(%rbp), %rax	# this, _7
	movq	%rax, %rdi	# _7,
	call	_ZNSt12_Vector_baseIlSaIlEE19_M_get_Tp_allocatorEv	#
# /usr/include/c++/12/bits/stl_vector.h:1959: 	std::__alloc_on_move(_M_get_Tp_allocator(), __x._M_get_Tp_allocator());
	.loc 7 1959 22
	movq	%rbx, %rsi	# _6,
	movq	%rax, %rdi	# _8,
	call	_ZSt15__alloc_on_moveISaIlEEvRT_S2_	#
# /usr/include/c++/12/bits/stl_vector.h:1960:       }
	.loc 7 1960 7
	leaq	-48(%rbp), %rax	#, tmp95
	movq	%rax, %rdi	# tmp95,
	call	_ZNSt6vectorIlSaIlEED1Ev	#
	movq	-8(%rbp), %rbx	#,
	leave	
	.cfi_def_cfa 7, 8
	ret	
	.cfi_endproc
.LFE3235:
	.size	_ZNSt6vectorIlSaIlEE14_M_move_assignEOS1_St17integral_constantIbLb1EE, .-_ZNSt6vectorIlSaIlEE14_M_move_assignEOS1_St17integral_constantIbLb1EE
	.section	.text._ZN9__gnu_cxx17__normal_iteratorIPKdSt6vectorIdSaIdEEEC2ERKS2_,"axG",@progbits,_ZN9__gnu_cxx17__normal_iteratorIPKdSt6vectorIdSaIdEEEC5ERKS2_,comdat
	.align 2
	.weak	_ZN9__gnu_cxx17__normal_iteratorIPKdSt6vectorIdSaIdEEEC2ERKS2_
	.type	_ZN9__gnu_cxx17__normal_iteratorIPKdSt6vectorIdSaIdEEEC2ERKS2_, @function
_ZN9__gnu_cxx17__normal_iteratorIPKdSt6vectorIdSaIdEEEC2ERKS2_:
.LFB3237:
	.loc 18 1072 7
	.cfi_startproc
	pushq	%rbp	#
	.cfi_def_cfa_offset 16
	.cfi_offset 6, -16
	movq	%rsp, %rbp	#,
	.cfi_def_cfa_register 6
	movq	%rdi, -8(%rbp)	# this, this
	movq	%rsi, -16(%rbp)	# __i, __i
.LBB50:
# /usr/include/c++/12/bits/stl_iterator.h:1073:       : _M_current(__i) { }
	.loc 18 1073 9
	movq	-16(%rbp), %rax	# __i, tmp83
	movq	(%rax), %rdx	# *__i_5(D), _1
	movq	-8(%rbp), %rax	# this, tmp84
	movq	%rdx, (%rax)	# _1, this_3(D)->_M_current
.LBE50:
# /usr/include/c++/12/bits/stl_iterator.h:1073:       : _M_current(__i) { }
	.loc 18 1073 27
	nop	
	popq	%rbp	#
	.cfi_def_cfa 7, 8
	ret	
	.cfi_endproc
.LFE3237:
	.size	_ZN9__gnu_cxx17__normal_iteratorIPKdSt6vectorIdSaIdEEEC2ERKS2_, .-_ZN9__gnu_cxx17__normal_iteratorIPKdSt6vectorIdSaIdEEEC2ERKS2_
	.weak	_ZN9__gnu_cxx17__normal_iteratorIPKdSt6vectorIdSaIdEEEC1ERKS2_
	.set	_ZN9__gnu_cxx17__normal_iteratorIPKdSt6vectorIdSaIdEEEC1ERKS2_,_ZN9__gnu_cxx17__normal_iteratorIPKdSt6vectorIdSaIdEEEC2ERKS2_
	.section	.text._ZN9__gnu_cxx17__normal_iteratorIPdSt6vectorIdSaIdEEEC2ERKS1_,"axG",@progbits,_ZN9__gnu_cxx17__normal_iteratorIPdSt6vectorIdSaIdEEEC5ERKS1_,comdat
	.align 2
	.weak	_ZN9__gnu_cxx17__normal_iteratorIPdSt6vectorIdSaIdEEEC2ERKS1_
	.type	_ZN9__gnu_cxx17__normal_iteratorIPdSt6vectorIdSaIdEEEC2ERKS1_, @function
_ZN9__gnu_cxx17__normal_iteratorIPdSt6vectorIdSaIdEEEC2ERKS1_:
.LFB3240:
	.loc 18 1072 7
	.cfi_startproc
	pushq	%rbp	#
	.cfi_def_cfa_offset 16
	.cfi_offset 6, -16
	movq	%rsp, %rbp	#,
	.cfi_def_cfa_register 6
	movq	%rdi, -8(%rbp)	# this, this
	movq	%rsi, -16(%rbp)	# __i, __i
.LBB51:
# /usr/include/c++/12/bits/stl_iterator.h:1073:       : _M_current(__i) { }
	.loc 18 1073 9
	movq	-16(%rbp), %rax	# __i, tmp83
	movq	(%rax), %rdx	# *__i_5(D), _1
	movq	-8(%rbp), %rax	# this, tmp84
	movq	%rdx, (%rax)	# _1, this_3(D)->_M_current
.LBE51:
# /usr/include/c++/12/bits/stl_iterator.h:1073:       : _M_current(__i) { }
	.loc 18 1073 27
	nop	
	popq	%rbp	#
	.cfi_def_cfa 7, 8
	ret	
	.cfi_endproc
.LFE3240:
	.size	_ZN9__gnu_cxx17__normal_iteratorIPdSt6vectorIdSaIdEEEC2ERKS1_, .-_ZN9__gnu_cxx17__normal_iteratorIPdSt6vectorIdSaIdEEEC2ERKS1_
	.weak	_ZN9__gnu_cxx17__normal_iteratorIPdSt6vectorIdSaIdEEEC1ERKS1_
	.set	_ZN9__gnu_cxx17__normal_iteratorIPdSt6vectorIdSaIdEEEC1ERKS1_,_ZN9__gnu_cxx17__normal_iteratorIPdSt6vectorIdSaIdEEEC2ERKS1_
	.section	.text._ZSt12__miter_baseIN9__gnu_cxx17__normal_iteratorIPKdSt6vectorIdSaIdEEEEET_S8_,"axG",@progbits,_ZSt12__miter_baseIN9__gnu_cxx17__normal_iteratorIPKdSt6vectorIdSaIdEEEEET_S8_,comdat
	.weak	_ZSt12__miter_baseIN9__gnu_cxx17__normal_iteratorIPKdSt6vectorIdSaIdEEEEET_S8_
	.type	_ZSt12__miter_baseIN9__gnu_cxx17__normal_iteratorIPKdSt6vectorIdSaIdEEEEET_S8_, @function
_ZSt12__miter_baseIN9__gnu_cxx17__normal_iteratorIPKdSt6vectorIdSaIdEEEEET_S8_:
.LFB3242:
	.file 20 "/usr/include/c++/12/bits/cpp_type_traits.h"
	.loc 20 562 5
	.cfi_startproc
	pushq	%rbp	#
	.cfi_def_cfa_offset 16
	.cfi_offset 6, -16
	movq	%rsp, %rbp	#,
	.cfi_def_cfa_register 6
	movq	%rdi, -8(%rbp)	# __it, __it
# /usr/include/c++/12/bits/cpp_type_traits.h:563:     { return __it; }
	.loc 20 563 14
	movq	-8(%rbp), %rax	# __it, D.68070
# /usr/include/c++/12/bits/cpp_type_traits.h:563:     { return __it; }
	.loc 20 563 20
	popq	%rbp	#
	.cfi_def_cfa 7, 8
	ret	
	.cfi_endproc
.LFE3242:
	.size	_ZSt12__miter_baseIN9__gnu_cxx17__normal_iteratorIPKdSt6vectorIdSaIdEEEEET_S8_, .-_ZSt12__miter_baseIN9__gnu_cxx17__normal_iteratorIPKdSt6vectorIdSaIdEEEEET_S8_
	.section	.text._ZSt13__copy_move_aILb0EN9__gnu_cxx17__normal_iteratorIPKdSt6vectorIdSaIdEEEENS1_IPdS6_EEET1_T0_SB_SA_,"axG",@progbits,_ZSt13__copy_move_aILb0EN9__gnu_cxx17__normal_iteratorIPKdSt6vectorIdSaIdEEEENS1_IPdS6_EEET1_T0_SB_SA_,comdat
	.weak	_ZSt13__copy_move_aILb0EN9__gnu_cxx17__normal_iteratorIPKdSt6vectorIdSaIdEEEENS1_IPdS6_EEET1_T0_SB_SA_
	.type	_ZSt13__copy_move_aILb0EN9__gnu_cxx17__normal_iteratorIPKdSt6vectorIdSaIdEEEENS1_IPdS6_EEET1_T0_SB_SA_, @function
_ZSt13__copy_move_aILb0EN9__gnu_cxx17__normal_iteratorIPKdSt6vectorIdSaIdEEEENS1_IPdS6_EEET1_T0_SB_SA_:
.LFB3243:
	.loc 2 527 5
	.cfi_startproc
	pushq	%rbp	#
	.cfi_def_cfa_offset 16
	.cfi_offset 6, -16
	movq	%rsp, %rbp	#,
	.cfi_def_cfa_register 6
	pushq	%r12	#
	pushq	%rbx	#
	subq	$32, %rsp	#,
	.cfi_offset 12, -24
	.cfi_offset 3, -32
	movq	%rdi, -24(%rbp)	# __first, __first
	movq	%rsi, -32(%rbp)	# __last, __last
	movq	%rdx, -40(%rbp)	# __result, __result
# /usr/include/c++/12/bits/stl_algobase.h:529:       return std::__niter_wrap(__result,
	.loc 2 529 31
	movq	-40(%rbp), %rax	# __result, tmp88
	movq	%rax, %rdi	# tmp88,
	call	_ZSt12__niter_baseIPdSt6vectorIdSaIdEEET_N9__gnu_cxx17__normal_iteratorIS4_T0_EE	#
	movq	%rax, %r12	#, _1
	movq	-32(%rbp), %rax	# __last, tmp89
	movq	%rax, %rdi	# tmp89,
	call	_ZSt12__niter_baseIPKdSt6vectorIdSaIdEEET_N9__gnu_cxx17__normal_iteratorIS5_T0_EE	#
	movq	%rax, %rbx	#, _2
	movq	-24(%rbp), %rax	# __first, tmp90
	movq	%rax, %rdi	# tmp90,
	call	_ZSt12__niter_baseIPKdSt6vectorIdSaIdEEET_N9__gnu_cxx17__normal_iteratorIS5_T0_EE	#
	movq	%r12, %rdx	# _1,
	movq	%rbx, %rsi	# _2,
	movq	%rax, %rdi	# _3,
	call	_ZSt14__copy_move_a1ILb0EPKdPdET1_T0_S4_S3_	#
	movq	%rax, %rdx	#, _4
	movq	-40(%rbp), %rax	# __result, tmp91
	movq	%rdx, %rsi	# _4,
	movq	%rax, %rdi	# tmp91,
	call	_ZSt12__niter_wrapIN9__gnu_cxx17__normal_iteratorIPdSt6vectorIdSaIdEEEES2_ET_S7_T0_	#
# /usr/include/c++/12/bits/stl_algobase.h:533:     }
	.loc 2 533 5
	addq	$32, %rsp	#,
	popq	%rbx	#
	popq	%r12	#
	popq	%rbp	#
	.cfi_def_cfa 7, 8
	ret	
	.cfi_endproc
.LFE3243:
	.size	_ZSt13__copy_move_aILb0EN9__gnu_cxx17__normal_iteratorIPKdSt6vectorIdSaIdEEEENS1_IPdS6_EEET1_T0_SB_SA_, .-_ZSt13__copy_move_aILb0EN9__gnu_cxx17__normal_iteratorIPKdSt6vectorIdSaIdEEEENS1_IPdS6_EEET1_T0_SB_SA_
	.section	.text._ZSt4moveIRNSt12_Vector_baseIlSaIlEE12_Vector_implEEONSt16remove_referenceIT_E4typeEOS6_,"axG",@progbits,_ZSt4moveIRNSt12_Vector_baseIlSaIlEE12_Vector_implEEONSt16remove_referenceIT_E4typeEOS6_,comdat
	.weak	_ZSt4moveIRNSt12_Vector_baseIlSaIlEE12_Vector_implEEONSt16remove_referenceIT_E4typeEOS6_
	.type	_ZSt4moveIRNSt12_Vector_baseIlSaIlEE12_Vector_implEEONSt16remove_referenceIT_E4typeEOS6_, @function
_ZSt4moveIRNSt12_Vector_baseIlSaIlEE12_Vector_implEEONSt16remove_referenceIT_E4typeEOS6_:
.LFB3245:
	.loc 8 104 5
	.cfi_startproc
	pushq	%rbp	#
	.cfi_def_cfa_offset 16
	.cfi_offset 6, -16
	movq	%rsp, %rbp	#,
	.cfi_def_cfa_register 6
	movq	%rdi, -8(%rbp)	# __t, __t
# /usr/include/c++/12/bits/move.h:105:     { return static_cast<typename std::remove_reference<_Tp>::type&&>(__t); }
	.loc 8 105 74
	movq	-8(%rbp), %rax	# __t, _2
# /usr/include/c++/12/bits/move.h:105:     { return static_cast<typename std::remove_reference<_Tp>::type&&>(__t); }
	.loc 8 105 77
	popq	%rbp	#
	.cfi_def_cfa 7, 8
	ret	
	.cfi_endproc
.LFE3245:
	.size	_ZSt4moveIRNSt12_Vector_baseIlSaIlEE12_Vector_implEEONSt16remove_referenceIT_E4typeEOS6_, .-_ZSt4moveIRNSt12_Vector_baseIlSaIlEE12_Vector_implEEONSt16remove_referenceIT_E4typeEOS6_
	.section	.text._ZNSaIlEC2ERKS_,"axG",@progbits,_ZNSaIlEC5ERKS_,comdat
	.align 2
	.weak	_ZNSaIlEC2ERKS_
	.type	_ZNSaIlEC2ERKS_, @function
_ZNSaIlEC2ERKS_:
.LFB3247:
	.loc 9 159 7
	.cfi_startproc
	pushq	%rbp	#
	.cfi_def_cfa_offset 16
	.cfi_offset 6, -16
	movq	%rsp, %rbp	#,
	.cfi_def_cfa_register 6
	subq	$16, %rsp	#,
	movq	%rdi, -8(%rbp)	# this, this
	movq	%rsi, -16(%rbp)	# __a, __a
.LBB52:
# /usr/include/c++/12/bits/allocator.h:160:       : __allocator_base<_Tp>(__a) { }
	.loc 9 160 34
	movq	-16(%rbp), %rdx	# __a, tmp82
	movq	-8(%rbp), %rax	# this, tmp83
	movq	%rdx, %rsi	# tmp82,
	movq	%rax, %rdi	# tmp83,
	call	_ZNSt15__new_allocatorIlEC2ERKS0_	#
.LBE52:
# /usr/include/c++/12/bits/allocator.h:160:       : __allocator_base<_Tp>(__a) { }
	.loc 9 160 38
	nop	
	leave	
	.cfi_def_cfa 7, 8
	ret	
	.cfi_endproc
.LFE3247:
	.size	_ZNSaIlEC2ERKS_, .-_ZNSaIlEC2ERKS_
	.weak	_ZNSaIlEC1ERKS_
	.set	_ZNSaIlEC1ERKS_,_ZNSaIlEC2ERKS_
	.section	.text._ZNSt12_Vector_baseIlSaIlEE17_Vector_impl_dataC2EOS2_,"axG",@progbits,_ZNSt12_Vector_baseIlSaIlEE17_Vector_impl_dataC5EOS2_,comdat
	.align 2
	.weak	_ZNSt12_Vector_baseIlSaIlEE17_Vector_impl_dataC2EOS2_
	.type	_ZNSt12_Vector_baseIlSaIlEE17_Vector_impl_dataC2EOS2_, @function
_ZNSt12_Vector_baseIlSaIlEE17_Vector_impl_dataC2EOS2_:
.LFB3250:
	.loc 7 105 2
	.cfi_startproc
	pushq	%rbp	#
	.cfi_def_cfa_offset 16
	.cfi_offset 6, -16
	movq	%rsp, %rbp	#,
	.cfi_def_cfa_register 6
	movq	%rdi, -8(%rbp)	# this, this
	movq	%rsi, -16(%rbp)	# __x, __x
.LBB53:
# /usr/include/c++/12/bits/stl_vector.h:106: 	: _M_start(__x._M_start), _M_finish(__x._M_finish),
	.loc 7 106 17
	movq	-16(%rbp), %rax	# __x, tmp87
	movq	(%rax), %rdx	# __x_9(D)->_M_start, _1
# /usr/include/c++/12/bits/stl_vector.h:106: 	: _M_start(__x._M_start), _M_finish(__x._M_finish),
	.loc 7 106 4
	movq	-8(%rbp), %rax	# this, tmp88
	movq	%rdx, (%rax)	# _1, this_7(D)->_M_start
# /usr/include/c++/12/bits/stl_vector.h:106: 	: _M_start(__x._M_start), _M_finish(__x._M_finish),
	.loc 7 106 42
	movq	-16(%rbp), %rax	# __x, tmp89
	movq	8(%rax), %rdx	# __x_9(D)->_M_finish, _2
# /usr/include/c++/12/bits/stl_vector.h:106: 	: _M_start(__x._M_start), _M_finish(__x._M_finish),
	.loc 7 106 28
	movq	-8(%rbp), %rax	# this, tmp90
	movq	%rdx, 8(%rax)	# _2, this_7(D)->_M_finish
# /usr/include/c++/12/bits/stl_vector.h:107: 	  _M_end_of_storage(__x._M_end_of_storage)
	.loc 7 107 26
	movq	-16(%rbp), %rax	# __x, tmp91
	movq	16(%rax), %rdx	# __x_9(D)->_M_end_of_storage, _3
# /usr/include/c++/12/bits/stl_vector.h:107: 	  _M_end_of_storage(__x._M_end_of_storage)
	.loc 7 107 4
	movq	-8(%rbp), %rax	# this, tmp92
	movq	%rdx, 16(%rax)	# _3, this_7(D)->_M_end_of_storage
# /usr/include/c++/12/bits/stl_vector.h:108: 	{ __x._M_start = __x._M_finish = __x._M_end_of_storage = pointer(); }
	.loc 7 108 57
	movq	-16(%rbp), %rax	# __x, tmp93
	movq	$0, 16(%rax)	#, __x_9(D)->_M_end_of_storage
# /usr/include/c++/12/bits/stl_vector.h:108: 	{ __x._M_start = __x._M_finish = __x._M_end_of_storage = pointer(); }
	.loc 7 108 39
	movq	-16(%rbp), %rax	# __x, tmp94
	movq	16(%rax), %rdx	# __x_9(D)->_M_end_of_storage, _4
# /usr/include/c++/12/bits/stl_vector.h:108: 	{ __x._M_start = __x._M_finish = __x._M_end_of_storage = pointer(); }
	.loc 7 108 33
	movq	-16(%rbp), %rax	# __x, tmp95
	movq	%rdx, 8(%rax)	# _4, __x_9(D)->_M_finish
# /usr/include/c++/12/bits/stl_vector.h:108: 	{ __x._M_start = __x._M_finish = __x._M_end_of_storage = pointer(); }
	.loc 7 108 23
	movq	-16(%rbp), %rax	# __x, tmp96
	movq	8(%rax), %rdx	# __x_9(D)->_M_finish, _5
# /usr/include/c++/12/bits/stl_vector.h:108: 	{ __x._M_start = __x._M_finish = __x._M_end_of_storage = pointer(); }
	.loc 7 108 17
	movq	-16(%rbp), %rax	# __x, tmp97
	movq	%rdx, (%rax)	# _5, __x_9(D)->_M_start
.LBE53:
# /usr/include/c++/12/bits/stl_vector.h:108: 	{ __x._M_start = __x._M_finish = __x._M_end_of_storage = pointer(); }
	.loc 7 108 70
	nop	
	popq	%rbp	#
	.cfi_def_cfa 7, 8
	ret	
	.cfi_endproc
.LFE3250:
	.size	_ZNSt12_Vector_baseIlSaIlEE17_Vector_impl_dataC2EOS2_, .-_ZNSt12_Vector_baseIlSaIlEE17_Vector_impl_dataC2EOS2_
	.weak	_ZNSt12_Vector_baseIlSaIlEE17_Vector_impl_dataC1EOS2_
	.set	_ZNSt12_Vector_baseIlSaIlEE17_Vector_impl_dataC1EOS2_,_ZNSt12_Vector_baseIlSaIlEE17_Vector_impl_dataC2EOS2_
	.section	.text._ZSt8__equal4IN9__gnu_cxx17__normal_iteratorIPlSt6vectorIlSaIlEEEES6_EbT_S7_T0_S8_,"axG",@progbits,_ZSt8__equal4IN9__gnu_cxx17__normal_iteratorIPlSt6vectorIlSaIlEEEES6_EbT_S7_T0_S8_,comdat
	.weak	_ZSt8__equal4IN9__gnu_cxx17__normal_iteratorIPlSt6vectorIlSaIlEEEES6_EbT_S7_T0_S8_
	.type	_ZSt8__equal4IN9__gnu_cxx17__normal_iteratorIPlSt6vectorIlSaIlEEEES6_EbT_S7_T0_S8_, @function
_ZSt8__equal4IN9__gnu_cxx17__normal_iteratorIPlSt6vectorIlSaIlEEEES6_EbT_S7_T0_S8_:
.LFB3252:
	.loc 2 1595 5
	.cfi_startproc
	pushq	%rbp	#
	.cfi_def_cfa_offset 16
	.cfi_offset 6, -16
	movq	%rsp, %rbp	#,
	.cfi_def_cfa_register 6
	pushq	%rbx	#
	subq	$72, %rsp	#,
	.cfi_offset 3, -24
	movq	%rdi, -56(%rbp)	# __first1, __first1
	movq	%rsi, -64(%rbp)	# __last1, __last1
	movq	%rdx, -72(%rbp)	# __first2, __first2
	movq	%rcx, -80(%rbp)	# __last2, __last2
.LBB54:
# /usr/include/c++/12/bits/stl_algobase.h:1601:       if (_RAIters())
	.loc 2 1601 11
	leaq	-33(%rbp), %rax	#, tmp97
	movq	%rax, %rdi	# tmp97,
	call	_ZNKSt17integral_constantIbLb1EEcvbEv	#
# /usr/include/c++/12/bits/stl_algobase.h:1601:       if (_RAIters())
	.loc 2 1601 7
	testb	%al, %al	# retval.33_20
	je	.L250	#,
.LBB55:
# /usr/include/c++/12/bits/stl_algobase.h:1603: 	  auto __d1 = std::distance(__first1, __last1);
	.loc 2 1603 29
	movq	-64(%rbp), %rdx	# __last1, tmp98
	movq	-56(%rbp), %rax	# __first1, tmp99
	movq	%rdx, %rsi	# tmp98,
	movq	%rax, %rdi	# tmp99,
	call	_ZSt8distanceIN9__gnu_cxx17__normal_iteratorIPlSt6vectorIlSaIlEEEEENSt15iterator_traitsIT_E15difference_typeES8_S8_	#
	movq	%rax, -24(%rbp)	# _39, __d1
# /usr/include/c++/12/bits/stl_algobase.h:1604: 	  auto __d2 = std::distance(__first2, __last2);
	.loc 2 1604 29
	movq	-80(%rbp), %rdx	# __last2, tmp100
	movq	-72(%rbp), %rax	# __first2, tmp101
	movq	%rdx, %rsi	# tmp100,
	movq	%rax, %rdi	# tmp101,
	call	_ZSt8distanceIN9__gnu_cxx17__normal_iteratorIPlSt6vectorIlSaIlEEEEENSt15iterator_traitsIT_E15difference_typeES8_S8_	#
	movq	%rax, -32(%rbp)	# _42, __d2
# /usr/include/c++/12/bits/stl_algobase.h:1605: 	  if (__d1 != __d2)
	.loc 2 1605 4
	movq	-24(%rbp), %rax	# __d1, tmp102
	cmpq	-32(%rbp), %rax	# __d2, tmp102
	je	.L248	#,
# /usr/include/c++/12/bits/stl_algobase.h:1606: 	    return false;
	.loc 2 1606 13
	movl	$0, %eax	#, _9
	jmp	.L249	#
.L248:
# /usr/include/c++/12/bits/stl_algobase.h:1607: 	  return _GLIBCXX_STD_A::equal(__first1, __last1, __first2);
	.loc 2 1607 32
	movq	-72(%rbp), %rdx	# __first2, tmp103
	movq	-64(%rbp), %rcx	# __last1, tmp104
	movq	-56(%rbp), %rax	# __first1, tmp105
	movq	%rcx, %rsi	# tmp104,
	movq	%rax, %rdi	# tmp105,
	call	_ZSt5equalIN9__gnu_cxx17__normal_iteratorIPlSt6vectorIlSaIlEEEES6_EbT_S7_T0_	#
# /usr/include/c++/12/bits/stl_algobase.h:1607: 	  return _GLIBCXX_STD_A::equal(__first1, __last1, __first2);
	.loc 2 1607 60
	jmp	.L249	#
.L254:
.LBE55:
.LBE54:
# /usr/include/c++/12/bits/stl_algobase.h:1612: 	if (!(*__first1 == *__first2))
	.loc 2 1612 8
	leaq	-56(%rbp), %rax	#, tmp106
	movq	%rax, %rdi	# tmp106,
	call	_ZNK9__gnu_cxx17__normal_iteratorIPlSt6vectorIlSaIlEEEdeEv	#
# /usr/include/c++/12/bits/stl_algobase.h:1612: 	if (!(*__first1 == *__first2))
	.loc 2 1612 18
	movq	(%rax), %rbx	# *_1, _2
# /usr/include/c++/12/bits/stl_algobase.h:1612: 	if (!(*__first1 == *__first2))
	.loc 2 1612 21
	leaq	-72(%rbp), %rax	#, tmp107
	movq	%rax, %rdi	# tmp107,
	call	_ZNK9__gnu_cxx17__normal_iteratorIPlSt6vectorIlSaIlEEEdeEv	#
# /usr/include/c++/12/bits/stl_algobase.h:1612: 	if (!(*__first1 == *__first2))
	.loc 2 1612 18
	movq	(%rax), %rax	# *_3, _4
	cmpq	%rax, %rbx	# _4, _2
	setne	%al	#, retval.34_34
# /usr/include/c++/12/bits/stl_algobase.h:1612: 	if (!(*__first1 == *__first2))
	.loc 2 1612 2
	testb	%al, %al	# retval.34_34
	je	.L251	#,
# /usr/include/c++/12/bits/stl_algobase.h:1613: 	  return false;
	.loc 2 1613 11
	movl	$0, %eax	#, _9
	jmp	.L249	#
.L251:
# /usr/include/c++/12/bits/stl_algobase.h:1611: 	  ++__first1, (void)++__first2)
	.loc 2 1611 4
	leaq	-56(%rbp), %rax	#, tmp108
	movq	%rax, %rdi	# tmp108,
	call	_ZN9__gnu_cxx17__normal_iteratorIPlSt6vectorIlSaIlEEEppEv	#
# /usr/include/c++/12/bits/stl_algobase.h:1611: 	  ++__first1, (void)++__first2)
	.loc 2 1611 22
	leaq	-72(%rbp), %rax	#, tmp109
	movq	%rax, %rdi	# tmp109,
	call	_ZN9__gnu_cxx17__normal_iteratorIPlSt6vectorIlSaIlEEEppEv	#
.L250:
# /usr/include/c++/12/bits/stl_algobase.h:1610:       for (; __first1 != __last1 && __first2 != __last2;
	.loc 2 1610 23
	leaq	-64(%rbp), %rdx	#, tmp110
	leaq	-56(%rbp), %rax	#, tmp111
	movq	%rdx, %rsi	# tmp110,
	movq	%rax, %rdi	# tmp111,
	call	_ZN9__gnu_cxxneIPlSt6vectorIlSaIlEEEEbRKNS_17__normal_iteratorIT_T0_EESA_	#
# /usr/include/c++/12/bits/stl_algobase.h:1610:       for (; __first1 != __last1 && __first2 != __last2;
	.loc 2 1610 34
	testb	%al, %al	# _5
	je	.L252	#,
# /usr/include/c++/12/bits/stl_algobase.h:1610:       for (; __first1 != __last1 && __first2 != __last2;
	.loc 2 1610 46 discriminator 1
	leaq	-80(%rbp), %rdx	#, tmp112
	leaq	-72(%rbp), %rax	#, tmp113
	movq	%rdx, %rsi	# tmp112,
	movq	%rax, %rdi	# tmp113,
	call	_ZN9__gnu_cxxneIPlSt6vectorIlSaIlEEEEbRKNS_17__normal_iteratorIT_T0_EESA_	#
# /usr/include/c++/12/bits/stl_algobase.h:1610:       for (; __first1 != __last1 && __first2 != __last2;
	.loc 2 1610 34 discriminator 1
	testb	%al, %al	# _6
	je	.L252	#,
# /usr/include/c++/12/bits/stl_algobase.h:1610:       for (; __first1 != __last1 && __first2 != __last2;
	.loc 2 1610 34 is_stmt 0 discriminator 3
	movl	$1, %eax	#, iftmp.36_10
	jmp	.L253	#
.L252:
# /usr/include/c++/12/bits/stl_algobase.h:1610:       for (; __first1 != __last1 && __first2 != __last2;
	.loc 2 1610 34 discriminator 4
	movl	$0, %eax	#, iftmp.36_10
.L253:
# /usr/include/c++/12/bits/stl_algobase.h:1610:       for (; __first1 != __last1 && __first2 != __last2;
	.loc 2 1610 34 discriminator 6
	testb	%al, %al	# iftmp.36_10
	jne	.L254	#,
# /usr/include/c++/12/bits/stl_algobase.h:1614:       return __first1 == __last1 && __first2 == __last2;
	.loc 2 1614 23 is_stmt 1
	leaq	-64(%rbp), %rdx	#, tmp114
	leaq	-56(%rbp), %rax	#, tmp115
	movq	%rdx, %rsi	# tmp114,
	movq	%rax, %rdi	# tmp115,
	call	_ZN9__gnu_cxxeqIPlSt6vectorIlSaIlEEEEbRKNS_17__normal_iteratorIT_T0_EESA_	#
# /usr/include/c++/12/bits/stl_algobase.h:1614:       return __first1 == __last1 && __first2 == __last2;
	.loc 2 1614 34
	testb	%al, %al	# _7
	je	.L255	#,
# /usr/include/c++/12/bits/stl_algobase.h:1614:       return __first1 == __last1 && __first2 == __last2;
	.loc 2 1614 46 discriminator 1
	leaq	-80(%rbp), %rdx	#, tmp116
	leaq	-72(%rbp), %rax	#, tmp117
	movq	%rdx, %rsi	# tmp116,
	movq	%rax, %rdi	# tmp117,
	call	_ZN9__gnu_cxxeqIPlSt6vectorIlSaIlEEEEbRKNS_17__normal_iteratorIT_T0_EESA_	#
# /usr/include/c++/12/bits/stl_algobase.h:1614:       return __first1 == __last1 && __first2 == __last2;
	.loc 2 1614 34 discriminator 1
	testb	%al, %al	# _8
	je	.L255	#,
# /usr/include/c++/12/bits/stl_algobase.h:1614:       return __first1 == __last1 && __first2 == __last2;
	.loc 2 1614 34 is_stmt 0 discriminator 3
	movl	$1, %eax	#, _9
# /usr/include/c++/12/bits/stl_algobase.h:1614:       return __first1 == __last1 && __first2 == __last2;
	.loc 2 1614 49 is_stmt 1 discriminator 3
	jmp	.L257	#
.L255:
# /usr/include/c++/12/bits/stl_algobase.h:1614:       return __first1 == __last1 && __first2 == __last2;
	.loc 2 1614 34 discriminator 4
	movl	$0, %eax	#, _9
.L257:
# /usr/include/c++/12/bits/stl_algobase.h:1614:       return __first1 == __last1 && __first2 == __last2;
	.loc 2 1614 49
	nop	
.L249:
# /usr/include/c++/12/bits/stl_algobase.h:1615:     }
	.loc 2 1615 5
	movq	-8(%rbp), %rbx	#,
	leave	
	.cfi_def_cfa 7, 8
	ret	
	.cfi_endproc
.LFE3252:
	.size	_ZSt8__equal4IN9__gnu_cxx17__normal_iteratorIPlSt6vectorIlSaIlEEEES6_EbT_S7_T0_S8_, .-_ZSt8__equal4IN9__gnu_cxx17__normal_iteratorIPlSt6vectorIlSaIlEEEES6_EbT_S7_T0_S8_
	.section	.text._ZSt13__copy_move_aILb1EN9__gnu_cxx17__normal_iteratorIPKdSt6vectorIdSaIdEEEENS1_IPdS6_EEET1_T0_SB_SA_,"axG",@progbits,_ZSt13__copy_move_aILb1EN9__gnu_cxx17__normal_iteratorIPKdSt6vectorIdSaIdEEEENS1_IPdS6_EEET1_T0_SB_SA_,comdat
	.weak	_ZSt13__copy_move_aILb1EN9__gnu_cxx17__normal_iteratorIPKdSt6vectorIdSaIdEEEENS1_IPdS6_EEET1_T0_SB_SA_
	.type	_ZSt13__copy_move_aILb1EN9__gnu_cxx17__normal_iteratorIPKdSt6vectorIdSaIdEEEENS1_IPdS6_EEET1_T0_SB_SA_, @function
_ZSt13__copy_move_aILb1EN9__gnu_cxx17__normal_iteratorIPKdSt6vectorIdSaIdEEEENS1_IPdS6_EEET1_T0_SB_SA_:
.LFB3253:
	.loc 2 527 5
	.cfi_startproc
	pushq	%rbp	#
	.cfi_def_cfa_offset 16
	.cfi_offset 6, -16
	movq	%rsp, %rbp	#,
	.cfi_def_cfa_register 6
	pushq	%r12	#
	pushq	%rbx	#
	subq	$32, %rsp	#,
	.cfi_offset 12, -24
	.cfi_offset 3, -32
	movq	%rdi, -24(%rbp)	# __first, __first
	movq	%rsi, -32(%rbp)	# __last, __last
	movq	%rdx, -40(%rbp)	# __result, __result
# /usr/include/c++/12/bits/stl_algobase.h:529:       return std::__niter_wrap(__result,
	.loc 2 529 31
	movq	-40(%rbp), %rax	# __result, tmp88
	movq	%rax, %rdi	# tmp88,
	call	_ZSt12__niter_baseIPdSt6vectorIdSaIdEEET_N9__gnu_cxx17__normal_iteratorIS4_T0_EE	#
	movq	%rax, %r12	#, _1
	movq	-32(%rbp), %rax	# __last, tmp89
	movq	%rax, %rdi	# tmp89,
	call	_ZSt12__niter_baseIPKdSt6vectorIdSaIdEEET_N9__gnu_cxx17__normal_iteratorIS5_T0_EE	#
	movq	%rax, %rbx	#, _2
	movq	-24(%rbp), %rax	# __first, tmp90
	movq	%rax, %rdi	# tmp90,
	call	_ZSt12__niter_baseIPKdSt6vectorIdSaIdEEET_N9__gnu_cxx17__normal_iteratorIS5_T0_EE	#
	movq	%r12, %rdx	# _1,
	movq	%rbx, %rsi	# _2,
	movq	%rax, %rdi	# _3,
	call	_ZSt14__copy_move_a1ILb1EPKdPdET1_T0_S4_S3_	#
	movq	%rax, %rdx	#, _4
	movq	-40(%rbp), %rax	# __result, tmp91
	movq	%rdx, %rsi	# _4,
	movq	%rax, %rdi	# tmp91,
	call	_ZSt12__niter_wrapIN9__gnu_cxx17__normal_iteratorIPdSt6vectorIdSaIdEEEES2_ET_S7_T0_	#
# /usr/include/c++/12/bits/stl_algobase.h:533:     }
	.loc 2 533 5
	addq	$32, %rsp	#,
	popq	%rbx	#
	popq	%r12	#
	popq	%rbp	#
	.cfi_def_cfa 7, 8
	ret	
	.cfi_endproc
.LFE3253:
	.size	_ZSt13__copy_move_aILb1EN9__gnu_cxx17__normal_iteratorIPKdSt6vectorIdSaIdEEEENS1_IPdS6_EEET1_T0_SB_SA_, .-_ZSt13__copy_move_aILb1EN9__gnu_cxx17__normal_iteratorIPKdSt6vectorIdSaIdEEEENS1_IPdS6_EEET1_T0_SB_SA_
	.section	.text._ZNSt15__new_allocatorIdE10deallocateEPdm,"axG",@progbits,_ZNSt15__new_allocatorIdE10deallocateEPdm,comdat
	.align 2
	.weak	_ZNSt15__new_allocatorIdE10deallocateEPdm
	.type	_ZNSt15__new_allocatorIdE10deallocateEPdm, @function
_ZNSt15__new_allocatorIdE10deallocateEPdm:
.LFB3275:
	.loc 11 142 7
	.cfi_startproc
	pushq	%rbp	#
	.cfi_def_cfa_offset 16
	.cfi_offset 6, -16
	movq	%rsp, %rbp	#,
	.cfi_def_cfa_register 6
	subq	$32, %rsp	#,
	movq	%rdi, -8(%rbp)	# this, this
	movq	%rsi, -16(%rbp)	# __p, __p
	movq	%rdx, -24(%rbp)	# __n, __n
# /usr/include/c++/12/bits/new_allocator.h:158: 	_GLIBCXX_OPERATOR_DELETE(_GLIBCXX_SIZED_DEALLOC(__p, __n));
	.loc 11 158 26
	movq	-24(%rbp), %rax	# __n, tmp83
	leaq	0(,%rax,8), %rdx	#, _2
	movq	-16(%rbp), %rax	# __p, tmp84
	movq	%rdx, %rsi	# _2,
	movq	%rax, %rdi	# tmp84,
	call	_ZdlPvm@PLT	#
# /usr/include/c++/12/bits/new_allocator.h:159:       }
	.loc 11 159 7
	leave	
	.cfi_def_cfa 7, 8
	ret	
	.cfi_endproc
.LFE3275:
	.size	_ZNSt15__new_allocatorIdE10deallocateEPdm, .-_ZNSt15__new_allocatorIdE10deallocateEPdm
	.section	.text._ZNSt6vectorIlSaIlEE11_S_max_sizeERKS0_,"axG",@progbits,_ZNSt6vectorIlSaIlEE11_S_max_sizeERKS0_,comdat
	.weak	_ZNSt6vectorIlSaIlEE11_S_max_sizeERKS0_
	.type	_ZNSt6vectorIlSaIlEE11_S_max_sizeERKS0_, @function
_ZNSt6vectorIlSaIlEE11_S_max_sizeERKS0_:
.LFB3276:
	.loc 7 1911 7
	.cfi_startproc
	pushq	%rbp	#
	.cfi_def_cfa_offset 16
	.cfi_offset 6, -16
	movq	%rsp, %rbp	#,
	.cfi_def_cfa_register 6
	subq	$32, %rsp	#,
	movq	%rdi, -24(%rbp)	# __a, __a
# /usr/include/c++/12/bits/stl_vector.h:1916: 	const size_t __diffmax
	.loc 7 1916 15
	movabsq	$1152921504606846975, %rax	#, tmp91
	movq	%rax, -8(%rbp)	# tmp91, __diffmax
# /usr/include/c++/12/bits/stl_vector.h:1918: 	const size_t __allocmax = _Alloc_traits::max_size(__a);
	.loc 7 1918 51
	movq	-24(%rbp), %rax	# __a, tmp86
	movq	%rax, %rdi	# tmp86,
	call	_ZNSt16allocator_traitsISaIlEE8max_sizeERKS0_	#
# /usr/include/c++/12/bits/stl_vector.h:1918: 	const size_t __allocmax = _Alloc_traits::max_size(__a);
	.loc 7 1918 15
	movq	%rax, -16(%rbp)	# _1, __allocmax
# /usr/include/c++/12/bits/stl_vector.h:1919: 	return (std::min)(__diffmax, __allocmax);
	.loc 7 1919 19
	leaq	-16(%rbp), %rdx	#, tmp87
	leaq	-8(%rbp), %rax	#, tmp88
	movq	%rdx, %rsi	# tmp87,
	movq	%rax, %rdi	# tmp88,
	call	_ZSt3minImERKT_S2_S2_	#
# /usr/include/c++/12/bits/stl_vector.h:1919: 	return (std::min)(__diffmax, __allocmax);
	.loc 7 1919 41
	movq	(%rax), %rax	# *_2, _9
# /usr/include/c++/12/bits/stl_vector.h:1920:       }
	.loc 7 1920 7
	leave	
	.cfi_def_cfa 7, 8
	ret	
	.cfi_endproc
.LFE3276:
	.size	_ZNSt6vectorIlSaIlEE11_S_max_sizeERKS0_, .-_ZNSt6vectorIlSaIlEE11_S_max_sizeERKS0_
	.section	.text._ZNSt16allocator_traitsISaIlEE8allocateERS0_m,"axG",@progbits,_ZNSt16allocator_traitsISaIlEE8allocateERS0_m,comdat
	.weak	_ZNSt16allocator_traitsISaIlEE8allocateERS0_m
	.type	_ZNSt16allocator_traitsISaIlEE8allocateERS0_m, @function
_ZNSt16allocator_traitsISaIlEE8allocateERS0_m:
.LFB3277:
	.loc 10 463 7
	.cfi_startproc
	pushq	%rbp	#
	.cfi_def_cfa_offset 16
	.cfi_offset 6, -16
	movq	%rsp, %rbp	#,
	.cfi_def_cfa_register 6
	subq	$16, %rsp	#,
	movq	%rdi, -8(%rbp)	# __a, __a
	movq	%rsi, -16(%rbp)	# __n, __n
# /usr/include/c++/12/bits/alloc_traits.h:464:       { return __a.allocate(__n); }
	.loc 10 464 28
	movq	-16(%rbp), %rcx	# __n, tmp84
	movq	-8(%rbp), %rax	# __a, tmp85
	movl	$0, %edx	#,
	movq	%rcx, %rsi	# tmp84,
	movq	%rax, %rdi	# tmp85,
	call	_ZNSt15__new_allocatorIlE8allocateEmPKv	#
# /usr/include/c++/12/bits/alloc_traits.h:464:       { return __a.allocate(__n); }
	.loc 10 464 35
	leave	
	.cfi_def_cfa 7, 8
	ret	
	.cfi_endproc
.LFE3277:
	.size	_ZNSt16allocator_traitsISaIlEE8allocateERS0_m, .-_ZNSt16allocator_traitsISaIlEE8allocateERS0_m
	.section	.text._ZSt18uninitialized_copyIPKlPlET0_T_S4_S3_,"axG",@progbits,_ZSt18uninitialized_copyIPKlPlET0_T_S4_S3_,comdat
	.weak	_ZSt18uninitialized_copyIPKlPlET0_T_S4_S3_
	.type	_ZSt18uninitialized_copyIPKlPlET0_T_S4_S3_, @function
_ZSt18uninitialized_copyIPKlPlET0_T_S4_S3_:
.LFB3278:
	.loc 17 163 5
	.cfi_startproc
	pushq	%rbp	#
	.cfi_def_cfa_offset 16
	.cfi_offset 6, -16
	movq	%rsp, %rbp	#,
	.cfi_def_cfa_register 6
	subq	$48, %rsp	#,
	movq	%rdi, -24(%rbp)	# __first, __first
	movq	%rsi, -32(%rbp)	# __last, __last
	movq	%rdx, -40(%rbp)	# __result, __result
# /usr/include/c++/12/bits/stl_uninitialized.h:174:       const bool __can_memmove = __is_trivial(_ValueType1);
	.loc 17 174 18
	movb	$1, -1(%rbp)	#, __can_memmove
# /usr/include/c++/12/bits/stl_uninitialized.h:181:       const bool __assignable
	.loc 17 181 18
	movb	$1, -2(%rbp)	#, __assignable
# /usr/include/c++/12/bits/stl_uninitialized.h:185: 	__uninit_copy(__first, __last, __result);
	.loc 17 185 15
	movq	-40(%rbp), %rdx	# __result, tmp84
	movq	-32(%rbp), %rcx	# __last, tmp85
	movq	-24(%rbp), %rax	# __first, tmp86
	movq	%rcx, %rsi	# tmp85,
	movq	%rax, %rdi	# tmp86,
	call	_ZNSt20__uninitialized_copyILb1EE13__uninit_copyIPKlPlEET0_T_S6_S5_	#
# /usr/include/c++/12/bits/stl_uninitialized.h:186:     }
	.loc 17 186 5
	leave	
	.cfi_def_cfa 7, 8
	ret	
	.cfi_endproc
.LFE3278:
	.size	_ZSt18uninitialized_copyIPKlPlET0_T_S4_S3_, .-_ZSt18uninitialized_copyIPKlPlET0_T_S4_S3_
	.section	.text._ZNK9__gnu_cxx17__normal_iteratorIPlSt6vectorIlSaIlEEE4baseEv,"axG",@progbits,_ZNK9__gnu_cxx17__normal_iteratorIPlSt6vectorIlSaIlEEE4baseEv,comdat
	.align 2
	.weak	_ZNK9__gnu_cxx17__normal_iteratorIPlSt6vectorIlSaIlEEE4baseEv
	.type	_ZNK9__gnu_cxx17__normal_iteratorIPlSt6vectorIlSaIlEEE4baseEv, @function
_ZNK9__gnu_cxx17__normal_iteratorIPlSt6vectorIlSaIlEEE4baseEv:
.LFB3280:
	.loc 18 1158 7
	.cfi_startproc
	pushq	%rbp	#
	.cfi_def_cfa_offset 16
	.cfi_offset 6, -16
	movq	%rsp, %rbp	#,
	.cfi_def_cfa_register 6
	movq	%rdi, -8(%rbp)	# this, this
# /usr/include/c++/12/bits/stl_iterator.h:1159:       { return _M_current; }
	.loc 18 1159 16
	movq	-8(%rbp), %rax	# this, _2
# /usr/include/c++/12/bits/stl_iterator.h:1159:       { return _M_current; }
	.loc 18 1159 28
	popq	%rbp	#
	.cfi_def_cfa 7, 8
	ret	
	.cfi_endproc
.LFE3280:
	.size	_ZNK9__gnu_cxx17__normal_iteratorIPlSt6vectorIlSaIlEEE4baseEv, .-_ZNK9__gnu_cxx17__normal_iteratorIPlSt6vectorIlSaIlEEE4baseEv
	.section	.text._ZNKSt6vectorIdSaIdEE8max_sizeEv,"axG",@progbits,_ZNKSt6vectorIdSaIdEE8max_sizeEv,comdat
	.align 2
	.weak	_ZNKSt6vectorIdSaIdEE8max_sizeEv
	.type	_ZNKSt6vectorIdSaIdEE8max_sizeEv, @function
_ZNKSt6vectorIdSaIdEE8max_sizeEv:
.LFB3281:
	.loc 7 993 7
	.cfi_startproc
	pushq	%rbp	#
	.cfi_def_cfa_offset 16
	.cfi_offset 6, -16
	movq	%rsp, %rbp	#,
	.cfi_def_cfa_register 6
	subq	$16, %rsp	#,
	movq	%rdi, -8(%rbp)	# this, this
# /usr/include/c++/12/bits/stl_vector.h:994:       { return _S_max_size(_M_get_Tp_allocator()); }
	.loc 7 994 47
	movq	-8(%rbp), %rax	# this, _1
	movq	%rax, %rdi	# _1,
	call	_ZNKSt12_Vector_baseIdSaIdEE19_M_get_Tp_allocatorEv	#
# /usr/include/c++/12/bits/stl_vector.h:994:       { return _S_max_size(_M_get_Tp_allocator()); }
	.loc 7 994 27
	movq	%rax, %rdi	# _2,
	call	_ZNSt6vectorIdSaIdEE11_S_max_sizeERKS0_	#
# /usr/include/c++/12/bits/stl_vector.h:994:       { return _S_max_size(_M_get_Tp_allocator()); }
	.loc 7 994 52
	leave	
	.cfi_def_cfa 7, 8
	ret	
	.cfi_endproc
.LFE3281:
	.size	_ZNKSt6vectorIdSaIdEE8max_sizeEv, .-_ZNKSt6vectorIdSaIdEE8max_sizeEv
	.section	.text._ZSt27__uninitialized_default_n_aIPdmdET_S1_T0_RSaIT1_E,"axG",@progbits,_ZSt27__uninitialized_default_n_aIPdmdET_S1_T0_RSaIT1_E,comdat
	.weak	_ZSt27__uninitialized_default_n_aIPdmdET_S1_T0_RSaIT1_E
	.type	_ZSt27__uninitialized_default_n_aIPdmdET_S1_T0_RSaIT1_E, @function
_ZSt27__uninitialized_default_n_aIPdmdET_S1_T0_RSaIT1_E:
.LFB3282:
	.loc 17 764 5
	.cfi_startproc
	pushq	%rbp	#
	.cfi_def_cfa_offset 16
	.cfi_offset 6, -16
	movq	%rsp, %rbp	#,
	.cfi_def_cfa_register 6
	subq	$32, %rsp	#,
	movq	%rdi, -8(%rbp)	# __first, __first
	movq	%rsi, -16(%rbp)	# __n, __n
	movq	%rdx, -24(%rbp)	# D.66628, D.66628
# /usr/include/c++/12/bits/stl_uninitialized.h:766:     { return std::__uninitialized_default_n(__first, __n); }
	.loc 17 766 44
	movq	-16(%rbp), %rdx	# __n, tmp84
	movq	-8(%rbp), %rax	# __first, tmp85
	movq	%rdx, %rsi	# tmp84,
	movq	%rax, %rdi	# tmp85,
	call	_ZSt25__uninitialized_default_nIPdmET_S1_T0_	#
# /usr/include/c++/12/bits/stl_uninitialized.h:766:     { return std::__uninitialized_default_n(__first, __n); }
	.loc 17 766 60
	leave	
	.cfi_def_cfa 7, 8
	ret	
	.cfi_endproc
.LFE3282:
	.size	_ZSt27__uninitialized_default_n_aIPdmdET_S1_T0_RSaIT1_E, .-_ZSt27__uninitialized_default_n_aIPdmdET_S1_T0_RSaIT1_E
	.section	.text._ZNKSt6vectorIdSaIdEE12_M_check_lenEmPKc,"axG",@progbits,_ZNKSt6vectorIdSaIdEE12_M_check_lenEmPKc,comdat
	.align 2
	.weak	_ZNKSt6vectorIdSaIdEE12_M_check_lenEmPKc
	.type	_ZNKSt6vectorIdSaIdEE12_M_check_lenEmPKc, @function
_ZNKSt6vectorIdSaIdEE12_M_check_lenEmPKc:
.LFB3283:
	.loc 7 1891 7
	.cfi_startproc
	pushq	%rbp	#
	.cfi_def_cfa_offset 16
	.cfi_offset 6, -16
	movq	%rsp, %rbp	#,
	.cfi_def_cfa_register 6
	pushq	%rbx	#
	subq	$56, %rsp	#,
	.cfi_offset 3, -24
	movq	%rdi, -40(%rbp)	# this, this
	movq	%rsi, -48(%rbp)	# __n, __n
	movq	%rdx, -56(%rbp)	# __s, __s
# /usr/include/c++/12/bits/stl_vector.h:1893: 	if (max_size() - size() < __n)
	.loc 7 1893 14
	movq	-40(%rbp), %rax	# this, tmp95
	movq	%rax, %rdi	# tmp95,
	call	_ZNKSt6vectorIdSaIdEE8max_sizeEv	#
	movq	%rax, %rbx	#, _1
# /usr/include/c++/12/bits/stl_vector.h:1893: 	if (max_size() - size() < __n)
	.loc 7 1893 23
	movq	-40(%rbp), %rax	# this, tmp96
	movq	%rax, %rdi	# tmp96,
	call	_ZNKSt6vectorIdSaIdEE4sizeEv	#
# /usr/include/c++/12/bits/stl_vector.h:1893: 	if (max_size() - size() < __n)
	.loc 7 1893 17
	subq	%rax, %rbx	# _2, _1
	movq	%rbx, %rdx	# _1, _3
# /usr/include/c++/12/bits/stl_vector.h:1893: 	if (max_size() - size() < __n)
	.loc 7 1893 26
	movq	-48(%rbp), %rax	# __n, __n.16_4
	cmpq	%rax, %rdx	# __n.16_4, _3
	setb	%al	#, retval.15_18
# /usr/include/c++/12/bits/stl_vector.h:1893: 	if (max_size() - size() < __n)
	.loc 7 1893 2
	testb	%al, %al	# retval.15_18
	je	.L275	#,
# /usr/include/c++/12/bits/stl_vector.h:1894: 	  __throw_length_error(__N(__s));
	.loc 7 1894 24
	movq	-56(%rbp), %rax	# __s, tmp97
	movq	%rax, %rdi	# tmp97,
	call	_ZSt20__throw_length_errorPKc@PLT	#
.L275:
# /usr/include/c++/12/bits/stl_vector.h:1896: 	const size_type __len = size() + (std::max)(size(), __n);
	.loc 7 1896 30
	movq	-40(%rbp), %rax	# this, tmp98
	movq	%rax, %rdi	# tmp98,
	call	_ZNKSt6vectorIdSaIdEE4sizeEv	#
	movq	%rax, %rbx	#, _5
# /usr/include/c++/12/bits/stl_vector.h:1896: 	const size_type __len = size() + (std::max)(size(), __n);
	.loc 7 1896 50
	movq	-40(%rbp), %rax	# this, tmp99
	movq	%rax, %rdi	# tmp99,
	call	_ZNKSt6vectorIdSaIdEE4sizeEv	#
	movq	%rax, -32(%rbp)	# _6, D.66640
# /usr/include/c++/12/bits/stl_vector.h:1896: 	const size_type __len = size() + (std::max)(size(), __n);
	.loc 7 1896 45
	leaq	-48(%rbp), %rdx	#, tmp100
	leaq	-32(%rbp), %rax	#, tmp101
	movq	%rdx, %rsi	# tmp100,
	movq	%rax, %rdi	# tmp101,
	call	_ZSt3maxImERKT_S2_S2_	#
# /usr/include/c++/12/bits/stl_vector.h:1896: 	const size_type __len = size() + (std::max)(size(), __n);
	.loc 7 1896 33
	movq	(%rax), %rax	# *_7, _8
# /usr/include/c++/12/bits/stl_vector.h:1896: 	const size_type __len = size() + (std::max)(size(), __n);
	.loc 7 1896 18
	addq	%rbx, %rax	# _5, tmp102
	movq	%rax, -24(%rbp)	# tmp102, __len
# /usr/include/c++/12/bits/stl_vector.h:1897: 	return (__len < size() || __len > max_size()) ? max_size() : __len;
	.loc 7 1897 22
	movq	-40(%rbp), %rax	# this, tmp103
	movq	%rax, %rdi	# tmp103,
	call	_ZNKSt6vectorIdSaIdEE4sizeEv	#
# /usr/include/c++/12/bits/stl_vector.h:1897: 	return (__len < size() || __len > max_size()) ? max_size() : __len;
	.loc 7 1897 48
	cmpq	%rax, -24(%rbp)	# _9, __len
	jb	.L276	#,
# /usr/include/c++/12/bits/stl_vector.h:1897: 	return (__len < size() || __len > max_size()) ? max_size() : __len;
	.loc 7 1897 44 discriminator 2
	movq	-40(%rbp), %rax	# this, tmp104
	movq	%rax, %rdi	# tmp104,
	call	_ZNKSt6vectorIdSaIdEE8max_sizeEv	#
# /usr/include/c++/12/bits/stl_vector.h:1897: 	return (__len < size() || __len > max_size()) ? max_size() : __len;
	.loc 7 1897 25 discriminator 2
	cmpq	-24(%rbp), %rax	# __len, _10
	jnb	.L277	#,
.L276:
# /usr/include/c++/12/bits/stl_vector.h:1897: 	return (__len < size() || __len > max_size()) ? max_size() : __len;
	.loc 7 1897 58 discriminator 3
	movq	-40(%rbp), %rax	# this, tmp105
	movq	%rax, %rdi	# tmp105,
	call	_ZNKSt6vectorIdSaIdEE8max_sizeEv	#
# /usr/include/c++/12/bits/stl_vector.h:1897: 	return (__len < size() || __len > max_size()) ? max_size() : __len;
	.loc 7 1897 48 discriminator 3
	jmp	.L278	#
.L277:
# /usr/include/c++/12/bits/stl_vector.h:1897: 	return (__len < size() || __len > max_size()) ? max_size() : __len;
	.loc 7 1897 48 is_stmt 0 discriminator 4
	movq	-24(%rbp), %rax	# __len, iftmp.17_11
.L278:
# /usr/include/c++/12/bits/stl_vector.h:1898:       }
	.loc 7 1898 7 is_stmt 1 discriminator 6
	movq	-8(%rbp), %rbx	#,
	leave	
	.cfi_def_cfa 7, 8
	ret	
	.cfi_endproc
.LFE3283:
	.size	_ZNKSt6vectorIdSaIdEE12_M_check_lenEmPKc, .-_ZNKSt6vectorIdSaIdEE12_M_check_lenEmPKc
	.section	.text._ZNSt12_Vector_baseIdSaIdEE11_M_allocateEm,"axG",@progbits,_ZNSt12_Vector_baseIdSaIdEE11_M_allocateEm,comdat
	.align 2
	.weak	_ZNSt12_Vector_baseIdSaIdEE11_M_allocateEm
	.type	_ZNSt12_Vector_baseIdSaIdEE11_M_allocateEm, @function
_ZNSt12_Vector_baseIdSaIdEE11_M_allocateEm:
.LFB3284:
	.loc 7 375 7
	.cfi_startproc
	pushq	%rbp	#
	.cfi_def_cfa_offset 16
	.cfi_offset 6, -16
	movq	%rsp, %rbp	#,
	.cfi_def_cfa_register 6
	subq	$16, %rsp	#,
	movq	%rdi, -8(%rbp)	# this, this
	movq	%rsi, -16(%rbp)	# __n, __n
# /usr/include/c++/12/bits/stl_vector.h:378: 	return __n != 0 ? _Tr::allocate(_M_impl, __n) : pointer();
	.loc 7 378 18
	cmpq	$0, -16(%rbp)	#, __n
	je	.L281	#,
# /usr/include/c++/12/bits/stl_vector.h:378: 	return __n != 0 ? _Tr::allocate(_M_impl, __n) : pointer();
	.loc 7 378 34 discriminator 1
	movq	-8(%rbp), %rax	# this, _1
# /usr/include/c++/12/bits/stl_vector.h:378: 	return __n != 0 ? _Tr::allocate(_M_impl, __n) : pointer();
	.loc 7 378 33 discriminator 1
	movq	-16(%rbp), %rdx	# __n, tmp85
	movq	%rdx, %rsi	# tmp85,
	movq	%rax, %rdi	# _1,
	call	_ZNSt16allocator_traitsISaIdEE8allocateERS0_m	#
# /usr/include/c++/12/bits/stl_vector.h:378: 	return __n != 0 ? _Tr::allocate(_M_impl, __n) : pointer();
	.loc 7 378 58 discriminator 1
	jmp	.L283	#
.L281:
# /usr/include/c++/12/bits/stl_vector.h:378: 	return __n != 0 ? _Tr::allocate(_M_impl, __n) : pointer();
	.loc 7 378 18 discriminator 2
	movl	$0, %eax	#, _9
.L283:
# /usr/include/c++/12/bits/stl_vector.h:379:       }
	.loc 7 379 7 discriminator 5
	leave	
	.cfi_def_cfa 7, 8
	ret	
	.cfi_endproc
.LFE3284:
	.size	_ZNSt12_Vector_baseIdSaIdEE11_M_allocateEm, .-_ZNSt12_Vector_baseIdSaIdEE11_M_allocateEm
	.section	.text._ZNSt6vectorIdSaIdEE11_S_relocateEPdS2_S2_RS0_,"axG",@progbits,_ZNSt6vectorIdSaIdEE11_S_relocateEPdS2_S2_RS0_,comdat
	.weak	_ZNSt6vectorIdSaIdEE11_S_relocateEPdS2_S2_RS0_
	.type	_ZNSt6vectorIdSaIdEE11_S_relocateEPdS2_S2_RS0_, @function
_ZNSt6vectorIdSaIdEE11_S_relocateEPdS2_S2_RS0_:
.LFB3285:
	.loc 7 499 7
	.cfi_startproc
	pushq	%rbp	#
	.cfi_def_cfa_offset 16
	.cfi_offset 6, -16
	movq	%rsp, %rbp	#,
	.cfi_def_cfa_register 6
	subq	$32, %rsp	#,
	movq	%rdi, -8(%rbp)	# __first, __first
	movq	%rsi, -16(%rbp)	# __last, __last
	movq	%rdx, -24(%rbp)	# __result, __result
	movq	%rcx, -32(%rbp)	# __alloc, __alloc
# /usr/include/c++/12/bits/stl_vector.h:504: 	return std::__relocate_a(__first, __last, __result, __alloc);
	.loc 7 504 26
	movq	-32(%rbp), %rcx	# __alloc, tmp84
	movq	-24(%rbp), %rdx	# __result, tmp85
	movq	-16(%rbp), %rsi	# __last, tmp86
	movq	-8(%rbp), %rax	# __first, tmp87
	movq	%rax, %rdi	# tmp87,
	call	_ZSt12__relocate_aIPdS0_SaIdEET0_T_S3_S2_RT1_	#
# /usr/include/c++/12/bits/stl_vector.h:509:       }
	.loc 7 509 7
	leave	
	.cfi_def_cfa 7, 8
	ret	
	.cfi_endproc
.LFE3285:
	.size	_ZNSt6vectorIdSaIdEE11_S_relocateEPdS2_S2_RS0_, .-_ZNSt6vectorIdSaIdEE11_S_relocateEPdS2_S2_RS0_
	.section	.text._ZNSt15__new_allocatorIlE10deallocateEPlm,"axG",@progbits,_ZNSt15__new_allocatorIlE10deallocateEPlm,comdat
	.align 2
	.weak	_ZNSt15__new_allocatorIlE10deallocateEPlm
	.type	_ZNSt15__new_allocatorIlE10deallocateEPlm, @function
_ZNSt15__new_allocatorIlE10deallocateEPlm:
.LFB3286:
	.loc 11 142 7
	.cfi_startproc
	pushq	%rbp	#
	.cfi_def_cfa_offset 16
	.cfi_offset 6, -16
	movq	%rsp, %rbp	#,
	.cfi_def_cfa_register 6
	subq	$32, %rsp	#,
	movq	%rdi, -8(%rbp)	# this, this
	movq	%rsi, -16(%rbp)	# __p, __p
	movq	%rdx, -24(%rbp)	# __n, __n
# /usr/include/c++/12/bits/new_allocator.h:158: 	_GLIBCXX_OPERATOR_DELETE(_GLIBCXX_SIZED_DEALLOC(__p, __n));
	.loc 11 158 26
	movq	-24(%rbp), %rax	# __n, tmp83
	leaq	0(,%rax,8), %rdx	#, _2
	movq	-16(%rbp), %rax	# __p, tmp84
	movq	%rdx, %rsi	# _2,
	movq	%rax, %rdi	# tmp84,
	call	_ZdlPvm@PLT	#
# /usr/include/c++/12/bits/new_allocator.h:159:       }
	.loc 11 159 7
	leave	
	.cfi_def_cfa 7, 8
	ret	
	.cfi_endproc
.LFE3286:
	.size	_ZNSt15__new_allocatorIlE10deallocateEPlm, .-_ZNSt15__new_allocatorIlE10deallocateEPlm
	.section	.text._ZNKSt12_Vector_baseIlSaIlEE19_M_get_Tp_allocatorEv,"axG",@progbits,_ZNKSt12_Vector_baseIlSaIlEE19_M_get_Tp_allocatorEv,comdat
	.align 2
	.weak	_ZNKSt12_Vector_baseIlSaIlEE19_M_get_Tp_allocatorEv
	.type	_ZNKSt12_Vector_baseIlSaIlEE19_M_get_Tp_allocatorEv, @function
_ZNKSt12_Vector_baseIlSaIlEE19_M_get_Tp_allocatorEv:
.LFB3287:
	.loc 7 303 7
	.cfi_startproc
	pushq	%rbp	#
	.cfi_def_cfa_offset 16
	.cfi_offset 6, -16
	movq	%rsp, %rbp	#,
	.cfi_def_cfa_register 6
	movq	%rdi, -8(%rbp)	# this, this
# /usr/include/c++/12/bits/stl_vector.h:304:       { return this->_M_impl; }
	.loc 7 304 22
	movq	-8(%rbp), %rax	# this, _2
# /usr/include/c++/12/bits/stl_vector.h:304:       { return this->_M_impl; }
	.loc 7 304 31
	popq	%rbp	#
	.cfi_def_cfa 7, 8
	ret	
	.cfi_endproc
.LFE3287:
	.size	_ZNKSt12_Vector_baseIlSaIlEE19_M_get_Tp_allocatorEv, .-_ZNKSt12_Vector_baseIlSaIlEE19_M_get_Tp_allocatorEv
	.section	.text._ZN9__gnu_cxx14__alloc_traitsISaIlElE17_S_select_on_copyERKS1_,"axG",@progbits,_ZN9__gnu_cxx14__alloc_traitsISaIlElE17_S_select_on_copyERKS1_,comdat
	.weak	_ZN9__gnu_cxx14__alloc_traitsISaIlElE17_S_select_on_copyERKS1_
	.type	_ZN9__gnu_cxx14__alloc_traitsISaIlElE17_S_select_on_copyERKS1_, @function
_ZN9__gnu_cxx14__alloc_traitsISaIlElE17_S_select_on_copyERKS1_:
.LFB3288:
	.file 21 "/usr/include/c++/12/ext/alloc_traits.h"
	.loc 21 97 29
	.cfi_startproc
	pushq	%rbp	#
	.cfi_def_cfa_offset 16
	.cfi_offset 6, -16
	movq	%rsp, %rbp	#,
	.cfi_def_cfa_register 6
	subq	$16, %rsp	#,
	movq	%rdi, -8(%rbp)	# .result_ptr, .result_ptr
	movq	%rsi, -16(%rbp)	# __a, __a
# /usr/include/c++/12/ext/alloc_traits.h:98:     { return _Base_type::select_on_container_copy_construction(__a); }
	.loc 21 98 67
	movq	-8(%rbp), %rax	# <retval>, tmp82
	movq	-16(%rbp), %rdx	# __a, tmp83
	movq	%rdx, %rsi	# tmp83,
	movq	%rax, %rdi	# tmp82,
	call	_ZNSt16allocator_traitsISaIlEE37select_on_container_copy_constructionERKS0_	#
# /usr/include/c++/12/ext/alloc_traits.h:98:     { return _Base_type::select_on_container_copy_construction(__a); }
	.loc 21 98 70
	movq	-8(%rbp), %rax	# <retval>,
	leave	
	.cfi_def_cfa 7, 8
	ret	
	.cfi_endproc
.LFE3288:
	.size	_ZN9__gnu_cxx14__alloc_traitsISaIlElE17_S_select_on_copyERKS1_, .-_ZN9__gnu_cxx14__alloc_traitsISaIlElE17_S_select_on_copyERKS1_
	.section	.text._ZNSt12_Vector_baseIlSaIlEEC2EmRKS0_,"axG",@progbits,_ZNSt12_Vector_baseIlSaIlEEC5EmRKS0_,comdat
	.align 2
	.weak	_ZNSt12_Vector_baseIlSaIlEEC2EmRKS0_
	.type	_ZNSt12_Vector_baseIlSaIlEEC2EmRKS0_, @function
_ZNSt12_Vector_baseIlSaIlEEC2EmRKS0_:
.LFB3290:
	.loc 7 330 7
	.cfi_startproc
	.cfi_personality 0x9b,DW.ref.__gxx_personality_v0
	.cfi_lsda 0x1b,.LLSDA3290
	pushq	%rbp	#
	.cfi_def_cfa_offset 16
	.cfi_offset 6, -16
	movq	%rsp, %rbp	#,
	.cfi_def_cfa_register 6
	pushq	%rbx	#
	subq	$40, %rsp	#,
	.cfi_offset 3, -24
	movq	%rdi, -24(%rbp)	# this, this
	movq	%rsi, -32(%rbp)	# __n, __n
	movq	%rdx, -40(%rbp)	# __a, __a
.LBB56:
# /usr/include/c++/12/bits/stl_vector.h:331:       : _M_impl(__a)
	.loc 7 331 9
	movq	-24(%rbp), %rax	# this, _1
	movq	-40(%rbp), %rdx	# __a, tmp85
	movq	%rdx, %rsi	# tmp85,
	movq	%rax, %rdi	# _1,
	call	_ZNSt12_Vector_baseIlSaIlEE12_Vector_implC1ERKS0_	#
# /usr/include/c++/12/bits/stl_vector.h:332:       { _M_create_storage(__n); }
	.loc 7 332 26
	movq	-32(%rbp), %rdx	# __n, tmp86
	movq	-24(%rbp), %rax	# this, tmp87
	movq	%rdx, %rsi	# tmp86,
	movq	%rax, %rdi	# tmp87,
.LEHB38:
	call	_ZNSt12_Vector_baseIlSaIlEE17_M_create_storageEm	#
.LEHE38:
.LBE56:
# /usr/include/c++/12/bits/stl_vector.h:332:       { _M_create_storage(__n); }
	.loc 7 332 33
	jmp	.L295	#
.L294:
.LBB57:
	movq	%rax, %rbx	#, tmp88
	movq	-24(%rbp), %rax	# this, _2
	movq	%rax, %rdi	# _2,
	call	_ZNSt12_Vector_baseIlSaIlEE12_Vector_implD1Ev	#
	movq	%rbx, %rax	# tmp88, D.68656
	movq	%rax, %rdi	# D.68656,
.LEHB39:
	call	_Unwind_Resume@PLT	#
.LEHE39:
.L295:
.LBE57:
	movq	-8(%rbp), %rbx	#,
	leave	
	.cfi_def_cfa 7, 8
	ret	
	.cfi_endproc
.LFE3290:
	.section	.gcc_except_table
.LLSDA3290:
	.byte	0xff
	.byte	0xff
	.byte	0x1
	.uleb128 .LLSDACSE3290-.LLSDACSB3290
.LLSDACSB3290:
	.uleb128 .LEHB38-.LFB3290
	.uleb128 .LEHE38-.LEHB38
	.uleb128 .L294-.LFB3290
	.uleb128 0
	.uleb128 .LEHB39-.LFB3290
	.uleb128 .LEHE39-.LEHB39
	.uleb128 0
	.uleb128 0
.LLSDACSE3290:
	.section	.text._ZNSt12_Vector_baseIlSaIlEEC2EmRKS0_,"axG",@progbits,_ZNSt12_Vector_baseIlSaIlEEC5EmRKS0_,comdat
	.size	_ZNSt12_Vector_baseIlSaIlEEC2EmRKS0_, .-_ZNSt12_Vector_baseIlSaIlEEC2EmRKS0_
	.weak	_ZNSt12_Vector_baseIlSaIlEEC1EmRKS0_
	.set	_ZNSt12_Vector_baseIlSaIlEEC1EmRKS0_,_ZNSt12_Vector_baseIlSaIlEEC2EmRKS0_
	.section	.text._ZNKSt6vectorIlSaIlEE5beginEv,"axG",@progbits,_ZNKSt6vectorIlSaIlEE5beginEv,comdat
	.align 2
	.weak	_ZNKSt6vectorIlSaIlEE5beginEv
	.type	_ZNKSt6vectorIlSaIlEE5beginEv, @function
_ZNKSt6vectorIlSaIlEE5beginEv:
.LFB3292:
	.loc 7 878 7
	.cfi_startproc
	pushq	%rbp	#
	.cfi_def_cfa_offset 16
	.cfi_offset 6, -16
	movq	%rsp, %rbp	#,
	.cfi_def_cfa_register 6
	subq	$32, %rsp	#,
	movq	%rdi, -24(%rbp)	# this, this
# /usr/include/c++/12/bits/stl_vector.h:879:       { return const_iterator(this->_M_impl._M_start); }
	.loc 7 879 45
	movq	-24(%rbp), %rdx	# this, _1
# /usr/include/c++/12/bits/stl_vector.h:879:       { return const_iterator(this->_M_impl._M_start); }
	.loc 7 879 16
	leaq	-8(%rbp), %rax	#, tmp85
	movq	%rdx, %rsi	# _1,
	movq	%rax, %rdi	# tmp85,
	call	_ZN9__gnu_cxx17__normal_iteratorIPKlSt6vectorIlSaIlEEEC1ERKS2_	#
# /usr/include/c++/12/bits/stl_vector.h:879:       { return const_iterator(this->_M_impl._M_start); }
	.loc 7 879 53
	movq	-8(%rbp), %rax	# D.66680, D.68018
# /usr/include/c++/12/bits/stl_vector.h:879:       { return const_iterator(this->_M_impl._M_start); }
	.loc 7 879 56
	leave	
	.cfi_def_cfa 7, 8
	ret	
	.cfi_endproc
.LFE3292:
	.size	_ZNKSt6vectorIlSaIlEE5beginEv, .-_ZNKSt6vectorIlSaIlEE5beginEv
	.section	.text._ZNKSt6vectorIlSaIlEE3endEv,"axG",@progbits,_ZNKSt6vectorIlSaIlEE3endEv,comdat
	.align 2
	.weak	_ZNKSt6vectorIlSaIlEE3endEv
	.type	_ZNKSt6vectorIlSaIlEE3endEv, @function
_ZNKSt6vectorIlSaIlEE3endEv:
.LFB3293:
	.loc 7 898 7
	.cfi_startproc
	pushq	%rbp	#
	.cfi_def_cfa_offset 16
	.cfi_offset 6, -16
	movq	%rsp, %rbp	#,
	.cfi_def_cfa_register 6
	subq	$32, %rsp	#,
	movq	%rdi, -24(%rbp)	# this, this
# /usr/include/c++/12/bits/stl_vector.h:899:       { return const_iterator(this->_M_impl._M_finish); }
	.loc 7 899 45
	movq	-24(%rbp), %rax	# this, tmp85
	leaq	8(%rax), %rdx	#, _1
# /usr/include/c++/12/bits/stl_vector.h:899:       { return const_iterator(this->_M_impl._M_finish); }
	.loc 7 899 16
	leaq	-8(%rbp), %rax	#, tmp86
	movq	%rdx, %rsi	# _1,
	movq	%rax, %rdi	# tmp86,
	call	_ZN9__gnu_cxx17__normal_iteratorIPKlSt6vectorIlSaIlEEEC1ERKS2_	#
# /usr/include/c++/12/bits/stl_vector.h:899:       { return const_iterator(this->_M_impl._M_finish); }
	.loc 7 899 54
	movq	-8(%rbp), %rax	# D.66682, D.68015
# /usr/include/c++/12/bits/stl_vector.h:899:       { return const_iterator(this->_M_impl._M_finish); }
	.loc 7 899 57
	leave	
	.cfi_def_cfa 7, 8
	ret	
	.cfi_endproc
.LFE3293:
	.size	_ZNKSt6vectorIlSaIlEE3endEv, .-_ZNKSt6vectorIlSaIlEE3endEv
	.section	.text._ZSt22__uninitialized_copy_aIN9__gnu_cxx17__normal_iteratorIPKlSt6vectorIlSaIlEEEEPllET0_T_SA_S9_RSaIT1_E,"axG",@progbits,_ZSt22__uninitialized_copy_aIN9__gnu_cxx17__normal_iteratorIPKlSt6vectorIlSaIlEEEEPllET0_T_SA_S9_RSaIT1_E,comdat
	.weak	_ZSt22__uninitialized_copy_aIN9__gnu_cxx17__normal_iteratorIPKlSt6vectorIlSaIlEEEEPllET0_T_SA_S9_RSaIT1_E
	.type	_ZSt22__uninitialized_copy_aIN9__gnu_cxx17__normal_iteratorIPKlSt6vectorIlSaIlEEEEPllET0_T_SA_S9_RSaIT1_E, @function
_ZSt22__uninitialized_copy_aIN9__gnu_cxx17__normal_iteratorIPKlSt6vectorIlSaIlEEEEPllET0_T_SA_S9_RSaIT1_E:
.LFB3294:
	.loc 17 365 5
	.cfi_startproc
	pushq	%rbp	#
	.cfi_def_cfa_offset 16
	.cfi_offset 6, -16
	movq	%rsp, %rbp	#,
	.cfi_def_cfa_register 6
	subq	$32, %rsp	#,
	movq	%rdi, -8(%rbp)	# __first, __first
	movq	%rsi, -16(%rbp)	# __last, __last
	movq	%rdx, -24(%rbp)	# __result, __result
	movq	%rcx, -32(%rbp)	# D.66686, D.66686
# /usr/include/c++/12/bits/stl_uninitialized.h:372:       return std::uninitialized_copy(__first, __last, __result);
	.loc 17 372 37
	movq	-24(%rbp), %rdx	# __result, tmp84
	movq	-16(%rbp), %rcx	# __last, tmp85
	movq	-8(%rbp), %rax	# __first, tmp86
	movq	%rcx, %rsi	# tmp85,
	movq	%rax, %rdi	# tmp86,
	call	_ZSt18uninitialized_copyIN9__gnu_cxx17__normal_iteratorIPKlSt6vectorIlSaIlEEEEPlET0_T_SA_S9_	#
# /usr/include/c++/12/bits/stl_uninitialized.h:373:     }
	.loc 17 373 5
	leave	
	.cfi_def_cfa 7, 8
	ret	
	.cfi_endproc
.LFE3294:
	.size	_ZSt22__uninitialized_copy_aIN9__gnu_cxx17__normal_iteratorIPKlSt6vectorIlSaIlEEEEPllET0_T_SA_S9_RSaIT1_E, .-_ZSt22__uninitialized_copy_aIN9__gnu_cxx17__normal_iteratorIPKlSt6vectorIlSaIlEEEEPllET0_T_SA_S9_RSaIT1_E
	.section	.text._ZNKSt12_Vector_baseIlSaIlEE13get_allocatorEv,"axG",@progbits,_ZNKSt12_Vector_baseIlSaIlEE13get_allocatorEv,comdat
	.align 2
	.weak	_ZNKSt12_Vector_baseIlSaIlEE13get_allocatorEv
	.type	_ZNKSt12_Vector_baseIlSaIlEE13get_allocatorEv, @function
_ZNKSt12_Vector_baseIlSaIlEE13get_allocatorEv:
.LFB3295:
	.loc 7 308 7
	.cfi_startproc
	pushq	%rbp	#
	.cfi_def_cfa_offset 16
	.cfi_offset 6, -16
	movq	%rsp, %rbp	#,
	.cfi_def_cfa_register 6
	subq	$16, %rsp	#,
	movq	%rdi, -8(%rbp)	# .result_ptr, .result_ptr
	movq	%rsi, -16(%rbp)	# this, this
# /usr/include/c++/12/bits/stl_vector.h:309:       { return allocator_type(_M_get_Tp_allocator()); }
	.loc 7 309 50
	movq	-16(%rbp), %rax	# this, tmp83
	movq	%rax, %rdi	# tmp83,
	call	_ZNKSt12_Vector_baseIlSaIlEE19_M_get_Tp_allocatorEv	#
	movq	%rax, %rdx	#, _1
# /usr/include/c++/12/bits/stl_vector.h:309:       { return allocator_type(_M_get_Tp_allocator()); }
	.loc 7 309 52
	movq	-8(%rbp), %rax	# <retval>, tmp84
	movq	%rdx, %rsi	# _1,
	movq	%rax, %rdi	# tmp84,
	call	_ZNSaIlEC1ERKS_	#
# /usr/include/c++/12/bits/stl_vector.h:309:       { return allocator_type(_M_get_Tp_allocator()); }
	.loc 7 309 55
	movq	-8(%rbp), %rax	# <retval>,
	leave	
	.cfi_def_cfa 7, 8
	ret	
	.cfi_endproc
.LFE3295:
	.size	_ZNKSt12_Vector_baseIlSaIlEE13get_allocatorEv, .-_ZNKSt12_Vector_baseIlSaIlEE13get_allocatorEv
	.section	.text._ZNSt6vectorIlSaIlEEC2ERKS0_,"axG",@progbits,_ZNSt6vectorIlSaIlEEC5ERKS0_,comdat
	.align 2
	.weak	_ZNSt6vectorIlSaIlEEC2ERKS0_
	.type	_ZNSt6vectorIlSaIlEEC2ERKS0_, @function
_ZNSt6vectorIlSaIlEEC2ERKS0_:
.LFB3297:
	.loc 7 537 7
	.cfi_startproc
	pushq	%rbp	#
	.cfi_def_cfa_offset 16
	.cfi_offset 6, -16
	movq	%rsp, %rbp	#,
	.cfi_def_cfa_register 6
	subq	$16, %rsp	#,
	movq	%rdi, -8(%rbp)	# this, this
	movq	%rsi, -16(%rbp)	# __a, __a
.LBB58:
# /usr/include/c++/12/bits/stl_vector.h:538:       : _Base(__a) { }
	.loc 7 538 18
	movq	-8(%rbp), %rax	# this, _1
	movq	-16(%rbp), %rdx	# __a, tmp84
	movq	%rdx, %rsi	# tmp84,
	movq	%rax, %rdi	# _1,
	call	_ZNSt12_Vector_baseIlSaIlEEC2ERKS0_	#
.LBE58:
# /usr/include/c++/12/bits/stl_vector.h:538:       : _Base(__a) { }
	.loc 7 538 22
	nop	
	leave	
	.cfi_def_cfa 7, 8
	ret	
	.cfi_endproc
.LFE3297:
	.size	_ZNSt6vectorIlSaIlEEC2ERKS0_, .-_ZNSt6vectorIlSaIlEEC2ERKS0_
	.weak	_ZNSt6vectorIlSaIlEEC1ERKS0_
	.set	_ZNSt6vectorIlSaIlEEC1ERKS0_,_ZNSt6vectorIlSaIlEEC2ERKS0_
	.section	.text._ZNSt12_Vector_baseIlSaIlEE17_Vector_impl_data12_M_swap_dataERS2_,"axG",@progbits,_ZNSt12_Vector_baseIlSaIlEE17_Vector_impl_data12_M_swap_dataERS2_,comdat
	.align 2
	.weak	_ZNSt12_Vector_baseIlSaIlEE17_Vector_impl_data12_M_swap_dataERS2_
	.type	_ZNSt12_Vector_baseIlSaIlEE17_Vector_impl_data12_M_swap_dataERS2_, @function
_ZNSt12_Vector_baseIlSaIlEE17_Vector_impl_data12_M_swap_dataERS2_:
.LFB3299:
	.loc 7 122 2
	.cfi_startproc
	pushq	%rbp	#
	.cfi_def_cfa_offset 16
	.cfi_offset 6, -16
	movq	%rsp, %rbp	#,
	.cfi_def_cfa_register 6
	subq	$48, %rsp	#,
	movq	%rdi, -40(%rbp)	# this, this
	movq	%rsi, -48(%rbp)	# __x, __x
# /usr/include/c++/12/bits/stl_vector.h:126: 	  _Vector_impl_data __tmp;
	.loc 7 126 22
	leaq	-32(%rbp), %rax	#, tmp82
	movq	%rax, %rdi	# tmp82,
	call	_ZNSt12_Vector_baseIlSaIlEE17_Vector_impl_dataC1Ev	#
# /usr/include/c++/12/bits/stl_vector.h:127: 	  __tmp._M_copy_data(*this);
	.loc 7 127 22
	movq	-40(%rbp), %rdx	# this, tmp83
	leaq	-32(%rbp), %rax	#, tmp84
	movq	%rdx, %rsi	# tmp83,
	movq	%rax, %rdi	# tmp84,
	call	_ZNSt12_Vector_baseIlSaIlEE17_Vector_impl_data12_M_copy_dataERKS2_	#
# /usr/include/c++/12/bits/stl_vector.h:128: 	  _M_copy_data(__x);
	.loc 7 128 16
	movq	-48(%rbp), %rdx	# __x, tmp85
	movq	-40(%rbp), %rax	# this, tmp86
	movq	%rdx, %rsi	# tmp85,
	movq	%rax, %rdi	# tmp86,
	call	_ZNSt12_Vector_baseIlSaIlEE17_Vector_impl_data12_M_copy_dataERKS2_	#
# /usr/include/c++/12/bits/stl_vector.h:129: 	  __x._M_copy_data(__tmp);
	.loc 7 129 20
	leaq	-32(%rbp), %rdx	#, tmp87
	movq	-48(%rbp), %rax	# __x, tmp88
	movq	%rdx, %rsi	# tmp87,
	movq	%rax, %rdi	# tmp88,
	call	_ZNSt12_Vector_baseIlSaIlEE17_Vector_impl_data12_M_copy_dataERKS2_	#
# /usr/include/c++/12/bits/stl_vector.h:130: 	}
	.loc 7 130 2
	nop	
	leave	
	.cfi_def_cfa 7, 8
	ret	
	.cfi_endproc
.LFE3299:
	.size	_ZNSt12_Vector_baseIlSaIlEE17_Vector_impl_data12_M_swap_dataERS2_, .-_ZNSt12_Vector_baseIlSaIlEE17_Vector_impl_data12_M_swap_dataERS2_
	.section	.text._ZSt15__alloc_on_moveISaIlEEvRT_S2_,"axG",@progbits,_ZSt15__alloc_on_moveISaIlEEvRT_S2_,comdat
	.weak	_ZSt15__alloc_on_moveISaIlEEvRT_S2_
	.type	_ZSt15__alloc_on_moveISaIlEEvRT_S2_, @function
_ZSt15__alloc_on_moveISaIlEEvRT_S2_:
.LFB3300:
	.loc 10 710 5
	.cfi_startproc
	pushq	%rbp	#
	.cfi_def_cfa_offset 16
	.cfi_offset 6, -16
	movq	%rsp, %rbp	#,
	.cfi_def_cfa_register 6
	subq	$16, %rsp	#,
	movq	%rdi, -8(%rbp)	# __one, __one
	movq	%rsi, -16(%rbp)	# __two, __two
# /usr/include/c++/12/bits/alloc_traits.h:716: 	__one = std::move(__two);
	.loc 10 716 19
	movq	-16(%rbp), %rax	# __two, tmp82
	movq	%rax, %rdi	# tmp82,
	call	_ZSt4moveIRSaIlEEONSt16remove_referenceIT_E4typeEOS3_	#
# /usr/include/c++/12/bits/alloc_traits.h:720:     }
	.loc 10 720 5
	nop	
	leave	
	.cfi_def_cfa 7, 8
	ret	
	.cfi_endproc
.LFE3300:
	.size	_ZSt15__alloc_on_moveISaIlEEvRT_S2_, .-_ZSt15__alloc_on_moveISaIlEEvRT_S2_
	.section	.text._ZSt12__niter_baseIPKdSt6vectorIdSaIdEEET_N9__gnu_cxx17__normal_iteratorIS5_T0_EE,"axG",@progbits,_ZSt12__niter_baseIPKdSt6vectorIdSaIdEEET_N9__gnu_cxx17__normal_iteratorIS5_T0_EE,comdat
	.weak	_ZSt12__niter_baseIPKdSt6vectorIdSaIdEEET_N9__gnu_cxx17__normal_iteratorIS5_T0_EE
	.type	_ZSt12__niter_baseIPKdSt6vectorIdSaIdEEET_N9__gnu_cxx17__normal_iteratorIS5_T0_EE, @function
_ZSt12__niter_baseIPKdSt6vectorIdSaIdEEET_N9__gnu_cxx17__normal_iteratorIS5_T0_EE:
.LFB3301:
	.loc 18 1353 5
	.cfi_startproc
	pushq	%rbp	#
	.cfi_def_cfa_offset 16
	.cfi_offset 6, -16
	movq	%rsp, %rbp	#,
	.cfi_def_cfa_register 6
	subq	$16, %rsp	#,
	movq	%rdi, -8(%rbp)	# __it, __it
# /usr/include/c++/12/bits/stl_iterator.h:1355:     { return __it.base(); }
	.loc 18 1355 23
	leaq	-8(%rbp), %rax	#, tmp85
	movq	%rax, %rdi	# tmp85,
	call	_ZNK9__gnu_cxx17__normal_iteratorIPKdSt6vectorIdSaIdEEE4baseEv	#
# /usr/include/c++/12/bits/stl_iterator.h:1355:     { return __it.base(); }
	.loc 18 1355 24
	movq	(%rax), %rax	# *_1, _4
# /usr/include/c++/12/bits/stl_iterator.h:1355:     { return __it.base(); }
	.loc 18 1355 27
	leave	
	.cfi_def_cfa 7, 8
	ret	
	.cfi_endproc
.LFE3301:
	.size	_ZSt12__niter_baseIPKdSt6vectorIdSaIdEEET_N9__gnu_cxx17__normal_iteratorIS5_T0_EE, .-_ZSt12__niter_baseIPKdSt6vectorIdSaIdEEET_N9__gnu_cxx17__normal_iteratorIS5_T0_EE
	.section	.text._ZSt12__niter_baseIPdSt6vectorIdSaIdEEET_N9__gnu_cxx17__normal_iteratorIS4_T0_EE,"axG",@progbits,_ZSt12__niter_baseIPdSt6vectorIdSaIdEEET_N9__gnu_cxx17__normal_iteratorIS4_T0_EE,comdat
	.weak	_ZSt12__niter_baseIPdSt6vectorIdSaIdEEET_N9__gnu_cxx17__normal_iteratorIS4_T0_EE
	.type	_ZSt12__niter_baseIPdSt6vectorIdSaIdEEET_N9__gnu_cxx17__normal_iteratorIS4_T0_EE, @function
_ZSt12__niter_baseIPdSt6vectorIdSaIdEEET_N9__gnu_cxx17__normal_iteratorIS4_T0_EE:
.LFB3302:
	.loc 18 1353 5
	.cfi_startproc
	pushq	%rbp	#
	.cfi_def_cfa_offset 16
	.cfi_offset 6, -16
	movq	%rsp, %rbp	#,
	.cfi_def_cfa_register 6
	subq	$16, %rsp	#,
	movq	%rdi, -8(%rbp)	# __it, __it
# /usr/include/c++/12/bits/stl_iterator.h:1355:     { return __it.base(); }
	.loc 18 1355 23
	leaq	-8(%rbp), %rax	#, tmp85
	movq	%rax, %rdi	# tmp85,
	call	_ZNK9__gnu_cxx17__normal_iteratorIPdSt6vectorIdSaIdEEE4baseEv	#
# /usr/include/c++/12/bits/stl_iterator.h:1355:     { return __it.base(); }
	.loc 18 1355 24
	movq	(%rax), %rax	# *_1, _4
# /usr/include/c++/12/bits/stl_iterator.h:1355:     { return __it.base(); }
	.loc 18 1355 27
	leave	
	.cfi_def_cfa 7, 8
	ret	
	.cfi_endproc
.LFE3302:
	.size	_ZSt12__niter_baseIPdSt6vectorIdSaIdEEET_N9__gnu_cxx17__normal_iteratorIS4_T0_EE, .-_ZSt12__niter_baseIPdSt6vectorIdSaIdEEET_N9__gnu_cxx17__normal_iteratorIS4_T0_EE
	.section	.text._ZSt14__copy_move_a1ILb0EPKdPdET1_T0_S4_S3_,"axG",@progbits,_ZSt14__copy_move_a1ILb0EPKdPdET1_T0_S4_S3_,comdat
	.weak	_ZSt14__copy_move_a1ILb0EPKdPdET1_T0_S4_S3_
	.type	_ZSt14__copy_move_a1ILb0EPKdPdET1_T0_S4_S3_, @function
_ZSt14__copy_move_a1ILb0EPKdPdET1_T0_S4_S3_:
.LFB3303:
	.loc 2 521 5
	.cfi_startproc
	pushq	%rbp	#
	.cfi_def_cfa_offset 16
	.cfi_offset 6, -16
	movq	%rsp, %rbp	#,
	.cfi_def_cfa_register 6
	subq	$32, %rsp	#,
	movq	%rdi, -8(%rbp)	# __first, __first
	movq	%rsi, -16(%rbp)	# __last, __last
	movq	%rdx, -24(%rbp)	# __result, __result
# /usr/include/c++/12/bits/stl_algobase.h:522:     { return std::__copy_move_a2<_IsMove>(__first, __last, __result); }
	.loc 2 522 42
	movq	-24(%rbp), %rdx	# __result, tmp84
	movq	-16(%rbp), %rcx	# __last, tmp85
	movq	-8(%rbp), %rax	# __first, tmp86
	movq	%rcx, %rsi	# tmp85,
	movq	%rax, %rdi	# tmp86,
	call	_ZSt14__copy_move_a2ILb0EPKdPdET1_T0_S4_S3_	#
# /usr/include/c++/12/bits/stl_algobase.h:522:     { return std::__copy_move_a2<_IsMove>(__first, __last, __result); }
	.loc 2 522 71
	leave	
	.cfi_def_cfa 7, 8
	ret	
	.cfi_endproc
.LFE3303:
	.size	_ZSt14__copy_move_a1ILb0EPKdPdET1_T0_S4_S3_, .-_ZSt14__copy_move_a1ILb0EPKdPdET1_T0_S4_S3_
	.section	.text._ZSt12__niter_wrapIN9__gnu_cxx17__normal_iteratorIPdSt6vectorIdSaIdEEEES2_ET_S7_T0_,"axG",@progbits,_ZSt12__niter_wrapIN9__gnu_cxx17__normal_iteratorIPdSt6vectorIdSaIdEEEES2_ET_S7_T0_,comdat
	.weak	_ZSt12__niter_wrapIN9__gnu_cxx17__normal_iteratorIPdSt6vectorIdSaIdEEEES2_ET_S7_T0_
	.type	_ZSt12__niter_wrapIN9__gnu_cxx17__normal_iteratorIPdSt6vectorIdSaIdEEEES2_ET_S7_T0_, @function
_ZSt12__niter_wrapIN9__gnu_cxx17__normal_iteratorIPdSt6vectorIdSaIdEEEES2_ET_S7_T0_:
.LFB3304:
	.loc 2 328 5
	.cfi_startproc
	pushq	%rbp	#
	.cfi_def_cfa_offset 16
	.cfi_offset 6, -16
	movq	%rsp, %rbp	#,
	.cfi_def_cfa_register 6
	subq	$16, %rsp	#,
	movq	%rdi, -8(%rbp)	# __from, __from
	movq	%rsi, -16(%rbp)	# __res, __res
# /usr/include/c++/12/bits/stl_algobase.h:329:     { return __from + (__res - std::__niter_base(__from)); }
	.loc 2 329 49
	movq	-8(%rbp), %rax	# __from, tmp87
	movq	%rax, %rdi	# tmp87,
	call	_ZSt12__niter_baseIPdSt6vectorIdSaIdEEET_N9__gnu_cxx17__normal_iteratorIS4_T0_EE	#
# /usr/include/c++/12/bits/stl_algobase.h:329:     { return __from + (__res - std::__niter_base(__from)); }
	.loc 2 329 30
	movq	-16(%rbp), %rdx	# __res, tmp88
	subq	%rax, %rdx	# _1, _2
# /usr/include/c++/12/bits/stl_algobase.h:329:     { return __from + (__res - std::__niter_base(__from)); }
	.loc 2 329 21
	movq	%rdx, %rax	# _2, _2
	sarq	$3, %rax	#, _2
	movq	%rax, %rdx	# tmp89, _3
	leaq	-8(%rbp), %rax	#, tmp90
	movq	%rdx, %rsi	# _3,
	movq	%rax, %rdi	# tmp90,
	call	_ZNK9__gnu_cxx17__normal_iteratorIPdSt6vectorIdSaIdEEEplEl	#
# /usr/include/c++/12/bits/stl_algobase.h:329:     { return __from + (__res - std::__niter_base(__from)); }
	.loc 2 329 60
	leave	
	.cfi_def_cfa 7, 8
	ret	
	.cfi_endproc
.LFE3304:
	.size	_ZSt12__niter_wrapIN9__gnu_cxx17__normal_iteratorIPdSt6vectorIdSaIdEEEES2_ET_S7_T0_, .-_ZSt12__niter_wrapIN9__gnu_cxx17__normal_iteratorIPdSt6vectorIdSaIdEEEES2_ET_S7_T0_
	.section	.text._ZNSt15__new_allocatorIlEC2ERKS0_,"axG",@progbits,_ZNSt15__new_allocatorIlEC5ERKS0_,comdat
	.align 2
	.weak	_ZNSt15__new_allocatorIlEC2ERKS0_
	.type	_ZNSt15__new_allocatorIlEC2ERKS0_, @function
_ZNSt15__new_allocatorIlEC2ERKS0_:
.LFB3306:
	.loc 11 83 7
	.cfi_startproc
	pushq	%rbp	#
	.cfi_def_cfa_offset 16
	.cfi_offset 6, -16
	movq	%rsp, %rbp	#,
	.cfi_def_cfa_register 6
	movq	%rdi, -8(%rbp)	# this, this
	movq	%rsi, -16(%rbp)	# D.53824, D.53824
# /usr/include/c++/12/bits/new_allocator.h:83:       __new_allocator(const __new_allocator&) _GLIBCXX_USE_NOEXCEPT { }
	.loc 11 83 71
	nop	
	popq	%rbp	#
	.cfi_def_cfa 7, 8
	ret	
	.cfi_endproc
.LFE3306:
	.size	_ZNSt15__new_allocatorIlEC2ERKS0_, .-_ZNSt15__new_allocatorIlEC2ERKS0_
	.weak	_ZNSt15__new_allocatorIlEC1ERKS0_
	.set	_ZNSt15__new_allocatorIlEC1ERKS0_,_ZNSt15__new_allocatorIlEC2ERKS0_
	.section	.text._ZSt8distanceIN9__gnu_cxx17__normal_iteratorIPlSt6vectorIlSaIlEEEEENSt15iterator_traitsIT_E15difference_typeES8_S8_,"axG",@progbits,_ZSt8distanceIN9__gnu_cxx17__normal_iteratorIPlSt6vectorIlSaIlEEEEENSt15iterator_traitsIT_E15difference_typeES8_S8_,comdat
	.weak	_ZSt8distanceIN9__gnu_cxx17__normal_iteratorIPlSt6vectorIlSaIlEEEEENSt15iterator_traitsIT_E15difference_typeES8_S8_
	.type	_ZSt8distanceIN9__gnu_cxx17__normal_iteratorIPlSt6vectorIlSaIlEEEEENSt15iterator_traitsIT_E15difference_typeES8_S8_, @function
_ZSt8distanceIN9__gnu_cxx17__normal_iteratorIPlSt6vectorIlSaIlEEEEENSt15iterator_traitsIT_E15difference_typeES8_S8_:
.LFB3308:
	.loc 13 147 5
	.cfi_startproc
	pushq	%rbp	#
	.cfi_def_cfa_offset 16
	.cfi_offset 6, -16
	movq	%rsp, %rbp	#,
	.cfi_def_cfa_register 6
	subq	$16, %rsp	#,
	movq	%rdi, -8(%rbp)	# __first, __first
	movq	%rsi, -16(%rbp)	# __last, __last
# /usr/include/c++/12/bits/stl_iterator_base_funcs.h:151: 			     std::__iterator_category(__first));
	.loc 13 151 33
	leaq	-8(%rbp), %rax	#, tmp85
	movq	%rax, %rdi	# tmp85,
	call	_ZSt19__iterator_categoryIN9__gnu_cxx17__normal_iteratorIPlSt6vectorIlSaIlEEEEENSt15iterator_traitsIT_E17iterator_categoryERKS8_	#
# /usr/include/c++/12/bits/stl_iterator_base_funcs.h:150:       return std::__distance(__first, __last,
	.loc 13 150 29
	movq	-16(%rbp), %rdx	# __last, tmp86
	movq	-8(%rbp), %rax	# __first, tmp87
	movq	%rdx, %rsi	# tmp86,
	movq	%rax, %rdi	# tmp87,
	call	_ZSt10__distanceIN9__gnu_cxx17__normal_iteratorIPlSt6vectorIlSaIlEEEEENSt15iterator_traitsIT_E15difference_typeES8_S8_St26random_access_iterator_tag	#
# /usr/include/c++/12/bits/stl_iterator_base_funcs.h:152:     }
	.loc 13 152 5
	leave	
	.cfi_def_cfa 7, 8
	ret	
	.cfi_endproc
.LFE3308:
	.size	_ZSt8distanceIN9__gnu_cxx17__normal_iteratorIPlSt6vectorIlSaIlEEEEENSt15iterator_traitsIT_E15difference_typeES8_S8_, .-_ZSt8distanceIN9__gnu_cxx17__normal_iteratorIPlSt6vectorIlSaIlEEEEENSt15iterator_traitsIT_E15difference_typeES8_S8_
	.section	.text._ZSt5equalIN9__gnu_cxx17__normal_iteratorIPlSt6vectorIlSaIlEEEES6_EbT_S7_T0_,"axG",@progbits,_ZSt5equalIN9__gnu_cxx17__normal_iteratorIPlSt6vectorIlSaIlEEEES6_EbT_S7_T0_,comdat
	.weak	_ZSt5equalIN9__gnu_cxx17__normal_iteratorIPlSt6vectorIlSaIlEEEES6_EbT_S7_T0_
	.type	_ZSt5equalIN9__gnu_cxx17__normal_iteratorIPlSt6vectorIlSaIlEEEES6_EbT_S7_T0_, @function
_ZSt5equalIN9__gnu_cxx17__normal_iteratorIPlSt6vectorIlSaIlEEEES6_EbT_S7_T0_:
.LFB3309:
	.loc 2 1545 5
	.cfi_startproc
	pushq	%rbp	#
	.cfi_def_cfa_offset 16
	.cfi_offset 6, -16
	movq	%rsp, %rbp	#,
	.cfi_def_cfa_register 6
	subq	$32, %rsp	#,
	movq	%rdi, -8(%rbp)	# __first1, __first1
	movq	%rsi, -16(%rbp)	# __last1, __last1
	movq	%rdx, -24(%rbp)	# __first2, __first2
# /usr/include/c++/12/bits/stl_algobase.h:1555:       return std::__equal_aux(__first1, __last1, __first2);
	.loc 2 1555 30
	movq	-24(%rbp), %rdx	# __first2, tmp84
	movq	-16(%rbp), %rcx	# __last1, tmp85
	movq	-8(%rbp), %rax	# __first1, tmp86
	movq	%rcx, %rsi	# tmp85,
	movq	%rax, %rdi	# tmp86,
	call	_ZSt11__equal_auxIN9__gnu_cxx17__normal_iteratorIPlSt6vectorIlSaIlEEEES6_EbT_S7_T0_	#
# /usr/include/c++/12/bits/stl_algobase.h:1556:     }
	.loc 2 1556 5
	leave	
	.cfi_def_cfa 7, 8
	ret	
	.cfi_endproc
.LFE3309:
	.size	_ZSt5equalIN9__gnu_cxx17__normal_iteratorIPlSt6vectorIlSaIlEEEES6_EbT_S7_T0_, .-_ZSt5equalIN9__gnu_cxx17__normal_iteratorIPlSt6vectorIlSaIlEEEES6_EbT_S7_T0_
	.section	.text._ZN9__gnu_cxxeqIPlSt6vectorIlSaIlEEEEbRKNS_17__normal_iteratorIT_T0_EESA_,"axG",@progbits,_ZN9__gnu_cxxeqIPlSt6vectorIlSaIlEEEEbRKNS_17__normal_iteratorIT_T0_EESA_,comdat
	.weak	_ZN9__gnu_cxxeqIPlSt6vectorIlSaIlEEEEbRKNS_17__normal_iteratorIT_T0_EESA_
	.type	_ZN9__gnu_cxxeqIPlSt6vectorIlSaIlEEEEbRKNS_17__normal_iteratorIT_T0_EESA_, @function
_ZN9__gnu_cxxeqIPlSt6vectorIlSaIlEEEEbRKNS_17__normal_iteratorIT_T0_EESA_:
.LFB3310:
	.loc 18 1221 5
	.cfi_startproc
	pushq	%rbp	#
	.cfi_def_cfa_offset 16
	.cfi_offset 6, -16
	movq	%rsp, %rbp	#,
	.cfi_def_cfa_register 6
	pushq	%rbx	#
	subq	$24, %rsp	#,
	.cfi_offset 3, -24
	movq	%rdi, -24(%rbp)	# __lhs, __lhs
	movq	%rsi, -32(%rbp)	# __rhs, __rhs
# /usr/include/c++/12/bits/stl_iterator.h:1224:     { return __lhs.base() == __rhs.base(); }
	.loc 18 1224 24
	movq	-24(%rbp), %rax	# __lhs, tmp88
	movq	%rax, %rdi	# tmp88,
	call	_ZNK9__gnu_cxx17__normal_iteratorIPlSt6vectorIlSaIlEEE4baseEv	#
# /usr/include/c++/12/bits/stl_iterator.h:1224:     { return __lhs.base() == __rhs.base(); }
	.loc 18 1224 27
	movq	(%rax), %rbx	# *_1, _2
# /usr/include/c++/12/bits/stl_iterator.h:1224:     { return __lhs.base() == __rhs.base(); }
	.loc 18 1224 40
	movq	-32(%rbp), %rax	# __rhs, tmp89
	movq	%rax, %rdi	# tmp89,
	call	_ZNK9__gnu_cxx17__normal_iteratorIPlSt6vectorIlSaIlEEE4baseEv	#
# /usr/include/c++/12/bits/stl_iterator.h:1224:     { return __lhs.base() == __rhs.base(); }
	.loc 18 1224 27
	movq	(%rax), %rax	# *_3, _4
# /usr/include/c++/12/bits/stl_iterator.h:1224:     { return __lhs.base() == __rhs.base(); }
	.loc 18 1224 41
	cmpq	%rax, %rbx	# _4, _2
	sete	%al	#, _10
# /usr/include/c++/12/bits/stl_iterator.h:1224:     { return __lhs.base() == __rhs.base(); }
	.loc 18 1224 44
	movq	-8(%rbp), %rbx	#,
	leave	
	.cfi_def_cfa 7, 8
	ret	
	.cfi_endproc
.LFE3310:
	.size	_ZN9__gnu_cxxeqIPlSt6vectorIlSaIlEEEEbRKNS_17__normal_iteratorIT_T0_EESA_, .-_ZN9__gnu_cxxeqIPlSt6vectorIlSaIlEEEEbRKNS_17__normal_iteratorIT_T0_EESA_
	.section	.text._ZSt14__copy_move_a1ILb1EPKdPdET1_T0_S4_S3_,"axG",@progbits,_ZSt14__copy_move_a1ILb1EPKdPdET1_T0_S4_S3_,comdat
	.weak	_ZSt14__copy_move_a1ILb1EPKdPdET1_T0_S4_S3_
	.type	_ZSt14__copy_move_a1ILb1EPKdPdET1_T0_S4_S3_, @function
_ZSt14__copy_move_a1ILb1EPKdPdET1_T0_S4_S3_:
.LFB3311:
	.loc 2 521 5
	.cfi_startproc
	pushq	%rbp	#
	.cfi_def_cfa_offset 16
	.cfi_offset 6, -16
	movq	%rsp, %rbp	#,
	.cfi_def_cfa_register 6
	subq	$32, %rsp	#,
	movq	%rdi, -8(%rbp)	# __first, __first
	movq	%rsi, -16(%rbp)	# __last, __last
	movq	%rdx, -24(%rbp)	# __result, __result
# /usr/include/c++/12/bits/stl_algobase.h:522:     { return std::__copy_move_a2<_IsMove>(__first, __last, __result); }
	.loc 2 522 42
	movq	-24(%rbp), %rdx	# __result, tmp84
	movq	-16(%rbp), %rcx	# __last, tmp85
	movq	-8(%rbp), %rax	# __first, tmp86
	movq	%rcx, %rsi	# tmp85,
	movq	%rax, %rdi	# tmp86,
	call	_ZSt14__copy_move_a2ILb1EPKdPdET1_T0_S4_S3_	#
# /usr/include/c++/12/bits/stl_algobase.h:522:     { return std::__copy_move_a2<_IsMove>(__first, __last, __result); }
	.loc 2 522 71
	leave	
	.cfi_def_cfa 7, 8
	ret	
	.cfi_endproc
.LFE3311:
	.size	_ZSt14__copy_move_a1ILb1EPKdPdET1_T0_S4_S3_, .-_ZSt14__copy_move_a1ILb1EPKdPdET1_T0_S4_S3_
	.section	.text._ZNSt16allocator_traitsISaIlEE8max_sizeERKS0_,"axG",@progbits,_ZNSt16allocator_traitsISaIlEE8max_sizeERKS0_,comdat
	.weak	_ZNSt16allocator_traitsISaIlEE8max_sizeERKS0_
	.type	_ZNSt16allocator_traitsISaIlEE8max_sizeERKS0_, @function
_ZNSt16allocator_traitsISaIlEE8max_sizeERKS0_:
.LFB3321:
	.loc 10 547 7
	.cfi_startproc
	pushq	%rbp	#
	.cfi_def_cfa_offset 16
	.cfi_offset 6, -16
	movq	%rsp, %rbp	#,
	.cfi_def_cfa_register 6
	subq	$16, %rsp	#,
	movq	%rdi, -8(%rbp)	# __a, __a
# /usr/include/c++/12/bits/alloc_traits.h:550: 	return __a.max_size();
	.loc 10 550 21
	movq	-8(%rbp), %rax	# __a, tmp84
	movq	%rax, %rdi	# tmp84,
	call	_ZNKSt15__new_allocatorIlE8max_sizeEv	#
# /usr/include/c++/12/bits/alloc_traits.h:554:       }
	.loc 10 554 7
	leave	
	.cfi_def_cfa 7, 8
	ret	
	.cfi_endproc
.LFE3321:
	.size	_ZNSt16allocator_traitsISaIlEE8max_sizeERKS0_, .-_ZNSt16allocator_traitsISaIlEE8max_sizeERKS0_
	.section	.text._ZSt3minImERKT_S2_S2_,"axG",@progbits,_ZSt3minImERKT_S2_S2_,comdat
	.weak	_ZSt3minImERKT_S2_S2_
	.type	_ZSt3minImERKT_S2_S2_, @function
_ZSt3minImERKT_S2_S2_:
.LFB3322:
	.loc 2 230 5
	.cfi_startproc
	pushq	%rbp	#
	.cfi_def_cfa_offset 16
	.cfi_offset 6, -16
	movq	%rsp, %rbp	#,
	.cfi_def_cfa_register 6
	movq	%rdi, -8(%rbp)	# __a, __a
	movq	%rsi, -16(%rbp)	# __b, __b
# /usr/include/c++/12/bits/stl_algobase.h:235:       if (__b < __a)
	.loc 2 235 15
	movq	-16(%rbp), %rax	# __b, tmp86
	movq	(%rax), %rdx	# *__b_5(D), _1
	movq	-8(%rbp), %rax	# __a, tmp87
	movq	(%rax), %rax	# *__a_6(D), _2
# /usr/include/c++/12/bits/stl_algobase.h:235:       if (__b < __a)
	.loc 2 235 7
	cmpq	%rax, %rdx	# _2, _1
	jnb	.L327	#,
# /usr/include/c++/12/bits/stl_algobase.h:236: 	return __b;
	.loc 2 236 9
	movq	-16(%rbp), %rax	# __b, _3
	jmp	.L328	#
.L327:
# /usr/include/c++/12/bits/stl_algobase.h:237:       return __a;
	.loc 2 237 14
	movq	-8(%rbp), %rax	# __a, _3
.L328:
# /usr/include/c++/12/bits/stl_algobase.h:238:     }
	.loc 2 238 5
	popq	%rbp	#
	.cfi_def_cfa 7, 8
	ret	
	.cfi_endproc
.LFE3322:
	.size	_ZSt3minImERKT_S2_S2_, .-_ZSt3minImERKT_S2_S2_
	.section	.text._ZNSt15__new_allocatorIlE8allocateEmPKv,"axG",@progbits,_ZNSt15__new_allocatorIlE8allocateEmPKv,comdat
	.align 2
	.weak	_ZNSt15__new_allocatorIlE8allocateEmPKv
	.type	_ZNSt15__new_allocatorIlE8allocateEmPKv, @function
_ZNSt15__new_allocatorIlE8allocateEmPKv:
.LFB3323:
	.loc 11 112 7
	.cfi_startproc
	pushq	%rbp	#
	.cfi_def_cfa_offset 16
	.cfi_offset 6, -16
	movq	%rsp, %rbp	#,
	.cfi_def_cfa_register 6
	subq	$32, %rsp	#,
	movq	%rdi, -8(%rbp)	# this, this
	movq	%rsi, -16(%rbp)	# __n, __n
	movq	%rdx, -24(%rbp)	# D.66906, D.66906
# /usr/include/c++/12/bits/new_allocator.h:120: 	if (__builtin_expect(__n > this->_M_max_size(), false))
	.loc 11 120 46
	movq	-8(%rbp), %rax	# this, tmp90
	movq	%rax, %rdi	# tmp90,
	call	_ZNKSt15__new_allocatorIlE11_M_max_sizeEv	#
# /usr/include/c++/12/bits/new_allocator.h:120: 	if (__builtin_expect(__n > this->_M_max_size(), false))
	.loc 11 120 27
	cmpq	-16(%rbp), %rax	# __n, _1
	setb	%al	#, _2
# /usr/include/c++/12/bits/new_allocator.h:120: 	if (__builtin_expect(__n > this->_M_max_size(), false))
	.loc 11 120 22
	movzbl	%al, %eax	# _2, _3
	testq	%rax, %rax	# _4
	setne	%al	#, retval.4_10
# /usr/include/c++/12/bits/new_allocator.h:120: 	if (__builtin_expect(__n > this->_M_max_size(), false))
	.loc 11 120 2
	testb	%al, %al	# retval.4_10
	je	.L330	#,
# /usr/include/c++/12/bits/new_allocator.h:124: 	    if (__n > (std::size_t(-1) / sizeof(_Tp)))
	.loc 11 124 6
	movabsq	$2305843009213693951, %rax	#, tmp91
	cmpq	-16(%rbp), %rax	# __n, tmp91
	jnb	.L331	#,
# /usr/include/c++/12/bits/new_allocator.h:125: 	      std::__throw_bad_array_new_length();
	.loc 11 125 41
	call	_ZSt28__throw_bad_array_new_lengthv@PLT	#
.L331:
# /usr/include/c++/12/bits/new_allocator.h:126: 	    std::__throw_bad_alloc();
	.loc 11 126 28
	call	_ZSt17__throw_bad_allocv@PLT	#
.L330:
# /usr/include/c++/12/bits/new_allocator.h:137: 	return static_cast<_Tp*>(_GLIBCXX_OPERATOR_NEW(__n * sizeof(_Tp)));
	.loc 11 137 48
	movq	-16(%rbp), %rax	# __n, tmp92
	salq	$3, %rax	#, _6
	movq	%rax, %rdi	# _6,
	call	_Znwm@PLT	#
# /usr/include/c++/12/bits/new_allocator.h:137: 	return static_cast<_Tp*>(_GLIBCXX_OPERATOR_NEW(__n * sizeof(_Tp)));
	.loc 11 137 67
	nop	
# /usr/include/c++/12/bits/new_allocator.h:138:       }
	.loc 11 138 7
	leave	
	.cfi_def_cfa 7, 8
	ret	
	.cfi_endproc
.LFE3323:
	.size	_ZNSt15__new_allocatorIlE8allocateEmPKv, .-_ZNSt15__new_allocatorIlE8allocateEmPKv
	.section	.text._ZNSt20__uninitialized_copyILb1EE13__uninit_copyIPKlPlEET0_T_S6_S5_,"axG",@progbits,_ZNSt20__uninitialized_copyILb1EE13__uninit_copyIPKlPlEET0_T_S6_S5_,comdat
	.weak	_ZNSt20__uninitialized_copyILb1EE13__uninit_copyIPKlPlEET0_T_S6_S5_
	.type	_ZNSt20__uninitialized_copyILb1EE13__uninit_copyIPKlPlEET0_T_S6_S5_, @function
_ZNSt20__uninitialized_copyILb1EE13__uninit_copyIPKlPlEET0_T_S6_S5_:
.LFB3324:
	.loc 17 145 9
	.cfi_startproc
	pushq	%rbp	#
	.cfi_def_cfa_offset 16
	.cfi_offset 6, -16
	movq	%rsp, %rbp	#,
	.cfi_def_cfa_register 6
	subq	$32, %rsp	#,
	movq	%rdi, -8(%rbp)	# __first, __first
	movq	%rsi, -16(%rbp)	# __last, __last
	movq	%rdx, -24(%rbp)	# __result, __result
# /usr/include/c++/12/bits/stl_uninitialized.h:147:         { return std::copy(__first, __last, __result); }
	.loc 17 147 27
	movq	-24(%rbp), %rdx	# __result, tmp84
	movq	-16(%rbp), %rcx	# __last, tmp85
	movq	-8(%rbp), %rax	# __first, tmp86
	movq	%rcx, %rsi	# tmp85,
	movq	%rax, %rdi	# tmp86,
	call	_ZSt4copyIPKlPlET0_T_S4_S3_	#
# /usr/include/c++/12/bits/stl_uninitialized.h:147:         { return std::copy(__first, __last, __result); }
	.loc 17 147 56
	leave	
	.cfi_def_cfa 7, 8
	ret	
	.cfi_endproc
.LFE3324:
	.size	_ZNSt20__uninitialized_copyILb1EE13__uninit_copyIPKlPlEET0_T_S6_S5_, .-_ZNSt20__uninitialized_copyILb1EE13__uninit_copyIPKlPlEET0_T_S6_S5_
	.section	.text._ZNSt6vectorIdSaIdEE11_S_max_sizeERKS0_,"axG",@progbits,_ZNSt6vectorIdSaIdEE11_S_max_sizeERKS0_,comdat
	.weak	_ZNSt6vectorIdSaIdEE11_S_max_sizeERKS0_
	.type	_ZNSt6vectorIdSaIdEE11_S_max_sizeERKS0_, @function
_ZNSt6vectorIdSaIdEE11_S_max_sizeERKS0_:
.LFB3325:
	.loc 7 1911 7
	.cfi_startproc
	pushq	%rbp	#
	.cfi_def_cfa_offset 16
	.cfi_offset 6, -16
	movq	%rsp, %rbp	#,
	.cfi_def_cfa_register 6
	subq	$32, %rsp	#,
	movq	%rdi, -24(%rbp)	# __a, __a
# /usr/include/c++/12/bits/stl_vector.h:1916: 	const size_t __diffmax
	.loc 7 1916 15
	movabsq	$1152921504606846975, %rax	#, tmp91
	movq	%rax, -8(%rbp)	# tmp91, __diffmax
# /usr/include/c++/12/bits/stl_vector.h:1918: 	const size_t __allocmax = _Alloc_traits::max_size(__a);
	.loc 7 1918 51
	movq	-24(%rbp), %rax	# __a, tmp86
	movq	%rax, %rdi	# tmp86,
	call	_ZNSt16allocator_traitsISaIdEE8max_sizeERKS0_	#
# /usr/include/c++/12/bits/stl_vector.h:1918: 	const size_t __allocmax = _Alloc_traits::max_size(__a);
	.loc 7 1918 15
	movq	%rax, -16(%rbp)	# _1, __allocmax
# /usr/include/c++/12/bits/stl_vector.h:1919: 	return (std::min)(__diffmax, __allocmax);
	.loc 7 1919 19
	leaq	-16(%rbp), %rdx	#, tmp87
	leaq	-8(%rbp), %rax	#, tmp88
	movq	%rdx, %rsi	# tmp87,
	movq	%rax, %rdi	# tmp88,
	call	_ZSt3minImERKT_S2_S2_	#
# /usr/include/c++/12/bits/stl_vector.h:1919: 	return (std::min)(__diffmax, __allocmax);
	.loc 7 1919 41
	movq	(%rax), %rax	# *_2, _9
# /usr/include/c++/12/bits/stl_vector.h:1920:       }
	.loc 7 1920 7
	leave	
	.cfi_def_cfa 7, 8
	ret	
	.cfi_endproc
.LFE3325:
	.size	_ZNSt6vectorIdSaIdEE11_S_max_sizeERKS0_, .-_ZNSt6vectorIdSaIdEE11_S_max_sizeERKS0_
	.section	.text._ZNKSt12_Vector_baseIdSaIdEE19_M_get_Tp_allocatorEv,"axG",@progbits,_ZNKSt12_Vector_baseIdSaIdEE19_M_get_Tp_allocatorEv,comdat
	.align 2
	.weak	_ZNKSt12_Vector_baseIdSaIdEE19_M_get_Tp_allocatorEv
	.type	_ZNKSt12_Vector_baseIdSaIdEE19_M_get_Tp_allocatorEv, @function
_ZNKSt12_Vector_baseIdSaIdEE19_M_get_Tp_allocatorEv:
.LFB3326:
	.loc 7 303 7
	.cfi_startproc
	pushq	%rbp	#
	.cfi_def_cfa_offset 16
	.cfi_offset 6, -16
	movq	%rsp, %rbp	#,
	.cfi_def_cfa_register 6
	movq	%rdi, -8(%rbp)	# this, this
# /usr/include/c++/12/bits/stl_vector.h:304:       { return this->_M_impl; }
	.loc 7 304 22
	movq	-8(%rbp), %rax	# this, _2
# /usr/include/c++/12/bits/stl_vector.h:304:       { return this->_M_impl; }
	.loc 7 304 31
	popq	%rbp	#
	.cfi_def_cfa 7, 8
	ret	
	.cfi_endproc
.LFE3326:
	.size	_ZNKSt12_Vector_baseIdSaIdEE19_M_get_Tp_allocatorEv, .-_ZNKSt12_Vector_baseIdSaIdEE19_M_get_Tp_allocatorEv
	.section	.text._ZSt25__uninitialized_default_nIPdmET_S1_T0_,"axG",@progbits,_ZSt25__uninitialized_default_nIPdmET_S1_T0_,comdat
	.weak	_ZSt25__uninitialized_default_nIPdmET_S1_T0_
	.type	_ZSt25__uninitialized_default_nIPdmET_S1_T0_, @function
_ZSt25__uninitialized_default_nIPdmET_S1_T0_:
.LFB3327:
	.loc 17 691 5
	.cfi_startproc
	pushq	%rbp	#
	.cfi_def_cfa_offset 16
	.cfi_offset 6, -16
	movq	%rsp, %rbp	#,
	.cfi_def_cfa_register 6
	subq	$32, %rsp	#,
	movq	%rdi, -24(%rbp)	# __first, __first
	movq	%rsi, -32(%rbp)	# __n, __n
# /usr/include/c++/12/bits/stl_uninitialized.h:696:       constexpr bool __can_fill
	.loc 17 696 22
	movb	$1, -1(%rbp)	#, __can_fill
# /usr/include/c++/12/bits/stl_uninitialized.h:701: 	__uninit_default_n(__first, __n);
	.loc 17 701 20
	movq	-32(%rbp), %rdx	# __n, tmp84
	movq	-24(%rbp), %rax	# __first, tmp85
	movq	%rdx, %rsi	# tmp84,
	movq	%rax, %rdi	# tmp85,
	call	_ZNSt27__uninitialized_default_n_1ILb1EE18__uninit_default_nIPdmEET_S3_T0_	#
# /usr/include/c++/12/bits/stl_uninitialized.h:702:     }
	.loc 17 702 5
	leave	
	.cfi_def_cfa 7, 8
	ret	
	.cfi_endproc
.LFE3327:
	.size	_ZSt25__uninitialized_default_nIPdmET_S1_T0_, .-_ZSt25__uninitialized_default_nIPdmET_S1_T0_
	.section	.text._ZSt3maxImERKT_S2_S2_,"axG",@progbits,_ZSt3maxImERKT_S2_S2_,comdat
	.weak	_ZSt3maxImERKT_S2_S2_
	.type	_ZSt3maxImERKT_S2_S2_, @function
_ZSt3maxImERKT_S2_S2_:
.LFB3328:
	.loc 2 254 5
	.cfi_startproc
	pushq	%rbp	#
	.cfi_def_cfa_offset 16
	.cfi_offset 6, -16
	movq	%rsp, %rbp	#,
	.cfi_def_cfa_register 6
	movq	%rdi, -8(%rbp)	# __a, __a
	movq	%rsi, -16(%rbp)	# __b, __b
# /usr/include/c++/12/bits/stl_algobase.h:259:       if (__a < __b)
	.loc 2 259 15
	movq	-8(%rbp), %rax	# __a, tmp86
	movq	(%rax), %rdx	# *__a_5(D), _1
	movq	-16(%rbp), %rax	# __b, tmp87
	movq	(%rax), %rax	# *__b_6(D), _2
# /usr/include/c++/12/bits/stl_algobase.h:259:       if (__a < __b)
	.loc 2 259 7
	cmpq	%rax, %rdx	# _2, _1
	jnb	.L342	#,
# /usr/include/c++/12/bits/stl_algobase.h:260: 	return __b;
	.loc 2 260 9
	movq	-16(%rbp), %rax	# __b, _3
	jmp	.L343	#
.L342:
# /usr/include/c++/12/bits/stl_algobase.h:261:       return __a;
	.loc 2 261 14
	movq	-8(%rbp), %rax	# __a, _3
.L343:
# /usr/include/c++/12/bits/stl_algobase.h:262:     }
	.loc 2 262 5
	popq	%rbp	#
	.cfi_def_cfa 7, 8
	ret	
	.cfi_endproc
.LFE3328:
	.size	_ZSt3maxImERKT_S2_S2_, .-_ZSt3maxImERKT_S2_S2_
	.section	.text._ZNSt16allocator_traitsISaIdEE8allocateERS0_m,"axG",@progbits,_ZNSt16allocator_traitsISaIdEE8allocateERS0_m,comdat
	.weak	_ZNSt16allocator_traitsISaIdEE8allocateERS0_m
	.type	_ZNSt16allocator_traitsISaIdEE8allocateERS0_m, @function
_ZNSt16allocator_traitsISaIdEE8allocateERS0_m:
.LFB3329:
	.loc 10 463 7
	.cfi_startproc
	pushq	%rbp	#
	.cfi_def_cfa_offset 16
	.cfi_offset 6, -16
	movq	%rsp, %rbp	#,
	.cfi_def_cfa_register 6
	subq	$16, %rsp	#,
	movq	%rdi, -8(%rbp)	# __a, __a
	movq	%rsi, -16(%rbp)	# __n, __n
# /usr/include/c++/12/bits/alloc_traits.h:464:       { return __a.allocate(__n); }
	.loc 10 464 28
	movq	-16(%rbp), %rcx	# __n, tmp84
	movq	-8(%rbp), %rax	# __a, tmp85
	movl	$0, %edx	#,
	movq	%rcx, %rsi	# tmp84,
	movq	%rax, %rdi	# tmp85,
	call	_ZNSt15__new_allocatorIdE8allocateEmPKv	#
# /usr/include/c++/12/bits/alloc_traits.h:464:       { return __a.allocate(__n); }
	.loc 10 464 35
	leave	
	.cfi_def_cfa 7, 8
	ret	
	.cfi_endproc
.LFE3329:
	.size	_ZNSt16allocator_traitsISaIdEE8allocateERS0_m, .-_ZNSt16allocator_traitsISaIdEE8allocateERS0_m
	.section	.text._ZSt12__relocate_aIPdS0_SaIdEET0_T_S3_S2_RT1_,"axG",@progbits,_ZSt12__relocate_aIPdS0_SaIdEET0_T_S3_S2_RT1_,comdat
	.weak	_ZSt12__relocate_aIPdS0_SaIdEET0_T_S3_S2_RT1_
	.type	_ZSt12__relocate_aIPdS0_SaIdEET0_T_S3_S2_RT1_, @function
_ZSt12__relocate_aIPdS0_SaIdEET0_T_S3_S2_RT1_:
.LFB3330:
	.loc 17 1127 5
	.cfi_startproc
	pushq	%rbp	#
	.cfi_def_cfa_offset 16
	.cfi_offset 6, -16
	movq	%rsp, %rbp	#,
	.cfi_def_cfa_register 6
	pushq	%r12	#
	pushq	%rbx	#
	subq	$32, %rsp	#,
	.cfi_offset 12, -24
	.cfi_offset 3, -32
	movq	%rdi, -24(%rbp)	# __first, __first
	movq	%rsi, -32(%rbp)	# __last, __last
	movq	%rdx, -40(%rbp)	# __result, __result
	movq	%rcx, -48(%rbp)	# __alloc, __alloc
# /usr/include/c++/12/bits/stl_uninitialized.h:1133:       return std::__relocate_a_1(std::__niter_base(__first),
	.loc 17 1133 33
	movq	-40(%rbp), %rax	# __result, tmp87
	movq	%rax, %rdi	# tmp87,
	call	_ZSt12__niter_baseIPdET_S1_	#
	movq	%rax, %r12	#, _1
	movq	-32(%rbp), %rax	# __last, tmp88
	movq	%rax, %rdi	# tmp88,
	call	_ZSt12__niter_baseIPdET_S1_	#
	movq	%rax, %rbx	#, _2
	movq	-24(%rbp), %rax	# __first, tmp89
	movq	%rax, %rdi	# tmp89,
	call	_ZSt12__niter_baseIPdET_S1_	#
	movq	%rax, %rdi	#, _3
	movq	-48(%rbp), %rax	# __alloc, tmp90
	movq	%rax, %rcx	# tmp90,
	movq	%r12, %rdx	# _1,
	movq	%rbx, %rsi	# _2,
	call	_ZSt14__relocate_a_1IddENSt9enable_ifIXsrSt24__is_bitwise_relocatableIT_vE5valueEPS2_E4typeES4_S4_S4_RSaIT0_E	#
# /usr/include/c++/12/bits/stl_uninitialized.h:1136:     }
	.loc 17 1136 5
	addq	$32, %rsp	#,
	popq	%rbx	#
	popq	%r12	#
	popq	%rbp	#
	.cfi_def_cfa 7, 8
	ret	
	.cfi_endproc
.LFE3330:
	.size	_ZSt12__relocate_aIPdS0_SaIdEET0_T_S3_S2_RT1_, .-_ZSt12__relocate_aIPdS0_SaIdEET0_T_S3_S2_RT1_
	.section	.text._ZNSt16allocator_traitsISaIlEE37select_on_container_copy_constructionERKS0_,"axG",@progbits,_ZNSt16allocator_traitsISaIlEE37select_on_container_copy_constructionERKS0_,comdat
	.weak	_ZNSt16allocator_traitsISaIlEE37select_on_container_copy_constructionERKS0_
	.type	_ZNSt16allocator_traitsISaIlEE37select_on_container_copy_constructionERKS0_, @function
_ZNSt16allocator_traitsISaIlEE37select_on_container_copy_constructionERKS0_:
.LFB3331:
	.loc 10 562 7
	.cfi_startproc
	pushq	%rbp	#
	.cfi_def_cfa_offset 16
	.cfi_offset 6, -16
	movq	%rsp, %rbp	#,
	.cfi_def_cfa_register 6
	subq	$16, %rsp	#,
	movq	%rdi, -8(%rbp)	# .result_ptr, .result_ptr
	movq	%rsi, -16(%rbp)	# __rhs, __rhs
# /usr/include/c++/12/bits/alloc_traits.h:563:       { return __rhs; }
	.loc 10 563 16
	movq	-16(%rbp), %rdx	# __rhs, tmp82
	movq	-8(%rbp), %rax	# <retval>, tmp83
	movq	%rdx, %rsi	# tmp82,
	movq	%rax, %rdi	# tmp83,
	call	_ZNSaIlEC1ERKS_	#
# /usr/include/c++/12/bits/alloc_traits.h:563:       { return __rhs; }
	.loc 10 563 23
	movq	-8(%rbp), %rax	# <retval>,
	leave	
	.cfi_def_cfa 7, 8
	ret	
	.cfi_endproc
.LFE3331:
	.size	_ZNSt16allocator_traitsISaIlEE37select_on_container_copy_constructionERKS0_, .-_ZNSt16allocator_traitsISaIlEE37select_on_container_copy_constructionERKS0_
	.section	.text._ZNSt12_Vector_baseIlSaIlEE17_M_create_storageEm,"axG",@progbits,_ZNSt12_Vector_baseIlSaIlEE17_M_create_storageEm,comdat
	.align 2
	.weak	_ZNSt12_Vector_baseIlSaIlEE17_M_create_storageEm
	.type	_ZNSt12_Vector_baseIlSaIlEE17_M_create_storageEm, @function
_ZNSt12_Vector_baseIlSaIlEE17_M_create_storageEm:
.LFB3332:
	.loc 7 393 7
	.cfi_startproc
	pushq	%rbp	#
	.cfi_def_cfa_offset 16
	.cfi_offset 6, -16
	movq	%rsp, %rbp	#,
	.cfi_def_cfa_register 6
	subq	$16, %rsp	#,
	movq	%rdi, -8(%rbp)	# this, this
	movq	%rsi, -16(%rbp)	# __n, __n
# /usr/include/c++/12/bits/stl_vector.h:395: 	this->_M_impl._M_start = this->_M_allocate(__n);
	.loc 7 395 44
	movq	-16(%rbp), %rdx	# __n, tmp87
	movq	-8(%rbp), %rax	# this, tmp88
	movq	%rdx, %rsi	# tmp87,
	movq	%rax, %rdi	# tmp88,
	call	_ZNSt12_Vector_baseIlSaIlEE11_M_allocateEm	#
# /usr/include/c++/12/bits/stl_vector.h:395: 	this->_M_impl._M_start = this->_M_allocate(__n);
	.loc 7 395 25
	movq	-8(%rbp), %rdx	# this, tmp89
	movq	%rax, (%rdx)	# _1, this_7(D)->_M_impl.D.54123._M_start
# /usr/include/c++/12/bits/stl_vector.h:396: 	this->_M_impl._M_finish = this->_M_impl._M_start;
	.loc 7 396 42
	movq	-8(%rbp), %rax	# this, tmp90
	movq	(%rax), %rdx	# this_7(D)->_M_impl.D.54123._M_start, _2
# /usr/include/c++/12/bits/stl_vector.h:396: 	this->_M_impl._M_finish = this->_M_impl._M_start;
	.loc 7 396 26
	movq	-8(%rbp), %rax	# this, tmp91
	movq	%rdx, 8(%rax)	# _2, this_7(D)->_M_impl.D.54123._M_finish
# /usr/include/c++/12/bits/stl_vector.h:397: 	this->_M_impl._M_end_of_storage = this->_M_impl._M_start + __n;
	.loc 7 397 50
	movq	-8(%rbp), %rax	# this, tmp92
	movq	(%rax), %rax	# this_7(D)->_M_impl.D.54123._M_start, _3
# /usr/include/c++/12/bits/stl_vector.h:397: 	this->_M_impl._M_end_of_storage = this->_M_impl._M_start + __n;
	.loc 7 397 59
	movq	-16(%rbp), %rdx	# __n, tmp93
	salq	$3, %rdx	#, _4
	addq	%rax, %rdx	# _3, _5
# /usr/include/c++/12/bits/stl_vector.h:397: 	this->_M_impl._M_end_of_storage = this->_M_impl._M_start + __n;
	.loc 7 397 34
	movq	-8(%rbp), %rax	# this, tmp94
	movq	%rdx, 16(%rax)	# _5, this_7(D)->_M_impl.D.54123._M_end_of_storage
# /usr/include/c++/12/bits/stl_vector.h:398:       }
	.loc 7 398 7
	nop	
	leave	
	.cfi_def_cfa 7, 8
	ret	
	.cfi_endproc
.LFE3332:
	.size	_ZNSt12_Vector_baseIlSaIlEE17_M_create_storageEm, .-_ZNSt12_Vector_baseIlSaIlEE17_M_create_storageEm
	.section	.text._ZN9__gnu_cxx17__normal_iteratorIPKlSt6vectorIlSaIlEEEC2ERKS2_,"axG",@progbits,_ZN9__gnu_cxx17__normal_iteratorIPKlSt6vectorIlSaIlEEEC5ERKS2_,comdat
	.align 2
	.weak	_ZN9__gnu_cxx17__normal_iteratorIPKlSt6vectorIlSaIlEEEC2ERKS2_
	.type	_ZN9__gnu_cxx17__normal_iteratorIPKlSt6vectorIlSaIlEEEC2ERKS2_, @function
_ZN9__gnu_cxx17__normal_iteratorIPKlSt6vectorIlSaIlEEEC2ERKS2_:
.LFB3334:
	.loc 18 1072 7
	.cfi_startproc
	pushq	%rbp	#
	.cfi_def_cfa_offset 16
	.cfi_offset 6, -16
	movq	%rsp, %rbp	#,
	.cfi_def_cfa_register 6
	movq	%rdi, -8(%rbp)	# this, this
	movq	%rsi, -16(%rbp)	# __i, __i
.LBB59:
# /usr/include/c++/12/bits/stl_iterator.h:1073:       : _M_current(__i) { }
	.loc 18 1073 9
	movq	-16(%rbp), %rax	# __i, tmp83
	movq	(%rax), %rdx	# *__i_5(D), _1
	movq	-8(%rbp), %rax	# this, tmp84
	movq	%rdx, (%rax)	# _1, this_3(D)->_M_current
.LBE59:
# /usr/include/c++/12/bits/stl_iterator.h:1073:       : _M_current(__i) { }
	.loc 18 1073 27
	nop	
	popq	%rbp	#
	.cfi_def_cfa 7, 8
	ret	
	.cfi_endproc
.LFE3334:
	.size	_ZN9__gnu_cxx17__normal_iteratorIPKlSt6vectorIlSaIlEEEC2ERKS2_, .-_ZN9__gnu_cxx17__normal_iteratorIPKlSt6vectorIlSaIlEEEC2ERKS2_
	.weak	_ZN9__gnu_cxx17__normal_iteratorIPKlSt6vectorIlSaIlEEEC1ERKS2_
	.set	_ZN9__gnu_cxx17__normal_iteratorIPKlSt6vectorIlSaIlEEEC1ERKS2_,_ZN9__gnu_cxx17__normal_iteratorIPKlSt6vectorIlSaIlEEEC2ERKS2_
	.section	.text._ZSt18uninitialized_copyIN9__gnu_cxx17__normal_iteratorIPKlSt6vectorIlSaIlEEEEPlET0_T_SA_S9_,"axG",@progbits,_ZSt18uninitialized_copyIN9__gnu_cxx17__normal_iteratorIPKlSt6vectorIlSaIlEEEEPlET0_T_SA_S9_,comdat
	.weak	_ZSt18uninitialized_copyIN9__gnu_cxx17__normal_iteratorIPKlSt6vectorIlSaIlEEEEPlET0_T_SA_S9_
	.type	_ZSt18uninitialized_copyIN9__gnu_cxx17__normal_iteratorIPKlSt6vectorIlSaIlEEEEPlET0_T_SA_S9_, @function
_ZSt18uninitialized_copyIN9__gnu_cxx17__normal_iteratorIPKlSt6vectorIlSaIlEEEEPlET0_T_SA_S9_:
.LFB3336:
	.loc 17 163 5
	.cfi_startproc
	pushq	%rbp	#
	.cfi_def_cfa_offset 16
	.cfi_offset 6, -16
	movq	%rsp, %rbp	#,
	.cfi_def_cfa_register 6
	subq	$48, %rsp	#,
	movq	%rdi, -24(%rbp)	# __first, __first
	movq	%rsi, -32(%rbp)	# __last, __last
	movq	%rdx, -40(%rbp)	# __result, __result
# /usr/include/c++/12/bits/stl_uninitialized.h:174:       const bool __can_memmove = __is_trivial(_ValueType1);
	.loc 17 174 18
	movb	$1, -1(%rbp)	#, __can_memmove
# /usr/include/c++/12/bits/stl_uninitialized.h:181:       const bool __assignable
	.loc 17 181 18
	movb	$1, -2(%rbp)	#, __assignable
# /usr/include/c++/12/bits/stl_uninitialized.h:185: 	__uninit_copy(__first, __last, __result);
	.loc 17 185 15
	movq	-40(%rbp), %rdx	# __result, tmp84
	movq	-32(%rbp), %rcx	# __last, tmp85
	movq	-24(%rbp), %rax	# __first, tmp86
	movq	%rcx, %rsi	# tmp85,
	movq	%rax, %rdi	# tmp86,
	call	_ZNSt20__uninitialized_copyILb1EE13__uninit_copyIN9__gnu_cxx17__normal_iteratorIPKlSt6vectorIlSaIlEEEEPlEET0_T_SC_SB_	#
# /usr/include/c++/12/bits/stl_uninitialized.h:186:     }
	.loc 17 186 5
	leave	
	.cfi_def_cfa 7, 8
	ret	
	.cfi_endproc
.LFE3336:
	.size	_ZSt18uninitialized_copyIN9__gnu_cxx17__normal_iteratorIPKlSt6vectorIlSaIlEEEEPlET0_T_SA_S9_, .-_ZSt18uninitialized_copyIN9__gnu_cxx17__normal_iteratorIPKlSt6vectorIlSaIlEEEEPlET0_T_SA_S9_
	.section	.text._ZNSt12_Vector_baseIlSaIlEE17_Vector_impl_data12_M_copy_dataERKS2_,"axG",@progbits,_ZNSt12_Vector_baseIlSaIlEE17_Vector_impl_data12_M_copy_dataERKS2_,comdat
	.align 2
	.weak	_ZNSt12_Vector_baseIlSaIlEE17_Vector_impl_data12_M_copy_dataERKS2_
	.type	_ZNSt12_Vector_baseIlSaIlEE17_Vector_impl_data12_M_copy_dataERKS2_, @function
_ZNSt12_Vector_baseIlSaIlEE17_Vector_impl_data12_M_copy_dataERKS2_:
.LFB3337:
	.loc 7 113 2
	.cfi_startproc
	pushq	%rbp	#
	.cfi_def_cfa_offset 16
	.cfi_offset 6, -16
	movq	%rsp, %rbp	#,
	.cfi_def_cfa_register 6
	movq	%rdi, -8(%rbp)	# this, this
	movq	%rsi, -16(%rbp)	# __x, __x
# /usr/include/c++/12/bits/stl_vector.h:115: 	  _M_start = __x._M_start;
	.loc 7 115 19
	movq	-16(%rbp), %rax	# __x, tmp85
	movq	(%rax), %rdx	# __x_5(D)->_M_start, _1
# /usr/include/c++/12/bits/stl_vector.h:115: 	  _M_start = __x._M_start;
	.loc 7 115 13
	movq	-8(%rbp), %rax	# this, tmp86
	movq	%rdx, (%rax)	# _1, this_6(D)->_M_start
# /usr/include/c++/12/bits/stl_vector.h:116: 	  _M_finish = __x._M_finish;
	.loc 7 116 20
	movq	-16(%rbp), %rax	# __x, tmp87
	movq	8(%rax), %rdx	# __x_5(D)->_M_finish, _2
# /usr/include/c++/12/bits/stl_vector.h:116: 	  _M_finish = __x._M_finish;
	.loc 7 116 14
	movq	-8(%rbp), %rax	# this, tmp88
	movq	%rdx, 8(%rax)	# _2, this_6(D)->_M_finish
# /usr/include/c++/12/bits/stl_vector.h:117: 	  _M_end_of_storage = __x._M_end_of_storage;
	.loc 7 117 28
	movq	-16(%rbp), %rax	# __x, tmp89
	movq	16(%rax), %rdx	# __x_5(D)->_M_end_of_storage, _3
# /usr/include/c++/12/bits/stl_vector.h:117: 	  _M_end_of_storage = __x._M_end_of_storage;
	.loc 7 117 22
	movq	-8(%rbp), %rax	# this, tmp90
	movq	%rdx, 16(%rax)	# _3, this_6(D)->_M_end_of_storage
# /usr/include/c++/12/bits/stl_vector.h:118: 	}
	.loc 7 118 2
	nop	
	popq	%rbp	#
	.cfi_def_cfa 7, 8
	ret	
	.cfi_endproc
.LFE3337:
	.size	_ZNSt12_Vector_baseIlSaIlEE17_Vector_impl_data12_M_copy_dataERKS2_, .-_ZNSt12_Vector_baseIlSaIlEE17_Vector_impl_data12_M_copy_dataERKS2_
	.section	.text._ZSt4moveIRSaIlEEONSt16remove_referenceIT_E4typeEOS3_,"axG",@progbits,_ZSt4moveIRSaIlEEONSt16remove_referenceIT_E4typeEOS3_,comdat
	.weak	_ZSt4moveIRSaIlEEONSt16remove_referenceIT_E4typeEOS3_
	.type	_ZSt4moveIRSaIlEEONSt16remove_referenceIT_E4typeEOS3_, @function
_ZSt4moveIRSaIlEEONSt16remove_referenceIT_E4typeEOS3_:
.LFB3338:
	.loc 8 104 5
	.cfi_startproc
	pushq	%rbp	#
	.cfi_def_cfa_offset 16
	.cfi_offset 6, -16
	movq	%rsp, %rbp	#,
	.cfi_def_cfa_register 6
	movq	%rdi, -8(%rbp)	# __t, __t
# /usr/include/c++/12/bits/move.h:105:     { return static_cast<typename std::remove_reference<_Tp>::type&&>(__t); }
	.loc 8 105 74
	movq	-8(%rbp), %rax	# __t, _2
# /usr/include/c++/12/bits/move.h:105:     { return static_cast<typename std::remove_reference<_Tp>::type&&>(__t); }
	.loc 8 105 77
	popq	%rbp	#
	.cfi_def_cfa 7, 8
	ret	
	.cfi_endproc
.LFE3338:
	.size	_ZSt4moveIRSaIlEEONSt16remove_referenceIT_E4typeEOS3_, .-_ZSt4moveIRSaIlEEONSt16remove_referenceIT_E4typeEOS3_
	.section	.text._ZNK9__gnu_cxx17__normal_iteratorIPKdSt6vectorIdSaIdEEE4baseEv,"axG",@progbits,_ZNK9__gnu_cxx17__normal_iteratorIPKdSt6vectorIdSaIdEEE4baseEv,comdat
	.align 2
	.weak	_ZNK9__gnu_cxx17__normal_iteratorIPKdSt6vectorIdSaIdEEE4baseEv
	.type	_ZNK9__gnu_cxx17__normal_iteratorIPKdSt6vectorIdSaIdEEE4baseEv, @function
_ZNK9__gnu_cxx17__normal_iteratorIPKdSt6vectorIdSaIdEEE4baseEv:
.LFB3339:
	.loc 18 1158 7
	.cfi_startproc
	pushq	%rbp	#
	.cfi_def_cfa_offset 16
	.cfi_offset 6, -16
	movq	%rsp, %rbp	#,
	.cfi_def_cfa_register 6
	movq	%rdi, -8(%rbp)	# this, this
# /usr/include/c++/12/bits/stl_iterator.h:1159:       { return _M_current; }
	.loc 18 1159 16
	movq	-8(%rbp), %rax	# this, _2
# /usr/include/c++/12/bits/stl_iterator.h:1159:       { return _M_current; }
	.loc 18 1159 28
	popq	%rbp	#
	.cfi_def_cfa 7, 8
	ret	
	.cfi_endproc
.LFE3339:
	.size	_ZNK9__gnu_cxx17__normal_iteratorIPKdSt6vectorIdSaIdEEE4baseEv, .-_ZNK9__gnu_cxx17__normal_iteratorIPKdSt6vectorIdSaIdEEE4baseEv
	.section	.text._ZNK9__gnu_cxx17__normal_iteratorIPdSt6vectorIdSaIdEEE4baseEv,"axG",@progbits,_ZNK9__gnu_cxx17__normal_iteratorIPdSt6vectorIdSaIdEEE4baseEv,comdat
	.align 2
	.weak	_ZNK9__gnu_cxx17__normal_iteratorIPdSt6vectorIdSaIdEEE4baseEv
	.type	_ZNK9__gnu_cxx17__normal_iteratorIPdSt6vectorIdSaIdEEE4baseEv, @function
_ZNK9__gnu_cxx17__normal_iteratorIPdSt6vectorIdSaIdEEE4baseEv:
.LFB3340:
	.loc 18 1158 7
	.cfi_startproc
	pushq	%rbp	#
	.cfi_def_cfa_offset 16
	.cfi_offset 6, -16
	movq	%rsp, %rbp	#,
	.cfi_def_cfa_register 6
	movq	%rdi, -8(%rbp)	# this, this
# /usr/include/c++/12/bits/stl_iterator.h:1159:       { return _M_current; }
	.loc 18 1159 16
	movq	-8(%rbp), %rax	# this, _2
# /usr/include/c++/12/bits/stl_iterator.h:1159:       { return _M_current; }
	.loc 18 1159 28
	popq	%rbp	#
	.cfi_def_cfa 7, 8
	ret	
	.cfi_endproc
.LFE3340:
	.size	_ZNK9__gnu_cxx17__normal_iteratorIPdSt6vectorIdSaIdEEE4baseEv, .-_ZNK9__gnu_cxx17__normal_iteratorIPdSt6vectorIdSaIdEEE4baseEv
	.section	.text._ZSt14__copy_move_a2ILb0EPKdPdET1_T0_S4_S3_,"axG",@progbits,_ZSt14__copy_move_a2ILb0EPKdPdET1_T0_S4_S3_,comdat
	.weak	_ZSt14__copy_move_a2ILb0EPKdPdET1_T0_S4_S3_
	.type	_ZSt14__copy_move_a2ILb0EPKdPdET1_T0_S4_S3_, @function
_ZSt14__copy_move_a2ILb0EPKdPdET1_T0_S4_S3_:
.LFB3341:
	.loc 2 486 5
	.cfi_startproc
	pushq	%rbp	#
	.cfi_def_cfa_offset 16
	.cfi_offset 6, -16
	movq	%rsp, %rbp	#,
	.cfi_def_cfa_register 6
	subq	$32, %rsp	#,
	movq	%rdi, -8(%rbp)	# __first, __first
	movq	%rsi, -16(%rbp)	# __last, __last
	movq	%rdx, -24(%rbp)	# __result, __result
# /usr/include/c++/12/bits/stl_algobase.h:495: 			      _Category>::__copy_m(__first, __last, __result);
	.loc 2 495 30
	movq	-24(%rbp), %rdx	# __result, tmp84
	movq	-16(%rbp), %rcx	# __last, tmp85
	movq	-8(%rbp), %rax	# __first, tmp86
	movq	%rcx, %rsi	# tmp85,
	movq	%rax, %rdi	# tmp86,
	call	_ZNSt11__copy_moveILb0ELb1ESt26random_access_iterator_tagE8__copy_mIdEEPT_PKS3_S6_S4_	#
# /usr/include/c++/12/bits/stl_algobase.h:496:     }
	.loc 2 496 5
	leave	
	.cfi_def_cfa 7, 8
	ret	
	.cfi_endproc
.LFE3341:
	.size	_ZSt14__copy_move_a2ILb0EPKdPdET1_T0_S4_S3_, .-_ZSt14__copy_move_a2ILb0EPKdPdET1_T0_S4_S3_
	.section	.text._ZNK9__gnu_cxx17__normal_iteratorIPdSt6vectorIdSaIdEEEplEl,"axG",@progbits,_ZNK9__gnu_cxx17__normal_iteratorIPdSt6vectorIdSaIdEEEplEl,comdat
	.align 2
	.weak	_ZNK9__gnu_cxx17__normal_iteratorIPdSt6vectorIdSaIdEEEplEl
	.type	_ZNK9__gnu_cxx17__normal_iteratorIPdSt6vectorIdSaIdEEEplEl, @function
_ZNK9__gnu_cxx17__normal_iteratorIPdSt6vectorIdSaIdEEEplEl:
.LFB3342:
	.loc 18 1143 7
	.cfi_startproc
	pushq	%rbp	#
	.cfi_def_cfa_offset 16
	.cfi_offset 6, -16
	movq	%rsp, %rbp	#,
	.cfi_def_cfa_register 6
	subq	$32, %rsp	#,
	movq	%rdi, -24(%rbp)	# this, this
	movq	%rsi, -32(%rbp)	# __n, __n
# /usr/include/c++/12/bits/stl_iterator.h:1144:       { return __normal_iterator(_M_current + __n); }
	.loc 18 1144 34
	movq	-24(%rbp), %rax	# this, tmp88
	movq	(%rax), %rax	# this_6(D)->_M_current, _1
# /usr/include/c++/12/bits/stl_iterator.h:1144:       { return __normal_iterator(_M_current + __n); }
	.loc 18 1144 47
	movq	-32(%rbp), %rdx	# __n, __n.31_2
# /usr/include/c++/12/bits/stl_iterator.h:1144:       { return __normal_iterator(_M_current + __n); }
	.loc 18 1144 45
	salq	$3, %rdx	#, _3
	addq	%rdx, %rax	# _3, _4
	movq	%rax, -8(%rbp)	# _4, D.67042
# /usr/include/c++/12/bits/stl_iterator.h:1144:       { return __normal_iterator(_M_current + __n); }
	.loc 18 1144 16
	leaq	-8(%rbp), %rdx	#, tmp89
	leaq	-16(%rbp), %rax	#, tmp90
	movq	%rdx, %rsi	# tmp89,
	movq	%rax, %rdi	# tmp90,
	call	_ZN9__gnu_cxx17__normal_iteratorIPdSt6vectorIdSaIdEEEC1ERKS1_	#
# /usr/include/c++/12/bits/stl_iterator.h:1144:       { return __normal_iterator(_M_current + __n); }
	.loc 18 1144 50
	movq	-16(%rbp), %rax	# D.67043, D.68095
# /usr/include/c++/12/bits/stl_iterator.h:1144:       { return __normal_iterator(_M_current + __n); }
	.loc 18 1144 53
	leave	
	.cfi_def_cfa 7, 8
	ret	
	.cfi_endproc
.LFE3342:
	.size	_ZNK9__gnu_cxx17__normal_iteratorIPdSt6vectorIdSaIdEEEplEl, .-_ZNK9__gnu_cxx17__normal_iteratorIPdSt6vectorIdSaIdEEEplEl
	.section	.text._ZSt19__iterator_categoryIN9__gnu_cxx17__normal_iteratorIPlSt6vectorIlSaIlEEEEENSt15iterator_traitsIT_E17iterator_categoryERKS8_,"axG",@progbits,_ZSt19__iterator_categoryIN9__gnu_cxx17__normal_iteratorIPlSt6vectorIlSaIlEEEEENSt15iterator_traitsIT_E17iterator_categoryERKS8_,comdat
	.weak	_ZSt19__iterator_categoryIN9__gnu_cxx17__normal_iteratorIPlSt6vectorIlSaIlEEEEENSt15iterator_traitsIT_E17iterator_categoryERKS8_
	.type	_ZSt19__iterator_categoryIN9__gnu_cxx17__normal_iteratorIPlSt6vectorIlSaIlEEEEENSt15iterator_traitsIT_E17iterator_categoryERKS8_, @function
_ZSt19__iterator_categoryIN9__gnu_cxx17__normal_iteratorIPlSt6vectorIlSaIlEEEEENSt15iterator_traitsIT_E17iterator_categoryERKS8_:
.LFB3343:
	.loc 16 238 5
	.cfi_startproc
	pushq	%rbp	#
	.cfi_def_cfa_offset 16
	.cfi_offset 6, -16
	movq	%rsp, %rbp	#,
	.cfi_def_cfa_register 6
	movq	%rdi, -8(%rbp)	# D.67044, D.67044
# /usr/include/c++/12/bits/stl_iterator_base_types.h:239:     { return typename iterator_traits<_Iter>::iterator_category(); }
	.loc 16 239 65
	nop	
# /usr/include/c++/12/bits/stl_iterator_base_types.h:239:     { return typename iterator_traits<_Iter>::iterator_category(); }
	.loc 16 239 68
	popq	%rbp	#
	.cfi_def_cfa 7, 8
	ret	
	.cfi_endproc
.LFE3343:
	.size	_ZSt19__iterator_categoryIN9__gnu_cxx17__normal_iteratorIPlSt6vectorIlSaIlEEEEENSt15iterator_traitsIT_E17iterator_categoryERKS8_, .-_ZSt19__iterator_categoryIN9__gnu_cxx17__normal_iteratorIPlSt6vectorIlSaIlEEEEENSt15iterator_traitsIT_E17iterator_categoryERKS8_
	.section	.text._ZSt10__distanceIN9__gnu_cxx17__normal_iteratorIPlSt6vectorIlSaIlEEEEENSt15iterator_traitsIT_E15difference_typeES8_S8_St26random_access_iterator_tag,"axG",@progbits,_ZSt10__distanceIN9__gnu_cxx17__normal_iteratorIPlSt6vectorIlSaIlEEEEENSt15iterator_traitsIT_E15difference_typeES8_S8_St26random_access_iterator_tag,comdat
	.weak	_ZSt10__distanceIN9__gnu_cxx17__normal_iteratorIPlSt6vectorIlSaIlEEEEENSt15iterator_traitsIT_E15difference_typeES8_S8_St26random_access_iterator_tag
	.type	_ZSt10__distanceIN9__gnu_cxx17__normal_iteratorIPlSt6vectorIlSaIlEEEEENSt15iterator_traitsIT_E15difference_typeES8_S8_St26random_access_iterator_tag, @function
_ZSt10__distanceIN9__gnu_cxx17__normal_iteratorIPlSt6vectorIlSaIlEEEEENSt15iterator_traitsIT_E15difference_typeES8_S8_St26random_access_iterator_tag:
.LFB3344:
	.loc 13 99 5
	.cfi_startproc
	pushq	%rbp	#
	.cfi_def_cfa_offset 16
	.cfi_offset 6, -16
	movq	%rsp, %rbp	#,
	.cfi_def_cfa_register 6
	subq	$16, %rsp	#,
	movq	%rdi, -8(%rbp)	# __first, __first
	movq	%rsi, -16(%rbp)	# __last, __last
# /usr/include/c++/12/bits/stl_iterator_base_funcs.h:105:       return __last - __first;
	.loc 13 105 21
	leaq	-8(%rbp), %rdx	#, tmp84
	leaq	-16(%rbp), %rax	#, tmp85
	movq	%rdx, %rsi	# tmp84,
	movq	%rax, %rdi	# tmp85,
	call	_ZN9__gnu_cxxmiIPlSt6vectorIlSaIlEEEENS_17__normal_iteratorIT_T0_E15difference_typeERKS8_SB_	#
# /usr/include/c++/12/bits/stl_iterator_base_funcs.h:106:     }
	.loc 13 106 5
	leave	
	.cfi_def_cfa 7, 8
	ret	
	.cfi_endproc
.LFE3344:
	.size	_ZSt10__distanceIN9__gnu_cxx17__normal_iteratorIPlSt6vectorIlSaIlEEEEENSt15iterator_traitsIT_E15difference_typeES8_S8_St26random_access_iterator_tag, .-_ZSt10__distanceIN9__gnu_cxx17__normal_iteratorIPlSt6vectorIlSaIlEEEEENSt15iterator_traitsIT_E15difference_typeES8_S8_St26random_access_iterator_tag
	.section	.text._ZSt11__equal_auxIN9__gnu_cxx17__normal_iteratorIPlSt6vectorIlSaIlEEEES6_EbT_S7_T0_,"axG",@progbits,_ZSt11__equal_auxIN9__gnu_cxx17__normal_iteratorIPlSt6vectorIlSaIlEEEES6_EbT_S7_T0_,comdat
	.weak	_ZSt11__equal_auxIN9__gnu_cxx17__normal_iteratorIPlSt6vectorIlSaIlEEEES6_EbT_S7_T0_
	.type	_ZSt11__equal_auxIN9__gnu_cxx17__normal_iteratorIPlSt6vectorIlSaIlEEEES6_EbT_S7_T0_, @function
_ZSt11__equal_auxIN9__gnu_cxx17__normal_iteratorIPlSt6vectorIlSaIlEEEES6_EbT_S7_T0_:
.LFB3345:
	.loc 2 1216 5
	.cfi_startproc
	pushq	%rbp	#
	.cfi_def_cfa_offset 16
	.cfi_offset 6, -16
	movq	%rsp, %rbp	#,
	.cfi_def_cfa_register 6
	pushq	%r12	#
	pushq	%rbx	#
	subq	$32, %rsp	#,
	.cfi_offset 12, -24
	.cfi_offset 3, -32
	movq	%rdi, -24(%rbp)	# __first1, __first1
	movq	%rsi, -32(%rbp)	# __last1, __last1
	movq	%rdx, -40(%rbp)	# __first2, __first2
# /usr/include/c++/12/bits/stl_algobase.h:1218:       return std::__equal_aux1(std::__niter_base(__first1),
	.loc 2 1218 31
	movq	-40(%rbp), %rax	# __first2, tmp87
	movq	%rax, %rdi	# tmp87,
	call	_ZSt12__niter_baseIPlSt6vectorIlSaIlEEET_N9__gnu_cxx17__normal_iteratorIS4_T0_EE	#
	movq	%rax, %r12	#, _1
	movq	-32(%rbp), %rax	# __last1, tmp88
	movq	%rax, %rdi	# tmp88,
	call	_ZSt12__niter_baseIPlSt6vectorIlSaIlEEET_N9__gnu_cxx17__normal_iteratorIS4_T0_EE	#
	movq	%rax, %rbx	#, _2
	movq	-24(%rbp), %rax	# __first1, tmp89
	movq	%rax, %rdi	# tmp89,
	call	_ZSt12__niter_baseIPlSt6vectorIlSaIlEEET_N9__gnu_cxx17__normal_iteratorIS4_T0_EE	#
	movq	%r12, %rdx	# _1,
	movq	%rbx, %rsi	# _2,
	movq	%rax, %rdi	# _3,
	call	_ZSt12__equal_aux1IPlS0_EbT_S1_T0_	#
# /usr/include/c++/12/bits/stl_algobase.h:1221:     }
	.loc 2 1221 5
	addq	$32, %rsp	#,
	popq	%rbx	#
	popq	%r12	#
	popq	%rbp	#
	.cfi_def_cfa 7, 8
	ret	
	.cfi_endproc
.LFE3345:
	.size	_ZSt11__equal_auxIN9__gnu_cxx17__normal_iteratorIPlSt6vectorIlSaIlEEEES6_EbT_S7_T0_, .-_ZSt11__equal_auxIN9__gnu_cxx17__normal_iteratorIPlSt6vectorIlSaIlEEEES6_EbT_S7_T0_
	.section	.text._ZSt14__copy_move_a2ILb1EPKdPdET1_T0_S4_S3_,"axG",@progbits,_ZSt14__copy_move_a2ILb1EPKdPdET1_T0_S4_S3_,comdat
	.weak	_ZSt14__copy_move_a2ILb1EPKdPdET1_T0_S4_S3_
	.type	_ZSt14__copy_move_a2ILb1EPKdPdET1_T0_S4_S3_, @function
_ZSt14__copy_move_a2ILb1EPKdPdET1_T0_S4_S3_:
.LFB3347:
	.loc 2 486 5
	.cfi_startproc
	pushq	%rbp	#
	.cfi_def_cfa_offset 16
	.cfi_offset 6, -16
	movq	%rsp, %rbp	#,
	.cfi_def_cfa_register 6
	subq	$32, %rsp	#,
	movq	%rdi, -8(%rbp)	# __first, __first
	movq	%rsi, -16(%rbp)	# __last, __last
	movq	%rdx, -24(%rbp)	# __result, __result
# /usr/include/c++/12/bits/stl_algobase.h:495: 			      _Category>::__copy_m(__first, __last, __result);
	.loc 2 495 30
	movq	-24(%rbp), %rdx	# __result, tmp84
	movq	-16(%rbp), %rcx	# __last, tmp85
	movq	-8(%rbp), %rax	# __first, tmp86
	movq	%rcx, %rsi	# tmp85,
	movq	%rax, %rdi	# tmp86,
	call	_ZNSt11__copy_moveILb1ELb1ESt26random_access_iterator_tagE8__copy_mIdEEPT_PKS3_S6_S4_	#
# /usr/include/c++/12/bits/stl_algobase.h:496:     }
	.loc 2 496 5
	leave	
	.cfi_def_cfa 7, 8
	ret	
	.cfi_endproc
.LFE3347:
	.size	_ZSt14__copy_move_a2ILb1EPKdPdET1_T0_S4_S3_, .-_ZSt14__copy_move_a2ILb1EPKdPdET1_T0_S4_S3_
	.section	.text._ZNKSt15__new_allocatorIlE8max_sizeEv,"axG",@progbits,_ZNKSt15__new_allocatorIlE8max_sizeEv,comdat
	.align 2
	.weak	_ZNKSt15__new_allocatorIlE8max_sizeEv
	.type	_ZNKSt15__new_allocatorIlE8max_sizeEv, @function
_ZNKSt15__new_allocatorIlE8max_sizeEv:
.LFB3352:
	.loc 11 167 7
	.cfi_startproc
	pushq	%rbp	#
	.cfi_def_cfa_offset 16
	.cfi_offset 6, -16
	movq	%rsp, %rbp	#,
	.cfi_def_cfa_register 6
	subq	$16, %rsp	#,
	movq	%rdi, -8(%rbp)	# this, this
# /usr/include/c++/12/bits/new_allocator.h:168:       { return _M_max_size(); }
	.loc 11 168 27
	movq	-8(%rbp), %rax	# this, tmp84
	movq	%rax, %rdi	# tmp84,
	call	_ZNKSt15__new_allocatorIlE11_M_max_sizeEv	#
# /usr/include/c++/12/bits/new_allocator.h:168:       { return _M_max_size(); }
	.loc 11 168 31
	leave	
	.cfi_def_cfa 7, 8
	ret	
	.cfi_endproc
.LFE3352:
	.size	_ZNKSt15__new_allocatorIlE8max_sizeEv, .-_ZNKSt15__new_allocatorIlE8max_sizeEv
	.section	.text._ZNKSt15__new_allocatorIlE11_M_max_sizeEv,"axG",@progbits,_ZNKSt15__new_allocatorIlE11_M_max_sizeEv,comdat
	.align 2
	.weak	_ZNKSt15__new_allocatorIlE11_M_max_sizeEv
	.type	_ZNKSt15__new_allocatorIlE11_M_max_sizeEv, @function
_ZNKSt15__new_allocatorIlE11_M_max_sizeEv:
.LFB3353:
	.loc 11 210 7
	.cfi_startproc
	pushq	%rbp	#
	.cfi_def_cfa_offset 16
	.cfi_offset 6, -16
	movq	%rsp, %rbp	#,
	.cfi_def_cfa_register 6
	movq	%rdi, -8(%rbp)	# this, this
# /usr/include/c++/12/bits/new_allocator.h:213: 	return std::size_t(__PTRDIFF_MAX__) / sizeof(_Tp);
	.loc 11 213 50
	movabsq	$1152921504606846975, %rax	#, _1
# /usr/include/c++/12/bits/new_allocator.h:217:       }
	.loc 11 217 7
	popq	%rbp	#
	.cfi_def_cfa 7, 8
	ret	
	.cfi_endproc
.LFE3353:
	.size	_ZNKSt15__new_allocatorIlE11_M_max_sizeEv, .-_ZNKSt15__new_allocatorIlE11_M_max_sizeEv
	.section	.text._ZSt4copyIPKlPlET0_T_S4_S3_,"axG",@progbits,_ZSt4copyIPKlPlET0_T_S4_S3_,comdat
	.weak	_ZSt4copyIPKlPlET0_T_S4_S3_
	.type	_ZSt4copyIPKlPlET0_T_S4_S3_, @function
_ZSt4copyIPKlPlET0_T_S4_S3_:
.LFB3354:
	.loc 2 611 5
	.cfi_startproc
	pushq	%rbp	#
	.cfi_def_cfa_offset 16
	.cfi_offset 6, -16
	movq	%rsp, %rbp	#,
	.cfi_def_cfa_register 6
	pushq	%rbx	#
	subq	$40, %rsp	#,
	.cfi_offset 3, -24
	movq	%rdi, -24(%rbp)	# __first, __first
	movq	%rsi, -32(%rbp)	# __last, __last
	movq	%rdx, -40(%rbp)	# __result, __result
# /usr/include/c++/12/bits/stl_algobase.h:620: 	     (std::__miter_base(__first), std::__miter_base(__last), __result);
	.loc 2 620 7
	movq	-32(%rbp), %rax	# __last, tmp86
	movq	%rax, %rdi	# tmp86,
	call	_ZSt12__miter_baseIPKlET_S2_	#
	movq	%rax, %rbx	#, _1
	movq	-24(%rbp), %rax	# __first, tmp87
	movq	%rax, %rdi	# tmp87,
	call	_ZSt12__miter_baseIPKlET_S2_	#
	movq	%rax, %rcx	#, _2
	movq	-40(%rbp), %rax	# __result, tmp88
	movq	%rax, %rdx	# tmp88,
	movq	%rbx, %rsi	# _1,
	movq	%rcx, %rdi	# _2,
	call	_ZSt13__copy_move_aILb0EPKlPlET1_T0_S4_S3_	#
# /usr/include/c++/12/bits/stl_algobase.h:621:     }
	.loc 2 621 5
	movq	-8(%rbp), %rbx	#,
	leave	
	.cfi_def_cfa 7, 8
	ret	
	.cfi_endproc
.LFE3354:
	.size	_ZSt4copyIPKlPlET0_T_S4_S3_, .-_ZSt4copyIPKlPlET0_T_S4_S3_
	.section	.text._ZNSt16allocator_traitsISaIdEE8max_sizeERKS0_,"axG",@progbits,_ZNSt16allocator_traitsISaIdEE8max_sizeERKS0_,comdat
	.weak	_ZNSt16allocator_traitsISaIdEE8max_sizeERKS0_
	.type	_ZNSt16allocator_traitsISaIdEE8max_sizeERKS0_, @function
_ZNSt16allocator_traitsISaIdEE8max_sizeERKS0_:
.LFB3355:
	.loc 10 547 7
	.cfi_startproc
	pushq	%rbp	#
	.cfi_def_cfa_offset 16
	.cfi_offset 6, -16
	movq	%rsp, %rbp	#,
	.cfi_def_cfa_register 6
	subq	$16, %rsp	#,
	movq	%rdi, -8(%rbp)	# __a, __a
# /usr/include/c++/12/bits/alloc_traits.h:550: 	return __a.max_size();
	.loc 10 550 21
	movq	-8(%rbp), %rax	# __a, tmp84
	movq	%rax, %rdi	# tmp84,
	call	_ZNKSt15__new_allocatorIdE8max_sizeEv	#
# /usr/include/c++/12/bits/alloc_traits.h:554:       }
	.loc 10 554 7
	leave	
	.cfi_def_cfa 7, 8
	ret	
	.cfi_endproc
.LFE3355:
	.size	_ZNSt16allocator_traitsISaIdEE8max_sizeERKS0_, .-_ZNSt16allocator_traitsISaIdEE8max_sizeERKS0_
	.section	.text._ZNSt27__uninitialized_default_n_1ILb1EE18__uninit_default_nIPdmEET_S3_T0_,"axG",@progbits,_ZNSt27__uninitialized_default_n_1ILb1EE18__uninit_default_nIPdmEET_S3_T0_,comdat
	.weak	_ZNSt27__uninitialized_default_n_1ILb1EE18__uninit_default_nIPdmEET_S3_T0_
	.type	_ZNSt27__uninitialized_default_n_1ILb1EE18__uninit_default_nIPdmEET_S3_T0_, @function
_ZNSt27__uninitialized_default_n_1ILb1EE18__uninit_default_nIPdmEET_S3_T0_:
.LFB3356:
	.loc 17 655 9
	.cfi_startproc
	pushq	%rbp	#
	.cfi_def_cfa_offset 16
	.cfi_offset 6, -16
	movq	%rsp, %rbp	#,
	.cfi_def_cfa_register 6
	subq	$32, %rsp	#,
	movq	%rdi, -24(%rbp)	# __first, __first
	movq	%rsi, -32(%rbp)	# __n, __n
.LBB60:
# /usr/include/c++/12/bits/stl_uninitialized.h:657: 	  if (__n > 0)
	.loc 17 657 4
	cmpq	$0, -32(%rbp)	#, __n
	je	.L382	#,
.LBB61:
# /usr/include/c++/12/bits/stl_uninitialized.h:660: 		= std::__addressof(*__first);
	.loc 17 660 21
	movq	-24(%rbp), %rax	# __first, tmp86
	movq	%rax, %rdi	# tmp86,
	call	_ZSt11__addressofIdEPT_RS0_	#
	movq	%rax, -8(%rbp)	# tmp87, __val
# /usr/include/c++/12/bits/stl_uninitialized.h:661: 	      std::_Construct(__val);
	.loc 17 661 23
	movq	-8(%rbp), %rax	# __val, tmp88
	movq	%rax, %rdi	# tmp88,
	call	_ZSt10_ConstructIdJEEvPT_DpOT0_	#
# /usr/include/c++/12/bits/stl_uninitialized.h:662: 	      ++__first;
	.loc 17 662 8
	addq	$8, -24(%rbp)	#, __first
# /usr/include/c++/12/bits/stl_uninitialized.h:663: 	      __first = std::fill_n(__first, __n - 1, *__val);
	.loc 17 663 29
	movq	-32(%rbp), %rax	# __n, tmp89
	leaq	-1(%rax), %rcx	#, _1
	movq	-8(%rbp), %rdx	# __val, tmp90
	movq	-24(%rbp), %rax	# __first, tmp91
	movq	%rcx, %rsi	# _1,
	movq	%rax, %rdi	# tmp91,
	call	_ZSt6fill_nIPdmdET_S1_T0_RKT1_	#
	movq	%rax, -24(%rbp)	# _12, __first
.L382:
.LBE61:
.LBE60:
# /usr/include/c++/12/bits/stl_uninitialized.h:665: 	  return __first;
	.loc 17 665 11
	movq	-24(%rbp), %rax	# __first, _14
# /usr/include/c++/12/bits/stl_uninitialized.h:666: 	}
	.loc 17 666 2
	leave	
	.cfi_def_cfa 7, 8
	ret	
	.cfi_endproc
.LFE3356:
	.size	_ZNSt27__uninitialized_default_n_1ILb1EE18__uninit_default_nIPdmEET_S3_T0_, .-_ZNSt27__uninitialized_default_n_1ILb1EE18__uninit_default_nIPdmEET_S3_T0_
	.section	.text._ZNSt15__new_allocatorIdE8allocateEmPKv,"axG",@progbits,_ZNSt15__new_allocatorIdE8allocateEmPKv,comdat
	.align 2
	.weak	_ZNSt15__new_allocatorIdE8allocateEmPKv
	.type	_ZNSt15__new_allocatorIdE8allocateEmPKv, @function
_ZNSt15__new_allocatorIdE8allocateEmPKv:
.LFB3357:
	.loc 11 112 7
	.cfi_startproc
	pushq	%rbp	#
	.cfi_def_cfa_offset 16
	.cfi_offset 6, -16
	movq	%rsp, %rbp	#,
	.cfi_def_cfa_register 6
	subq	$32, %rsp	#,
	movq	%rdi, -8(%rbp)	# this, this
	movq	%rsi, -16(%rbp)	# __n, __n
	movq	%rdx, -24(%rbp)	# D.67251, D.67251
# /usr/include/c++/12/bits/new_allocator.h:120: 	if (__builtin_expect(__n > this->_M_max_size(), false))
	.loc 11 120 46
	movq	-8(%rbp), %rax	# this, tmp90
	movq	%rax, %rdi	# tmp90,
	call	_ZNKSt15__new_allocatorIdE11_M_max_sizeEv	#
# /usr/include/c++/12/bits/new_allocator.h:120: 	if (__builtin_expect(__n > this->_M_max_size(), false))
	.loc 11 120 27
	cmpq	-16(%rbp), %rax	# __n, _1
	setb	%al	#, _2
# /usr/include/c++/12/bits/new_allocator.h:120: 	if (__builtin_expect(__n > this->_M_max_size(), false))
	.loc 11 120 22
	movzbl	%al, %eax	# _2, _3
	testq	%rax, %rax	# _4
	setne	%al	#, retval.19_10
# /usr/include/c++/12/bits/new_allocator.h:120: 	if (__builtin_expect(__n > this->_M_max_size(), false))
	.loc 11 120 2
	testb	%al, %al	# retval.19_10
	je	.L385	#,
# /usr/include/c++/12/bits/new_allocator.h:124: 	    if (__n > (std::size_t(-1) / sizeof(_Tp)))
	.loc 11 124 6
	movabsq	$2305843009213693951, %rax	#, tmp91
	cmpq	-16(%rbp), %rax	# __n, tmp91
	jnb	.L386	#,
# /usr/include/c++/12/bits/new_allocator.h:125: 	      std::__throw_bad_array_new_length();
	.loc 11 125 41
	call	_ZSt28__throw_bad_array_new_lengthv@PLT	#
.L386:
# /usr/include/c++/12/bits/new_allocator.h:126: 	    std::__throw_bad_alloc();
	.loc 11 126 28
	call	_ZSt17__throw_bad_allocv@PLT	#
.L385:
# /usr/include/c++/12/bits/new_allocator.h:137: 	return static_cast<_Tp*>(_GLIBCXX_OPERATOR_NEW(__n * sizeof(_Tp)));
	.loc 11 137 48
	movq	-16(%rbp), %rax	# __n, tmp92
	salq	$3, %rax	#, _6
	movq	%rax, %rdi	# _6,
	call	_Znwm@PLT	#
# /usr/include/c++/12/bits/new_allocator.h:137: 	return static_cast<_Tp*>(_GLIBCXX_OPERATOR_NEW(__n * sizeof(_Tp)));
	.loc 11 137 67
	nop	
# /usr/include/c++/12/bits/new_allocator.h:138:       }
	.loc 11 138 7
	leave	
	.cfi_def_cfa 7, 8
	ret	
	.cfi_endproc
.LFE3357:
	.size	_ZNSt15__new_allocatorIdE8allocateEmPKv, .-_ZNSt15__new_allocatorIdE8allocateEmPKv
	.section	.text._ZSt12__niter_baseIPdET_S1_,"axG",@progbits,_ZSt12__niter_baseIPdET_S1_,comdat
	.weak	_ZSt12__niter_baseIPdET_S1_
	.type	_ZSt12__niter_baseIPdET_S1_, @function
_ZSt12__niter_baseIPdET_S1_:
.LFB3358:
	.loc 2 313 5
	.cfi_startproc
	pushq	%rbp	#
	.cfi_def_cfa_offset 16
	.cfi_offset 6, -16
	movq	%rsp, %rbp	#,
	.cfi_def_cfa_register 6
	movq	%rdi, -8(%rbp)	# __it, __it
# /usr/include/c++/12/bits/stl_algobase.h:315:     { return __it; }
	.loc 2 315 14
	movq	-8(%rbp), %rax	# __it, _2
# /usr/include/c++/12/bits/stl_algobase.h:315:     { return __it; }
	.loc 2 315 20
	popq	%rbp	#
	.cfi_def_cfa 7, 8
	ret	
	.cfi_endproc
.LFE3358:
	.size	_ZSt12__niter_baseIPdET_S1_, .-_ZSt12__niter_baseIPdET_S1_
	.section	.text._ZSt14__relocate_a_1IddENSt9enable_ifIXsrSt24__is_bitwise_relocatableIT_vE5valueEPS2_E4typeES4_S4_S4_RSaIT0_E,"axG",@progbits,_ZSt14__relocate_a_1IddENSt9enable_ifIXsrSt24__is_bitwise_relocatableIT_vE5valueEPS2_E4typeES4_S4_S4_RSaIT0_E,comdat
	.weak	_ZSt14__relocate_a_1IddENSt9enable_ifIXsrSt24__is_bitwise_relocatableIT_vE5valueEPS2_E4typeES4_S4_S4_RSaIT0_E
	.type	_ZSt14__relocate_a_1IddENSt9enable_ifIXsrSt24__is_bitwise_relocatableIT_vE5valueEPS2_E4typeES4_S4_S4_RSaIT0_E, @function
_ZSt14__relocate_a_1IddENSt9enable_ifIXsrSt24__is_bitwise_relocatableIT_vE5valueEPS2_E4typeES4_S4_S4_RSaIT0_E:
.LFB3359:
	.loc 17 1100 5
	.cfi_startproc
	pushq	%rbp	#
	.cfi_def_cfa_offset 16
	.cfi_offset 6, -16
	movq	%rsp, %rbp	#,
	.cfi_def_cfa_register 6
	subq	$48, %rsp	#,
	movq	%rdi, -24(%rbp)	# __first, __first
	movq	%rsi, -32(%rbp)	# __last, __last
	movq	%rdx, -40(%rbp)	# __result, __result
	movq	%rcx, -48(%rbp)	# __alloc, __alloc
# /usr/include/c++/12/bits/stl_uninitialized.h:1104:       ptrdiff_t __count = __last - __first;
	.loc 17 1104 34
	movq	-32(%rbp), %rax	# __last, tmp89
	subq	-24(%rbp), %rax	# __first, _1
# /usr/include/c++/12/bits/stl_uninitialized.h:1104:       ptrdiff_t __count = __last - __first;
	.loc 17 1104 17
	sarq	$3, %rax	#, tmp90
	movq	%rax, -8(%rbp)	# tmp90, __count
# /usr/include/c++/12/bits/stl_uninitialized.h:1105:       if (__count > 0)
	.loc 17 1105 7
	cmpq	$0, -8(%rbp)	#, __count
	jle	.L391	#,
# /usr/include/c++/12/bits/stl_uninitialized.h:1117: 	  __builtin_memmove(__result, __first, __count * sizeof(_Tp));
	.loc 17 1117 41
	movq	-8(%rbp), %rax	# __count, __count.21_2
# /usr/include/c++/12/bits/stl_uninitialized.h:1117: 	  __builtin_memmove(__result, __first, __count * sizeof(_Tp));
	.loc 17 1117 21
	leaq	0(,%rax,8), %rdx	#, _3
	movq	-24(%rbp), %rcx	# __first, tmp93
	movq	-40(%rbp), %rax	# __result, tmp94
	movq	%rcx, %rsi	# tmp93,
	movq	%rax, %rdi	# tmp94,
	call	memmove@PLT	#
.L391:
# /usr/include/c++/12/bits/stl_uninitialized.h:1119:       return __result + __count;
	.loc 17 1119 25
	movq	-8(%rbp), %rax	# __count, __count.22_4
# /usr/include/c++/12/bits/stl_uninitialized.h:1119:       return __result + __count;
	.loc 17 1119 23
	leaq	0(,%rax,8), %rdx	#, _5
# /usr/include/c++/12/bits/stl_uninitialized.h:1119:       return __result + __count;
	.loc 17 1119 25
	movq	-40(%rbp), %rax	# __result, tmp95
	addq	%rdx, %rax	# _5, _13
# /usr/include/c++/12/bits/stl_uninitialized.h:1120:     }
	.loc 17 1120 5
	leave	
	.cfi_def_cfa 7, 8
	ret	
	.cfi_endproc
.LFE3359:
	.size	_ZSt14__relocate_a_1IddENSt9enable_ifIXsrSt24__is_bitwise_relocatableIT_vE5valueEPS2_E4typeES4_S4_S4_RSaIT0_E, .-_ZSt14__relocate_a_1IddENSt9enable_ifIXsrSt24__is_bitwise_relocatableIT_vE5valueEPS2_E4typeES4_S4_S4_RSaIT0_E
	.section	.text._ZNSt20__uninitialized_copyILb1EE13__uninit_copyIN9__gnu_cxx17__normal_iteratorIPKlSt6vectorIlSaIlEEEEPlEET0_T_SC_SB_,"axG",@progbits,_ZNSt20__uninitialized_copyILb1EE13__uninit_copyIN9__gnu_cxx17__normal_iteratorIPKlSt6vectorIlSaIlEEEEPlEET0_T_SC_SB_,comdat
	.weak	_ZNSt20__uninitialized_copyILb1EE13__uninit_copyIN9__gnu_cxx17__normal_iteratorIPKlSt6vectorIlSaIlEEEEPlEET0_T_SC_SB_
	.type	_ZNSt20__uninitialized_copyILb1EE13__uninit_copyIN9__gnu_cxx17__normal_iteratorIPKlSt6vectorIlSaIlEEEEPlEET0_T_SC_SB_, @function
_ZNSt20__uninitialized_copyILb1EE13__uninit_copyIN9__gnu_cxx17__normal_iteratorIPKlSt6vectorIlSaIlEEEEPlEET0_T_SC_SB_:
.LFB3360:
	.loc 17 145 9
	.cfi_startproc
	pushq	%rbp	#
	.cfi_def_cfa_offset 16
	.cfi_offset 6, -16
	movq	%rsp, %rbp	#,
	.cfi_def_cfa_register 6
	subq	$32, %rsp	#,
	movq	%rdi, -8(%rbp)	# __first, __first
	movq	%rsi, -16(%rbp)	# __last, __last
	movq	%rdx, -24(%rbp)	# __result, __result
# /usr/include/c++/12/bits/stl_uninitialized.h:147:         { return std::copy(__first, __last, __result); }
	.loc 17 147 27
	movq	-24(%rbp), %rdx	# __result, tmp84
	movq	-16(%rbp), %rcx	# __last, tmp85
	movq	-8(%rbp), %rax	# __first, tmp86
	movq	%rcx, %rsi	# tmp85,
	movq	%rax, %rdi	# tmp86,
	call	_ZSt4copyIN9__gnu_cxx17__normal_iteratorIPKlSt6vectorIlSaIlEEEEPlET0_T_SA_S9_	#
# /usr/include/c++/12/bits/stl_uninitialized.h:147:         { return std::copy(__first, __last, __result); }
	.loc 17 147 56
	leave	
	.cfi_def_cfa 7, 8
	ret	
	.cfi_endproc
.LFE3360:
	.size	_ZNSt20__uninitialized_copyILb1EE13__uninit_copyIN9__gnu_cxx17__normal_iteratorIPKlSt6vectorIlSaIlEEEEPlEET0_T_SC_SB_, .-_ZNSt20__uninitialized_copyILb1EE13__uninit_copyIN9__gnu_cxx17__normal_iteratorIPKlSt6vectorIlSaIlEEEEPlEET0_T_SC_SB_
	.section	.text._ZNSt11__copy_moveILb0ELb1ESt26random_access_iterator_tagE8__copy_mIdEEPT_PKS3_S6_S4_,"axG",@progbits,_ZNSt11__copy_moveILb0ELb1ESt26random_access_iterator_tagE8__copy_mIdEEPT_PKS3_S6_S4_,comdat
	.weak	_ZNSt11__copy_moveILb0ELb1ESt26random_access_iterator_tagE8__copy_mIdEEPT_PKS3_S6_S4_
	.type	_ZNSt11__copy_moveILb0ELb1ESt26random_access_iterator_tagE8__copy_mIdEEPT_PKS3_S6_S4_, @function
_ZNSt11__copy_moveILb0ELb1ESt26random_access_iterator_tagE8__copy_mIdEEPT_PKS3_S6_S4_:
.LFB3361:
	.loc 2 420 2
	.cfi_startproc
	pushq	%rbp	#
	.cfi_def_cfa_offset 16
	.cfi_offset 6, -16
	movq	%rsp, %rbp	#,
	.cfi_def_cfa_register 6
	subq	$48, %rsp	#,
	movq	%rdi, -24(%rbp)	# __first, __first
	movq	%rsi, -32(%rbp)	# __last, __last
	movq	%rdx, -40(%rbp)	# __result, __result
# /usr/include/c++/12/bits/stl_algobase.h:429: 	  const ptrdiff_t _Num = __last - __first;
	.loc 2 429 34
	movq	-32(%rbp), %rax	# __last, tmp89
	subq	-24(%rbp), %rax	# __first, _1
# /usr/include/c++/12/bits/stl_algobase.h:429: 	  const ptrdiff_t _Num = __last - __first;
	.loc 2 429 20
	sarq	$3, %rax	#, tmp90
	movq	%rax, -8(%rbp)	# tmp90, _Num
# /usr/include/c++/12/bits/stl_algobase.h:430: 	  if (_Num)
	.loc 2 430 4
	cmpq	$0, -8(%rbp)	#, _Num
	je	.L396	#,
# /usr/include/c++/12/bits/stl_algobase.h:431: 	    __builtin_memmove(__result, __first, sizeof(_Tp) * _Num);
	.loc 2 431 57
	movq	-8(%rbp), %rax	# _Num, _Num.29_2
# /usr/include/c++/12/bits/stl_algobase.h:431: 	    __builtin_memmove(__result, __first, sizeof(_Tp) * _Num);
	.loc 2 431 23
	leaq	0(,%rax,8), %rdx	#, _3
	movq	-24(%rbp), %rcx	# __first, tmp93
	movq	-40(%rbp), %rax	# __result, tmp94
	movq	%rcx, %rsi	# tmp93,
	movq	%rax, %rdi	# tmp94,
	call	memmove@PLT	#
.L396:
# /usr/include/c++/12/bits/stl_algobase.h:432: 	  return __result + _Num;
	.loc 2 432 22
	movq	-8(%rbp), %rax	# _Num, _Num.30_4
# /usr/include/c++/12/bits/stl_algobase.h:432: 	  return __result + _Num;
	.loc 2 432 20
	leaq	0(,%rax,8), %rdx	#, _5
# /usr/include/c++/12/bits/stl_algobase.h:432: 	  return __result + _Num;
	.loc 2 432 22
	movq	-40(%rbp), %rax	# __result, tmp95
	addq	%rdx, %rax	# _5, _13
# /usr/include/c++/12/bits/stl_algobase.h:433: 	}
	.loc 2 433 2
	leave	
	.cfi_def_cfa 7, 8
	ret	
	.cfi_endproc
.LFE3361:
	.size	_ZNSt11__copy_moveILb0ELb1ESt26random_access_iterator_tagE8__copy_mIdEEPT_PKS3_S6_S4_, .-_ZNSt11__copy_moveILb0ELb1ESt26random_access_iterator_tagE8__copy_mIdEEPT_PKS3_S6_S4_
	.section	.text._ZN9__gnu_cxxmiIPlSt6vectorIlSaIlEEEENS_17__normal_iteratorIT_T0_E15difference_typeERKS8_SB_,"axG",@progbits,_ZN9__gnu_cxxmiIPlSt6vectorIlSaIlEEEENS_17__normal_iteratorIT_T0_E15difference_typeERKS8_SB_,comdat
	.weak	_ZN9__gnu_cxxmiIPlSt6vectorIlSaIlEEEENS_17__normal_iteratorIT_T0_E15difference_typeERKS8_SB_
	.type	_ZN9__gnu_cxxmiIPlSt6vectorIlSaIlEEEENS_17__normal_iteratorIT_T0_E15difference_typeERKS8_SB_, @function
_ZN9__gnu_cxxmiIPlSt6vectorIlSaIlEEEENS_17__normal_iteratorIT_T0_E15difference_typeERKS8_SB_:
.LFB3362:
	.loc 18 1330 5
	.cfi_startproc
	pushq	%rbp	#
	.cfi_def_cfa_offset 16
	.cfi_offset 6, -16
	movq	%rsp, %rbp	#,
	.cfi_def_cfa_register 6
	pushq	%rbx	#
	subq	$24, %rsp	#,
	.cfi_offset 3, -24
	movq	%rdi, -24(%rbp)	# __lhs, __lhs
	movq	%rsi, -32(%rbp)	# __rhs, __rhs
# /usr/include/c++/12/bits/stl_iterator.h:1333:     { return __lhs.base() - __rhs.base(); }
	.loc 18 1333 24
	movq	-24(%rbp), %rax	# __lhs, tmp89
	movq	%rax, %rdi	# tmp89,
	call	_ZNK9__gnu_cxx17__normal_iteratorIPlSt6vectorIlSaIlEEE4baseEv	#
# /usr/include/c++/12/bits/stl_iterator.h:1333:     { return __lhs.base() - __rhs.base(); }
	.loc 18 1333 27
	movq	(%rax), %rbx	# *_1, _2
# /usr/include/c++/12/bits/stl_iterator.h:1333:     { return __lhs.base() - __rhs.base(); }
	.loc 18 1333 39
	movq	-32(%rbp), %rax	# __rhs, tmp90
	movq	%rax, %rdi	# tmp90,
	call	_ZNK9__gnu_cxx17__normal_iteratorIPlSt6vectorIlSaIlEEE4baseEv	#
# /usr/include/c++/12/bits/stl_iterator.h:1333:     { return __lhs.base() - __rhs.base(); }
	.loc 18 1333 27
	movq	(%rax), %rax	# *_3, _4
	movq	%rbx, %rdx	# _2, _2
	subq	%rax, %rdx	# _4, _2
# /usr/include/c++/12/bits/stl_iterator.h:1333:     { return __lhs.base() - __rhs.base(); }
	.loc 18 1333 40
	movq	%rdx, %rax	# _5, _5
	sarq	$3, %rax	#, _5
# /usr/include/c++/12/bits/stl_iterator.h:1333:     { return __lhs.base() - __rhs.base(); }
	.loc 18 1333 43
	movq	-8(%rbp), %rbx	#,
	leave	
	.cfi_def_cfa 7, 8
	ret	
	.cfi_endproc
.LFE3362:
	.size	_ZN9__gnu_cxxmiIPlSt6vectorIlSaIlEEEENS_17__normal_iteratorIT_T0_E15difference_typeERKS8_SB_, .-_ZN9__gnu_cxxmiIPlSt6vectorIlSaIlEEEENS_17__normal_iteratorIT_T0_E15difference_typeERKS8_SB_
	.section	.text._ZSt12__niter_baseIPlSt6vectorIlSaIlEEET_N9__gnu_cxx17__normal_iteratorIS4_T0_EE,"axG",@progbits,_ZSt12__niter_baseIPlSt6vectorIlSaIlEEET_N9__gnu_cxx17__normal_iteratorIS4_T0_EE,comdat
	.weak	_ZSt12__niter_baseIPlSt6vectorIlSaIlEEET_N9__gnu_cxx17__normal_iteratorIS4_T0_EE
	.type	_ZSt12__niter_baseIPlSt6vectorIlSaIlEEET_N9__gnu_cxx17__normal_iteratorIS4_T0_EE, @function
_ZSt12__niter_baseIPlSt6vectorIlSaIlEEET_N9__gnu_cxx17__normal_iteratorIS4_T0_EE:
.LFB3363:
	.loc 18 1353 5
	.cfi_startproc
	pushq	%rbp	#
	.cfi_def_cfa_offset 16
	.cfi_offset 6, -16
	movq	%rsp, %rbp	#,
	.cfi_def_cfa_register 6
	subq	$16, %rsp	#,
	movq	%rdi, -8(%rbp)	# __it, __it
# /usr/include/c++/12/bits/stl_iterator.h:1355:     { return __it.base(); }
	.loc 18 1355 23
	leaq	-8(%rbp), %rax	#, tmp85
	movq	%rax, %rdi	# tmp85,
	call	_ZNK9__gnu_cxx17__normal_iteratorIPlSt6vectorIlSaIlEEE4baseEv	#
# /usr/include/c++/12/bits/stl_iterator.h:1355:     { return __it.base(); }
	.loc 18 1355 24
	movq	(%rax), %rax	# *_1, _4
# /usr/include/c++/12/bits/stl_iterator.h:1355:     { return __it.base(); }
	.loc 18 1355 27
	leave	
	.cfi_def_cfa 7, 8
	ret	
	.cfi_endproc
.LFE3363:
	.size	_ZSt12__niter_baseIPlSt6vectorIlSaIlEEET_N9__gnu_cxx17__normal_iteratorIS4_T0_EE, .-_ZSt12__niter_baseIPlSt6vectorIlSaIlEEET_N9__gnu_cxx17__normal_iteratorIS4_T0_EE
	.section	.text._ZSt12__equal_aux1IPlS0_EbT_S1_T0_,"axG",@progbits,_ZSt12__equal_aux1IPlS0_EbT_S1_T0_,comdat
	.weak	_ZSt12__equal_aux1IPlS0_EbT_S1_T0_
	.type	_ZSt12__equal_aux1IPlS0_EbT_S1_T0_, @function
_ZSt12__equal_aux1IPlS0_EbT_S1_T0_:
.LFB3364:
	.loc 2 1204 5
	.cfi_startproc
	pushq	%rbp	#
	.cfi_def_cfa_offset 16
	.cfi_offset 6, -16
	movq	%rsp, %rbp	#,
	.cfi_def_cfa_register 6
	subq	$48, %rsp	#,
	movq	%rdi, -24(%rbp)	# __first1, __first1
	movq	%rsi, -32(%rbp)	# __last1, __last1
	movq	%rdx, -40(%rbp)	# __first2, __first2
# /usr/include/c++/12/bits/stl_algobase.h:1207:       const bool __simple = ((__is_integer<_ValueType1>::__value
	.loc 2 1207 18
	movb	$1, -1(%rbp)	#, __simple
# /usr/include/c++/12/bits/stl_algobase.h:1210:       return std::__equal<__simple>::equal(__first1, __last1, __first2);
	.loc 2 1210 43
	movq	-40(%rbp), %rdx	# __first2, tmp84
	movq	-32(%rbp), %rcx	# __last1, tmp85
	movq	-24(%rbp), %rax	# __first1, tmp86
	movq	%rcx, %rsi	# tmp85,
	movq	%rax, %rdi	# tmp86,
	call	_ZNSt7__equalILb1EE5equalIlEEbPKT_S4_S4_	#
# /usr/include/c++/12/bits/stl_algobase.h:1211:     }
	.loc 2 1211 5
	leave	
	.cfi_def_cfa 7, 8
	ret	
	.cfi_endproc
.LFE3364:
	.size	_ZSt12__equal_aux1IPlS0_EbT_S1_T0_, .-_ZSt12__equal_aux1IPlS0_EbT_S1_T0_
	.section	.text._ZNSt11__copy_moveILb1ELb1ESt26random_access_iterator_tagE8__copy_mIdEEPT_PKS3_S6_S4_,"axG",@progbits,_ZNSt11__copy_moveILb1ELb1ESt26random_access_iterator_tagE8__copy_mIdEEPT_PKS3_S6_S4_,comdat
	.weak	_ZNSt11__copy_moveILb1ELb1ESt26random_access_iterator_tagE8__copy_mIdEEPT_PKS3_S6_S4_
	.type	_ZNSt11__copy_moveILb1ELb1ESt26random_access_iterator_tagE8__copy_mIdEEPT_PKS3_S6_S4_, @function
_ZNSt11__copy_moveILb1ELb1ESt26random_access_iterator_tagE8__copy_mIdEEPT_PKS3_S6_S4_:
.LFB3365:
	.loc 2 420 2
	.cfi_startproc
	pushq	%rbp	#
	.cfi_def_cfa_offset 16
	.cfi_offset 6, -16
	movq	%rsp, %rbp	#,
	.cfi_def_cfa_register 6
	subq	$48, %rsp	#,
	movq	%rdi, -24(%rbp)	# __first, __first
	movq	%rsi, -32(%rbp)	# __last, __last
	movq	%rdx, -40(%rbp)	# __result, __result
# /usr/include/c++/12/bits/stl_algobase.h:429: 	  const ptrdiff_t _Num = __last - __first;
	.loc 2 429 34
	movq	-32(%rbp), %rax	# __last, tmp89
	subq	-24(%rbp), %rax	# __first, _1
# /usr/include/c++/12/bits/stl_algobase.h:429: 	  const ptrdiff_t _Num = __last - __first;
	.loc 2 429 20
	sarq	$3, %rax	#, tmp90
	movq	%rax, -8(%rbp)	# tmp90, _Num
# /usr/include/c++/12/bits/stl_algobase.h:430: 	  if (_Num)
	.loc 2 430 4
	cmpq	$0, -8(%rbp)	#, _Num
	je	.L405	#,
# /usr/include/c++/12/bits/stl_algobase.h:431: 	    __builtin_memmove(__result, __first, sizeof(_Tp) * _Num);
	.loc 2 431 57
	movq	-8(%rbp), %rax	# _Num, _Num.38_2
# /usr/include/c++/12/bits/stl_algobase.h:431: 	    __builtin_memmove(__result, __first, sizeof(_Tp) * _Num);
	.loc 2 431 23
	leaq	0(,%rax,8), %rdx	#, _3
	movq	-24(%rbp), %rcx	# __first, tmp93
	movq	-40(%rbp), %rax	# __result, tmp94
	movq	%rcx, %rsi	# tmp93,
	movq	%rax, %rdi	# tmp94,
	call	memmove@PLT	#
.L405:
# /usr/include/c++/12/bits/stl_algobase.h:432: 	  return __result + _Num;
	.loc 2 432 22
	movq	-8(%rbp), %rax	# _Num, _Num.39_4
# /usr/include/c++/12/bits/stl_algobase.h:432: 	  return __result + _Num;
	.loc 2 432 20
	leaq	0(,%rax,8), %rdx	#, _5
# /usr/include/c++/12/bits/stl_algobase.h:432: 	  return __result + _Num;
	.loc 2 432 22
	movq	-40(%rbp), %rax	# __result, tmp95
	addq	%rdx, %rax	# _5, _13
# /usr/include/c++/12/bits/stl_algobase.h:433: 	}
	.loc 2 433 2
	leave	
	.cfi_def_cfa 7, 8
	ret	
	.cfi_endproc
.LFE3365:
	.size	_ZNSt11__copy_moveILb1ELb1ESt26random_access_iterator_tagE8__copy_mIdEEPT_PKS3_S6_S4_, .-_ZNSt11__copy_moveILb1ELb1ESt26random_access_iterator_tagE8__copy_mIdEEPT_PKS3_S6_S4_
	.section	.text._ZSt12__miter_baseIPKlET_S2_,"axG",@progbits,_ZSt12__miter_baseIPKlET_S2_,comdat
	.weak	_ZSt12__miter_baseIPKlET_S2_
	.type	_ZSt12__miter_baseIPKlET_S2_, @function
_ZSt12__miter_baseIPKlET_S2_:
.LFB3366:
	.loc 20 562 5
	.cfi_startproc
	pushq	%rbp	#
	.cfi_def_cfa_offset 16
	.cfi_offset 6, -16
	movq	%rsp, %rbp	#,
	.cfi_def_cfa_register 6
	movq	%rdi, -8(%rbp)	# __it, __it
# /usr/include/c++/12/bits/cpp_type_traits.h:563:     { return __it; }
	.loc 20 563 14
	movq	-8(%rbp), %rax	# __it, _2
# /usr/include/c++/12/bits/cpp_type_traits.h:563:     { return __it; }
	.loc 20 563 20
	popq	%rbp	#
	.cfi_def_cfa 7, 8
	ret	
	.cfi_endproc
.LFE3366:
	.size	_ZSt12__miter_baseIPKlET_S2_, .-_ZSt12__miter_baseIPKlET_S2_
	.section	.text._ZSt13__copy_move_aILb0EPKlPlET1_T0_S4_S3_,"axG",@progbits,_ZSt13__copy_move_aILb0EPKlPlET1_T0_S4_S3_,comdat
	.weak	_ZSt13__copy_move_aILb0EPKlPlET1_T0_S4_S3_
	.type	_ZSt13__copy_move_aILb0EPKlPlET1_T0_S4_S3_, @function
_ZSt13__copy_move_aILb0EPKlPlET1_T0_S4_S3_:
.LFB3367:
	.loc 2 527 5
	.cfi_startproc
	pushq	%rbp	#
	.cfi_def_cfa_offset 16
	.cfi_offset 6, -16
	movq	%rsp, %rbp	#,
	.cfi_def_cfa_register 6
	pushq	%r12	#
	pushq	%rbx	#
	subq	$32, %rsp	#,
	.cfi_offset 12, -24
	.cfi_offset 3, -32
	movq	%rdi, -24(%rbp)	# __first, __first
	movq	%rsi, -32(%rbp)	# __last, __last
	movq	%rdx, -40(%rbp)	# __result, __result
# /usr/include/c++/12/bits/stl_algobase.h:529:       return std::__niter_wrap(__result,
	.loc 2 529 31
	movq	-40(%rbp), %rax	# __result, __result.5_1
	movq	%rax, %rdi	# __result.5_1,
	call	_ZSt12__niter_baseIPlET_S1_	#
	movq	%rax, %r12	#, _2
	movq	-32(%rbp), %rax	# __last, tmp89
	movq	%rax, %rdi	# tmp89,
	call	_ZSt12__niter_baseIPKlET_S2_	#
	movq	%rax, %rbx	#, _3
	movq	-24(%rbp), %rax	# __first, tmp90
	movq	%rax, %rdi	# tmp90,
	call	_ZSt12__niter_baseIPKlET_S2_	#
	movq	%r12, %rdx	# _2,
	movq	%rbx, %rsi	# _3,
	movq	%rax, %rdi	# _4,
	call	_ZSt14__copy_move_a1ILb0EPKlPlET1_T0_S4_S3_	#
	movq	%rax, %rdx	#, _5
	leaq	-40(%rbp), %rax	#, tmp91
	movq	%rdx, %rsi	# _5,
	movq	%rax, %rdi	# tmp91,
	call	_ZSt12__niter_wrapIPlET_RKS1_S1_	#
# /usr/include/c++/12/bits/stl_algobase.h:533:     }
	.loc 2 533 5
	addq	$32, %rsp	#,
	popq	%rbx	#
	popq	%r12	#
	popq	%rbp	#
	.cfi_def_cfa 7, 8
	ret	
	.cfi_endproc
.LFE3367:
	.size	_ZSt13__copy_move_aILb0EPKlPlET1_T0_S4_S3_, .-_ZSt13__copy_move_aILb0EPKlPlET1_T0_S4_S3_
	.section	.text._ZNKSt15__new_allocatorIdE8max_sizeEv,"axG",@progbits,_ZNKSt15__new_allocatorIdE8max_sizeEv,comdat
	.align 2
	.weak	_ZNKSt15__new_allocatorIdE8max_sizeEv
	.type	_ZNKSt15__new_allocatorIdE8max_sizeEv, @function
_ZNKSt15__new_allocatorIdE8max_sizeEv:
.LFB3369:
	.loc 11 167 7
	.cfi_startproc
	pushq	%rbp	#
	.cfi_def_cfa_offset 16
	.cfi_offset 6, -16
	movq	%rsp, %rbp	#,
	.cfi_def_cfa_register 6
	subq	$16, %rsp	#,
	movq	%rdi, -8(%rbp)	# this, this
# /usr/include/c++/12/bits/new_allocator.h:168:       { return _M_max_size(); }
	.loc 11 168 27
	movq	-8(%rbp), %rax	# this, tmp84
	movq	%rax, %rdi	# tmp84,
	call	_ZNKSt15__new_allocatorIdE11_M_max_sizeEv	#
# /usr/include/c++/12/bits/new_allocator.h:168:       { return _M_max_size(); }
	.loc 11 168 31
	leave	
	.cfi_def_cfa 7, 8
	ret	
	.cfi_endproc
.LFE3369:
	.size	_ZNKSt15__new_allocatorIdE8max_sizeEv, .-_ZNKSt15__new_allocatorIdE8max_sizeEv
	.section	.text._ZSt11__addressofIdEPT_RS0_,"axG",@progbits,_ZSt11__addressofIdEPT_RS0_,comdat
	.weak	_ZSt11__addressofIdEPT_RS0_
	.type	_ZSt11__addressofIdEPT_RS0_, @function
_ZSt11__addressofIdEPT_RS0_:
.LFB3370:
	.loc 8 49 5
	.cfi_startproc
	pushq	%rbp	#
	.cfi_def_cfa_offset 16
	.cfi_offset 6, -16
	movq	%rsp, %rbp	#,
	.cfi_def_cfa_register 6
	movq	%rdi, -8(%rbp)	# __r, __r
# /usr/include/c++/12/bits/move.h:50:     { return __builtin_addressof(__r); }
	.loc 8 50 37
	movq	-8(%rbp), %rax	# __r, _2
# /usr/include/c++/12/bits/move.h:50:     { return __builtin_addressof(__r); }
	.loc 8 50 40
	popq	%rbp	#
	.cfi_def_cfa 7, 8
	ret	
	.cfi_endproc
.LFE3370:
	.size	_ZSt11__addressofIdEPT_RS0_, .-_ZSt11__addressofIdEPT_RS0_
	.section	.text._ZSt10_ConstructIdJEEvPT_DpOT0_,"axG",@progbits,_ZSt10_ConstructIdJEEvPT_DpOT0_,comdat
	.weak	_ZSt10_ConstructIdJEEvPT_DpOT0_
	.type	_ZSt10_ConstructIdJEEvPT_DpOT0_, @function
_ZSt10_ConstructIdJEEvPT_DpOT0_:
.LFB3371:
	.loc 15 109 5
	.cfi_startproc
	pushq	%rbp	#
	.cfi_def_cfa_offset 16
	.cfi_offset 6, -16
	movq	%rsp, %rbp	#,
	.cfi_def_cfa_register 6
	subq	$16, %rsp	#,
	movq	%rdi, -8(%rbp)	# __p, __p
# /usr/include/c++/12/bits/stl_construct.h:119:       ::new((void*)__p) _Tp(std::forward<_Args>(__args)...);
	.loc 15 119 13
	movq	-8(%rbp), %rax	# __p, _2
# /usr/include/c++/12/bits/stl_construct.h:119:       ::new((void*)__p) _Tp(std::forward<_Args>(__args)...);
	.loc 15 119 7
	movq	%rax, %rsi	# _2,
	movl	$8, %edi	#,
	call	_ZnwmPv	#
	pxor	%xmm0, %xmm0	# tmp86
	movsd	%xmm0, (%rax)	# tmp86, MEM[(double *)_5]
# /usr/include/c++/12/bits/stl_construct.h:120:     }
	.loc 15 120 5
	nop	
	leave	
	.cfi_def_cfa 7, 8
	ret	
	.cfi_endproc
.LFE3371:
	.size	_ZSt10_ConstructIdJEEvPT_DpOT0_, .-_ZSt10_ConstructIdJEEvPT_DpOT0_
	.section	.text._ZSt6fill_nIPdmdET_S1_T0_RKT1_,"axG",@progbits,_ZSt6fill_nIPdmdET_S1_T0_RKT1_,comdat
	.weak	_ZSt6fill_nIPdmdET_S1_T0_RKT1_
	.type	_ZSt6fill_nIPdmdET_S1_T0_RKT1_, @function
_ZSt6fill_nIPdmdET_S1_T0_RKT1_:
.LFB3372:
	.loc 2 1143 5
	.cfi_startproc
	pushq	%rbp	#
	.cfi_def_cfa_offset 16
	.cfi_offset 6, -16
	movq	%rsp, %rbp	#,
	.cfi_def_cfa_register 6
	subq	$32, %rsp	#,
	movq	%rdi, -8(%rbp)	# __first, __first
	movq	%rsi, -16(%rbp)	# __n, __n
	movq	%rdx, -24(%rbp)	# __value, __value
# /usr/include/c++/12/bits/stl_algobase.h:1149: 			       std::__iterator_category(__first));
	.loc 2 1149 35
	leaq	-8(%rbp), %rax	#, tmp87
	movq	%rax, %rdi	# tmp87,
	call	_ZSt19__iterator_categoryIPdENSt15iterator_traitsIT_E17iterator_categoryERKS2_	#
# /usr/include/c++/12/bits/stl_algobase.h:1148:       return std::__fill_n_a(__first, std::__size_to_integer(__n), __value,
	.loc 2 1148 29
	movq	-16(%rbp), %rax	# __n, tmp88
	movq	%rax, %rdi	# tmp88,
	call	_ZSt17__size_to_integerm	#
	movq	%rax, %rcx	#, _1
	movq	-8(%rbp), %rax	# __first, __first.20_2
	movq	-24(%rbp), %rdx	# __value, tmp89
	movq	%rcx, %rsi	# _1,
	movq	%rax, %rdi	# __first.20_2,
	call	_ZSt10__fill_n_aIPdmdET_S1_T0_RKT1_St26random_access_iterator_tag	#
# /usr/include/c++/12/bits/stl_algobase.h:1150:     }
	.loc 2 1150 5
	leave	
	.cfi_def_cfa 7, 8
	ret	
	.cfi_endproc
.LFE3372:
	.size	_ZSt6fill_nIPdmdET_S1_T0_RKT1_, .-_ZSt6fill_nIPdmdET_S1_T0_RKT1_
	.section	.text._ZNKSt15__new_allocatorIdE11_M_max_sizeEv,"axG",@progbits,_ZNKSt15__new_allocatorIdE11_M_max_sizeEv,comdat
	.align 2
	.weak	_ZNKSt15__new_allocatorIdE11_M_max_sizeEv
	.type	_ZNKSt15__new_allocatorIdE11_M_max_sizeEv, @function
_ZNKSt15__new_allocatorIdE11_M_max_sizeEv:
.LFB3373:
	.loc 11 210 7
	.cfi_startproc
	pushq	%rbp	#
	.cfi_def_cfa_offset 16
	.cfi_offset 6, -16
	movq	%rsp, %rbp	#,
	.cfi_def_cfa_register 6
	movq	%rdi, -8(%rbp)	# this, this
# /usr/include/c++/12/bits/new_allocator.h:213: 	return std::size_t(__PTRDIFF_MAX__) / sizeof(_Tp);
	.loc 11 213 50
	movabsq	$1152921504606846975, %rax	#, _1
# /usr/include/c++/12/bits/new_allocator.h:217:       }
	.loc 11 217 7
	popq	%rbp	#
	.cfi_def_cfa 7, 8
	ret	
	.cfi_endproc
.LFE3373:
	.size	_ZNKSt15__new_allocatorIdE11_M_max_sizeEv, .-_ZNKSt15__new_allocatorIdE11_M_max_sizeEv
	.section	.text._ZSt4copyIN9__gnu_cxx17__normal_iteratorIPKlSt6vectorIlSaIlEEEEPlET0_T_SA_S9_,"axG",@progbits,_ZSt4copyIN9__gnu_cxx17__normal_iteratorIPKlSt6vectorIlSaIlEEEEPlET0_T_SA_S9_,comdat
	.weak	_ZSt4copyIN9__gnu_cxx17__normal_iteratorIPKlSt6vectorIlSaIlEEEEPlET0_T_SA_S9_
	.type	_ZSt4copyIN9__gnu_cxx17__normal_iteratorIPKlSt6vectorIlSaIlEEEEPlET0_T_SA_S9_, @function
_ZSt4copyIN9__gnu_cxx17__normal_iteratorIPKlSt6vectorIlSaIlEEEEPlET0_T_SA_S9_:
.LFB3374:
	.loc 2 611 5
	.cfi_startproc
	pushq	%rbp	#
	.cfi_def_cfa_offset 16
	.cfi_offset 6, -16
	movq	%rsp, %rbp	#,
	.cfi_def_cfa_register 6
	pushq	%rbx	#
	subq	$40, %rsp	#,
	.cfi_offset 3, -24
	movq	%rdi, -24(%rbp)	# __first, __first
	movq	%rsi, -32(%rbp)	# __last, __last
	movq	%rdx, -40(%rbp)	# __result, __result
# /usr/include/c++/12/bits/stl_algobase.h:620: 	     (std::__miter_base(__first), std::__miter_base(__last), __result);
	.loc 2 620 7
	movq	-32(%rbp), %rax	# __last, tmp86
	movq	%rax, %rdi	# tmp86,
	call	_ZSt12__miter_baseIN9__gnu_cxx17__normal_iteratorIPKlSt6vectorIlSaIlEEEEET_S8_	#
	movq	%rax, %rbx	#, D.68031
	movq	-24(%rbp), %rax	# __first, tmp87
	movq	%rax, %rdi	# tmp87,
	call	_ZSt12__miter_baseIN9__gnu_cxx17__normal_iteratorIPKlSt6vectorIlSaIlEEEEET_S8_	#
	movq	%rax, %rcx	#, D.68032
	movq	-40(%rbp), %rax	# __result, tmp88
	movq	%rax, %rdx	# tmp88,
	movq	%rbx, %rsi	# D.68031,
	movq	%rcx, %rdi	# D.68032,
	call	_ZSt13__copy_move_aILb0EN9__gnu_cxx17__normal_iteratorIPKlSt6vectorIlSaIlEEEEPlET1_T0_SA_S9_	#
# /usr/include/c++/12/bits/stl_algobase.h:621:     }
	.loc 2 621 5
	movq	-8(%rbp), %rbx	#,
	leave	
	.cfi_def_cfa 7, 8
	ret	
	.cfi_endproc
.LFE3374:
	.size	_ZSt4copyIN9__gnu_cxx17__normal_iteratorIPKlSt6vectorIlSaIlEEEEPlET0_T_SA_S9_, .-_ZSt4copyIN9__gnu_cxx17__normal_iteratorIPKlSt6vectorIlSaIlEEEEPlET0_T_SA_S9_
	.section	.text._ZNSt7__equalILb1EE5equalIlEEbPKT_S4_S4_,"axG",@progbits,_ZNSt7__equalILb1EE5equalIlEEbPKT_S4_S4_,comdat
	.weak	_ZNSt7__equalILb1EE5equalIlEEbPKT_S4_S4_
	.type	_ZNSt7__equalILb1EE5equalIlEEbPKT_S4_S4_, @function
_ZNSt7__equalILb1EE5equalIlEEbPKT_S4_S4_:
.LFB3375:
	.loc 2 1173 2
	.cfi_startproc
	pushq	%rbp	#
	.cfi_def_cfa_offset 16
	.cfi_offset 6, -16
	movq	%rsp, %rbp	#,
	.cfi_def_cfa_register 6
	subq	$48, %rsp	#,
	movq	%rdi, -24(%rbp)	# __first1, __first1
	movq	%rsi, -32(%rbp)	# __last1, __last1
	movq	%rdx, -40(%rbp)	# __first2, __first2
.LBB62:
# /usr/include/c++/12/bits/stl_algobase.h:1175: 	  if (const size_t __len = (__last1 - __first1))
	.loc 2 1175 38
	movq	-32(%rbp), %rax	# __last1, tmp87
	subq	-24(%rbp), %rax	# __first1, _1
	sarq	$3, %rax	#, tmp88
# /usr/include/c++/12/bits/stl_algobase.h:1175: 	  if (const size_t __len = (__last1 - __first1))
	.loc 2 1175 21
	movq	%rax, -8(%rbp)	# _2, __len
# /usr/include/c++/12/bits/stl_algobase.h:1175: 	  if (const size_t __len = (__last1 - __first1))
	.loc 2 1175 4
	cmpq	$0, -8(%rbp)	#, __len
	je	.L423	#,
# /usr/include/c++/12/bits/stl_algobase.h:1176: 	    return !std::__memcmp(__first1, __first2, __len);
	.loc 2 1176 27
	movq	-8(%rbp), %rdx	# __len, tmp89
	movq	-40(%rbp), %rcx	# __first2, tmp90
	movq	-24(%rbp), %rax	# __first1, tmp91
	movq	%rcx, %rsi	# tmp90,
	movq	%rax, %rdi	# tmp91,
	call	_ZSt8__memcmpIllEiPKT_PKT0_m	#
# /usr/include/c++/12/bits/stl_algobase.h:1176: 	    return !std::__memcmp(__first1, __first2, __len);
	.loc 2 1176 53
	testl	%eax, %eax	# _3
	sete	%al	#, _4
	jmp	.L424	#
.L423:
.LBE62:
# /usr/include/c++/12/bits/stl_algobase.h:1177: 	  return true;
	.loc 2 1177 11
	movl	$1, %eax	#, _4
.L424:
# /usr/include/c++/12/bits/stl_algobase.h:1178: 	}
	.loc 2 1178 2
	leave	
	.cfi_def_cfa 7, 8
	ret	
	.cfi_endproc
.LFE3375:
	.size	_ZNSt7__equalILb1EE5equalIlEEbPKT_S4_S4_, .-_ZNSt7__equalILb1EE5equalIlEEbPKT_S4_S4_
	.section	.text._ZSt12__niter_baseIPKlET_S2_,"axG",@progbits,_ZSt12__niter_baseIPKlET_S2_,comdat
	.weak	_ZSt12__niter_baseIPKlET_S2_
	.type	_ZSt12__niter_baseIPKlET_S2_, @function
_ZSt12__niter_baseIPKlET_S2_:
.LFB3376:
	.loc 2 313 5
	.cfi_startproc
	pushq	%rbp	#
	.cfi_def_cfa_offset 16
	.cfi_offset 6, -16
	movq	%rsp, %rbp	#,
	.cfi_def_cfa_register 6
	movq	%rdi, -8(%rbp)	# __it, __it
# /usr/include/c++/12/bits/stl_algobase.h:315:     { return __it; }
	.loc 2 315 14
	movq	-8(%rbp), %rax	# __it, _2
# /usr/include/c++/12/bits/stl_algobase.h:315:     { return __it; }
	.loc 2 315 20
	popq	%rbp	#
	.cfi_def_cfa 7, 8
	ret	
	.cfi_endproc
.LFE3376:
	.size	_ZSt12__niter_baseIPKlET_S2_, .-_ZSt12__niter_baseIPKlET_S2_
	.section	.text._ZSt12__niter_baseIPlET_S1_,"axG",@progbits,_ZSt12__niter_baseIPlET_S1_,comdat
	.weak	_ZSt12__niter_baseIPlET_S1_
	.type	_ZSt12__niter_baseIPlET_S1_, @function
_ZSt12__niter_baseIPlET_S1_:
.LFB3377:
	.loc 2 313 5
	.cfi_startproc
	pushq	%rbp	#
	.cfi_def_cfa_offset 16
	.cfi_offset 6, -16
	movq	%rsp, %rbp	#,
	.cfi_def_cfa_register 6
	movq	%rdi, -8(%rbp)	# __it, __it
# /usr/include/c++/12/bits/stl_algobase.h:315:     { return __it; }
	.loc 2 315 14
	movq	-8(%rbp), %rax	# __it, _2
# /usr/include/c++/12/bits/stl_algobase.h:315:     { return __it; }
	.loc 2 315 20
	popq	%rbp	#
	.cfi_def_cfa 7, 8
	ret	
	.cfi_endproc
.LFE3377:
	.size	_ZSt12__niter_baseIPlET_S1_, .-_ZSt12__niter_baseIPlET_S1_
	.section	.text._ZSt14__copy_move_a1ILb0EPKlPlET1_T0_S4_S3_,"axG",@progbits,_ZSt14__copy_move_a1ILb0EPKlPlET1_T0_S4_S3_,comdat
	.weak	_ZSt14__copy_move_a1ILb0EPKlPlET1_T0_S4_S3_
	.type	_ZSt14__copy_move_a1ILb0EPKlPlET1_T0_S4_S3_, @function
_ZSt14__copy_move_a1ILb0EPKlPlET1_T0_S4_S3_:
.LFB3378:
	.loc 2 521 5
	.cfi_startproc
	pushq	%rbp	#
	.cfi_def_cfa_offset 16
	.cfi_offset 6, -16
	movq	%rsp, %rbp	#,
	.cfi_def_cfa_register 6
	subq	$32, %rsp	#,
	movq	%rdi, -8(%rbp)	# __first, __first
	movq	%rsi, -16(%rbp)	# __last, __last
	movq	%rdx, -24(%rbp)	# __result, __result
# /usr/include/c++/12/bits/stl_algobase.h:522:     { return std::__copy_move_a2<_IsMove>(__first, __last, __result); }
	.loc 2 522 42
	movq	-24(%rbp), %rdx	# __result, tmp84
	movq	-16(%rbp), %rcx	# __last, tmp85
	movq	-8(%rbp), %rax	# __first, tmp86
	movq	%rcx, %rsi	# tmp85,
	movq	%rax, %rdi	# tmp86,
	call	_ZSt14__copy_move_a2ILb0EPKlPlET1_T0_S4_S3_	#
# /usr/include/c++/12/bits/stl_algobase.h:522:     { return std::__copy_move_a2<_IsMove>(__first, __last, __result); }
	.loc 2 522 71
	leave	
	.cfi_def_cfa 7, 8
	ret	
	.cfi_endproc
.LFE3378:
	.size	_ZSt14__copy_move_a1ILb0EPKlPlET1_T0_S4_S3_, .-_ZSt14__copy_move_a1ILb0EPKlPlET1_T0_S4_S3_
	.section	.text._ZSt12__niter_wrapIPlET_RKS1_S1_,"axG",@progbits,_ZSt12__niter_wrapIPlET_RKS1_S1_,comdat
	.weak	_ZSt12__niter_wrapIPlET_RKS1_S1_
	.type	_ZSt12__niter_wrapIPlET_RKS1_S1_, @function
_ZSt12__niter_wrapIPlET_RKS1_S1_:
.LFB3379:
	.loc 2 335 5
	.cfi_startproc
	pushq	%rbp	#
	.cfi_def_cfa_offset 16
	.cfi_offset 6, -16
	movq	%rsp, %rbp	#,
	.cfi_def_cfa_register 6
	movq	%rdi, -8(%rbp)	# D.67525, D.67525
	movq	%rsi, -16(%rbp)	# __res, __res
# /usr/include/c++/12/bits/stl_algobase.h:336:     { return __res; }
	.loc 2 336 14
	movq	-16(%rbp), %rax	# __res, _2
# /usr/include/c++/12/bits/stl_algobase.h:336:     { return __res; }
	.loc 2 336 21
	popq	%rbp	#
	.cfi_def_cfa 7, 8
	ret	
	.cfi_endproc
.LFE3379:
	.size	_ZSt12__niter_wrapIPlET_RKS1_S1_, .-_ZSt12__niter_wrapIPlET_RKS1_S1_
	.section	.text._ZSt19__iterator_categoryIPdENSt15iterator_traitsIT_E17iterator_categoryERKS2_,"axG",@progbits,_ZSt19__iterator_categoryIPdENSt15iterator_traitsIT_E17iterator_categoryERKS2_,comdat
	.weak	_ZSt19__iterator_categoryIPdENSt15iterator_traitsIT_E17iterator_categoryERKS2_
	.type	_ZSt19__iterator_categoryIPdENSt15iterator_traitsIT_E17iterator_categoryERKS2_, @function
_ZSt19__iterator_categoryIPdENSt15iterator_traitsIT_E17iterator_categoryERKS2_:
.LFB3380:
	.loc 16 238 5
	.cfi_startproc
	pushq	%rbp	#
	.cfi_def_cfa_offset 16
	.cfi_offset 6, -16
	movq	%rsp, %rbp	#,
	.cfi_def_cfa_register 6
	movq	%rdi, -8(%rbp)	# D.67528, D.67528
# /usr/include/c++/12/bits/stl_iterator_base_types.h:239:     { return typename iterator_traits<_Iter>::iterator_category(); }
	.loc 16 239 65
	nop	
# /usr/include/c++/12/bits/stl_iterator_base_types.h:239:     { return typename iterator_traits<_Iter>::iterator_category(); }
	.loc 16 239 68
	popq	%rbp	#
	.cfi_def_cfa 7, 8
	ret	
	.cfi_endproc
.LFE3380:
	.size	_ZSt19__iterator_categoryIPdENSt15iterator_traitsIT_E17iterator_categoryERKS2_, .-_ZSt19__iterator_categoryIPdENSt15iterator_traitsIT_E17iterator_categoryERKS2_
	.section	.text._ZSt10__fill_n_aIPdmdET_S1_T0_RKT1_St26random_access_iterator_tag,"axG",@progbits,_ZSt10__fill_n_aIPdmdET_S1_T0_RKT1_St26random_access_iterator_tag,comdat
	.weak	_ZSt10__fill_n_aIPdmdET_S1_T0_RKT1_St26random_access_iterator_tag
	.type	_ZSt10__fill_n_aIPdmdET_S1_T0_RKT1_St26random_access_iterator_tag, @function
_ZSt10__fill_n_aIPdmdET_S1_T0_RKT1_St26random_access_iterator_tag:
.LFB3381:
	.loc 2 1108 5
	.cfi_startproc
	pushq	%rbp	#
	.cfi_def_cfa_offset 16
	.cfi_offset 6, -16
	movq	%rsp, %rbp	#,
	.cfi_def_cfa_register 6
	subq	$32, %rsp	#,
	movq	%rdi, -8(%rbp)	# __first, __first
	movq	%rsi, -16(%rbp)	# __n, __n
	movq	%rdx, -24(%rbp)	# __value, __value
# /usr/include/c++/12/bits/stl_algobase.h:1114:       if (__n <= 0)
	.loc 2 1114 7
	cmpq	$0, -16(%rbp)	#, __n
	jne	.L436	#,
# /usr/include/c++/12/bits/stl_algobase.h:1115: 	return __first;
	.loc 2 1115 9
	movq	-8(%rbp), %rax	# __first, _4
	jmp	.L437	#
.L436:
# /usr/include/c++/12/bits/stl_algobase.h:1119:       std::__fill_a(__first, __first + __n, __value);
	.loc 2 1119 38
	movq	-16(%rbp), %rax	# __n, tmp87
	leaq	0(,%rax,8), %rdx	#, _1
# /usr/include/c++/12/bits/stl_algobase.h:1119:       std::__fill_a(__first, __first + __n, __value);
	.loc 2 1119 20
	movq	-8(%rbp), %rax	# __first, tmp88
	leaq	(%rdx,%rax), %rcx	#, _2
	movq	-24(%rbp), %rdx	# __value, tmp89
	movq	-8(%rbp), %rax	# __first, tmp90
	movq	%rcx, %rsi	# _2,
	movq	%rax, %rdi	# tmp90,
	call	_ZSt8__fill_aIPddEvT_S1_RKT0_	#
# /usr/include/c++/12/bits/stl_algobase.h:1120:       return __first + __n;
	.loc 2 1120 22
	movq	-16(%rbp), %rax	# __n, tmp91
	leaq	0(,%rax,8), %rdx	#, _3
# /usr/include/c++/12/bits/stl_algobase.h:1120:       return __first + __n;
	.loc 2 1120 24
	movq	-8(%rbp), %rax	# __first, tmp92
	addq	%rdx, %rax	# _3, _4
.L437:
# /usr/include/c++/12/bits/stl_algobase.h:1121:     }
	.loc 2 1121 5
	leave	
	.cfi_def_cfa 7, 8
	ret	
	.cfi_endproc
.LFE3381:
	.size	_ZSt10__fill_n_aIPdmdET_S1_T0_RKT1_St26random_access_iterator_tag, .-_ZSt10__fill_n_aIPdmdET_S1_T0_RKT1_St26random_access_iterator_tag
	.section	.text._ZSt12__miter_baseIN9__gnu_cxx17__normal_iteratorIPKlSt6vectorIlSaIlEEEEET_S8_,"axG",@progbits,_ZSt12__miter_baseIN9__gnu_cxx17__normal_iteratorIPKlSt6vectorIlSaIlEEEEET_S8_,comdat
	.weak	_ZSt12__miter_baseIN9__gnu_cxx17__normal_iteratorIPKlSt6vectorIlSaIlEEEEET_S8_
	.type	_ZSt12__miter_baseIN9__gnu_cxx17__normal_iteratorIPKlSt6vectorIlSaIlEEEEET_S8_, @function
_ZSt12__miter_baseIN9__gnu_cxx17__normal_iteratorIPKlSt6vectorIlSaIlEEEEET_S8_:
.LFB3382:
	.loc 20 562 5
	.cfi_startproc
	pushq	%rbp	#
	.cfi_def_cfa_offset 16
	.cfi_offset 6, -16
	movq	%rsp, %rbp	#,
	.cfi_def_cfa_register 6
	movq	%rdi, -8(%rbp)	# __it, __it
# /usr/include/c++/12/bits/cpp_type_traits.h:563:     { return __it; }
	.loc 20 563 14
	movq	-8(%rbp), %rax	# __it, D.68035
# /usr/include/c++/12/bits/cpp_type_traits.h:563:     { return __it; }
	.loc 20 563 20
	popq	%rbp	#
	.cfi_def_cfa 7, 8
	ret	
	.cfi_endproc
.LFE3382:
	.size	_ZSt12__miter_baseIN9__gnu_cxx17__normal_iteratorIPKlSt6vectorIlSaIlEEEEET_S8_, .-_ZSt12__miter_baseIN9__gnu_cxx17__normal_iteratorIPKlSt6vectorIlSaIlEEEEET_S8_
	.section	.text._ZSt13__copy_move_aILb0EN9__gnu_cxx17__normal_iteratorIPKlSt6vectorIlSaIlEEEEPlET1_T0_SA_S9_,"axG",@progbits,_ZSt13__copy_move_aILb0EN9__gnu_cxx17__normal_iteratorIPKlSt6vectorIlSaIlEEEEPlET1_T0_SA_S9_,comdat
	.weak	_ZSt13__copy_move_aILb0EN9__gnu_cxx17__normal_iteratorIPKlSt6vectorIlSaIlEEEEPlET1_T0_SA_S9_
	.type	_ZSt13__copy_move_aILb0EN9__gnu_cxx17__normal_iteratorIPKlSt6vectorIlSaIlEEEEPlET1_T0_SA_S9_, @function
_ZSt13__copy_move_aILb0EN9__gnu_cxx17__normal_iteratorIPKlSt6vectorIlSaIlEEEEPlET1_T0_SA_S9_:
.LFB3383:
	.loc 2 527 5
	.cfi_startproc
	pushq	%rbp	#
	.cfi_def_cfa_offset 16
	.cfi_offset 6, -16
	movq	%rsp, %rbp	#,
	.cfi_def_cfa_register 6
	pushq	%r12	#
	pushq	%rbx	#
	subq	$32, %rsp	#,
	.cfi_offset 12, -24
	.cfi_offset 3, -32
	movq	%rdi, -24(%rbp)	# __first, __first
	movq	%rsi, -32(%rbp)	# __last, __last
	movq	%rdx, -40(%rbp)	# __result, __result
# /usr/include/c++/12/bits/stl_algobase.h:529:       return std::__niter_wrap(__result,
	.loc 2 529 31
	movq	-40(%rbp), %rax	# __result, __result.28_1
	movq	%rax, %rdi	# __result.28_1,
	call	_ZSt12__niter_baseIPlET_S1_	#
	movq	%rax, %r12	#, _2
	movq	-32(%rbp), %rax	# __last, tmp89
	movq	%rax, %rdi	# tmp89,
	call	_ZSt12__niter_baseIPKlSt6vectorIlSaIlEEET_N9__gnu_cxx17__normal_iteratorIS5_T0_EE	#
	movq	%rax, %rbx	#, _3
	movq	-24(%rbp), %rax	# __first, tmp90
	movq	%rax, %rdi	# tmp90,
	call	_ZSt12__niter_baseIPKlSt6vectorIlSaIlEEET_N9__gnu_cxx17__normal_iteratorIS5_T0_EE	#
	movq	%r12, %rdx	# _2,
	movq	%rbx, %rsi	# _3,
	movq	%rax, %rdi	# _4,
	call	_ZSt14__copy_move_a1ILb0EPKlPlET1_T0_S4_S3_	#
	movq	%rax, %rdx	#, _5
	leaq	-40(%rbp), %rax	#, tmp91
	movq	%rdx, %rsi	# _5,
	movq	%rax, %rdi	# tmp91,
	call	_ZSt12__niter_wrapIPlET_RKS1_S1_	#
# /usr/include/c++/12/bits/stl_algobase.h:533:     }
	.loc 2 533 5
	addq	$32, %rsp	#,
	popq	%rbx	#
	popq	%r12	#
	popq	%rbp	#
	.cfi_def_cfa 7, 8
	ret	
	.cfi_endproc
.LFE3383:
	.size	_ZSt13__copy_move_aILb0EN9__gnu_cxx17__normal_iteratorIPKlSt6vectorIlSaIlEEEEPlET1_T0_SA_S9_, .-_ZSt13__copy_move_aILb0EN9__gnu_cxx17__normal_iteratorIPKlSt6vectorIlSaIlEEEEPlET1_T0_SA_S9_
	.section	.text._ZSt8__memcmpIllEiPKT_PKT0_m,"axG",@progbits,_ZSt8__memcmpIllEiPKT_PKT0_m,comdat
	.weak	_ZSt8__memcmpIllEiPKT_PKT0_m
	.type	_ZSt8__memcmpIllEiPKT_PKT0_m, @function
_ZSt8__memcmpIllEiPKT_PKT0_m:
.LFB3384:
	.loc 2 90 5
	.cfi_startproc
	pushq	%rbp	#
	.cfi_def_cfa_offset 16
	.cfi_offset 6, -16
	movq	%rsp, %rbp	#,
	.cfi_def_cfa_register 6
	subq	$32, %rsp	#,
	movq	%rdi, -8(%rbp)	# __first1, __first1
	movq	%rsi, -16(%rbp)	# __first2, __first2
	movq	%rdx, -24(%rbp)	# __num, __num
# /usr/include/c++/12/bits/stl_algobase.h:105: 	return __builtin_memcmp(__first1, __first2, sizeof(_Tp) * __num);
	.loc 2 105 25
	movq	-24(%rbp), %rax	# __num, tmp85
	leaq	0(,%rax,8), %rdx	#, _1
	movq	-16(%rbp), %rcx	# __first2, tmp88
	movq	-8(%rbp), %rax	# __first1, tmp89
	movq	%rcx, %rsi	# tmp88,
	movq	%rax, %rdi	# tmp89,
	call	memcmp@PLT	#
# /usr/include/c++/12/bits/stl_algobase.h:106:     }
	.loc 2 106 5
	leave	
	.cfi_def_cfa 7, 8
	ret	
	.cfi_endproc
.LFE3384:
	.size	_ZSt8__memcmpIllEiPKT_PKT0_m, .-_ZSt8__memcmpIllEiPKT_PKT0_m
	.section	.text._ZSt14__copy_move_a2ILb0EPKlPlET1_T0_S4_S3_,"axG",@progbits,_ZSt14__copy_move_a2ILb0EPKlPlET1_T0_S4_S3_,comdat
	.weak	_ZSt14__copy_move_a2ILb0EPKlPlET1_T0_S4_S3_
	.type	_ZSt14__copy_move_a2ILb0EPKlPlET1_T0_S4_S3_, @function
_ZSt14__copy_move_a2ILb0EPKlPlET1_T0_S4_S3_:
.LFB3385:
	.loc 2 486 5
	.cfi_startproc
	pushq	%rbp	#
	.cfi_def_cfa_offset 16
	.cfi_offset 6, -16
	movq	%rsp, %rbp	#,
	.cfi_def_cfa_register 6
	subq	$32, %rsp	#,
	movq	%rdi, -8(%rbp)	# __first, __first
	movq	%rsi, -16(%rbp)	# __last, __last
	movq	%rdx, -24(%rbp)	# __result, __result
# /usr/include/c++/12/bits/stl_algobase.h:495: 			      _Category>::__copy_m(__first, __last, __result);
	.loc 2 495 30
	movq	-24(%rbp), %rdx	# __result, tmp84
	movq	-16(%rbp), %rcx	# __last, tmp85
	movq	-8(%rbp), %rax	# __first, tmp86
	movq	%rcx, %rsi	# tmp85,
	movq	%rax, %rdi	# tmp86,
	call	_ZNSt11__copy_moveILb0ELb1ESt26random_access_iterator_tagE8__copy_mIlEEPT_PKS3_S6_S4_	#
# /usr/include/c++/12/bits/stl_algobase.h:496:     }
	.loc 2 496 5
	leave	
	.cfi_def_cfa 7, 8
	ret	
	.cfi_endproc
.LFE3385:
	.size	_ZSt14__copy_move_a2ILb0EPKlPlET1_T0_S4_S3_, .-_ZSt14__copy_move_a2ILb0EPKlPlET1_T0_S4_S3_
	.section	.text._ZSt8__fill_aIPddEvT_S1_RKT0_,"axG",@progbits,_ZSt8__fill_aIPddEvT_S1_RKT0_,comdat
	.weak	_ZSt8__fill_aIPddEvT_S1_RKT0_
	.type	_ZSt8__fill_aIPddEvT_S1_RKT0_, @function
_ZSt8__fill_aIPddEvT_S1_RKT0_:
.LFB3386:
	.loc 2 967 5
	.cfi_startproc
	pushq	%rbp	#
	.cfi_def_cfa_offset 16
	.cfi_offset 6, -16
	movq	%rsp, %rbp	#,
	.cfi_def_cfa_register 6
	subq	$32, %rsp	#,
	movq	%rdi, -8(%rbp)	# __first, __first
	movq	%rsi, -16(%rbp)	# __last, __last
	movq	%rdx, -24(%rbp)	# __value, __value
# /usr/include/c++/12/bits/stl_algobase.h:968:     { std::__fill_a1(__first, __last, __value); }
	.loc 2 968 21
	movq	-24(%rbp), %rdx	# __value, tmp82
	movq	-16(%rbp), %rcx	# __last, tmp83
	movq	-8(%rbp), %rax	# __first, tmp84
	movq	%rcx, %rsi	# tmp83,
	movq	%rax, %rdi	# tmp84,
	call	_ZSt9__fill_a1IPddEN9__gnu_cxx11__enable_ifIXsrSt11__is_scalarIT0_E7__valueEvE6__typeET_S8_RKS4_	#
# /usr/include/c++/12/bits/stl_algobase.h:968:     { std::__fill_a1(__first, __last, __value); }
	.loc 2 968 49
	nop	
	leave	
	.cfi_def_cfa 7, 8
	ret	
	.cfi_endproc
.LFE3386:
	.size	_ZSt8__fill_aIPddEvT_S1_RKT0_, .-_ZSt8__fill_aIPddEvT_S1_RKT0_
	.section	.text._ZSt12__niter_baseIPKlSt6vectorIlSaIlEEET_N9__gnu_cxx17__normal_iteratorIS5_T0_EE,"axG",@progbits,_ZSt12__niter_baseIPKlSt6vectorIlSaIlEEET_N9__gnu_cxx17__normal_iteratorIS5_T0_EE,comdat
	.weak	_ZSt12__niter_baseIPKlSt6vectorIlSaIlEEET_N9__gnu_cxx17__normal_iteratorIS5_T0_EE
	.type	_ZSt12__niter_baseIPKlSt6vectorIlSaIlEEET_N9__gnu_cxx17__normal_iteratorIS5_T0_EE, @function
_ZSt12__niter_baseIPKlSt6vectorIlSaIlEEET_N9__gnu_cxx17__normal_iteratorIS5_T0_EE:
.LFB3387:
	.loc 18 1353 5
	.cfi_startproc
	pushq	%rbp	#
	.cfi_def_cfa_offset 16
	.cfi_offset 6, -16
	movq	%rsp, %rbp	#,
	.cfi_def_cfa_register 6
	subq	$16, %rsp	#,
	movq	%rdi, -8(%rbp)	# __it, __it
# /usr/include/c++/12/bits/stl_iterator.h:1355:     { return __it.base(); }
	.loc 18 1355 23
	leaq	-8(%rbp), %rax	#, tmp85
	movq	%rax, %rdi	# tmp85,
	call	_ZNK9__gnu_cxx17__normal_iteratorIPKlSt6vectorIlSaIlEEE4baseEv	#
# /usr/include/c++/12/bits/stl_iterator.h:1355:     { return __it.base(); }
	.loc 18 1355 24
	movq	(%rax), %rax	# *_1, _4
# /usr/include/c++/12/bits/stl_iterator.h:1355:     { return __it.base(); }
	.loc 18 1355 27
	leave	
	.cfi_def_cfa 7, 8
	ret	
	.cfi_endproc
.LFE3387:
	.size	_ZSt12__niter_baseIPKlSt6vectorIlSaIlEEET_N9__gnu_cxx17__normal_iteratorIS5_T0_EE, .-_ZSt12__niter_baseIPKlSt6vectorIlSaIlEEET_N9__gnu_cxx17__normal_iteratorIS5_T0_EE
	.section	.text._ZNSt11__copy_moveILb0ELb1ESt26random_access_iterator_tagE8__copy_mIlEEPT_PKS3_S6_S4_,"axG",@progbits,_ZNSt11__copy_moveILb0ELb1ESt26random_access_iterator_tagE8__copy_mIlEEPT_PKS3_S6_S4_,comdat
	.weak	_ZNSt11__copy_moveILb0ELb1ESt26random_access_iterator_tagE8__copy_mIlEEPT_PKS3_S6_S4_
	.type	_ZNSt11__copy_moveILb0ELb1ESt26random_access_iterator_tagE8__copy_mIlEEPT_PKS3_S6_S4_, @function
_ZNSt11__copy_moveILb0ELb1ESt26random_access_iterator_tagE8__copy_mIlEEPT_PKS3_S6_S4_:
.LFB3388:
	.loc 2 420 2
	.cfi_startproc
	pushq	%rbp	#
	.cfi_def_cfa_offset 16
	.cfi_offset 6, -16
	movq	%rsp, %rbp	#,
	.cfi_def_cfa_register 6
	subq	$48, %rsp	#,
	movq	%rdi, -24(%rbp)	# __first, __first
	movq	%rsi, -32(%rbp)	# __last, __last
	movq	%rdx, -40(%rbp)	# __result, __result
# /usr/include/c++/12/bits/stl_algobase.h:429: 	  const ptrdiff_t _Num = __last - __first;
	.loc 2 429 34
	movq	-32(%rbp), %rax	# __last, tmp89
	subq	-24(%rbp), %rax	# __first, _1
# /usr/include/c++/12/bits/stl_algobase.h:429: 	  const ptrdiff_t _Num = __last - __first;
	.loc 2 429 20
	sarq	$3, %rax	#, tmp90
	movq	%rax, -8(%rbp)	# tmp90, _Num
# /usr/include/c++/12/bits/stl_algobase.h:430: 	  if (_Num)
	.loc 2 430 4
	cmpq	$0, -8(%rbp)	#, _Num
	je	.L450	#,
# /usr/include/c++/12/bits/stl_algobase.h:431: 	    __builtin_memmove(__result, __first, sizeof(_Tp) * _Num);
	.loc 2 431 57
	movq	-8(%rbp), %rax	# _Num, _Num.6_2
# /usr/include/c++/12/bits/stl_algobase.h:431: 	    __builtin_memmove(__result, __first, sizeof(_Tp) * _Num);
	.loc 2 431 23
	leaq	0(,%rax,8), %rdx	#, _3
	movq	-24(%rbp), %rcx	# __first, tmp93
	movq	-40(%rbp), %rax	# __result, tmp94
	movq	%rcx, %rsi	# tmp93,
	movq	%rax, %rdi	# tmp94,
	call	memmove@PLT	#
.L450:
# /usr/include/c++/12/bits/stl_algobase.h:432: 	  return __result + _Num;
	.loc 2 432 22
	movq	-8(%rbp), %rax	# _Num, _Num.7_4
# /usr/include/c++/12/bits/stl_algobase.h:432: 	  return __result + _Num;
	.loc 2 432 20
	leaq	0(,%rax,8), %rdx	#, _5
# /usr/include/c++/12/bits/stl_algobase.h:432: 	  return __result + _Num;
	.loc 2 432 22
	movq	-40(%rbp), %rax	# __result, tmp95
	addq	%rdx, %rax	# _5, _13
# /usr/include/c++/12/bits/stl_algobase.h:433: 	}
	.loc 2 433 2
	leave	
	.cfi_def_cfa 7, 8
	ret	
	.cfi_endproc
.LFE3388:
	.size	_ZNSt11__copy_moveILb0ELb1ESt26random_access_iterator_tagE8__copy_mIlEEPT_PKS3_S6_S4_, .-_ZNSt11__copy_moveILb0ELb1ESt26random_access_iterator_tagE8__copy_mIlEEPT_PKS3_S6_S4_
	.section	.text._ZSt9__fill_a1IPddEN9__gnu_cxx11__enable_ifIXsrSt11__is_scalarIT0_E7__valueEvE6__typeET_S8_RKS4_,"axG",@progbits,_ZSt9__fill_a1IPddEN9__gnu_cxx11__enable_ifIXsrSt11__is_scalarIT0_E7__valueEvE6__typeET_S8_RKS4_,comdat
	.weak	_ZSt9__fill_a1IPddEN9__gnu_cxx11__enable_ifIXsrSt11__is_scalarIT0_E7__valueEvE6__typeET_S8_RKS4_
	.type	_ZSt9__fill_a1IPddEN9__gnu_cxx11__enable_ifIXsrSt11__is_scalarIT0_E7__valueEvE6__typeET_S8_RKS4_, @function
_ZSt9__fill_a1IPddEN9__gnu_cxx11__enable_ifIXsrSt11__is_scalarIT0_E7__valueEvE6__typeET_S8_RKS4_:
.LFB3389:
	.loc 2 917 5
	.cfi_startproc
	pushq	%rbp	#
	.cfi_def_cfa_offset 16
	.cfi_offset 6, -16
	movq	%rsp, %rbp	#,
	.cfi_def_cfa_register 6
	movq	%rdi, -24(%rbp)	# __first, __first
	movq	%rsi, -32(%rbp)	# __last, __last
	movq	%rdx, -40(%rbp)	# __value, __value
# /usr/include/c++/12/bits/stl_algobase.h:920:       const _Tp __tmp = __value;
	.loc 2 920 17
	movq	-40(%rbp), %rax	# __value, tmp82
	movsd	(%rax), %xmm0	# *__value_4(D), tmp83
	movsd	%xmm0, -8(%rbp)	# tmp83, __tmp
# /usr/include/c++/12/bits/stl_algobase.h:921:       for (; __first != __last; ++__first)
	.loc 2 921 7
	jmp	.L453	#
.L454:
# /usr/include/c++/12/bits/stl_algobase.h:922: 	*__first = __tmp;
	.loc 2 922 11 discriminator 2
	movq	-24(%rbp), %rax	# __first, tmp84
	movsd	-8(%rbp), %xmm0	# __tmp, tmp85
	movsd	%xmm0, (%rax)	# tmp85, *__first_1
# /usr/include/c++/12/bits/stl_algobase.h:921:       for (; __first != __last; ++__first)
	.loc 2 921 7 discriminator 2
	addq	$8, -24(%rbp)	#, __first
.L453:
# /usr/include/c++/12/bits/stl_algobase.h:921:       for (; __first != __last; ++__first)
	.loc 2 921 22 discriminator 1
	movq	-24(%rbp), %rax	# __first, tmp86
	cmpq	-32(%rbp), %rax	# __last, tmp86
	jne	.L454	#,
# /usr/include/c++/12/bits/stl_algobase.h:923:     }
	.loc 2 923 5
	nop	
	nop	
	popq	%rbp	#
	.cfi_def_cfa 7, 8
	ret	
	.cfi_endproc
.LFE3389:
	.size	_ZSt9__fill_a1IPddEN9__gnu_cxx11__enable_ifIXsrSt11__is_scalarIT0_E7__valueEvE6__typeET_S8_RKS4_, .-_ZSt9__fill_a1IPddEN9__gnu_cxx11__enable_ifIXsrSt11__is_scalarIT0_E7__valueEvE6__typeET_S8_RKS4_
	.section	.text._ZNK9__gnu_cxx17__normal_iteratorIPKlSt6vectorIlSaIlEEE4baseEv,"axG",@progbits,_ZNK9__gnu_cxx17__normal_iteratorIPKlSt6vectorIlSaIlEEE4baseEv,comdat
	.align 2
	.weak	_ZNK9__gnu_cxx17__normal_iteratorIPKlSt6vectorIlSaIlEEE4baseEv
	.type	_ZNK9__gnu_cxx17__normal_iteratorIPKlSt6vectorIlSaIlEEE4baseEv, @function
_ZNK9__gnu_cxx17__normal_iteratorIPKlSt6vectorIlSaIlEEE4baseEv:
.LFB3390:
	.loc 18 1158 7
	.cfi_startproc
	pushq	%rbp	#
	.cfi_def_cfa_offset 16
	.cfi_offset 6, -16
	movq	%rsp, %rbp	#,
	.cfi_def_cfa_register 6
	movq	%rdi, -8(%rbp)	# this, this
# /usr/include/c++/12/bits/stl_iterator.h:1159:       { return _M_current; }
	.loc 18 1159 16
	movq	-8(%rbp), %rax	# this, _2
# /usr/include/c++/12/bits/stl_iterator.h:1159:       { return _M_current; }
	.loc 18 1159 28
	popq	%rbp	#
	.cfi_def_cfa 7, 8
	ret	
	.cfi_endproc
.LFE3390:
	.size	_ZNK9__gnu_cxx17__normal_iteratorIPKlSt6vectorIlSaIlEEE4baseEv, .-_ZNK9__gnu_cxx17__normal_iteratorIPKlSt6vectorIlSaIlEEE4baseEv
	.text
	.type	_Z41__static_initialization_and_destruction_0ii, @function
_Z41__static_initialization_and_destruction_0ii:
.LFB3391:
	.loc 6 19 1
	.cfi_startproc
	pushq	%rbp	#
	.cfi_def_cfa_offset 16
	.cfi_offset 6, -16
	movq	%rsp, %rbp	#,
	.cfi_def_cfa_register 6
	subq	$16, %rsp	#,
	movl	%edi, -4(%rbp)	# __initialize_p, __initialize_p
	movl	%esi, -8(%rbp)	# __priority, __priority
# Application.cpp:19: }
	.loc 6 19 1
	cmpl	$1, -4(%rbp)	#, __initialize_p
	jne	.L459	#,
# Application.cpp:19: }
	.loc 6 19 1 is_stmt 0 discriminator 1
	cmpl	$65535, -8(%rbp)	#, __priority
	jne	.L459	#,
# /usr/include/c++/12/iostream:74:   static ios_base::Init __ioinit;
	.file 22 "/usr/include/c++/12/iostream"
	.loc 22 74 25 is_stmt 1
	leaq	_ZStL8__ioinit(%rip), %rax	#, tmp82
	movq	%rax, %rdi	# tmp82,
	call	_ZNSt8ios_base4InitC1Ev@PLT	#
	leaq	__dso_handle(%rip), %rax	#, tmp83
	movq	%rax, %rdx	# tmp83,
	leaq	_ZStL8__ioinit(%rip), %rax	#, tmp84
	movq	%rax, %rsi	# tmp84,
	movq	_ZNSt8ios_base4InitD1Ev@GOTPCREL(%rip), %rax	#, tmp86
	movq	%rax, %rdi	# tmp85,
	call	__cxa_atexit@PLT	#
.L459:
# Application.cpp:19: }
	.loc 6 19 1
	nop	
	leave	
	.cfi_def_cfa 7, 8
	ret	
	.cfi_endproc
.LFE3391:
	.size	_Z41__static_initialization_and_destruction_0ii, .-_Z41__static_initialization_and_destruction_0ii
	.type	_GLOBAL__sub_I__ZN9container7details11index_checkEll, @function
_GLOBAL__sub_I__ZN9container7details11index_checkEll:
.LFB3392:
	.loc 6 19 1
	.cfi_startproc
	pushq	%rbp	#
	.cfi_def_cfa_offset 16
	.cfi_offset 6, -16
	movq	%rsp, %rbp	#,
	.cfi_def_cfa_register 6
# Application.cpp:19: }
	.loc 6 19 1
	movl	$65535, %esi	#,
	movl	$1, %edi	#,
	call	_Z41__static_initialization_and_destruction_0ii	#
	popq	%rbp	#
	.cfi_def_cfa 7, 8
	ret	
	.cfi_endproc
.LFE3392:
	.size	_GLOBAL__sub_I__ZN9container7details11index_checkEll, .-_GLOBAL__sub_I__ZN9container7details11index_checkEll
	.section	.init_array,"aw"
	.align 8
	.quad	_GLOBAL__sub_I__ZN9container7details11index_checkEll
	.section	.rodata
	.align 8
.LC1:
	.long	0
	.long	1079558144
	.text
.Letext0:
	.file 23 "<built-in>"
	.file 24 "/usr/lib/gcc/x86_64-linux-gnu/12/include/stddef.h"
	.file 25 "/usr/include/x86_64-linux-gnu/bits/types/wint_t.h"
	.file 26 "/usr/include/x86_64-linux-gnu/bits/types/__mbstate_t.h"
	.file 27 "/usr/include/x86_64-linux-gnu/bits/types/mbstate_t.h"
	.file 28 "/usr/include/x86_64-linux-gnu/bits/types/__FILE.h"
	.file 29 "/usr/include/x86_64-linux-gnu/bits/types/struct_FILE.h"
	.file 30 "/usr/include/x86_64-linux-gnu/bits/types/FILE.h"
	.file 31 "/usr/include/c++/12/cwchar"
	.file 32 "/usr/include/x86_64-linux-gnu/c++/12/bits/c++config.h"
	.file 33 "/usr/include/c++/12/bits/exception_ptr.h"
	.file 34 "/usr/include/c++/12/bits/char_traits.h"
	.file 35 "/usr/include/c++/12/cstdint"
	.file 36 "/usr/include/c++/12/clocale"
	.file 37 "/usr/include/c++/12/debug/debug.h"
	.file 38 "/usr/include/c++/12/cstdlib"
	.file 39 "/usr/include/c++/12/cstdio"
	.file 40 "/usr/include/c++/12/bits/ios_base.h"
	.file 41 "/usr/include/c++/12/cwctype"
	.file 42 "/usr/include/c++/12/ostream"
	.file 43 "/usr/include/c++/12/iosfwd"
	.file 44 "/usr/include/c++/12/bits/functexcept.h"
	.file 45 "/usr/include/c++/12/stdexcept"
	.file 46 "/usr/include/wchar.h"
	.file 47 "/usr/include/x86_64-linux-gnu/bits/types/struct_tm.h"
	.file 48 "/usr/include/c++/12/bits/predefined_ops.h"
	.file 49 "/usr/include/x86_64-linux-gnu/bits/types.h"
	.file 50 "/usr/include/x86_64-linux-gnu/bits/stdint-intn.h"
	.file 51 "/usr/include/x86_64-linux-gnu/bits/stdint-uintn.h"
	.file 52 "/usr/include/stdint.h"
	.file 53 "/usr/include/locale.h"
	.file 54 "/usr/include/stdlib.h"
	.file 55 "/usr/include/x86_64-linux-gnu/sys/types.h"
	.file 56 "/usr/include/x86_64-linux-gnu/bits/types/__fpos_t.h"
	.file 57 "/usr/include/stdio.h"
	.file 58 "/usr/include/x86_64-linux-gnu/bits/wctype-wchar.h"
	.file 59 "/usr/include/wctype.h"
	.file 60 "/usr/include/c++/12/pstl/execution_defs.h"
	.file 61 "/usr/include/c++/12/system_error"
	.section	.debug_info,"",@progbits
.Ldebug_info0:
	.long	0xae73
	.value	0x5
	.byte	0x1
	.byte	0x8
	.long	.Ldebug_abbrev0
	.uleb128 0x79
	.long	.LASF1247
	.byte	0x21
	.long	.LASF0
	.long	.LASF1
	.long	.LLRL2
	.quad	0
	.long	.Ldebug_line0
	.uleb128 0x26
	.byte	0x20
	.byte	0x3
	.long	.LASF2
	.uleb128 0x26
	.byte	0x10
	.byte	0x4
	.long	.LASF3
	.uleb128 0x26
	.byte	0x4
	.byte	0x4
	.long	.LASF4
	.uleb128 0x26
	.byte	0x8
	.byte	0x4
	.long	.LASF5
	.uleb128 0x9
	.long	0x3f
	.uleb128 0x26
	.byte	0x10
	.byte	0x4
	.long	.LASF6
	.uleb128 0x8
	.long	.LASF13
	.byte	0x18
	.byte	0xd6
	.byte	0x17
	.long	0x5e
	.uleb128 0x26
	.byte	0x8
	.byte	0x7
	.long	.LASF7
	.uleb128 0x9
	.long	0x5e
	.uleb128 0x7a
	.long	.LASF1248
	.byte	0x18
	.byte	0x17
	.byte	0
	.long	0x9f
	.uleb128 0x46
	.long	.LASF8
	.long	0x9f
	.byte	0
	.uleb128 0x46
	.long	.LASF9
	.long	0x9f
	.byte	0x4
	.uleb128 0x46
	.long	.LASF10
	.long	0xa6
	.byte	0x8
	.uleb128 0x46
	.long	.LASF11
	.long	0xa6
	.byte	0x10
	.byte	0
	.uleb128 0x26
	.byte	0x4
	.byte	0x7
	.long	.LASF12
	.uleb128 0x7b
	.byte	0x8
	.uleb128 0x8
	.long	.LASF14
	.byte	0x19
	.byte	0x14
	.byte	0x17
	.long	0x9f
	.uleb128 0x47
	.byte	0x8
	.byte	0x1a
	.byte	0xe
	.byte	0x1
	.long	.LASF972
	.long	0xfc
	.uleb128 0x7c
	.byte	0x4
	.byte	0x1a
	.byte	0x11
	.byte	0x3
	.long	0xe1
	.uleb128 0x5a
	.long	.LASF15
	.byte	0x12
	.byte	0x13
	.long	0x9f
	.uleb128 0x5a
	.long	.LASF16
	.byte	0x13
	.byte	0xa
	.long	0xfc
	.byte	0
	.uleb128 0xa
	.long	.LASF17
	.byte	0x1a
	.byte	0xf
	.byte	0x7
	.long	0x118
	.byte	0
	.uleb128 0xa
	.long	.LASF18
	.byte	0x1a
	.byte	0x14
	.byte	0x5
	.long	0xc1
	.byte	0x4
	.byte	0
	.uleb128 0x51
	.long	0x10c
	.long	0x10c
	.uleb128 0x52
	.long	0x5e
	.byte	0x3
	.byte	0
	.uleb128 0x26
	.byte	0x1
	.byte	0x6
	.long	.LASF19
	.uleb128 0x9
	.long	0x10c
	.uleb128 0x7d
	.byte	0x4
	.byte	0x5
	.string	"int"
	.uleb128 0x9
	.long	0x118
	.uleb128 0x8
	.long	.LASF20
	.byte	0x1a
	.byte	0x15
	.byte	0x3
	.long	0xb4
	.uleb128 0x8
	.long	.LASF21
	.byte	0x1b
	.byte	0x6
	.byte	0x15
	.long	0x124
	.uleb128 0x9
	.long	0x130
	.uleb128 0x8
	.long	.LASF22
	.byte	0x1c
	.byte	0x5
	.byte	0x19
	.long	0x14d
	.uleb128 0x1e
	.long	.LASF54
	.byte	0xd8
	.byte	0x1d
	.byte	0x31
	.byte	0x8
	.long	0x2d4
	.uleb128 0xa
	.long	.LASF23
	.byte	0x1d
	.byte	0x33
	.byte	0x7
	.long	0x118
	.byte	0
	.uleb128 0xa
	.long	.LASF24
	.byte	0x1d
	.byte	0x36
	.byte	0x9
	.long	0x4af2
	.byte	0x8
	.uleb128 0xa
	.long	.LASF25
	.byte	0x1d
	.byte	0x37
	.byte	0x9
	.long	0x4af2
	.byte	0x10
	.uleb128 0xa
	.long	.LASF26
	.byte	0x1d
	.byte	0x38
	.byte	0x9
	.long	0x4af2
	.byte	0x18
	.uleb128 0xa
	.long	.LASF27
	.byte	0x1d
	.byte	0x39
	.byte	0x9
	.long	0x4af2
	.byte	0x20
	.uleb128 0xa
	.long	.LASF28
	.byte	0x1d
	.byte	0x3a
	.byte	0x9
	.long	0x4af2
	.byte	0x28
	.uleb128 0xa
	.long	.LASF29
	.byte	0x1d
	.byte	0x3b
	.byte	0x9
	.long	0x4af2
	.byte	0x30
	.uleb128 0xa
	.long	.LASF30
	.byte	0x1d
	.byte	0x3c
	.byte	0x9
	.long	0x4af2
	.byte	0x38
	.uleb128 0xa
	.long	.LASF31
	.byte	0x1d
	.byte	0x3d
	.byte	0x9
	.long	0x4af2
	.byte	0x40
	.uleb128 0xa
	.long	.LASF32
	.byte	0x1d
	.byte	0x40
	.byte	0x9
	.long	0x4af2
	.byte	0x48
	.uleb128 0xa
	.long	.LASF33
	.byte	0x1d
	.byte	0x41
	.byte	0x9
	.long	0x4af2
	.byte	0x50
	.uleb128 0xa
	.long	.LASF34
	.byte	0x1d
	.byte	0x42
	.byte	0x9
	.long	0x4af2
	.byte	0x58
	.uleb128 0xa
	.long	.LASF35
	.byte	0x1d
	.byte	0x44
	.byte	0x16
	.long	0x64db
	.byte	0x60
	.uleb128 0xa
	.long	.LASF36
	.byte	0x1d
	.byte	0x46
	.byte	0x14
	.long	0x64e0
	.byte	0x68
	.uleb128 0xa
	.long	.LASF37
	.byte	0x1d
	.byte	0x48
	.byte	0x7
	.long	0x118
	.byte	0x70
	.uleb128 0xa
	.long	.LASF38
	.byte	0x1d
	.byte	0x49
	.byte	0x7
	.long	0x118
	.byte	0x74
	.uleb128 0xa
	.long	.LASF39
	.byte	0x1d
	.byte	0x4a
	.byte	0xb
	.long	0x5db6
	.byte	0x78
	.uleb128 0xa
	.long	.LASF40
	.byte	0x1d
	.byte	0x4d
	.byte	0x12
	.long	0x2e0
	.byte	0x80
	.uleb128 0xa
	.long	.LASF41
	.byte	0x1d
	.byte	0x4e
	.byte	0xf
	.long	0x5c86
	.byte	0x82
	.uleb128 0xa
	.long	.LASF42
	.byte	0x1d
	.byte	0x4f
	.byte	0x8
	.long	0x64e5
	.byte	0x83
	.uleb128 0xa
	.long	.LASF43
	.byte	0x1d
	.byte	0x51
	.byte	0xf
	.long	0x64f5
	.byte	0x88
	.uleb128 0xa
	.long	.LASF44
	.byte	0x1d
	.byte	0x59
	.byte	0xd
	.long	0x5dc2
	.byte	0x90
	.uleb128 0xa
	.long	.LASF45
	.byte	0x1d
	.byte	0x5b
	.byte	0x17
	.long	0x64ff
	.byte	0x98
	.uleb128 0xa
	.long	.LASF46
	.byte	0x1d
	.byte	0x5c
	.byte	0x19
	.long	0x6509
	.byte	0xa0
	.uleb128 0xa
	.long	.LASF47
	.byte	0x1d
	.byte	0x5d
	.byte	0x14
	.long	0x64e0
	.byte	0xa8
	.uleb128 0xa
	.long	.LASF48
	.byte	0x1d
	.byte	0x5e
	.byte	0x9
	.long	0xa6
	.byte	0xb0
	.uleb128 0xa
	.long	.LASF49
	.byte	0x1d
	.byte	0x5f
	.byte	0xa
	.long	0x52
	.byte	0xb8
	.uleb128 0xa
	.long	.LASF50
	.byte	0x1d
	.byte	0x60
	.byte	0x7
	.long	0x118
	.byte	0xc0
	.uleb128 0xa
	.long	.LASF51
	.byte	0x1d
	.byte	0x62
	.byte	0x8
	.long	0x650e
	.byte	0xc4
	.byte	0
	.uleb128 0x8
	.long	.LASF52
	.byte	0x1e
	.byte	0x7
	.byte	0x19
	.long	0x14d
	.uleb128 0x26
	.byte	0x2
	.byte	0x7
	.long	.LASF53
	.uleb128 0xc
	.long	0x113
	.uleb128 0x7e
	.string	"std"
	.byte	0x20
	.value	0x128
	.byte	0xb
	.long	0x47ba
	.uleb128 0x3
	.byte	0x1f
	.byte	0x40
	.byte	0xb
	.long	0x130
	.uleb128 0x3
	.byte	0x1f
	.byte	0x8d
	.byte	0xb
	.long	0xa8
	.uleb128 0x3
	.byte	0x1f
	.byte	0x8f
	.byte	0xb
	.long	0x47ba
	.uleb128 0x3
	.byte	0x1f
	.byte	0x90
	.byte	0xb
	.long	0x47d1
	.uleb128 0x3
	.byte	0x1f
	.byte	0x91
	.byte	0xb
	.long	0x47ed
	.uleb128 0x3
	.byte	0x1f
	.byte	0x92
	.byte	0xb
	.long	0x481f
	.uleb128 0x3
	.byte	0x1f
	.byte	0x93
	.byte	0xb
	.long	0x483b
	.uleb128 0x3
	.byte	0x1f
	.byte	0x94
	.byte	0xb
	.long	0x485c
	.uleb128 0x3
	.byte	0x1f
	.byte	0x95
	.byte	0xb
	.long	0x4878
	.uleb128 0x3
	.byte	0x1f
	.byte	0x96
	.byte	0xb
	.long	0x4895
	.uleb128 0x3
	.byte	0x1f
	.byte	0x97
	.byte	0xb
	.long	0x48b6
	.uleb128 0x3
	.byte	0x1f
	.byte	0x98
	.byte	0xb
	.long	0x48cd
	.uleb128 0x3
	.byte	0x1f
	.byte	0x99
	.byte	0xb
	.long	0x48da
	.uleb128 0x3
	.byte	0x1f
	.byte	0x9a
	.byte	0xb
	.long	0x4900
	.uleb128 0x3
	.byte	0x1f
	.byte	0x9b
	.byte	0xb
	.long	0x4926
	.uleb128 0x3
	.byte	0x1f
	.byte	0x9c
	.byte	0xb
	.long	0x4942
	.uleb128 0x3
	.byte	0x1f
	.byte	0x9d
	.byte	0xb
	.long	0x496d
	.uleb128 0x3
	.byte	0x1f
	.byte	0x9e
	.byte	0xb
	.long	0x4989
	.uleb128 0x3
	.byte	0x1f
	.byte	0xa0
	.byte	0xb
	.long	0x49a0
	.uleb128 0x3
	.byte	0x1f
	.byte	0xa2
	.byte	0xb
	.long	0x49c2
	.uleb128 0x3
	.byte	0x1f
	.byte	0xa3
	.byte	0xb
	.long	0x49e3
	.uleb128 0x3
	.byte	0x1f
	.byte	0xa4
	.byte	0xb
	.long	0x49ff
	.uleb128 0x3
	.byte	0x1f
	.byte	0xa6
	.byte	0xb
	.long	0x4a25
	.uleb128 0x3
	.byte	0x1f
	.byte	0xa9
	.byte	0xb
	.long	0x4a4a
	.uleb128 0x3
	.byte	0x1f
	.byte	0xac
	.byte	0xb
	.long	0x4a70
	.uleb128 0x3
	.byte	0x1f
	.byte	0xae
	.byte	0xb
	.long	0x4a95
	.uleb128 0x3
	.byte	0x1f
	.byte	0xb0
	.byte	0xb
	.long	0x4ab1
	.uleb128 0x3
	.byte	0x1f
	.byte	0xb2
	.byte	0xb
	.long	0x4ad1
	.uleb128 0x3
	.byte	0x1f
	.byte	0xb3
	.byte	0xb
	.long	0x4af7
	.uleb128 0x3
	.byte	0x1f
	.byte	0xb4
	.byte	0xb
	.long	0x4b12
	.uleb128 0x3
	.byte	0x1f
	.byte	0xb5
	.byte	0xb
	.long	0x4b2d
	.uleb128 0x3
	.byte	0x1f
	.byte	0xb6
	.byte	0xb
	.long	0x4b48
	.uleb128 0x3
	.byte	0x1f
	.byte	0xb7
	.byte	0xb
	.long	0x4b63
	.uleb128 0x3
	.byte	0x1f
	.byte	0xb8
	.byte	0xb
	.long	0x4b7e
	.uleb128 0x3
	.byte	0x1f
	.byte	0xb9
	.byte	0xb
	.long	0x4c4b
	.uleb128 0x3
	.byte	0x1f
	.byte	0xba
	.byte	0xb
	.long	0x4c61
	.uleb128 0x3
	.byte	0x1f
	.byte	0xbb
	.byte	0xb
	.long	0x4c81
	.uleb128 0x3
	.byte	0x1f
	.byte	0xbc
	.byte	0xb
	.long	0x4ca1
	.uleb128 0x3
	.byte	0x1f
	.byte	0xbd
	.byte	0xb
	.long	0x4cc1
	.uleb128 0x3
	.byte	0x1f
	.byte	0xbe
	.byte	0xb
	.long	0x4cec
	.uleb128 0x3
	.byte	0x1f
	.byte	0xbf
	.byte	0xb
	.long	0x4d07
	.uleb128 0x3
	.byte	0x1f
	.byte	0xc1
	.byte	0xb
	.long	0x4d28
	.uleb128 0x3
	.byte	0x1f
	.byte	0xc3
	.byte	0xb
	.long	0x4d44
	.uleb128 0x3
	.byte	0x1f
	.byte	0xc4
	.byte	0xb
	.long	0x4d64
	.uleb128 0x3
	.byte	0x1f
	.byte	0xc5
	.byte	0xb
	.long	0x4d91
	.uleb128 0x3
	.byte	0x1f
	.byte	0xc6
	.byte	0xb
	.long	0x4db2
	.uleb128 0x3
	.byte	0x1f
	.byte	0xc7
	.byte	0xb
	.long	0x4dd2
	.uleb128 0x3
	.byte	0x1f
	.byte	0xc8
	.byte	0xb
	.long	0x4de9
	.uleb128 0x3
	.byte	0x1f
	.byte	0xc9
	.byte	0xb
	.long	0x4e0a
	.uleb128 0x3
	.byte	0x1f
	.byte	0xca
	.byte	0xb
	.long	0x4e2b
	.uleb128 0x3
	.byte	0x1f
	.byte	0xcb
	.byte	0xb
	.long	0x4e4c
	.uleb128 0x3
	.byte	0x1f
	.byte	0xcc
	.byte	0xb
	.long	0x4e6d
	.uleb128 0x3
	.byte	0x1f
	.byte	0xcd
	.byte	0xb
	.long	0x4e85
	.uleb128 0x3
	.byte	0x1f
	.byte	0xce
	.byte	0xb
	.long	0x4ea1
	.uleb128 0x3
	.byte	0x1f
	.byte	0xce
	.byte	0xb
	.long	0x4ec0
	.uleb128 0x3
	.byte	0x1f
	.byte	0xcf
	.byte	0xb
	.long	0x4edf
	.uleb128 0x3
	.byte	0x1f
	.byte	0xcf
	.byte	0xb
	.long	0x4efe
	.uleb128 0x3
	.byte	0x1f
	.byte	0xd0
	.byte	0xb
	.long	0x4f1d
	.uleb128 0x3
	.byte	0x1f
	.byte	0xd0
	.byte	0xb
	.long	0x4f3c
	.uleb128 0x3
	.byte	0x1f
	.byte	0xd1
	.byte	0xb
	.long	0x4f5b
	.uleb128 0x3
	.byte	0x1f
	.byte	0xd1
	.byte	0xb
	.long	0x4f7a
	.uleb128 0x3
	.byte	0x1f
	.byte	0xd2
	.byte	0xb
	.long	0x4f99
	.uleb128 0x3
	.byte	0x1f
	.byte	0xd2
	.byte	0xb
	.long	0x4fbd
	.uleb128 0x21
	.byte	0x1f
	.value	0x10b
	.byte	0x16
	.long	0x5bf3
	.uleb128 0x21
	.byte	0x1f
	.value	0x10c
	.byte	0x16
	.long	0x5c0f
	.uleb128 0x21
	.byte	0x1f
	.value	0x10d
	.byte	0x16
	.long	0x5c37
	.uleb128 0x21
	.byte	0x1f
	.value	0x11b
	.byte	0xe
	.long	0x4d28
	.uleb128 0x21
	.byte	0x1f
	.value	0x11e
	.byte	0xe
	.long	0x4a25
	.uleb128 0x21
	.byte	0x1f
	.value	0x121
	.byte	0xe
	.long	0x4a70
	.uleb128 0x21
	.byte	0x1f
	.value	0x124
	.byte	0xe
	.long	0x4ab1
	.uleb128 0x21
	.byte	0x1f
	.value	0x128
	.byte	0xe
	.long	0x5bf3
	.uleb128 0x21
	.byte	0x1f
	.value	0x129
	.byte	0xe
	.long	0x5c0f
	.uleb128 0x21
	.byte	0x1f
	.value	0x12a
	.byte	0xe
	.long	0x5c37
	.uleb128 0x7f
	.long	.LASF1249
	.byte	0x7
	.byte	0x8
	.long	0x5e
	.byte	0x1
	.byte	0x59
	.byte	0xe
	.uleb128 0x1d
	.long	.LASF13
	.byte	0x20
	.value	0x12a
	.byte	0x1a
	.long	0x5e
	.uleb128 0x9
	.long	0x559
	.uleb128 0x1e
	.long	.LASF55
	.byte	0x1
	.byte	0x3
	.byte	0x3e
	.byte	0xc
	.long	0x5d4
	.uleb128 0x8
	.long	.LASF56
	.byte	0x3
	.byte	0x41
	.byte	0x2d
	.long	0x5c64
	.uleb128 0x39
	.long	.LASF57
	.byte	0x3
	.byte	0x43
	.byte	0x11
	.long	.LASF59
	.long	0x578
	.long	0x59c
	.long	0x5a2
	.uleb128 0x2
	.long	0x5c70
	.byte	0
	.uleb128 0x39
	.long	.LASF58
	.byte	0x3
	.byte	0x48
	.byte	0x1c
	.long	.LASF60
	.long	0x578
	.long	0x5ba
	.long	0x5c0
	.uleb128 0x2
	.long	0x5c70
	.byte	0
	.uleb128 0x6
	.string	"_Tp"
	.long	0x5c64
	.uleb128 0x5b
	.string	"__v"
	.long	0x5c64
	.byte	0
	.byte	0
	.uleb128 0x9
	.long	0x56b
	.uleb128 0x1e
	.long	.LASF61
	.byte	0x1
	.byte	0x3
	.byte	0x3e
	.byte	0xc
	.long	0x642
	.uleb128 0x8
	.long	.LASF56
	.byte	0x3
	.byte	0x41
	.byte	0x2d
	.long	0x5c64
	.uleb128 0x39
	.long	.LASF62
	.byte	0x3
	.byte	0x43
	.byte	0x11
	.long	.LASF63
	.long	0x5e6
	.long	0x60a
	.long	0x610
	.uleb128 0x2
	.long	0x5c75
	.byte	0
	.uleb128 0x39
	.long	.LASF58
	.byte	0x3
	.byte	0x48
	.byte	0x1c
	.long	.LASF64
	.long	0x5e6
	.long	0x628
	.long	0x62e
	.uleb128 0x2
	.long	0x5c75
	.byte	0
	.uleb128 0x6
	.string	"_Tp"
	.long	0x5c64
	.uleb128 0x5b
	.string	"__v"
	.long	0x5c64
	.byte	0x1
	.byte	0
	.uleb128 0x9
	.long	0x5d9
	.uleb128 0x8
	.long	.LASF65
	.byte	0x3
	.byte	0x55
	.byte	0x9
	.long	0x56b
	.uleb128 0x5c
	.long	.LASF66
	.value	0xa9f
	.uleb128 0x5c
	.long	.LASF67
	.value	0xaf5
	.uleb128 0x48
	.long	.LASF68
	.byte	0x21
	.byte	0x3f
	.byte	0xd
	.long	0x841
	.uleb128 0x2f
	.long	.LASF70
	.byte	0x8
	.byte	0x21
	.byte	0x5a
	.byte	0xb
	.long	0x833
	.uleb128 0xa
	.long	.LASF69
	.byte	0x21
	.byte	0x5c
	.byte	0xd
	.long	0xa6
	.byte	0
	.uleb128 0x80
	.long	.LASF70
	.byte	0x21
	.byte	0x5e
	.byte	0x10
	.long	.LASF71
	.long	0x69c
	.long	0x6a7
	.uleb128 0x2
	.long	0x5ca2
	.uleb128 0x1
	.long	0xa6
	.byte	0
	.uleb128 0x24
	.long	.LASF72
	.byte	0x21
	.byte	0x60
	.byte	0xc
	.long	.LASF74
	.long	0x6bb
	.long	0x6c1
	.uleb128 0x2
	.long	0x5ca2
	.byte	0
	.uleb128 0x24
	.long	.LASF73
	.byte	0x21
	.byte	0x61
	.byte	0xc
	.long	.LASF75
	.long	0x6d5
	.long	0x6db
	.uleb128 0x2
	.long	0x5ca2
	.byte	0
	.uleb128 0x39
	.long	.LASF76
	.byte	0x21
	.byte	0x63
	.byte	0xd
	.long	.LASF77
	.long	0xa6
	.long	0x6f3
	.long	0x6f9
	.uleb128 0x2
	.long	0x5ca7
	.byte	0
	.uleb128 0x20
	.long	.LASF70
	.byte	0x21
	.byte	0x6b
	.byte	0x7
	.long	.LASF78
	.long	0x70d
	.long	0x713
	.uleb128 0x2
	.long	0x5ca2
	.byte	0
	.uleb128 0x20
	.long	.LASF70
	.byte	0x21
	.byte	0x6d
	.byte	0x7
	.long	.LASF79
	.long	0x727
	.long	0x732
	.uleb128 0x2
	.long	0x5ca2
	.uleb128 0x1
	.long	0x5cac
	.byte	0
	.uleb128 0x20
	.long	.LASF70
	.byte	0x21
	.byte	0x70
	.byte	0x7
	.long	.LASF80
	.long	0x746
	.long	0x751
	.uleb128 0x2
	.long	0x5ca2
	.uleb128 0x1
	.long	0x85f
	.byte	0
	.uleb128 0x20
	.long	.LASF70
	.byte	0x21
	.byte	0x74
	.byte	0x7
	.long	.LASF81
	.long	0x765
	.long	0x770
	.uleb128 0x2
	.long	0x5ca2
	.uleb128 0x1
	.long	0x5cb1
	.byte	0
	.uleb128 0x1b
	.long	.LASF82
	.byte	0x21
	.byte	0x81
	.byte	0x7
	.long	.LASF83
	.long	0x5cb6
	.byte	0x1
	.long	0x789
	.long	0x794
	.uleb128 0x2
	.long	0x5ca2
	.uleb128 0x1
	.long	0x5cac
	.byte	0
	.uleb128 0x1b
	.long	.LASF82
	.byte	0x21
	.byte	0x85
	.byte	0x7
	.long	.LASF84
	.long	0x5cb6
	.byte	0x1
	.long	0x7ad
	.long	0x7b8
	.uleb128 0x2
	.long	0x5ca2
	.uleb128 0x1
	.long	0x5cb1
	.byte	0
	.uleb128 0x20
	.long	.LASF85
	.byte	0x21
	.byte	0x8c
	.byte	0x7
	.long	.LASF86
	.long	0x7cc
	.long	0x7d7
	.uleb128 0x2
	.long	0x5ca2
	.uleb128 0x2
	.long	0x118
	.byte	0
	.uleb128 0x20
	.long	.LASF87
	.byte	0x21
	.byte	0x8f
	.byte	0x7
	.long	.LASF88
	.long	0x7eb
	.long	0x7f6
	.uleb128 0x2
	.long	0x5ca2
	.uleb128 0x1
	.long	0x5cb6
	.byte	0
	.uleb128 0x81
	.long	.LASF184
	.byte	0x21
	.byte	0x9b
	.byte	0x10
	.long	.LASF185
	.long	0x5c64
	.byte	0x1
	.long	0x810
	.long	0x816
	.uleb128 0x2
	.long	0x5ca7
	.byte	0
	.uleb128 0x82
	.long	.LASF89
	.byte	0x21
	.byte	0xb0
	.byte	0x7
	.long	.LASF90
	.long	0x5cbb
	.byte	0x1
	.long	0x82c
	.uleb128 0x2
	.long	0x5ca7
	.byte	0
	.byte	0
	.uleb128 0x9
	.long	0x66d
	.uleb128 0x3
	.byte	0x21
	.byte	0x54
	.byte	0x10
	.long	0x849
	.byte	0
	.uleb128 0x3
	.byte	0x21
	.byte	0x44
	.byte	0x1a
	.long	0x66d
	.uleb128 0x5d
	.long	.LASF91
	.byte	0x21
	.byte	0x50
	.byte	0x8
	.long	.LASF92
	.long	0x85f
	.uleb128 0x1
	.long	0x66d
	.byte	0
	.uleb128 0x1d
	.long	.LASF93
	.byte	0x20
	.value	0x12e
	.byte	0x1d
	.long	0x5c5f
	.uleb128 0x3b
	.long	.LASF386
	.uleb128 0x9
	.long	0x86c
	.uleb128 0x2d
	.long	.LASF94
	.byte	0x22
	.value	0x14f
	.long	0xa5d
	.uleb128 0x35
	.long	.LASF108
	.byte	0x22
	.value	0x15b
	.byte	0x7
	.long	.LASF194
	.long	0x89e
	.uleb128 0x1
	.long	0x5cc0
	.uleb128 0x1
	.long	0x5cc5
	.byte	0
	.uleb128 0x1d
	.long	.LASF95
	.byte	0x22
	.value	0x151
	.byte	0x21
	.long	0x10c
	.uleb128 0x9
	.long	0x89e
	.uleb128 0x5e
	.string	"eq"
	.value	0x166
	.long	.LASF96
	.long	0x5c64
	.long	0x8cd
	.uleb128 0x1
	.long	0x5cc5
	.uleb128 0x1
	.long	0x5cc5
	.byte	0
	.uleb128 0x5e
	.string	"lt"
	.value	0x16a
	.long	.LASF97
	.long	0x5c64
	.long	0x8ea
	.uleb128 0x1
	.long	0x5cc5
	.uleb128 0x1
	.long	0x5cc5
	.byte	0
	.uleb128 0xb
	.long	.LASF98
	.byte	0x22
	.value	0x172
	.byte	0x7
	.long	.LASF100
	.long	0x118
	.long	0x90f
	.uleb128 0x1
	.long	0x5cca
	.uleb128 0x1
	.long	0x5cca
	.uleb128 0x1
	.long	0x559
	.byte	0
	.uleb128 0xb
	.long	.LASF99
	.byte	0x22
	.value	0x185
	.byte	0x7
	.long	.LASF101
	.long	0x559
	.long	0x92a
	.uleb128 0x1
	.long	0x5cca
	.byte	0
	.uleb128 0xb
	.long	.LASF102
	.byte	0x22
	.value	0x18f
	.byte	0x7
	.long	.LASF103
	.long	0x5cca
	.long	0x94f
	.uleb128 0x1
	.long	0x5cca
	.uleb128 0x1
	.long	0x559
	.uleb128 0x1
	.long	0x5cc5
	.byte	0
	.uleb128 0xb
	.long	.LASF104
	.byte	0x22
	.value	0x19b
	.byte	0x7
	.long	.LASF105
	.long	0x5ccf
	.long	0x974
	.uleb128 0x1
	.long	0x5ccf
	.uleb128 0x1
	.long	0x5cca
	.uleb128 0x1
	.long	0x559
	.byte	0
	.uleb128 0xb
	.long	.LASF106
	.byte	0x22
	.value	0x1a7
	.byte	0x7
	.long	.LASF107
	.long	0x5ccf
	.long	0x999
	.uleb128 0x1
	.long	0x5ccf
	.uleb128 0x1
	.long	0x5cca
	.uleb128 0x1
	.long	0x559
	.byte	0
	.uleb128 0xb
	.long	.LASF108
	.byte	0x22
	.value	0x1b3
	.byte	0x7
	.long	.LASF109
	.long	0x5ccf
	.long	0x9be
	.uleb128 0x1
	.long	0x5ccf
	.uleb128 0x1
	.long	0x559
	.uleb128 0x1
	.long	0x89e
	.byte	0
	.uleb128 0xb
	.long	.LASF110
	.byte	0x22
	.value	0x1bf
	.byte	0x7
	.long	.LASF111
	.long	0x89e
	.long	0x9d9
	.uleb128 0x1
	.long	0x5cd4
	.byte	0
	.uleb128 0x1d
	.long	.LASF112
	.byte	0x22
	.value	0x152
	.byte	0x21
	.long	0x118
	.uleb128 0x9
	.long	0x9d9
	.uleb128 0xb
	.long	.LASF113
	.byte	0x22
	.value	0x1c5
	.byte	0x7
	.long	.LASF114
	.long	0x9d9
	.long	0xa06
	.uleb128 0x1
	.long	0x5cc5
	.byte	0
	.uleb128 0xb
	.long	.LASF115
	.byte	0x22
	.value	0x1c9
	.byte	0x7
	.long	.LASF116
	.long	0x5c64
	.long	0xa26
	.uleb128 0x1
	.long	0x5cd4
	.uleb128 0x1
	.long	0x5cd4
	.byte	0
	.uleb128 0x83
	.string	"eof"
	.byte	0x22
	.value	0x1cd
	.byte	0x7
	.long	.LASF1250
	.long	0x9d9
	.uleb128 0xb
	.long	.LASF117
	.byte	0x22
	.value	0x1d1
	.byte	0x7
	.long	.LASF118
	.long	0x9d9
	.long	0xa53
	.uleb128 0x1
	.long	0x5cd4
	.byte	0
	.uleb128 0x4
	.long	.LASF119
	.long	0x10c
	.byte	0
	.uleb128 0x3
	.byte	0x23
	.byte	0x2f
	.byte	0xb
	.long	0x5dda
	.uleb128 0x3
	.byte	0x23
	.byte	0x30
	.byte	0xb
	.long	0x5de6
	.uleb128 0x3
	.byte	0x23
	.byte	0x31
	.byte	0xb
	.long	0x5df2
	.uleb128 0x3
	.byte	0x23
	.byte	0x32
	.byte	0xb
	.long	0x5dfe
	.uleb128 0x3
	.byte	0x23
	.byte	0x34
	.byte	0xb
	.long	0x5e9a
	.uleb128 0x3
	.byte	0x23
	.byte	0x35
	.byte	0xb
	.long	0x5ea6
	.uleb128 0x3
	.byte	0x23
	.byte	0x36
	.byte	0xb
	.long	0x5eb2
	.uleb128 0x3
	.byte	0x23
	.byte	0x37
	.byte	0xb
	.long	0x5ebe
	.uleb128 0x3
	.byte	0x23
	.byte	0x39
	.byte	0xb
	.long	0x5e3a
	.uleb128 0x3
	.byte	0x23
	.byte	0x3a
	.byte	0xb
	.long	0x5e46
	.uleb128 0x3
	.byte	0x23
	.byte	0x3b
	.byte	0xb
	.long	0x5e52
	.uleb128 0x3
	.byte	0x23
	.byte	0x3c
	.byte	0xb
	.long	0x5e5e
	.uleb128 0x3
	.byte	0x23
	.byte	0x3e
	.byte	0xb
	.long	0x5f12
	.uleb128 0x3
	.byte	0x23
	.byte	0x3f
	.byte	0xb
	.long	0x5efa
	.uleb128 0x3
	.byte	0x23
	.byte	0x41
	.byte	0xb
	.long	0x5e0a
	.uleb128 0x3
	.byte	0x23
	.byte	0x42
	.byte	0xb
	.long	0x5e16
	.uleb128 0x3
	.byte	0x23
	.byte	0x43
	.byte	0xb
	.long	0x5e22
	.uleb128 0x3
	.byte	0x23
	.byte	0x44
	.byte	0xb
	.long	0x5e2e
	.uleb128 0x3
	.byte	0x23
	.byte	0x46
	.byte	0xb
	.long	0x5eca
	.uleb128 0x3
	.byte	0x23
	.byte	0x47
	.byte	0xb
	.long	0x5ed6
	.uleb128 0x3
	.byte	0x23
	.byte	0x48
	.byte	0xb
	.long	0x5ee2
	.uleb128 0x3
	.byte	0x23
	.byte	0x49
	.byte	0xb
	.long	0x5eee
	.uleb128 0x3
	.byte	0x23
	.byte	0x4b
	.byte	0xb
	.long	0x5e6a
	.uleb128 0x3
	.byte	0x23
	.byte	0x4c
	.byte	0xb
	.long	0x5e76
	.uleb128 0x3
	.byte	0x23
	.byte	0x4d
	.byte	0xb
	.long	0x5e82
	.uleb128 0x3
	.byte	0x23
	.byte	0x4e
	.byte	0xb
	.long	0x5e8e
	.uleb128 0x3
	.byte	0x23
	.byte	0x50
	.byte	0xb
	.long	0x5f1e
	.uleb128 0x3
	.byte	0x23
	.byte	0x51
	.byte	0xb
	.long	0x5f06
	.uleb128 0x3
	.byte	0x24
	.byte	0x35
	.byte	0xb
	.long	0x5f2a
	.uleb128 0x3
	.byte	0x24
	.byte	0x36
	.byte	0xb
	.long	0x6070
	.uleb128 0x3
	.byte	0x24
	.byte	0x37
	.byte	0xb
	.long	0x608b
	.uleb128 0x1d
	.long	.LASF120
	.byte	0x20
	.value	0x12b
	.byte	0x1c
	.long	0x4d85
	.uleb128 0x9
	.long	0xb55
	.uleb128 0x8
	.long	.LASF121
	.byte	0x3
	.byte	0x52
	.byte	0x9
	.long	0x5d9
	.uleb128 0x84
	.long	.LASF1251
	.byte	0x1
	.byte	0x10
	.byte	0x5d
	.byte	0xa
	.uleb128 0x1e
	.long	.LASF122
	.byte	0x1
	.byte	0x10
	.byte	0x63
	.byte	0xa
	.long	0xb90
	.uleb128 0x34
	.long	0xb73
	.byte	0
	.uleb128 0x1e
	.long	.LASF123
	.byte	0x1
	.byte	0x10
	.byte	0x67
	.byte	0xa
	.long	0xba3
	.uleb128 0x34
	.long	0xb7d
	.byte	0
	.uleb128 0x1e
	.long	.LASF124
	.byte	0x1
	.byte	0x10
	.byte	0x6b
	.byte	0xa
	.long	0xbb6
	.uleb128 0x34
	.long	0xb90
	.byte	0
	.uleb128 0x5f
	.long	.LASF125
	.byte	0x25
	.byte	0x32
	.byte	0xd
	.uleb128 0x2d
	.long	.LASF126
	.byte	0x2
	.value	0x490
	.long	0xc03
	.uleb128 0xb
	.long	.LASF127
	.byte	0x2
	.value	0x495
	.byte	0x2
	.long	.LASF128
	.long	0x5c64
	.long	0xbf8
	.uleb128 0x6
	.string	"_Tp"
	.long	0x4d85
	.uleb128 0x1
	.long	0x69d4
	.uleb128 0x1
	.long	0x69d4
	.uleb128 0x1
	.long	0x69d4
	.byte	0
	.uleb128 0x1f
	.long	.LASF129
	.long	0x5c64
	.byte	0x1
	.byte	0
	.uleb128 0x1e
	.long	.LASF130
	.byte	0x1
	.byte	0xf
	.byte	0xa8
	.byte	0xc
	.long	0xc56
	.uleb128 0x3a
	.long	.LASF131
	.byte	0xf
	.byte	0xac
	.byte	0x9
	.long	.LASF210
	.long	0xc34
	.uleb128 0x4
	.long	.LASF132
	.long	0x69bb
	.uleb128 0x1
	.long	0x69bb
	.uleb128 0x1
	.long	0x69bb
	.byte	0
	.uleb128 0x85
	.long	.LASF993
	.byte	0xf
	.byte	0xac
	.byte	0x9
	.long	.LASF1252
	.uleb128 0x4
	.long	.LASF132
	.long	0x6fac
	.uleb128 0x1
	.long	0x6fac
	.uleb128 0x1
	.long	0x6fac
	.byte	0
	.byte	0
	.uleb128 0x3
	.byte	0x26
	.byte	0x7f
	.byte	0xb
	.long	0x60f0
	.uleb128 0x3
	.byte	0x26
	.byte	0x80
	.byte	0xb
	.long	0x6123
	.uleb128 0x3
	.byte	0x26
	.byte	0x86
	.byte	0xb
	.long	0x6195
	.uleb128 0x3
	.byte	0x26
	.byte	0x89
	.byte	0xb
	.long	0x61b3
	.uleb128 0x3
	.byte	0x26
	.byte	0x8c
	.byte	0xb
	.long	0x61ce
	.uleb128 0x3
	.byte	0x26
	.byte	0x8d
	.byte	0xb
	.long	0x61e4
	.uleb128 0x3
	.byte	0x26
	.byte	0x8e
	.byte	0xb
	.long	0x61fa
	.uleb128 0x3
	.byte	0x26
	.byte	0x8f
	.byte	0xb
	.long	0x6210
	.uleb128 0x3
	.byte	0x26
	.byte	0x91
	.byte	0xb
	.long	0x623b
	.uleb128 0x3
	.byte	0x26
	.byte	0x94
	.byte	0xb
	.long	0x6258
	.uleb128 0x3
	.byte	0x26
	.byte	0x96
	.byte	0xb
	.long	0x626f
	.uleb128 0x3
	.byte	0x26
	.byte	0x99
	.byte	0xb
	.long	0x628b
	.uleb128 0x3
	.byte	0x26
	.byte	0x9a
	.byte	0xb
	.long	0x62a7
	.uleb128 0x3
	.byte	0x26
	.byte	0x9b
	.byte	0xb
	.long	0x62c8
	.uleb128 0x3
	.byte	0x26
	.byte	0x9d
	.byte	0xb
	.long	0x62e9
	.uleb128 0x3
	.byte	0x26
	.byte	0xa0
	.byte	0xb
	.long	0x630a
	.uleb128 0x3
	.byte	0x26
	.byte	0xa3
	.byte	0xb
	.long	0x631e
	.uleb128 0x3
	.byte	0x26
	.byte	0xa5
	.byte	0xb
	.long	0x632b
	.uleb128 0x3
	.byte	0x26
	.byte	0xa6
	.byte	0xb
	.long	0x633d
	.uleb128 0x3
	.byte	0x26
	.byte	0xa7
	.byte	0xb
	.long	0x635d
	.uleb128 0x3
	.byte	0x26
	.byte	0xa8
	.byte	0xb
	.long	0x637d
	.uleb128 0x3
	.byte	0x26
	.byte	0xa9
	.byte	0xb
	.long	0x639d
	.uleb128 0x3
	.byte	0x26
	.byte	0xab
	.byte	0xb
	.long	0x63b4
	.uleb128 0x3
	.byte	0x26
	.byte	0xac
	.byte	0xb
	.long	0x63d5
	.uleb128 0x3
	.byte	0x26
	.byte	0xf0
	.byte	0x16
	.long	0x6156
	.uleb128 0x3
	.byte	0x26
	.byte	0xf5
	.byte	0x16
	.long	0x5049
	.uleb128 0x3
	.byte	0x26
	.byte	0xf6
	.byte	0x16
	.long	0x63f1
	.uleb128 0x3
	.byte	0x26
	.byte	0xf8
	.byte	0x16
	.long	0x640d
	.uleb128 0x3
	.byte	0x26
	.byte	0xf9
	.byte	0x16
	.long	0x6463
	.uleb128 0x3
	.byte	0x26
	.byte	0xfa
	.byte	0x16
	.long	0x6423
	.uleb128 0x3
	.byte	0x26
	.byte	0xfb
	.byte	0x16
	.long	0x6443
	.uleb128 0x3
	.byte	0x26
	.byte	0xfc
	.byte	0x16
	.long	0x647e
	.uleb128 0x3
	.byte	0x27
	.byte	0x62
	.byte	0xb
	.long	0x2d4
	.uleb128 0x3
	.byte	0x27
	.byte	0x63
	.byte	0xb
	.long	0x651e
	.uleb128 0x3
	.byte	0x27
	.byte	0x65
	.byte	0xb
	.long	0x6534
	.uleb128 0x3
	.byte	0x27
	.byte	0x66
	.byte	0xb
	.long	0x6546
	.uleb128 0x3
	.byte	0x27
	.byte	0x67
	.byte	0xb
	.long	0x655c
	.uleb128 0x3
	.byte	0x27
	.byte	0x68
	.byte	0xb
	.long	0x6573
	.uleb128 0x3
	.byte	0x27
	.byte	0x69
	.byte	0xb
	.long	0x658a
	.uleb128 0x3
	.byte	0x27
	.byte	0x6a
	.byte	0xb
	.long	0x65a0
	.uleb128 0x3
	.byte	0x27
	.byte	0x6b
	.byte	0xb
	.long	0x65b7
	.uleb128 0x3
	.byte	0x27
	.byte	0x6c
	.byte	0xb
	.long	0x65d8
	.uleb128 0x3
	.byte	0x27
	.byte	0x6d
	.byte	0xb
	.long	0x65f9
	.uleb128 0x3
	.byte	0x27
	.byte	0x71
	.byte	0xb
	.long	0x6615
	.uleb128 0x3
	.byte	0x27
	.byte	0x72
	.byte	0xb
	.long	0x663b
	.uleb128 0x3
	.byte	0x27
	.byte	0x74
	.byte	0xb
	.long	0x665c
	.uleb128 0x3
	.byte	0x27
	.byte	0x75
	.byte	0xb
	.long	0x667d
	.uleb128 0x3
	.byte	0x27
	.byte	0x76
	.byte	0xb
	.long	0x669e
	.uleb128 0x3
	.byte	0x27
	.byte	0x78
	.byte	0xb
	.long	0x66b5
	.uleb128 0x3
	.byte	0x27
	.byte	0x79
	.byte	0xb
	.long	0x66cc
	.uleb128 0x3
	.byte	0x27
	.byte	0x7e
	.byte	0xb
	.long	0x66d9
	.uleb128 0x3
	.byte	0x27
	.byte	0x83
	.byte	0xb
	.long	0x66eb
	.uleb128 0x3
	.byte	0x27
	.byte	0x84
	.byte	0xb
	.long	0x6701
	.uleb128 0x3
	.byte	0x27
	.byte	0x85
	.byte	0xb
	.long	0x671c
	.uleb128 0x3
	.byte	0x27
	.byte	0x87
	.byte	0xb
	.long	0x672e
	.uleb128 0x3
	.byte	0x27
	.byte	0x88
	.byte	0xb
	.long	0x6745
	.uleb128 0x3
	.byte	0x27
	.byte	0x8b
	.byte	0xb
	.long	0x676b
	.uleb128 0x3
	.byte	0x27
	.byte	0x8d
	.byte	0xb
	.long	0x6777
	.uleb128 0x3
	.byte	0x27
	.byte	0x8f
	.byte	0xb
	.long	0x678d
	.uleb128 0x86
	.long	.LASF133
	.byte	0x20
	.value	0x14b
	.byte	0x41
	.uleb128 0x87
	.string	"_V2"
	.byte	0x3d
	.byte	0x50
	.byte	0x14
	.uleb128 0x53
	.long	.LASF140
	.long	0xeda
	.uleb128 0x88
	.long	.LASF134
	.byte	0x1
	.byte	0x28
	.value	0x27b
	.byte	0xb
	.byte	0x1
	.long	0xed4
	.uleb128 0x60
	.long	.LASF134
	.value	0x27f
	.long	.LASF136
	.long	0xe6d
	.long	0xe73
	.uleb128 0x2
	.long	0x67a9
	.byte	0
	.uleb128 0x60
	.long	.LASF135
	.value	0x280
	.long	.LASF137
	.long	0xe86
	.long	0xe91
	.uleb128 0x2
	.long	0x67a9
	.uleb128 0x2
	.long	0x118
	.byte	0
	.uleb128 0x43
	.long	.LASF134
	.byte	0x28
	.value	0x283
	.long	.LASF138
	.long	0xea5
	.long	0xeb0
	.uleb128 0x2
	.long	0x67a9
	.uleb128 0x1
	.long	0x67b3
	.byte	0
	.uleb128 0x89
	.long	.LASF82
	.byte	0x28
	.value	0x284
	.byte	0xd
	.long	.LASF139
	.long	0x67b8
	.byte	0x1
	.byte	0x1
	.long	0xec8
	.uleb128 0x2
	.long	0x67a9
	.uleb128 0x1
	.long	0x67b3
	.byte	0
	.byte	0
	.uleb128 0x9
	.long	0xe4a
	.byte	0
	.uleb128 0x3
	.byte	0x29
	.byte	0x52
	.byte	0xb
	.long	0x67c9
	.uleb128 0x3
	.byte	0x29
	.byte	0x53
	.byte	0xb
	.long	0x67bd
	.uleb128 0x3
	.byte	0x29
	.byte	0x54
	.byte	0xb
	.long	0xa8
	.uleb128 0x3
	.byte	0x29
	.byte	0x5c
	.byte	0xb
	.long	0x67da
	.uleb128 0x3
	.byte	0x29
	.byte	0x65
	.byte	0xb
	.long	0x67f5
	.uleb128 0x3
	.byte	0x29
	.byte	0x68
	.byte	0xb
	.long	0x6810
	.uleb128 0x3
	.byte	0x29
	.byte	0x69
	.byte	0xb
	.long	0x6826
	.uleb128 0x53
	.long	.LASF141
	.long	0xf5e
	.uleb128 0x2c
	.long	.LASF163
	.byte	0x2a
	.byte	0x47
	.byte	0x2f
	.long	0xf12
	.uleb128 0x1b
	.long	.LASF142
	.byte	0x2a
	.byte	0xa6
	.byte	0x7
	.long	.LASF143
	.long	0xa7bb
	.byte	0x1
	.long	0xf40
	.long	0xf4b
	.uleb128 0x2
	.long	0xa7c0
	.uleb128 0x1
	.long	0x4d85
	.byte	0
	.uleb128 0x4
	.long	.LASF119
	.long	0x10c
	.uleb128 0x61
	.long	.LASF376
	.long	0x876
	.byte	0
	.uleb128 0x8
	.long	.LASF144
	.byte	0x2b
	.byte	0x8d
	.byte	0x21
	.long	0xf12
	.uleb128 0x8a
	.long	.LASF1069
	.byte	0x16
	.byte	0x3d
	.byte	0x12
	.long	.LASF1253
	.long	0xf5e
	.uleb128 0x8b
	.long	.LASF1144
	.byte	0x16
	.byte	0x4a
	.byte	0x19
	.long	0xe4a
	.uleb128 0x1e
	.long	.LASF145
	.byte	0x1
	.byte	0x11
	.byte	0x8d
	.byte	0xc
	.long	0x100c
	.uleb128 0x18
	.long	.LASF146
	.byte	0x11
	.byte	0x91
	.byte	0x9
	.long	.LASF147
	.long	0x69bb
	.long	0xfcb
	.uleb128 0x4
	.long	.LASF148
	.long	0x53b8
	.uleb128 0x4
	.long	.LASF132
	.long	0x69bb
	.uleb128 0x1
	.long	0x53b8
	.uleb128 0x1
	.long	0x53b8
	.uleb128 0x1
	.long	0x69bb
	.byte	0
	.uleb128 0x18
	.long	.LASF149
	.byte	0x11
	.byte	0x91
	.byte	0x9
	.long	.LASF150
	.long	0x69bb
	.long	0x1001
	.uleb128 0x4
	.long	.LASF148
	.long	0x69d4
	.uleb128 0x4
	.long	.LASF132
	.long	0x69bb
	.uleb128 0x1
	.long	0x69d4
	.uleb128 0x1
	.long	0x69d4
	.uleb128 0x1
	.long	0x69bb
	.byte	0
	.uleb128 0x1f
	.long	.LASF151
	.long	0x5c64
	.byte	0x1
	.byte	0
	.uleb128 0x2d
	.long	.LASF152
	.byte	0x11
	.value	0x28a
	.long	0x1055
	.uleb128 0xb
	.long	.LASF153
	.byte	0x11
	.value	0x28f
	.byte	0x9
	.long	.LASF154
	.long	0x6fac
	.long	0x104a
	.uleb128 0x4
	.long	.LASF132
	.long	0x6fac
	.uleb128 0x4
	.long	.LASF155
	.long	0x5e
	.uleb128 0x1
	.long	0x6fac
	.uleb128 0x1
	.long	0x5e
	.byte	0
	.uleb128 0x1f
	.long	.LASF156
	.long	0x5c64
	.byte	0x1
	.byte	0
	.uleb128 0x2f
	.long	.LASF157
	.byte	0x1
	.byte	0xb
	.byte	0x38
	.byte	0xb
	.long	0x11d2
	.uleb128 0x20
	.long	.LASF158
	.byte	0xb
	.byte	0x50
	.byte	0x7
	.long	.LASF159
	.long	0x1076
	.long	0x107c
	.uleb128 0x2
	.long	0x69ac
	.byte	0
	.uleb128 0x20
	.long	.LASF158
	.byte	0xb
	.byte	0x53
	.byte	0x7
	.long	.LASF160
	.long	0x1090
	.long	0x109b
	.uleb128 0x2
	.long	0x69ac
	.uleb128 0x1
	.long	0x69b6
	.byte	0
	.uleb128 0x20
	.long	.LASF161
	.byte	0xb
	.byte	0x5a
	.byte	0x7
	.long	.LASF162
	.long	0x10af
	.long	0x10ba
	.uleb128 0x2
	.long	0x69ac
	.uleb128 0x2
	.long	0x118
	.byte	0
	.uleb128 0x2c
	.long	.LASF164
	.byte	0xb
	.byte	0x3f
	.byte	0x1a
	.long	0x69bb
	.uleb128 0x1b
	.long	.LASF165
	.byte	0xb
	.byte	0x5d
	.byte	0x7
	.long	.LASF166
	.long	0x10ba
	.byte	0x1
	.long	0x10df
	.long	0x10ea
	.uleb128 0x2
	.long	0x69c5
	.uleb128 0x1
	.long	0x10ea
	.byte	0
	.uleb128 0x2c
	.long	.LASF167
	.byte	0xb
	.byte	0x41
	.byte	0x1a
	.long	0x69cf
	.uleb128 0x2c
	.long	.LASF168
	.byte	0xb
	.byte	0x40
	.byte	0x1a
	.long	0x69d4
	.uleb128 0x1b
	.long	.LASF165
	.byte	0xb
	.byte	0x61
	.byte	0x7
	.long	.LASF169
	.long	0x10f6
	.byte	0x1
	.long	0x111b
	.long	0x1126
	.uleb128 0x2
	.long	0x69c5
	.uleb128 0x1
	.long	0x1126
	.byte	0
	.uleb128 0x2c
	.long	.LASF170
	.byte	0xb
	.byte	0x42
	.byte	0x1a
	.long	0x69de
	.uleb128 0x1b
	.long	.LASF171
	.byte	0xb
	.byte	0x70
	.byte	0x7
	.long	.LASF172
	.long	0x69bb
	.byte	0x1
	.long	0x114b
	.long	0x115b
	.uleb128 0x2
	.long	0x69ac
	.uleb128 0x1
	.long	0x115b
	.uleb128 0x1
	.long	0x60ad
	.byte	0
	.uleb128 0x2c
	.long	.LASF173
	.byte	0xb
	.byte	0x3c
	.byte	0x1f
	.long	0x559
	.uleb128 0x20
	.long	.LASF174
	.byte	0xb
	.byte	0x8e
	.byte	0x7
	.long	.LASF175
	.long	0x117b
	.long	0x118b
	.uleb128 0x2
	.long	0x69ac
	.uleb128 0x1
	.long	0x69bb
	.uleb128 0x1
	.long	0x115b
	.byte	0
	.uleb128 0x1b
	.long	.LASF176
	.byte	0xb
	.byte	0xa7
	.byte	0x7
	.long	.LASF177
	.long	0x115b
	.byte	0x1
	.long	0x11a4
	.long	0x11aa
	.uleb128 0x2
	.long	0x69c5
	.byte	0
	.uleb128 0x39
	.long	.LASF178
	.byte	0xb
	.byte	0xd2
	.byte	0x7
	.long	.LASF179
	.long	0x115b
	.long	0x11c2
	.long	0x11c8
	.uleb128 0x2
	.long	0x69c5
	.byte	0
	.uleb128 0x6
	.string	"_Tp"
	.long	0x4d85
	.byte	0
	.uleb128 0x9
	.long	0x1055
	.uleb128 0x2f
	.long	.LASF180
	.byte	0x1
	.byte	0x9
	.byte	0x7c
	.byte	0xb
	.long	0x1260
	.uleb128 0x49
	.long	0x1055
	.byte	0x1
	.uleb128 0x20
	.long	.LASF181
	.byte	0x9
	.byte	0x9c
	.byte	0x7
	.long	.LASF182
	.long	0x11fe
	.long	0x1204
	.uleb128 0x2
	.long	0x69e3
	.byte	0
	.uleb128 0x20
	.long	.LASF181
	.byte	0x9
	.byte	0x9f
	.byte	0x7
	.long	.LASF183
	.long	0x1218
	.long	0x1223
	.uleb128 0x2
	.long	0x69e3
	.uleb128 0x1
	.long	0x69ed
	.byte	0
	.uleb128 0x3c
	.long	.LASF82
	.byte	0x9
	.byte	0xa4
	.byte	0x12
	.long	.LASF186
	.long	0x69f2
	.long	0x123b
	.long	0x1246
	.uleb128 0x2
	.long	0x69e3
	.uleb128 0x1
	.long	0x69ed
	.byte	0
	.uleb128 0x62
	.long	.LASF187
	.byte	0xae
	.long	.LASF188
	.long	0x1254
	.uleb128 0x2
	.long	0x69e3
	.uleb128 0x2
	.long	0x118
	.byte	0
	.byte	0
	.uleb128 0x9
	.long	0x11d7
	.uleb128 0x2d
	.long	.LASF189
	.byte	0xa
	.value	0x19b
	.long	0x1361
	.uleb128 0x1d
	.long	.LASF164
	.byte	0xa
	.value	0x1a4
	.byte	0xd
	.long	0x69bb
	.uleb128 0xb
	.long	.LASF171
	.byte	0xa
	.value	0x1cf
	.byte	0x7
	.long	.LASF190
	.long	0x1271
	.long	0x129e
	.uleb128 0x1
	.long	0x69f7
	.uleb128 0x1
	.long	0x12b0
	.byte	0
	.uleb128 0x1d
	.long	.LASF191
	.byte	0xa
	.value	0x19e
	.byte	0xd
	.long	0x11d7
	.uleb128 0x9
	.long	0x129e
	.uleb128 0x1d
	.long	.LASF173
	.byte	0xa
	.value	0x1b3
	.byte	0xd
	.long	0x559
	.uleb128 0xb
	.long	.LASF171
	.byte	0xa
	.value	0x1dd
	.byte	0x7
	.long	.LASF192
	.long	0x1271
	.long	0x12e2
	.uleb128 0x1
	.long	0x69f7
	.uleb128 0x1
	.long	0x12b0
	.uleb128 0x1
	.long	0x12e2
	.byte	0
	.uleb128 0x1d
	.long	.LASF193
	.byte	0xa
	.value	0x1ad
	.byte	0xd
	.long	0x60ad
	.uleb128 0x35
	.long	.LASF174
	.byte	0xa
	.value	0x1ef
	.byte	0x7
	.long	.LASF195
	.long	0x1310
	.uleb128 0x1
	.long	0x69f7
	.uleb128 0x1
	.long	0x1271
	.uleb128 0x1
	.long	0x12b0
	.byte	0
	.uleb128 0xb
	.long	.LASF176
	.byte	0xa
	.value	0x223
	.byte	0x7
	.long	.LASF196
	.long	0x12b0
	.long	0x132b
	.uleb128 0x1
	.long	0x69fc
	.byte	0
	.uleb128 0xb
	.long	.LASF197
	.byte	0xa
	.value	0x232
	.byte	0x7
	.long	.LASF198
	.long	0x129e
	.long	0x1346
	.uleb128 0x1
	.long	0x69fc
	.byte	0
	.uleb128 0x1d
	.long	.LASF56
	.byte	0xa
	.value	0x1a1
	.byte	0xd
	.long	0x4d85
	.uleb128 0x1d
	.long	.LASF199
	.byte	0xa
	.value	0x1c2
	.byte	0x8
	.long	0x11d7
	.byte	0
	.uleb128 0x1e
	.long	.LASF200
	.byte	0x18
	.byte	0x7
	.byte	0x55
	.byte	0xc
	.long	0x1704
	.uleb128 0x1e
	.long	.LASF201
	.byte	0x18
	.byte	0x7
	.byte	0x5c
	.byte	0xe
	.long	0x1414
	.uleb128 0xa
	.long	.LASF202
	.byte	0x7
	.byte	0x5e
	.byte	0xa
	.long	0x1419
	.byte	0
	.uleb128 0xa
	.long	.LASF203
	.byte	0x7
	.byte	0x5f
	.byte	0xa
	.long	0x1419
	.byte	0x8
	.uleb128 0xa
	.long	.LASF204
	.byte	0x7
	.byte	0x60
	.byte	0xa
	.long	0x1419
	.byte	0x10
	.uleb128 0x24
	.long	.LASF201
	.byte	0x7
	.byte	0x63
	.byte	0x2
	.long	.LASF205
	.long	0x13b6
	.long	0x13bc
	.uleb128 0x2
	.long	0x6a0b
	.byte	0
	.uleb128 0x24
	.long	.LASF201
	.byte	0x7
	.byte	0x69
	.byte	0x2
	.long	.LASF206
	.long	0x13d0
	.long	0x13db
	.uleb128 0x2
	.long	0x6a0b
	.uleb128 0x1
	.long	0x6a15
	.byte	0
	.uleb128 0x24
	.long	.LASF207
	.byte	0x7
	.byte	0x71
	.byte	0x2
	.long	.LASF208
	.long	0x13ef
	.long	0x13fa
	.uleb128 0x2
	.long	0x6a0b
	.uleb128 0x1
	.long	0x6a1a
	.byte	0
	.uleb128 0x63
	.long	.LASF209
	.byte	0x7a
	.long	.LASF211
	.long	0x1408
	.uleb128 0x2
	.long	0x6a0b
	.uleb128 0x1
	.long	0x6a1f
	.byte	0
	.byte	0
	.uleb128 0x9
	.long	0x136e
	.uleb128 0x8
	.long	.LASF164
	.byte	0x7
	.byte	0x5a
	.byte	0x9
	.long	0x5127
	.uleb128 0x1e
	.long	.LASF212
	.byte	0x18
	.byte	0x7
	.byte	0x85
	.byte	0xe
	.long	0x14f0
	.uleb128 0x34
	.long	0x11d7
	.uleb128 0x34
	.long	0x136e
	.uleb128 0x24
	.long	.LASF212
	.byte	0x7
	.byte	0x89
	.byte	0x2
	.long	.LASF213
	.long	0x1450
	.long	0x1456
	.uleb128 0x2
	.long	0x6a24
	.byte	0
	.uleb128 0x24
	.long	.LASF212
	.byte	0x7
	.byte	0x8f
	.byte	0x2
	.long	.LASF214
	.long	0x146a
	.long	0x1475
	.uleb128 0x2
	.long	0x6a24
	.uleb128 0x1
	.long	0x6a2e
	.byte	0
	.uleb128 0x24
	.long	.LASF212
	.byte	0x7
	.byte	0x97
	.byte	0x2
	.long	.LASF215
	.long	0x1489
	.long	0x1494
	.uleb128 0x2
	.long	0x6a24
	.uleb128 0x1
	.long	0x6a33
	.byte	0
	.uleb128 0x24
	.long	.LASF212
	.byte	0x7
	.byte	0x9c
	.byte	0x2
	.long	.LASF216
	.long	0x14a8
	.long	0x14b3
	.uleb128 0x2
	.long	0x6a24
	.uleb128 0x1
	.long	0x6a38
	.byte	0
	.uleb128 0x24
	.long	.LASF212
	.byte	0x7
	.byte	0xa1
	.byte	0x2
	.long	.LASF217
	.long	0x14c7
	.long	0x14d7
	.uleb128 0x2
	.long	0x6a24
	.uleb128 0x1
	.long	0x6a38
	.uleb128 0x1
	.long	0x6a33
	.byte	0
	.uleb128 0x64
	.long	.LASF420
	.long	.LASF421
	.long	0x14e4
	.uleb128 0x2
	.long	0x6a24
	.uleb128 0x2
	.long	0x118
	.byte	0
	.byte	0
	.uleb128 0x8
	.long	.LASF218
	.byte	0x7
	.byte	0x58
	.byte	0x15
	.long	0x5158
	.uleb128 0x9
	.long	0x14f0
	.uleb128 0x36
	.long	.LASF219
	.value	0x12a
	.long	.LASF220
	.long	0x6a3d
	.long	0x1518
	.long	0x151e
	.uleb128 0x2
	.long	0x6a42
	.byte	0
	.uleb128 0x36
	.long	.LASF219
	.value	0x12f
	.long	.LASF221
	.long	0x6a2e
	.long	0x1535
	.long	0x153b
	.uleb128 0x2
	.long	0x6a4c
	.byte	0
	.uleb128 0x1d
	.long	.LASF191
	.byte	0x7
	.value	0x126
	.byte	0x16
	.long	0x11d7
	.uleb128 0x9
	.long	0x153b
	.uleb128 0x36
	.long	.LASF222
	.value	0x134
	.long	.LASF223
	.long	0x153b
	.long	0x1564
	.long	0x156a
	.uleb128 0x2
	.long	0x6a4c
	.byte	0
	.uleb128 0x4a
	.long	.LASF224
	.value	0x138
	.long	.LASF225
	.long	0x157d
	.long	0x1583
	.uleb128 0x2
	.long	0x6a42
	.byte	0
	.uleb128 0x22
	.long	.LASF224
	.value	0x13e
	.long	.LASF226
	.long	0x1596
	.long	0x15a1
	.uleb128 0x2
	.long	0x6a42
	.uleb128 0x1
	.long	0x6a56
	.byte	0
	.uleb128 0x22
	.long	.LASF224
	.value	0x144
	.long	.LASF227
	.long	0x15b4
	.long	0x15bf
	.uleb128 0x2
	.long	0x6a42
	.uleb128 0x1
	.long	0x559
	.byte	0
	.uleb128 0x22
	.long	.LASF224
	.value	0x14a
	.long	.LASF228
	.long	0x15d2
	.long	0x15e2
	.uleb128 0x2
	.long	0x6a42
	.uleb128 0x1
	.long	0x559
	.uleb128 0x1
	.long	0x6a56
	.byte	0
	.uleb128 0x4a
	.long	.LASF224
	.value	0x14f
	.long	.LASF229
	.long	0x15f5
	.long	0x1600
	.uleb128 0x2
	.long	0x6a42
	.uleb128 0x1
	.long	0x6a5b
	.byte	0
	.uleb128 0x22
	.long	.LASF224
	.value	0x154
	.long	.LASF230
	.long	0x1613
	.long	0x161e
	.uleb128 0x2
	.long	0x6a42
	.uleb128 0x1
	.long	0x6a38
	.byte	0
	.uleb128 0x22
	.long	.LASF224
	.value	0x158
	.long	.LASF231
	.long	0x1631
	.long	0x1641
	.uleb128 0x2
	.long	0x6a42
	.uleb128 0x1
	.long	0x6a5b
	.uleb128 0x1
	.long	0x6a56
	.byte	0
	.uleb128 0x22
	.long	.LASF224
	.value	0x166
	.long	.LASF232
	.long	0x1654
	.long	0x1664
	.uleb128 0x2
	.long	0x6a42
	.uleb128 0x1
	.long	0x6a56
	.uleb128 0x1
	.long	0x6a5b
	.byte	0
	.uleb128 0x22
	.long	.LASF233
	.value	0x16c
	.long	.LASF234
	.long	0x1677
	.long	0x1682
	.uleb128 0x2
	.long	0x6a42
	.uleb128 0x2
	.long	0x118
	.byte	0
	.uleb128 0x65
	.long	.LASF235
	.long	0x1425
	.uleb128 0x36
	.long	.LASF236
	.value	0x177
	.long	.LASF237
	.long	0x1419
	.long	0x16a2
	.long	0x16ad
	.uleb128 0x2
	.long	0x6a42
	.uleb128 0x1
	.long	0x559
	.byte	0
	.uleb128 0x22
	.long	.LASF238
	.value	0x17f
	.long	.LASF239
	.long	0x16c0
	.long	0x16d0
	.uleb128 0x2
	.long	0x6a42
	.uleb128 0x1
	.long	0x1419
	.uleb128 0x1
	.long	0x559
	.byte	0
	.uleb128 0x13
	.long	.LASF240
	.byte	0x7
	.value	0x189
	.byte	0x7
	.long	.LASF241
	.byte	0x2
	.long	0x16e6
	.long	0x16f1
	.uleb128 0x2
	.long	0x6a42
	.uleb128 0x1
	.long	0x559
	.byte	0
	.uleb128 0x6
	.string	"_Tp"
	.long	0x4d85
	.uleb128 0x4
	.long	.LASF242
	.long	0x11d7
	.byte	0
	.uleb128 0x9
	.long	0x1361
	.uleb128 0x1e
	.long	.LASF243
	.byte	0x1
	.byte	0x3
	.byte	0x7c
	.byte	0xc
	.long	0x172c
	.uleb128 0x8
	.long	.LASF244
	.byte	0x3
	.byte	0x7d
	.byte	0xd
	.long	0x11d7
	.uleb128 0x4
	.long	.LASF245
	.long	0x11d7
	.byte	0
	.uleb128 0x3d
	.long	.LASF246
	.byte	0x18
	.byte	0x7
	.value	0x1a7
	.long	0x234b
	.uleb128 0x21
	.byte	0x7
	.value	0x1a7
	.byte	0xb
	.long	0x168b
	.uleb128 0x21
	.byte	0x7
	.value	0x1a7
	.byte	0xb
	.long	0x16ad
	.uleb128 0x21
	.byte	0x7
	.value	0x1a7
	.byte	0xb
	.long	0x1682
	.uleb128 0x21
	.byte	0x7
	.value	0x1a7
	.byte	0xb
	.long	0x151e
	.uleb128 0x21
	.byte	0x7
	.value	0x1a7
	.byte	0xb
	.long	0x1501
	.uleb128 0x21
	.byte	0x7
	.value	0x1a7
	.byte	0xb
	.long	0x154d
	.uleb128 0x49
	.long	0x1361
	.byte	0x2
	.uleb128 0xb
	.long	.LASF247
	.byte	0x7
	.value	0x1d1
	.byte	0x7
	.long	.LASF248
	.long	0x5c64
	.long	0x1790
	.uleb128 0x1
	.long	0xb67
	.byte	0
	.uleb128 0xb
	.long	.LASF247
	.byte	0x7
	.value	0x1da
	.byte	0x7
	.long	.LASF249
	.long	0x5c64
	.long	0x17ab
	.uleb128 0x1
	.long	0x647
	.byte	0
	.uleb128 0x66
	.long	.LASF250
	.long	.LASF442
	.long	0x5c64
	.uleb128 0x19
	.long	.LASF164
	.byte	0x7
	.value	0x1c1
	.byte	0x29
	.long	0x1419
	.uleb128 0xb
	.long	.LASF251
	.byte	0x7
	.value	0x1e7
	.byte	0x7
	.long	.LASF252
	.long	0x17b8
	.long	0x17f4
	.uleb128 0x1
	.long	0x17b8
	.uleb128 0x1
	.long	0x17b8
	.uleb128 0x1
	.long	0x17b8
	.uleb128 0x1
	.long	0x6a60
	.uleb128 0x1
	.long	0xb67
	.byte	0
	.uleb128 0x1d
	.long	.LASF218
	.byte	0x7
	.value	0x1bc
	.byte	0x2f
	.long	0x14f0
	.uleb128 0x9
	.long	0x17f4
	.uleb128 0xb
	.long	.LASF251
	.byte	0x7
	.value	0x1ee
	.byte	0x7
	.long	.LASF253
	.long	0x17b8
	.long	0x1835
	.uleb128 0x1
	.long	0x17b8
	.uleb128 0x1
	.long	0x17b8
	.uleb128 0x1
	.long	0x17b8
	.uleb128 0x1
	.long	0x6a60
	.uleb128 0x1
	.long	0x647
	.byte	0
	.uleb128 0xb
	.long	.LASF254
	.byte	0x7
	.value	0x1f3
	.byte	0x7
	.long	.LASF255
	.long	0x17b8
	.long	0x185f
	.uleb128 0x1
	.long	0x17b8
	.uleb128 0x1
	.long	0x17b8
	.uleb128 0x1
	.long	0x17b8
	.uleb128 0x1
	.long	0x6a60
	.byte	0
	.uleb128 0x43
	.long	.LASF256
	.byte	0x7
	.value	0x20e
	.long	.LASF257
	.long	0x1873
	.long	0x1879
	.uleb128 0x2
	.long	0x6a65
	.byte	0
	.uleb128 0x37
	.long	.LASF256
	.byte	0x7
	.value	0x219
	.long	.LASF258
	.long	0x188d
	.long	0x1898
	.uleb128 0x2
	.long	0x6a65
	.uleb128 0x1
	.long	0x6a6f
	.byte	0
	.uleb128 0x19
	.long	.LASF191
	.byte	0x7
	.value	0x1cc
	.byte	0x1a
	.long	0x11d7
	.uleb128 0x9
	.long	0x1898
	.uleb128 0x37
	.long	.LASF256
	.byte	0x7
	.value	0x227
	.long	.LASF259
	.long	0x18be
	.long	0x18ce
	.uleb128 0x2
	.long	0x6a65
	.uleb128 0x1
	.long	0x18ce
	.uleb128 0x1
	.long	0x6a6f
	.byte	0
	.uleb128 0x19
	.long	.LASF173
	.byte	0x7
	.value	0x1ca
	.byte	0x1a
	.long	0x559
	.uleb128 0x9
	.long	0x18ce
	.uleb128 0x13
	.long	.LASF256
	.byte	0x7
	.value	0x234
	.byte	0x7
	.long	.LASF260
	.byte	0x1
	.long	0x18f6
	.long	0x190b
	.uleb128 0x2
	.long	0x6a65
	.uleb128 0x1
	.long	0x18ce
	.uleb128 0x1
	.long	0x6a74
	.uleb128 0x1
	.long	0x6a6f
	.byte	0
	.uleb128 0x19
	.long	.LASF56
	.byte	0x7
	.value	0x1c0
	.byte	0x17
	.long	0x4d85
	.uleb128 0x9
	.long	0x190b
	.uleb128 0x13
	.long	.LASF256
	.byte	0x7
	.value	0x254
	.byte	0x7
	.long	.LASF261
	.byte	0x1
	.long	0x1933
	.long	0x193e
	.uleb128 0x2
	.long	0x6a65
	.uleb128 0x1
	.long	0x6a79
	.byte	0
	.uleb128 0x43
	.long	.LASF256
	.byte	0x7
	.value	0x267
	.long	.LASF262
	.long	0x1952
	.long	0x195d
	.uleb128 0x2
	.long	0x6a65
	.uleb128 0x1
	.long	0x6a7e
	.byte	0
	.uleb128 0x13
	.long	.LASF256
	.byte	0x7
	.value	0x26b
	.byte	0x7
	.long	.LASF263
	.byte	0x1
	.long	0x1973
	.long	0x1983
	.uleb128 0x2
	.long	0x6a65
	.uleb128 0x1
	.long	0x6a79
	.uleb128 0x1
	.long	0x6a83
	.byte	0
	.uleb128 0x22
	.long	.LASF256
	.value	0x276
	.long	.LASF264
	.long	0x1996
	.long	0x19ab
	.uleb128 0x2
	.long	0x6a65
	.uleb128 0x1
	.long	0x6a7e
	.uleb128 0x1
	.long	0x6a6f
	.uleb128 0x1
	.long	0xb67
	.byte	0
	.uleb128 0x22
	.long	.LASF256
	.value	0x27b
	.long	.LASF265
	.long	0x19be
	.long	0x19d3
	.uleb128 0x2
	.long	0x6a65
	.uleb128 0x1
	.long	0x6a7e
	.uleb128 0x1
	.long	0x6a6f
	.uleb128 0x1
	.long	0x647
	.byte	0
	.uleb128 0x13
	.long	.LASF256
	.byte	0x7
	.value	0x28e
	.byte	0x7
	.long	.LASF266
	.byte	0x1
	.long	0x19e9
	.long	0x19f9
	.uleb128 0x2
	.long	0x6a65
	.uleb128 0x1
	.long	0x6a7e
	.uleb128 0x1
	.long	0x6a83
	.byte	0
	.uleb128 0x13
	.long	.LASF256
	.byte	0x7
	.value	0x2a1
	.byte	0x7
	.long	.LASF267
	.byte	0x1
	.long	0x1a0f
	.long	0x1a1f
	.uleb128 0x2
	.long	0x6a65
	.uleb128 0x1
	.long	0x2361
	.uleb128 0x1
	.long	0x6a6f
	.byte	0
	.uleb128 0x13
	.long	.LASF268
	.byte	0x7
	.value	0x2d8
	.byte	0x7
	.long	.LASF269
	.byte	0x1
	.long	0x1a35
	.long	0x1a40
	.uleb128 0x2
	.long	0x6a65
	.uleb128 0x2
	.long	0x118
	.byte	0
	.uleb128 0x1b
	.long	.LASF82
	.byte	0x13
	.byte	0xcc
	.byte	0x5
	.long	.LASF270
	.long	0x6a88
	.byte	0x1
	.long	0x1a59
	.long	0x1a64
	.uleb128 0x2
	.long	0x6a65
	.uleb128 0x1
	.long	0x6a79
	.byte	0
	.uleb128 0x7
	.long	.LASF82
	.byte	0x7
	.value	0x2f9
	.byte	0x7
	.long	.LASF271
	.long	0x6a88
	.byte	0x1
	.long	0x1a7e
	.long	0x1a89
	.uleb128 0x2
	.long	0x6a65
	.uleb128 0x1
	.long	0x6a7e
	.byte	0
	.uleb128 0x7
	.long	.LASF82
	.byte	0x7
	.value	0x30f
	.byte	0x7
	.long	.LASF272
	.long	0x6a88
	.byte	0x1
	.long	0x1aa3
	.long	0x1aae
	.uleb128 0x2
	.long	0x6a65
	.uleb128 0x1
	.long	0x2361
	.byte	0
	.uleb128 0x13
	.long	.LASF108
	.byte	0x7
	.value	0x323
	.byte	0x7
	.long	.LASF273
	.byte	0x1
	.long	0x1ac4
	.long	0x1ad4
	.uleb128 0x2
	.long	0x6a65
	.uleb128 0x1
	.long	0x18ce
	.uleb128 0x1
	.long	0x6a74
	.byte	0
	.uleb128 0x13
	.long	.LASF108
	.byte	0x7
	.value	0x352
	.byte	0x7
	.long	.LASF274
	.byte	0x1
	.long	0x1aea
	.long	0x1af5
	.uleb128 0x2
	.long	0x6a65
	.uleb128 0x1
	.long	0x2361
	.byte	0
	.uleb128 0x19
	.long	.LASF275
	.byte	0x7
	.value	0x1c5
	.byte	0x3d
	.long	0x5178
	.uleb128 0x7
	.long	.LASF276
	.byte	0x7
	.value	0x364
	.byte	0x7
	.long	.LASF277
	.long	0x1af5
	.byte	0x1
	.long	0x1b1c
	.long	0x1b22
	.uleb128 0x2
	.long	0x6a65
	.byte	0
	.uleb128 0x19
	.long	.LASF278
	.byte	0x7
	.value	0x1c7
	.byte	0x7
	.long	0x53b8
	.uleb128 0x7
	.long	.LASF276
	.byte	0x7
	.value	0x36e
	.byte	0x7
	.long	.LASF279
	.long	0x1b22
	.byte	0x1
	.long	0x1b49
	.long	0x1b4f
	.uleb128 0x2
	.long	0x6a8d
	.byte	0
	.uleb128 0x38
	.string	"end"
	.value	0x378
	.long	.LASF280
	.long	0x1af5
	.long	0x1b66
	.long	0x1b6c
	.uleb128 0x2
	.long	0x6a65
	.byte	0
	.uleb128 0x38
	.string	"end"
	.value	0x382
	.long	.LASF281
	.long	0x1b22
	.long	0x1b83
	.long	0x1b89
	.uleb128 0x2
	.long	0x6a8d
	.byte	0
	.uleb128 0x19
	.long	.LASF282
	.byte	0x7
	.value	0x1c9
	.byte	0x30
	.long	0x2454
	.uleb128 0x7
	.long	.LASF283
	.byte	0x7
	.value	0x38c
	.byte	0x7
	.long	.LASF284
	.long	0x1b89
	.byte	0x1
	.long	0x1bb0
	.long	0x1bb6
	.uleb128 0x2
	.long	0x6a65
	.byte	0
	.uleb128 0x19
	.long	.LASF285
	.byte	0x7
	.value	0x1c8
	.byte	0x35
	.long	0x2459
	.uleb128 0x7
	.long	.LASF283
	.byte	0x7
	.value	0x396
	.byte	0x7
	.long	.LASF286
	.long	0x1bb6
	.byte	0x1
	.long	0x1bdd
	.long	0x1be3
	.uleb128 0x2
	.long	0x6a8d
	.byte	0
	.uleb128 0x7
	.long	.LASF287
	.byte	0x7
	.value	0x3a0
	.byte	0x7
	.long	.LASF288
	.long	0x1b89
	.byte	0x1
	.long	0x1bfd
	.long	0x1c03
	.uleb128 0x2
	.long	0x6a65
	.byte	0
	.uleb128 0x7
	.long	.LASF287
	.byte	0x7
	.value	0x3aa
	.byte	0x7
	.long	.LASF289
	.long	0x1bb6
	.byte	0x1
	.long	0x1c1d
	.long	0x1c23
	.uleb128 0x2
	.long	0x6a8d
	.byte	0
	.uleb128 0x7
	.long	.LASF290
	.byte	0x7
	.value	0x3b5
	.byte	0x7
	.long	.LASF291
	.long	0x1b22
	.byte	0x1
	.long	0x1c3d
	.long	0x1c43
	.uleb128 0x2
	.long	0x6a8d
	.byte	0
	.uleb128 0x7
	.long	.LASF292
	.byte	0x7
	.value	0x3bf
	.byte	0x7
	.long	.LASF293
	.long	0x1b22
	.byte	0x1
	.long	0x1c5d
	.long	0x1c63
	.uleb128 0x2
	.long	0x6a8d
	.byte	0
	.uleb128 0x7
	.long	.LASF294
	.byte	0x7
	.value	0x3c9
	.byte	0x7
	.long	.LASF295
	.long	0x1bb6
	.byte	0x1
	.long	0x1c7d
	.long	0x1c83
	.uleb128 0x2
	.long	0x6a8d
	.byte	0
	.uleb128 0x7
	.long	.LASF296
	.byte	0x7
	.value	0x3d3
	.byte	0x7
	.long	.LASF297
	.long	0x1bb6
	.byte	0x1
	.long	0x1c9d
	.long	0x1ca3
	.uleb128 0x2
	.long	0x6a8d
	.byte	0
	.uleb128 0x7
	.long	.LASF298
	.byte	0x7
	.value	0x3db
	.byte	0x7
	.long	.LASF299
	.long	0x18ce
	.byte	0x1
	.long	0x1cbd
	.long	0x1cc3
	.uleb128 0x2
	.long	0x6a8d
	.byte	0
	.uleb128 0x7
	.long	.LASF176
	.byte	0x7
	.value	0x3e1
	.byte	0x7
	.long	.LASF300
	.long	0x18ce
	.byte	0x1
	.long	0x1cdd
	.long	0x1ce3
	.uleb128 0x2
	.long	0x6a8d
	.byte	0
	.uleb128 0x13
	.long	.LASF301
	.byte	0x7
	.value	0x3f0
	.byte	0x7
	.long	.LASF302
	.byte	0x1
	.long	0x1cf9
	.long	0x1d04
	.uleb128 0x2
	.long	0x6a65
	.uleb128 0x1
	.long	0x18ce
	.byte	0
	.uleb128 0x13
	.long	.LASF301
	.byte	0x7
	.value	0x405
	.byte	0x7
	.long	.LASF303
	.byte	0x1
	.long	0x1d1a
	.long	0x1d2a
	.uleb128 0x2
	.long	0x6a65
	.uleb128 0x1
	.long	0x18ce
	.uleb128 0x1
	.long	0x6a74
	.byte	0
	.uleb128 0x13
	.long	.LASF304
	.byte	0x7
	.value	0x427
	.byte	0x7
	.long	.LASF305
	.byte	0x1
	.long	0x1d40
	.long	0x1d46
	.uleb128 0x2
	.long	0x6a65
	.byte	0
	.uleb128 0x7
	.long	.LASF306
	.byte	0x7
	.value	0x431
	.byte	0x7
	.long	.LASF307
	.long	0x18ce
	.byte	0x1
	.long	0x1d60
	.long	0x1d66
	.uleb128 0x2
	.long	0x6a8d
	.byte	0
	.uleb128 0x7
	.long	.LASF308
	.byte	0x7
	.value	0x43b
	.byte	0x7
	.long	.LASF309
	.long	0x5c64
	.byte	0x1
	.long	0x1d80
	.long	0x1d86
	.uleb128 0x2
	.long	0x6a8d
	.byte	0
	.uleb128 0x20
	.long	.LASF310
	.byte	0x13
	.byte	0x43
	.byte	0x5
	.long	.LASF311
	.long	0x1d9a
	.long	0x1da5
	.uleb128 0x2
	.long	0x6a65
	.uleb128 0x1
	.long	0x18ce
	.byte	0
	.uleb128 0x19
	.long	.LASF167
	.byte	0x7
	.value	0x1c3
	.byte	0x32
	.long	0x5133
	.uleb128 0x7
	.long	.LASF312
	.byte	0x7
	.value	0x461
	.byte	0x7
	.long	.LASF313
	.long	0x1da5
	.byte	0x1
	.long	0x1dcc
	.long	0x1dd7
	.uleb128 0x2
	.long	0x6a65
	.uleb128 0x1
	.long	0x18ce
	.byte	0
	.uleb128 0x19
	.long	.LASF170
	.byte	0x7
	.value	0x1c4
	.byte	0x37
	.long	0x513f
	.uleb128 0x7
	.long	.LASF312
	.byte	0x7
	.value	0x474
	.byte	0x7
	.long	.LASF314
	.long	0x1dd7
	.byte	0x1
	.long	0x1dfe
	.long	0x1e09
	.uleb128 0x2
	.long	0x6a8d
	.uleb128 0x1
	.long	0x18ce
	.byte	0
	.uleb128 0x13
	.long	.LASF315
	.byte	0x7
	.value	0x47e
	.byte	0x7
	.long	.LASF316
	.byte	0x2
	.long	0x1e1f
	.long	0x1e2a
	.uleb128 0x2
	.long	0x6a8d
	.uleb128 0x1
	.long	0x18ce
	.byte	0
	.uleb128 0x38
	.string	"at"
	.value	0x495
	.long	.LASF317
	.long	0x1da5
	.long	0x1e40
	.long	0x1e4b
	.uleb128 0x2
	.long	0x6a65
	.uleb128 0x1
	.long	0x18ce
	.byte	0
	.uleb128 0x38
	.string	"at"
	.value	0x4a8
	.long	.LASF318
	.long	0x1dd7
	.long	0x1e61
	.long	0x1e6c
	.uleb128 0x2
	.long	0x6a8d
	.uleb128 0x1
	.long	0x18ce
	.byte	0
	.uleb128 0x7
	.long	.LASF319
	.byte	0x7
	.value	0x4b4
	.byte	0x7
	.long	.LASF320
	.long	0x1da5
	.byte	0x1
	.long	0x1e86
	.long	0x1e8c
	.uleb128 0x2
	.long	0x6a65
	.byte	0
	.uleb128 0x7
	.long	.LASF319
	.byte	0x7
	.value	0x4c0
	.byte	0x7
	.long	.LASF321
	.long	0x1dd7
	.byte	0x1
	.long	0x1ea6
	.long	0x1eac
	.uleb128 0x2
	.long	0x6a8d
	.byte	0
	.uleb128 0x7
	.long	.LASF322
	.byte	0x7
	.value	0x4cc
	.byte	0x7
	.long	.LASF323
	.long	0x1da5
	.byte	0x1
	.long	0x1ec6
	.long	0x1ecc
	.uleb128 0x2
	.long	0x6a65
	.byte	0
	.uleb128 0x7
	.long	.LASF322
	.byte	0x7
	.value	0x4d8
	.byte	0x7
	.long	.LASF324
	.long	0x1dd7
	.byte	0x1
	.long	0x1ee6
	.long	0x1eec
	.uleb128 0x2
	.long	0x6a8d
	.byte	0
	.uleb128 0x7
	.long	.LASF325
	.byte	0x7
	.value	0x4e7
	.byte	0x7
	.long	.LASF326
	.long	0x69bb
	.byte	0x1
	.long	0x1f06
	.long	0x1f0c
	.uleb128 0x2
	.long	0x6a65
	.byte	0
	.uleb128 0x7
	.long	.LASF325
	.byte	0x7
	.value	0x4ec
	.byte	0x7
	.long	.LASF327
	.long	0x69d4
	.byte	0x1
	.long	0x1f26
	.long	0x1f2c
	.uleb128 0x2
	.long	0x6a8d
	.byte	0
	.uleb128 0x13
	.long	.LASF328
	.byte	0x7
	.value	0x4fc
	.byte	0x7
	.long	.LASF329
	.byte	0x1
	.long	0x1f42
	.long	0x1f4d
	.uleb128 0x2
	.long	0x6a65
	.uleb128 0x1
	.long	0x6a74
	.byte	0
	.uleb128 0x13
	.long	.LASF328
	.byte	0x7
	.value	0x50d
	.byte	0x7
	.long	.LASF330
	.byte	0x1
	.long	0x1f63
	.long	0x1f6e
	.uleb128 0x2
	.long	0x6a65
	.uleb128 0x1
	.long	0x6a97
	.byte	0
	.uleb128 0x13
	.long	.LASF331
	.byte	0x7
	.value	0x525
	.byte	0x7
	.long	.LASF332
	.byte	0x1
	.long	0x1f84
	.long	0x1f8a
	.uleb128 0x2
	.long	0x6a65
	.byte	0
	.uleb128 0x1b
	.long	.LASF333
	.byte	0x13
	.byte	0x85
	.byte	0x5
	.long	.LASF334
	.long	0x1af5
	.byte	0x1
	.long	0x1fa3
	.long	0x1fb3
	.uleb128 0x2
	.long	0x6a65
	.uleb128 0x1
	.long	0x1b22
	.uleb128 0x1
	.long	0x6a74
	.byte	0
	.uleb128 0x7
	.long	.LASF333
	.byte	0x7
	.value	0x56c
	.byte	0x7
	.long	.LASF335
	.long	0x1af5
	.byte	0x1
	.long	0x1fcd
	.long	0x1fdd
	.uleb128 0x2
	.long	0x6a65
	.uleb128 0x1
	.long	0x1b22
	.uleb128 0x1
	.long	0x6a97
	.byte	0
	.uleb128 0x7
	.long	.LASF333
	.byte	0x7
	.value	0x57e
	.byte	0x7
	.long	.LASF336
	.long	0x1af5
	.byte	0x1
	.long	0x1ff7
	.long	0x2007
	.uleb128 0x2
	.long	0x6a65
	.uleb128 0x1
	.long	0x1b22
	.uleb128 0x1
	.long	0x2361
	.byte	0
	.uleb128 0x7
	.long	.LASF333
	.byte	0x7
	.value	0x598
	.byte	0x7
	.long	.LASF337
	.long	0x1af5
	.byte	0x1
	.long	0x2021
	.long	0x2036
	.uleb128 0x2
	.long	0x6a65
	.uleb128 0x1
	.long	0x1b22
	.uleb128 0x1
	.long	0x18ce
	.uleb128 0x1
	.long	0x6a74
	.byte	0
	.uleb128 0x7
	.long	.LASF338
	.byte	0x7
	.value	0x5f9
	.byte	0x7
	.long	.LASF339
	.long	0x1af5
	.byte	0x1
	.long	0x2050
	.long	0x205b
	.uleb128 0x2
	.long	0x6a65
	.uleb128 0x1
	.long	0x1b22
	.byte	0
	.uleb128 0x7
	.long	.LASF338
	.byte	0x7
	.value	0x615
	.byte	0x7
	.long	.LASF340
	.long	0x1af5
	.byte	0x1
	.long	0x2075
	.long	0x2085
	.uleb128 0x2
	.long	0x6a65
	.uleb128 0x1
	.long	0x1b22
	.uleb128 0x1
	.long	0x1b22
	.byte	0
	.uleb128 0x13
	.long	.LASF87
	.byte	0x7
	.value	0x62d
	.byte	0x7
	.long	.LASF341
	.byte	0x1
	.long	0x209b
	.long	0x20a6
	.uleb128 0x2
	.long	0x6a65
	.uleb128 0x1
	.long	0x6a88
	.byte	0
	.uleb128 0x13
	.long	.LASF342
	.byte	0x7
	.value	0x640
	.byte	0x7
	.long	.LASF343
	.byte	0x1
	.long	0x20bc
	.long	0x20c2
	.uleb128 0x2
	.long	0x6a65
	.byte	0
	.uleb128 0x13
	.long	.LASF344
	.byte	0x7
	.value	0x6a3
	.byte	0x7
	.long	.LASF345
	.byte	0x2
	.long	0x20d8
	.long	0x20e8
	.uleb128 0x2
	.long	0x6a65
	.uleb128 0x1
	.long	0x18ce
	.uleb128 0x1
	.long	0x6a74
	.byte	0
	.uleb128 0x13
	.long	.LASF346
	.byte	0x7
	.value	0x6ae
	.byte	0x7
	.long	.LASF347
	.byte	0x2
	.long	0x20fe
	.long	0x2109
	.uleb128 0x2
	.long	0x6a65
	.uleb128 0x1
	.long	0x18ce
	.byte	0
	.uleb128 0x13
	.long	.LASF348
	.byte	0x13
	.value	0x108
	.byte	0x5
	.long	.LASF349
	.byte	0x2
	.long	0x211f
	.long	0x212f
	.uleb128 0x2
	.long	0x6a65
	.uleb128 0x1
	.long	0x559
	.uleb128 0x1
	.long	0x6a74
	.byte	0
	.uleb128 0x13
	.long	.LASF350
	.byte	0x13
	.value	0x20b
	.byte	0x5
	.long	.LASF351
	.byte	0x2
	.long	0x2145
	.long	0x215a
	.uleb128 0x2
	.long	0x6a65
	.uleb128 0x1
	.long	0x1af5
	.uleb128 0x1
	.long	0x18ce
	.uleb128 0x1
	.long	0x6a74
	.byte	0
	.uleb128 0x13
	.long	.LASF352
	.byte	0x13
	.value	0x272
	.byte	0x5
	.long	.LASF353
	.byte	0x2
	.long	0x2170
	.long	0x217b
	.uleb128 0x2
	.long	0x6a65
	.uleb128 0x1
	.long	0x18ce
	.byte	0
	.uleb128 0x7
	.long	.LASF354
	.byte	0x13
	.value	0x2bf
	.byte	0x5
	.long	.LASF355
	.long	0x5c64
	.byte	0x2
	.long	0x2195
	.long	0x219b
	.uleb128 0x2
	.long	0x6a65
	.byte	0
	.uleb128 0x7
	.long	.LASF356
	.byte	0x13
	.value	0x15e
	.byte	0x5
	.long	.LASF357
	.long	0x1af5
	.byte	0x2
	.long	0x21b5
	.long	0x21c5
	.uleb128 0x2
	.long	0x6a65
	.uleb128 0x1
	.long	0x1b22
	.uleb128 0x1
	.long	0x6a97
	.byte	0
	.uleb128 0x7
	.long	.LASF358
	.byte	0x7
	.value	0x75c
	.byte	0x7
	.long	.LASF359
	.long	0x1af5
	.byte	0x2
	.long	0x21df
	.long	0x21ef
	.uleb128 0x2
	.long	0x6a65
	.uleb128 0x1
	.long	0x1b22
	.uleb128 0x1
	.long	0x6a97
	.byte	0
	.uleb128 0x7
	.long	.LASF360
	.byte	0x7
	.value	0x763
	.byte	0x7
	.long	.LASF361
	.long	0x18ce
	.byte	0x2
	.long	0x2209
	.long	0x2219
	.uleb128 0x2
	.long	0x6a8d
	.uleb128 0x1
	.long	0x18ce
	.uleb128 0x1
	.long	0x2e7
	.byte	0
	.uleb128 0x4b
	.long	.LASF362
	.value	0x76e
	.long	.LASF363
	.long	0x18ce
	.long	0x2237
	.uleb128 0x1
	.long	0x18ce
	.uleb128 0x1
	.long	0x6a6f
	.byte	0
	.uleb128 0x4b
	.long	.LASF364
	.value	0x777
	.long	.LASF365
	.long	0x18ce
	.long	0x2250
	.uleb128 0x1
	.long	0x6a9c
	.byte	0
	.uleb128 0x13
	.long	.LASF366
	.byte	0x7
	.value	0x788
	.byte	0x7
	.long	.LASF367
	.byte	0x2
	.long	0x2266
	.long	0x2271
	.uleb128 0x2
	.long	0x6a65
	.uleb128 0x1
	.long	0x17b8
	.byte	0
	.uleb128 0x1b
	.long	.LASF368
	.byte	0x13
	.byte	0xaf
	.byte	0x5
	.long	.LASF369
	.long	0x1af5
	.byte	0x2
	.long	0x228a
	.long	0x2295
	.uleb128 0x2
	.long	0x6a65
	.uleb128 0x1
	.long	0x1af5
	.byte	0
	.uleb128 0x1b
	.long	.LASF368
	.byte	0x13
	.byte	0xbd
	.byte	0x5
	.long	.LASF370
	.long	0x1af5
	.byte	0x2
	.long	0x22ae
	.long	0x22be
	.uleb128 0x2
	.long	0x6a65
	.uleb128 0x1
	.long	0x1af5
	.uleb128 0x1
	.long	0x1af5
	.byte	0
	.uleb128 0x22
	.long	.LASF371
	.value	0x7a2
	.long	.LASF372
	.long	0x22d1
	.long	0x22e1
	.uleb128 0x2
	.long	0x6a65
	.uleb128 0x1
	.long	0x6a7e
	.uleb128 0x1
	.long	0xb67
	.byte	0
	.uleb128 0x22
	.long	.LASF371
	.value	0x7ae
	.long	.LASF373
	.long	0x22f4
	.long	0x2304
	.uleb128 0x2
	.long	0x6a65
	.uleb128 0x1
	.long	0x6a7e
	.uleb128 0x1
	.long	0x647
	.byte	0
	.uleb128 0x13
	.long	.LASF374
	.byte	0x7
	.value	0x692
	.byte	0x2
	.long	.LASF375
	.byte	0x2
	.long	0x2323
	.long	0x2338
	.uleb128 0x4
	.long	.LASF132
	.long	0x69d4
	.uleb128 0x2
	.long	0x6a65
	.uleb128 0x1
	.long	0x69d4
	.uleb128 0x1
	.long	0x69d4
	.uleb128 0x1
	.long	0xb7d
	.byte	0
	.uleb128 0x6
	.string	"_Tp"
	.long	0x4d85
	.uleb128 0x61
	.long	.LASF242
	.long	0x11d7
	.byte	0
	.uleb128 0x9
	.long	0x172c
	.uleb128 0x8
	.long	.LASF377
	.byte	0x3
	.byte	0x80
	.byte	0xb
	.long	0x1716
	.uleb128 0x9
	.long	0x2350
	.uleb128 0x2f
	.long	.LASF378
	.byte	0x10
	.byte	0xc
	.byte	0x2f
	.byte	0xb
	.long	0x244f
	.uleb128 0x2c
	.long	.LASF275
	.byte	0xc
	.byte	0x36
	.byte	0x1a
	.long	0x69d4
	.uleb128 0xa
	.long	.LASF379
	.byte	0xc
	.byte	0x3a
	.byte	0x12
	.long	0x236e
	.byte	0
	.uleb128 0x2c
	.long	.LASF173
	.byte	0xc
	.byte	0x35
	.byte	0x18
	.long	0x559
	.uleb128 0xa
	.long	.LASF380
	.byte	0xc
	.byte	0x3b
	.byte	0x13
	.long	0x2387
	.byte	0x8
	.uleb128 0x24
	.long	.LASF381
	.byte	0xc
	.byte	0x3e
	.byte	0x11
	.long	.LASF382
	.long	0x23b4
	.long	0x23c4
	.uleb128 0x2
	.long	0x70dd
	.uleb128 0x1
	.long	0x23c4
	.uleb128 0x1
	.long	0x2387
	.byte	0
	.uleb128 0x2c
	.long	.LASF278
	.byte	0xc
	.byte	0x37
	.byte	0x1a
	.long	0x69d4
	.uleb128 0x20
	.long	.LASF381
	.byte	0xc
	.byte	0x42
	.byte	0x11
	.long	.LASF383
	.long	0x23e4
	.long	0x23ea
	.uleb128 0x2
	.long	0x70dd
	.byte	0
	.uleb128 0x1b
	.long	.LASF298
	.byte	0xc
	.byte	0x47
	.byte	0x7
	.long	.LASF384
	.long	0x2387
	.byte	0x1
	.long	0x2403
	.long	0x2409
	.uleb128 0x2
	.long	0x70e2
	.byte	0
	.uleb128 0x1b
	.long	.LASF276
	.byte	0xc
	.byte	0x4b
	.byte	0x7
	.long	.LASF385
	.long	0x23c4
	.byte	0x1
	.long	0x2422
	.long	0x2428
	.uleb128 0x2
	.long	0x70e2
	.byte	0
	.uleb128 0x54
	.string	"end"
	.byte	0xc
	.byte	0x4f
	.byte	0x7
	.long	.LASF1089
	.long	0x23c4
	.long	0x2440
	.long	0x2446
	.uleb128 0x2
	.long	0x70e2
	.byte	0
	.uleb128 0x6
	.string	"_E"
	.long	0x4d85
	.byte	0
	.uleb128 0x9
	.long	0x2361
	.uleb128 0x3b
	.long	.LASF387
	.uleb128 0x3b
	.long	.LASF388
	.uleb128 0x2f
	.long	.LASF389
	.byte	0x1
	.byte	0xb
	.byte	0x38
	.byte	0xb
	.long	0x25db
	.uleb128 0x20
	.long	.LASF158
	.byte	0xb
	.byte	0x50
	.byte	0x7
	.long	.LASF390
	.long	0x247f
	.long	0x2485
	.uleb128 0x2
	.long	0x6f9d
	.byte	0
	.uleb128 0x20
	.long	.LASF158
	.byte	0xb
	.byte	0x53
	.byte	0x7
	.long	.LASF391
	.long	0x2499
	.long	0x24a4
	.uleb128 0x2
	.long	0x6f9d
	.uleb128 0x1
	.long	0x6fa7
	.byte	0
	.uleb128 0x20
	.long	.LASF161
	.byte	0xb
	.byte	0x5a
	.byte	0x7
	.long	.LASF392
	.long	0x24b8
	.long	0x24c3
	.uleb128 0x2
	.long	0x6f9d
	.uleb128 0x2
	.long	0x118
	.byte	0
	.uleb128 0x2c
	.long	.LASF164
	.byte	0xb
	.byte	0x3f
	.byte	0x1a
	.long	0x6fac
	.uleb128 0x1b
	.long	.LASF165
	.byte	0xb
	.byte	0x5d
	.byte	0x7
	.long	.LASF393
	.long	0x24c3
	.byte	0x1
	.long	0x24e8
	.long	0x24f3
	.uleb128 0x2
	.long	0x6fb6
	.uleb128 0x1
	.long	0x24f3
	.byte	0
	.uleb128 0x2c
	.long	.LASF167
	.byte	0xb
	.byte	0x41
	.byte	0x1a
	.long	0x6fc0
	.uleb128 0x2c
	.long	.LASF168
	.byte	0xb
	.byte	0x40
	.byte	0x1a
	.long	0x6fc5
	.uleb128 0x1b
	.long	.LASF165
	.byte	0xb
	.byte	0x61
	.byte	0x7
	.long	.LASF394
	.long	0x24ff
	.byte	0x1
	.long	0x2524
	.long	0x252f
	.uleb128 0x2
	.long	0x6fb6
	.uleb128 0x1
	.long	0x252f
	.byte	0
	.uleb128 0x2c
	.long	.LASF170
	.byte	0xb
	.byte	0x42
	.byte	0x1a
	.long	0x6fcf
	.uleb128 0x1b
	.long	.LASF171
	.byte	0xb
	.byte	0x70
	.byte	0x7
	.long	.LASF395
	.long	0x6fac
	.byte	0x1
	.long	0x2554
	.long	0x2564
	.uleb128 0x2
	.long	0x6f9d
	.uleb128 0x1
	.long	0x2564
	.uleb128 0x1
	.long	0x60ad
	.byte	0
	.uleb128 0x2c
	.long	.LASF173
	.byte	0xb
	.byte	0x3c
	.byte	0x1f
	.long	0x559
	.uleb128 0x20
	.long	.LASF174
	.byte	0xb
	.byte	0x8e
	.byte	0x7
	.long	.LASF396
	.long	0x2584
	.long	0x2594
	.uleb128 0x2
	.long	0x6f9d
	.uleb128 0x1
	.long	0x6fac
	.uleb128 0x1
	.long	0x2564
	.byte	0
	.uleb128 0x1b
	.long	.LASF176
	.byte	0xb
	.byte	0xa7
	.byte	0x7
	.long	.LASF397
	.long	0x2564
	.byte	0x1
	.long	0x25ad
	.long	0x25b3
	.uleb128 0x2
	.long	0x6fb6
	.byte	0
	.uleb128 0x39
	.long	.LASF178
	.byte	0xb
	.byte	0xd2
	.byte	0x7
	.long	.LASF398
	.long	0x2564
	.long	0x25cb
	.long	0x25d1
	.uleb128 0x2
	.long	0x6fb6
	.byte	0
	.uleb128 0x6
	.string	"_Tp"
	.long	0x3f
	.byte	0
	.uleb128 0x9
	.long	0x245e
	.uleb128 0x2f
	.long	.LASF399
	.byte	0x1
	.byte	0x9
	.byte	0x7c
	.byte	0xb
	.long	0x2669
	.uleb128 0x49
	.long	0x245e
	.byte	0x1
	.uleb128 0x20
	.long	.LASF181
	.byte	0x9
	.byte	0x9c
	.byte	0x7
	.long	.LASF400
	.long	0x2607
	.long	0x260d
	.uleb128 0x2
	.long	0x6fd4
	.byte	0
	.uleb128 0x20
	.long	.LASF181
	.byte	0x9
	.byte	0x9f
	.byte	0x7
	.long	.LASF401
	.long	0x2621
	.long	0x262c
	.uleb128 0x2
	.long	0x6fd4
	.uleb128 0x1
	.long	0x6fde
	.byte	0
	.uleb128 0x3c
	.long	.LASF82
	.byte	0x9
	.byte	0xa4
	.byte	0x12
	.long	.LASF402
	.long	0x6fe3
	.long	0x2644
	.long	0x264f
	.uleb128 0x2
	.long	0x6fd4
	.uleb128 0x1
	.long	0x6fde
	.byte	0
	.uleb128 0x62
	.long	.LASF187
	.byte	0xae
	.long	.LASF403
	.long	0x265d
	.uleb128 0x2
	.long	0x6fd4
	.uleb128 0x2
	.long	0x118
	.byte	0
	.byte	0
	.uleb128 0x9
	.long	0x25e0
	.uleb128 0x2d
	.long	.LASF404
	.byte	0xa
	.value	0x19b
	.long	0x276a
	.uleb128 0x1d
	.long	.LASF164
	.byte	0xa
	.value	0x1a4
	.byte	0xd
	.long	0x6fac
	.uleb128 0xb
	.long	.LASF171
	.byte	0xa
	.value	0x1cf
	.byte	0x7
	.long	.LASF405
	.long	0x267a
	.long	0x26a7
	.uleb128 0x1
	.long	0x6fe8
	.uleb128 0x1
	.long	0x26b9
	.byte	0
	.uleb128 0x1d
	.long	.LASF191
	.byte	0xa
	.value	0x19e
	.byte	0xd
	.long	0x25e0
	.uleb128 0x9
	.long	0x26a7
	.uleb128 0x1d
	.long	.LASF173
	.byte	0xa
	.value	0x1b3
	.byte	0xd
	.long	0x559
	.uleb128 0xb
	.long	.LASF171
	.byte	0xa
	.value	0x1dd
	.byte	0x7
	.long	.LASF406
	.long	0x267a
	.long	0x26eb
	.uleb128 0x1
	.long	0x6fe8
	.uleb128 0x1
	.long	0x26b9
	.uleb128 0x1
	.long	0x26eb
	.byte	0
	.uleb128 0x1d
	.long	.LASF193
	.byte	0xa
	.value	0x1ad
	.byte	0xd
	.long	0x60ad
	.uleb128 0x35
	.long	.LASF174
	.byte	0xa
	.value	0x1ef
	.byte	0x7
	.long	.LASF407
	.long	0x2719
	.uleb128 0x1
	.long	0x6fe8
	.uleb128 0x1
	.long	0x267a
	.uleb128 0x1
	.long	0x26b9
	.byte	0
	.uleb128 0xb
	.long	.LASF176
	.byte	0xa
	.value	0x223
	.byte	0x7
	.long	.LASF408
	.long	0x26b9
	.long	0x2734
	.uleb128 0x1
	.long	0x6fed
	.byte	0
	.uleb128 0xb
	.long	.LASF197
	.byte	0xa
	.value	0x232
	.byte	0x7
	.long	.LASF409
	.long	0x26a7
	.long	0x274f
	.uleb128 0x1
	.long	0x6fed
	.byte	0
	.uleb128 0x1d
	.long	.LASF56
	.byte	0xa
	.value	0x1a1
	.byte	0xd
	.long	0x3f
	.uleb128 0x1d
	.long	.LASF199
	.byte	0xa
	.value	0x1c2
	.byte	0x8
	.long	0x25e0
	.byte	0
	.uleb128 0x1e
	.long	.LASF410
	.byte	0x18
	.byte	0x7
	.byte	0x55
	.byte	0xc
	.long	0x2b0d
	.uleb128 0x1e
	.long	.LASF201
	.byte	0x18
	.byte	0x7
	.byte	0x5c
	.byte	0xe
	.long	0x281d
	.uleb128 0xa
	.long	.LASF202
	.byte	0x7
	.byte	0x5e
	.byte	0xa
	.long	0x2822
	.byte	0
	.uleb128 0xa
	.long	.LASF203
	.byte	0x7
	.byte	0x5f
	.byte	0xa
	.long	0x2822
	.byte	0x8
	.uleb128 0xa
	.long	.LASF204
	.byte	0x7
	.byte	0x60
	.byte	0xa
	.long	0x2822
	.byte	0x10
	.uleb128 0x24
	.long	.LASF201
	.byte	0x7
	.byte	0x63
	.byte	0x2
	.long	.LASF411
	.long	0x27bf
	.long	0x27c5
	.uleb128 0x2
	.long	0x6ffc
	.byte	0
	.uleb128 0x24
	.long	.LASF201
	.byte	0x7
	.byte	0x69
	.byte	0x2
	.long	.LASF412
	.long	0x27d9
	.long	0x27e4
	.uleb128 0x2
	.long	0x6ffc
	.uleb128 0x1
	.long	0x7006
	.byte	0
	.uleb128 0x24
	.long	.LASF207
	.byte	0x7
	.byte	0x71
	.byte	0x2
	.long	.LASF413
	.long	0x27f8
	.long	0x2803
	.uleb128 0x2
	.long	0x6ffc
	.uleb128 0x1
	.long	0x700b
	.byte	0
	.uleb128 0x63
	.long	.LASF209
	.byte	0x7a
	.long	.LASF414
	.long	0x2811
	.uleb128 0x2
	.long	0x6ffc
	.uleb128 0x1
	.long	0x7010
	.byte	0
	.byte	0
	.uleb128 0x9
	.long	0x2777
	.uleb128 0x8
	.long	.LASF164
	.byte	0x7
	.byte	0x5a
	.byte	0x9
	.long	0x56a9
	.uleb128 0x1e
	.long	.LASF212
	.byte	0x18
	.byte	0x7
	.byte	0x85
	.byte	0xe
	.long	0x28f9
	.uleb128 0x34
	.long	0x25e0
	.uleb128 0x34
	.long	0x2777
	.uleb128 0x24
	.long	.LASF212
	.byte	0x7
	.byte	0x89
	.byte	0x2
	.long	.LASF415
	.long	0x2859
	.long	0x285f
	.uleb128 0x2
	.long	0x7015
	.byte	0
	.uleb128 0x24
	.long	.LASF212
	.byte	0x7
	.byte	0x8f
	.byte	0x2
	.long	.LASF416
	.long	0x2873
	.long	0x287e
	.uleb128 0x2
	.long	0x7015
	.uleb128 0x1
	.long	0x701f
	.byte	0
	.uleb128 0x24
	.long	.LASF212
	.byte	0x7
	.byte	0x97
	.byte	0x2
	.long	.LASF417
	.long	0x2892
	.long	0x289d
	.uleb128 0x2
	.long	0x7015
	.uleb128 0x1
	.long	0x7024
	.byte	0
	.uleb128 0x24
	.long	.LASF212
	.byte	0x7
	.byte	0x9c
	.byte	0x2
	.long	.LASF418
	.long	0x28b1
	.long	0x28bc
	.uleb128 0x2
	.long	0x7015
	.uleb128 0x1
	.long	0x7029
	.byte	0
	.uleb128 0x24
	.long	.LASF212
	.byte	0x7
	.byte	0xa1
	.byte	0x2
	.long	.LASF419
	.long	0x28d0
	.long	0x28e0
	.uleb128 0x2
	.long	0x7015
	.uleb128 0x1
	.long	0x7029
	.uleb128 0x1
	.long	0x7024
	.byte	0
	.uleb128 0x64
	.long	.LASF420
	.long	.LASF422
	.long	0x28ed
	.uleb128 0x2
	.long	0x7015
	.uleb128 0x2
	.long	0x118
	.byte	0
	.byte	0
	.uleb128 0x8
	.long	.LASF218
	.byte	0x7
	.byte	0x58
	.byte	0x15
	.long	0x56da
	.uleb128 0x9
	.long	0x28f9
	.uleb128 0x36
	.long	.LASF219
	.value	0x12a
	.long	.LASF423
	.long	0x702e
	.long	0x2921
	.long	0x2927
	.uleb128 0x2
	.long	0x7033
	.byte	0
	.uleb128 0x36
	.long	.LASF219
	.value	0x12f
	.long	.LASF424
	.long	0x701f
	.long	0x293e
	.long	0x2944
	.uleb128 0x2
	.long	0x703d
	.byte	0
	.uleb128 0x1d
	.long	.LASF191
	.byte	0x7
	.value	0x126
	.byte	0x16
	.long	0x25e0
	.uleb128 0x9
	.long	0x2944
	.uleb128 0x36
	.long	.LASF222
	.value	0x134
	.long	.LASF425
	.long	0x2944
	.long	0x296d
	.long	0x2973
	.uleb128 0x2
	.long	0x703d
	.byte	0
	.uleb128 0x4a
	.long	.LASF224
	.value	0x138
	.long	.LASF426
	.long	0x2986
	.long	0x298c
	.uleb128 0x2
	.long	0x7033
	.byte	0
	.uleb128 0x22
	.long	.LASF224
	.value	0x13e
	.long	.LASF427
	.long	0x299f
	.long	0x29aa
	.uleb128 0x2
	.long	0x7033
	.uleb128 0x1
	.long	0x7047
	.byte	0
	.uleb128 0x22
	.long	.LASF224
	.value	0x144
	.long	.LASF428
	.long	0x29bd
	.long	0x29c8
	.uleb128 0x2
	.long	0x7033
	.uleb128 0x1
	.long	0x559
	.byte	0
	.uleb128 0x22
	.long	.LASF224
	.value	0x14a
	.long	.LASF429
	.long	0x29db
	.long	0x29eb
	.uleb128 0x2
	.long	0x7033
	.uleb128 0x1
	.long	0x559
	.uleb128 0x1
	.long	0x7047
	.byte	0
	.uleb128 0x4a
	.long	.LASF224
	.value	0x14f
	.long	.LASF430
	.long	0x29fe
	.long	0x2a09
	.uleb128 0x2
	.long	0x7033
	.uleb128 0x1
	.long	0x704c
	.byte	0
	.uleb128 0x22
	.long	.LASF224
	.value	0x154
	.long	.LASF431
	.long	0x2a1c
	.long	0x2a27
	.uleb128 0x2
	.long	0x7033
	.uleb128 0x1
	.long	0x7029
	.byte	0
	.uleb128 0x22
	.long	.LASF224
	.value	0x158
	.long	.LASF432
	.long	0x2a3a
	.long	0x2a4a
	.uleb128 0x2
	.long	0x7033
	.uleb128 0x1
	.long	0x704c
	.uleb128 0x1
	.long	0x7047
	.byte	0
	.uleb128 0x22
	.long	.LASF224
	.value	0x166
	.long	.LASF433
	.long	0x2a5d
	.long	0x2a6d
	.uleb128 0x2
	.long	0x7033
	.uleb128 0x1
	.long	0x7047
	.uleb128 0x1
	.long	0x704c
	.byte	0
	.uleb128 0x22
	.long	.LASF233
	.value	0x16c
	.long	.LASF434
	.long	0x2a80
	.long	0x2a8b
	.uleb128 0x2
	.long	0x7033
	.uleb128 0x2
	.long	0x118
	.byte	0
	.uleb128 0x65
	.long	.LASF235
	.long	0x282e
	.uleb128 0x36
	.long	.LASF236
	.value	0x177
	.long	.LASF435
	.long	0x2822
	.long	0x2aab
	.long	0x2ab6
	.uleb128 0x2
	.long	0x7033
	.uleb128 0x1
	.long	0x559
	.byte	0
	.uleb128 0x22
	.long	.LASF238
	.value	0x17f
	.long	.LASF436
	.long	0x2ac9
	.long	0x2ad9
	.uleb128 0x2
	.long	0x7033
	.uleb128 0x1
	.long	0x2822
	.uleb128 0x1
	.long	0x559
	.byte	0
	.uleb128 0x13
	.long	.LASF240
	.byte	0x7
	.value	0x189
	.byte	0x7
	.long	.LASF437
	.byte	0x2
	.long	0x2aef
	.long	0x2afa
	.uleb128 0x2
	.long	0x7033
	.uleb128 0x1
	.long	0x559
	.byte	0
	.uleb128 0x6
	.string	"_Tp"
	.long	0x3f
	.uleb128 0x4
	.long	.LASF242
	.long	0x25e0
	.byte	0
	.uleb128 0x9
	.long	0x276a
	.uleb128 0x1e
	.long	.LASF438
	.byte	0x1
	.byte	0x3
	.byte	0x7c
	.byte	0xc
	.long	0x2b35
	.uleb128 0x8
	.long	.LASF244
	.byte	0x3
	.byte	0x7d
	.byte	0xd
	.long	0x25e0
	.uleb128 0x4
	.long	.LASF245
	.long	0x25e0
	.byte	0
	.uleb128 0x3d
	.long	.LASF439
	.byte	0x18
	.byte	0x7
	.value	0x1a7
	.long	0x3720
	.uleb128 0x21
	.byte	0x7
	.value	0x1a7
	.byte	0xb
	.long	0x2a94
	.uleb128 0x21
	.byte	0x7
	.value	0x1a7
	.byte	0xb
	.long	0x2ab6
	.uleb128 0x21
	.byte	0x7
	.value	0x1a7
	.byte	0xb
	.long	0x2a8b
	.uleb128 0x21
	.byte	0x7
	.value	0x1a7
	.byte	0xb
	.long	0x2927
	.uleb128 0x21
	.byte	0x7
	.value	0x1a7
	.byte	0xb
	.long	0x290a
	.uleb128 0x21
	.byte	0x7
	.value	0x1a7
	.byte	0xb
	.long	0x2956
	.uleb128 0x49
	.long	0x276a
	.byte	0x2
	.uleb128 0xb
	.long	.LASF247
	.byte	0x7
	.value	0x1d1
	.byte	0x7
	.long	.LASF440
	.long	0x5c64
	.long	0x2b99
	.uleb128 0x1
	.long	0xb67
	.byte	0
	.uleb128 0xb
	.long	.LASF247
	.byte	0x7
	.value	0x1da
	.byte	0x7
	.long	.LASF441
	.long	0x5c64
	.long	0x2bb4
	.uleb128 0x1
	.long	0x647
	.byte	0
	.uleb128 0x66
	.long	.LASF250
	.long	.LASF443
	.long	0x5c64
	.uleb128 0x19
	.long	.LASF164
	.byte	0x7
	.value	0x1c1
	.byte	0x29
	.long	0x2822
	.uleb128 0xb
	.long	.LASF251
	.byte	0x7
	.value	0x1e7
	.byte	0x7
	.long	.LASF444
	.long	0x2bc1
	.long	0x2bfd
	.uleb128 0x1
	.long	0x2bc1
	.uleb128 0x1
	.long	0x2bc1
	.uleb128 0x1
	.long	0x2bc1
	.uleb128 0x1
	.long	0x7051
	.uleb128 0x1
	.long	0xb67
	.byte	0
	.uleb128 0x1d
	.long	.LASF218
	.byte	0x7
	.value	0x1bc
	.byte	0x2f
	.long	0x28f9
	.uleb128 0x9
	.long	0x2bfd
	.uleb128 0xb
	.long	.LASF251
	.byte	0x7
	.value	0x1ee
	.byte	0x7
	.long	.LASF445
	.long	0x2bc1
	.long	0x2c3e
	.uleb128 0x1
	.long	0x2bc1
	.uleb128 0x1
	.long	0x2bc1
	.uleb128 0x1
	.long	0x2bc1
	.uleb128 0x1
	.long	0x7051
	.uleb128 0x1
	.long	0x647
	.byte	0
	.uleb128 0xb
	.long	.LASF254
	.byte	0x7
	.value	0x1f3
	.byte	0x7
	.long	.LASF446
	.long	0x2bc1
	.long	0x2c68
	.uleb128 0x1
	.long	0x2bc1
	.uleb128 0x1
	.long	0x2bc1
	.uleb128 0x1
	.long	0x2bc1
	.uleb128 0x1
	.long	0x7051
	.byte	0
	.uleb128 0x43
	.long	.LASF256
	.byte	0x7
	.value	0x20e
	.long	.LASF447
	.long	0x2c7c
	.long	0x2c82
	.uleb128 0x2
	.long	0x7056
	.byte	0
	.uleb128 0x37
	.long	.LASF256
	.byte	0x7
	.value	0x219
	.long	.LASF448
	.long	0x2c96
	.long	0x2ca1
	.uleb128 0x2
	.long	0x7056
	.uleb128 0x1
	.long	0x7060
	.byte	0
	.uleb128 0x19
	.long	.LASF191
	.byte	0x7
	.value	0x1cc
	.byte	0x1a
	.long	0x25e0
	.uleb128 0x9
	.long	0x2ca1
	.uleb128 0x37
	.long	.LASF256
	.byte	0x7
	.value	0x227
	.long	.LASF449
	.long	0x2cc7
	.long	0x2cd7
	.uleb128 0x2
	.long	0x7056
	.uleb128 0x1
	.long	0x2cd7
	.uleb128 0x1
	.long	0x7060
	.byte	0
	.uleb128 0x19
	.long	.LASF173
	.byte	0x7
	.value	0x1ca
	.byte	0x1a
	.long	0x559
	.uleb128 0x9
	.long	0x2cd7
	.uleb128 0x13
	.long	.LASF256
	.byte	0x7
	.value	0x234
	.byte	0x7
	.long	.LASF450
	.byte	0x1
	.long	0x2cff
	.long	0x2d14
	.uleb128 0x2
	.long	0x7056
	.uleb128 0x1
	.long	0x2cd7
	.uleb128 0x1
	.long	0x7065
	.uleb128 0x1
	.long	0x7060
	.byte	0
	.uleb128 0x19
	.long	.LASF56
	.byte	0x7
	.value	0x1c0
	.byte	0x17
	.long	0x3f
	.uleb128 0x9
	.long	0x2d14
	.uleb128 0x13
	.long	.LASF256
	.byte	0x7
	.value	0x254
	.byte	0x7
	.long	.LASF451
	.byte	0x1
	.long	0x2d3c
	.long	0x2d47
	.uleb128 0x2
	.long	0x7056
	.uleb128 0x1
	.long	0x706a
	.byte	0
	.uleb128 0x43
	.long	.LASF256
	.byte	0x7
	.value	0x267
	.long	.LASF452
	.long	0x2d5b
	.long	0x2d66
	.uleb128 0x2
	.long	0x7056
	.uleb128 0x1
	.long	0x706f
	.byte	0
	.uleb128 0x13
	.long	.LASF256
	.byte	0x7
	.value	0x26b
	.byte	0x7
	.long	.LASF453
	.byte	0x1
	.long	0x2d7c
	.long	0x2d8c
	.uleb128 0x2
	.long	0x7056
	.uleb128 0x1
	.long	0x706a
	.uleb128 0x1
	.long	0x7074
	.byte	0
	.uleb128 0x22
	.long	.LASF256
	.value	0x276
	.long	.LASF454
	.long	0x2d9f
	.long	0x2db4
	.uleb128 0x2
	.long	0x7056
	.uleb128 0x1
	.long	0x706f
	.uleb128 0x1
	.long	0x7060
	.uleb128 0x1
	.long	0xb67
	.byte	0
	.uleb128 0x22
	.long	.LASF256
	.value	0x27b
	.long	.LASF455
	.long	0x2dc7
	.long	0x2ddc
	.uleb128 0x2
	.long	0x7056
	.uleb128 0x1
	.long	0x706f
	.uleb128 0x1
	.long	0x7060
	.uleb128 0x1
	.long	0x647
	.byte	0
	.uleb128 0x13
	.long	.LASF256
	.byte	0x7
	.value	0x28e
	.byte	0x7
	.long	.LASF456
	.byte	0x1
	.long	0x2df2
	.long	0x2e02
	.uleb128 0x2
	.long	0x7056
	.uleb128 0x1
	.long	0x706f
	.uleb128 0x1
	.long	0x7074
	.byte	0
	.uleb128 0x13
	.long	.LASF256
	.byte	0x7
	.value	0x2a1
	.byte	0x7
	.long	.LASF457
	.byte	0x1
	.long	0x2e18
	.long	0x2e28
	.uleb128 0x2
	.long	0x7056
	.uleb128 0x1
	.long	0x3736
	.uleb128 0x1
	.long	0x7060
	.byte	0
	.uleb128 0x13
	.long	.LASF268
	.byte	0x7
	.value	0x2d8
	.byte	0x7
	.long	.LASF458
	.byte	0x1
	.long	0x2e3e
	.long	0x2e49
	.uleb128 0x2
	.long	0x7056
	.uleb128 0x2
	.long	0x118
	.byte	0
	.uleb128 0x1b
	.long	.LASF82
	.byte	0x13
	.byte	0xcc
	.byte	0x5
	.long	.LASF459
	.long	0x7079
	.byte	0x1
	.long	0x2e62
	.long	0x2e6d
	.uleb128 0x2
	.long	0x7056
	.uleb128 0x1
	.long	0x706a
	.byte	0
	.uleb128 0x7
	.long	.LASF82
	.byte	0x7
	.value	0x2f9
	.byte	0x7
	.long	.LASF460
	.long	0x7079
	.byte	0x1
	.long	0x2e87
	.long	0x2e92
	.uleb128 0x2
	.long	0x7056
	.uleb128 0x1
	.long	0x706f
	.byte	0
	.uleb128 0x7
	.long	.LASF82
	.byte	0x7
	.value	0x30f
	.byte	0x7
	.long	.LASF461
	.long	0x7079
	.byte	0x1
	.long	0x2eac
	.long	0x2eb7
	.uleb128 0x2
	.long	0x7056
	.uleb128 0x1
	.long	0x3736
	.byte	0
	.uleb128 0x13
	.long	.LASF108
	.byte	0x7
	.value	0x323
	.byte	0x7
	.long	.LASF462
	.byte	0x1
	.long	0x2ecd
	.long	0x2edd
	.uleb128 0x2
	.long	0x7056
	.uleb128 0x1
	.long	0x2cd7
	.uleb128 0x1
	.long	0x7065
	.byte	0
	.uleb128 0x13
	.long	.LASF108
	.byte	0x7
	.value	0x352
	.byte	0x7
	.long	.LASF463
	.byte	0x1
	.long	0x2ef3
	.long	0x2efe
	.uleb128 0x2
	.long	0x7056
	.uleb128 0x1
	.long	0x3736
	.byte	0
	.uleb128 0x19
	.long	.LASF275
	.byte	0x7
	.value	0x1c5
	.byte	0x3d
	.long	0x56fa
	.uleb128 0x7
	.long	.LASF276
	.byte	0x7
	.value	0x364
	.byte	0x7
	.long	.LASF464
	.long	0x2efe
	.byte	0x1
	.long	0x2f25
	.long	0x2f2b
	.uleb128 0x2
	.long	0x7056
	.byte	0
	.uleb128 0x19
	.long	.LASF278
	.byte	0x7
	.value	0x1c7
	.byte	0x7
	.long	0x592d
	.uleb128 0x7
	.long	.LASF276
	.byte	0x7
	.value	0x36e
	.byte	0x7
	.long	.LASF465
	.long	0x2f2b
	.byte	0x1
	.long	0x2f52
	.long	0x2f58
	.uleb128 0x2
	.long	0x707e
	.byte	0
	.uleb128 0x38
	.string	"end"
	.value	0x378
	.long	.LASF466
	.long	0x2efe
	.long	0x2f6f
	.long	0x2f75
	.uleb128 0x2
	.long	0x7056
	.byte	0
	.uleb128 0x38
	.string	"end"
	.value	0x382
	.long	.LASF467
	.long	0x2f2b
	.long	0x2f8c
	.long	0x2f92
	.uleb128 0x2
	.long	0x707e
	.byte	0
	.uleb128 0x19
	.long	.LASF282
	.byte	0x7
	.value	0x1c9
	.byte	0x30
	.long	0x373b
	.uleb128 0x7
	.long	.LASF283
	.byte	0x7
	.value	0x38c
	.byte	0x7
	.long	.LASF468
	.long	0x2f92
	.byte	0x1
	.long	0x2fb9
	.long	0x2fbf
	.uleb128 0x2
	.long	0x7056
	.byte	0
	.uleb128 0x19
	.long	.LASF285
	.byte	0x7
	.value	0x1c8
	.byte	0x35
	.long	0x3740
	.uleb128 0x7
	.long	.LASF283
	.byte	0x7
	.value	0x396
	.byte	0x7
	.long	.LASF469
	.long	0x2fbf
	.byte	0x1
	.long	0x2fe6
	.long	0x2fec
	.uleb128 0x2
	.long	0x707e
	.byte	0
	.uleb128 0x7
	.long	.LASF287
	.byte	0x7
	.value	0x3a0
	.byte	0x7
	.long	.LASF470
	.long	0x2f92
	.byte	0x1
	.long	0x3006
	.long	0x300c
	.uleb128 0x2
	.long	0x7056
	.byte	0
	.uleb128 0x7
	.long	.LASF287
	.byte	0x7
	.value	0x3aa
	.byte	0x7
	.long	.LASF471
	.long	0x2fbf
	.byte	0x1
	.long	0x3026
	.long	0x302c
	.uleb128 0x2
	.long	0x707e
	.byte	0
	.uleb128 0x7
	.long	.LASF290
	.byte	0x7
	.value	0x3b5
	.byte	0x7
	.long	.LASF472
	.long	0x2f2b
	.byte	0x1
	.long	0x3046
	.long	0x304c
	.uleb128 0x2
	.long	0x707e
	.byte	0
	.uleb128 0x7
	.long	.LASF292
	.byte	0x7
	.value	0x3bf
	.byte	0x7
	.long	.LASF473
	.long	0x2f2b
	.byte	0x1
	.long	0x3066
	.long	0x306c
	.uleb128 0x2
	.long	0x707e
	.byte	0
	.uleb128 0x7
	.long	.LASF294
	.byte	0x7
	.value	0x3c9
	.byte	0x7
	.long	.LASF474
	.long	0x2fbf
	.byte	0x1
	.long	0x3086
	.long	0x308c
	.uleb128 0x2
	.long	0x707e
	.byte	0
	.uleb128 0x7
	.long	.LASF296
	.byte	0x7
	.value	0x3d3
	.byte	0x7
	.long	.LASF475
	.long	0x2fbf
	.byte	0x1
	.long	0x30a6
	.long	0x30ac
	.uleb128 0x2
	.long	0x707e
	.byte	0
	.uleb128 0x7
	.long	.LASF298
	.byte	0x7
	.value	0x3db
	.byte	0x7
	.long	.LASF476
	.long	0x2cd7
	.byte	0x1
	.long	0x30c6
	.long	0x30cc
	.uleb128 0x2
	.long	0x707e
	.byte	0
	.uleb128 0x7
	.long	.LASF176
	.byte	0x7
	.value	0x3e1
	.byte	0x7
	.long	.LASF477
	.long	0x2cd7
	.byte	0x1
	.long	0x30e6
	.long	0x30ec
	.uleb128 0x2
	.long	0x707e
	.byte	0
	.uleb128 0x13
	.long	.LASF301
	.byte	0x7
	.value	0x3f0
	.byte	0x7
	.long	.LASF478
	.byte	0x1
	.long	0x3102
	.long	0x310d
	.uleb128 0x2
	.long	0x7056
	.uleb128 0x1
	.long	0x2cd7
	.byte	0
	.uleb128 0x13
	.long	.LASF301
	.byte	0x7
	.value	0x405
	.byte	0x7
	.long	.LASF479
	.byte	0x1
	.long	0x3123
	.long	0x3133
	.uleb128 0x2
	.long	0x7056
	.uleb128 0x1
	.long	0x2cd7
	.uleb128 0x1
	.long	0x7065
	.byte	0
	.uleb128 0x13
	.long	.LASF304
	.byte	0x7
	.value	0x427
	.byte	0x7
	.long	.LASF480
	.byte	0x1
	.long	0x3149
	.long	0x314f
	.uleb128 0x2
	.long	0x7056
	.byte	0
	.uleb128 0x7
	.long	.LASF306
	.byte	0x7
	.value	0x431
	.byte	0x7
	.long	.LASF481
	.long	0x2cd7
	.byte	0x1
	.long	0x3169
	.long	0x316f
	.uleb128 0x2
	.long	0x707e
	.byte	0
	.uleb128 0x7
	.long	.LASF308
	.byte	0x7
	.value	0x43b
	.byte	0x7
	.long	.LASF482
	.long	0x5c64
	.byte	0x1
	.long	0x3189
	.long	0x318f
	.uleb128 0x2
	.long	0x707e
	.byte	0
	.uleb128 0x20
	.long	.LASF310
	.byte	0x13
	.byte	0x43
	.byte	0x5
	.long	.LASF483
	.long	0x31a3
	.long	0x31ae
	.uleb128 0x2
	.long	0x7056
	.uleb128 0x1
	.long	0x2cd7
	.byte	0
	.uleb128 0x19
	.long	.LASF167
	.byte	0x7
	.value	0x1c3
	.byte	0x32
	.long	0x56b5
	.uleb128 0x7
	.long	.LASF312
	.byte	0x7
	.value	0x461
	.byte	0x7
	.long	.LASF484
	.long	0x31ae
	.byte	0x1
	.long	0x31d5
	.long	0x31e0
	.uleb128 0x2
	.long	0x7056
	.uleb128 0x1
	.long	0x2cd7
	.byte	0
	.uleb128 0x19
	.long	.LASF170
	.byte	0x7
	.value	0x1c4
	.byte	0x37
	.long	0x56c1
	.uleb128 0x7
	.long	.LASF312
	.byte	0x7
	.value	0x474
	.byte	0x7
	.long	.LASF485
	.long	0x31e0
	.byte	0x1
	.long	0x3207
	.long	0x3212
	.uleb128 0x2
	.long	0x707e
	.uleb128 0x1
	.long	0x2cd7
	.byte	0
	.uleb128 0x13
	.long	.LASF315
	.byte	0x7
	.value	0x47e
	.byte	0x7
	.long	.LASF486
	.byte	0x2
	.long	0x3228
	.long	0x3233
	.uleb128 0x2
	.long	0x707e
	.uleb128 0x1
	.long	0x2cd7
	.byte	0
	.uleb128 0x38
	.string	"at"
	.value	0x495
	.long	.LASF487
	.long	0x31ae
	.long	0x3249
	.long	0x3254
	.uleb128 0x2
	.long	0x7056
	.uleb128 0x1
	.long	0x2cd7
	.byte	0
	.uleb128 0x38
	.string	"at"
	.value	0x4a8
	.long	.LASF488
	.long	0x31e0
	.long	0x326a
	.long	0x3275
	.uleb128 0x2
	.long	0x707e
	.uleb128 0x1
	.long	0x2cd7
	.byte	0
	.uleb128 0x7
	.long	.LASF319
	.byte	0x7
	.value	0x4b4
	.byte	0x7
	.long	.LASF489
	.long	0x31ae
	.byte	0x1
	.long	0x328f
	.long	0x3295
	.uleb128 0x2
	.long	0x7056
	.byte	0
	.uleb128 0x7
	.long	.LASF319
	.byte	0x7
	.value	0x4c0
	.byte	0x7
	.long	.LASF490
	.long	0x31e0
	.byte	0x1
	.long	0x32af
	.long	0x32b5
	.uleb128 0x2
	.long	0x707e
	.byte	0
	.uleb128 0x7
	.long	.LASF322
	.byte	0x7
	.value	0x4cc
	.byte	0x7
	.long	.LASF491
	.long	0x31ae
	.byte	0x1
	.long	0x32cf
	.long	0x32d5
	.uleb128 0x2
	.long	0x7056
	.byte	0
	.uleb128 0x7
	.long	.LASF322
	.byte	0x7
	.value	0x4d8
	.byte	0x7
	.long	.LASF492
	.long	0x31e0
	.byte	0x1
	.long	0x32ef
	.long	0x32f5
	.uleb128 0x2
	.long	0x707e
	.byte	0
	.uleb128 0x7
	.long	.LASF325
	.byte	0x7
	.value	0x4e7
	.byte	0x7
	.long	.LASF493
	.long	0x6fac
	.byte	0x1
	.long	0x330f
	.long	0x3315
	.uleb128 0x2
	.long	0x7056
	.byte	0
	.uleb128 0x7
	.long	.LASF325
	.byte	0x7
	.value	0x4ec
	.byte	0x7
	.long	.LASF494
	.long	0x6fc5
	.byte	0x1
	.long	0x332f
	.long	0x3335
	.uleb128 0x2
	.long	0x707e
	.byte	0
	.uleb128 0x13
	.long	.LASF328
	.byte	0x7
	.value	0x4fc
	.byte	0x7
	.long	.LASF495
	.byte	0x1
	.long	0x334b
	.long	0x3356
	.uleb128 0x2
	.long	0x7056
	.uleb128 0x1
	.long	0x7065
	.byte	0
	.uleb128 0x13
	.long	.LASF328
	.byte	0x7
	.value	0x50d
	.byte	0x7
	.long	.LASF496
	.byte	0x1
	.long	0x336c
	.long	0x3377
	.uleb128 0x2
	.long	0x7056
	.uleb128 0x1
	.long	0x7088
	.byte	0
	.uleb128 0x13
	.long	.LASF331
	.byte	0x7
	.value	0x525
	.byte	0x7
	.long	.LASF497
	.byte	0x1
	.long	0x338d
	.long	0x3393
	.uleb128 0x2
	.long	0x7056
	.byte	0
	.uleb128 0x1b
	.long	.LASF333
	.byte	0x13
	.byte	0x85
	.byte	0x5
	.long	.LASF498
	.long	0x2efe
	.byte	0x1
	.long	0x33ac
	.long	0x33bc
	.uleb128 0x2
	.long	0x7056
	.uleb128 0x1
	.long	0x2f2b
	.uleb128 0x1
	.long	0x7065
	.byte	0
	.uleb128 0x7
	.long	.LASF333
	.byte	0x7
	.value	0x56c
	.byte	0x7
	.long	.LASF499
	.long	0x2efe
	.byte	0x1
	.long	0x33d6
	.long	0x33e6
	.uleb128 0x2
	.long	0x7056
	.uleb128 0x1
	.long	0x2f2b
	.uleb128 0x1
	.long	0x7088
	.byte	0
	.uleb128 0x7
	.long	.LASF333
	.byte	0x7
	.value	0x57e
	.byte	0x7
	.long	.LASF500
	.long	0x2efe
	.byte	0x1
	.long	0x3400
	.long	0x3410
	.uleb128 0x2
	.long	0x7056
	.uleb128 0x1
	.long	0x2f2b
	.uleb128 0x1
	.long	0x3736
	.byte	0
	.uleb128 0x7
	.long	.LASF333
	.byte	0x7
	.value	0x598
	.byte	0x7
	.long	.LASF501
	.long	0x2efe
	.byte	0x1
	.long	0x342a
	.long	0x343f
	.uleb128 0x2
	.long	0x7056
	.uleb128 0x1
	.long	0x2f2b
	.uleb128 0x1
	.long	0x2cd7
	.uleb128 0x1
	.long	0x7065
	.byte	0
	.uleb128 0x7
	.long	.LASF338
	.byte	0x7
	.value	0x5f9
	.byte	0x7
	.long	.LASF502
	.long	0x2efe
	.byte	0x1
	.long	0x3459
	.long	0x3464
	.uleb128 0x2
	.long	0x7056
	.uleb128 0x1
	.long	0x2f2b
	.byte	0
	.uleb128 0x7
	.long	.LASF338
	.byte	0x7
	.value	0x615
	.byte	0x7
	.long	.LASF503
	.long	0x2efe
	.byte	0x1
	.long	0x347e
	.long	0x348e
	.uleb128 0x2
	.long	0x7056
	.uleb128 0x1
	.long	0x2f2b
	.uleb128 0x1
	.long	0x2f2b
	.byte	0
	.uleb128 0x13
	.long	.LASF87
	.byte	0x7
	.value	0x62d
	.byte	0x7
	.long	.LASF504
	.byte	0x1
	.long	0x34a4
	.long	0x34af
	.uleb128 0x2
	.long	0x7056
	.uleb128 0x1
	.long	0x7079
	.byte	0
	.uleb128 0x13
	.long	.LASF342
	.byte	0x7
	.value	0x640
	.byte	0x7
	.long	.LASF505
	.byte	0x1
	.long	0x34c5
	.long	0x34cb
	.uleb128 0x2
	.long	0x7056
	.byte	0
	.uleb128 0x13
	.long	.LASF344
	.byte	0x7
	.value	0x6a3
	.byte	0x7
	.long	.LASF506
	.byte	0x2
	.long	0x34e1
	.long	0x34f1
	.uleb128 0x2
	.long	0x7056
	.uleb128 0x1
	.long	0x2cd7
	.uleb128 0x1
	.long	0x7065
	.byte	0
	.uleb128 0x13
	.long	.LASF346
	.byte	0x7
	.value	0x6ae
	.byte	0x7
	.long	.LASF507
	.byte	0x2
	.long	0x3507
	.long	0x3512
	.uleb128 0x2
	.long	0x7056
	.uleb128 0x1
	.long	0x2cd7
	.byte	0
	.uleb128 0x13
	.long	.LASF348
	.byte	0x13
	.value	0x108
	.byte	0x5
	.long	.LASF508
	.byte	0x2
	.long	0x3528
	.long	0x3538
	.uleb128 0x2
	.long	0x7056
	.uleb128 0x1
	.long	0x559
	.uleb128 0x1
	.long	0x7065
	.byte	0
	.uleb128 0x13
	.long	.LASF350
	.byte	0x13
	.value	0x20b
	.byte	0x5
	.long	.LASF509
	.byte	0x2
	.long	0x354e
	.long	0x3563
	.uleb128 0x2
	.long	0x7056
	.uleb128 0x1
	.long	0x2efe
	.uleb128 0x1
	.long	0x2cd7
	.uleb128 0x1
	.long	0x7065
	.byte	0
	.uleb128 0x13
	.long	.LASF352
	.byte	0x13
	.value	0x272
	.byte	0x5
	.long	.LASF510
	.byte	0x2
	.long	0x3579
	.long	0x3584
	.uleb128 0x2
	.long	0x7056
	.uleb128 0x1
	.long	0x2cd7
	.byte	0
	.uleb128 0x7
	.long	.LASF354
	.byte	0x13
	.value	0x2bf
	.byte	0x5
	.long	.LASF511
	.long	0x5c64
	.byte	0x2
	.long	0x359e
	.long	0x35a4
	.uleb128 0x2
	.long	0x7056
	.byte	0
	.uleb128 0x7
	.long	.LASF356
	.byte	0x13
	.value	0x15e
	.byte	0x5
	.long	.LASF512
	.long	0x2efe
	.byte	0x2
	.long	0x35be
	.long	0x35ce
	.uleb128 0x2
	.long	0x7056
	.uleb128 0x1
	.long	0x2f2b
	.uleb128 0x1
	.long	0x7088
	.byte	0
	.uleb128 0x7
	.long	.LASF358
	.byte	0x7
	.value	0x75c
	.byte	0x7
	.long	.LASF513
	.long	0x2efe
	.byte	0x2
	.long	0x35e8
	.long	0x35f8
	.uleb128 0x2
	.long	0x7056
	.uleb128 0x1
	.long	0x2f2b
	.uleb128 0x1
	.long	0x7088
	.byte	0
	.uleb128 0x7
	.long	.LASF360
	.byte	0x7
	.value	0x763
	.byte	0x7
	.long	.LASF514
	.long	0x2cd7
	.byte	0x2
	.long	0x3612
	.long	0x3622
	.uleb128 0x2
	.long	0x707e
	.uleb128 0x1
	.long	0x2cd7
	.uleb128 0x1
	.long	0x2e7
	.byte	0
	.uleb128 0x4b
	.long	.LASF362
	.value	0x76e
	.long	.LASF515
	.long	0x2cd7
	.long	0x3640
	.uleb128 0x1
	.long	0x2cd7
	.uleb128 0x1
	.long	0x7060
	.byte	0
	.uleb128 0x4b
	.long	.LASF364
	.value	0x777
	.long	.LASF516
	.long	0x2cd7
	.long	0x3659
	.uleb128 0x1
	.long	0x708d
	.byte	0
	.uleb128 0x13
	.long	.LASF366
	.byte	0x7
	.value	0x788
	.byte	0x7
	.long	.LASF517
	.byte	0x2
	.long	0x366f
	.long	0x367a
	.uleb128 0x2
	.long	0x7056
	.uleb128 0x1
	.long	0x2bc1
	.byte	0
	.uleb128 0x1b
	.long	.LASF368
	.byte	0x13
	.byte	0xaf
	.byte	0x5
	.long	.LASF518
	.long	0x2efe
	.byte	0x2
	.long	0x3693
	.long	0x369e
	.uleb128 0x2
	.long	0x7056
	.uleb128 0x1
	.long	0x2efe
	.byte	0
	.uleb128 0x1b
	.long	.LASF368
	.byte	0x13
	.byte	0xbd
	.byte	0x5
	.long	.LASF519
	.long	0x2efe
	.byte	0x2
	.long	0x36b7
	.long	0x36c7
	.uleb128 0x2
	.long	0x7056
	.uleb128 0x1
	.long	0x2efe
	.uleb128 0x1
	.long	0x2efe
	.byte	0
	.uleb128 0x22
	.long	.LASF371
	.value	0x7a2
	.long	.LASF520
	.long	0x36da
	.long	0x36ea
	.uleb128 0x2
	.long	0x7056
	.uleb128 0x1
	.long	0x706f
	.uleb128 0x1
	.long	0xb67
	.byte	0
	.uleb128 0x22
	.long	.LASF371
	.value	0x7ae
	.long	.LASF521
	.long	0x36fd
	.long	0x370d
	.uleb128 0x2
	.long	0x7056
	.uleb128 0x1
	.long	0x706f
	.uleb128 0x1
	.long	0x647
	.byte	0
	.uleb128 0x6
	.string	"_Tp"
	.long	0x3f
	.uleb128 0x4
	.long	.LASF242
	.long	0x25e0
	.byte	0
	.uleb128 0x9
	.long	0x2b35
	.uleb128 0x8
	.long	.LASF377
	.byte	0x3
	.byte	0x80
	.byte	0xb
	.long	0x2b1f
	.uleb128 0x9
	.long	0x3725
	.uleb128 0x3b
	.long	.LASF522
	.uleb128 0x3b
	.long	.LASF523
	.uleb128 0x3b
	.long	.LASF524
	.uleb128 0x2d
	.long	.LASF525
	.byte	0x3
	.value	0x660
	.long	0x3768
	.uleb128 0x1d
	.long	.LASF244
	.byte	0x3
	.value	0x661
	.byte	0x15
	.long	0x6d2b
	.uleb128 0x6
	.string	"_Tp"
	.long	0x70ce
	.byte	0
	.uleb128 0x1e
	.long	.LASF526
	.byte	0x1
	.byte	0x10
	.byte	0xd2
	.byte	0xc
	.long	0x37a6
	.uleb128 0x8
	.long	.LASF527
	.byte	0x10
	.byte	0xd4
	.byte	0x2a
	.long	0xba3
	.uleb128 0x8
	.long	.LASF528
	.byte	0x10
	.byte	0xd6
	.byte	0x2b
	.long	0xb55
	.uleb128 0x8
	.long	.LASF164
	.byte	0x10
	.byte	0xd7
	.byte	0x2b
	.long	0x69bb
	.uleb128 0x8
	.long	.LASF167
	.byte	0x10
	.byte	0xd8
	.byte	0x2b
	.long	0x69cf
	.byte	0
	.uleb128 0x2d
	.long	.LASF529
	.byte	0x3
	.value	0x660
	.long	0x37c9
	.uleb128 0x1d
	.long	.LASF244
	.byte	0x3
	.value	0x661
	.byte	0x15
	.long	0x172c
	.uleb128 0x6
	.string	"_Tp"
	.long	0x6a88
	.byte	0
	.uleb128 0x1e
	.long	.LASF530
	.byte	0x1
	.byte	0x10
	.byte	0xdd
	.byte	0xc
	.long	0x37fb
	.uleb128 0x8
	.long	.LASF528
	.byte	0x10
	.byte	0xe1
	.byte	0x2b
	.long	0xb55
	.uleb128 0x8
	.long	.LASF164
	.byte	0x10
	.byte	0xe2
	.byte	0x2b
	.long	0x6fc5
	.uleb128 0x8
	.long	.LASF167
	.byte	0x10
	.byte	0xe3
	.byte	0x2b
	.long	0x6fcf
	.byte	0
	.uleb128 0x1e
	.long	.LASF531
	.byte	0x1
	.byte	0x10
	.byte	0xd2
	.byte	0xc
	.long	0x3845
	.uleb128 0x8
	.long	.LASF527
	.byte	0x10
	.byte	0xd4
	.byte	0x2a
	.long	0xba3
	.uleb128 0x8
	.long	.LASF56
	.byte	0x10
	.byte	0xd5
	.byte	0x2b
	.long	0x3f
	.uleb128 0x8
	.long	.LASF528
	.byte	0x10
	.byte	0xd6
	.byte	0x2b
	.long	0xb55
	.uleb128 0x8
	.long	.LASF164
	.byte	0x10
	.byte	0xd7
	.byte	0x2b
	.long	0x6fac
	.uleb128 0x8
	.long	.LASF167
	.byte	0x10
	.byte	0xd8
	.byte	0x2b
	.long	0x6fc0
	.byte	0
	.uleb128 0x2d
	.long	.LASF532
	.byte	0x3
	.value	0x65c
	.long	0x3868
	.uleb128 0x1d
	.long	.LASF244
	.byte	0x3
	.value	0x65d
	.byte	0x15
	.long	0x172c
	.uleb128 0x6
	.string	"_Tp"
	.long	0x172c
	.byte	0
	.uleb128 0x1e
	.long	.LASF533
	.byte	0x1
	.byte	0x10
	.byte	0xdd
	.byte	0xc
	.long	0x38a6
	.uleb128 0x8
	.long	.LASF527
	.byte	0x10
	.byte	0xdf
	.byte	0x2a
	.long	0xba3
	.uleb128 0x8
	.long	.LASF528
	.byte	0x10
	.byte	0xe1
	.byte	0x2b
	.long	0xb55
	.uleb128 0x8
	.long	.LASF164
	.byte	0x10
	.byte	0xe2
	.byte	0x2b
	.long	0x69d4
	.uleb128 0x8
	.long	.LASF167
	.byte	0x10
	.byte	0xe3
	.byte	0x2b
	.long	0x69de
	.byte	0
	.uleb128 0x2d
	.long	.LASF534
	.byte	0x3
	.value	0x660
	.long	0x38c9
	.uleb128 0x1d
	.long	.LASF244
	.byte	0x3
	.value	0x661
	.byte	0x15
	.long	0x1425
	.uleb128 0x6
	.string	"_Tp"
	.long	0x8fdb
	.byte	0
	.uleb128 0x2d
	.long	.LASF535
	.byte	0x3
	.value	0x8b9
	.long	0x38ec
	.uleb128 0x1d
	.long	.LASF244
	.byte	0x3
	.value	0x8ba
	.byte	0x13
	.long	0x6fac
	.uleb128 0x6
	.string	"_Tp"
	.long	0x6fac
	.byte	0
	.uleb128 0x1e
	.long	.LASF536
	.byte	0x1
	.byte	0x10
	.byte	0xa1
	.byte	0xc
	.long	0x391b
	.uleb128 0x8
	.long	.LASF527
	.byte	0x10
	.byte	0xa8
	.byte	0x35
	.long	0x5393
	.uleb128 0x8
	.long	.LASF528
	.byte	0x10
	.byte	0xaa
	.byte	0x35
	.long	0x52d2
	.uleb128 0x4
	.long	.LASF537
	.long	0x5178
	.byte	0
	.uleb128 0x2d
	.long	.LASF538
	.byte	0x3
	.value	0x660
	.long	0x393e
	.uleb128 0x1d
	.long	.LASF244
	.byte	0x3
	.value	0x661
	.byte	0x15
	.long	0x11d7
	.uleb128 0x6
	.string	"_Tp"
	.long	0x69f2
	.byte	0
	.uleb128 0x2d
	.long	.LASF539
	.byte	0x2
	.value	0x19f
	.long	0x39c4
	.uleb128 0xb
	.long	.LASF540
	.byte	0x2
	.value	0x1a4
	.byte	0x2
	.long	.LASF541
	.long	0x69bb
	.long	0x3978
	.uleb128 0x6
	.string	"_Tp"
	.long	0x4d85
	.uleb128 0x1
	.long	0x69d4
	.uleb128 0x1
	.long	0x69d4
	.uleb128 0x1
	.long	0x69bb
	.byte	0
	.uleb128 0xb
	.long	.LASF542
	.byte	0x2
	.value	0x1a4
	.byte	0x2
	.long	.LASF543
	.long	0x6fac
	.long	0x39a6
	.uleb128 0x6
	.string	"_Tp"
	.long	0x3f
	.uleb128 0x1
	.long	0x6fc5
	.uleb128 0x1
	.long	0x6fc5
	.uleb128 0x1
	.long	0x6fac
	.byte	0
	.uleb128 0x1f
	.long	.LASF544
	.long	0x5c64
	.byte	0
	.uleb128 0x1f
	.long	.LASF545
	.long	0x5c64
	.byte	0x1
	.uleb128 0x4
	.long	.LASF546
	.long	0xba3
	.byte	0
	.uleb128 0x2d
	.long	.LASF547
	.byte	0x2
	.value	0x19f
	.long	0x3a1c
	.uleb128 0xb
	.long	.LASF542
	.byte	0x2
	.value	0x1a4
	.byte	0x2
	.long	.LASF548
	.long	0x6fac
	.long	0x39fe
	.uleb128 0x6
	.string	"_Tp"
	.long	0x3f
	.uleb128 0x1
	.long	0x6fc5
	.uleb128 0x1
	.long	0x6fc5
	.uleb128 0x1
	.long	0x6fac
	.byte	0
	.uleb128 0x1f
	.long	.LASF544
	.long	0x5c64
	.byte	0x1
	.uleb128 0x1f
	.long	.LASF545
	.long	0x5c64
	.byte	0x1
	.uleb128 0x4
	.long	.LASF546
	.long	0xba3
	.byte	0
	.uleb128 0x67
	.long	.LASF549
	.byte	0x34
	.long	.LASF551
	.uleb128 0x67
	.long	.LASF550
	.byte	0x37
	.long	.LASF552
	.uleb128 0x5d
	.long	.LASF553
	.byte	0x2c
	.byte	0x4b
	.byte	0x3
	.long	.LASF554
	.long	0x3a46
	.uleb128 0x1
	.long	0x2e7
	.byte	0
	.uleb128 0x53
	.long	.LASF555
	.long	0x3a95
	.uleb128 0x8c
	.long	.LASF1254
	.byte	0x2d
	.byte	0xf4
	.byte	0xd
	.long	.LASF1255
	.byte	0x1
	.long	0x3a46
	.byte	0x1
	.long	0x3a6b
	.byte	0
	.long	0x3a76
	.uleb128 0x2
	.long	0x7208
	.uleb128 0x2
	.long	0x118
	.byte	0
	.uleb128 0x8d
	.long	.LASF555
	.byte	0x2d
	.byte	0xe6
	.byte	0x5
	.long	.LASF556
	.byte	0x1
	.long	0x3a89
	.byte	0
	.uleb128 0x2
	.long	0x7208
	.uleb128 0x1
	.long	0x2e7
	.byte	0
	.byte	0
	.uleb128 0x35
	.long	.LASF557
	.byte	0x2
	.value	0x395
	.byte	0x5
	.long	.LASF558
	.long	0x3ac8
	.uleb128 0x4
	.long	.LASF132
	.long	0x6fac
	.uleb128 0x6
	.string	"_Tp"
	.long	0x3f
	.uleb128 0x1
	.long	0x6fac
	.uleb128 0x1
	.long	0x6fac
	.uleb128 0x1
	.long	0x6fcf
	.byte	0
	.uleb128 0xb
	.long	.LASF559
	.byte	0x12
	.value	0x549
	.byte	0x5
	.long	.LASF560
	.long	0x69d4
	.long	0x3af5
	.uleb128 0x4
	.long	.LASF537
	.long	0x69d4
	.uleb128 0x4
	.long	.LASF561
	.long	0x172c
	.uleb128 0x1
	.long	0x53b8
	.byte	0
	.uleb128 0x35
	.long	.LASF562
	.byte	0x2
	.value	0x3c7
	.byte	0x5
	.long	.LASF563
	.long	0x3b28
	.uleb128 0x4
	.long	.LASF564
	.long	0x6fac
	.uleb128 0x6
	.string	"_Tp"
	.long	0x3f
	.uleb128 0x1
	.long	0x6fac
	.uleb128 0x1
	.long	0x6fac
	.uleb128 0x1
	.long	0x6fcf
	.byte	0
	.uleb128 0xb
	.long	.LASF565
	.byte	0x2
	.value	0x1e6
	.byte	0x5
	.long	.LASF566
	.long	0x69bb
	.long	0x3b69
	.uleb128 0x1f
	.long	.LASF544
	.long	0x5c64
	.byte	0
	.uleb128 0x6
	.string	"_II"
	.long	0x69d4
	.uleb128 0x6
	.string	"_OI"
	.long	0x69bb
	.uleb128 0x1
	.long	0x69d4
	.uleb128 0x1
	.long	0x69d4
	.uleb128 0x1
	.long	0x69bb
	.byte	0
	.uleb128 0x18
	.long	.LASF567
	.byte	0x2
	.byte	0x5a
	.byte	0x5
	.long	.LASF568
	.long	0x118
	.long	0x3b9f
	.uleb128 0x6
	.string	"_Tp"
	.long	0x4d85
	.uleb128 0x6
	.string	"_Up"
	.long	0x4d85
	.uleb128 0x1
	.long	0x69d4
	.uleb128 0x1
	.long	0x69d4
	.uleb128 0x1
	.long	0x559
	.byte	0
	.uleb128 0xb
	.long	.LASF569
	.byte	0x2
	.value	0x20f
	.byte	0x5
	.long	.LASF570
	.long	0x69bb
	.long	0x3be0
	.uleb128 0x1f
	.long	.LASF544
	.long	0x5c64
	.byte	0
	.uleb128 0x6
	.string	"_II"
	.long	0x53b8
	.uleb128 0x6
	.string	"_OI"
	.long	0x69bb
	.uleb128 0x1
	.long	0x53b8
	.uleb128 0x1
	.long	0x53b8
	.uleb128 0x1
	.long	0x69bb
	.byte	0
	.uleb128 0xb
	.long	.LASF571
	.byte	0x14
	.value	0x232
	.byte	0x5
	.long	.LASF572
	.long	0x53b8
	.long	0x3c04
	.uleb128 0x4
	.long	.LASF537
	.long	0x53b8
	.uleb128 0x1
	.long	0x53b8
	.byte	0
	.uleb128 0xb
	.long	.LASF573
	.byte	0x2
	.value	0x454
	.byte	0x5
	.long	.LASF574
	.long	0x6fac
	.long	0x3c49
	.uleb128 0x4
	.long	.LASF575
	.long	0x6fac
	.uleb128 0x4
	.long	.LASF155
	.long	0x5e
	.uleb128 0x6
	.string	"_Tp"
	.long	0x3f
	.uleb128 0x1
	.long	0x6fac
	.uleb128 0x1
	.long	0x5e
	.uleb128 0x1
	.long	0x6fcf
	.uleb128 0x1
	.long	0xba3
	.byte	0
	.uleb128 0x18
	.long	.LASF576
	.byte	0x10
	.byte	0xee
	.byte	0x5
	.long	.LASF577
	.long	0x3808
	.long	0x3c6c
	.uleb128 0x4
	.long	.LASF578
	.long	0x6fac
	.uleb128 0x1
	.long	0x7132
	.byte	0
	.uleb128 0xb
	.long	.LASF579
	.byte	0x2
	.value	0x14f
	.byte	0x5
	.long	.LASF580
	.long	0x69bb
	.long	0x3c95
	.uleb128 0x4
	.long	.LASF537
	.long	0x69bb
	.uleb128 0x1
	.long	0x70f6
	.uleb128 0x1
	.long	0x69bb
	.byte	0
	.uleb128 0xb
	.long	.LASF581
	.byte	0x2
	.value	0x209
	.byte	0x5
	.long	.LASF582
	.long	0x69bb
	.long	0x3cd6
	.uleb128 0x1f
	.long	.LASF544
	.long	0x5c64
	.byte	0
	.uleb128 0x6
	.string	"_II"
	.long	0x69d4
	.uleb128 0x6
	.string	"_OI"
	.long	0x69bb
	.uleb128 0x1
	.long	0x69d4
	.uleb128 0x1
	.long	0x69d4
	.uleb128 0x1
	.long	0x69bb
	.byte	0
	.uleb128 0xb
	.long	.LASF583
	.byte	0x2
	.value	0x139
	.byte	0x5
	.long	.LASF584
	.long	0x69bb
	.long	0x3cfa
	.uleb128 0x4
	.long	.LASF537
	.long	0x69bb
	.uleb128 0x1
	.long	0x69bb
	.byte	0
	.uleb128 0xb
	.long	.LASF585
	.byte	0x2
	.value	0x139
	.byte	0x5
	.long	.LASF586
	.long	0x69d4
	.long	0x3d1e
	.uleb128 0x4
	.long	.LASF537
	.long	0x69d4
	.uleb128 0x1
	.long	0x69d4
	.byte	0
	.uleb128 0xb
	.long	.LASF587
	.byte	0x2
	.value	0x263
	.byte	0x5
	.long	.LASF588
	.long	0x69bb
	.long	0x3d55
	.uleb128 0x6
	.string	"_II"
	.long	0x53b8
	.uleb128 0x6
	.string	"_OI"
	.long	0x69bb
	.uleb128 0x1
	.long	0x53b8
	.uleb128 0x1
	.long	0x53b8
	.uleb128 0x1
	.long	0x69bb
	.byte	0
	.uleb128 0xb
	.long	.LASF589
	.byte	0x2
	.value	0x477
	.byte	0x5
	.long	.LASF590
	.long	0x6fac
	.long	0x3d95
	.uleb128 0x6
	.string	"_OI"
	.long	0x6fac
	.uleb128 0x4
	.long	.LASF155
	.long	0x5e
	.uleb128 0x6
	.string	"_Tp"
	.long	0x3f
	.uleb128 0x1
	.long	0x6fac
	.uleb128 0x1
	.long	0x5e
	.uleb128 0x1
	.long	0x6fcf
	.byte	0
	.uleb128 0x3a
	.long	.LASF591
	.byte	0xf
	.byte	0x6d
	.byte	0x5
	.long	.LASF592
	.long	0x3db9
	.uleb128 0x6
	.string	"_Tp"
	.long	0x3f
	.uleb128 0x68
	.long	.LASF1155
	.uleb128 0x1
	.long	0x6fac
	.byte	0
	.uleb128 0x18
	.long	.LASF593
	.byte	0x8
	.byte	0x31
	.byte	0x5
	.long	.LASF594
	.long	0x6fac
	.long	0x3ddc
	.uleb128 0x6
	.string	"_Tp"
	.long	0x3f
	.uleb128 0x1
	.long	0x6fc0
	.byte	0
	.uleb128 0xb
	.long	.LASF595
	.byte	0x2
	.value	0x20f
	.byte	0x5
	.long	.LASF596
	.long	0x69bb
	.long	0x3e1d
	.uleb128 0x1f
	.long	.LASF544
	.long	0x5c64
	.byte	0
	.uleb128 0x6
	.string	"_II"
	.long	0x69d4
	.uleb128 0x6
	.string	"_OI"
	.long	0x69bb
	.uleb128 0x1
	.long	0x69d4
	.uleb128 0x1
	.long	0x69d4
	.uleb128 0x1
	.long	0x69bb
	.byte	0
	.uleb128 0xb
	.long	.LASF597
	.byte	0x14
	.value	0x232
	.byte	0x5
	.long	.LASF598
	.long	0x69d4
	.long	0x3e41
	.uleb128 0x4
	.long	.LASF537
	.long	0x69d4
	.uleb128 0x1
	.long	0x69d4
	.byte	0
	.uleb128 0xb
	.long	.LASF599
	.byte	0x2
	.value	0x4b4
	.byte	0x5
	.long	.LASF600
	.long	0x5c64
	.long	0x3e78
	.uleb128 0x4
	.long	.LASF601
	.long	0x69bb
	.uleb128 0x4
	.long	.LASF602
	.long	0x69bb
	.uleb128 0x1
	.long	0x69bb
	.uleb128 0x1
	.long	0x69bb
	.uleb128 0x1
	.long	0x69bb
	.byte	0
	.uleb128 0xb
	.long	.LASF603
	.byte	0x12
	.value	0x549
	.byte	0x5
	.long	.LASF604
	.long	0x69bb
	.long	0x3ea5
	.uleb128 0x4
	.long	.LASF537
	.long	0x69bb
	.uleb128 0x4
	.long	.LASF561
	.long	0x172c
	.uleb128 0x1
	.long	0x5178
	.byte	0
	.uleb128 0x1d
	.long	.LASF605
	.byte	0x3
	.value	0x8c0
	.byte	0xb
	.long	0x38d5
	.uleb128 0xb
	.long	.LASF606
	.byte	0x11
	.value	0x44c
	.byte	0x5
	.long	.LASF607
	.long	0x3ea5
	.long	0x3eee
	.uleb128 0x6
	.string	"_Tp"
	.long	0x3f
	.uleb128 0x6
	.string	"_Up"
	.long	0x3f
	.uleb128 0x1
	.long	0x6fac
	.uleb128 0x1
	.long	0x6fac
	.uleb128 0x1
	.long	0x6fac
	.uleb128 0x1
	.long	0x6fe3
	.byte	0
	.uleb128 0xb
	.long	.LASF608
	.byte	0x2
	.value	0x139
	.byte	0x5
	.long	.LASF609
	.long	0x6fac
	.long	0x3f12
	.uleb128 0x4
	.long	.LASF537
	.long	0x6fac
	.uleb128 0x1
	.long	0x6fac
	.byte	0
	.uleb128 0xb
	.long	.LASF610
	.byte	0x2
	.value	0x263
	.byte	0x5
	.long	.LASF611
	.long	0x69bb
	.long	0x3f49
	.uleb128 0x6
	.string	"_II"
	.long	0x69d4
	.uleb128 0x6
	.string	"_OI"
	.long	0x69bb
	.uleb128 0x1
	.long	0x69d4
	.uleb128 0x1
	.long	0x69d4
	.uleb128 0x1
	.long	0x69bb
	.byte	0
	.uleb128 0xb
	.long	.LASF612
	.byte	0x2
	.value	0x1e6
	.byte	0x5
	.long	.LASF613
	.long	0x6fac
	.long	0x3f8a
	.uleb128 0x1f
	.long	.LASF544
	.long	0x5c64
	.byte	0x1
	.uleb128 0x6
	.string	"_II"
	.long	0x6fc5
	.uleb128 0x6
	.string	"_OI"
	.long	0x6fac
	.uleb128 0x1
	.long	0x6fc5
	.uleb128 0x1
	.long	0x6fc5
	.uleb128 0x1
	.long	0x6fac
	.byte	0
	.uleb128 0xb
	.long	.LASF614
	.byte	0x2
	.value	0x4c0
	.byte	0x5
	.long	.LASF615
	.long	0x5c64
	.long	0x3fc1
	.uleb128 0x4
	.long	.LASF601
	.long	0x5178
	.uleb128 0x4
	.long	.LASF602
	.long	0x5178
	.uleb128 0x1
	.long	0x5178
	.uleb128 0x1
	.long	0x5178
	.uleb128 0x1
	.long	0x5178
	.byte	0
	.uleb128 0x18
	.long	.LASF616
	.byte	0xd
	.byte	0x63
	.byte	0x5
	.long	.LASF617
	.long	0x3905
	.long	0x3fee
	.uleb128 0x4
	.long	.LASF618
	.long	0x5178
	.uleb128 0x1
	.long	0x5178
	.uleb128 0x1
	.long	0x5178
	.uleb128 0x1
	.long	0xba3
	.byte	0
	.uleb128 0x18
	.long	.LASF619
	.byte	0x10
	.byte	0xee
	.byte	0x5
	.long	.LASF620
	.long	0x38f9
	.long	0x4011
	.uleb128 0x4
	.long	.LASF578
	.long	0x5178
	.uleb128 0x1
	.long	0x7b27
	.byte	0
	.uleb128 0xb
	.long	.LASF621
	.byte	0x2
	.value	0x1e6
	.byte	0x5
	.long	.LASF622
	.long	0x6fac
	.long	0x4052
	.uleb128 0x1f
	.long	.LASF544
	.long	0x5c64
	.byte	0
	.uleb128 0x6
	.string	"_II"
	.long	0x6fc5
	.uleb128 0x6
	.string	"_OI"
	.long	0x6fac
	.uleb128 0x1
	.long	0x6fc5
	.uleb128 0x1
	.long	0x6fc5
	.uleb128 0x1
	.long	0x6fac
	.byte	0
	.uleb128 0x18
	.long	.LASF623
	.byte	0x8
	.byte	0x68
	.byte	0x5
	.long	.LASF624
	.long	0x80cd
	.long	0x4075
	.uleb128 0x6
	.string	"_Tp"
	.long	0x69f2
	.uleb128 0x1
	.long	0x69f2
	.byte	0
	.uleb128 0x18
	.long	.LASF625
	.byte	0x11
	.byte	0xa3
	.byte	0x5
	.long	.LASF626
	.long	0x69bb
	.long	0x40ab
	.uleb128 0x4
	.long	.LASF148
	.long	0x53b8
	.uleb128 0x4
	.long	.LASF132
	.long	0x69bb
	.uleb128 0x1
	.long	0x53b8
	.uleb128 0x1
	.long	0x53b8
	.uleb128 0x1
	.long	0x69bb
	.byte	0
	.uleb128 0xb
	.long	.LASF627
	.byte	0x11
	.value	0x467
	.byte	0x5
	.long	.LASF628
	.long	0x6fac
	.long	0x40f0
	.uleb128 0x4
	.long	.LASF148
	.long	0x6fac
	.uleb128 0x4
	.long	.LASF132
	.long	0x6fac
	.uleb128 0x4
	.long	.LASF629
	.long	0x25e0
	.uleb128 0x1
	.long	0x6fac
	.uleb128 0x1
	.long	0x6fac
	.uleb128 0x1
	.long	0x6fac
	.uleb128 0x1
	.long	0x6fe3
	.byte	0
	.uleb128 0x18
	.long	.LASF630
	.byte	0x2
	.byte	0xfe
	.byte	0x5
	.long	.LASF631
	.long	0x832d
	.long	0x4118
	.uleb128 0x6
	.string	"_Tp"
	.long	0x5e
	.uleb128 0x1
	.long	0x832d
	.uleb128 0x1
	.long	0x832d
	.byte	0
	.uleb128 0xb
	.long	.LASF632
	.byte	0x11
	.value	0x2b3
	.byte	0x5
	.long	.LASF633
	.long	0x6fac
	.long	0x414a
	.uleb128 0x4
	.long	.LASF132
	.long	0x6fac
	.uleb128 0x4
	.long	.LASF155
	.long	0x5e
	.uleb128 0x1
	.long	0x6fac
	.uleb128 0x1
	.long	0x5e
	.byte	0
	.uleb128 0x18
	.long	.LASF634
	.byte	0x2
	.byte	0xe6
	.byte	0x5
	.long	.LASF635
	.long	0x832d
	.long	0x4172
	.uleb128 0x6
	.string	"_Tp"
	.long	0x5e
	.uleb128 0x1
	.long	0x832d
	.uleb128 0x1
	.long	0x832d
	.byte	0
	.uleb128 0xb
	.long	.LASF636
	.byte	0x2
	.value	0x209
	.byte	0x5
	.long	.LASF637
	.long	0x6fac
	.long	0x41b3
	.uleb128 0x1f
	.long	.LASF544
	.long	0x5c64
	.byte	0x1
	.uleb128 0x6
	.string	"_II"
	.long	0x6fc5
	.uleb128 0x6
	.string	"_OI"
	.long	0x6fac
	.uleb128 0x1
	.long	0x6fc5
	.uleb128 0x1
	.long	0x6fc5
	.uleb128 0x1
	.long	0x6fac
	.byte	0
	.uleb128 0xb
	.long	.LASF638
	.byte	0x2
	.value	0x609
	.byte	0x5
	.long	.LASF639
	.long	0x5c64
	.long	0x41ea
	.uleb128 0x4
	.long	.LASF601
	.long	0x5178
	.uleb128 0x4
	.long	.LASF602
	.long	0x5178
	.uleb128 0x1
	.long	0x5178
	.uleb128 0x1
	.long	0x5178
	.uleb128 0x1
	.long	0x5178
	.byte	0
	.uleb128 0x18
	.long	.LASF640
	.byte	0xd
	.byte	0x93
	.byte	0x5
	.long	.LASF641
	.long	0x3905
	.long	0x4212
	.uleb128 0x4
	.long	.LASF148
	.long	0x5178
	.uleb128 0x1
	.long	0x5178
	.uleb128 0x1
	.long	0x5178
	.byte	0
	.uleb128 0xb
	.long	.LASF642
	.byte	0x2
	.value	0x148
	.byte	0x5
	.long	.LASF643
	.long	0x56fa
	.long	0x4244
	.uleb128 0x4
	.long	.LASF644
	.long	0x56fa
	.uleb128 0x6
	.string	"_To"
	.long	0x6fac
	.uleb128 0x1
	.long	0x56fa
	.uleb128 0x1
	.long	0x6fac
	.byte	0
	.uleb128 0xb
	.long	.LASF645
	.byte	0x2
	.value	0x209
	.byte	0x5
	.long	.LASF646
	.long	0x6fac
	.long	0x4285
	.uleb128 0x1f
	.long	.LASF544
	.long	0x5c64
	.byte	0
	.uleb128 0x6
	.string	"_II"
	.long	0x6fc5
	.uleb128 0x6
	.string	"_OI"
	.long	0x6fac
	.uleb128 0x1
	.long	0x6fc5
	.uleb128 0x1
	.long	0x6fc5
	.uleb128 0x1
	.long	0x6fac
	.byte	0
	.uleb128 0xb
	.long	.LASF647
	.byte	0x12
	.value	0x549
	.byte	0x5
	.long	.LASF648
	.long	0x6fac
	.long	0x42b2
	.uleb128 0x4
	.long	.LASF537
	.long	0x6fac
	.uleb128 0x4
	.long	.LASF561
	.long	0x2b35
	.uleb128 0x1
	.long	0x56fa
	.byte	0
	.uleb128 0xb
	.long	.LASF649
	.byte	0x12
	.value	0x549
	.byte	0x5
	.long	.LASF650
	.long	0x6fc5
	.long	0x42df
	.uleb128 0x4
	.long	.LASF537
	.long	0x6fc5
	.uleb128 0x4
	.long	.LASF561
	.long	0x2b35
	.uleb128 0x1
	.long	0x592d
	.byte	0
	.uleb128 0x35
	.long	.LASF651
	.byte	0xa
	.value	0x2c6
	.byte	0x5
	.long	.LASF652
	.long	0x4304
	.uleb128 0x4
	.long	.LASF242
	.long	0x11d7
	.uleb128 0x1
	.long	0x69f2
	.uleb128 0x1
	.long	0x69f2
	.byte	0
	.uleb128 0xb
	.long	.LASF653
	.byte	0x11
	.value	0x16d
	.byte	0x5
	.long	.LASF654
	.long	0x69bb
	.long	0x4349
	.uleb128 0x4
	.long	.LASF148
	.long	0x53b8
	.uleb128 0x4
	.long	.LASF132
	.long	0x69bb
	.uleb128 0x6
	.string	"_Tp"
	.long	0x4d85
	.uleb128 0x1
	.long	0x53b8
	.uleb128 0x1
	.long	0x53b8
	.uleb128 0x1
	.long	0x69bb
	.uleb128 0x1
	.long	0x69f2
	.byte	0
	.uleb128 0xb
	.long	.LASF655
	.byte	0x11
	.value	0x2fc
	.byte	0x5
	.long	.LASF656
	.long	0x6fac
	.long	0x4389
	.uleb128 0x4
	.long	.LASF132
	.long	0x6fac
	.uleb128 0x4
	.long	.LASF155
	.long	0x5e
	.uleb128 0x6
	.string	"_Tp"
	.long	0x3f
	.uleb128 0x1
	.long	0x6fac
	.uleb128 0x1
	.long	0x5e
	.uleb128 0x1
	.long	0x6fe3
	.byte	0
	.uleb128 0x18
	.long	.LASF657
	.byte	0x11
	.byte	0xa3
	.byte	0x5
	.long	.LASF658
	.long	0x69bb
	.long	0x43bf
	.uleb128 0x4
	.long	.LASF148
	.long	0x69d4
	.uleb128 0x4
	.long	.LASF132
	.long	0x69bb
	.uleb128 0x1
	.long	0x69d4
	.uleb128 0x1
	.long	0x69d4
	.uleb128 0x1
	.long	0x69bb
	.byte	0
	.uleb128 0xb
	.long	.LASF659
	.byte	0x2
	.value	0x20f
	.byte	0x5
	.long	.LASF660
	.long	0x56fa
	.long	0x4400
	.uleb128 0x1f
	.long	.LASF544
	.long	0x5c64
	.byte	0x1
	.uleb128 0x6
	.string	"_II"
	.long	0x592d
	.uleb128 0x6
	.string	"_OI"
	.long	0x56fa
	.uleb128 0x1
	.long	0x592d
	.uleb128 0x1
	.long	0x592d
	.uleb128 0x1
	.long	0x56fa
	.byte	0
	.uleb128 0xb
	.long	.LASF661
	.byte	0x2
	.value	0x63b
	.byte	0x5
	.long	.LASF662
	.long	0x5c64
	.long	0x443c
	.uleb128 0x4
	.long	.LASF601
	.long	0x5178
	.uleb128 0x4
	.long	.LASF602
	.long	0x5178
	.uleb128 0x1
	.long	0x5178
	.uleb128 0x1
	.long	0x5178
	.uleb128 0x1
	.long	0x5178
	.uleb128 0x1
	.long	0x5178
	.byte	0
	.uleb128 0x18
	.long	.LASF663
	.byte	0x8
	.byte	0x68
	.byte	0x5
	.long	.LASF664
	.long	0x8fd6
	.long	0x445f
	.uleb128 0x6
	.string	"_Tp"
	.long	0x8fdb
	.uleb128 0x1
	.long	0x8fdb
	.byte	0
	.uleb128 0xb
	.long	.LASF665
	.byte	0x2
	.value	0x20f
	.byte	0x5
	.long	.LASF666
	.long	0x56fa
	.long	0x44a0
	.uleb128 0x1f
	.long	.LASF544
	.long	0x5c64
	.byte	0
	.uleb128 0x6
	.string	"_II"
	.long	0x592d
	.uleb128 0x6
	.string	"_OI"
	.long	0x56fa
	.uleb128 0x1
	.long	0x592d
	.uleb128 0x1
	.long	0x592d
	.uleb128 0x1
	.long	0x56fa
	.byte	0
	.uleb128 0xb
	.long	.LASF667
	.byte	0x14
	.value	0x232
	.byte	0x5
	.long	.LASF668
	.long	0x592d
	.long	0x44c4
	.uleb128 0x4
	.long	.LASF537
	.long	0x592d
	.uleb128 0x1
	.long	0x592d
	.byte	0
	.uleb128 0xb
	.long	.LASF669
	.byte	0x11
	.value	0x16d
	.byte	0x5
	.long	.LASF670
	.long	0x69bb
	.long	0x4509
	.uleb128 0x4
	.long	.LASF148
	.long	0x69d4
	.uleb128 0x4
	.long	.LASF132
	.long	0x69bb
	.uleb128 0x6
	.string	"_Tp"
	.long	0x4d85
	.uleb128 0x1
	.long	0x69d4
	.uleb128 0x1
	.long	0x69d4
	.uleb128 0x1
	.long	0x69bb
	.uleb128 0x1
	.long	0x69f2
	.byte	0
	.uleb128 0x18
	.long	.LASF671
	.byte	0xd
	.byte	0x63
	.byte	0x5
	.long	.LASF672
	.long	0x3881
	.long	0x4536
	.uleb128 0x4
	.long	.LASF618
	.long	0x69d4
	.uleb128 0x1
	.long	0x69d4
	.uleb128 0x1
	.long	0x69d4
	.uleb128 0x1
	.long	0xba3
	.byte	0
	.uleb128 0x18
	.long	.LASF673
	.byte	0x10
	.byte	0xee
	.byte	0x5
	.long	.LASF674
	.long	0x3875
	.long	0x4559
	.uleb128 0x4
	.long	.LASF578
	.long	0x69d4
	.uleb128 0x1
	.long	0x7150
	.byte	0
	.uleb128 0xb
	.long	.LASF675
	.byte	0x2
	.value	0x284
	.byte	0x5
	.long	.LASF676
	.long	0x56fa
	.long	0x4590
	.uleb128 0x6
	.string	"_II"
	.long	0x592d
	.uleb128 0x6
	.string	"_OI"
	.long	0x56fa
	.uleb128 0x1
	.long	0x592d
	.uleb128 0x1
	.long	0x592d
	.uleb128 0x1
	.long	0x56fa
	.byte	0
	.uleb128 0xb
	.long	.LASF638
	.byte	0x2
	.value	0x682
	.byte	0x5
	.long	.LASF677
	.long	0x5c64
	.long	0x45cc
	.uleb128 0x4
	.long	.LASF601
	.long	0x5178
	.uleb128 0x4
	.long	.LASF602
	.long	0x5178
	.uleb128 0x1
	.long	0x5178
	.uleb128 0x1
	.long	0x5178
	.uleb128 0x1
	.long	0x5178
	.uleb128 0x1
	.long	0x5178
	.byte	0
	.uleb128 0x18
	.long	.LASF678
	.byte	0x8
	.byte	0x68
	.byte	0x5
	.long	.LASF679
	.long	0x986c
	.long	0x45ef
	.uleb128 0x6
	.string	"_Tp"
	.long	0x172c
	.uleb128 0x1
	.long	0x6a7e
	.byte	0
	.uleb128 0xb
	.long	.LASF680
	.byte	0x2
	.value	0x263
	.byte	0x5
	.long	.LASF681
	.long	0x56fa
	.long	0x4626
	.uleb128 0x6
	.string	"_II"
	.long	0x592d
	.uleb128 0x6
	.string	"_OI"
	.long	0x56fa
	.uleb128 0x1
	.long	0x592d
	.uleb128 0x1
	.long	0x592d
	.uleb128 0x1
	.long	0x56fa
	.byte	0
	.uleb128 0x18
	.long	.LASF682
	.byte	0x8
	.byte	0x68
	.byte	0x5
	.long	.LASF683
	.long	0x99ff
	.long	0x4649
	.uleb128 0x6
	.string	"_Tp"
	.long	0x6a88
	.uleb128 0x1
	.long	0x6a88
	.byte	0
	.uleb128 0x3a
	.long	.LASF684
	.byte	0xf
	.byte	0xb6
	.byte	0x5
	.long	.LASF685
	.long	0x466d
	.uleb128 0x4
	.long	.LASF132
	.long	0x69bb
	.uleb128 0x1
	.long	0x69bb
	.uleb128 0x1
	.long	0x69bb
	.byte	0
	.uleb128 0x3a
	.long	.LASF686
	.byte	0xf
	.byte	0xb6
	.byte	0x5
	.long	.LASF687
	.long	0x4691
	.uleb128 0x4
	.long	.LASF132
	.long	0x6fac
	.uleb128 0x1
	.long	0x6fac
	.uleb128 0x1
	.long	0x6fac
	.byte	0
	.uleb128 0xb
	.long	.LASF688
	.byte	0xe
	.value	0xec5
	.byte	0x5
	.long	.LASF689
	.long	0xa4cb
	.long	0x46c8
	.uleb128 0x4
	.long	.LASF690
	.long	0x5178
	.uleb128 0x4
	.long	.LASF691
	.long	0xa4cb
	.uleb128 0x1
	.long	0x5178
	.uleb128 0x1
	.long	0x5178
	.uleb128 0x1
	.long	0xa4cb
	.byte	0
	.uleb128 0x18
	.long	.LASF692
	.byte	0xd
	.byte	0x93
	.byte	0x5
	.long	.LASF693
	.long	0x3881
	.long	0x46f0
	.uleb128 0x4
	.long	.LASF148
	.long	0x69d4
	.uleb128 0x1
	.long	0x69d4
	.uleb128 0x1
	.long	0x69d4
	.byte	0
	.uleb128 0x35
	.long	.LASF694
	.byte	0xa
	.value	0x34f
	.byte	0x5
	.long	.LASF695
	.long	0x4723
	.uleb128 0x4
	.long	.LASF132
	.long	0x69bb
	.uleb128 0x6
	.string	"_Tp"
	.long	0x4d85
	.uleb128 0x1
	.long	0x69bb
	.uleb128 0x1
	.long	0x69bb
	.uleb128 0x1
	.long	0x69f2
	.byte	0
	.uleb128 0x35
	.long	.LASF696
	.byte	0xa
	.value	0x34f
	.byte	0x5
	.long	.LASF697
	.long	0x4756
	.uleb128 0x4
	.long	.LASF132
	.long	0x6fac
	.uleb128 0x6
	.string	"_Tp"
	.long	0x3f
	.uleb128 0x1
	.long	0x6fac
	.uleb128 0x1
	.long	0x6fac
	.uleb128 0x1
	.long	0x6fe3
	.byte	0
	.uleb128 0xb
	.long	.LASF698
	.byte	0x2a
	.value	0x20b
	.byte	0x5
	.long	.LASF699
	.long	0x683c
	.long	0x477f
	.uleb128 0x4
	.long	.LASF376
	.long	0x876
	.uleb128 0x1
	.long	0x683c
	.uleb128 0x1
	.long	0x10c
	.byte	0
	.uleb128 0x18
	.long	.LASF700
	.byte	0x8
	.byte	0x68
	.byte	0x5
	.long	.LASF701
	.long	0xa88f
	.long	0x47a2
	.uleb128 0x6
	.string	"_Tp"
	.long	0x70ce
	.uleb128 0x1
	.long	0x70ce
	.byte	0
	.uleb128 0x69
	.long	.LASF702
	.byte	0x2
	.value	0x3f1
	.byte	0x3
	.long	.LASF703
	.long	0x5e
	.uleb128 0x1
	.long	0x5e
	.byte	0
	.byte	0
	.uleb128 0x11
	.long	.LASF704
	.byte	0x2e
	.value	0x11d
	.byte	0xf
	.long	0xa8
	.long	0x47d1
	.uleb128 0x1
	.long	0x118
	.byte	0
	.uleb128 0x11
	.long	.LASF705
	.byte	0x2e
	.value	0x2e8
	.byte	0xf
	.long	0xa8
	.long	0x47e8
	.uleb128 0x1
	.long	0x47e8
	.byte	0
	.uleb128 0xc
	.long	0x141
	.uleb128 0x11
	.long	.LASF706
	.byte	0x2e
	.value	0x305
	.byte	0x11
	.long	0x480e
	.long	0x480e
	.uleb128 0x1
	.long	0x480e
	.uleb128 0x1
	.long	0x118
	.uleb128 0x1
	.long	0x47e8
	.byte	0
	.uleb128 0xc
	.long	0x4813
	.uleb128 0x26
	.byte	0x4
	.byte	0x5
	.long	.LASF707
	.uleb128 0x9
	.long	0x4813
	.uleb128 0x11
	.long	.LASF708
	.byte	0x2e
	.value	0x2f6
	.byte	0xf
	.long	0xa8
	.long	0x483b
	.uleb128 0x1
	.long	0x4813
	.uleb128 0x1
	.long	0x47e8
	.byte	0
	.uleb128 0x11
	.long	.LASF709
	.byte	0x2e
	.value	0x30c
	.byte	0xc
	.long	0x118
	.long	0x4857
	.uleb128 0x1
	.long	0x4857
	.uleb128 0x1
	.long	0x47e8
	.byte	0
	.uleb128 0xc
	.long	0x481a
	.uleb128 0x11
	.long	.LASF710
	.byte	0x2e
	.value	0x24c
	.byte	0xc
	.long	0x118
	.long	0x4878
	.uleb128 0x1
	.long	0x47e8
	.uleb128 0x1
	.long	0x118
	.byte	0
	.uleb128 0x11
	.long	.LASF711
	.byte	0x2e
	.value	0x253
	.byte	0xc
	.long	0x118
	.long	0x4895
	.uleb128 0x1
	.long	0x47e8
	.uleb128 0x1
	.long	0x4857
	.uleb128 0x3e
	.byte	0
	.uleb128 0xb
	.long	.LASF712
	.byte	0x2e
	.value	0x291
	.byte	0xc
	.long	.LASF713
	.long	0x118
	.long	0x48b6
	.uleb128 0x1
	.long	0x47e8
	.uleb128 0x1
	.long	0x4857
	.uleb128 0x3e
	.byte	0
	.uleb128 0x11
	.long	.LASF714
	.byte	0x2e
	.value	0x2e9
	.byte	0xf
	.long	0xa8
	.long	0x48cd
	.uleb128 0x1
	.long	0x47e8
	.byte	0
	.uleb128 0x55
	.long	.LASF969
	.byte	0x2e
	.value	0x2ef
	.byte	0xf
	.long	0xa8
	.uleb128 0x11
	.long	.LASF715
	.byte	0x2e
	.value	0x134
	.byte	0xf
	.long	0x52
	.long	0x48fb
	.uleb128 0x1
	.long	0x2e7
	.uleb128 0x1
	.long	0x52
	.uleb128 0x1
	.long	0x48fb
	.byte	0
	.uleb128 0xc
	.long	0x130
	.uleb128 0x11
	.long	.LASF716
	.byte	0x2e
	.value	0x129
	.byte	0xf
	.long	0x52
	.long	0x4926
	.uleb128 0x1
	.long	0x480e
	.uleb128 0x1
	.long	0x2e7
	.uleb128 0x1
	.long	0x52
	.uleb128 0x1
	.long	0x48fb
	.byte	0
	.uleb128 0x11
	.long	.LASF717
	.byte	0x2e
	.value	0x125
	.byte	0xc
	.long	0x118
	.long	0x493d
	.uleb128 0x1
	.long	0x493d
	.byte	0
	.uleb128 0xc
	.long	0x13c
	.uleb128 0x11
	.long	.LASF718
	.byte	0x2e
	.value	0x152
	.byte	0xf
	.long	0x52
	.long	0x4968
	.uleb128 0x1
	.long	0x480e
	.uleb128 0x1
	.long	0x4968
	.uleb128 0x1
	.long	0x52
	.uleb128 0x1
	.long	0x48fb
	.byte	0
	.uleb128 0xc
	.long	0x2e7
	.uleb128 0x11
	.long	.LASF719
	.byte	0x2e
	.value	0x2f7
	.byte	0xf
	.long	0xa8
	.long	0x4989
	.uleb128 0x1
	.long	0x4813
	.uleb128 0x1
	.long	0x47e8
	.byte	0
	.uleb128 0x11
	.long	.LASF720
	.byte	0x2e
	.value	0x2fd
	.byte	0xf
	.long	0xa8
	.long	0x49a0
	.uleb128 0x1
	.long	0x4813
	.byte	0
	.uleb128 0x11
	.long	.LASF721
	.byte	0x2e
	.value	0x25d
	.byte	0xc
	.long	0x118
	.long	0x49c2
	.uleb128 0x1
	.long	0x480e
	.uleb128 0x1
	.long	0x52
	.uleb128 0x1
	.long	0x4857
	.uleb128 0x3e
	.byte	0
	.uleb128 0xb
	.long	.LASF722
	.byte	0x2e
	.value	0x298
	.byte	0xc
	.long	.LASF723
	.long	0x118
	.long	0x49e3
	.uleb128 0x1
	.long	0x4857
	.uleb128 0x1
	.long	0x4857
	.uleb128 0x3e
	.byte	0
	.uleb128 0x11
	.long	.LASF724
	.byte	0x2e
	.value	0x314
	.byte	0xf
	.long	0xa8
	.long	0x49ff
	.uleb128 0x1
	.long	0xa8
	.uleb128 0x1
	.long	0x47e8
	.byte	0
	.uleb128 0x11
	.long	.LASF725
	.byte	0x2e
	.value	0x265
	.byte	0xc
	.long	0x118
	.long	0x4a20
	.uleb128 0x1
	.long	0x47e8
	.uleb128 0x1
	.long	0x4857
	.uleb128 0x1
	.long	0x4a20
	.byte	0
	.uleb128 0xc
	.long	0x6a
	.uleb128 0xb
	.long	.LASF726
	.byte	0x2e
	.value	0x2c7
	.byte	0xc
	.long	.LASF727
	.long	0x118
	.long	0x4a4a
	.uleb128 0x1
	.long	0x47e8
	.uleb128 0x1
	.long	0x4857
	.uleb128 0x1
	.long	0x4a20
	.byte	0
	.uleb128 0x11
	.long	.LASF728
	.byte	0x2e
	.value	0x272
	.byte	0xc
	.long	0x118
	.long	0x4a70
	.uleb128 0x1
	.long	0x480e
	.uleb128 0x1
	.long	0x52
	.uleb128 0x1
	.long	0x4857
	.uleb128 0x1
	.long	0x4a20
	.byte	0
	.uleb128 0xb
	.long	.LASF729
	.byte	0x2e
	.value	0x2ce
	.byte	0xc
	.long	.LASF730
	.long	0x118
	.long	0x4a95
	.uleb128 0x1
	.long	0x4857
	.uleb128 0x1
	.long	0x4857
	.uleb128 0x1
	.long	0x4a20
	.byte	0
	.uleb128 0x11
	.long	.LASF731
	.byte	0x2e
	.value	0x26d
	.byte	0xc
	.long	0x118
	.long	0x4ab1
	.uleb128 0x1
	.long	0x4857
	.uleb128 0x1
	.long	0x4a20
	.byte	0
	.uleb128 0xb
	.long	.LASF732
	.byte	0x2e
	.value	0x2cb
	.byte	0xc
	.long	.LASF733
	.long	0x118
	.long	0x4ad1
	.uleb128 0x1
	.long	0x4857
	.uleb128 0x1
	.long	0x4a20
	.byte	0
	.uleb128 0x11
	.long	.LASF734
	.byte	0x2e
	.value	0x12e
	.byte	0xf
	.long	0x52
	.long	0x4af2
	.uleb128 0x1
	.long	0x4af2
	.uleb128 0x1
	.long	0x4813
	.uleb128 0x1
	.long	0x48fb
	.byte	0
	.uleb128 0xc
	.long	0x10c
	.uleb128 0x1a
	.long	.LASF735
	.byte	0x2e
	.byte	0x61
	.byte	0x11
	.long	0x480e
	.long	0x4b12
	.uleb128 0x1
	.long	0x480e
	.uleb128 0x1
	.long	0x4857
	.byte	0
	.uleb128 0x1a
	.long	.LASF736
	.byte	0x2e
	.byte	0x6a
	.byte	0xc
	.long	0x118
	.long	0x4b2d
	.uleb128 0x1
	.long	0x4857
	.uleb128 0x1
	.long	0x4857
	.byte	0
	.uleb128 0x1a
	.long	.LASF737
	.byte	0x2e
	.byte	0x83
	.byte	0xc
	.long	0x118
	.long	0x4b48
	.uleb128 0x1
	.long	0x4857
	.uleb128 0x1
	.long	0x4857
	.byte	0
	.uleb128 0x1a
	.long	.LASF738
	.byte	0x2e
	.byte	0x57
	.byte	0x11
	.long	0x480e
	.long	0x4b63
	.uleb128 0x1
	.long	0x480e
	.uleb128 0x1
	.long	0x4857
	.byte	0
	.uleb128 0x1a
	.long	.LASF739
	.byte	0x2e
	.byte	0xbc
	.byte	0xf
	.long	0x52
	.long	0x4b7e
	.uleb128 0x1
	.long	0x4857
	.uleb128 0x1
	.long	0x4857
	.byte	0
	.uleb128 0x11
	.long	.LASF740
	.byte	0x2e
	.value	0x354
	.byte	0xf
	.long	0x52
	.long	0x4ba4
	.uleb128 0x1
	.long	0x480e
	.uleb128 0x1
	.long	0x52
	.uleb128 0x1
	.long	0x4857
	.uleb128 0x1
	.long	0x4ba4
	.byte	0
	.uleb128 0xc
	.long	0x4c46
	.uleb128 0x8e
	.string	"tm"
	.byte	0x38
	.byte	0x2f
	.byte	0x7
	.byte	0x8
	.long	0x4c46
	.uleb128 0xa
	.long	.LASF741
	.byte	0x2f
	.byte	0x9
	.byte	0x7
	.long	0x118
	.byte	0
	.uleb128 0xa
	.long	.LASF742
	.byte	0x2f
	.byte	0xa
	.byte	0x7
	.long	0x118
	.byte	0x4
	.uleb128 0xa
	.long	.LASF743
	.byte	0x2f
	.byte	0xb
	.byte	0x7
	.long	0x118
	.byte	0x8
	.uleb128 0xa
	.long	.LASF744
	.byte	0x2f
	.byte	0xc
	.byte	0x7
	.long	0x118
	.byte	0xc
	.uleb128 0xa
	.long	.LASF745
	.byte	0x2f
	.byte	0xd
	.byte	0x7
	.long	0x118
	.byte	0x10
	.uleb128 0xa
	.long	.LASF746
	.byte	0x2f
	.byte	0xe
	.byte	0x7
	.long	0x118
	.byte	0x14
	.uleb128 0xa
	.long	.LASF747
	.byte	0x2f
	.byte	0xf
	.byte	0x7
	.long	0x118
	.byte	0x18
	.uleb128 0xa
	.long	.LASF748
	.byte	0x2f
	.byte	0x10
	.byte	0x7
	.long	0x118
	.byte	0x1c
	.uleb128 0xa
	.long	.LASF749
	.byte	0x2f
	.byte	0x11
	.byte	0x7
	.long	0x118
	.byte	0x20
	.uleb128 0xa
	.long	.LASF750
	.byte	0x2f
	.byte	0x14
	.byte	0xc
	.long	0x4d85
	.byte	0x28
	.uleb128 0xa
	.long	.LASF751
	.byte	0x2f
	.byte	0x15
	.byte	0xf
	.long	0x2e7
	.byte	0x30
	.byte	0
	.uleb128 0x9
	.long	0x4ba9
	.uleb128 0x1a
	.long	.LASF752
	.byte	0x2e
	.byte	0xdf
	.byte	0xf
	.long	0x52
	.long	0x4c61
	.uleb128 0x1
	.long	0x4857
	.byte	0
	.uleb128 0x1a
	.long	.LASF753
	.byte	0x2e
	.byte	0x65
	.byte	0x11
	.long	0x480e
	.long	0x4c81
	.uleb128 0x1
	.long	0x480e
	.uleb128 0x1
	.long	0x4857
	.uleb128 0x1
	.long	0x52
	.byte	0
	.uleb128 0x1a
	.long	.LASF754
	.byte	0x2e
	.byte	0x6d
	.byte	0xc
	.long	0x118
	.long	0x4ca1
	.uleb128 0x1
	.long	0x4857
	.uleb128 0x1
	.long	0x4857
	.uleb128 0x1
	.long	0x52
	.byte	0
	.uleb128 0x1a
	.long	.LASF755
	.byte	0x2e
	.byte	0x5c
	.byte	0x11
	.long	0x480e
	.long	0x4cc1
	.uleb128 0x1
	.long	0x480e
	.uleb128 0x1
	.long	0x4857
	.uleb128 0x1
	.long	0x52
	.byte	0
	.uleb128 0x11
	.long	.LASF756
	.byte	0x2e
	.value	0x158
	.byte	0xf
	.long	0x52
	.long	0x4ce7
	.uleb128 0x1
	.long	0x4af2
	.uleb128 0x1
	.long	0x4ce7
	.uleb128 0x1
	.long	0x52
	.uleb128 0x1
	.long	0x48fb
	.byte	0
	.uleb128 0xc
	.long	0x4857
	.uleb128 0x1a
	.long	.LASF757
	.byte	0x2e
	.byte	0xc0
	.byte	0xf
	.long	0x52
	.long	0x4d07
	.uleb128 0x1
	.long	0x4857
	.uleb128 0x1
	.long	0x4857
	.byte	0
	.uleb128 0x11
	.long	.LASF758
	.byte	0x2e
	.value	0x17a
	.byte	0xf
	.long	0x3f
	.long	0x4d23
	.uleb128 0x1
	.long	0x4857
	.uleb128 0x1
	.long	0x4d23
	.byte	0
	.uleb128 0xc
	.long	0x480e
	.uleb128 0x11
	.long	.LASF759
	.byte	0x2e
	.value	0x17f
	.byte	0xe
	.long	0x38
	.long	0x4d44
	.uleb128 0x1
	.long	0x4857
	.uleb128 0x1
	.long	0x4d23
	.byte	0
	.uleb128 0x1a
	.long	.LASF760
	.byte	0x2e
	.byte	0xda
	.byte	0x11
	.long	0x480e
	.long	0x4d64
	.uleb128 0x1
	.long	0x480e
	.uleb128 0x1
	.long	0x4857
	.uleb128 0x1
	.long	0x4d23
	.byte	0
	.uleb128 0x11
	.long	.LASF761
	.byte	0x2e
	.value	0x1ad
	.byte	0x11
	.long	0x4d85
	.long	0x4d85
	.uleb128 0x1
	.long	0x4857
	.uleb128 0x1
	.long	0x4d23
	.uleb128 0x1
	.long	0x118
	.byte	0
	.uleb128 0x26
	.byte	0x8
	.byte	0x5
	.long	.LASF762
	.uleb128 0x9
	.long	0x4d85
	.uleb128 0x11
	.long	.LASF763
	.byte	0x2e
	.value	0x1b2
	.byte	0x1a
	.long	0x5e
	.long	0x4db2
	.uleb128 0x1
	.long	0x4857
	.uleb128 0x1
	.long	0x4d23
	.uleb128 0x1
	.long	0x118
	.byte	0
	.uleb128 0x1a
	.long	.LASF764
	.byte	0x2e
	.byte	0x87
	.byte	0xf
	.long	0x52
	.long	0x4dd2
	.uleb128 0x1
	.long	0x480e
	.uleb128 0x1
	.long	0x4857
	.uleb128 0x1
	.long	0x52
	.byte	0
	.uleb128 0x11
	.long	.LASF765
	.byte	0x2e
	.value	0x121
	.byte	0xc
	.long	0x118
	.long	0x4de9
	.uleb128 0x1
	.long	0xa8
	.byte	0
	.uleb128 0x11
	.long	.LASF766
	.byte	0x2e
	.value	0x103
	.byte	0xc
	.long	0x118
	.long	0x4e0a
	.uleb128 0x1
	.long	0x4857
	.uleb128 0x1
	.long	0x4857
	.uleb128 0x1
	.long	0x52
	.byte	0
	.uleb128 0x11
	.long	.LASF767
	.byte	0x2e
	.value	0x107
	.byte	0x11
	.long	0x480e
	.long	0x4e2b
	.uleb128 0x1
	.long	0x480e
	.uleb128 0x1
	.long	0x4857
	.uleb128 0x1
	.long	0x52
	.byte	0
	.uleb128 0x11
	.long	.LASF768
	.byte	0x2e
	.value	0x10c
	.byte	0x11
	.long	0x480e
	.long	0x4e4c
	.uleb128 0x1
	.long	0x480e
	.uleb128 0x1
	.long	0x4857
	.uleb128 0x1
	.long	0x52
	.byte	0
	.uleb128 0x11
	.long	.LASF769
	.byte	0x2e
	.value	0x110
	.byte	0x11
	.long	0x480e
	.long	0x4e6d
	.uleb128 0x1
	.long	0x480e
	.uleb128 0x1
	.long	0x4813
	.uleb128 0x1
	.long	0x52
	.byte	0
	.uleb128 0x11
	.long	.LASF770
	.byte	0x2e
	.value	0x25a
	.byte	0xc
	.long	0x118
	.long	0x4e85
	.uleb128 0x1
	.long	0x4857
	.uleb128 0x3e
	.byte	0
	.uleb128 0xb
	.long	.LASF771
	.byte	0x2e
	.value	0x295
	.byte	0xc
	.long	.LASF772
	.long	0x118
	.long	0x4ea1
	.uleb128 0x1
	.long	0x4857
	.uleb128 0x3e
	.byte	0
	.uleb128 0x18
	.long	.LASF773
	.byte	0x2e
	.byte	0xa2
	.byte	0x1d
	.long	.LASF773
	.long	0x4857
	.long	0x4ec0
	.uleb128 0x1
	.long	0x4857
	.uleb128 0x1
	.long	0x4813
	.byte	0
	.uleb128 0x18
	.long	.LASF773
	.byte	0x2e
	.byte	0xa0
	.byte	0x17
	.long	.LASF773
	.long	0x480e
	.long	0x4edf
	.uleb128 0x1
	.long	0x480e
	.uleb128 0x1
	.long	0x4813
	.byte	0
	.uleb128 0x18
	.long	.LASF774
	.byte	0x2e
	.byte	0xc6
	.byte	0x1d
	.long	.LASF774
	.long	0x4857
	.long	0x4efe
	.uleb128 0x1
	.long	0x4857
	.uleb128 0x1
	.long	0x4857
	.byte	0
	.uleb128 0x18
	.long	.LASF774
	.byte	0x2e
	.byte	0xc4
	.byte	0x17
	.long	.LASF774
	.long	0x480e
	.long	0x4f1d
	.uleb128 0x1
	.long	0x480e
	.uleb128 0x1
	.long	0x4857
	.byte	0
	.uleb128 0x18
	.long	.LASF775
	.byte	0x2e
	.byte	0xac
	.byte	0x1d
	.long	.LASF775
	.long	0x4857
	.long	0x4f3c
	.uleb128 0x1
	.long	0x4857
	.uleb128 0x1
	.long	0x4813
	.byte	0
	.uleb128 0x18
	.long	.LASF775
	.byte	0x2e
	.byte	0xaa
	.byte	0x17
	.long	.LASF775
	.long	0x480e
	.long	0x4f5b
	.uleb128 0x1
	.long	0x480e
	.uleb128 0x1
	.long	0x4813
	.byte	0
	.uleb128 0x18
	.long	.LASF776
	.byte	0x2e
	.byte	0xd1
	.byte	0x1d
	.long	.LASF776
	.long	0x4857
	.long	0x4f7a
	.uleb128 0x1
	.long	0x4857
	.uleb128 0x1
	.long	0x4857
	.byte	0
	.uleb128 0x18
	.long	.LASF776
	.byte	0x2e
	.byte	0xcf
	.byte	0x17
	.long	.LASF776
	.long	0x480e
	.long	0x4f99
	.uleb128 0x1
	.long	0x480e
	.uleb128 0x1
	.long	0x4857
	.byte	0
	.uleb128 0x18
	.long	.LASF777
	.byte	0x2e
	.byte	0xfa
	.byte	0x1d
	.long	.LASF777
	.long	0x4857
	.long	0x4fbd
	.uleb128 0x1
	.long	0x4857
	.uleb128 0x1
	.long	0x4813
	.uleb128 0x1
	.long	0x52
	.byte	0
	.uleb128 0x18
	.long	.LASF777
	.byte	0x2e
	.byte	0xf8
	.byte	0x17
	.long	.LASF777
	.long	0x480e
	.long	0x4fe1
	.uleb128 0x1
	.long	0x480e
	.uleb128 0x1
	.long	0x4813
	.uleb128 0x1
	.long	0x52
	.byte	0
	.uleb128 0x8f
	.long	.LASF778
	.byte	0x20
	.value	0x14d
	.byte	0xb
	.long	0x5bf3
	.uleb128 0x3
	.byte	0x1f
	.byte	0xfb
	.byte	0xb
	.long	0x5bf3
	.uleb128 0x21
	.byte	0x1f
	.value	0x104
	.byte	0xb
	.long	0x5c0f
	.uleb128 0x21
	.byte	0x1f
	.value	0x105
	.byte	0xb
	.long	0x5c37
	.uleb128 0x5f
	.long	.LASF779
	.byte	0x30
	.byte	0x25
	.byte	0xb
	.uleb128 0x3
	.byte	0x26
	.byte	0xc8
	.byte	0xb
	.long	0x6156
	.uleb128 0x3
	.byte	0x26
	.byte	0xd8
	.byte	0xb
	.long	0x63f1
	.uleb128 0x3
	.byte	0x26
	.byte	0xe3
	.byte	0xb
	.long	0x640d
	.uleb128 0x3
	.byte	0x26
	.byte	0xe4
	.byte	0xb
	.long	0x6423
	.uleb128 0x3
	.byte	0x26
	.byte	0xe5
	.byte	0xb
	.long	0x6443
	.uleb128 0x3
	.byte	0x26
	.byte	0xe7
	.byte	0xb
	.long	0x6463
	.uleb128 0x3
	.byte	0x26
	.byte	0xe8
	.byte	0xb
	.long	0x647e
	.uleb128 0x90
	.string	"div"
	.byte	0x26
	.byte	0xd5
	.byte	0x3
	.long	.LASF1256
	.long	0x6156
	.long	0x5069
	.uleb128 0x1
	.long	0x5c30
	.uleb128 0x1
	.long	0x5c30
	.byte	0
	.uleb128 0x1e
	.long	.LASF780
	.byte	0x1
	.byte	0x15
	.byte	0x30
	.byte	0xa
	.long	0x5178
	.uleb128 0x3
	.byte	0x15
	.byte	0x30
	.byte	0xa
	.long	0x12bd
	.uleb128 0x3
	.byte	0x15
	.byte	0x30
	.byte	0xa
	.long	0x127e
	.uleb128 0x3
	.byte	0x15
	.byte	0x30
	.byte	0xa
	.long	0x12ef
	.uleb128 0x3
	.byte	0x15
	.byte	0x30
	.byte	0xa
	.long	0x1310
	.uleb128 0x34
	.long	0x1265
	.uleb128 0x18
	.long	.LASF781
	.byte	0x15
	.byte	0x61
	.byte	0x1d
	.long	.LASF782
	.long	0x11d7
	.long	0x50b5
	.uleb128 0x1
	.long	0x69ed
	.byte	0
	.uleb128 0x3a
	.long	.LASF783
	.byte	0x15
	.byte	0x64
	.byte	0x26
	.long	.LASF784
	.long	0x50d0
	.uleb128 0x1
	.long	0x69f2
	.uleb128 0x1
	.long	0x69f2
	.byte	0
	.uleb128 0x33
	.long	.LASF785
	.byte	0x67
	.long	.LASF786
	.long	0x5c64
	.uleb128 0x33
	.long	.LASF787
	.byte	0x6a
	.long	.LASF788
	.long	0x5c64
	.uleb128 0x33
	.long	.LASF789
	.byte	0x6d
	.long	.LASF790
	.long	0x5c64
	.uleb128 0x33
	.long	.LASF791
	.byte	0x70
	.long	.LASF792
	.long	0x5c64
	.uleb128 0x33
	.long	.LASF793
	.byte	0x73
	.long	.LASF794
	.long	0x5c64
	.uleb128 0x8
	.long	.LASF56
	.byte	0x15
	.byte	0x38
	.byte	0x35
	.long	0x1346
	.uleb128 0x9
	.long	0x5116
	.uleb128 0x8
	.long	.LASF164
	.byte	0x15
	.byte	0x39
	.byte	0x35
	.long	0x1271
	.uleb128 0x8
	.long	.LASF167
	.byte	0x15
	.byte	0x3e
	.byte	0x35
	.long	0x6a01
	.uleb128 0x8
	.long	.LASF170
	.byte	0x15
	.byte	0x3f
	.byte	0x35
	.long	0x6a06
	.uleb128 0x1e
	.long	.LASF795
	.byte	0x1
	.byte	0x15
	.byte	0x77
	.byte	0xe
	.long	0x516e
	.uleb128 0x8
	.long	.LASF796
	.byte	0x15
	.byte	0x78
	.byte	0x41
	.long	0x1353
	.uleb128 0x6
	.string	"_Tp"
	.long	0x4d85
	.byte	0
	.uleb128 0x4
	.long	.LASF242
	.long	0x11d7
	.byte	0
	.uleb128 0x3d
	.long	.LASF797
	.byte	0x8
	.byte	0x12
	.value	0x413
	.long	0x53b3
	.uleb128 0x4c
	.long	.LASF823
	.long	0x69bb
	.uleb128 0x13
	.long	.LASF798
	.byte	0x12
	.value	0x42c
	.byte	0x1a
	.long	.LASF799
	.byte	0x1
	.long	0x51a4
	.long	0x51aa
	.uleb128 0x2
	.long	0x70ec
	.byte	0
	.uleb128 0x37
	.long	.LASF798
	.byte	0x12
	.value	0x430
	.long	.LASF800
	.long	0x51be
	.long	0x51c9
	.uleb128 0x2
	.long	0x70ec
	.uleb128 0x1
	.long	0x70f6
	.byte	0
	.uleb128 0x19
	.long	.LASF167
	.byte	0x12
	.value	0x425
	.byte	0x32
	.long	0x3799
	.uleb128 0x7
	.long	.LASF801
	.byte	0x12
	.value	0x447
	.byte	0x7
	.long	.LASF802
	.long	0x51c9
	.byte	0x1
	.long	0x51f0
	.long	0x51f6
	.uleb128 0x2
	.long	0x70fb
	.byte	0
	.uleb128 0x19
	.long	.LASF164
	.byte	0x12
	.value	0x426
	.byte	0x32
	.long	0x378d
	.uleb128 0x7
	.long	.LASF803
	.byte	0x12
	.value	0x44c
	.byte	0x7
	.long	.LASF804
	.long	0x51f6
	.byte	0x1
	.long	0x521d
	.long	0x5223
	.uleb128 0x2
	.long	0x70fb
	.byte	0
	.uleb128 0x7
	.long	.LASF805
	.byte	0x12
	.value	0x451
	.byte	0x7
	.long	.LASF806
	.long	0x7105
	.byte	0x1
	.long	0x523d
	.long	0x5243
	.uleb128 0x2
	.long	0x70ec
	.byte	0
	.uleb128 0x7
	.long	.LASF805
	.byte	0x12
	.value	0x459
	.byte	0x7
	.long	.LASF807
	.long	0x5178
	.byte	0x1
	.long	0x525d
	.long	0x5268
	.uleb128 0x2
	.long	0x70ec
	.uleb128 0x1
	.long	0x118
	.byte	0
	.uleb128 0x7
	.long	.LASF808
	.byte	0x12
	.value	0x45f
	.byte	0x7
	.long	.LASF809
	.long	0x7105
	.byte	0x1
	.long	0x5282
	.long	0x5288
	.uleb128 0x2
	.long	0x70ec
	.byte	0
	.uleb128 0x7
	.long	.LASF808
	.byte	0x12
	.value	0x467
	.byte	0x7
	.long	.LASF810
	.long	0x5178
	.byte	0x1
	.long	0x52a2
	.long	0x52ad
	.uleb128 0x2
	.long	0x70ec
	.uleb128 0x1
	.long	0x118
	.byte	0
	.uleb128 0x7
	.long	.LASF312
	.byte	0x12
	.value	0x46d
	.byte	0x7
	.long	.LASF811
	.long	0x51c9
	.byte	0x1
	.long	0x52c7
	.long	0x52d2
	.uleb128 0x2
	.long	0x70fb
	.uleb128 0x1
	.long	0x52d2
	.byte	0
	.uleb128 0x19
	.long	.LASF528
	.byte	0x12
	.value	0x424
	.byte	0x38
	.long	0x3781
	.uleb128 0x7
	.long	.LASF812
	.byte	0x12
	.value	0x472
	.byte	0x7
	.long	.LASF813
	.long	0x7105
	.byte	0x1
	.long	0x52f9
	.long	0x5304
	.uleb128 0x2
	.long	0x70ec
	.uleb128 0x1
	.long	0x52d2
	.byte	0
	.uleb128 0x7
	.long	.LASF814
	.byte	0x12
	.value	0x477
	.byte	0x7
	.long	.LASF815
	.long	0x5178
	.byte	0x1
	.long	0x531e
	.long	0x5329
	.uleb128 0x2
	.long	0x70fb
	.uleb128 0x1
	.long	0x52d2
	.byte	0
	.uleb128 0x7
	.long	.LASF816
	.byte	0x12
	.value	0x47c
	.byte	0x7
	.long	.LASF817
	.long	0x7105
	.byte	0x1
	.long	0x5343
	.long	0x534e
	.uleb128 0x2
	.long	0x70ec
	.uleb128 0x1
	.long	0x52d2
	.byte	0
	.uleb128 0x7
	.long	.LASF818
	.byte	0x12
	.value	0x481
	.byte	0x7
	.long	.LASF819
	.long	0x5178
	.byte	0x1
	.long	0x5368
	.long	0x5373
	.uleb128 0x2
	.long	0x70fb
	.uleb128 0x1
	.long	0x52d2
	.byte	0
	.uleb128 0x7
	.long	.LASF820
	.byte	0x12
	.value	0x486
	.byte	0x7
	.long	.LASF821
	.long	0x70f6
	.byte	0x1
	.long	0x538d
	.long	0x5393
	.uleb128 0x2
	.long	0x70fb
	.byte	0
	.uleb128 0x19
	.long	.LASF527
	.byte	0x12
	.value	0x422
	.byte	0x39
	.long	0x3775
	.uleb128 0x4
	.long	.LASF537
	.long	0x69bb
	.uleb128 0x4
	.long	.LASF561
	.long	0x172c
	.byte	0
	.uleb128 0x9
	.long	0x5178
	.uleb128 0x3d
	.long	.LASF822
	.byte	0x8
	.byte	0x12
	.value	0x413
	.long	0x55e6
	.uleb128 0x4c
	.long	.LASF823
	.long	0x69d4
	.uleb128 0x13
	.long	.LASF798
	.byte	0x12
	.value	0x42c
	.byte	0x1a
	.long	.LASF824
	.byte	0x1
	.long	0x53e4
	.long	0x53ea
	.uleb128 0x2
	.long	0x7146
	.byte	0
	.uleb128 0x37
	.long	.LASF798
	.byte	0x12
	.value	0x430
	.long	.LASF825
	.long	0x53fe
	.long	0x5409
	.uleb128 0x2
	.long	0x7146
	.uleb128 0x1
	.long	0x7150
	.byte	0
	.uleb128 0x19
	.long	.LASF167
	.byte	0x12
	.value	0x425
	.byte	0x32
	.long	0x3899
	.uleb128 0x7
	.long	.LASF801
	.byte	0x12
	.value	0x447
	.byte	0x7
	.long	.LASF826
	.long	0x5409
	.byte	0x1
	.long	0x5430
	.long	0x5436
	.uleb128 0x2
	.long	0x7155
	.byte	0
	.uleb128 0x19
	.long	.LASF164
	.byte	0x12
	.value	0x426
	.byte	0x32
	.long	0x388d
	.uleb128 0x7
	.long	.LASF803
	.byte	0x12
	.value	0x44c
	.byte	0x7
	.long	.LASF827
	.long	0x5436
	.byte	0x1
	.long	0x545d
	.long	0x5463
	.uleb128 0x2
	.long	0x7155
	.byte	0
	.uleb128 0x7
	.long	.LASF805
	.byte	0x12
	.value	0x451
	.byte	0x7
	.long	.LASF828
	.long	0x715f
	.byte	0x1
	.long	0x547d
	.long	0x5483
	.uleb128 0x2
	.long	0x7146
	.byte	0
	.uleb128 0x7
	.long	.LASF805
	.byte	0x12
	.value	0x459
	.byte	0x7
	.long	.LASF829
	.long	0x53b8
	.byte	0x1
	.long	0x549d
	.long	0x54a8
	.uleb128 0x2
	.long	0x7146
	.uleb128 0x1
	.long	0x118
	.byte	0
	.uleb128 0x7
	.long	.LASF808
	.byte	0x12
	.value	0x45f
	.byte	0x7
	.long	.LASF830
	.long	0x715f
	.byte	0x1
	.long	0x54c2
	.long	0x54c8
	.uleb128 0x2
	.long	0x7146
	.byte	0
	.uleb128 0x7
	.long	.LASF808
	.byte	0x12
	.value	0x467
	.byte	0x7
	.long	.LASF831
	.long	0x53b8
	.byte	0x1
	.long	0x54e2
	.long	0x54ed
	.uleb128 0x2
	.long	0x7146
	.uleb128 0x1
	.long	0x118
	.byte	0
	.uleb128 0x7
	.long	.LASF312
	.byte	0x12
	.value	0x46d
	.byte	0x7
	.long	.LASF832
	.long	0x5409
	.byte	0x1
	.long	0x5507
	.long	0x5512
	.uleb128 0x2
	.long	0x7155
	.uleb128 0x1
	.long	0x5512
	.byte	0
	.uleb128 0x19
	.long	.LASF528
	.byte	0x12
	.value	0x424
	.byte	0x38
	.long	0x3881
	.uleb128 0x7
	.long	.LASF812
	.byte	0x12
	.value	0x472
	.byte	0x7
	.long	.LASF833
	.long	0x715f
	.byte	0x1
	.long	0x5539
	.long	0x5544
	.uleb128 0x2
	.long	0x7146
	.uleb128 0x1
	.long	0x5512
	.byte	0
	.uleb128 0x7
	.long	.LASF814
	.byte	0x12
	.value	0x477
	.byte	0x7
	.long	.LASF834
	.long	0x53b8
	.byte	0x1
	.long	0x555e
	.long	0x5569
	.uleb128 0x2
	.long	0x7155
	.uleb128 0x1
	.long	0x5512
	.byte	0
	.uleb128 0x7
	.long	.LASF816
	.byte	0x12
	.value	0x47c
	.byte	0x7
	.long	.LASF835
	.long	0x715f
	.byte	0x1
	.long	0x5583
	.long	0x558e
	.uleb128 0x2
	.long	0x7146
	.uleb128 0x1
	.long	0x5512
	.byte	0
	.uleb128 0x7
	.long	.LASF818
	.byte	0x12
	.value	0x481
	.byte	0x7
	.long	.LASF836
	.long	0x53b8
	.byte	0x1
	.long	0x55a8
	.long	0x55b3
	.uleb128 0x2
	.long	0x7155
	.uleb128 0x1
	.long	0x5512
	.byte	0
	.uleb128 0x7
	.long	.LASF820
	.byte	0x12
	.value	0x486
	.byte	0x7
	.long	.LASF837
	.long	0x7150
	.byte	0x1
	.long	0x55cd
	.long	0x55d3
	.uleb128 0x2
	.long	0x7155
	.byte	0
	.uleb128 0x4
	.long	.LASF537
	.long	0x69d4
	.uleb128 0x4
	.long	.LASF561
	.long	0x172c
	.byte	0
	.uleb128 0x9
	.long	0x53b8
	.uleb128 0x1e
	.long	.LASF838
	.byte	0x1
	.byte	0x15
	.byte	0x30
	.byte	0xa
	.long	0x56fa
	.uleb128 0x3
	.byte	0x15
	.byte	0x30
	.byte	0xa
	.long	0x26c6
	.uleb128 0x3
	.byte	0x15
	.byte	0x30
	.byte	0xa
	.long	0x2687
	.uleb128 0x3
	.byte	0x15
	.byte	0x30
	.byte	0xa
	.long	0x26f8
	.uleb128 0x3
	.byte	0x15
	.byte	0x30
	.byte	0xa
	.long	0x2719
	.uleb128 0x34
	.long	0x266e
	.uleb128 0x18
	.long	.LASF781
	.byte	0x15
	.byte	0x61
	.byte	0x1d
	.long	.LASF839
	.long	0x25e0
	.long	0x5637
	.uleb128 0x1
	.long	0x6fde
	.byte	0
	.uleb128 0x3a
	.long	.LASF783
	.byte	0x15
	.byte	0x64
	.byte	0x26
	.long	.LASF840
	.long	0x5652
	.uleb128 0x1
	.long	0x6fe3
	.uleb128 0x1
	.long	0x6fe3
	.byte	0
	.uleb128 0x33
	.long	.LASF785
	.byte	0x67
	.long	.LASF841
	.long	0x5c64
	.uleb128 0x33
	.long	.LASF787
	.byte	0x6a
	.long	.LASF842
	.long	0x5c64
	.uleb128 0x33
	.long	.LASF789
	.byte	0x6d
	.long	.LASF843
	.long	0x5c64
	.uleb128 0x33
	.long	.LASF791
	.byte	0x70
	.long	.LASF844
	.long	0x5c64
	.uleb128 0x33
	.long	.LASF793
	.byte	0x73
	.long	.LASF845
	.long	0x5c64
	.uleb128 0x8
	.long	.LASF56
	.byte	0x15
	.byte	0x38
	.byte	0x35
	.long	0x274f
	.uleb128 0x9
	.long	0x5698
	.uleb128 0x8
	.long	.LASF164
	.byte	0x15
	.byte	0x39
	.byte	0x35
	.long	0x267a
	.uleb128 0x8
	.long	.LASF167
	.byte	0x15
	.byte	0x3e
	.byte	0x35
	.long	0x6ff2
	.uleb128 0x8
	.long	.LASF170
	.byte	0x15
	.byte	0x3f
	.byte	0x35
	.long	0x6ff7
	.uleb128 0x1e
	.long	.LASF846
	.byte	0x1
	.byte	0x15
	.byte	0x77
	.byte	0xe
	.long	0x56f0
	.uleb128 0x8
	.long	.LASF796
	.byte	0x15
	.byte	0x78
	.byte	0x41
	.long	0x275c
	.uleb128 0x6
	.string	"_Tp"
	.long	0x3f
	.byte	0
	.uleb128 0x4
	.long	.LASF242
	.long	0x25e0
	.byte	0
	.uleb128 0x3d
	.long	.LASF847
	.byte	0x8
	.byte	0x12
	.value	0x413
	.long	0x5928
	.uleb128 0x4c
	.long	.LASF823
	.long	0x6fac
	.uleb128 0x13
	.long	.LASF798
	.byte	0x12
	.value	0x42c
	.byte	0x1a
	.long	.LASF848
	.byte	0x1
	.long	0x5726
	.long	0x572c
	.uleb128 0x2
	.long	0x7128
	.byte	0
	.uleb128 0x37
	.long	.LASF798
	.byte	0x12
	.value	0x430
	.long	.LASF849
	.long	0x5740
	.long	0x574b
	.uleb128 0x2
	.long	0x7128
	.uleb128 0x1
	.long	0x7132
	.byte	0
	.uleb128 0x19
	.long	.LASF167
	.byte	0x12
	.value	0x425
	.byte	0x32
	.long	0x3838
	.uleb128 0x7
	.long	.LASF801
	.byte	0x12
	.value	0x447
	.byte	0x7
	.long	.LASF850
	.long	0x574b
	.byte	0x1
	.long	0x5772
	.long	0x5778
	.uleb128 0x2
	.long	0x7137
	.byte	0
	.uleb128 0x19
	.long	.LASF164
	.byte	0x12
	.value	0x426
	.byte	0x32
	.long	0x382c
	.uleb128 0x7
	.long	.LASF803
	.byte	0x12
	.value	0x44c
	.byte	0x7
	.long	.LASF851
	.long	0x5778
	.byte	0x1
	.long	0x579f
	.long	0x57a5
	.uleb128 0x2
	.long	0x7137
	.byte	0
	.uleb128 0x7
	.long	.LASF805
	.byte	0x12
	.value	0x451
	.byte	0x7
	.long	.LASF852
	.long	0x7141
	.byte	0x1
	.long	0x57bf
	.long	0x57c5
	.uleb128 0x2
	.long	0x7128
	.byte	0
	.uleb128 0x7
	.long	.LASF805
	.byte	0x12
	.value	0x459
	.byte	0x7
	.long	.LASF853
	.long	0x56fa
	.byte	0x1
	.long	0x57df
	.long	0x57ea
	.uleb128 0x2
	.long	0x7128
	.uleb128 0x1
	.long	0x118
	.byte	0
	.uleb128 0x7
	.long	.LASF808
	.byte	0x12
	.value	0x45f
	.byte	0x7
	.long	.LASF854
	.long	0x7141
	.byte	0x1
	.long	0x5804
	.long	0x580a
	.uleb128 0x2
	.long	0x7128
	.byte	0
	.uleb128 0x7
	.long	.LASF808
	.byte	0x12
	.value	0x467
	.byte	0x7
	.long	.LASF855
	.long	0x56fa
	.byte	0x1
	.long	0x5824
	.long	0x582f
	.uleb128 0x2
	.long	0x7128
	.uleb128 0x1
	.long	0x118
	.byte	0
	.uleb128 0x7
	.long	.LASF312
	.byte	0x12
	.value	0x46d
	.byte	0x7
	.long	.LASF856
	.long	0x574b
	.byte	0x1
	.long	0x5849
	.long	0x5854
	.uleb128 0x2
	.long	0x7137
	.uleb128 0x1
	.long	0x5854
	.byte	0
	.uleb128 0x19
	.long	.LASF528
	.byte	0x12
	.value	0x424
	.byte	0x38
	.long	0x3820
	.uleb128 0x7
	.long	.LASF812
	.byte	0x12
	.value	0x472
	.byte	0x7
	.long	.LASF857
	.long	0x7141
	.byte	0x1
	.long	0x587b
	.long	0x5886
	.uleb128 0x2
	.long	0x7128
	.uleb128 0x1
	.long	0x5854
	.byte	0
	.uleb128 0x7
	.long	.LASF814
	.byte	0x12
	.value	0x477
	.byte	0x7
	.long	.LASF858
	.long	0x56fa
	.byte	0x1
	.long	0x58a0
	.long	0x58ab
	.uleb128 0x2
	.long	0x7137
	.uleb128 0x1
	.long	0x5854
	.byte	0
	.uleb128 0x7
	.long	.LASF816
	.byte	0x12
	.value	0x47c
	.byte	0x7
	.long	.LASF859
	.long	0x7141
	.byte	0x1
	.long	0x58c5
	.long	0x58d0
	.uleb128 0x2
	.long	0x7128
	.uleb128 0x1
	.long	0x5854
	.byte	0
	.uleb128 0x7
	.long	.LASF818
	.byte	0x12
	.value	0x481
	.byte	0x7
	.long	.LASF860
	.long	0x56fa
	.byte	0x1
	.long	0x58ea
	.long	0x58f5
	.uleb128 0x2
	.long	0x7137
	.uleb128 0x1
	.long	0x5854
	.byte	0
	.uleb128 0x7
	.long	.LASF820
	.byte	0x12
	.value	0x486
	.byte	0x7
	.long	.LASF861
	.long	0x7132
	.byte	0x1
	.long	0x590f
	.long	0x5915
	.uleb128 0x2
	.long	0x7137
	.byte	0
	.uleb128 0x4
	.long	.LASF537
	.long	0x6fac
	.uleb128 0x4
	.long	.LASF561
	.long	0x2b35
	.byte	0
	.uleb128 0x9
	.long	0x56fa
	.uleb128 0x3d
	.long	.LASF862
	.byte	0x8
	.byte	0x12
	.value	0x413
	.long	0x5b5b
	.uleb128 0x4c
	.long	.LASF823
	.long	0x6fc5
	.uleb128 0x13
	.long	.LASF798
	.byte	0x12
	.value	0x42c
	.byte	0x1a
	.long	.LASF863
	.byte	0x1
	.long	0x5959
	.long	0x595f
	.uleb128 0x2
	.long	0x710a
	.byte	0
	.uleb128 0x37
	.long	.LASF798
	.byte	0x12
	.value	0x430
	.long	.LASF864
	.long	0x5973
	.long	0x597e
	.uleb128 0x2
	.long	0x710a
	.uleb128 0x1
	.long	0x7114
	.byte	0
	.uleb128 0x19
	.long	.LASF167
	.byte	0x12
	.value	0x425
	.byte	0x32
	.long	0x37ee
	.uleb128 0x7
	.long	.LASF801
	.byte	0x12
	.value	0x447
	.byte	0x7
	.long	.LASF865
	.long	0x597e
	.byte	0x1
	.long	0x59a5
	.long	0x59ab
	.uleb128 0x2
	.long	0x7119
	.byte	0
	.uleb128 0x19
	.long	.LASF164
	.byte	0x12
	.value	0x426
	.byte	0x32
	.long	0x37e2
	.uleb128 0x7
	.long	.LASF803
	.byte	0x12
	.value	0x44c
	.byte	0x7
	.long	.LASF866
	.long	0x59ab
	.byte	0x1
	.long	0x59d2
	.long	0x59d8
	.uleb128 0x2
	.long	0x7119
	.byte	0
	.uleb128 0x7
	.long	.LASF805
	.byte	0x12
	.value	0x451
	.byte	0x7
	.long	.LASF867
	.long	0x7123
	.byte	0x1
	.long	0x59f2
	.long	0x59f8
	.uleb128 0x2
	.long	0x710a
	.byte	0
	.uleb128 0x7
	.long	.LASF805
	.byte	0x12
	.value	0x459
	.byte	0x7
	.long	.LASF868
	.long	0x592d
	.byte	0x1
	.long	0x5a12
	.long	0x5a1d
	.uleb128 0x2
	.long	0x710a
	.uleb128 0x1
	.long	0x118
	.byte	0
	.uleb128 0x7
	.long	.LASF808
	.byte	0x12
	.value	0x45f
	.byte	0x7
	.long	.LASF869
	.long	0x7123
	.byte	0x1
	.long	0x5a37
	.long	0x5a3d
	.uleb128 0x2
	.long	0x710a
	.byte	0
	.uleb128 0x7
	.long	.LASF808
	.byte	0x12
	.value	0x467
	.byte	0x7
	.long	.LASF870
	.long	0x592d
	.byte	0x1
	.long	0x5a57
	.long	0x5a62
	.uleb128 0x2
	.long	0x710a
	.uleb128 0x1
	.long	0x118
	.byte	0
	.uleb128 0x7
	.long	.LASF312
	.byte	0x12
	.value	0x46d
	.byte	0x7
	.long	.LASF871
	.long	0x597e
	.byte	0x1
	.long	0x5a7c
	.long	0x5a87
	.uleb128 0x2
	.long	0x7119
	.uleb128 0x1
	.long	0x5a87
	.byte	0
	.uleb128 0x19
	.long	.LASF528
	.byte	0x12
	.value	0x424
	.byte	0x38
	.long	0x37d6
	.uleb128 0x7
	.long	.LASF812
	.byte	0x12
	.value	0x472
	.byte	0x7
	.long	.LASF872
	.long	0x7123
	.byte	0x1
	.long	0x5aae
	.long	0x5ab9
	.uleb128 0x2
	.long	0x710a
	.uleb128 0x1
	.long	0x5a87
	.byte	0
	.uleb128 0x7
	.long	.LASF814
	.byte	0x12
	.value	0x477
	.byte	0x7
	.long	.LASF873
	.long	0x592d
	.byte	0x1
	.long	0x5ad3
	.long	0x5ade
	.uleb128 0x2
	.long	0x7119
	.uleb128 0x1
	.long	0x5a87
	.byte	0
	.uleb128 0x7
	.long	.LASF816
	.byte	0x12
	.value	0x47c
	.byte	0x7
	.long	.LASF874
	.long	0x7123
	.byte	0x1
	.long	0x5af8
	.long	0x5b03
	.uleb128 0x2
	.long	0x710a
	.uleb128 0x1
	.long	0x5a87
	.byte	0
	.uleb128 0x7
	.long	.LASF818
	.byte	0x12
	.value	0x481
	.byte	0x7
	.long	.LASF875
	.long	0x592d
	.byte	0x1
	.long	0x5b1d
	.long	0x5b28
	.uleb128 0x2
	.long	0x7119
	.uleb128 0x1
	.long	0x5a87
	.byte	0
	.uleb128 0x7
	.long	.LASF820
	.byte	0x12
	.value	0x486
	.byte	0x7
	.long	.LASF876
	.long	0x7114
	.byte	0x1
	.long	0x5b42
	.long	0x5b48
	.uleb128 0x2
	.long	0x7119
	.byte	0
	.uleb128 0x4
	.long	.LASF537
	.long	0x6fc5
	.uleb128 0x4
	.long	.LASF561
	.long	0x2b35
	.byte	0
	.uleb128 0x9
	.long	0x592d
	.uleb128 0xb
	.long	.LASF877
	.byte	0x12
	.value	0x532
	.byte	0x5
	.long	.LASF878
	.long	0x52d2
	.long	0x5b92
	.uleb128 0x4
	.long	.LASF537
	.long	0x69bb
	.uleb128 0x4
	.long	.LASF561
	.long	0x172c
	.uleb128 0x1
	.long	0x7b27
	.uleb128 0x1
	.long	0x7b27
	.byte	0
	.uleb128 0xb
	.long	.LASF879
	.byte	0x12
	.value	0x4c5
	.byte	0x5
	.long	.LASF880
	.long	0x5c64
	.long	0x5bc4
	.uleb128 0x4
	.long	.LASF537
	.long	0x69bb
	.uleb128 0x4
	.long	.LASF561
	.long	0x172c
	.uleb128 0x1
	.long	0x7b27
	.uleb128 0x1
	.long	0x7b27
	.byte	0
	.uleb128 0x69
	.long	.LASF881
	.byte	0x12
	.value	0x4d5
	.byte	0x5
	.long	.LASF882
	.long	0x5c64
	.uleb128 0x4
	.long	.LASF537
	.long	0x69bb
	.uleb128 0x4
	.long	.LASF561
	.long	0x172c
	.uleb128 0x1
	.long	0x7b27
	.uleb128 0x1
	.long	0x7b27
	.byte	0
	.byte	0
	.uleb128 0x11
	.long	.LASF883
	.byte	0x2e
	.value	0x181
	.byte	0x14
	.long	0x4b
	.long	0x5c0f
	.uleb128 0x1
	.long	0x4857
	.uleb128 0x1
	.long	0x4d23
	.byte	0
	.uleb128 0x11
	.long	.LASF884
	.byte	0x2e
	.value	0x1ba
	.byte	0x16
	.long	0x5c30
	.long	0x5c30
	.uleb128 0x1
	.long	0x4857
	.uleb128 0x1
	.long	0x4d23
	.uleb128 0x1
	.long	0x118
	.byte	0
	.uleb128 0x26
	.byte	0x8
	.byte	0x5
	.long	.LASF885
	.uleb128 0x11
	.long	.LASF886
	.byte	0x2e
	.value	0x1c1
	.byte	0x1f
	.long	0x5c58
	.long	0x5c58
	.uleb128 0x1
	.long	0x4857
	.uleb128 0x1
	.long	0x4d23
	.uleb128 0x1
	.long	0x118
	.byte	0
	.uleb128 0x26
	.byte	0x8
	.byte	0x7
	.long	.LASF887
	.uleb128 0x6a
	.long	.LASF1126
	.uleb128 0x26
	.byte	0x1
	.byte	0x2
	.long	.LASF888
	.uleb128 0x9
	.long	0x5c64
	.uleb128 0xc
	.long	0x5d4
	.uleb128 0xc
	.long	0x642
	.uleb128 0x9
	.long	0x5c75
	.uleb128 0x26
	.byte	0x1
	.byte	0x8
	.long	.LASF889
	.uleb128 0x26
	.byte	0x1
	.byte	0x6
	.long	.LASF890
	.uleb128 0x26
	.byte	0x2
	.byte	0x5
	.long	.LASF891
	.uleb128 0x26
	.byte	0x2
	.byte	0x10
	.long	.LASF892
	.uleb128 0x26
	.byte	0x4
	.byte	0x10
	.long	.LASF893
	.uleb128 0xc
	.long	0x66d
	.uleb128 0xc
	.long	0x833
	.uleb128 0xe
	.long	0x833
	.uleb128 0x27
	.long	0x66d
	.uleb128 0xe
	.long	0x66d
	.uleb128 0xc
	.long	0x871
	.uleb128 0xe
	.long	0x89e
	.uleb128 0xe
	.long	0x8ab
	.uleb128 0xc
	.long	0x8ab
	.uleb128 0xc
	.long	0x89e
	.uleb128 0xe
	.long	0x9e6
	.uleb128 0x8
	.long	.LASF894
	.byte	0x31
	.byte	0x25
	.byte	0x15
	.long	0x5c86
	.uleb128 0x8
	.long	.LASF895
	.byte	0x31
	.byte	0x26
	.byte	0x17
	.long	0x5c7f
	.uleb128 0x8
	.long	.LASF896
	.byte	0x31
	.byte	0x27
	.byte	0x1a
	.long	0x5c8d
	.uleb128 0x8
	.long	.LASF897
	.byte	0x31
	.byte	0x28
	.byte	0x1c
	.long	0x2e0
	.uleb128 0x8
	.long	.LASF898
	.byte	0x31
	.byte	0x29
	.byte	0x14
	.long	0x118
	.uleb128 0x9
	.long	0x5d09
	.uleb128 0x8
	.long	.LASF899
	.byte	0x31
	.byte	0x2a
	.byte	0x16
	.long	0x9f
	.uleb128 0x8
	.long	.LASF900
	.byte	0x31
	.byte	0x2c
	.byte	0x19
	.long	0x4d85
	.uleb128 0x8
	.long	.LASF901
	.byte	0x31
	.byte	0x2d
	.byte	0x1b
	.long	0x5e
	.uleb128 0x8
	.long	.LASF902
	.byte	0x31
	.byte	0x34
	.byte	0x12
	.long	0x5cd9
	.uleb128 0x8
	.long	.LASF903
	.byte	0x31
	.byte	0x35
	.byte	0x13
	.long	0x5ce5
	.uleb128 0x8
	.long	.LASF904
	.byte	0x31
	.byte	0x36
	.byte	0x13
	.long	0x5cf1
	.uleb128 0x8
	.long	.LASF905
	.byte	0x31
	.byte	0x37
	.byte	0x14
	.long	0x5cfd
	.uleb128 0x8
	.long	.LASF906
	.byte	0x31
	.byte	0x38
	.byte	0x13
	.long	0x5d09
	.uleb128 0x8
	.long	.LASF907
	.byte	0x31
	.byte	0x39
	.byte	0x14
	.long	0x5d1a
	.uleb128 0x8
	.long	.LASF908
	.byte	0x31
	.byte	0x3a
	.byte	0x13
	.long	0x5d26
	.uleb128 0x8
	.long	.LASF909
	.byte	0x31
	.byte	0x3b
	.byte	0x14
	.long	0x5d32
	.uleb128 0x8
	.long	.LASF910
	.byte	0x31
	.byte	0x48
	.byte	0x12
	.long	0x4d85
	.uleb128 0x8
	.long	.LASF911
	.byte	0x31
	.byte	0x49
	.byte	0x1b
	.long	0x5e
	.uleb128 0x8
	.long	.LASF912
	.byte	0x31
	.byte	0x98
	.byte	0x19
	.long	0x4d85
	.uleb128 0x8
	.long	.LASF913
	.byte	0x31
	.byte	0x99
	.byte	0x1b
	.long	0x4d85
	.uleb128 0x8
	.long	.LASF914
	.byte	0x31
	.byte	0xc2
	.byte	0x1b
	.long	0x4d85
	.uleb128 0x8
	.long	.LASF915
	.byte	0x32
	.byte	0x18
	.byte	0x12
	.long	0x5cd9
	.uleb128 0x8
	.long	.LASF916
	.byte	0x32
	.byte	0x19
	.byte	0x13
	.long	0x5cf1
	.uleb128 0x8
	.long	.LASF917
	.byte	0x32
	.byte	0x1a
	.byte	0x13
	.long	0x5d09
	.uleb128 0x8
	.long	.LASF918
	.byte	0x32
	.byte	0x1b
	.byte	0x13
	.long	0x5d26
	.uleb128 0x8
	.long	.LASF919
	.byte	0x33
	.byte	0x18
	.byte	0x13
	.long	0x5ce5
	.uleb128 0x8
	.long	.LASF920
	.byte	0x33
	.byte	0x19
	.byte	0x14
	.long	0x5cfd
	.uleb128 0x8
	.long	.LASF921
	.byte	0x33
	.byte	0x1a
	.byte	0x14
	.long	0x5d1a
	.uleb128 0x8
	.long	.LASF922
	.byte	0x33
	.byte	0x1b
	.byte	0x14
	.long	0x5d32
	.uleb128 0x8
	.long	.LASF923
	.byte	0x34
	.byte	0x2b
	.byte	0x18
	.long	0x5d3e
	.uleb128 0x8
	.long	.LASF924
	.byte	0x34
	.byte	0x2c
	.byte	0x19
	.long	0x5d56
	.uleb128 0x8
	.long	.LASF925
	.byte	0x34
	.byte	0x2d
	.byte	0x19
	.long	0x5d6e
	.uleb128 0x8
	.long	.LASF926
	.byte	0x34
	.byte	0x2e
	.byte	0x19
	.long	0x5d86
	.uleb128 0x8
	.long	.LASF927
	.byte	0x34
	.byte	0x31
	.byte	0x19
	.long	0x5d4a
	.uleb128 0x8
	.long	.LASF928
	.byte	0x34
	.byte	0x32
	.byte	0x1a
	.long	0x5d62
	.uleb128 0x8
	.long	.LASF929
	.byte	0x34
	.byte	0x33
	.byte	0x1a
	.long	0x5d7a
	.uleb128 0x8
	.long	.LASF930
	.byte	0x34
	.byte	0x34
	.byte	0x1a
	.long	0x5d92
	.uleb128 0x8
	.long	.LASF931
	.byte	0x34
	.byte	0x3a
	.byte	0x16
	.long	0x5c86
	.uleb128 0x8
	.long	.LASF932
	.byte	0x34
	.byte	0x3c
	.byte	0x13
	.long	0x4d85
	.uleb128 0x8
	.long	.LASF933
	.byte	0x34
	.byte	0x3d
	.byte	0x13
	.long	0x4d85
	.uleb128 0x8
	.long	.LASF934
	.byte	0x34
	.byte	0x3e
	.byte	0x13
	.long	0x4d85
	.uleb128 0x8
	.long	.LASF935
	.byte	0x34
	.byte	0x47
	.byte	0x18
	.long	0x5c7f
	.uleb128 0x8
	.long	.LASF936
	.byte	0x34
	.byte	0x49
	.byte	0x1b
	.long	0x5e
	.uleb128 0x8
	.long	.LASF937
	.byte	0x34
	.byte	0x4a
	.byte	0x1b
	.long	0x5e
	.uleb128 0x8
	.long	.LASF938
	.byte	0x34
	.byte	0x4b
	.byte	0x1b
	.long	0x5e
	.uleb128 0x8
	.long	.LASF939
	.byte	0x34
	.byte	0x57
	.byte	0x13
	.long	0x4d85
	.uleb128 0x8
	.long	.LASF940
	.byte	0x34
	.byte	0x5a
	.byte	0x1b
	.long	0x5e
	.uleb128 0x8
	.long	.LASF941
	.byte	0x34
	.byte	0x65
	.byte	0x15
	.long	0x5d9e
	.uleb128 0x8
	.long	.LASF942
	.byte	0x34
	.byte	0x66
	.byte	0x16
	.long	0x5daa
	.uleb128 0x1e
	.long	.LASF943
	.byte	0x60
	.byte	0x35
	.byte	0x33
	.byte	0x8
	.long	0x6070
	.uleb128 0xa
	.long	.LASF944
	.byte	0x35
	.byte	0x37
	.byte	0x9
	.long	0x4af2
	.byte	0
	.uleb128 0xa
	.long	.LASF945
	.byte	0x35
	.byte	0x38
	.byte	0x9
	.long	0x4af2
	.byte	0x8
	.uleb128 0xa
	.long	.LASF946
	.byte	0x35
	.byte	0x3e
	.byte	0x9
	.long	0x4af2
	.byte	0x10
	.uleb128 0xa
	.long	.LASF947
	.byte	0x35
	.byte	0x44
	.byte	0x9
	.long	0x4af2
	.byte	0x18
	.uleb128 0xa
	.long	.LASF948
	.byte	0x35
	.byte	0x45
	.byte	0x9
	.long	0x4af2
	.byte	0x20
	.uleb128 0xa
	.long	.LASF949
	.byte	0x35
	.byte	0x46
	.byte	0x9
	.long	0x4af2
	.byte	0x28
	.uleb128 0xa
	.long	.LASF950
	.byte	0x35
	.byte	0x47
	.byte	0x9
	.long	0x4af2
	.byte	0x30
	.uleb128 0xa
	.long	.LASF951
	.byte	0x35
	.byte	0x48
	.byte	0x9
	.long	0x4af2
	.byte	0x38
	.uleb128 0xa
	.long	.LASF952
	.byte	0x35
	.byte	0x49
	.byte	0x9
	.long	0x4af2
	.byte	0x40
	.uleb128 0xa
	.long	.LASF953
	.byte	0x35
	.byte	0x4a
	.byte	0x9
	.long	0x4af2
	.byte	0x48
	.uleb128 0xa
	.long	.LASF954
	.byte	0x35
	.byte	0x4b
	.byte	0x8
	.long	0x10c
	.byte	0x50
	.uleb128 0xa
	.long	.LASF955
	.byte	0x35
	.byte	0x4c
	.byte	0x8
	.long	0x10c
	.byte	0x51
	.uleb128 0xa
	.long	.LASF956
	.byte	0x35
	.byte	0x4e
	.byte	0x8
	.long	0x10c
	.byte	0x52
	.uleb128 0xa
	.long	.LASF957
	.byte	0x35
	.byte	0x50
	.byte	0x8
	.long	0x10c
	.byte	0x53
	.uleb128 0xa
	.long	.LASF958
	.byte	0x35
	.byte	0x52
	.byte	0x8
	.long	0x10c
	.byte	0x54
	.uleb128 0xa
	.long	.LASF959
	.byte	0x35
	.byte	0x54
	.byte	0x8
	.long	0x10c
	.byte	0x55
	.uleb128 0xa
	.long	.LASF960
	.byte	0x35
	.byte	0x5b
	.byte	0x8
	.long	0x10c
	.byte	0x56
	.uleb128 0xa
	.long	.LASF961
	.byte	0x35
	.byte	0x5c
	.byte	0x8
	.long	0x10c
	.byte	0x57
	.uleb128 0xa
	.long	.LASF962
	.byte	0x35
	.byte	0x5f
	.byte	0x8
	.long	0x10c
	.byte	0x58
	.uleb128 0xa
	.long	.LASF963
	.byte	0x35
	.byte	0x61
	.byte	0x8
	.long	0x10c
	.byte	0x59
	.uleb128 0xa
	.long	.LASF964
	.byte	0x35
	.byte	0x63
	.byte	0x8
	.long	0x10c
	.byte	0x5a
	.uleb128 0xa
	.long	.LASF965
	.byte	0x35
	.byte	0x65
	.byte	0x8
	.long	0x10c
	.byte	0x5b
	.uleb128 0xa
	.long	.LASF966
	.byte	0x35
	.byte	0x6c
	.byte	0x8
	.long	0x10c
	.byte	0x5c
	.uleb128 0xa
	.long	.LASF967
	.byte	0x35
	.byte	0x6d
	.byte	0x8
	.long	0x10c
	.byte	0x5d
	.byte	0
	.uleb128 0x1a
	.long	.LASF968
	.byte	0x35
	.byte	0x7a
	.byte	0xe
	.long	0x4af2
	.long	0x608b
	.uleb128 0x1
	.long	0x118
	.uleb128 0x1
	.long	0x2e7
	.byte	0
	.uleb128 0x6b
	.long	.LASF970
	.byte	0x35
	.byte	0x7d
	.byte	0x16
	.long	0x6097
	.uleb128 0xc
	.long	0x5f2a
	.uleb128 0x91
	.long	0x60a8
	.uleb128 0x1
	.long	0xa6
	.byte	0
	.uleb128 0xc
	.long	0x609c
	.uleb128 0xc
	.long	0x60b2
	.uleb128 0x92
	.uleb128 0x48
	.long	.LASF971
	.byte	0x25
	.byte	0x38
	.byte	0xb
	.long	0x60c9
	.uleb128 0x6c
	.byte	0x25
	.byte	0x3a
	.byte	0x18
	.long	0xbb6
	.byte	0
	.uleb128 0x47
	.byte	0x8
	.byte	0x36
	.byte	0x3c
	.byte	0x3
	.long	.LASF973
	.long	0x60f0
	.uleb128 0xa
	.long	.LASF974
	.byte	0x36
	.byte	0x3d
	.byte	0x9
	.long	0x118
	.byte	0
	.uleb128 0x56
	.string	"rem"
	.byte	0x3e
	.byte	0x9
	.long	0x118
	.byte	0x4
	.byte	0
	.uleb128 0x8
	.long	.LASF975
	.byte	0x36
	.byte	0x3f
	.byte	0x5
	.long	0x60c9
	.uleb128 0x47
	.byte	0x10
	.byte	0x36
	.byte	0x44
	.byte	0x3
	.long	.LASF976
	.long	0x6123
	.uleb128 0xa
	.long	.LASF974
	.byte	0x36
	.byte	0x45
	.byte	0xe
	.long	0x4d85
	.byte	0
	.uleb128 0x56
	.string	"rem"
	.byte	0x46
	.byte	0xe
	.long	0x4d85
	.byte	0x8
	.byte	0
	.uleb128 0x8
	.long	.LASF977
	.byte	0x36
	.byte	0x47
	.byte	0x5
	.long	0x60fc
	.uleb128 0x47
	.byte	0x10
	.byte	0x36
	.byte	0x4e
	.byte	0x3
	.long	.LASF978
	.long	0x6156
	.uleb128 0xa
	.long	.LASF974
	.byte	0x36
	.byte	0x4f
	.byte	0x13
	.long	0x5c30
	.byte	0
	.uleb128 0x56
	.string	"rem"
	.byte	0x50
	.byte	0x13
	.long	0x5c30
	.byte	0x8
	.byte	0
	.uleb128 0x8
	.long	.LASF979
	.byte	0x36
	.byte	0x51
	.byte	0x5
	.long	0x612f
	.uleb128 0x8
	.long	.LASF980
	.byte	0x37
	.byte	0x6c
	.byte	0x13
	.long	0x5dce
	.uleb128 0x1d
	.long	.LASF981
	.byte	0x36
	.value	0x330
	.byte	0xf
	.long	0x617b
	.uleb128 0xc
	.long	0x6180
	.uleb128 0x93
	.long	0x118
	.long	0x6195
	.uleb128 0x1
	.long	0x60ad
	.uleb128 0x1
	.long	0x60ad
	.byte	0
	.uleb128 0x11
	.long	.LASF982
	.byte	0x36
	.value	0x25a
	.byte	0xc
	.long	0x118
	.long	0x61ac
	.uleb128 0x1
	.long	0x61ac
	.byte	0
	.uleb128 0xc
	.long	0x61b1
	.uleb128 0x94
	.uleb128 0xb
	.long	.LASF983
	.byte	0x36
	.value	0x25f
	.byte	0x12
	.long	.LASF983
	.long	0x118
	.long	0x61ce
	.uleb128 0x1
	.long	0x61ac
	.byte	0
	.uleb128 0x1a
	.long	.LASF984
	.byte	0x36
	.byte	0x66
	.byte	0xf
	.long	0x3f
	.long	0x61e4
	.uleb128 0x1
	.long	0x2e7
	.byte	0
	.uleb128 0x1a
	.long	.LASF985
	.byte	0x36
	.byte	0x69
	.byte	0xc
	.long	0x118
	.long	0x61fa
	.uleb128 0x1
	.long	0x2e7
	.byte	0
	.uleb128 0x1a
	.long	.LASF986
	.byte	0x36
	.byte	0x6c
	.byte	0x11
	.long	0x4d85
	.long	0x6210
	.uleb128 0x1
	.long	0x2e7
	.byte	0
	.uleb128 0x11
	.long	.LASF987
	.byte	0x36
	.value	0x33c
	.byte	0xe
	.long	0xa6
	.long	0x623b
	.uleb128 0x1
	.long	0x60ad
	.uleb128 0x1
	.long	0x60ad
	.uleb128 0x1
	.long	0x52
	.uleb128 0x1
	.long	0x52
	.uleb128 0x1
	.long	0x616e
	.byte	0
	.uleb128 0x95
	.string	"div"
	.byte	0x36
	.value	0x35c
	.byte	0xe
	.long	0x60f0
	.long	0x6258
	.uleb128 0x1
	.long	0x118
	.uleb128 0x1
	.long	0x118
	.byte	0
	.uleb128 0x11
	.long	.LASF988
	.byte	0x36
	.value	0x281
	.byte	0xe
	.long	0x4af2
	.long	0x626f
	.uleb128 0x1
	.long	0x2e7
	.byte	0
	.uleb128 0x11
	.long	.LASF989
	.byte	0x36
	.value	0x35e
	.byte	0xf
	.long	0x6123
	.long	0x628b
	.uleb128 0x1
	.long	0x4d85
	.uleb128 0x1
	.long	0x4d85
	.byte	0
	.uleb128 0x11
	.long	.LASF990
	.byte	0x36
	.value	0x3a2
	.byte	0xc
	.long	0x118
	.long	0x62a7
	.uleb128 0x1
	.long	0x2e7
	.uleb128 0x1
	.long	0x52
	.byte	0
	.uleb128 0x11
	.long	.LASF991
	.byte	0x36
	.value	0x3ad
	.byte	0xf
	.long	0x52
	.long	0x62c8
	.uleb128 0x1
	.long	0x480e
	.uleb128 0x1
	.long	0x2e7
	.uleb128 0x1
	.long	0x52
	.byte	0
	.uleb128 0x11
	.long	.LASF992
	.byte	0x36
	.value	0x3a5
	.byte	0xc
	.long	0x118
	.long	0x62e9
	.uleb128 0x1
	.long	0x480e
	.uleb128 0x1
	.long	0x2e7
	.uleb128 0x1
	.long	0x52
	.byte	0
	.uleb128 0x3f
	.long	.LASF994
	.byte	0x36
	.value	0x346
	.long	0x630a
	.uleb128 0x1
	.long	0xa6
	.uleb128 0x1
	.long	0x52
	.uleb128 0x1
	.long	0x52
	.uleb128 0x1
	.long	0x616e
	.byte	0
	.uleb128 0x96
	.long	.LASF995
	.byte	0x36
	.value	0x276
	.byte	0xd
	.long	0x631e
	.uleb128 0x1
	.long	0x118
	.byte	0
	.uleb128 0x55
	.long	.LASF996
	.byte	0x36
	.value	0x1c6
	.byte	0xc
	.long	0x118
	.uleb128 0x3f
	.long	.LASF997
	.byte	0x36
	.value	0x1c8
	.long	0x633d
	.uleb128 0x1
	.long	0x9f
	.byte	0
	.uleb128 0x1a
	.long	.LASF998
	.byte	0x36
	.byte	0x76
	.byte	0xf
	.long	0x3f
	.long	0x6358
	.uleb128 0x1
	.long	0x2e7
	.uleb128 0x1
	.long	0x6358
	.byte	0
	.uleb128 0xc
	.long	0x4af2
	.uleb128 0x1a
	.long	.LASF999
	.byte	0x36
	.byte	0xb1
	.byte	0x11
	.long	0x4d85
	.long	0x637d
	.uleb128 0x1
	.long	0x2e7
	.uleb128 0x1
	.long	0x6358
	.uleb128 0x1
	.long	0x118
	.byte	0
	.uleb128 0x1a
	.long	.LASF1000
	.byte	0x36
	.byte	0xb5
	.byte	0x1a
	.long	0x5e
	.long	0x639d
	.uleb128 0x1
	.long	0x2e7
	.uleb128 0x1
	.long	0x6358
	.uleb128 0x1
	.long	0x118
	.byte	0
	.uleb128 0x11
	.long	.LASF1001
	.byte	0x36
	.value	0x317
	.byte	0xc
	.long	0x118
	.long	0x63b4
	.uleb128 0x1
	.long	0x2e7
	.byte	0
	.uleb128 0x11
	.long	.LASF1002
	.byte	0x36
	.value	0x3b1
	.byte	0xf
	.long	0x52
	.long	0x63d5
	.uleb128 0x1
	.long	0x4af2
	.uleb128 0x1
	.long	0x4857
	.uleb128 0x1
	.long	0x52
	.byte	0
	.uleb128 0x11
	.long	.LASF1003
	.byte	0x36
	.value	0x3a9
	.byte	0xc
	.long	0x118
	.long	0x63f1
	.uleb128 0x1
	.long	0x4af2
	.uleb128 0x1
	.long	0x4813
	.byte	0
	.uleb128 0x11
	.long	.LASF1004
	.byte	0x36
	.value	0x362
	.byte	0x1e
	.long	0x6156
	.long	0x640d
	.uleb128 0x1
	.long	0x5c30
	.uleb128 0x1
	.long	0x5c30
	.byte	0
	.uleb128 0x1a
	.long	.LASF1005
	.byte	0x36
	.byte	0x71
	.byte	0x24
	.long	0x5c30
	.long	0x6423
	.uleb128 0x1
	.long	0x2e7
	.byte	0
	.uleb128 0x1a
	.long	.LASF1006
	.byte	0x36
	.byte	0xc9
	.byte	0x16
	.long	0x5c30
	.long	0x6443
	.uleb128 0x1
	.long	0x2e7
	.uleb128 0x1
	.long	0x6358
	.uleb128 0x1
	.long	0x118
	.byte	0
	.uleb128 0x1a
	.long	.LASF1007
	.byte	0x36
	.byte	0xce
	.byte	0x1f
	.long	0x5c58
	.long	0x6463
	.uleb128 0x1
	.long	0x2e7
	.uleb128 0x1
	.long	0x6358
	.uleb128 0x1
	.long	0x118
	.byte	0
	.uleb128 0x1a
	.long	.LASF1008
	.byte	0x36
	.byte	0x7c
	.byte	0xe
	.long	0x38
	.long	0x647e
	.uleb128 0x1
	.long	0x2e7
	.uleb128 0x1
	.long	0x6358
	.byte	0
	.uleb128 0x1a
	.long	.LASF1009
	.byte	0x36
	.byte	0x7f
	.byte	0x14
	.long	0x4b
	.long	0x6499
	.uleb128 0x1
	.long	0x2e7
	.uleb128 0x1
	.long	0x6358
	.byte	0
	.uleb128 0x1e
	.long	.LASF1010
	.byte	0x10
	.byte	0x38
	.byte	0xa
	.byte	0x10
	.long	0x64c1
	.uleb128 0xa
	.long	.LASF1011
	.byte	0x38
	.byte	0xc
	.byte	0xb
	.long	0x5db6
	.byte	0
	.uleb128 0xa
	.long	.LASF1012
	.byte	0x38
	.byte	0xd
	.byte	0xf
	.long	0x124
	.byte	0x8
	.byte	0
	.uleb128 0x8
	.long	.LASF1013
	.byte	0x38
	.byte	0xe
	.byte	0x3
	.long	0x6499
	.uleb128 0x97
	.long	.LASF1257
	.byte	0x1d
	.byte	0x2b
	.byte	0xe
	.uleb128 0x57
	.long	.LASF1014
	.uleb128 0xc
	.long	0x64d6
	.uleb128 0xc
	.long	0x14d
	.uleb128 0x51
	.long	0x10c
	.long	0x64f5
	.uleb128 0x52
	.long	0x5e
	.byte	0
	.byte	0
	.uleb128 0xc
	.long	0x64cd
	.uleb128 0x57
	.long	.LASF1015
	.uleb128 0xc
	.long	0x64fa
	.uleb128 0x57
	.long	.LASF1016
	.uleb128 0xc
	.long	0x6504
	.uleb128 0x51
	.long	0x10c
	.long	0x651e
	.uleb128 0x52
	.long	0x5e
	.byte	0x13
	.byte	0
	.uleb128 0x8
	.long	.LASF1017
	.byte	0x39
	.byte	0x54
	.byte	0x12
	.long	0x64c1
	.uleb128 0x9
	.long	0x651e
	.uleb128 0xc
	.long	0x2d4
	.uleb128 0x3f
	.long	.LASF1018
	.byte	0x39
	.value	0x312
	.long	0x6546
	.uleb128 0x1
	.long	0x652f
	.byte	0
	.uleb128 0x1a
	.long	.LASF1019
	.byte	0x39
	.byte	0xb2
	.byte	0xc
	.long	0x118
	.long	0x655c
	.uleb128 0x1
	.long	0x652f
	.byte	0
	.uleb128 0x11
	.long	.LASF1020
	.byte	0x39
	.value	0x314
	.byte	0xc
	.long	0x118
	.long	0x6573
	.uleb128 0x1
	.long	0x652f
	.byte	0
	.uleb128 0x11
	.long	.LASF1021
	.byte	0x39
	.value	0x316
	.byte	0xc
	.long	0x118
	.long	0x658a
	.uleb128 0x1
	.long	0x652f
	.byte	0
	.uleb128 0x1a
	.long	.LASF1022
	.byte	0x39
	.byte	0xe6
	.byte	0xc
	.long	0x118
	.long	0x65a0
	.uleb128 0x1
	.long	0x652f
	.byte	0
	.uleb128 0x11
	.long	.LASF1023
	.byte	0x39
	.value	0x201
	.byte	0xc
	.long	0x118
	.long	0x65b7
	.uleb128 0x1
	.long	0x652f
	.byte	0
	.uleb128 0x11
	.long	.LASF1024
	.byte	0x39
	.value	0x2f8
	.byte	0xc
	.long	0x118
	.long	0x65d3
	.uleb128 0x1
	.long	0x652f
	.uleb128 0x1
	.long	0x65d3
	.byte	0
	.uleb128 0xc
	.long	0x651e
	.uleb128 0x11
	.long	.LASF1025
	.byte	0x39
	.value	0x250
	.byte	0xe
	.long	0x4af2
	.long	0x65f9
	.uleb128 0x1
	.long	0x4af2
	.uleb128 0x1
	.long	0x118
	.uleb128 0x1
	.long	0x652f
	.byte	0
	.uleb128 0x11
	.long	.LASF1026
	.byte	0x39
	.value	0x102
	.byte	0xe
	.long	0x652f
	.long	0x6615
	.uleb128 0x1
	.long	0x2e7
	.uleb128 0x1
	.long	0x2e7
	.byte	0
	.uleb128 0x11
	.long	.LASF1027
	.byte	0x39
	.value	0x2a3
	.byte	0xf
	.long	0x52
	.long	0x663b
	.uleb128 0x1
	.long	0xa6
	.uleb128 0x1
	.long	0x52
	.uleb128 0x1
	.long	0x52
	.uleb128 0x1
	.long	0x652f
	.byte	0
	.uleb128 0x11
	.long	.LASF1028
	.byte	0x39
	.value	0x109
	.byte	0xe
	.long	0x652f
	.long	0x665c
	.uleb128 0x1
	.long	0x2e7
	.uleb128 0x1
	.long	0x2e7
	.uleb128 0x1
	.long	0x652f
	.byte	0
	.uleb128 0x11
	.long	.LASF1029
	.byte	0x39
	.value	0x2c9
	.byte	0xc
	.long	0x118
	.long	0x667d
	.uleb128 0x1
	.long	0x652f
	.uleb128 0x1
	.long	0x4d85
	.uleb128 0x1
	.long	0x118
	.byte	0
	.uleb128 0x11
	.long	.LASF1030
	.byte	0x39
	.value	0x2fd
	.byte	0xc
	.long	0x118
	.long	0x6699
	.uleb128 0x1
	.long	0x652f
	.uleb128 0x1
	.long	0x6699
	.byte	0
	.uleb128 0xc
	.long	0x652a
	.uleb128 0x11
	.long	.LASF1031
	.byte	0x39
	.value	0x2ce
	.byte	0x11
	.long	0x4d85
	.long	0x66b5
	.uleb128 0x1
	.long	0x652f
	.byte	0
	.uleb128 0x11
	.long	.LASF1032
	.byte	0x39
	.value	0x202
	.byte	0xc
	.long	0x118
	.long	0x66cc
	.uleb128 0x1
	.long	0x652f
	.byte	0
	.uleb128 0x55
	.long	.LASF1033
	.byte	0x39
	.value	0x208
	.byte	0xc
	.long	0x118
	.uleb128 0x3f
	.long	.LASF1034
	.byte	0x39
	.value	0x324
	.long	0x66eb
	.uleb128 0x1
	.long	0x2e7
	.byte	0
	.uleb128 0x1a
	.long	.LASF1035
	.byte	0x39
	.byte	0x98
	.byte	0xc
	.long	0x118
	.long	0x6701
	.uleb128 0x1
	.long	0x2e7
	.byte	0
	.uleb128 0x1a
	.long	.LASF1036
	.byte	0x39
	.byte	0x9a
	.byte	0xc
	.long	0x118
	.long	0x671c
	.uleb128 0x1
	.long	0x2e7
	.uleb128 0x1
	.long	0x2e7
	.byte	0
	.uleb128 0x3f
	.long	.LASF1037
	.byte	0x39
	.value	0x2d3
	.long	0x672e
	.uleb128 0x1
	.long	0x652f
	.byte	0
	.uleb128 0x3f
	.long	.LASF1038
	.byte	0x39
	.value	0x148
	.long	0x6745
	.uleb128 0x1
	.long	0x652f
	.uleb128 0x1
	.long	0x4af2
	.byte	0
	.uleb128 0x11
	.long	.LASF1039
	.byte	0x39
	.value	0x14c
	.byte	0xc
	.long	0x118
	.long	0x676b
	.uleb128 0x1
	.long	0x652f
	.uleb128 0x1
	.long	0x4af2
	.uleb128 0x1
	.long	0x118
	.uleb128 0x1
	.long	0x52
	.byte	0
	.uleb128 0x6b
	.long	.LASF1040
	.byte	0x39
	.byte	0xbc
	.byte	0xe
	.long	0x652f
	.uleb128 0x1a
	.long	.LASF1041
	.byte	0x39
	.byte	0xcd
	.byte	0xe
	.long	0x4af2
	.long	0x678d
	.uleb128 0x1
	.long	0x4af2
	.byte	0
	.uleb128 0x11
	.long	.LASF1042
	.byte	0x39
	.value	0x29c
	.byte	0xc
	.long	0x118
	.long	0x67a9
	.uleb128 0x1
	.long	0x118
	.uleb128 0x1
	.long	0x652f
	.byte	0
	.uleb128 0xc
	.long	0xe4a
	.uleb128 0x9
	.long	0x67a9
	.uleb128 0xe
	.long	0xed4
	.uleb128 0xe
	.long	0xe4a
	.uleb128 0x8
	.long	.LASF1043
	.byte	0x3a
	.byte	0x26
	.byte	0x1b
	.long	0x5e
	.uleb128 0x8
	.long	.LASF1044
	.byte	0x3b
	.byte	0x30
	.byte	0x1a
	.long	0x67d5
	.uleb128 0xc
	.long	0x5d15
	.uleb128 0x1a
	.long	.LASF1045
	.byte	0x3a
	.byte	0x9f
	.byte	0xc
	.long	0x118
	.long	0x67f5
	.uleb128 0x1
	.long	0xa8
	.uleb128 0x1
	.long	0x67bd
	.byte	0
	.uleb128 0x1a
	.long	.LASF1046
	.byte	0x3b
	.byte	0x37
	.byte	0xf
	.long	0xa8
	.long	0x6810
	.uleb128 0x1
	.long	0xa8
	.uleb128 0x1
	.long	0x67c9
	.byte	0
	.uleb128 0x1a
	.long	.LASF1047
	.byte	0x3b
	.byte	0x34
	.byte	0x12
	.long	0x67c9
	.long	0x6826
	.uleb128 0x1
	.long	0x2e7
	.byte	0
	.uleb128 0x1a
	.long	.LASF1048
	.byte	0x3a
	.byte	0x9b
	.byte	0x11
	.long	0x67bd
	.long	0x683c
	.uleb128 0x1
	.long	0x2e7
	.byte	0
	.uleb128 0xe
	.long	0xf12
	.uleb128 0x98
	.long	0xf7b
	.uleb128 0x9
	.byte	0x3
	.quad	_ZStL8__ioinit
	.uleb128 0x48
	.long	.LASF1049
	.byte	0x3c
	.byte	0xf
	.byte	0xb
	.long	0x6998
	.uleb128 0x6d
	.long	.LASF1122
	.byte	0x3c
	.byte	0x11
	.byte	0xb
	.uleb128 0x99
	.string	"v1"
	.byte	0x3c
	.byte	0x13
	.byte	0x12
	.uleb128 0x2f
	.long	.LASF1050
	.byte	0x1
	.byte	0x3c
	.byte	0x17
	.byte	0x7
	.long	0x68a5
	.uleb128 0x30
	.long	.LASF1051
	.byte	0x1c
	.long	.LASF1053
	.long	0x647
	.uleb128 0x30
	.long	.LASF1052
	.byte	0x21
	.long	.LASF1054
	.long	0x647
	.uleb128 0x30
	.long	.LASF1055
	.byte	0x26
	.long	.LASF1056
	.long	0x647
	.byte	0
	.uleb128 0x9
	.long	0x686d
	.uleb128 0x2f
	.long	.LASF1057
	.byte	0x1
	.byte	0x3c
	.byte	0x2d
	.byte	0x7
	.long	0x68e2
	.uleb128 0x30
	.long	.LASF1051
	.byte	0x32
	.long	.LASF1058
	.long	0x647
	.uleb128 0x30
	.long	.LASF1052
	.byte	0x37
	.long	.LASF1059
	.long	0x647
	.uleb128 0x30
	.long	.LASF1055
	.byte	0x3c
	.long	.LASF1060
	.long	0xb67
	.byte	0
	.uleb128 0x9
	.long	0x68aa
	.uleb128 0x2f
	.long	.LASF1061
	.byte	0x1
	.byte	0x3c
	.byte	0x43
	.byte	0x7
	.long	0x691f
	.uleb128 0x30
	.long	.LASF1051
	.byte	0x48
	.long	.LASF1062
	.long	0xb67
	.uleb128 0x30
	.long	.LASF1052
	.byte	0x4d
	.long	.LASF1063
	.long	0xb67
	.uleb128 0x30
	.long	.LASF1055
	.byte	0x52
	.long	.LASF1064
	.long	0xb67
	.byte	0
	.uleb128 0x9
	.long	0x68e7
	.uleb128 0x2f
	.long	.LASF1065
	.byte	0x1
	.byte	0x3c
	.byte	0x58
	.byte	0x7
	.long	0x695c
	.uleb128 0x30
	.long	.LASF1051
	.byte	0x5d
	.long	.LASF1066
	.long	0xb67
	.uleb128 0x30
	.long	.LASF1052
	.byte	0x62
	.long	.LASF1067
	.long	0xb67
	.uleb128 0x30
	.long	.LASF1055
	.byte	0x67
	.long	.LASF1068
	.long	0x647
	.byte	0
	.uleb128 0x9
	.long	0x6924
	.uleb128 0x6e
	.string	"seq"
	.byte	0x6e
	.byte	0x1c
	.long	0x68a5
	.byte	0x1
	.byte	0
	.uleb128 0x6e
	.string	"par"
	.byte	0x6f
	.byte	0x1b
	.long	0x68e2
	.byte	0x1
	.byte	0
	.uleb128 0x6f
	.long	.LASF1070
	.byte	0x70
	.byte	0x27
	.long	0x691f
	.byte	0x1
	.byte	0
	.uleb128 0x6f
	.long	.LASF1071
	.byte	0x71
	.byte	0x1e
	.long	0x695c
	.byte	0x1
	.byte	0
	.byte	0
	.byte	0
	.byte	0
	.uleb128 0x4d
	.long	0x6961
	.uleb128 0x4d
	.long	0x696e
	.uleb128 0x4d
	.long	0x697b
	.uleb128 0x4d
	.long	0x6988
	.uleb128 0xc
	.long	0x1055
	.uleb128 0x9
	.long	0x69ac
	.uleb128 0xe
	.long	0x11d2
	.uleb128 0xc
	.long	0x4d85
	.uleb128 0x9
	.long	0x69bb
	.uleb128 0xc
	.long	0x11d2
	.uleb128 0x9
	.long	0x69c5
	.uleb128 0xe
	.long	0x4d85
	.uleb128 0xc
	.long	0x4d8c
	.uleb128 0x9
	.long	0x69d4
	.uleb128 0xe
	.long	0x4d8c
	.uleb128 0xc
	.long	0x11d7
	.uleb128 0x9
	.long	0x69e3
	.uleb128 0xe
	.long	0x1260
	.uleb128 0xe
	.long	0x11d7
	.uleb128 0xe
	.long	0x129e
	.uleb128 0xe
	.long	0x12ab
	.uleb128 0xe
	.long	0x5116
	.uleb128 0xe
	.long	0x5122
	.uleb128 0xc
	.long	0x136e
	.uleb128 0x9
	.long	0x6a0b
	.uleb128 0x27
	.long	0x136e
	.uleb128 0xe
	.long	0x1414
	.uleb128 0xe
	.long	0x136e
	.uleb128 0xc
	.long	0x1425
	.uleb128 0x9
	.long	0x6a24
	.uleb128 0xe
	.long	0x14fc
	.uleb128 0x27
	.long	0x1425
	.uleb128 0x27
	.long	0x14f0
	.uleb128 0xe
	.long	0x14f0
	.uleb128 0xc
	.long	0x1361
	.uleb128 0x9
	.long	0x6a42
	.uleb128 0xc
	.long	0x1704
	.uleb128 0x9
	.long	0x6a4c
	.uleb128 0xe
	.long	0x1548
	.uleb128 0x27
	.long	0x1361
	.uleb128 0xe
	.long	0x17f4
	.uleb128 0xc
	.long	0x172c
	.uleb128 0x9
	.long	0x6a65
	.uleb128 0xe
	.long	0x18a5
	.uleb128 0xe
	.long	0x1918
	.uleb128 0xe
	.long	0x234b
	.uleb128 0x27
	.long	0x172c
	.uleb128 0xe
	.long	0x235c
	.uleb128 0xe
	.long	0x172c
	.uleb128 0xc
	.long	0x234b
	.uleb128 0x9
	.long	0x6a8d
	.uleb128 0x27
	.long	0x190b
	.uleb128 0xe
	.long	0x1801
	.uleb128 0x48
	.long	.LASF1072
	.byte	0x4
	.byte	0x6
	.byte	0xb
	.long	0x6f95
	.uleb128 0x2f
	.long	.LASF1073
	.byte	0x30
	.byte	0x5
	.byte	0x11
	.byte	0xb
	.long	0x6d1a
	.uleb128 0x20
	.long	.LASF1074
	.byte	0x5
	.byte	0x1a
	.byte	0x9
	.long	.LASF1075
	.long	0x6ace
	.long	0x6ad4
	.uleb128 0x2
	.long	0x7092
	.byte	0
	.uleb128 0x40
	.long	.LASF1074
	.byte	0x28
	.long	.LASF1076
	.long	0x6ae6
	.long	0x6af1
	.uleb128 0x2
	.long	0x7092
	.uleb128 0x1
	.long	0x709c
	.byte	0
	.uleb128 0x40
	.long	.LASF1074
	.byte	0x30
	.long	.LASF1077
	.long	0x6b03
	.long	0x6b0e
	.uleb128 0x2
	.long	0x7092
	.uleb128 0x1
	.long	0x70a1
	.byte	0
	.uleb128 0x3c
	.long	.LASF82
	.byte	0x5
	.byte	0x38
	.byte	0x11
	.long	.LASF1078
	.long	0x70a6
	.long	0x6b26
	.long	0x6b31
	.uleb128 0x2
	.long	0x7092
	.uleb128 0x1
	.long	0x709c
	.byte	0
	.uleb128 0x3c
	.long	.LASF82
	.byte	0x5
	.byte	0x40
	.byte	0x11
	.long	.LASF1079
	.long	0x70a6
	.long	0x6b49
	.long	0x6b54
	.uleb128 0x2
	.long	0x7092
	.uleb128 0x1
	.long	0x70a1
	.byte	0
	.uleb128 0x40
	.long	.LASF1080
	.byte	0x48
	.long	.LASF1081
	.long	0x6b66
	.long	0x6b71
	.uleb128 0x2
	.long	0x7092
	.uleb128 0x2
	.long	0x118
	.byte	0
	.uleb128 0x1b
	.long	.LASF1082
	.byte	0x5
	.byte	0x4a
	.byte	0x13
	.long	.LASF1083
	.long	0x6d1f
	.byte	0x1
	.long	0x6b8a
	.long	0x6b90
	.uleb128 0x2
	.long	0x70ab
	.byte	0
	.uleb128 0x1b
	.long	.LASF298
	.byte	0x5
	.byte	0x4f
	.byte	0x13
	.long	.LASF1084
	.long	0x6d1f
	.byte	0x1
	.long	0x6ba9
	.long	0x6baf
	.uleb128 0x2
	.long	0x70ab
	.byte	0
	.uleb128 0x1b
	.long	.LASF1085
	.byte	0x5
	.byte	0x54
	.byte	0x20
	.long	.LASF1086
	.long	0x172c
	.byte	0x1
	.long	0x6bc8
	.long	0x6bce
	.uleb128 0x2
	.long	0x70ab
	.byte	0
	.uleb128 0x1b
	.long	.LASF1085
	.byte	0x5
	.byte	0x59
	.byte	0x13
	.long	.LASF1087
	.long	0x6d1f
	.byte	0x1
	.long	0x6be7
	.long	0x6bf2
	.uleb128 0x2
	.long	0x70ab
	.uleb128 0x1
	.long	0x6d1f
	.byte	0
	.uleb128 0x1b
	.long	.LASF276
	.byte	0x5
	.byte	0x5e
	.byte	0xe
	.long	.LASF1088
	.long	0x70b5
	.byte	0x1
	.long	0x6c0b
	.long	0x6c11
	.uleb128 0x2
	.long	0x70ab
	.byte	0
	.uleb128 0x54
	.string	"end"
	.byte	0x5
	.byte	0x63
	.byte	0xe
	.long	.LASF1090
	.long	0x70b5
	.long	0x6c29
	.long	0x6c2f
	.uleb128 0x2
	.long	0x70ab
	.byte	0
	.uleb128 0xa
	.long	.LASF1091
	.byte	0x5
	.byte	0x81
	.byte	0x20
	.long	0x2b35
	.byte	0
	.uleb128 0xa
	.long	.LASF1092
	.byte	0x5
	.byte	0x82
	.byte	0x20
	.long	0x172c
	.byte	0x18
	.uleb128 0x24
	.long	.LASF1093
	.byte	0x5
	.byte	0x84
	.byte	0xe
	.long	.LASF1094
	.long	0x6c5d
	.long	0x6c63
	.uleb128 0x2
	.long	0x7092
	.byte	0
	.uleb128 0x24
	.long	.LASF1095
	.byte	0x5
	.byte	0x9d
	.byte	0xe
	.long	.LASF1096
	.long	0x6c7e
	.long	0x6c89
	.uleb128 0x41
	.long	.LASF1099
	.byte	0x9c
	.byte	0x20
	.uleb128 0x2
	.long	0x7092
	.uleb128 0x1
	.long	0x70c9
	.byte	0
	.uleb128 0x20
	.long	.LASF1097
	.byte	0x5
	.byte	0x33
	.byte	0x9
	.long	.LASF1098
	.long	0x6ca4
	.long	0x6caf
	.uleb128 0x41
	.long	.LASF1099
	.byte	0x32
	.byte	0x20
	.uleb128 0x2
	.long	0x7092
	.uleb128 0x1
	.long	0x70c9
	.byte	0
	.uleb128 0x1b
	.long	.LASF1100
	.byte	0x5
	.byte	0x69
	.byte	0x14
	.long	.LASF1101
	.long	0x6fc0
	.byte	0x1
	.long	0x6cdf
	.long	0x6cf4
	.uleb128 0x70
	.string	"T"
	.long	0x6cdf
	.uleb128 0x42
	.long	0x118
	.uleb128 0x42
	.long	0x118
	.uleb128 0x42
	.long	0x118
	.byte	0
	.uleb128 0x2
	.long	0x7092
	.uleb128 0x1
	.long	0x118
	.uleb128 0x1
	.long	0x118
	.uleb128 0x1
	.long	0x118
	.byte	0
	.uleb128 0x4
	.long	.LASF1102
	.long	0x3f
	.uleb128 0x9a
	.long	.LASF1121
	.byte	0x5
	.byte	0x10
	.byte	0x30
	.uleb128 0x2b
	.long	0x4d85
	.byte	0x2
	.uleb128 0x2b
	.long	0x4d85
	.byte	0x3
	.uleb128 0x2b
	.long	0x4d85
	.byte	0x5
	.byte	0
	.byte	0
	.uleb128 0x9
	.long	0x6aad
	.uleb128 0x8
	.long	.LASF173
	.byte	0x4
	.byte	0xb
	.byte	0x15
	.long	0x6162
	.uleb128 0x2f
	.long	.LASF1103
	.byte	0x30
	.byte	0x5
	.byte	0x11
	.byte	0xb
	.long	0x6f6a
	.uleb128 0x20
	.long	.LASF1074
	.byte	0x5
	.byte	0x1a
	.byte	0x9
	.long	.LASF1104
	.long	0x6d4c
	.long	0x6d52
	.uleb128 0x2
	.long	0x70ba
	.byte	0
	.uleb128 0x40
	.long	.LASF1074
	.byte	0x28
	.long	.LASF1105
	.long	0x6d64
	.long	0x6d6f
	.uleb128 0x2
	.long	0x70ba
	.uleb128 0x1
	.long	0x70c4
	.byte	0
	.uleb128 0x40
	.long	.LASF1074
	.byte	0x30
	.long	.LASF1106
	.long	0x6d81
	.long	0x6d8c
	.uleb128 0x2
	.long	0x70ba
	.uleb128 0x1
	.long	0x70c9
	.byte	0
	.uleb128 0x3c
	.long	.LASF82
	.byte	0x5
	.byte	0x38
	.byte	0x11
	.long	.LASF1107
	.long	0x70ce
	.long	0x6da4
	.long	0x6daf
	.uleb128 0x2
	.long	0x70ba
	.uleb128 0x1
	.long	0x70c4
	.byte	0
	.uleb128 0x3c
	.long	.LASF82
	.byte	0x5
	.byte	0x40
	.byte	0x11
	.long	.LASF1108
	.long	0x70ce
	.long	0x6dc7
	.long	0x6dd2
	.uleb128 0x2
	.long	0x70ba
	.uleb128 0x1
	.long	0x70c9
	.byte	0
	.uleb128 0x40
	.long	.LASF1080
	.byte	0x48
	.long	.LASF1109
	.long	0x6de4
	.long	0x6def
	.uleb128 0x2
	.long	0x70ba
	.uleb128 0x2
	.long	0x118
	.byte	0
	.uleb128 0x1b
	.long	.LASF1082
	.byte	0x5
	.byte	0x4a
	.byte	0x13
	.long	.LASF1110
	.long	0x6d1f
	.byte	0x1
	.long	0x6e08
	.long	0x6e0e
	.uleb128 0x2
	.long	0x70d3
	.byte	0
	.uleb128 0x1b
	.long	.LASF298
	.byte	0x5
	.byte	0x4f
	.byte	0x13
	.long	.LASF1111
	.long	0x6d1f
	.byte	0x1
	.long	0x6e27
	.long	0x6e2d
	.uleb128 0x2
	.long	0x70d3
	.byte	0
	.uleb128 0x1b
	.long	.LASF1085
	.byte	0x5
	.byte	0x54
	.byte	0x20
	.long	.LASF1112
	.long	0x172c
	.byte	0x1
	.long	0x6e46
	.long	0x6e4c
	.uleb128 0x2
	.long	0x70d3
	.byte	0
	.uleb128 0x1b
	.long	.LASF1085
	.byte	0x5
	.byte	0x59
	.byte	0x13
	.long	.LASF1113
	.long	0x6d1f
	.byte	0x1
	.long	0x6e65
	.long	0x6e70
	.uleb128 0x2
	.long	0x70d3
	.uleb128 0x1
	.long	0x6d1f
	.byte	0
	.uleb128 0x1b
	.long	.LASF276
	.byte	0x5
	.byte	0x5e
	.byte	0xe
	.long	.LASF1114
	.long	0x70b5
	.byte	0x1
	.long	0x6e89
	.long	0x6e8f
	.uleb128 0x2
	.long	0x70d3
	.byte	0
	.uleb128 0x54
	.string	"end"
	.byte	0x5
	.byte	0x63
	.byte	0xe
	.long	.LASF1115
	.long	0x70b5
	.long	0x6ea7
	.long	0x6ead
	.uleb128 0x2
	.long	0x70d3
	.byte	0
	.uleb128 0xa
	.long	.LASF1091
	.byte	0x5
	.byte	0x81
	.byte	0x20
	.long	0x2b35
	.byte	0
	.uleb128 0xa
	.long	.LASF1092
	.byte	0x5
	.byte	0x82
	.byte	0x20
	.long	0x172c
	.byte	0x18
	.uleb128 0x24
	.long	.LASF1093
	.byte	0x5
	.byte	0x84
	.byte	0xe
	.long	.LASF1116
	.long	0x6edb
	.long	0x6ee1
	.uleb128 0x2
	.long	0x70ba
	.byte	0
	.uleb128 0x24
	.long	.LASF1117
	.byte	0x5
	.byte	0x8f
	.byte	0xe
	.long	.LASF1118
	.long	0x6f12
	.long	0x6f1d
	.uleb128 0x44
	.long	.LASF1099
	.byte	0x8e
	.long	0x6f12
	.uleb128 0x2b
	.long	0x4d85
	.byte	0x2
	.uleb128 0x2b
	.long	0x4d85
	.byte	0x3
	.uleb128 0x2b
	.long	0x4d85
	.byte	0x5
	.byte	0
	.uleb128 0x2
	.long	0x70ba
	.uleb128 0x1
	.long	0x709c
	.byte	0
	.uleb128 0x20
	.long	.LASF1119
	.byte	0x5
	.byte	0x2b
	.byte	0x9
	.long	.LASF1120
	.long	0x6f4e
	.long	0x6f59
	.uleb128 0x44
	.long	.LASF1099
	.byte	0x2a
	.long	0x6f4e
	.uleb128 0x2b
	.long	0x4d85
	.byte	0x2
	.uleb128 0x2b
	.long	0x4d85
	.byte	0x3
	.uleb128 0x2b
	.long	0x4d85
	.byte	0x5
	.byte	0
	.uleb128 0x2
	.long	0x70ba
	.uleb128 0x1
	.long	0x709c
	.byte	0
	.uleb128 0x4
	.long	.LASF1102
	.long	0x3f
	.uleb128 0x41
	.long	.LASF1121
	.byte	0x10
	.byte	0x30
	.byte	0
	.uleb128 0x9
	.long	0x6d2b
	.uleb128 0x6d
	.long	.LASF1123
	.byte	0x4
	.byte	0xd
	.byte	0xf
	.uleb128 0x9b
	.long	.LASF1124
	.byte	0x4
	.byte	0x18
	.byte	0x13
	.long	.LASF1125
	.long	0x6d1f
	.uleb128 0x1
	.long	0x6d1f
	.uleb128 0x1
	.long	0x6d1f
	.byte	0
	.byte	0
	.byte	0
	.uleb128 0x6c
	.byte	0x6
	.byte	0x6
	.byte	0x11
	.long	0x6aa1
	.uleb128 0xc
	.long	0x245e
	.uleb128 0x9
	.long	0x6f9d
	.uleb128 0xe
	.long	0x25db
	.uleb128 0xc
	.long	0x3f
	.uleb128 0x9
	.long	0x6fac
	.uleb128 0xc
	.long	0x25db
	.uleb128 0x9
	.long	0x6fb6
	.uleb128 0xe
	.long	0x3f
	.uleb128 0xc
	.long	0x46
	.uleb128 0x9
	.long	0x6fc5
	.uleb128 0xe
	.long	0x46
	.uleb128 0xc
	.long	0x25e0
	.uleb128 0x9
	.long	0x6fd4
	.uleb128 0xe
	.long	0x2669
	.uleb128 0xe
	.long	0x25e0
	.uleb128 0xe
	.long	0x26a7
	.uleb128 0xe
	.long	0x26b4
	.uleb128 0xe
	.long	0x5698
	.uleb128 0xe
	.long	0x56a4
	.uleb128 0xc
	.long	0x2777
	.uleb128 0x9
	.long	0x6ffc
	.uleb128 0x27
	.long	0x2777
	.uleb128 0xe
	.long	0x281d
	.uleb128 0xe
	.long	0x2777
	.uleb128 0xc
	.long	0x282e
	.uleb128 0x9
	.long	0x7015
	.uleb128 0xe
	.long	0x2905
	.uleb128 0x27
	.long	0x282e
	.uleb128 0x27
	.long	0x28f9
	.uleb128 0xe
	.long	0x28f9
	.uleb128 0xc
	.long	0x276a
	.uleb128 0x9
	.long	0x7033
	.uleb128 0xc
	.long	0x2b0d
	.uleb128 0x9
	.long	0x703d
	.uleb128 0xe
	.long	0x2951
	.uleb128 0x27
	.long	0x276a
	.uleb128 0xe
	.long	0x2bfd
	.uleb128 0xc
	.long	0x2b35
	.uleb128 0x9
	.long	0x7056
	.uleb128 0xe
	.long	0x2cae
	.uleb128 0xe
	.long	0x2d21
	.uleb128 0xe
	.long	0x3720
	.uleb128 0x27
	.long	0x2b35
	.uleb128 0xe
	.long	0x3731
	.uleb128 0xe
	.long	0x2b35
	.uleb128 0xc
	.long	0x3720
	.uleb128 0x9
	.long	0x707e
	.uleb128 0x27
	.long	0x2d14
	.uleb128 0xe
	.long	0x2c0a
	.uleb128 0xc
	.long	0x6aad
	.uleb128 0x9
	.long	0x7092
	.uleb128 0xe
	.long	0x6d1a
	.uleb128 0x27
	.long	0x6aad
	.uleb128 0xe
	.long	0x6aad
	.uleb128 0xc
	.long	0x6d1a
	.uleb128 0x9
	.long	0x70ab
	.uleb128 0x6a
	.long	.LASF1127
	.uleb128 0xc
	.long	0x6d2b
	.uleb128 0x9
	.long	0x70ba
	.uleb128 0xe
	.long	0x6f6a
	.uleb128 0x27
	.long	0x6d2b
	.uleb128 0xe
	.long	0x6d2b
	.uleb128 0xc
	.long	0x6f6a
	.uleb128 0x9
	.long	0x70d3
	.uleb128 0xc
	.long	0x2361
	.uleb128 0xc
	.long	0x244f
	.uleb128 0x9
	.long	0x70e2
	.uleb128 0xc
	.long	0x5178
	.uleb128 0x9
	.long	0x70ec
	.uleb128 0xe
	.long	0x69c0
	.uleb128 0xc
	.long	0x53b3
	.uleb128 0x9
	.long	0x70fb
	.uleb128 0xe
	.long	0x5178
	.uleb128 0xc
	.long	0x592d
	.uleb128 0x9
	.long	0x710a
	.uleb128 0xe
	.long	0x6fca
	.uleb128 0xc
	.long	0x5b5b
	.uleb128 0x9
	.long	0x7119
	.uleb128 0xe
	.long	0x592d
	.uleb128 0xc
	.long	0x56fa
	.uleb128 0x9
	.long	0x7128
	.uleb128 0xe
	.long	0x6fb1
	.uleb128 0xc
	.long	0x5928
	.uleb128 0x9
	.long	0x7137
	.uleb128 0xe
	.long	0x56fa
	.uleb128 0xc
	.long	0x53b8
	.uleb128 0x9
	.long	0x7146
	.uleb128 0xe
	.long	0x69d9
	.uleb128 0xc
	.long	0x55e6
	.uleb128 0x9
	.long	0x7155
	.uleb128 0xe
	.long	0x53b8
	.uleb128 0x9c
	.long	.LASF1160
	.long	0xa6
	.uleb128 0x4e
	.long	0xe73
	.long	.LASF1128
	.long	0x717f
	.long	0x7189
	.uleb128 0x12
	.long	.LASF1130
	.long	0x67ae
	.byte	0
	.uleb128 0x4e
	.long	0xe5a
	.long	.LASF1129
	.long	0x719a
	.long	0x71a4
	.uleb128 0x12
	.long	.LASF1130
	.long	0x67ae
	.byte	0
	.uleb128 0x9d
	.long	.LASF1258
	.uleb128 0x9e
	.long	.LASF1259
	.uleb128 0x71
	.long	.LASF1131
	.long	0xa6
	.long	0x71c3
	.uleb128 0x1
	.long	0xa6
	.byte	0
	.uleb128 0x3a
	.long	.LASF1132
	.byte	0x1
	.byte	0x87
	.byte	0x6
	.long	.LASF1133
	.long	0x71de
	.uleb128 0x1
	.long	0xa6
	.uleb128 0x1
	.long	0x559
	.byte	0
	.uleb128 0x18
	.long	.LASF1134
	.byte	0x1
	.byte	0x7e
	.byte	0x1a
	.long	.LASF1135
	.long	0xa6
	.long	0x71f8
	.uleb128 0x1
	.long	0x559
	.byte	0
	.uleb128 0x9f
	.long	.LASF1260
	.long	0x7208
	.uleb128 0x1
	.long	0xa6
	.byte	0
	.uleb128 0xc
	.long	0x3a46
	.uleb128 0x9
	.long	0x7208
	.uleb128 0x4e
	.long	0x3a4f
	.long	.LASF1136
	.long	0x7223
	.long	0x722d
	.uleb128 0x12
	.long	.LASF1130
	.long	0x720d
	.byte	0
	.uleb128 0xa0
	.long	.LASF1137
	.long	0x7247
	.uleb128 0x1
	.long	0xa6
	.uleb128 0x1
	.long	0xa6
	.uleb128 0x1
	.long	0x60a8
	.byte	0
	.uleb128 0x4e
	.long	0x3a76
	.long	.LASF1138
	.long	0x7258
	.long	0x7267
	.uleb128 0x12
	.long	.LASF1130
	.long	0x720d
	.uleb128 0x1
	.long	0x2e7
	.byte	0
	.uleb128 0x71
	.long	.LASF1139
	.long	0xa6
	.long	0x727a
	.uleb128 0x1
	.long	0x5e
	.byte	0
	.uleb128 0xa1
	.long	.LASF1261
	.quad	.LFB3392
	.quad	.LFE3392-.LFB3392
	.uleb128 0x1
	.byte	0x9c
	.uleb128 0xa2
	.long	.LASF1262
	.quad	.LFB3391
	.quad	.LFE3391-.LFB3391
	.uleb128 0x1
	.byte	0x9c
	.long	0x72cd
	.uleb128 0x17
	.long	.LASF1140
	.byte	0x6
	.byte	0x13
	.byte	0x1
	.long	0x118
	.uleb128 0x2
	.byte	0x91
	.sleb128 -20
	.uleb128 0x17
	.long	.LASF1141
	.byte	0x6
	.byte	0x13
	.byte	0x1
	.long	0x118
	.uleb128 0x2
	.byte	0x91
	.sleb128 -24
	.byte	0
	.uleb128 0x28
	.long	0x55b3
	.long	0x72ec
	.quad	.LFB3390
	.quad	.LFE3390-.LFB3390
	.uleb128 0x1
	.byte	0x9c
	.long	0x72f9
	.uleb128 0xf
	.long	.LASF1130
	.long	0x715a
	.uleb128 0x2
	.byte	0x91
	.sleb128 -24
	.byte	0
	.uleb128 0x25
	.long	0x3a95
	.quad	.LFB3389
	.quad	.LFE3389-.LFB3389
	.uleb128 0x1
	.byte	0x9c
	.long	0x7367
	.uleb128 0x4
	.long	.LASF132
	.long	0x6fac
	.uleb128 0x6
	.string	"_Tp"
	.long	0x3f
	.uleb128 0x5
	.long	.LASF1142
	.byte	0x2
	.value	0x395
	.byte	0x20
	.long	0x6fac
	.uleb128 0x2
	.byte	0x91
	.sleb128 -40
	.uleb128 0x5
	.long	.LASF1143
	.byte	0x2
	.value	0x395
	.byte	0x3a
	.long	0x6fac
	.uleb128 0x2
	.byte	0x91
	.sleb128 -48
	.uleb128 0x5
	.long	.LASF18
	.byte	0x2
	.value	0x396
	.byte	0x13
	.long	0x6fcf
	.uleb128 0x2
	.byte	0x91
	.sleb128 -56
	.uleb128 0x2a
	.long	.LASF1145
	.byte	0x2
	.value	0x398
	.byte	0x11
	.long	0x46
	.uleb128 0x2
	.byte	0x91
	.sleb128 -24
	.byte	0
	.uleb128 0xd
	.long	0x394a
	.quad	.LFB3388
	.quad	.LFE3388-.LFB3388
	.uleb128 0x1
	.byte	0x9c
	.long	0x73cc
	.uleb128 0x6
	.string	"_Tp"
	.long	0x4d85
	.uleb128 0x5
	.long	.LASF1142
	.byte	0x2
	.value	0x1a4
	.byte	0x16
	.long	0x69d4
	.uleb128 0x2
	.byte	0x91
	.sleb128 -40
	.uleb128 0x5
	.long	.LASF1143
	.byte	0x2
	.value	0x1a4
	.byte	0x2a
	.long	0x69d4
	.uleb128 0x2
	.byte	0x91
	.sleb128 -48
	.uleb128 0x5
	.long	.LASF1146
	.byte	0x2
	.value	0x1a4
	.byte	0x37
	.long	0x69bb
	.uleb128 0x2
	.byte	0x91
	.sleb128 -56
	.uleb128 0x2a
	.long	.LASF1147
	.byte	0x2
	.value	0x1ad
	.byte	0x14
	.long	0xb62
	.uleb128 0x2
	.byte	0x91
	.sleb128 -24
	.byte	0
	.uleb128 0xd
	.long	0x3ac8
	.quad	.LFB3387
	.quad	.LFE3387-.LFB3387
	.uleb128 0x1
	.byte	0x9c
	.long	0x740a
	.uleb128 0x4
	.long	.LASF537
	.long	0x69d4
	.uleb128 0x4
	.long	.LASF561
	.long	0x172c
	.uleb128 0x5
	.long	.LASF1148
	.byte	0x12
	.value	0x549
	.byte	0x46
	.long	0x53b8
	.uleb128 0x2
	.byte	0x91
	.sleb128 -24
	.byte	0
	.uleb128 0xd
	.long	0x3af5
	.quad	.LFB3386
	.quad	.LFE3386-.LFB3386
	.uleb128 0x1
	.byte	0x9c
	.long	0x7468
	.uleb128 0x4
	.long	.LASF564
	.long	0x6fac
	.uleb128 0x6
	.string	"_Tp"
	.long	0x3f
	.uleb128 0x5
	.long	.LASF1142
	.byte	0x2
	.value	0x3c7
	.byte	0x14
	.long	0x6fac
	.uleb128 0x2
	.byte	0x91
	.sleb128 -24
	.uleb128 0x5
	.long	.LASF1143
	.byte	0x2
	.value	0x3c7
	.byte	0x23
	.long	0x6fac
	.uleb128 0x2
	.byte	0x91
	.sleb128 -32
	.uleb128 0x5
	.long	.LASF18
	.byte	0x2
	.value	0x3c7
	.byte	0x36
	.long	0x6fcf
	.uleb128 0x2
	.byte	0x91
	.sleb128 -40
	.byte	0
	.uleb128 0xd
	.long	0x3b28
	.quad	.LFB3385
	.quad	.LFE3385-.LFB3385
	.uleb128 0x1
	.byte	0x9c
	.long	0x74d0
	.uleb128 0x1f
	.long	.LASF544
	.long	0x5c64
	.byte	0
	.uleb128 0x6
	.string	"_II"
	.long	0x69d4
	.uleb128 0x6
	.string	"_OI"
	.long	0x69bb
	.uleb128 0x5
	.long	.LASF1142
	.byte	0x2
	.value	0x1e6
	.byte	0x18
	.long	0x69d4
	.uleb128 0x2
	.byte	0x91
	.sleb128 -24
	.uleb128 0x5
	.long	.LASF1143
	.byte	0x2
	.value	0x1e6
	.byte	0x25
	.long	0x69d4
	.uleb128 0x2
	.byte	0x91
	.sleb128 -32
	.uleb128 0x5
	.long	.LASF1146
	.byte	0x2
	.value	0x1e6
	.byte	0x31
	.long	0x69bb
	.uleb128 0x2
	.byte	0x91
	.sleb128 -40
	.byte	0
	.uleb128 0xd
	.long	0x3b69
	.quad	.LFB3384
	.quad	.LFE3384-.LFB3384
	.uleb128 0x1
	.byte	0x9c
	.long	0x752b
	.uleb128 0x6
	.string	"_Tp"
	.long	0x4d85
	.uleb128 0x6
	.string	"_Up"
	.long	0x4d85
	.uleb128 0x17
	.long	.LASF1149
	.byte	0x2
	.byte	0x5a
	.byte	0x19
	.long	0x69d4
	.uleb128 0x2
	.byte	0x91
	.sleb128 -24
	.uleb128 0x17
	.long	.LASF1150
	.byte	0x2
	.byte	0x5a
	.byte	0x2e
	.long	0x69d4
	.uleb128 0x2
	.byte	0x91
	.sleb128 -32
	.uleb128 0x17
	.long	.LASF1151
	.byte	0x2
	.byte	0x5a
	.byte	0x3f
	.long	0x559
	.uleb128 0x2
	.byte	0x91
	.sleb128 -40
	.byte	0
	.uleb128 0xd
	.long	0x3b9f
	.quad	.LFB3383
	.quad	.LFE3383-.LFB3383
	.uleb128 0x1
	.byte	0x9c
	.long	0x7593
	.uleb128 0x1f
	.long	.LASF544
	.long	0x5c64
	.byte	0
	.uleb128 0x6
	.string	"_II"
	.long	0x53b8
	.uleb128 0x6
	.string	"_OI"
	.long	0x69bb
	.uleb128 0x5
	.long	.LASF1142
	.byte	0x2
	.value	0x20f
	.byte	0x17
	.long	0x53b8
	.uleb128 0x2
	.byte	0x91
	.sleb128 -40
	.uleb128 0x5
	.long	.LASF1143
	.byte	0x2
	.value	0x20f
	.byte	0x24
	.long	0x53b8
	.uleb128 0x2
	.byte	0x91
	.sleb128 -48
	.uleb128 0x5
	.long	.LASF1146
	.byte	0x2
	.value	0x20f
	.byte	0x30
	.long	0x69bb
	.uleb128 0x2
	.byte	0x91
	.sleb128 -56
	.byte	0
	.uleb128 0x25
	.long	0x3be0
	.quad	.LFB3382
	.quad	.LFE3382-.LFB3382
	.uleb128 0x1
	.byte	0x9c
	.long	0x75c8
	.uleb128 0x4
	.long	.LASF537
	.long	0x53b8
	.uleb128 0x5
	.long	.LASF1148
	.byte	0x14
	.value	0x232
	.byte	0x1c
	.long	0x53b8
	.uleb128 0x2
	.byte	0x91
	.sleb128 -24
	.byte	0
	.uleb128 0xd
	.long	0x3c04
	.quad	.LFB3381
	.quad	.LFE3381-.LFB3381
	.uleb128 0x1
	.byte	0x9c
	.long	0x7637
	.uleb128 0x4
	.long	.LASF575
	.long	0x6fac
	.uleb128 0x4
	.long	.LASF155
	.long	0x5e
	.uleb128 0x6
	.string	"_Tp"
	.long	0x3f
	.uleb128 0x5
	.long	.LASF1142
	.byte	0x2
	.value	0x454
	.byte	0x20
	.long	0x6fac
	.uleb128 0x2
	.byte	0x91
	.sleb128 -24
	.uleb128 0x16
	.string	"__n"
	.byte	0x2
	.value	0x454
	.byte	0x2f
	.long	0x5e
	.uleb128 0x2
	.byte	0x91
	.sleb128 -32
	.uleb128 0x5
	.long	.LASF18
	.byte	0x2
	.value	0x454
	.byte	0x3f
	.long	0x6fcf
	.uleb128 0x2
	.byte	0x91
	.sleb128 -40
	.uleb128 0x23
	.long	0xba3
	.uleb128 0x2
	.byte	0x91
	.sleb128 0
	.byte	0
	.uleb128 0x25
	.long	0x3c49
	.quad	.LFB3380
	.quad	.LFE3380-.LFB3380
	.uleb128 0x1
	.byte	0x9c
	.long	0x7664
	.uleb128 0x4
	.long	.LASF578
	.long	0x6fac
	.uleb128 0x23
	.long	0x7132
	.uleb128 0x2
	.byte	0x91
	.sleb128 -24
	.byte	0
	.uleb128 0x25
	.long	0x3c6c
	.quad	.LFB3379
	.quad	.LFE3379-.LFB3379
	.uleb128 0x1
	.byte	0x9c
	.long	0x76a1
	.uleb128 0x4
	.long	.LASF537
	.long	0x69bb
	.uleb128 0x23
	.long	0x70f6
	.uleb128 0x2
	.byte	0x91
	.sleb128 -24
	.uleb128 0x5
	.long	.LASF1152
	.byte	0x2
	.value	0x14f
	.byte	0x2e
	.long	0x69bb
	.uleb128 0x2
	.byte	0x91
	.sleb128 -32
	.byte	0
	.uleb128 0xd
	.long	0x3c95
	.quad	.LFB3378
	.quad	.LFE3378-.LFB3378
	.uleb128 0x1
	.byte	0x9c
	.long	0x7709
	.uleb128 0x1f
	.long	.LASF544
	.long	0x5c64
	.byte	0
	.uleb128 0x6
	.string	"_II"
	.long	0x69d4
	.uleb128 0x6
	.string	"_OI"
	.long	0x69bb
	.uleb128 0x5
	.long	.LASF1142
	.byte	0x2
	.value	0x209
	.byte	0x18
	.long	0x69d4
	.uleb128 0x2
	.byte	0x91
	.sleb128 -24
	.uleb128 0x5
	.long	.LASF1143
	.byte	0x2
	.value	0x209
	.byte	0x25
	.long	0x69d4
	.uleb128 0x2
	.byte	0x91
	.sleb128 -32
	.uleb128 0x5
	.long	.LASF1146
	.byte	0x2
	.value	0x209
	.byte	0x31
	.long	0x69bb
	.uleb128 0x2
	.byte	0x91
	.sleb128 -40
	.byte	0
	.uleb128 0x25
	.long	0x3cd6
	.quad	.LFB3377
	.quad	.LFE3377-.LFB3377
	.uleb128 0x1
	.byte	0x9c
	.long	0x773e
	.uleb128 0x4
	.long	.LASF537
	.long	0x69bb
	.uleb128 0x5
	.long	.LASF1148
	.byte	0x2
	.value	0x139
	.byte	0x1c
	.long	0x69bb
	.uleb128 0x2
	.byte	0x91
	.sleb128 -24
	.byte	0
	.uleb128 0x25
	.long	0x3cfa
	.quad	.LFB3376
	.quad	.LFE3376-.LFB3376
	.uleb128 0x1
	.byte	0x9c
	.long	0x7773
	.uleb128 0x4
	.long	.LASF537
	.long	0x69d4
	.uleb128 0x5
	.long	.LASF1148
	.byte	0x2
	.value	0x139
	.byte	0x1c
	.long	0x69d4
	.uleb128 0x2
	.byte	0x91
	.sleb128 -24
	.byte	0
	.uleb128 0xd
	.long	0xbca
	.quad	.LFB3375
	.quad	.LFE3375-.LFB3375
	.uleb128 0x1
	.byte	0x9c
	.long	0x77ea
	.uleb128 0x6
	.string	"_Tp"
	.long	0x4d85
	.uleb128 0x5
	.long	.LASF1149
	.byte	0x2
	.value	0x495
	.byte	0x13
	.long	0x69d4
	.uleb128 0x2
	.byte	0x91
	.sleb128 -40
	.uleb128 0x5
	.long	.LASF1153
	.byte	0x2
	.value	0x495
	.byte	0x28
	.long	0x69d4
	.uleb128 0x2
	.byte	0x91
	.sleb128 -48
	.uleb128 0x5
	.long	.LASF1150
	.byte	0x2
	.value	0x495
	.byte	0x3c
	.long	0x69d4
	.uleb128 0x2
	.byte	0x91
	.sleb128 -56
	.uleb128 0x4f
	.quad	.LBB62
	.quad	.LBE62-.LBB62
	.uleb128 0x2a
	.long	.LASF1154
	.byte	0x2
	.value	0x497
	.byte	0x15
	.long	0x566
	.uleb128 0x2
	.byte	0x91
	.sleb128 -24
	.byte	0
	.byte	0
	.uleb128 0xd
	.long	0x3d1e
	.quad	.LFB3374
	.quad	.LFE3374-.LFB3374
	.uleb128 0x1
	.byte	0x9c
	.long	0x7848
	.uleb128 0x6
	.string	"_II"
	.long	0x53b8
	.uleb128 0x6
	.string	"_OI"
	.long	0x69bb
	.uleb128 0x5
	.long	.LASF1142
	.byte	0x2
	.value	0x263
	.byte	0xe
	.long	0x53b8
	.uleb128 0x2
	.byte	0x91
	.sleb128 -40
	.uleb128 0x5
	.long	.LASF1143
	.byte	0x2
	.value	0x263
	.byte	0x1b
	.long	0x53b8
	.uleb128 0x2
	.byte	0x91
	.sleb128 -48
	.uleb128 0x5
	.long	.LASF1146
	.byte	0x2
	.value	0x263
	.byte	0x27
	.long	0x69bb
	.uleb128 0x2
	.byte	0x91
	.sleb128 -56
	.byte	0
	.uleb128 0x28
	.long	0x25b3
	.long	0x7867
	.quad	.LFB3373
	.quad	.LFE3373-.LFB3373
	.uleb128 0x1
	.byte	0x9c
	.long	0x7874
	.uleb128 0xf
	.long	.LASF1130
	.long	0x6fbb
	.uleb128 0x2
	.byte	0x91
	.sleb128 -24
	.byte	0
	.uleb128 0xd
	.long	0x3d55
	.quad	.LFB3372
	.quad	.LFE3372-.LFB3372
	.uleb128 0x1
	.byte	0x9c
	.long	0x78db
	.uleb128 0x6
	.string	"_OI"
	.long	0x6fac
	.uleb128 0x4
	.long	.LASF155
	.long	0x5e
	.uleb128 0x6
	.string	"_Tp"
	.long	0x3f
	.uleb128 0x5
	.long	.LASF1142
	.byte	0x2
	.value	0x477
	.byte	0x10
	.long	0x6fac
	.uleb128 0x2
	.byte	0x91
	.sleb128 -24
	.uleb128 0x16
	.string	"__n"
	.byte	0x2
	.value	0x477
	.byte	0x1f
	.long	0x5e
	.uleb128 0x2
	.byte	0x91
	.sleb128 -32
	.uleb128 0x5
	.long	.LASF18
	.byte	0x2
	.value	0x477
	.byte	0x2f
	.long	0x6fcf
	.uleb128 0x2
	.byte	0x91
	.sleb128 -40
	.byte	0
	.uleb128 0xd
	.long	0x3d95
	.quad	.LFB3371
	.quad	.LFE3371-.LFB3371
	.uleb128 0x1
	.byte	0x9c
	.long	0x7919
	.uleb128 0x6
	.string	"_Tp"
	.long	0x3f
	.uleb128 0x68
	.long	.LASF1155
	.uleb128 0x29
	.string	"__p"
	.byte	0xf
	.byte	0x6d
	.byte	0x15
	.long	0x6fac
	.uleb128 0x2
	.byte	0x91
	.sleb128 -24
	.uleb128 0xa3
	.byte	0xf
	.byte	0x6d
	.byte	0x21
	.byte	0
	.uleb128 0x25
	.long	0x3db9
	.quad	.LFB3370
	.quad	.LFE3370-.LFB3370
	.uleb128 0x1
	.byte	0x9c
	.long	0x794d
	.uleb128 0x6
	.string	"_Tp"
	.long	0x3f
	.uleb128 0x29
	.string	"__r"
	.byte	0x8
	.byte	0x31
	.byte	0x16
	.long	0x6fc0
	.uleb128 0x2
	.byte	0x91
	.sleb128 -24
	.byte	0
	.uleb128 0x15
	.long	0x2594
	.long	0x796c
	.quad	.LFB3369
	.quad	.LFE3369-.LFB3369
	.uleb128 0x1
	.byte	0x9c
	.long	0x7979
	.uleb128 0xf
	.long	.LASF1130
	.long	0x6fbb
	.uleb128 0x2
	.byte	0x91
	.sleb128 -24
	.byte	0
	.uleb128 0xd
	.long	0x3ddc
	.quad	.LFB3367
	.quad	.LFE3367-.LFB3367
	.uleb128 0x1
	.byte	0x9c
	.long	0x79e1
	.uleb128 0x1f
	.long	.LASF544
	.long	0x5c64
	.byte	0
	.uleb128 0x6
	.string	"_II"
	.long	0x69d4
	.uleb128 0x6
	.string	"_OI"
	.long	0x69bb
	.uleb128 0x5
	.long	.LASF1142
	.byte	0x2
	.value	0x20f
	.byte	0x17
	.long	0x69d4
	.uleb128 0x2
	.byte	0x91
	.sleb128 -40
	.uleb128 0x5
	.long	.LASF1143
	.byte	0x2
	.value	0x20f
	.byte	0x24
	.long	0x69d4
	.uleb128 0x2
	.byte	0x91
	.sleb128 -48
	.uleb128 0x5
	.long	.LASF1146
	.byte	0x2
	.value	0x20f
	.byte	0x30
	.long	0x69bb
	.uleb128 0x2
	.byte	0x91
	.sleb128 -56
	.byte	0
	.uleb128 0x25
	.long	0x3e1d
	.quad	.LFB3366
	.quad	.LFE3366-.LFB3366
	.uleb128 0x1
	.byte	0x9c
	.long	0x7a16
	.uleb128 0x4
	.long	.LASF537
	.long	0x69d4
	.uleb128 0x5
	.long	.LASF1148
	.byte	0x14
	.value	0x232
	.byte	0x1c
	.long	0x69d4
	.uleb128 0x2
	.byte	0x91
	.sleb128 -24
	.byte	0
	.uleb128 0xd
	.long	0x39d0
	.quad	.LFB3365
	.quad	.LFE3365-.LFB3365
	.uleb128 0x1
	.byte	0x9c
	.long	0x7a7b
	.uleb128 0x6
	.string	"_Tp"
	.long	0x3f
	.uleb128 0x5
	.long	.LASF1142
	.byte	0x2
	.value	0x1a4
	.byte	0x16
	.long	0x6fc5
	.uleb128 0x2
	.byte	0x91
	.sleb128 -40
	.uleb128 0x5
	.long	.LASF1143
	.byte	0x2
	.value	0x1a4
	.byte	0x2a
	.long	0x6fc5
	.uleb128 0x2
	.byte	0x91
	.sleb128 -48
	.uleb128 0x5
	.long	.LASF1146
	.byte	0x2
	.value	0x1a4
	.byte	0x37
	.long	0x6fac
	.uleb128 0x2
	.byte	0x91
	.sleb128 -56
	.uleb128 0x2a
	.long	.LASF1147
	.byte	0x2
	.value	0x1ad
	.byte	0x14
	.long	0xb62
	.uleb128 0x2
	.byte	0x91
	.sleb128 -24
	.byte	0
	.uleb128 0xd
	.long	0x3e41
	.quad	.LFB3364
	.quad	.LFE3364-.LFB3364
	.uleb128 0x1
	.byte	0x9c
	.long	0x7ae9
	.uleb128 0x4
	.long	.LASF601
	.long	0x69bb
	.uleb128 0x4
	.long	.LASF602
	.long	0x69bb
	.uleb128 0x5
	.long	.LASF1149
	.byte	0x2
	.value	0x4b4
	.byte	0x17
	.long	0x69bb
	.uleb128 0x2
	.byte	0x91
	.sleb128 -40
	.uleb128 0x5
	.long	.LASF1153
	.byte	0x2
	.value	0x4b4
	.byte	0x26
	.long	0x69bb
	.uleb128 0x2
	.byte	0x91
	.sleb128 -48
	.uleb128 0x5
	.long	.LASF1150
	.byte	0x2
	.value	0x4b4
	.byte	0x34
	.long	0x69bb
	.uleb128 0x2
	.byte	0x91
	.sleb128 -56
	.uleb128 0x2a
	.long	.LASF1156
	.byte	0x2
	.value	0x4b7
	.byte	0x12
	.long	0x5c6b
	.uleb128 0x2
	.byte	0x91
	.sleb128 -17
	.byte	0
	.uleb128 0xd
	.long	0x3e78
	.quad	.LFB3363
	.quad	.LFE3363-.LFB3363
	.uleb128 0x1
	.byte	0x9c
	.long	0x7b27
	.uleb128 0x4
	.long	.LASF537
	.long	0x69bb
	.uleb128 0x4
	.long	.LASF561
	.long	0x172c
	.uleb128 0x5
	.long	.LASF1148
	.byte	0x12
	.value	0x549
	.byte	0x46
	.long	0x5178
	.uleb128 0x2
	.byte	0x91
	.sleb128 -24
	.byte	0
	.uleb128 0xe
	.long	0x53b3
	.uleb128 0xd
	.long	0x5b60
	.quad	.LFB3362
	.quad	.LFE3362-.LFB3362
	.uleb128 0x1
	.byte	0x9c
	.long	0x7b7a
	.uleb128 0x4
	.long	.LASF537
	.long	0x69bb
	.uleb128 0x4
	.long	.LASF561
	.long	0x172c
	.uleb128 0x5
	.long	.LASF1157
	.byte	0x12
	.value	0x532
	.byte	0x3f
	.long	0x7b27
	.uleb128 0x2
	.byte	0x91
	.sleb128 -40
	.uleb128 0x5
	.long	.LASF1158
	.byte	0x12
	.value	0x533
	.byte	0x38
	.long	0x7b27
	.uleb128 0x2
	.byte	0x91
	.sleb128 -48
	.byte	0
	.uleb128 0xd
	.long	0x3978
	.quad	.LFB3361
	.quad	.LFE3361-.LFB3361
	.uleb128 0x1
	.byte	0x9c
	.long	0x7bdf
	.uleb128 0x6
	.string	"_Tp"
	.long	0x3f
	.uleb128 0x5
	.long	.LASF1142
	.byte	0x2
	.value	0x1a4
	.byte	0x16
	.long	0x6fc5
	.uleb128 0x2
	.byte	0x91
	.sleb128 -40
	.uleb128 0x5
	.long	.LASF1143
	.byte	0x2
	.value	0x1a4
	.byte	0x2a
	.long	0x6fc5
	.uleb128 0x2
	.byte	0x91
	.sleb128 -48
	.uleb128 0x5
	.long	.LASF1146
	.byte	0x2
	.value	0x1a4
	.byte	0x37
	.long	0x6fac
	.uleb128 0x2
	.byte	0x91
	.sleb128 -56
	.uleb128 0x2a
	.long	.LASF1147
	.byte	0x2
	.value	0x1ad
	.byte	0x14
	.long	0xb62
	.uleb128 0x2
	.byte	0x91
	.sleb128 -24
	.byte	0
	.uleb128 0xd
	.long	0xf95
	.quad	.LFB3360
	.quad	.LFE3360-.LFB3360
	.uleb128 0x1
	.byte	0x9c
	.long	0x7c3a
	.uleb128 0x4
	.long	.LASF148
	.long	0x53b8
	.uleb128 0x4
	.long	.LASF132
	.long	0x69bb
	.uleb128 0x17
	.long	.LASF1142
	.byte	0x11
	.byte	0x91
	.byte	0x26
	.long	0x53b8
	.uleb128 0x2
	.byte	0x91
	.sleb128 -24
	.uleb128 0x17
	.long	.LASF1143
	.byte	0x11
	.byte	0x91
	.byte	0x3e
	.long	0x53b8
	.uleb128 0x2
	.byte	0x91
	.sleb128 -32
	.uleb128 0x17
	.long	.LASF1146
	.byte	0x11
	.byte	0x92
	.byte	0x1a
	.long	0x69bb
	.uleb128 0x2
	.byte	0x91
	.sleb128 -40
	.byte	0
	.uleb128 0xd
	.long	0x3eb2
	.quad	.LFB3359
	.quad	.LFE3359-.LFB3359
	.uleb128 0x1
	.byte	0x9c
	.long	0x7cb8
	.uleb128 0x6
	.string	"_Tp"
	.long	0x3f
	.uleb128 0x6
	.string	"_Up"
	.long	0x3f
	.uleb128 0x5
	.long	.LASF1142
	.byte	0x11
	.value	0x44c
	.byte	0x19
	.long	0x6fac
	.uleb128 0x2
	.byte	0x91
	.sleb128 -40
	.uleb128 0x5
	.long	.LASF1143
	.byte	0x11
	.value	0x44c
	.byte	0x27
	.long	0x6fac
	.uleb128 0x2
	.byte	0x91
	.sleb128 -48
	.uleb128 0x5
	.long	.LASF1146
	.byte	0x11
	.value	0x44d
	.byte	0xb
	.long	0x6fac
	.uleb128 0x2
	.byte	0x91
	.sleb128 -56
	.uleb128 0x5
	.long	.LASF1159
	.byte	0x11
	.value	0x44e
	.byte	0x2b
	.long	0x6fe3
	.uleb128 0x2
	.byte	0x91
	.sleb128 -64
	.uleb128 0x2a
	.long	.LASF17
	.byte	0x11
	.value	0x450
	.byte	0x11
	.long	0xb55
	.uleb128 0x2
	.byte	0x91
	.sleb128 -24
	.byte	0
	.uleb128 0x25
	.long	0x3eee
	.quad	.LFB3358
	.quad	.LFE3358-.LFB3358
	.uleb128 0x1
	.byte	0x9c
	.long	0x7ced
	.uleb128 0x4
	.long	.LASF537
	.long	0x6fac
	.uleb128 0x5
	.long	.LASF1148
	.byte	0x2
	.value	0x139
	.byte	0x1c
	.long	0x6fac
	.uleb128 0x2
	.byte	0x91
	.sleb128 -24
	.byte	0
	.uleb128 0x15
	.long	0x253b
	.long	0x7d0c
	.quad	.LFB3357
	.quad	.LFE3357-.LFB3357
	.uleb128 0x1
	.byte	0x9c
	.long	0x7d3c
	.uleb128 0xf
	.long	.LASF1130
	.long	0x6fa2
	.uleb128 0x2
	.byte	0x91
	.sleb128 -24
	.uleb128 0x29
	.string	"__n"
	.byte	0xb
	.byte	0x70
	.byte	0x1a
	.long	0x2564
	.uleb128 0x2
	.byte	0x91
	.sleb128 -32
	.uleb128 0x23
	.long	0x60ad
	.uleb128 0x2
	.byte	0x91
	.sleb128 -40
	.uleb128 0x72
	.uleb128 0x73
	.long	.LASF1161
	.byte	0x84
	.long	0x54b
	.byte	0
	.byte	0
	.uleb128 0xd
	.long	0x1018
	.quad	.LFB3356
	.quad	.LFE3356-.LFB3356
	.uleb128 0x1
	.byte	0x9c
	.long	0x7dac
	.uleb128 0x4
	.long	.LASF132
	.long	0x6fac
	.uleb128 0x4
	.long	.LASF155
	.long	0x5e
	.uleb128 0x5
	.long	.LASF1142
	.byte	0x11
	.value	0x28f
	.byte	0x2d
	.long	0x6fac
	.uleb128 0x2
	.byte	0x91
	.sleb128 -40
	.uleb128 0x16
	.string	"__n"
	.byte	0x11
	.value	0x28f
	.byte	0x3c
	.long	0x5e
	.uleb128 0x2
	.byte	0x91
	.sleb128 -48
	.uleb128 0x4f
	.quad	.LBB61
	.quad	.LBE61-.LBB61
	.uleb128 0x2a
	.long	.LASF1162
	.byte	0x11
	.value	0x293
	.byte	0x40
	.long	0x7dac
	.uleb128 0x2
	.byte	0x91
	.sleb128 -24
	.byte	0
	.byte	0
	.uleb128 0xc
	.long	0x3814
	.uleb128 0xd
	.long	0x2719
	.quad	.LFB3355
	.quad	.LFE3355-.LFB3355
	.uleb128 0x1
	.byte	0x9c
	.long	0x7ddd
	.uleb128 0x16
	.string	"__a"
	.byte	0xa
	.value	0x223
	.byte	0x26
	.long	0x6fed
	.uleb128 0x2
	.byte	0x91
	.sleb128 -24
	.byte	0
	.uleb128 0xd
	.long	0x3f12
	.quad	.LFB3354
	.quad	.LFE3354-.LFB3354
	.uleb128 0x1
	.byte	0x9c
	.long	0x7e3b
	.uleb128 0x6
	.string	"_II"
	.long	0x69d4
	.uleb128 0x6
	.string	"_OI"
	.long	0x69bb
	.uleb128 0x5
	.long	.LASF1142
	.byte	0x2
	.value	0x263
	.byte	0xe
	.long	0x69d4
	.uleb128 0x2
	.byte	0x91
	.sleb128 -40
	.uleb128 0x5
	.long	.LASF1143
	.byte	0x2
	.value	0x263
	.byte	0x1b
	.long	0x69d4
	.uleb128 0x2
	.byte	0x91
	.sleb128 -48
	.uleb128 0x5
	.long	.LASF1146
	.byte	0x2
	.value	0x263
	.byte	0x27
	.long	0x69bb
	.uleb128 0x2
	.byte	0x91
	.sleb128 -56
	.byte	0
	.uleb128 0x28
	.long	0x11aa
	.long	0x7e5a
	.quad	.LFB3353
	.quad	.LFE3353-.LFB3353
	.uleb128 0x1
	.byte	0x9c
	.long	0x7e67
	.uleb128 0xf
	.long	.LASF1130
	.long	0x69ca
	.uleb128 0x2
	.byte	0x91
	.sleb128 -24
	.byte	0
	.uleb128 0x15
	.long	0x118b
	.long	0x7e86
	.quad	.LFB3352
	.quad	.LFE3352-.LFB3352
	.uleb128 0x1
	.byte	0x9c
	.long	0x7e93
	.uleb128 0xf
	.long	.LASF1130
	.long	0x69ca
	.uleb128 0x2
	.byte	0x91
	.sleb128 -24
	.byte	0
	.uleb128 0xd
	.long	0x3f49
	.quad	.LFB3347
	.quad	.LFE3347-.LFB3347
	.uleb128 0x1
	.byte	0x9c
	.long	0x7efb
	.uleb128 0x1f
	.long	.LASF544
	.long	0x5c64
	.byte	0x1
	.uleb128 0x6
	.string	"_II"
	.long	0x6fc5
	.uleb128 0x6
	.string	"_OI"
	.long	0x6fac
	.uleb128 0x5
	.long	.LASF1142
	.byte	0x2
	.value	0x1e6
	.byte	0x18
	.long	0x6fc5
	.uleb128 0x2
	.byte	0x91
	.sleb128 -24
	.uleb128 0x5
	.long	.LASF1143
	.byte	0x2
	.value	0x1e6
	.byte	0x25
	.long	0x6fc5
	.uleb128 0x2
	.byte	0x91
	.sleb128 -32
	.uleb128 0x5
	.long	.LASF1146
	.byte	0x2
	.value	0x1e6
	.byte	0x31
	.long	0x6fac
	.uleb128 0x2
	.byte	0x91
	.sleb128 -40
	.byte	0
	.uleb128 0xd
	.long	0x3f8a
	.quad	.LFB3345
	.quad	.LFE3345-.LFB3345
	.uleb128 0x1
	.byte	0x9c
	.long	0x7f59
	.uleb128 0x4
	.long	.LASF601
	.long	0x5178
	.uleb128 0x4
	.long	.LASF602
	.long	0x5178
	.uleb128 0x5
	.long	.LASF1149
	.byte	0x2
	.value	0x4c0
	.byte	0x16
	.long	0x5178
	.uleb128 0x2
	.byte	0x91
	.sleb128 -40
	.uleb128 0x5
	.long	.LASF1153
	.byte	0x2
	.value	0x4c0
	.byte	0x25
	.long	0x5178
	.uleb128 0x2
	.byte	0x91
	.sleb128 -48
	.uleb128 0x5
	.long	.LASF1150
	.byte	0x2
	.value	0x4c0
	.byte	0x33
	.long	0x5178
	.uleb128 0x2
	.byte	0x91
	.sleb128 -56
	.byte	0
	.uleb128 0xd
	.long	0x3fc1
	.quad	.LFB3344
	.quad	.LFE3344-.LFB3344
	.uleb128 0x1
	.byte	0x9c
	.long	0x7fa4
	.uleb128 0x4
	.long	.LASF618
	.long	0x5178
	.uleb128 0x17
	.long	.LASF1142
	.byte	0xd
	.byte	0x63
	.byte	0x26
	.long	0x5178
	.uleb128 0x2
	.byte	0x91
	.sleb128 -24
	.uleb128 0x17
	.long	.LASF1143
	.byte	0xd
	.byte	0x63
	.byte	0x45
	.long	0x5178
	.uleb128 0x2
	.byte	0x91
	.sleb128 -32
	.uleb128 0x23
	.long	0xba3
	.uleb128 0x2
	.byte	0x91
	.sleb128 0
	.byte	0
	.uleb128 0x25
	.long	0x3fee
	.quad	.LFB3343
	.quad	.LFE3343-.LFB3343
	.uleb128 0x1
	.byte	0x9c
	.long	0x7fd1
	.uleb128 0x4
	.long	.LASF578
	.long	0x5178
	.uleb128 0x23
	.long	0x7b27
	.uleb128 0x2
	.byte	0x91
	.sleb128 -24
	.byte	0
	.uleb128 0x15
	.long	0x5886
	.long	0x7ff0
	.quad	.LFB3342
	.quad	.LFE3342-.LFB3342
	.uleb128 0x1
	.byte	0x9c
	.long	0x800d
	.uleb128 0xf
	.long	.LASF1130
	.long	0x713c
	.uleb128 0x2
	.byte	0x91
	.sleb128 -40
	.uleb128 0x16
	.string	"__n"
	.byte	0x12
	.value	0x477
	.byte	0x21
	.long	0x5854
	.uleb128 0x2
	.byte	0x91
	.sleb128 -48
	.byte	0
	.uleb128 0xd
	.long	0x4011
	.quad	.LFB3341
	.quad	.LFE3341-.LFB3341
	.uleb128 0x1
	.byte	0x9c
	.long	0x8075
	.uleb128 0x1f
	.long	.LASF544
	.long	0x5c64
	.byte	0
	.uleb128 0x6
	.string	"_II"
	.long	0x6fc5
	.uleb128 0x6
	.string	"_OI"
	.long	0x6fac
	.uleb128 0x5
	.long	.LASF1142
	.byte	0x2
	.value	0x1e6
	.byte	0x18
	.long	0x6fc5
	.uleb128 0x2
	.byte	0x91
	.sleb128 -24
	.uleb128 0x5
	.long	.LASF1143
	.byte	0x2
	.value	0x1e6
	.byte	0x25
	.long	0x6fc5
	.uleb128 0x2
	.byte	0x91
	.sleb128 -32
	.uleb128 0x5
	.long	.LASF1146
	.byte	0x2
	.value	0x1e6
	.byte	0x31
	.long	0x6fac
	.uleb128 0x2
	.byte	0x91
	.sleb128 -40
	.byte	0
	.uleb128 0x28
	.long	0x58f5
	.long	0x8094
	.quad	.LFB3340
	.quad	.LFE3340-.LFB3340
	.uleb128 0x1
	.byte	0x9c
	.long	0x80a1
	.uleb128 0xf
	.long	.LASF1130
	.long	0x713c
	.uleb128 0x2
	.byte	0x91
	.sleb128 -24
	.byte	0
	.uleb128 0x28
	.long	0x5b28
	.long	0x80c0
	.quad	.LFB3339
	.quad	.LFE3339-.LFB3339
	.uleb128 0x1
	.byte	0x9c
	.long	0x80cd
	.uleb128 0xf
	.long	.LASF1130
	.long	0x711e
	.uleb128 0x2
	.byte	0x91
	.sleb128 -24
	.byte	0
	.uleb128 0x27
	.long	0x3927
	.uleb128 0x25
	.long	0x4052
	.quad	.LFB3338
	.quad	.LFE3338-.LFB3338
	.uleb128 0x1
	.byte	0x9c
	.long	0x8106
	.uleb128 0x6
	.string	"_Tp"
	.long	0x69f2
	.uleb128 0x29
	.string	"__t"
	.byte	0x8
	.byte	0x68
	.byte	0x10
	.long	0x69f2
	.uleb128 0x2
	.byte	0x91
	.sleb128 -24
	.byte	0
	.uleb128 0x28
	.long	0x13db
	.long	0x8125
	.quad	.LFB3337
	.quad	.LFE3337-.LFB3337
	.uleb128 0x1
	.byte	0x9c
	.long	0x8141
	.uleb128 0xf
	.long	.LASF1130
	.long	0x6a10
	.uleb128 0x2
	.byte	0x91
	.sleb128 -24
	.uleb128 0x29
	.string	"__x"
	.byte	0x7
	.byte	0x71
	.byte	0x28
	.long	0x6a1a
	.uleb128 0x2
	.byte	0x91
	.sleb128 -32
	.byte	0
	.uleb128 0xd
	.long	0x4075
	.quad	.LFB3336
	.quad	.LFE3336-.LFB3336
	.uleb128 0x1
	.byte	0x9c
	.long	0x81ba
	.uleb128 0x4
	.long	.LASF148
	.long	0x53b8
	.uleb128 0x4
	.long	.LASF132
	.long	0x69bb
	.uleb128 0x17
	.long	.LASF1142
	.byte	0x11
	.byte	0xa3
	.byte	0x27
	.long	0x53b8
	.uleb128 0x2
	.byte	0x91
	.sleb128 -40
	.uleb128 0x17
	.long	.LASF1143
	.byte	0x11
	.byte	0xa3
	.byte	0x3f
	.long	0x53b8
	.uleb128 0x2
	.byte	0x91
	.sleb128 -48
	.uleb128 0x17
	.long	.LASF1146
	.byte	0x11
	.byte	0xa4
	.byte	0x1b
	.long	0x69bb
	.uleb128 0x2
	.byte	0x91
	.sleb128 -56
	.uleb128 0x2e
	.long	.LASF1163
	.byte	0x11
	.byte	0xae
	.byte	0x12
	.long	0x5c6b
	.uleb128 0x2
	.byte	0x91
	.sleb128 -17
	.uleb128 0x2e
	.long	.LASF1164
	.byte	0x11
	.byte	0xb5
	.byte	0x12
	.long	0x5c6b
	.uleb128 0x2
	.byte	0x91
	.sleb128 -18
	.byte	0
	.uleb128 0x14
	.long	0x53ea
	.long	0x81c7
	.long	0x81de
	.uleb128 0x12
	.long	.LASF1130
	.long	0x714b
	.uleb128 0x31
	.string	"__i"
	.byte	0x12
	.value	0x430
	.byte	0x2a
	.long	0x7150
	.byte	0
	.uleb128 0x32
	.long	0x81ba
	.long	.LASF1167
	.long	0x8201
	.quad	.LFB3334
	.quad	.LFE3334-.LFB3334
	.uleb128 0x1
	.byte	0x9c
	.long	0x8212
	.uleb128 0x10
	.long	0x81c7
	.uleb128 0x2
	.byte	0x91
	.sleb128 -24
	.uleb128 0x10
	.long	0x81d0
	.uleb128 0x2
	.byte	0x91
	.sleb128 -32
	.byte	0
	.uleb128 0x15
	.long	0x16d0
	.long	0x8231
	.quad	.LFB3332
	.quad	.LFE3332-.LFB3332
	.uleb128 0x1
	.byte	0x9c
	.long	0x824e
	.uleb128 0xf
	.long	.LASF1130
	.long	0x6a47
	.uleb128 0x2
	.byte	0x91
	.sleb128 -24
	.uleb128 0x16
	.string	"__n"
	.byte	0x7
	.value	0x189
	.byte	0x20
	.long	0x559
	.uleb128 0x2
	.byte	0x91
	.sleb128 -32
	.byte	0
	.uleb128 0xd
	.long	0x132b
	.quad	.LFB3331
	.quad	.LFE3331-.LFB3331
	.uleb128 0x1
	.byte	0x9c
	.long	0x827a
	.uleb128 0x5
	.long	.LASF1158
	.byte	0xa
	.value	0x232
	.byte	0x43
	.long	0x69fc
	.uleb128 0x2
	.byte	0x91
	.sleb128 -32
	.byte	0
	.uleb128 0xd
	.long	0x40ab
	.quad	.LFB3330
	.quad	.LFE3330-.LFB3330
	.uleb128 0x1
	.byte	0x9c
	.long	0x82f1
	.uleb128 0x4
	.long	.LASF148
	.long	0x6fac
	.uleb128 0x4
	.long	.LASF132
	.long	0x6fac
	.uleb128 0x4
	.long	.LASF629
	.long	0x25e0
	.uleb128 0x5
	.long	.LASF1142
	.byte	0x11
	.value	0x467
	.byte	0x21
	.long	0x6fac
	.uleb128 0x2
	.byte	0x91
	.sleb128 -40
	.uleb128 0x5
	.long	.LASF1143
	.byte	0x11
	.value	0x467
	.byte	0x39
	.long	0x6fac
	.uleb128 0x2
	.byte	0x91
	.sleb128 -48
	.uleb128 0x5
	.long	.LASF1146
	.byte	0x11
	.value	0x468
	.byte	0x15
	.long	0x6fac
	.uleb128 0x2
	.byte	0x91
	.sleb128 -56
	.uleb128 0x5
	.long	.LASF1159
	.byte	0x11
	.value	0x468
	.byte	0x2b
	.long	0x6fe3
	.uleb128 0x2
	.byte	0x91
	.sleb128 -64
	.byte	0
	.uleb128 0xd
	.long	0x2687
	.quad	.LFB3329
	.quad	.LFE3329-.LFB3329
	.uleb128 0x1
	.byte	0x9c
	.long	0x832d
	.uleb128 0x16
	.string	"__a"
	.byte	0xa
	.value	0x1cf
	.byte	0x20
	.long	0x6fe8
	.uleb128 0x2
	.byte	0x91
	.sleb128 -24
	.uleb128 0x16
	.string	"__n"
	.byte	0xa
	.value	0x1cf
	.byte	0x2f
	.long	0x26b9
	.uleb128 0x2
	.byte	0x91
	.sleb128 -32
	.byte	0
	.uleb128 0xe
	.long	0x65
	.uleb128 0x25
	.long	0x40f0
	.quad	.LFB3328
	.quad	.LFE3328-.LFB3328
	.uleb128 0x1
	.byte	0x9c
	.long	0x8375
	.uleb128 0x6
	.string	"_Tp"
	.long	0x5e
	.uleb128 0x29
	.string	"__a"
	.byte	0x2
	.byte	0xfe
	.byte	0x14
	.long	0x832d
	.uleb128 0x2
	.byte	0x91
	.sleb128 -24
	.uleb128 0x29
	.string	"__b"
	.byte	0x2
	.byte	0xfe
	.byte	0x24
	.long	0x832d
	.uleb128 0x2
	.byte	0x91
	.sleb128 -32
	.byte	0
	.uleb128 0xd
	.long	0x4118
	.quad	.LFB3327
	.quad	.LFE3327-.LFB3327
	.uleb128 0x1
	.byte	0x9c
	.long	0x83d3
	.uleb128 0x4
	.long	.LASF132
	.long	0x6fac
	.uleb128 0x4
	.long	.LASF155
	.long	0x5e
	.uleb128 0x5
	.long	.LASF1142
	.byte	0x11
	.value	0x2b3
	.byte	0x30
	.long	0x6fac
	.uleb128 0x2
	.byte	0x91
	.sleb128 -40
	.uleb128 0x16
	.string	"__n"
	.byte	0x11
	.value	0x2b3
	.byte	0x3f
	.long	0x5e
	.uleb128 0x2
	.byte	0x91
	.sleb128 -48
	.uleb128 0x74
	.long	.LASF1189
	.byte	0x11
	.value	0x2b8
	.byte	0x16
	.long	0x5c6b
	.uleb128 0x2
	.byte	0x91
	.sleb128 -17
	.byte	0
	.uleb128 0x28
	.long	0x2927
	.long	0x83f2
	.quad	.LFB3326
	.quad	.LFE3326-.LFB3326
	.uleb128 0x1
	.byte	0x9c
	.long	0x83ff
	.uleb128 0xf
	.long	.LASF1130
	.long	0x7042
	.uleb128 0x2
	.byte	0x91
	.sleb128 -24
	.byte	0
	.uleb128 0xd
	.long	0x3640
	.quad	.LFB3325
	.quad	.LFE3325-.LFB3325
	.uleb128 0x1
	.byte	0x9c
	.long	0x844b
	.uleb128 0x16
	.string	"__a"
	.byte	0x7
	.value	0x777
	.byte	0x29
	.long	0x708d
	.uleb128 0x2
	.byte	0x91
	.sleb128 -40
	.uleb128 0x2a
	.long	.LASF1165
	.byte	0x7
	.value	0x77c
	.byte	0xf
	.long	0x566
	.uleb128 0x2
	.byte	0x91
	.sleb128 -24
	.uleb128 0x2a
	.long	.LASF1166
	.byte	0x7
	.value	0x77e
	.byte	0xf
	.long	0x566
	.uleb128 0x2
	.byte	0x91
	.sleb128 -32
	.byte	0
	.uleb128 0xd
	.long	0xfcb
	.quad	.LFB3324
	.quad	.LFE3324-.LFB3324
	.uleb128 0x1
	.byte	0x9c
	.long	0x84a6
	.uleb128 0x4
	.long	.LASF148
	.long	0x69d4
	.uleb128 0x4
	.long	.LASF132
	.long	0x69bb
	.uleb128 0x17
	.long	.LASF1142
	.byte	0x11
	.byte	0x91
	.byte	0x26
	.long	0x69d4
	.uleb128 0x2
	.byte	0x91
	.sleb128 -24
	.uleb128 0x17
	.long	.LASF1143
	.byte	0x11
	.byte	0x91
	.byte	0x3e
	.long	0x69d4
	.uleb128 0x2
	.byte	0x91
	.sleb128 -32
	.uleb128 0x17
	.long	.LASF1146
	.byte	0x11
	.byte	0x92
	.byte	0x1a
	.long	0x69bb
	.uleb128 0x2
	.byte	0x91
	.sleb128 -40
	.byte	0
	.uleb128 0x15
	.long	0x1132
	.long	0x84c5
	.quad	.LFB3323
	.quad	.LFE3323-.LFB3323
	.uleb128 0x1
	.byte	0x9c
	.long	0x84f5
	.uleb128 0xf
	.long	.LASF1130
	.long	0x69b1
	.uleb128 0x2
	.byte	0x91
	.sleb128 -24
	.uleb128 0x29
	.string	"__n"
	.byte	0xb
	.byte	0x70
	.byte	0x1a
	.long	0x115b
	.uleb128 0x2
	.byte	0x91
	.sleb128 -32
	.uleb128 0x23
	.long	0x60ad
	.uleb128 0x2
	.byte	0x91
	.sleb128 -40
	.uleb128 0x72
	.uleb128 0x73
	.long	.LASF1161
	.byte	0x84
	.long	0x54b
	.byte	0
	.byte	0
	.uleb128 0x25
	.long	0x414a
	.quad	.LFB3322
	.quad	.LFE3322-.LFB3322
	.uleb128 0x1
	.byte	0x9c
	.long	0x8538
	.uleb128 0x6
	.string	"_Tp"
	.long	0x5e
	.uleb128 0x29
	.string	"__a"
	.byte	0x2
	.byte	0xe6
	.byte	0x14
	.long	0x832d
	.uleb128 0x2
	.byte	0x91
	.sleb128 -24
	.uleb128 0x29
	.string	"__b"
	.byte	0x2
	.byte	0xe6
	.byte	0x24
	.long	0x832d
	.uleb128 0x2
	.byte	0x91
	.sleb128 -32
	.byte	0
	.uleb128 0xd
	.long	0x1310
	.quad	.LFB3321
	.quad	.LFE3321-.LFB3321
	.uleb128 0x1
	.byte	0x9c
	.long	0x8564
	.uleb128 0x16
	.string	"__a"
	.byte	0xa
	.value	0x223
	.byte	0x26
	.long	0x69fc
	.uleb128 0x2
	.byte	0x91
	.sleb128 -24
	.byte	0
	.uleb128 0xd
	.long	0x4172
	.quad	.LFB3311
	.quad	.LFE3311-.LFB3311
	.uleb128 0x1
	.byte	0x9c
	.long	0x85cc
	.uleb128 0x1f
	.long	.LASF544
	.long	0x5c64
	.byte	0x1
	.uleb128 0x6
	.string	"_II"
	.long	0x6fc5
	.uleb128 0x6
	.string	"_OI"
	.long	0x6fac
	.uleb128 0x5
	.long	.LASF1142
	.byte	0x2
	.value	0x209
	.byte	0x18
	.long	0x6fc5
	.uleb128 0x2
	.byte	0x91
	.sleb128 -24
	.uleb128 0x5
	.long	.LASF1143
	.byte	0x2
	.value	0x209
	.byte	0x25
	.long	0x6fc5
	.uleb128 0x2
	.byte	0x91
	.sleb128 -32
	.uleb128 0x5
	.long	.LASF1146
	.byte	0x2
	.value	0x209
	.byte	0x31
	.long	0x6fac
	.uleb128 0x2
	.byte	0x91
	.sleb128 -40
	.byte	0
	.uleb128 0xd
	.long	0x5b92
	.quad	.LFB3310
	.quad	.LFE3310-.LFB3310
	.uleb128 0x1
	.byte	0x9c
	.long	0x861a
	.uleb128 0x4
	.long	.LASF537
	.long	0x69bb
	.uleb128 0x4
	.long	.LASF561
	.long	0x172c
	.uleb128 0x5
	.long	.LASF1157
	.byte	0x12
	.value	0x4c5
	.byte	0x40
	.long	0x7b27
	.uleb128 0x2
	.byte	0x91
	.sleb128 -40
	.uleb128 0x5
	.long	.LASF1158
	.byte	0x12
	.value	0x4c6
	.byte	0x39
	.long	0x7b27
	.uleb128 0x2
	.byte	0x91
	.sleb128 -48
	.byte	0
	.uleb128 0xd
	.long	0x41b3
	.quad	.LFB3309
	.quad	.LFE3309-.LFB3309
	.uleb128 0x1
	.byte	0x9c
	.long	0x8678
	.uleb128 0x4
	.long	.LASF601
	.long	0x5178
	.uleb128 0x4
	.long	.LASF602
	.long	0x5178
	.uleb128 0x5
	.long	.LASF1149
	.byte	0x2
	.value	0x609
	.byte	0x10
	.long	0x5178
	.uleb128 0x2
	.byte	0x91
	.sleb128 -24
	.uleb128 0x5
	.long	.LASF1153
	.byte	0x2
	.value	0x609
	.byte	0x1f
	.long	0x5178
	.uleb128 0x2
	.byte	0x91
	.sleb128 -32
	.uleb128 0x5
	.long	.LASF1150
	.byte	0x2
	.value	0x609
	.byte	0x2d
	.long	0x5178
	.uleb128 0x2
	.byte	0x91
	.sleb128 -40
	.byte	0
	.uleb128 0xd
	.long	0x41ea
	.quad	.LFB3308
	.quad	.LFE3308-.LFB3308
	.uleb128 0x1
	.byte	0x9c
	.long	0x86bb
	.uleb128 0x4
	.long	.LASF148
	.long	0x5178
	.uleb128 0x17
	.long	.LASF1142
	.byte	0xd
	.byte	0x93
	.byte	0x1d
	.long	0x5178
	.uleb128 0x2
	.byte	0x91
	.sleb128 -24
	.uleb128 0x17
	.long	.LASF1143
	.byte	0xd
	.byte	0x93
	.byte	0x35
	.long	0x5178
	.uleb128 0x2
	.byte	0x91
	.sleb128 -32
	.byte	0
	.uleb128 0x14
	.long	0x107c
	.long	0x86c8
	.long	0x86d7
	.uleb128 0x12
	.long	.LASF1130
	.long	0x69b1
	.uleb128 0x1
	.long	0x69b6
	.byte	0
	.uleb128 0x32
	.long	0x86bb
	.long	.LASF1168
	.long	0x86fa
	.quad	.LFB3306
	.quad	.LFE3306-.LFB3306
	.uleb128 0x1
	.byte	0x9c
	.long	0x870b
	.uleb128 0x10
	.long	0x86c8
	.uleb128 0x2
	.byte	0x91
	.sleb128 -24
	.uleb128 0x10
	.long	0x86d1
	.uleb128 0x2
	.byte	0x91
	.sleb128 -32
	.byte	0
	.uleb128 0xd
	.long	0x4212
	.quad	.LFB3304
	.quad	.LFE3304-.LFB3304
	.uleb128 0x1
	.byte	0x9c
	.long	0x8759
	.uleb128 0x4
	.long	.LASF644
	.long	0x56fa
	.uleb128 0x6
	.string	"_To"
	.long	0x6fac
	.uleb128 0x5
	.long	.LASF1169
	.byte	0x2
	.value	0x148
	.byte	0x18
	.long	0x56fa
	.uleb128 0x2
	.byte	0x91
	.sleb128 -24
	.uleb128 0x5
	.long	.LASF1152
	.byte	0x2
	.value	0x148
	.byte	0x24
	.long	0x6fac
	.uleb128 0x2
	.byte	0x91
	.sleb128 -32
	.byte	0
	.uleb128 0xd
	.long	0x4244
	.quad	.LFB3303
	.quad	.LFE3303-.LFB3303
	.uleb128 0x1
	.byte	0x9c
	.long	0x87c1
	.uleb128 0x1f
	.long	.LASF544
	.long	0x5c64
	.byte	0
	.uleb128 0x6
	.string	"_II"
	.long	0x6fc5
	.uleb128 0x6
	.string	"_OI"
	.long	0x6fac
	.uleb128 0x5
	.long	.LASF1142
	.byte	0x2
	.value	0x209
	.byte	0x18
	.long	0x6fc5
	.uleb128 0x2
	.byte	0x91
	.sleb128 -24
	.uleb128 0x5
	.long	.LASF1143
	.byte	0x2
	.value	0x209
	.byte	0x25
	.long	0x6fc5
	.uleb128 0x2
	.byte	0x91
	.sleb128 -32
	.uleb128 0x5
	.long	.LASF1146
	.byte	0x2
	.value	0x209
	.byte	0x31
	.long	0x6fac
	.uleb128 0x2
	.byte	0x91
	.sleb128 -40
	.byte	0
	.uleb128 0xd
	.long	0x4285
	.quad	.LFB3302
	.quad	.LFE3302-.LFB3302
	.uleb128 0x1
	.byte	0x9c
	.long	0x87ff
	.uleb128 0x4
	.long	.LASF537
	.long	0x6fac
	.uleb128 0x4
	.long	.LASF561
	.long	0x2b35
	.uleb128 0x5
	.long	.LASF1148
	.byte	0x12
	.value	0x549
	.byte	0x46
	.long	0x56fa
	.uleb128 0x2
	.byte	0x91
	.sleb128 -24
	.byte	0
	.uleb128 0xd
	.long	0x42b2
	.quad	.LFB3301
	.quad	.LFE3301-.LFB3301
	.uleb128 0x1
	.byte	0x9c
	.long	0x883d
	.uleb128 0x4
	.long	.LASF537
	.long	0x6fc5
	.uleb128 0x4
	.long	.LASF561
	.long	0x2b35
	.uleb128 0x5
	.long	.LASF1148
	.byte	0x12
	.value	0x549
	.byte	0x46
	.long	0x592d
	.uleb128 0x2
	.byte	0x91
	.sleb128 -24
	.byte	0
	.uleb128 0xd
	.long	0x42df
	.quad	.LFB3300
	.quad	.LFE3300-.LFB3300
	.uleb128 0x1
	.byte	0x9c
	.long	0x8882
	.uleb128 0x4
	.long	.LASF242
	.long	0x11d7
	.uleb128 0x5
	.long	.LASF1170
	.byte	0xa
	.value	0x2c6
	.byte	0x1d
	.long	0x69f2
	.uleb128 0x2
	.byte	0x91
	.sleb128 -24
	.uleb128 0x5
	.long	.LASF1171
	.byte	0xa
	.value	0x2c6
	.byte	0x2c
	.long	0x69f2
	.uleb128 0x2
	.byte	0x91
	.sleb128 -32
	.byte	0
	.uleb128 0x15
	.long	0x13fa
	.long	0x88a1
	.quad	.LFB3299
	.quad	.LFE3299-.LFB3299
	.uleb128 0x1
	.byte	0x9c
	.long	0x88cc
	.uleb128 0xf
	.long	.LASF1130
	.long	0x6a10
	.uleb128 0x2
	.byte	0x91
	.sleb128 -56
	.uleb128 0x29
	.string	"__x"
	.byte	0x7
	.byte	0x7a
	.byte	0x22
	.long	0x6a1f
	.uleb128 0x2
	.byte	0x91
	.sleb128 -64
	.uleb128 0x2e
	.long	.LASF1145
	.byte	0x7
	.byte	0x7e
	.byte	0x16
	.long	0x136e
	.uleb128 0x2
	.byte	0x91
	.sleb128 -48
	.byte	0
	.uleb128 0x14
	.long	0x1879
	.long	0x88d9
	.long	0x88f0
	.uleb128 0x12
	.long	.LASF1130
	.long	0x6a6a
	.uleb128 0x31
	.string	"__a"
	.byte	0x7
	.value	0x219
	.byte	0x24
	.long	0x6a6f
	.byte	0
	.uleb128 0x1c
	.long	0x88cc
	.long	.LASF1172
	.long	0x8913
	.quad	.LFB3297
	.quad	.LFE3297-.LFB3297
	.uleb128 0x1
	.byte	0x9c
	.long	0x8924
	.uleb128 0x10
	.long	0x88d9
	.uleb128 0x2
	.byte	0x91
	.sleb128 -24
	.uleb128 0x10
	.long	0x88e2
	.uleb128 0x2
	.byte	0x91
	.sleb128 -32
	.byte	0
	.uleb128 0x15
	.long	0x154d
	.long	0x8943
	.quad	.LFB3295
	.quad	.LFE3295-.LFB3295
	.uleb128 0x1
	.byte	0x9c
	.long	0x8950
	.uleb128 0xf
	.long	.LASF1130
	.long	0x6a51
	.uleb128 0x2
	.byte	0x91
	.sleb128 -32
	.byte	0
	.uleb128 0xd
	.long	0x4304
	.quad	.LFB3294
	.quad	.LFE3294-.LFB3294
	.uleb128 0x1
	.byte	0x9c
	.long	0x89bf
	.uleb128 0x4
	.long	.LASF148
	.long	0x53b8
	.uleb128 0x4
	.long	.LASF132
	.long	0x69bb
	.uleb128 0x6
	.string	"_Tp"
	.long	0x4d85
	.uleb128 0x5
	.long	.LASF1142
	.byte	0x11
	.value	0x16d
	.byte	0x2b
	.long	0x53b8
	.uleb128 0x2
	.byte	0x91
	.sleb128 -24
	.uleb128 0x5
	.long	.LASF1143
	.byte	0x11
	.value	0x16d
	.byte	0x43
	.long	0x53b8
	.uleb128 0x2
	.byte	0x91
	.sleb128 -32
	.uleb128 0x5
	.long	.LASF1146
	.byte	0x11
	.value	0x16e
	.byte	0x18
	.long	0x69bb
	.uleb128 0x2
	.byte	0x91
	.sleb128 -40
	.uleb128 0x23
	.long	0x69f2
	.uleb128 0x2
	.byte	0x91
	.sleb128 -48
	.byte	0
	.uleb128 0x15
	.long	0x1b6c
	.long	0x89de
	.quad	.LFB3293
	.quad	.LFE3293-.LFB3293
	.uleb128 0x1
	.byte	0x9c
	.long	0x89eb
	.uleb128 0xf
	.long	.LASF1130
	.long	0x6a92
	.uleb128 0x2
	.byte	0x91
	.sleb128 -40
	.byte	0
	.uleb128 0x15
	.long	0x1b2f
	.long	0x8a0a
	.quad	.LFB3292
	.quad	.LFE3292-.LFB3292
	.uleb128 0x1
	.byte	0x9c
	.long	0x8a17
	.uleb128 0xf
	.long	.LASF1130
	.long	0x6a92
	.uleb128 0x2
	.byte	0x91
	.sleb128 -40
	.byte	0
	.uleb128 0x14
	.long	0x15bf
	.long	0x8a24
	.long	0x8a48
	.uleb128 0x12
	.long	.LASF1130
	.long	0x6a47
	.uleb128 0x31
	.string	"__n"
	.byte	0x7
	.value	0x14a
	.byte	0x1b
	.long	0x559
	.uleb128 0x31
	.string	"__a"
	.byte	0x7
	.value	0x14a
	.byte	0x36
	.long	0x6a56
	.byte	0
	.uleb128 0x1c
	.long	0x8a17
	.long	.LASF1173
	.long	0x8a6b
	.quad	.LFB3290
	.quad	.LFE3290-.LFB3290
	.uleb128 0x1
	.byte	0x9c
	.long	0x8a84
	.uleb128 0x10
	.long	0x8a24
	.uleb128 0x2
	.byte	0x91
	.sleb128 -40
	.uleb128 0x10
	.long	0x8a2d
	.uleb128 0x2
	.byte	0x91
	.sleb128 -48
	.uleb128 0x10
	.long	0x8a3a
	.uleb128 0x2
	.byte	0x91
	.sleb128 -56
	.byte	0
	.uleb128 0xd
	.long	0x509b
	.quad	.LFB3288
	.quad	.LFE3288-.LFB3288
	.uleb128 0x1
	.byte	0x9c
	.long	0x8aaf
	.uleb128 0x29
	.string	"__a"
	.byte	0x15
	.byte	0x61
	.byte	0x3d
	.long	0x69ed
	.uleb128 0x2
	.byte	0x91
	.sleb128 -32
	.byte	0
	.uleb128 0x28
	.long	0x151e
	.long	0x8ace
	.quad	.LFB3287
	.quad	.LFE3287-.LFB3287
	.uleb128 0x1
	.byte	0x9c
	.long	0x8adb
	.uleb128 0xf
	.long	.LASF1130
	.long	0x6a51
	.uleb128 0x2
	.byte	0x91
	.sleb128 -24
	.byte	0
	.uleb128 0x15
	.long	0x1167
	.long	0x8afa
	.quad	.LFB3286
	.quad	.LFE3286-.LFB3286
	.uleb128 0x1
	.byte	0x9c
	.long	0x8b25
	.uleb128 0xf
	.long	.LASF1130
	.long	0x69b1
	.uleb128 0x2
	.byte	0x91
	.sleb128 -24
	.uleb128 0x29
	.string	"__p"
	.byte	0xb
	.byte	0x8e
	.byte	0x17
	.long	0x69bb
	.uleb128 0x2
	.byte	0x91
	.sleb128 -32
	.uleb128 0x29
	.string	"__n"
	.byte	0xb
	.byte	0x8e
	.byte	0x26
	.long	0x115b
	.uleb128 0x2
	.byte	0x91
	.sleb128 -40
	.byte	0
	.uleb128 0xd
	.long	0x2c3e
	.quad	.LFB3285
	.quad	.LFE3285-.LFB3285
	.uleb128 0x1
	.byte	0x9c
	.long	0x8b81
	.uleb128 0x5
	.long	.LASF1142
	.byte	0x7
	.value	0x1f3
	.byte	0x1b
	.long	0x2bc1
	.uleb128 0x2
	.byte	0x91
	.sleb128 -24
	.uleb128 0x5
	.long	.LASF1143
	.byte	0x7
	.value	0x1f3
	.byte	0x2c
	.long	0x2bc1
	.uleb128 0x2
	.byte	0x91
	.sleb128 -32
	.uleb128 0x5
	.long	.LASF1146
	.byte	0x7
	.value	0x1f3
	.byte	0x3c
	.long	0x2bc1
	.uleb128 0x2
	.byte	0x91
	.sleb128 -40
	.uleb128 0x5
	.long	.LASF1159
	.byte	0x7
	.value	0x1f4
	.byte	0x15
	.long	0x7051
	.uleb128 0x2
	.byte	0x91
	.sleb128 -48
	.byte	0
	.uleb128 0x15
	.long	0x2a94
	.long	0x8ba0
	.quad	.LFB3284
	.quad	.LFE3284-.LFB3284
	.uleb128 0x1
	.byte	0x9c
	.long	0x8bbd
	.uleb128 0xf
	.long	.LASF1130
	.long	0x7038
	.uleb128 0x2
	.byte	0x91
	.sleb128 -24
	.uleb128 0x16
	.string	"__n"
	.byte	0x7
	.value	0x177
	.byte	0x1a
	.long	0x559
	.uleb128 0x2
	.byte	0x91
	.sleb128 -32
	.byte	0
	.uleb128 0x15
	.long	0x35f8
	.long	0x8bdc
	.quad	.LFB3283
	.quad	.LFE3283-.LFB3283
	.uleb128 0x1
	.byte	0x9c
	.long	0x8c1a
	.uleb128 0xf
	.long	.LASF1130
	.long	0x7083
	.uleb128 0x2
	.byte	0x91
	.sleb128 -56
	.uleb128 0x16
	.string	"__n"
	.byte	0x7
	.value	0x763
	.byte	0x1e
	.long	0x2cd7
	.uleb128 0x2
	.byte	0x91
	.sleb128 -64
	.uleb128 0x16
	.string	"__s"
	.byte	0x7
	.value	0x763
	.byte	0x2f
	.long	0x2e7
	.uleb128 0x3
	.byte	0x91
	.sleb128 -72
	.uleb128 0x2a
	.long	.LASF1154
	.byte	0x7
	.value	0x768
	.byte	0x12
	.long	0x2ce4
	.uleb128 0x2
	.byte	0x91
	.sleb128 -40
	.byte	0
	.uleb128 0xd
	.long	0x4349
	.quad	.LFB3282
	.quad	.LFE3282-.LFB3282
	.uleb128 0x1
	.byte	0x9c
	.long	0x8c79
	.uleb128 0x4
	.long	.LASF132
	.long	0x6fac
	.uleb128 0x4
	.long	.LASF155
	.long	0x5e
	.uleb128 0x6
	.string	"_Tp"
	.long	0x3f
	.uleb128 0x5
	.long	.LASF1142
	.byte	0x11
	.value	0x2fc
	.byte	0x32
	.long	0x6fac
	.uleb128 0x2
	.byte	0x91
	.sleb128 -24
	.uleb128 0x16
	.string	"__n"
	.byte	0x11
	.value	0x2fc
	.byte	0x41
	.long	0x5e
	.uleb128 0x2
	.byte	0x91
	.sleb128 -32
	.uleb128 0x23
	.long	0x6fe3
	.uleb128 0x2
	.byte	0x91
	.sleb128 -40
	.byte	0
	.uleb128 0x15
	.long	0x30cc
	.long	0x8c98
	.quad	.LFB3281
	.quad	.LFE3281-.LFB3281
	.uleb128 0x1
	.byte	0x9c
	.long	0x8ca5
	.uleb128 0xf
	.long	.LASF1130
	.long	0x7083
	.uleb128 0x2
	.byte	0x91
	.sleb128 -24
	.byte	0
	.uleb128 0x28
	.long	0x5373
	.long	0x8cc4
	.quad	.LFB3280
	.quad	.LFE3280-.LFB3280
	.uleb128 0x1
	.byte	0x9c
	.long	0x8cd1
	.uleb128 0xf
	.long	.LASF1130
	.long	0x7100
	.uleb128 0x2
	.byte	0x91
	.sleb128 -24
	.byte	0
	.uleb128 0xd
	.long	0x4389
	.quad	.LFB3278
	.quad	.LFE3278-.LFB3278
	.uleb128 0x1
	.byte	0x9c
	.long	0x8d4a
	.uleb128 0x4
	.long	.LASF148
	.long	0x69d4
	.uleb128 0x4
	.long	.LASF132
	.long	0x69bb
	.uleb128 0x17
	.long	.LASF1142
	.byte	0x11
	.byte	0xa3
	.byte	0x27
	.long	0x69d4
	.uleb128 0x2
	.byte	0x91
	.sleb128 -40
	.uleb128 0x17
	.long	.LASF1143
	.byte	0x11
	.byte	0xa3
	.byte	0x3f
	.long	0x69d4
	.uleb128 0x2
	.byte	0x91
	.sleb128 -48
	.uleb128 0x17
	.long	.LASF1146
	.byte	0x11
	.byte	0xa4
	.byte	0x1b
	.long	0x69bb
	.uleb128 0x2
	.byte	0x91
	.sleb128 -56
	.uleb128 0x2e
	.long	.LASF1163
	.byte	0x11
	.byte	0xae
	.byte	0x12
	.long	0x5c6b
	.uleb128 0x2
	.byte	0x91
	.sleb128 -17
	.uleb128 0x2e
	.long	.LASF1164
	.byte	0x11
	.byte	0xb5
	.byte	0x12
	.long	0x5c6b
	.uleb128 0x2
	.byte	0x91
	.sleb128 -18
	.byte	0
	.uleb128 0xd
	.long	0x127e
	.quad	.LFB3277
	.quad	.LFE3277-.LFB3277
	.uleb128 0x1
	.byte	0x9c
	.long	0x8d86
	.uleb128 0x16
	.string	"__a"
	.byte	0xa
	.value	0x1cf
	.byte	0x20
	.long	0x69f7
	.uleb128 0x2
	.byte	0x91
	.sleb128 -24
	.uleb128 0x16
	.string	"__n"
	.byte	0xa
	.value	0x1cf
	.byte	0x2f
	.long	0x12b0
	.uleb128 0x2
	.byte	0x91
	.sleb128 -32
	.byte	0
	.uleb128 0xd
	.long	0x2237
	.quad	.LFB3276
	.quad	.LFE3276-.LFB3276
	.uleb128 0x1
	.byte	0x9c
	.long	0x8dd2
	.uleb128 0x16
	.string	"__a"
	.byte	0x7
	.value	0x777
	.byte	0x29
	.long	0x6a9c
	.uleb128 0x2
	.byte	0x91
	.sleb128 -40
	.uleb128 0x2a
	.long	.LASF1165
	.byte	0x7
	.value	0x77c
	.byte	0xf
	.long	0x566
	.uleb128 0x2
	.byte	0x91
	.sleb128 -24
	.uleb128 0x2a
	.long	.LASF1166
	.byte	0x7
	.value	0x77e
	.byte	0xf
	.long	0x566
	.uleb128 0x2
	.byte	0x91
	.sleb128 -32
	.byte	0
	.uleb128 0x15
	.long	0x2570
	.long	0x8df1
	.quad	.LFB3275
	.quad	.LFE3275-.LFB3275
	.uleb128 0x1
	.byte	0x9c
	.long	0x8e1c
	.uleb128 0xf
	.long	.LASF1130
	.long	0x6fa2
	.uleb128 0x2
	.byte	0x91
	.sleb128 -24
	.uleb128 0x29
	.string	"__p"
	.byte	0xb
	.byte	0x8e
	.byte	0x17
	.long	0x6fac
	.uleb128 0x2
	.byte	0x91
	.sleb128 -32
	.uleb128 0x29
	.string	"__n"
	.byte	0xb
	.byte	0x8e
	.byte	0x26
	.long	0x2564
	.uleb128 0x2
	.byte	0x91
	.sleb128 -40
	.byte	0
	.uleb128 0xd
	.long	0x43bf
	.quad	.LFB3253
	.quad	.LFE3253-.LFB3253
	.uleb128 0x1
	.byte	0x9c
	.long	0x8e84
	.uleb128 0x1f
	.long	.LASF544
	.long	0x5c64
	.byte	0x1
	.uleb128 0x6
	.string	"_II"
	.long	0x592d
	.uleb128 0x6
	.string	"_OI"
	.long	0x56fa
	.uleb128 0x5
	.long	.LASF1142
	.byte	0x2
	.value	0x20f
	.byte	0x17
	.long	0x592d
	.uleb128 0x2
	.byte	0x91
	.sleb128 -40
	.uleb128 0x5
	.long	.LASF1143
	.byte	0x2
	.value	0x20f
	.byte	0x24
	.long	0x592d
	.uleb128 0x2
	.byte	0x91
	.sleb128 -48
	.uleb128 0x5
	.long	.LASF1146
	.byte	0x2
	.value	0x20f
	.byte	0x30
	.long	0x56fa
	.uleb128 0x2
	.byte	0x91
	.sleb128 -56
	.byte	0
	.uleb128 0xd
	.long	0x4400
	.quad	.LFB3252
	.quad	.LFE3252-.LFB3252
	.uleb128 0x1
	.byte	0x9c
	.long	0x8f28
	.uleb128 0x4
	.long	.LASF601
	.long	0x5178
	.uleb128 0x4
	.long	.LASF602
	.long	0x5178
	.uleb128 0x5
	.long	.LASF1149
	.byte	0x2
	.value	0x63b
	.byte	0x13
	.long	0x5178
	.uleb128 0x3
	.byte	0x91
	.sleb128 -72
	.uleb128 0x5
	.long	.LASF1153
	.byte	0x2
	.value	0x63b
	.byte	0x22
	.long	0x5178
	.uleb128 0x3
	.byte	0x91
	.sleb128 -80
	.uleb128 0x5
	.long	.LASF1150
	.byte	0x2
	.value	0x63b
	.byte	0x30
	.long	0x5178
	.uleb128 0x3
	.byte	0x91
	.sleb128 -88
	.uleb128 0x5
	.long	.LASF1174
	.byte	0x2
	.value	0x63b
	.byte	0x3f
	.long	0x5178
	.uleb128 0x3
	.byte	0x91
	.sleb128 -96
	.uleb128 0x4f
	.quad	.LBB55
	.quad	.LBE55-.LBB55
	.uleb128 0x2a
	.long	.LASF1175
	.byte	0x2
	.value	0x643
	.byte	0x9
	.long	0x4d85
	.uleb128 0x2
	.byte	0x91
	.sleb128 -40
	.uleb128 0x2a
	.long	.LASF1176
	.byte	0x2
	.value	0x644
	.byte	0x9
	.long	0x4d85
	.uleb128 0x2
	.byte	0x91
	.sleb128 -48
	.byte	0
	.byte	0
	.uleb128 0x14
	.long	0x13bc
	.long	0x8f35
	.long	0x8f4b
	.uleb128 0x12
	.long	.LASF1130
	.long	0x6a10
	.uleb128 0x45
	.string	"__x"
	.byte	0x7
	.byte	0x69
	.byte	0x28
	.long	0x6a15
	.byte	0
	.uleb128 0x32
	.long	0x8f28
	.long	.LASF1177
	.long	0x8f6e
	.quad	.LFB3250
	.quad	.LFE3250-.LFB3250
	.uleb128 0x1
	.byte	0x9c
	.long	0x8f7f
	.uleb128 0x10
	.long	0x8f35
	.uleb128 0x2
	.byte	0x91
	.sleb128 -24
	.uleb128 0x10
	.long	0x8f3e
	.uleb128 0x2
	.byte	0x91
	.sleb128 -32
	.byte	0
	.uleb128 0x14
	.long	0x1204
	.long	0x8f8c
	.long	0x8fa2
	.uleb128 0x12
	.long	.LASF1130
	.long	0x69e8
	.uleb128 0x45
	.string	"__a"
	.byte	0x9
	.byte	0x9f
	.byte	0x22
	.long	0x69ed
	.byte	0
	.uleb128 0x1c
	.long	0x8f7f
	.long	.LASF1178
	.long	0x8fc5
	.quad	.LFB3247
	.quad	.LFE3247-.LFB3247
	.uleb128 0x1
	.byte	0x9c
	.long	0x8fd6
	.uleb128 0x10
	.long	0x8f8c
	.uleb128 0x2
	.byte	0x91
	.sleb128 -24
	.uleb128 0x10
	.long	0x8f95
	.uleb128 0x2
	.byte	0x91
	.sleb128 -32
	.byte	0
	.uleb128 0x27
	.long	0x38b2
	.uleb128 0xe
	.long	0x1425
	.uleb128 0x25
	.long	0x443c
	.quad	.LFB3245
	.quad	.LFE3245-.LFB3245
	.uleb128 0x1
	.byte	0x9c
	.long	0x9014
	.uleb128 0x6
	.string	"_Tp"
	.long	0x8fdb
	.uleb128 0x29
	.string	"__t"
	.byte	0x8
	.byte	0x68
	.byte	0x10
	.long	0x8fdb
	.uleb128 0x2
	.byte	0x91
	.sleb128 -24
	.byte	0
	.uleb128 0xd
	.long	0x445f
	.quad	.LFB3243
	.quad	.LFE3243-.LFB3243
	.uleb128 0x1
	.byte	0x9c
	.long	0x907c
	.uleb128 0x1f
	.long	.LASF544
	.long	0x5c64
	.byte	0
	.uleb128 0x6
	.string	"_II"
	.long	0x592d
	.uleb128 0x6
	.string	"_OI"
	.long	0x56fa
	.uleb128 0x5
	.long	.LASF1142
	.byte	0x2
	.value	0x20f
	.byte	0x17
	.long	0x592d
	.uleb128 0x2
	.byte	0x91
	.sleb128 -40
	.uleb128 0x5
	.long	.LASF1143
	.byte	0x2
	.value	0x20f
	.byte	0x24
	.long	0x592d
	.uleb128 0x2
	.byte	0x91
	.sleb128 -48
	.uleb128 0x5
	.long	.LASF1146
	.byte	0x2
	.value	0x20f
	.byte	0x30
	.long	0x56fa
	.uleb128 0x2
	.byte	0x91
	.sleb128 -56
	.byte	0
	.uleb128 0x25
	.long	0x44a0
	.quad	.LFB3242
	.quad	.LFE3242-.LFB3242
	.uleb128 0x1
	.byte	0x9c
	.long	0x90b1
	.uleb128 0x4
	.long	.LASF537
	.long	0x592d
	.uleb128 0x5
	.long	.LASF1148
	.byte	0x14
	.value	0x232
	.byte	0x1c
	.long	0x592d
	.uleb128 0x2
	.byte	0x91
	.sleb128 -24
	.byte	0
	.uleb128 0x14
	.long	0x572c
	.long	0x90be
	.long	0x90d5
	.uleb128 0x12
	.long	.LASF1130
	.long	0x712d
	.uleb128 0x31
	.string	"__i"
	.byte	0x12
	.value	0x430
	.byte	0x2a
	.long	0x7132
	.byte	0
	.uleb128 0x32
	.long	0x90b1
	.long	.LASF1179
	.long	0x90f8
	.quad	.LFB3240
	.quad	.LFE3240-.LFB3240
	.uleb128 0x1
	.byte	0x9c
	.long	0x9109
	.uleb128 0x10
	.long	0x90be
	.uleb128 0x2
	.byte	0x91
	.sleb128 -24
	.uleb128 0x10
	.long	0x90c7
	.uleb128 0x2
	.byte	0x91
	.sleb128 -32
	.byte	0
	.uleb128 0x14
	.long	0x595f
	.long	0x9116
	.long	0x912d
	.uleb128 0x12
	.long	.LASF1130
	.long	0x710f
	.uleb128 0x31
	.string	"__i"
	.byte	0x12
	.value	0x430
	.byte	0x2a
	.long	0x7114
	.byte	0
	.uleb128 0x32
	.long	0x9109
	.long	.LASF1180
	.long	0x9150
	.quad	.LFB3237
	.quad	.LFE3237-.LFB3237
	.uleb128 0x1
	.byte	0x9c
	.long	0x9161
	.uleb128 0x10
	.long	0x9116
	.uleb128 0x2
	.byte	0x91
	.sleb128 -24
	.uleb128 0x10
	.long	0x911f
	.uleb128 0x2
	.byte	0x91
	.sleb128 -32
	.byte	0
	.uleb128 0x15
	.long	0x22be
	.long	0x9180
	.quad	.LFB3235
	.quad	.LFE3235-.LFB3235
	.uleb128 0x1
	.byte	0x9c
	.long	0x91b7
	.uleb128 0xf
	.long	.LASF1130
	.long	0x6a6a
	.uleb128 0x3
	.byte	0x91
	.sleb128 -72
	.uleb128 0x16
	.string	"__x"
	.byte	0x7
	.value	0x7a2
	.byte	0x1f
	.long	0x6a7e
	.uleb128 0x3
	.byte	0x91
	.sleb128 -80
	.uleb128 0x23
	.long	0xb67
	.uleb128 0x2
	.byte	0x91
	.sleb128 0
	.uleb128 0x2a
	.long	.LASF1145
	.byte	0x7
	.value	0x7a4
	.byte	0x9
	.long	0x172c
	.uleb128 0x2
	.byte	0x91
	.sleb128 -64
	.byte	0
	.uleb128 0x14
	.long	0x191d
	.long	0x91c4
	.long	0x91db
	.uleb128 0x12
	.long	.LASF1130
	.long	0x6a6a
	.uleb128 0x31
	.string	"__x"
	.byte	0x7
	.value	0x254
	.byte	0x1c
	.long	0x6a79
	.byte	0
	.uleb128 0x1c
	.long	0x91b7
	.long	.LASF1181
	.long	0x91fe
	.quad	.LFB3233
	.quad	.LFE3233-.LFB3233
	.uleb128 0x1
	.byte	0x9c
	.long	0x9211
	.uleb128 0x10
	.long	0x91c4
	.uleb128 0x3
	.byte	0x91
	.sleb128 -72
	.uleb128 0x10
	.long	0x91cd
	.uleb128 0x3
	.byte	0x91
	.sleb128 -80
	.byte	0
	.uleb128 0x25
	.long	0xc10
	.quad	.LFB3231
	.quad	.LFE3231-.LFB3231
	.uleb128 0x1
	.byte	0x9c
	.long	0x9246
	.uleb128 0x4
	.long	.LASF132
	.long	0x69bb
	.uleb128 0x23
	.long	0x69bb
	.uleb128 0x2
	.byte	0x91
	.sleb128 -24
	.uleb128 0x23
	.long	0x69bb
	.uleb128 0x2
	.byte	0x91
	.sleb128 -32
	.byte	0
	.uleb128 0xd
	.long	0x12ef
	.quad	.LFB3230
	.quad	.LFE3230-.LFB3230
	.uleb128 0x1
	.byte	0x9c
	.long	0x9292
	.uleb128 0x16
	.string	"__a"
	.byte	0xa
	.value	0x1ef
	.byte	0x22
	.long	0x69f7
	.uleb128 0x2
	.byte	0x91
	.sleb128 -24
	.uleb128 0x16
	.string	"__p"
	.byte	0xa
	.value	0x1ef
	.byte	0x2f
	.long	0x1271
	.uleb128 0x2
	.byte	0x91
	.sleb128 -32
	.uleb128 0x16
	.string	"__n"
	.byte	0xa
	.value	0x1ef
	.byte	0x3e
	.long	0x12b0
	.uleb128 0x2
	.byte	0x91
	.sleb128 -40
	.byte	0
	.uleb128 0x25
	.long	0xc34
	.quad	.LFB3229
	.quad	.LFE3229-.LFB3229
	.uleb128 0x1
	.byte	0x9c
	.long	0x92c7
	.uleb128 0x4
	.long	.LASF132
	.long	0x6fac
	.uleb128 0x23
	.long	0x6fac
	.uleb128 0x2
	.byte	0x91
	.sleb128 -24
	.uleb128 0x23
	.long	0x6fac
	.uleb128 0x2
	.byte	0x91
	.sleb128 -32
	.byte	0
	.uleb128 0x15
	.long	0x3659
	.long	0x92e6
	.quad	.LFB3228
	.quad	.LFE3228-.LFB3228
	.uleb128 0x1
	.byte	0x9c
	.long	0x9324
	.uleb128 0xf
	.long	.LASF1130
	.long	0x705b
	.uleb128 0x2
	.byte	0x91
	.sleb128 -40
	.uleb128 0x5
	.long	.LASF1011
	.byte	0x7
	.value	0x788
	.byte	0x1f
	.long	0x2bc1
	.uleb128 0x2
	.byte	0x91
	.sleb128 -48
	.uleb128 0x4f
	.quad	.LBB47
	.quad	.LBE47-.LBB47
	.uleb128 0x75
	.string	"__n"
	.value	0x78a
	.byte	0x10
	.long	0x2cd7
	.uleb128 0x2
	.byte	0x91
	.sleb128 -24
	.byte	0
	.byte	0
	.uleb128 0x15
	.long	0x3563
	.long	0x9343
	.quad	.LFB3224
	.quad	.LFE3224-.LFB3224
	.uleb128 0x1
	.byte	0x9c
	.long	0x93ae
	.uleb128 0xf
	.long	.LASF1130
	.long	0x705b
	.uleb128 0x3
	.byte	0x91
	.sleb128 -72
	.uleb128 0x16
	.string	"__n"
	.byte	0x13
	.value	0x273
	.byte	0x21
	.long	0x2cd7
	.uleb128 0x3
	.byte	0x91
	.sleb128 -80
	.uleb128 0x76
	.long	.LLRL0
	.uleb128 0x2a
	.long	.LASF1182
	.byte	0x13
	.value	0x277
	.byte	0x14
	.long	0x2ce4
	.uleb128 0x2
	.byte	0x91
	.sleb128 -40
	.uleb128 0x2a
	.long	.LASF1183
	.byte	0x13
	.value	0x278
	.byte	0xe
	.long	0x2cd7
	.uleb128 0x2
	.byte	0x91
	.sleb128 -48
	.uleb128 0x76
	.long	.LLRL1
	.uleb128 0x2a
	.long	.LASF1154
	.byte	0x13
	.value	0x288
	.byte	0x18
	.long	0x2ce4
	.uleb128 0x2
	.byte	0x91
	.sleb128 -56
	.uleb128 0x2a
	.long	.LASF1184
	.byte	0x13
	.value	0x28a
	.byte	0x10
	.long	0x2bc1
	.uleb128 0x2
	.byte	0x91
	.sleb128 -64
	.byte	0
	.byte	0
	.byte	0
	.uleb128 0x28
	.long	0x51d6
	.long	0x93cd
	.quad	.LFB3223
	.quad	.LFE3223-.LFB3223
	.uleb128 0x1
	.byte	0x9c
	.long	0x93da
	.uleb128 0xf
	.long	.LASF1130
	.long	0x7100
	.uleb128 0x2
	.byte	0x91
	.sleb128 -24
	.byte	0
	.uleb128 0x28
	.long	0x5223
	.long	0x93f9
	.quad	.LFB3222
	.quad	.LFE3222-.LFB3222
	.uleb128 0x1
	.byte	0x9c
	.long	0x9406
	.uleb128 0xf
	.long	.LASF1130
	.long	0x70f1
	.uleb128 0x2
	.byte	0x91
	.sleb128 -24
	.byte	0
	.uleb128 0xd
	.long	0x5bc4
	.quad	.LFB3221
	.quad	.LFE3221-.LFB3221
	.uleb128 0x1
	.byte	0x9c
	.long	0x9454
	.uleb128 0x4
	.long	.LASF537
	.long	0x69bb
	.uleb128 0x4
	.long	.LASF561
	.long	0x172c
	.uleb128 0x5
	.long	.LASF1157
	.byte	0x12
	.value	0x4d5
	.byte	0x40
	.long	0x7b27
	.uleb128 0x2
	.byte	0x91
	.sleb128 -40
	.uleb128 0x5
	.long	.LASF1158
	.byte	0x12
	.value	0x4d6
	.byte	0x39
	.long	0x7b27
	.uleb128 0x2
	.byte	0x91
	.sleb128 -48
	.byte	0
	.uleb128 0x14
	.long	0x51aa
	.long	0x9461
	.long	0x9478
	.uleb128 0x12
	.long	.LASF1130
	.long	0x70f1
	.uleb128 0x31
	.string	"__i"
	.byte	0x12
	.value	0x430
	.byte	0x2a
	.long	0x70f6
	.byte	0
	.uleb128 0x32
	.long	0x9454
	.long	.LASF1185
	.long	0x949b
	.quad	.LFB3219
	.quad	.LFE3219-.LFB3219
	.uleb128 0x1
	.byte	0x9c
	.long	0x94ac
	.uleb128 0x10
	.long	0x9461
	.uleb128 0x2
	.byte	0x91
	.sleb128 -24
	.uleb128 0x10
	.long	0x946a
	.uleb128 0x2
	.byte	0x91
	.sleb128 -32
	.byte	0
	.uleb128 0xd
	.long	0x44c4
	.quad	.LFB3217
	.quad	.LFE3217-.LFB3217
	.uleb128 0x1
	.byte	0x9c
	.long	0x951b
	.uleb128 0x4
	.long	.LASF148
	.long	0x69d4
	.uleb128 0x4
	.long	.LASF132
	.long	0x69bb
	.uleb128 0x6
	.string	"_Tp"
	.long	0x4d85
	.uleb128 0x5
	.long	.LASF1142
	.byte	0x11
	.value	0x16d
	.byte	0x2b
	.long	0x69d4
	.uleb128 0x2
	.byte	0x91
	.sleb128 -24
	.uleb128 0x5
	.long	.LASF1143
	.byte	0x11
	.value	0x16d
	.byte	0x43
	.long	0x69d4
	.uleb128 0x2
	.byte	0x91
	.sleb128 -32
	.uleb128 0x5
	.long	.LASF1146
	.byte	0x11
	.value	0x16e
	.byte	0x18
	.long	0x69bb
	.uleb128 0x2
	.byte	0x91
	.sleb128 -40
	.uleb128 0x23
	.long	0x69f2
	.uleb128 0x2
	.byte	0x91
	.sleb128 -48
	.byte	0
	.uleb128 0x15
	.long	0x168b
	.long	0x953a
	.quad	.LFB3216
	.quad	.LFE3216-.LFB3216
	.uleb128 0x1
	.byte	0x9c
	.long	0x9557
	.uleb128 0xf
	.long	.LASF1130
	.long	0x6a47
	.uleb128 0x2
	.byte	0x91
	.sleb128 -24
	.uleb128 0x16
	.string	"__n"
	.byte	0x7
	.value	0x177
	.byte	0x1a
	.long	0x559
	.uleb128 0x2
	.byte	0x91
	.sleb128 -32
	.byte	0
	.uleb128 0xd
	.long	0x2219
	.quad	.LFB3215
	.quad	.LFE3215-.LFB3215
	.uleb128 0x1
	.byte	0x9c
	.long	0x9593
	.uleb128 0x16
	.string	"__n"
	.byte	0x7
	.value	0x76e
	.byte	0x23
	.long	0x18ce
	.uleb128 0x2
	.byte	0x91
	.sleb128 -56
	.uleb128 0x16
	.string	"__a"
	.byte	0x7
	.value	0x76e
	.byte	0x3e
	.long	0x6a6f
	.uleb128 0x2
	.byte	0x91
	.sleb128 -64
	.byte	0
	.uleb128 0x25
	.long	0x4509
	.quad	.LFB3214
	.quad	.LFE3214-.LFB3214
	.uleb128 0x1
	.byte	0x9c
	.long	0x95de
	.uleb128 0x4
	.long	.LASF618
	.long	0x69d4
	.uleb128 0x17
	.long	.LASF1142
	.byte	0xd
	.byte	0x63
	.byte	0x26
	.long	0x69d4
	.uleb128 0x2
	.byte	0x91
	.sleb128 -24
	.uleb128 0x17
	.long	.LASF1143
	.byte	0xd
	.byte	0x63
	.byte	0x45
	.long	0x69d4
	.uleb128 0x2
	.byte	0x91
	.sleb128 -32
	.uleb128 0x23
	.long	0xba3
	.uleb128 0x2
	.byte	0x91
	.sleb128 0
	.byte	0
	.uleb128 0x25
	.long	0x4536
	.quad	.LFB3213
	.quad	.LFE3213-.LFB3213
	.uleb128 0x1
	.byte	0x9c
	.long	0x960b
	.uleb128 0x4
	.long	.LASF578
	.long	0x69d4
	.uleb128 0x23
	.long	0x7150
	.uleb128 0x2
	.byte	0x91
	.sleb128 -24
	.byte	0
	.uleb128 0x28
	.long	0x23ea
	.long	0x962a
	.quad	.LFB3212
	.quad	.LFE3212-.LFB3212
	.uleb128 0x1
	.byte	0x9c
	.long	0x9637
	.uleb128 0xf
	.long	.LASF1130
	.long	0x70e7
	.uleb128 0x2
	.byte	0x91
	.sleb128 -24
	.byte	0
	.uleb128 0x14
	.long	0x1456
	.long	0x9644
	.long	0x965a
	.uleb128 0x12
	.long	.LASF1130
	.long	0x6a29
	.uleb128 0x45
	.string	"__a"
	.byte	0x7
	.byte	0x8f
	.byte	0x25
	.long	0x6a2e
	.byte	0
	.uleb128 0x1c
	.long	0x9637
	.long	.LASF1186
	.long	0x967d
	.quad	.LFB3210
	.quad	.LFE3210-.LFB3210
	.uleb128 0x1
	.byte	0x9c
	.long	0x968e
	.uleb128 0x10
	.long	0x9644
	.uleb128 0x2
	.byte	0x91
	.sleb128 -24
	.uleb128 0x10
	.long	0x964d
	.uleb128 0x2
	.byte	0x91
	.sleb128 -32
	.byte	0
	.uleb128 0xd
	.long	0x26f8
	.quad	.LFB3208
	.quad	.LFE3208-.LFB3208
	.uleb128 0x1
	.byte	0x9c
	.long	0x96da
	.uleb128 0x16
	.string	"__a"
	.byte	0xa
	.value	0x1ef
	.byte	0x22
	.long	0x6fe8
	.uleb128 0x2
	.byte	0x91
	.sleb128 -24
	.uleb128 0x16
	.string	"__p"
	.byte	0xa
	.value	0x1ef
	.byte	0x2f
	.long	0x267a
	.uleb128 0x2
	.byte	0x91
	.sleb128 -32
	.uleb128 0x16
	.string	"__n"
	.byte	0xa
	.value	0x1ef
	.byte	0x3e
	.long	0x26b9
	.uleb128 0x2
	.byte	0x91
	.sleb128 -40
	.byte	0
	.uleb128 0x14
	.long	0x246b
	.long	0x96e7
	.long	0x96f1
	.uleb128 0x12
	.long	.LASF1130
	.long	0x6fa2
	.byte	0
	.uleb128 0x32
	.long	0x96da
	.long	.LASF1187
	.long	0x9714
	.quad	.LFB3206
	.quad	.LFE3206-.LFB3206
	.uleb128 0x1
	.byte	0x9c
	.long	0x971d
	.uleb128 0x10
	.long	0x96e7
	.uleb128 0x2
	.byte	0x91
	.sleb128 -24
	.byte	0
	.uleb128 0xd
	.long	0x4559
	.quad	.LFB3150
	.quad	.LFE3150-.LFB3150
	.uleb128 0x1
	.byte	0x9c
	.long	0x977b
	.uleb128 0x6
	.string	"_II"
	.long	0x592d
	.uleb128 0x6
	.string	"_OI"
	.long	0x56fa
	.uleb128 0x5
	.long	.LASF1142
	.byte	0x2
	.value	0x284
	.byte	0xe
	.long	0x592d
	.uleb128 0x2
	.byte	0x91
	.sleb128 -40
	.uleb128 0x5
	.long	.LASF1143
	.byte	0x2
	.value	0x284
	.byte	0x1b
	.long	0x592d
	.uleb128 0x2
	.byte	0x91
	.sleb128 -48
	.uleb128 0x5
	.long	.LASF1146
	.byte	0x2
	.value	0x284
	.byte	0x27
	.long	0x56fa
	.uleb128 0x2
	.byte	0x91
	.sleb128 -56
	.byte	0
	.uleb128 0x15
	.long	0x6e0e
	.long	0x979a
	.quad	.LFB3149
	.quad	.LFE3149-.LFB3149
	.uleb128 0x1
	.byte	0x9c
	.long	0x97a7
	.uleb128 0xf
	.long	.LASF1130
	.long	0x70d8
	.uleb128 0x2
	.byte	0x91
	.sleb128 -24
	.byte	0
	.uleb128 0xd
	.long	0x4590
	.quad	.LFB3148
	.quad	.LFE3148-.LFB3148
	.uleb128 0x1
	.byte	0x9c
	.long	0x9815
	.uleb128 0x4
	.long	.LASF601
	.long	0x5178
	.uleb128 0x4
	.long	.LASF602
	.long	0x5178
	.uleb128 0x5
	.long	.LASF1149
	.byte	0x2
	.value	0x682
	.byte	0x10
	.long	0x5178
	.uleb128 0x2
	.byte	0x91
	.sleb128 -24
	.uleb128 0x5
	.long	.LASF1153
	.byte	0x2
	.value	0x682
	.byte	0x1f
	.long	0x5178
	.uleb128 0x2
	.byte	0x91
	.sleb128 -32
	.uleb128 0x5
	.long	.LASF1150
	.byte	0x2
	.value	0x682
	.byte	0x2d
	.long	0x5178
	.uleb128 0x2
	.byte	0x91
	.sleb128 -40
	.uleb128 0x5
	.long	.LASF1174
	.byte	0x2
	.value	0x682
	.byte	0x3c
	.long	0x5178
	.uleb128 0x2
	.byte	0x91
	.sleb128 -48
	.byte	0
	.uleb128 0x14
	.long	0x1475
	.long	0x9822
	.long	0x9838
	.uleb128 0x12
	.long	.LASF1130
	.long	0x6a29
	.uleb128 0x45
	.string	"__x"
	.byte	0x7
	.byte	0x97
	.byte	0x1e
	.long	0x6a33
	.byte	0
	.uleb128 0x1c
	.long	0x9815
	.long	.LASF1188
	.long	0x985b
	.quad	.LFB3146
	.quad	.LFE3146-.LFB3146
	.uleb128 0x1
	.byte	0x9c
	.long	0x986c
	.uleb128 0x10
	.long	0x9822
	.uleb128 0x2
	.byte	0x91
	.sleb128 -40
	.uleb128 0x10
	.long	0x982b
	.uleb128 0x2
	.byte	0x91
	.sleb128 -48
	.byte	0
	.uleb128 0x27
	.long	0x3851
	.uleb128 0x25
	.long	0x45cc
	.quad	.LFB3144
	.quad	.LFE3144-.LFB3144
	.uleb128 0x1
	.byte	0x9c
	.long	0x98a5
	.uleb128 0x6
	.string	"_Tp"
	.long	0x172c
	.uleb128 0x29
	.string	"__t"
	.byte	0x8
	.byte	0x68
	.byte	0x10
	.long	0x6a7e
	.uleb128 0x2
	.byte	0x91
	.sleb128 -24
	.byte	0
	.uleb128 0x15
	.long	0x6e2d
	.long	0x98c4
	.quad	.LFB3143
	.quad	.LFE3143-.LFB3143
	.uleb128 0x1
	.byte	0x9c
	.long	0x98d1
	.uleb128 0xf
	.long	.LASF1130
	.long	0x70d8
	.uleb128 0x2
	.byte	0x91
	.sleb128 -32
	.byte	0
	.uleb128 0xd
	.long	0x45ef
	.quad	.LFB3142
	.quad	.LFE3142-.LFB3142
	.uleb128 0x1
	.byte	0x9c
	.long	0x992f
	.uleb128 0x6
	.string	"_II"
	.long	0x592d
	.uleb128 0x6
	.string	"_OI"
	.long	0x56fa
	.uleb128 0x5
	.long	.LASF1142
	.byte	0x2
	.value	0x263
	.byte	0xe
	.long	0x592d
	.uleb128 0x2
	.byte	0x91
	.sleb128 -40
	.uleb128 0x5
	.long	.LASF1143
	.byte	0x2
	.value	0x263
	.byte	0x1b
	.long	0x592d
	.uleb128 0x2
	.byte	0x91
	.sleb128 -48
	.uleb128 0x5
	.long	.LASF1146
	.byte	0x2
	.value	0x263
	.byte	0x27
	.long	0x56fa
	.uleb128 0x2
	.byte	0x91
	.sleb128 -56
	.byte	0
	.uleb128 0x15
	.long	0x2f0b
	.long	0x994e
	.quad	.LFB3141
	.quad	.LFE3141-.LFB3141
	.uleb128 0x1
	.byte	0x9c
	.long	0x995b
	.uleb128 0xf
	.long	.LASF1130
	.long	0x705b
	.uleb128 0x2
	.byte	0x91
	.sleb128 -40
	.byte	0
	.uleb128 0x15
	.long	0x2f75
	.long	0x997a
	.quad	.LFB3140
	.quad	.LFE3140-.LFB3140
	.uleb128 0x1
	.byte	0x9c
	.long	0x9987
	.uleb128 0xf
	.long	.LASF1130
	.long	0x7083
	.uleb128 0x2
	.byte	0x91
	.sleb128 -40
	.byte	0
	.uleb128 0x15
	.long	0x2f38
	.long	0x99a6
	.quad	.LFB3139
	.quad	.LFE3139-.LFB3139
	.uleb128 0x1
	.byte	0x9c
	.long	0x99b3
	.uleb128 0xf
	.long	.LASF1130
	.long	0x7083
	.uleb128 0x2
	.byte	0x91
	.sleb128 -40
	.byte	0
	.uleb128 0x15
	.long	0x1a64
	.long	0x99d2
	.quad	.LFB3138
	.quad	.LFE3138-.LFB3138
	.uleb128 0x1
	.byte	0x9c
	.long	0x99ff
	.uleb128 0xf
	.long	.LASF1130
	.long	0x6a6a
	.uleb128 0x2
	.byte	0x91
	.sleb128 -40
	.uleb128 0x16
	.string	"__x"
	.byte	0x7
	.value	0x2f9
	.byte	0x1a
	.long	0x6a7e
	.uleb128 0x2
	.byte	0x91
	.sleb128 -48
	.uleb128 0x74
	.long	.LASF1190
	.byte	0x7
	.value	0x2fb
	.byte	0x11
	.long	0x5c6b
	.uleb128 0x2
	.byte	0x91
	.sleb128 -17
	.byte	0
	.uleb128 0x27
	.long	0x37b2
	.uleb128 0x25
	.long	0x4626
	.quad	.LFB3137
	.quad	.LFE3137-.LFB3137
	.uleb128 0x1
	.byte	0x9c
	.long	0x9a38
	.uleb128 0x6
	.string	"_Tp"
	.long	0x6a88
	.uleb128 0x29
	.string	"__t"
	.byte	0x8
	.byte	0x68
	.byte	0x10
	.long	0x6a88
	.uleb128 0x2
	.byte	0x91
	.sleb128 -24
	.byte	0
	.uleb128 0x15
	.long	0x6baf
	.long	0x9a57
	.quad	.LFB3136
	.quad	.LFE3136-.LFB3136
	.uleb128 0x1
	.byte	0x9c
	.long	0x9a64
	.uleb128 0xf
	.long	.LASF1130
	.long	0x70b0
	.uleb128 0x2
	.byte	0x91
	.sleb128 -32
	.byte	0
	.uleb128 0x14
	.long	0x13a2
	.long	0x9a71
	.long	0x9a7b
	.uleb128 0x12
	.long	.LASF1130
	.long	0x6a10
	.byte	0
	.uleb128 0x32
	.long	0x9a64
	.long	.LASF1191
	.long	0x9a9e
	.quad	.LFB3134
	.quad	.LFE3134-.LFB3134
	.uleb128 0x1
	.byte	0x9c
	.long	0x9aa7
	.uleb128 0x10
	.long	0x9a71
	.uleb128 0x2
	.byte	0x91
	.sleb128 -24
	.byte	0
	.uleb128 0x28
	.long	0x30ac
	.long	0x9ac6
	.quad	.LFB3132
	.quad	.LFE3132-.LFB3132
	.uleb128 0x1
	.byte	0x9c
	.long	0x9ad3
	.uleb128 0xf
	.long	.LASF1130
	.long	0x7083
	.uleb128 0x2
	.byte	0x91
	.sleb128 -24
	.byte	0
	.uleb128 0xd
	.long	0x4649
	.quad	.LFB3131
	.quad	.LFE3131-.LFB3131
	.uleb128 0x1
	.byte	0x9c
	.long	0x9b16
	.uleb128 0x4
	.long	.LASF132
	.long	0x69bb
	.uleb128 0x17
	.long	.LASF1142
	.byte	0xf
	.byte	0xb6
	.byte	0x1f
	.long	0x69bb
	.uleb128 0x2
	.byte	0x91
	.sleb128 -24
	.uleb128 0x17
	.long	.LASF1143
	.byte	0xf
	.byte	0xb6
	.byte	0x39
	.long	0x69bb
	.uleb128 0x2
	.byte	0x91
	.sleb128 -32
	.byte	0
	.uleb128 0x15
	.long	0x16ad
	.long	0x9b35
	.quad	.LFB3130
	.quad	.LFE3130-.LFB3130
	.uleb128 0x1
	.byte	0x9c
	.long	0x9b62
	.uleb128 0xf
	.long	.LASF1130
	.long	0x6a47
	.uleb128 0x2
	.byte	0x91
	.sleb128 -24
	.uleb128 0x16
	.string	"__p"
	.byte	0x7
	.value	0x17f
	.byte	0x1d
	.long	0x1419
	.uleb128 0x2
	.byte	0x91
	.sleb128 -32
	.uleb128 0x16
	.string	"__n"
	.byte	0x7
	.value	0x17f
	.byte	0x29
	.long	0x559
	.uleb128 0x2
	.byte	0x91
	.sleb128 -40
	.byte	0
	.uleb128 0xd
	.long	0x466d
	.quad	.LFB3128
	.quad	.LFE3128-.LFB3128
	.uleb128 0x1
	.byte	0x9c
	.long	0x9ba5
	.uleb128 0x4
	.long	.LASF132
	.long	0x6fac
	.uleb128 0x17
	.long	.LASF1142
	.byte	0xf
	.byte	0xb6
	.byte	0x1f
	.long	0x6fac
	.uleb128 0x2
	.byte	0x91
	.sleb128 -24
	.uleb128 0x17
	.long	.LASF1143
	.byte	0xf
	.byte	0xb6
	.byte	0x39
	.long	0x6fac
	.uleb128 0x2
	.byte	0x91
	.sleb128 -32
	.byte	0
	.uleb128 0x15
	.long	0x30ec
	.long	0x9bc4
	.quad	.LFB3127
	.quad	.LFE3127-.LFB3127
	.uleb128 0x1
	.byte	0x9c
	.long	0x9be1
	.uleb128 0xf
	.long	.LASF1130
	.long	0x705b
	.uleb128 0x2
	.byte	0x91
	.sleb128 -24
	.uleb128 0x5
	.long	.LASF1192
	.byte	0x7
	.value	0x3f0
	.byte	0x18
	.long	0x2cd7
	.uleb128 0x2
	.byte	0x91
	.sleb128 -32
	.byte	0
	.uleb128 0xe
	.long	0x6d1f
	.uleb128 0xd
	.long	0x4691
	.quad	.LFB3126
	.quad	.LFE3126-.LFB3126
	.uleb128 0x1
	.byte	0x9c
	.long	0x9c44
	.uleb128 0x4
	.long	.LASF690
	.long	0x5178
	.uleb128 0x4
	.long	.LASF691
	.long	0xa4cb
	.uleb128 0x5
	.long	.LASF1142
	.byte	0xe
	.value	0xec5
	.byte	0x1d
	.long	0x5178
	.uleb128 0x2
	.byte	0x91
	.sleb128 -24
	.uleb128 0x5
	.long	.LASF1143
	.byte	0xe
	.value	0xec5
	.byte	0x35
	.long	0x5178
	.uleb128 0x2
	.byte	0x91
	.sleb128 -32
	.uleb128 0x16
	.string	"__f"
	.byte	0xe
	.value	0xec5
	.byte	0x47
	.long	0xa4cb
	.uleb128 0x2
	.byte	0x91
	.sleb128 -40
	.byte	0
	.uleb128 0x15
	.long	0x1b4f
	.long	0x9c63
	.quad	.LFB3125
	.quad	.LFE3125-.LFB3125
	.uleb128 0x1
	.byte	0x9c
	.long	0x9c70
	.uleb128 0xf
	.long	.LASF1130
	.long	0x6a6a
	.uleb128 0x2
	.byte	0x91
	.sleb128 -40
	.byte	0
	.uleb128 0x15
	.long	0x1b02
	.long	0x9c8f
	.quad	.LFB3124
	.quad	.LFE3124-.LFB3124
	.uleb128 0x1
	.byte	0x9c
	.long	0x9c9c
	.uleb128 0xf
	.long	.LASF1130
	.long	0x6a6a
	.uleb128 0x2
	.byte	0x91
	.sleb128 -40
	.byte	0
	.uleb128 0x15
	.long	0x2304
	.long	0x9cc4
	.quad	.LFB3122
	.quad	.LFE3122-.LFB3122
	.uleb128 0x1
	.byte	0x9c
	.long	0x9d09
	.uleb128 0x4
	.long	.LASF132
	.long	0x69d4
	.uleb128 0xf
	.long	.LASF1130
	.long	0x6a6a
	.uleb128 0x2
	.byte	0x91
	.sleb128 -56
	.uleb128 0x5
	.long	.LASF1142
	.byte	0x7
	.value	0x692
	.byte	0x27
	.long	0x69d4
	.uleb128 0x2
	.byte	0x91
	.sleb128 -64
	.uleb128 0x5
	.long	.LASF1143
	.byte	0x7
	.value	0x692
	.byte	0x41
	.long	0x69d4
	.uleb128 0x3
	.byte	0x91
	.sleb128 -72
	.uleb128 0x23
	.long	0xb7d
	.uleb128 0x2
	.byte	0x91
	.sleb128 0
	.uleb128 0x75
	.string	"__n"
	.value	0x695
	.byte	0x14
	.long	0x18db
	.uleb128 0x2
	.byte	0x91
	.sleb128 -40
	.byte	0
	.uleb128 0xd
	.long	0x46c8
	.quad	.LFB3123
	.quad	.LFE3123-.LFB3123
	.uleb128 0x1
	.byte	0x9c
	.long	0x9d4c
	.uleb128 0x4
	.long	.LASF148
	.long	0x69d4
	.uleb128 0x17
	.long	.LASF1142
	.byte	0xd
	.byte	0x93
	.byte	0x1d
	.long	0x69d4
	.uleb128 0x2
	.byte	0x91
	.sleb128 -24
	.uleb128 0x17
	.long	.LASF1143
	.byte	0xd
	.byte	0x93
	.byte	0x35
	.long	0x69d4
	.uleb128 0x2
	.byte	0x91
	.sleb128 -32
	.byte	0
	.uleb128 0x15
	.long	0x2428
	.long	0x9d6b
	.quad	.LFB3121
	.quad	.LFE3121-.LFB3121
	.uleb128 0x1
	.byte	0x9c
	.long	0x9d78
	.uleb128 0xf
	.long	.LASF1130
	.long	0x70e7
	.uleb128 0x2
	.byte	0x91
	.sleb128 -40
	.byte	0
	.uleb128 0x28
	.long	0x2409
	.long	0x9d97
	.quad	.LFB3120
	.quad	.LFE3120-.LFB3120
	.uleb128 0x1
	.byte	0x9c
	.long	0x9da4
	.uleb128 0xf
	.long	.LASF1130
	.long	0x70e7
	.uleb128 0x2
	.byte	0x91
	.sleb128 -24
	.byte	0
	.uleb128 0x14
	.long	0x1583
	.long	0x9db1
	.long	0x9dc8
	.uleb128 0x12
	.long	.LASF1130
	.long	0x6a47
	.uleb128 0x31
	.string	"__a"
	.byte	0x7
	.value	0x13e
	.byte	0x2a
	.long	0x6a56
	.byte	0
	.uleb128 0x1c
	.long	0x9da4
	.long	.LASF1193
	.long	0x9deb
	.quad	.LFB3118
	.quad	.LFE3118-.LFB3118
	.uleb128 0x1
	.byte	0x9c
	.long	0x9dfc
	.uleb128 0x10
	.long	0x9db1
	.uleb128 0x2
	.byte	0x91
	.sleb128 -24
	.uleb128 0x10
	.long	0x9dba
	.uleb128 0x2
	.byte	0x91
	.sleb128 -32
	.byte	0
	.uleb128 0x14
	.long	0x109b
	.long	0x9e09
	.long	0x9e1c
	.uleb128 0x12
	.long	.LASF1130
	.long	0x69b1
	.uleb128 0x12
	.long	.LASF1194
	.long	0x11f
	.byte	0
	.uleb128 0x32
	.long	0x9dfc
	.long	.LASF1195
	.long	0x9e3f
	.quad	.LFB3115
	.quad	.LFE3115-.LFB3115
	.uleb128 0x1
	.byte	0x9c
	.long	0x9e48
	.uleb128 0x10
	.long	0x9e09
	.uleb128 0x2
	.byte	0x91
	.sleb128 -24
	.byte	0
	.uleb128 0x14
	.long	0x1062
	.long	0x9e55
	.long	0x9e5f
	.uleb128 0x12
	.long	.LASF1130
	.long	0x69b1
	.byte	0
	.uleb128 0x32
	.long	0x9e48
	.long	.LASF1196
	.long	0x9e82
	.quad	.LFB3112
	.quad	.LFE3112-.LFB3112
	.uleb128 0x1
	.byte	0x9c
	.long	0x9e8b
	.uleb128 0x10
	.long	0x9e55
	.uleb128 0x2
	.byte	0x91
	.sleb128 -24
	.byte	0
	.uleb128 0x15
	.long	0x2ab6
	.long	0x9eaa
	.quad	.LFB3110
	.quad	.LFE3110-.LFB3110
	.uleb128 0x1
	.byte	0x9c
	.long	0x9ed7
	.uleb128 0xf
	.long	.LASF1130
	.long	0x7038
	.uleb128 0x2
	.byte	0x91
	.sleb128 -24
	.uleb128 0x16
	.string	"__p"
	.byte	0x7
	.value	0x17f
	.byte	0x1d
	.long	0x2822
	.uleb128 0x2
	.byte	0x91
	.sleb128 -32
	.uleb128 0x16
	.string	"__n"
	.byte	0x7
	.value	0x17f
	.byte	0x29
	.long	0x559
	.uleb128 0x2
	.byte	0x91
	.sleb128 -40
	.byte	0
	.uleb128 0x14
	.long	0x24a4
	.long	0x9ee4
	.long	0x9ef7
	.uleb128 0x12
	.long	.LASF1130
	.long	0x6fa2
	.uleb128 0x12
	.long	.LASF1194
	.long	0x11f
	.byte	0
	.uleb128 0x32
	.long	0x9ed7
	.long	.LASF1197
	.long	0x9f1a
	.quad	.LFB3108
	.quad	.LFE3108-.LFB3108
	.uleb128 0x1
	.byte	0x9c
	.long	0x9f23
	.uleb128 0x10
	.long	0x9ee4
	.uleb128 0x2
	.byte	0x91
	.sleb128 -24
	.byte	0
	.uleb128 0x14
	.long	0x27ab
	.long	0x9f30
	.long	0x9f3a
	.uleb128 0x12
	.long	.LASF1130
	.long	0x7001
	.byte	0
	.uleb128 0x32
	.long	0x9f23
	.long	.LASF1198
	.long	0x9f5d
	.quad	.LFB3105
	.quad	.LFE3105-.LFB3105
	.uleb128 0x1
	.byte	0x9c
	.long	0x9f66
	.uleb128 0x10
	.long	0x9f30
	.uleb128 0x2
	.byte	0x91
	.sleb128 -24
	.byte	0
	.uleb128 0x14
	.long	0x25f3
	.long	0x9f73
	.long	0x9f7d
	.uleb128 0x12
	.long	.LASF1130
	.long	0x6fd9
	.byte	0
	.uleb128 0x1c
	.long	0x9f66
	.long	.LASF1199
	.long	0x9fa0
	.quad	.LFB3102
	.quad	.LFE3102-.LFB3102
	.uleb128 0x1
	.byte	0x9c
	.long	0x9fa9
	.uleb128 0x10
	.long	0x9f73
	.uleb128 0x2
	.byte	0x91
	.sleb128 -24
	.byte	0
	.uleb128 0x28
	.long	0x1de4
	.long	0x9fc8
	.quad	.LFB3032
	.quad	.LFE3032-.LFB3032
	.uleb128 0x1
	.byte	0x9c
	.long	0x9fe5
	.uleb128 0xf
	.long	.LASF1130
	.long	0x6a92
	.uleb128 0x2
	.byte	0x91
	.sleb128 -24
	.uleb128 0x16
	.string	"__n"
	.byte	0x7
	.value	0x474
	.byte	0x1c
	.long	0x18ce
	.uleb128 0x2
	.byte	0x91
	.sleb128 -32
	.byte	0
	.uleb128 0x15
	.long	0x6c63
	.long	0xa00b
	.quad	.LFB3023
	.quad	.LFE3023-.LFB3023
	.uleb128 0x1
	.byte	0x9c
	.long	0xa039
	.uleb128 0x41
	.long	.LASF1099
	.byte	0x9c
	.byte	0x20
	.uleb128 0xf
	.long	.LASF1130
	.long	0x7097
	.uleb128 0x3
	.byte	0x91
	.sleb128 -120
	.uleb128 0x17
	.long	.LASF1200
	.byte	0x5
	.byte	0x9d
	.byte	0x4a
	.long	0x70c9
	.uleb128 0x3
	.byte	0x91
	.sleb128 -128
	.uleb128 0x2e
	.long	.LASF1201
	.byte	0x5
	.byte	0x9f
	.byte	0x12
	.long	0x172c
	.uleb128 0x3
	.byte	0x91
	.sleb128 -112
	.byte	0
	.uleb128 0x50
	.long	0x6e8f
	.long	0x592d
	.long	0xa05c
	.quad	.LFB3031
	.quad	.LFE3031-.LFB3031
	.uleb128 0x1
	.byte	0x9c
	.long	0xa069
	.uleb128 0xf
	.long	.LASF1130
	.long	0x70d8
	.uleb128 0x2
	.byte	0x91
	.sleb128 -24
	.byte	0
	.uleb128 0x50
	.long	0x6e70
	.long	0x592d
	.long	0xa08c
	.quad	.LFB3030
	.quad	.LFE3030-.LFB3030
	.uleb128 0x1
	.byte	0x9c
	.long	0xa099
	.uleb128 0xf
	.long	.LASF1130
	.long	0x70d8
	.uleb128 0x2
	.byte	0x91
	.sleb128 -24
	.byte	0
	.uleb128 0x14
	.long	0x193e
	.long	0xa0a6
	.long	0xa0b5
	.uleb128 0x12
	.long	.LASF1130
	.long	0x6a6a
	.uleb128 0x1
	.long	0x6a7e
	.byte	0
	.uleb128 0x1c
	.long	0xa099
	.long	.LASF1202
	.long	0xa0d8
	.quad	.LFB3028
	.quad	.LFE3028-.LFB3028
	.uleb128 0x1
	.byte	0x9c
	.long	0xa0e9
	.uleb128 0x10
	.long	0xa0a6
	.uleb128 0x2
	.byte	0x91
	.sleb128 -24
	.uleb128 0x10
	.long	0xa0af
	.uleb128 0x2
	.byte	0x91
	.sleb128 -32
	.byte	0
	.uleb128 0x14
	.long	0x15e2
	.long	0xa0f6
	.long	0xa105
	.uleb128 0x12
	.long	.LASF1130
	.long	0x6a47
	.uleb128 0x1
	.long	0x6a5b
	.byte	0
	.uleb128 0x1c
	.long	0xa0e9
	.long	.LASF1203
	.long	0xa128
	.quad	.LFB3026
	.quad	.LFE3026-.LFB3026
	.uleb128 0x1
	.byte	0x9c
	.long	0xa139
	.uleb128 0x10
	.long	0xa0f6
	.uleb128 0x2
	.byte	0x91
	.sleb128 -24
	.uleb128 0x10
	.long	0xa0ff
	.uleb128 0x2
	.byte	0x91
	.sleb128 -32
	.byte	0
	.uleb128 0x15
	.long	0x6ee1
	.long	0xa175
	.quad	.LFB3017
	.quad	.LFE3017-.LFB3017
	.uleb128 0x1
	.byte	0x9c
	.long	0xa1a2
	.uleb128 0x44
	.long	.LASF1099
	.byte	0x8e
	.long	0xa175
	.uleb128 0x2b
	.long	0x4d85
	.byte	0x2
	.uleb128 0x2b
	.long	0x4d85
	.byte	0x3
	.uleb128 0x2b
	.long	0x4d85
	.byte	0x5
	.byte	0
	.uleb128 0xf
	.long	.LASF1130
	.long	0x70bf
	.uleb128 0x3
	.byte	0x91
	.sleb128 -72
	.uleb128 0x17
	.long	.LASF1200
	.byte	0x5
	.byte	0x8f
	.byte	0x4f
	.long	0x709c
	.uleb128 0x3
	.byte	0x91
	.sleb128 -80
	.uleb128 0x2e
	.long	.LASF1201
	.byte	0x5
	.byte	0x91
	.byte	0x12
	.long	0x172c
	.uleb128 0x2
	.byte	0x91
	.sleb128 -64
	.byte	0
	.uleb128 0x50
	.long	0x6c11
	.long	0x592d
	.long	0xa1c5
	.quad	.LFB3022
	.quad	.LFE3022-.LFB3022
	.uleb128 0x1
	.byte	0x9c
	.long	0xa1d2
	.uleb128 0xf
	.long	.LASF1130
	.long	0x70b0
	.uleb128 0x2
	.byte	0x91
	.sleb128 -24
	.byte	0
	.uleb128 0x50
	.long	0x6bf2
	.long	0x592d
	.long	0xa1f5
	.quad	.LFB3021
	.quad	.LFE3021-.LFB3021
	.uleb128 0x1
	.byte	0x9c
	.long	0xa202
	.uleb128 0xf
	.long	.LASF1130
	.long	0x70b0
	.uleb128 0x2
	.byte	0x91
	.sleb128 -24
	.byte	0
	.uleb128 0x14
	.long	0x143c
	.long	0xa20f
	.long	0xa219
	.uleb128 0x12
	.long	.LASF1130
	.long	0x6a29
	.byte	0
	.uleb128 0x1c
	.long	0xa202
	.long	.LASF1204
	.long	0xa23c
	.quad	.LFB3015
	.quad	.LFE3015-.LFB3015
	.uleb128 0x1
	.byte	0x9c
	.long	0xa245
	.uleb128 0x10
	.long	0xa20f
	.uleb128 0x2
	.byte	0x91
	.sleb128 -24
	.byte	0
	.uleb128 0x28
	.long	0x31bb
	.long	0xa264
	.quad	.LFB3013
	.quad	.LFE3013-.LFB3013
	.uleb128 0x1
	.byte	0x9c
	.long	0xa281
	.uleb128 0xf
	.long	.LASF1130
	.long	0x705b
	.uleb128 0x2
	.byte	0x91
	.sleb128 -24
	.uleb128 0x16
	.string	"__n"
	.byte	0x7
	.value	0x461
	.byte	0x1c
	.long	0x2cd7
	.uleb128 0x2
	.byte	0x91
	.sleb128 -32
	.byte	0
	.uleb128 0x28
	.long	0x1db2
	.long	0xa2a0
	.quad	.LFB3012
	.quad	.LFE3012-.LFB3012
	.uleb128 0x1
	.byte	0x9c
	.long	0xa2bd
	.uleb128 0xf
	.long	.LASF1130
	.long	0x6a6a
	.uleb128 0x2
	.byte	0x91
	.sleb128 -24
	.uleb128 0x16
	.string	"__n"
	.byte	0x7
	.value	0x461
	.byte	0x1c
	.long	0x18ce
	.uleb128 0x2
	.byte	0x91
	.sleb128 -32
	.byte	0
	.uleb128 0x15
	.long	0x6b90
	.long	0xa2dc
	.quad	.LFB3011
	.quad	.LFE3011-.LFB3011
	.uleb128 0x1
	.byte	0x9c
	.long	0xa2e9
	.uleb128 0xf
	.long	.LASF1130
	.long	0x70b0
	.uleb128 0x2
	.byte	0x91
	.sleb128 -24
	.byte	0
	.uleb128 0x15
	.long	0x6b71
	.long	0xa308
	.quad	.LFB3010
	.quad	.LFE3010-.LFB3010
	.uleb128 0x1
	.byte	0x9c
	.long	0xa315
	.uleb128 0xf
	.long	.LASF1130
	.long	0x70b0
	.uleb128 0x2
	.byte	0x91
	.sleb128 -24
	.byte	0
	.uleb128 0x28
	.long	0x1ca3
	.long	0xa334
	.quad	.LFB3009
	.quad	.LFE3009-.LFB3009
	.uleb128 0x1
	.byte	0x9c
	.long	0xa341
	.uleb128 0xf
	.long	.LASF1130
	.long	0x6a92
	.uleb128 0x2
	.byte	0x91
	.sleb128 -24
	.byte	0
	.uleb128 0xd
	.long	0x46f0
	.quad	.LFB3008
	.quad	.LFE3008-.LFB3008
	.uleb128 0x1
	.byte	0x9c
	.long	0xa397
	.uleb128 0x4
	.long	.LASF132
	.long	0x69bb
	.uleb128 0x6
	.string	"_Tp"
	.long	0x4d85
	.uleb128 0x5
	.long	.LASF1142
	.byte	0xa
	.value	0x34f
	.byte	0x1f
	.long	0x69bb
	.uleb128 0x2
	.byte	0x91
	.sleb128 -24
	.uleb128 0x5
	.long	.LASF1143
	.byte	0xa
	.value	0x34f
	.byte	0x39
	.long	0x69bb
	.uleb128 0x2
	.byte	0x91
	.sleb128 -32
	.uleb128 0x23
	.long	0x69f2
	.uleb128 0x2
	.byte	0x91
	.sleb128 -40
	.byte	0
	.uleb128 0x28
	.long	0x1501
	.long	0xa3b6
	.quad	.LFB3007
	.quad	.LFE3007-.LFB3007
	.uleb128 0x1
	.byte	0x9c
	.long	0xa3c3
	.uleb128 0xf
	.long	.LASF1130
	.long	0x6a47
	.uleb128 0x2
	.byte	0x91
	.sleb128 -24
	.byte	0
	.uleb128 0x14
	.long	0x1664
	.long	0xa3d0
	.long	0xa3e3
	.uleb128 0x12
	.long	.LASF1130
	.long	0x6a47
	.uleb128 0x12
	.long	.LASF1194
	.long	0x11f
	.byte	0
	.uleb128 0x1c
	.long	0xa3c3
	.long	.LASF1205
	.long	0xa406
	.quad	.LFB3005
	.quad	.LFE3005-.LFB3005
	.uleb128 0x1
	.byte	0x9c
	.long	0xa40f
	.uleb128 0x10
	.long	0xa3d0
	.uleb128 0x2
	.byte	0x91
	.sleb128 -24
	.byte	0
	.uleb128 0xd
	.long	0x4723
	.quad	.LFB3003
	.quad	.LFE3003-.LFB3003
	.uleb128 0x1
	.byte	0x9c
	.long	0xa465
	.uleb128 0x4
	.long	.LASF132
	.long	0x6fac
	.uleb128 0x6
	.string	"_Tp"
	.long	0x3f
	.uleb128 0x5
	.long	.LASF1142
	.byte	0xa
	.value	0x34f
	.byte	0x1f
	.long	0x6fac
	.uleb128 0x2
	.byte	0x91
	.sleb128 -24
	.uleb128 0x5
	.long	.LASF1143
	.byte	0xa
	.value	0x34f
	.byte	0x39
	.long	0x6fac
	.uleb128 0x2
	.byte	0x91
	.sleb128 -32
	.uleb128 0x23
	.long	0x6fe3
	.uleb128 0x2
	.byte	0x91
	.sleb128 -40
	.byte	0
	.uleb128 0x28
	.long	0x290a
	.long	0xa484
	.quad	.LFB3002
	.quad	.LFE3002-.LFB3002
	.uleb128 0x1
	.byte	0x9c
	.long	0xa491
	.uleb128 0xf
	.long	.LASF1130
	.long	0x7038
	.uleb128 0x2
	.byte	0x91
	.sleb128 -24
	.byte	0
	.uleb128 0x15
	.long	0x6c49
	.long	0xa4b0
	.quad	.LFB3000
	.quad	.LFE3000-.LFB3000
	.uleb128 0x1
	.byte	0x9c
	.long	0xa5b4
	.uleb128 0xf
	.long	.LASF1130
	.long	0x7097
	.uleb128 0x2
	.byte	0x91
	.sleb128 -56
	.uleb128 0x2e
	.long	.LASF1206
	.byte	0x5
	.byte	0x86
	.byte	0x17
	.long	0x6d1f
	.uleb128 0x2
	.byte	0x91
	.sleb128 -40
	.uleb128 0xa4
	.byte	0x8
	.byte	0x5
	.byte	0x87
	.byte	0x43
	.uleb128 0x58
	.long	.LASF1207
	.long	.LASF1208
	.long	0xa4e2
	.long	0xa4f7
	.uleb128 0x2
	.long	0xa4e7
	.uleb128 0xc
	.long	0xa4cb
	.uleb128 0x1
	.long	0xa4f1
	.uleb128 0x27
	.long	0xa4cb
	.byte	0
	.uleb128 0x58
	.long	.LASF1207
	.long	.LASF1209
	.long	0xa508
	.long	0xa51d
	.uleb128 0x2
	.long	0xa4e7
	.uleb128 0x1
	.long	0xa512
	.uleb128 0xe
	.long	0xa517
	.uleb128 0x9
	.long	0xa4cb
	.byte	0
	.uleb128 0xa5
	.long	.LASF1207
	.long	.LASF1263
	.long	0xa52f
	.long	0xa535
	.uleb128 0x2
	.long	0xa4e7
	.byte	0
	.uleb128 0x58
	.long	.LASF1210
	.long	.LASF1211
	.long	0xa546
	.long	0xa551
	.uleb128 0x2
	.long	0xa4e7
	.uleb128 0x2
	.long	0x118
	.byte	0
	.uleb128 0xa
	.long	.LASF1212
	.byte	0x5
	.byte	0x8a
	.byte	0x21
	.long	0x9be1
	.byte	0
	.uleb128 0xa6
	.long	.LASF58
	.long	.LASF1264
	.long	0xa588
	.quad	.LFB3001
	.quad	.LFE3001-.LFB3001
	.uleb128 0x1
	.byte	0x9c
	.uleb128 0xc
	.long	0xa517
	.uleb128 0x9
	.long	0xa57e
	.uleb128 0xf
	.long	.LASF1213
	.long	0xa583
	.uleb128 0x2
	.byte	0x91
	.sleb128 -40
	.uleb128 0x17
	.long	.LASF298
	.byte	0x5
	.byte	0x87
	.byte	0x4b
	.long	0x118
	.uleb128 0x2
	.byte	0x91
	.sleb128 -44
	.uleb128 0xa7
	.long	.LASF1206
	.long	0x9be1
	.uleb128 0x3
	.byte	0x91
	.sleb128 -40
	.byte	0x6
	.byte	0
	.byte	0
	.byte	0
	.uleb128 0x14
	.long	0x19f9
	.long	0xa5c1
	.long	0xa5e5
	.uleb128 0x12
	.long	.LASF1130
	.long	0x6a6a
	.uleb128 0x31
	.string	"__l"
	.byte	0x7
	.value	0x2a1
	.byte	0x2b
	.long	0x2361
	.uleb128 0x31
	.string	"__a"
	.byte	0x7
	.value	0x2a2
	.byte	0x1d
	.long	0x6a6f
	.byte	0
	.uleb128 0x1c
	.long	0xa5b4
	.long	.LASF1214
	.long	0xa608
	.quad	.LFB2998
	.quad	.LFE2998-.LFB2998
	.uleb128 0x1
	.byte	0x9c
	.long	0xa622
	.uleb128 0x10
	.long	0xa5c1
	.uleb128 0x2
	.byte	0x91
	.sleb128 -56
	.uleb128 0x10
	.long	0xa5ca
	.uleb128 0x3
	.byte	0x91
	.sleb128 -80
	.uleb128 0x10
	.long	0xa5d7
	.uleb128 0x2
	.byte	0x91
	.sleb128 -64
	.byte	0
	.uleb128 0x14
	.long	0x1246
	.long	0xa62f
	.long	0xa642
	.uleb128 0x12
	.long	.LASF1130
	.long	0x69e8
	.uleb128 0x12
	.long	.LASF1194
	.long	0x11f
	.byte	0
	.uleb128 0x1c
	.long	0xa622
	.long	.LASF1215
	.long	0xa665
	.quad	.LFB2995
	.quad	.LFE2995-.LFB2995
	.uleb128 0x1
	.byte	0x9c
	.long	0xa66e
	.uleb128 0x10
	.long	0xa62f
	.uleb128 0x2
	.byte	0x91
	.sleb128 -24
	.byte	0
	.uleb128 0x14
	.long	0x11ea
	.long	0xa67b
	.long	0xa685
	.uleb128 0x12
	.long	.LASF1130
	.long	0x69e8
	.byte	0
	.uleb128 0x1c
	.long	0xa66e
	.long	.LASF1216
	.long	0xa6a8
	.quad	.LFB2992
	.quad	.LFE2992-.LFB2992
	.uleb128 0x1
	.byte	0x9c
	.long	0xa6b1
	.uleb128 0x10
	.long	0xa67b
	.uleb128 0x2
	.byte	0x91
	.sleb128 -24
	.byte	0
	.uleb128 0x14
	.long	0x2a6d
	.long	0xa6be
	.long	0xa6d1
	.uleb128 0x12
	.long	.LASF1130
	.long	0x7038
	.uleb128 0x12
	.long	.LASF1194
	.long	0x11f
	.byte	0
	.uleb128 0x1c
	.long	0xa6b1
	.long	.LASF1217
	.long	0xa6f4
	.quad	.LFB2989
	.quad	.LFE2989-.LFB2989
	.uleb128 0x1
	.byte	0x9c
	.long	0xa6fd
	.uleb128 0x10
	.long	0xa6be
	.uleb128 0x2
	.byte	0x91
	.sleb128 -24
	.byte	0
	.uleb128 0x14
	.long	0x264f
	.long	0xa70a
	.long	0xa71d
	.uleb128 0x12
	.long	.LASF1130
	.long	0x6fd9
	.uleb128 0x12
	.long	.LASF1194
	.long	0x11f
	.byte	0
	.uleb128 0x1c
	.long	0xa6fd
	.long	.LASF1218
	.long	0xa740
	.quad	.LFB2986
	.quad	.LFE2986-.LFB2986
	.uleb128 0x1
	.byte	0x9c
	.long	0xa749
	.uleb128 0x10
	.long	0xa70a
	.uleb128 0x2
	.byte	0x91
	.sleb128 -24
	.byte	0
	.uleb128 0x14
	.long	0x2845
	.long	0xa756
	.long	0xa760
	.uleb128 0x12
	.long	.LASF1130
	.long	0x701a
	.byte	0
	.uleb128 0x1c
	.long	0xa749
	.long	.LASF1219
	.long	0xa783
	.quad	.LFB2983
	.quad	.LFE2983-.LFB2983
	.uleb128 0x1
	.byte	0x9c
	.long	0xa78c
	.uleb128 0x10
	.long	0xa756
	.uleb128 0x2
	.byte	0x91
	.sleb128 -24
	.byte	0
	.uleb128 0xa8
	.long	0x4756
	.long	0xa7bb
	.uleb128 0x4
	.long	.LASF376
	.long	0x876
	.uleb128 0xa9
	.long	.LASF1220
	.byte	0x2a
	.value	0x20b
	.byte	0x2e
	.long	0x683c
	.uleb128 0x31
	.string	"__c"
	.byte	0x2a
	.value	0x20b
	.byte	0x3a
	.long	0x10c
	.byte	0
	.uleb128 0xe
	.long	0xf1b
	.uleb128 0xc
	.long	0xf12
	.uleb128 0x9
	.long	0xa7c0
	.uleb128 0xaa
	.long	0xf27
	.long	0xa7d8
	.long	0xa7ee
	.uleb128 0x12
	.long	.LASF1130
	.long	0xa7c5
	.uleb128 0x45
	.string	"__n"
	.byte	0x2a
	.byte	0xa6
	.byte	0x17
	.long	0x4d85
	.byte	0
	.uleb128 0x15
	.long	0x6e4c
	.long	0xa80d
	.quad	.LFB2875
	.quad	.LFE2875-.LFB2875
	.uleb128 0x1
	.byte	0x9c
	.long	0xa829
	.uleb128 0xf
	.long	.LASF1130
	.long	0x70d8
	.uleb128 0x2
	.byte	0x91
	.sleb128 -40
	.uleb128 0x17
	.long	.LASF1221
	.byte	0x5
	.byte	0x59
	.byte	0x23
	.long	0x6d1f
	.uleb128 0x2
	.byte	0x91
	.sleb128 -48
	.byte	0
	.uleb128 0x14
	.long	0x6c89
	.long	0xa83d
	.long	0xa852
	.uleb128 0x41
	.long	.LASF1099
	.byte	0x32
	.byte	0x20
	.uleb128 0x12
	.long	.LASF1130
	.long	0x7097
	.uleb128 0x77
	.long	.LASF1200
	.byte	0x33
	.byte	0x31
	.long	0x70c9
	.byte	0
	.uleb128 0x1c
	.long	0xa829
	.long	.LASF1222
	.long	0xa87c
	.quad	.LFB2873
	.quad	.LFE2873-.LFB2873
	.uleb128 0x1
	.byte	0x9c
	.long	0xa88f
	.uleb128 0x41
	.long	.LASF1099
	.byte	0x32
	.byte	0x20
	.uleb128 0x10
	.long	0xa83d
	.uleb128 0x3
	.byte	0x91
	.sleb128 -88
	.uleb128 0x10
	.long	0xa846
	.uleb128 0x3
	.byte	0x91
	.sleb128 -96
	.byte	0
	.uleb128 0x27
	.long	0x3751
	.uleb128 0x25
	.long	0x477f
	.quad	.LFB2871
	.quad	.LFE2871-.LFB2871
	.uleb128 0x1
	.byte	0x9c
	.long	0xa8c8
	.uleb128 0x6
	.string	"_Tp"
	.long	0x70ce
	.uleb128 0x29
	.string	"__t"
	.byte	0x8
	.byte	0x68
	.byte	0x10
	.long	0x70ce
	.uleb128 0x2
	.byte	0x91
	.sleb128 -24
	.byte	0
	.uleb128 0x14
	.long	0x6f1d
	.long	0xa8f2
	.long	0xa907
	.uleb128 0x44
	.long	.LASF1099
	.byte	0x2a
	.long	0xa8f2
	.uleb128 0x2b
	.long	0x4d85
	.byte	0x2
	.uleb128 0x2b
	.long	0x4d85
	.byte	0x3
	.uleb128 0x2b
	.long	0x4d85
	.byte	0x5
	.byte	0
	.uleb128 0x12
	.long	.LASF1130
	.long	0x70bf
	.uleb128 0x77
	.long	.LASF1200
	.byte	0x2b
	.byte	0x36
	.long	0x709c
	.byte	0
	.uleb128 0x1c
	.long	0xa8c8
	.long	.LASF1223
	.long	0xa947
	.quad	.LFB2869
	.quad	.LFE2869-.LFB2869
	.uleb128 0x1
	.byte	0x9c
	.long	0xa958
	.uleb128 0x44
	.long	.LASF1099
	.byte	0x2a
	.long	0xa947
	.uleb128 0x2b
	.long	0x4d85
	.byte	0x2
	.uleb128 0x2b
	.long	0x4d85
	.byte	0x3
	.uleb128 0x2b
	.long	0x4d85
	.byte	0x5
	.byte	0
	.uleb128 0x10
	.long	0xa8f2
	.uleb128 0x2
	.byte	0x91
	.sleb128 -40
	.uleb128 0x10
	.long	0xa8fb
	.uleb128 0x2
	.byte	0x91
	.sleb128 -48
	.byte	0
	.uleb128 0x14
	.long	0x185f
	.long	0xa965
	.long	0xa96f
	.uleb128 0x12
	.long	.LASF1130
	.long	0x6a6a
	.byte	0
	.uleb128 0x1c
	.long	0xa958
	.long	.LASF1224
	.long	0xa992
	.quad	.LFB2867
	.quad	.LFE2867-.LFB2867
	.uleb128 0x1
	.byte	0x9c
	.long	0xa99b
	.uleb128 0x10
	.long	0xa965
	.uleb128 0x2
	.byte	0x91
	.sleb128 -24
	.byte	0
	.uleb128 0x14
	.long	0x156a
	.long	0xa9a8
	.long	0xa9b2
	.uleb128 0x12
	.long	.LASF1130
	.long	0x6a47
	.byte	0
	.uleb128 0x1c
	.long	0xa99b
	.long	.LASF1225
	.long	0xa9d5
	.quad	.LFB2865
	.quad	.LFE2865-.LFB2865
	.uleb128 0x1
	.byte	0x9c
	.long	0xa9de
	.uleb128 0x10
	.long	0xa9a8
	.uleb128 0x2
	.byte	0x91
	.sleb128 -24
	.byte	0
	.uleb128 0x78
	.long	0x14d7
	.byte	0x85
	.long	0xa9ec
	.long	0xa9ff
	.uleb128 0x12
	.long	.LASF1130
	.long	0x6a29
	.uleb128 0x12
	.long	.LASF1194
	.long	0x11f
	.byte	0
	.uleb128 0x1c
	.long	0xa9de
	.long	.LASF1226
	.long	0xaa22
	.quad	.LFB2863
	.quad	.LFE2863-.LFB2863
	.uleb128 0x1
	.byte	0x9c
	.long	0xaa2b
	.uleb128 0x10
	.long	0xa9ec
	.uleb128 0x2
	.byte	0x91
	.sleb128 -24
	.byte	0
	.uleb128 0x15
	.long	0x6caf
	.long	0xaa61
	.quad	.LFB2857
	.quad	.LFE2857-.LFB2857
	.uleb128 0x1
	.byte	0x9c
	.long	0xaae2
	.uleb128 0x70
	.string	"T"
	.long	0xaa61
	.uleb128 0x42
	.long	0x118
	.uleb128 0x42
	.long	0x118
	.uleb128 0x42
	.long	0x118
	.byte	0
	.uleb128 0xf
	.long	.LASF1130
	.long	0x7097
	.uleb128 0x3
	.byte	0x91
	.sleb128 -152
	.uleb128 0xab
	.byte	0x5
	.byte	0x69
	.byte	0x20
	.long	0xaa93
	.uleb128 0x23
	.long	0x118
	.uleb128 0x3
	.byte	0x91
	.sleb128 -156
	.uleb128 0x23
	.long	0x118
	.uleb128 0x3
	.byte	0x91
	.sleb128 -160
	.uleb128 0x23
	.long	0x118
	.uleb128 0x3
	.byte	0x91
	.sleb128 -164
	.byte	0
	.uleb128 0x2e
	.long	.LASF1227
	.byte	0x5
	.byte	0x6b
	.byte	0x24
	.long	0x172c
	.uleb128 0x3
	.byte	0x91
	.sleb128 -144
	.uleb128 0x2e
	.long	.LASF1228
	.byte	0x5
	.byte	0x6c
	.byte	0x17
	.long	0x6d1f
	.uleb128 0x3
	.byte	0x91
	.sleb128 -80
	.uleb128 0x2e
	.long	.LASF1229
	.byte	0x5
	.byte	0x71
	.byte	0x17
	.long	0x6d1f
	.uleb128 0x2
	.byte	0x91
	.sleb128 -56
	.uleb128 0x2e
	.long	.LASF1206
	.byte	0x5
	.byte	0x72
	.byte	0x17
	.long	0x6d1f
	.uleb128 0x2
	.byte	0x91
	.sleb128 -64
	.uleb128 0x2e
	.long	.LASF1230
	.byte	0x5
	.byte	0x73
	.byte	0x17
	.long	0x6d1f
	.uleb128 0x3
	.byte	0x91
	.sleb128 -72
	.byte	0
	.uleb128 0x14
	.long	0x1a1f
	.long	0xaaef
	.long	0xab02
	.uleb128 0x12
	.long	.LASF1130
	.long	0x6a6a
	.uleb128 0x12
	.long	.LASF1194
	.long	0x11f
	.byte	0
	.uleb128 0x1c
	.long	0xaae2
	.long	.LASF1231
	.long	0xab25
	.quad	.LFB2855
	.quad	.LFE2855-.LFB2855
	.uleb128 0x1
	.byte	0x9c
	.long	0xab2e
	.uleb128 0x10
	.long	0xaaef
	.uleb128 0x2
	.byte	0x91
	.sleb128 -24
	.byte	0
	.uleb128 0x14
	.long	0x2e28
	.long	0xab3b
	.long	0xab4e
	.uleb128 0x12
	.long	.LASF1130
	.long	0x705b
	.uleb128 0x12
	.long	.LASF1194
	.long	0x11f
	.byte	0
	.uleb128 0x1c
	.long	0xab2e
	.long	.LASF1232
	.long	0xab71
	.quad	.LFB2852
	.quad	.LFE2852-.LFB2852
	.uleb128 0x1
	.byte	0x9c
	.long	0xab7a
	.uleb128 0x10
	.long	0xab3b
	.uleb128 0x2
	.byte	0x91
	.sleb128 -24
	.byte	0
	.uleb128 0x14
	.long	0x6aba
	.long	0xab87
	.long	0xab91
	.uleb128 0x12
	.long	.LASF1130
	.long	0x7097
	.byte	0
	.uleb128 0x1c
	.long	0xab7a
	.long	.LASF1233
	.long	0xabb4
	.quad	.LFB2849
	.quad	.LFE2849-.LFB2849
	.uleb128 0x1
	.byte	0x9c
	.long	0xabbe
	.uleb128 0x10
	.long	0xab87
	.uleb128 0x3
	.byte	0x91
	.sleb128 -88
	.byte	0
	.uleb128 0x14
	.long	0x2c68
	.long	0xabcb
	.long	0xabd5
	.uleb128 0x12
	.long	.LASF1130
	.long	0x705b
	.byte	0
	.uleb128 0x1c
	.long	0xabbe
	.long	.LASF1234
	.long	0xabf8
	.quad	.LFB2847
	.quad	.LFE2847-.LFB2847
	.uleb128 0x1
	.byte	0x9c
	.long	0xac01
	.uleb128 0x10
	.long	0xabcb
	.uleb128 0x2
	.byte	0x91
	.sleb128 -24
	.byte	0
	.uleb128 0x14
	.long	0x2973
	.long	0xac0e
	.long	0xac18
	.uleb128 0x12
	.long	.LASF1130
	.long	0x7038
	.byte	0
	.uleb128 0x1c
	.long	0xac01
	.long	.LASF1235
	.long	0xac3b
	.quad	.LFB2845
	.quad	.LFE2845-.LFB2845
	.uleb128 0x1
	.byte	0x9c
	.long	0xac44
	.uleb128 0x10
	.long	0xac0e
	.uleb128 0x2
	.byte	0x91
	.sleb128 -24
	.byte	0
	.uleb128 0x78
	.long	0x28e0
	.byte	0x85
	.long	0xac52
	.long	0xac65
	.uleb128 0x12
	.long	.LASF1130
	.long	0x701a
	.uleb128 0x12
	.long	.LASF1194
	.long	0x11f
	.byte	0
	.uleb128 0x1c
	.long	0xac44
	.long	.LASF1236
	.long	0xac88
	.quad	.LFB2843
	.quad	.LFE2843-.LFB2843
	.uleb128 0x1
	.byte	0x9c
	.long	0xac91
	.uleb128 0x10
	.long	0xac52
	.uleb128 0x2
	.byte	0x91
	.sleb128 -24
	.byte	0
	.uleb128 0xac
	.long	.LASF1237
	.byte	0x6
	.byte	0x8
	.byte	0x5
	.long	0x118
	.quad	.LFB2568
	.quad	.LFE2568-.LFB2568
	.uleb128 0x1
	.byte	0x9c
	.long	0xacff
	.uleb128 0x17
	.long	.LASF1238
	.byte	0x6
	.byte	0x8
	.byte	0xe
	.long	0x118
	.uleb128 0x3
	.byte	0x91
	.sleb128 -180
	.uleb128 0x17
	.long	.LASF1239
	.byte	0x6
	.byte	0x8
	.byte	0x1b
	.long	0x6358
	.uleb128 0x3
	.byte	0x91
	.sleb128 -192
	.uleb128 0x59
	.string	"t1"
	.byte	0xa
	.byte	0x1d
	.long	0x6aad
	.uleb128 0x3
	.byte	0x91
	.sleb128 -80
	.uleb128 0x59
	.string	"t2"
	.byte	0xc
	.byte	0x14
	.long	0x6d2b
	.uleb128 0x3
	.byte	0x91
	.sleb128 -128
	.uleb128 0x59
	.string	"t3"
	.byte	0xe
	.byte	0x1d
	.long	0x6aad
	.uleb128 0x3
	.byte	0x91
	.sleb128 -176
	.byte	0
	.uleb128 0x14
	.long	0x6dd2
	.long	0xad0c
	.long	0xad1f
	.uleb128 0x12
	.long	.LASF1130
	.long	0x70bf
	.uleb128 0x12
	.long	.LASF1194
	.long	0x11f
	.byte	0
	.uleb128 0x1c
	.long	0xacff
	.long	.LASF1240
	.long	0xad42
	.quad	.LFB2573
	.quad	.LFE2573-.LFB2573
	.uleb128 0x1
	.byte	0x9c
	.long	0xad4b
	.uleb128 0x10
	.long	0xad0c
	.uleb128 0x2
	.byte	0x91
	.sleb128 -24
	.byte	0
	.uleb128 0x14
	.long	0x6b54
	.long	0xad58
	.long	0xad6b
	.uleb128 0x12
	.long	.LASF1130
	.long	0x7097
	.uleb128 0x12
	.long	.LASF1194
	.long	0x11f
	.byte	0
	.uleb128 0x1c
	.long	0xad4b
	.long	.LASF1241
	.long	0xad8e
	.quad	.LFB2570
	.quad	.LFE2570-.LFB2570
	.uleb128 0x1
	.byte	0x9c
	.long	0xad97
	.uleb128 0x10
	.long	0xad58
	.uleb128 0x2
	.byte	0x91
	.sleb128 -24
	.byte	0
	.uleb128 0xd
	.long	0x6f77
	.quad	.LFB1754
	.quad	.LFE1754-.LFB1754
	.uleb128 0x1
	.byte	0x9c
	.long	0xadd1
	.uleb128 0x17
	.long	.LASF1242
	.byte	0x4
	.byte	0x18
	.byte	0x29
	.long	0x6d1f
	.uleb128 0x2
	.byte	0x91
	.sleb128 -40
	.uleb128 0x17
	.long	.LASF1243
	.byte	0x4
	.byte	0x19
	.byte	0x29
	.long	0x6d1f
	.uleb128 0x2
	.byte	0x91
	.sleb128 -48
	.byte	0
	.uleb128 0x28
	.long	0x5f2
	.long	0xadf0
	.quad	.LFB907
	.quad	.LFE907-.LFB907
	.uleb128 0x1
	.byte	0x9c
	.long	0xadfd
	.uleb128 0xf
	.long	.LASF1130
	.long	0x5c7a
	.uleb128 0x2
	.byte	0x91
	.sleb128 -24
	.byte	0
	.uleb128 0x25
	.long	0x47a2
	.quad	.LFB652
	.quad	.LFE652-.LFB652
	.uleb128 0x1
	.byte	0x9c
	.long	0xae29
	.uleb128 0x16
	.string	"__n"
	.byte	0x2
	.value	0x3f1
	.byte	0x23
	.long	0x5e
	.uleb128 0x2
	.byte	0x91
	.sleb128 -24
	.byte	0
	.uleb128 0xad
	.long	.LASF1134
	.byte	0x1
	.byte	0xae
	.byte	0x21
	.long	.LASF1244
	.long	0xa6
	.quad	.LFB40
	.quad	.LFE40-.LFB40
	.uleb128 0x1
	.byte	0x9c
	.long	0xae68
	.uleb128 0x23
	.long	0x559
	.uleb128 0x2
	.byte	0x91
	.sleb128 -24
	.uleb128 0x29
	.string	"__p"
	.byte	0x1
	.byte	0xae
	.byte	0x41
	.long	0xa6
	.uleb128 0x2
	.byte	0x91
	.sleb128 -32
	.byte	0
	.uleb128 0x26
	.byte	0x10
	.byte	0x5
	.long	.LASF1245
	.uleb128 0x26
	.byte	0x10
	.byte	0x7
	.long	.LASF1246
	.byte	0
	.section	.debug_abbrev,"",@progbits
.Ldebug_abbrev0:
	.uleb128 0x1
	.uleb128 0x5
	.byte	0
	.uleb128 0x49
	.uleb128 0x13
	.byte	0
	.byte	0
	.uleb128 0x2
	.uleb128 0x5
	.byte	0
	.uleb128 0x49
	.uleb128 0x13
	.uleb128 0x34
	.uleb128 0x19
	.byte	0
	.byte	0
	.uleb128 0x3
	.uleb128 0x8
	.byte	0
	.uleb128 0x3a
	.uleb128 0xb
	.uleb128 0x3b
	.uleb128 0xb
	.uleb128 0x39
	.uleb128 0xb
	.uleb128 0x18
	.uleb128 0x13
	.byte	0
	.byte	0
	.uleb128 0x4
	.uleb128 0x2f
	.byte	0
	.uleb128 0x3
	.uleb128 0xe
	.uleb128 0x49
	.uleb128 0x13
	.byte	0
	.byte	0
	.uleb128 0x5
	.uleb128 0x5
	.byte	0
	.uleb128 0x3
	.uleb128 0xe
	.uleb128 0x3a
	.uleb128 0xb
	.uleb128 0x3b
	.uleb128 0x5
	.uleb128 0x39
	.uleb128 0xb
	.uleb128 0x49
	.uleb128 0x13
	.uleb128 0x2
	.uleb128 0x18
	.byte	0
	.byte	0
	.uleb128 0x6
	.uleb128 0x2f
	.byte	0
	.uleb128 0x3
	.uleb128 0x8
	.uleb128 0x49
	.uleb128 0x13
	.byte	0
	.byte	0
	.uleb128 0x7
	.uleb128 0x2e
	.byte	0x1
	.uleb128 0x3f
	.uleb128 0x19
	.uleb128 0x3
	.uleb128 0xe
	.uleb128 0x3a
	.uleb128 0xb
	.uleb128 0x3b
	.uleb128 0x5
	.uleb128 0x39
	.uleb128 0xb
	.uleb128 0x6e
	.uleb128 0xe
	.uleb128 0x49
	.uleb128 0x13
	.uleb128 0x32
	.uleb128 0xb
	.uleb128 0x3c
	.uleb128 0x19
	.uleb128 0x64
	.uleb128 0x13
	.uleb128 0x1
	.uleb128 0x13
	.byte	0
	.byte	0
	.uleb128 0x8
	.uleb128 0x16
	.byte	0
	.uleb128 0x3
	.uleb128 0xe
	.uleb128 0x3a
	.uleb128 0xb
	.uleb128 0x3b
	.uleb128 0xb
	.uleb128 0x39
	.uleb128 0xb
	.uleb128 0x49
	.uleb128 0x13
	.byte	0
	.byte	0
	.uleb128 0x9
	.uleb128 0x26
	.byte	0
	.uleb128 0x49
	.uleb128 0x13
	.byte	0
	.byte	0
	.uleb128 0xa
	.uleb128 0xd
	.byte	0
	.uleb128 0x3
	.uleb128 0xe
	.uleb128 0x3a
	.uleb128 0xb
	.uleb128 0x3b
	.uleb128 0xb
	.uleb128 0x39
	.uleb128 0xb
	.uleb128 0x49
	.uleb128 0x13
	.uleb128 0x38
	.uleb128 0xb
	.byte	0
	.byte	0
	.uleb128 0xb
	.uleb128 0x2e
	.byte	0x1
	.uleb128 0x3f
	.uleb128 0x19
	.uleb128 0x3
	.uleb128 0xe
	.uleb128 0x3a
	.uleb128 0xb
	.uleb128 0x3b
	.uleb128 0x5
	.uleb128 0x39
	.uleb128 0xb
	.uleb128 0x6e
	.uleb128 0xe
	.uleb128 0x49
	.uleb128 0x13
	.uleb128 0x3c
	.uleb128 0x19
	.uleb128 0x1
	.uleb128 0x13
	.byte	0
	.byte	0
	.uleb128 0xc
	.uleb128 0xf
	.byte	0
	.uleb128 0xb
	.uleb128 0x21
	.sleb128 8
	.uleb128 0x49
	.uleb128 0x13
	.byte	0
	.byte	0
	.uleb128 0xd
	.uleb128 0x2e
	.byte	0x1
	.uleb128 0x47
	.uleb128 0x13
	.uleb128 0x11
	.uleb128 0x1
	.uleb128 0x12
	.uleb128 0x7
	.uleb128 0x40
	.uleb128 0x18
	.uleb128 0x7c
	.uleb128 0x19
	.uleb128 0x1
	.uleb128 0x13
	.byte	0
	.byte	0
	.uleb128 0xe
	.uleb128 0x10
	.byte	0
	.uleb128 0xb
	.uleb128 0x21
	.sleb128 8
	.uleb128 0x49
	.uleb128 0x13
	.byte	0
	.byte	0
	.uleb128 0xf
	.uleb128 0x5
	.byte	0
	.uleb128 0x3
	.uleb128 0xe
	.uleb128 0x49
	.uleb128 0x13
	.uleb128 0x34
	.uleb128 0x19
	.uleb128 0x2
	.uleb128 0x18
	.byte	0
	.byte	0
	.uleb128 0x10
	.uleb128 0x5
	.byte	0
	.uleb128 0x31
	.uleb128 0x13
	.uleb128 0x2
	.uleb128 0x18
	.byte	0
	.byte	0
	.uleb128 0x11
	.uleb128 0x2e
	.byte	0x1
	.uleb128 0x3f
	.uleb128 0x19
	.uleb128 0x3
	.uleb128 0xe
	.uleb128 0x3a
	.uleb128 0xb
	.uleb128 0x3b
	.uleb128 0x5
	.uleb128 0x39
	.uleb128 0xb
	.uleb128 0x49
	.uleb128 0x13
	.uleb128 0x3c
	.uleb128 0x19
	.uleb128 0x1
	.uleb128 0x13
	.byte	0
	.byte	0
	.uleb128 0x12
	.uleb128 0x5
	.byte	0
	.uleb128 0x3
	.uleb128 0xe
	.uleb128 0x49
	.uleb128 0x13
	.uleb128 0x34
	.uleb128 0x19
	.byte	0
	.byte	0
	.uleb128 0x13
	.uleb128 0x2e
	.byte	0x1
	.uleb128 0x3f
	.uleb128 0x19
	.uleb128 0x3
	.uleb128 0xe
	.uleb128 0x3a
	.uleb128 0xb
	.uleb128 0x3b
	.uleb128 0x5
	.uleb128 0x39
	.uleb128 0xb
	.uleb128 0x6e
	.uleb128 0xe
	.uleb128 0x32
	.uleb128 0xb
	.uleb128 0x3c
	.uleb128 0x19
	.uleb128 0x64
	.uleb128 0x13
	.uleb128 0x1
	.uleb128 0x13
	.byte	0
	.byte	0
	.uleb128 0x14
	.uleb128 0x2e
	.byte	0x1
	.uleb128 0x47
	.uleb128 0x13
	.uleb128 0x64
	.uleb128 0x13
	.uleb128 0x20
	.uleb128 0x21
	.sleb128 2
	.uleb128 0x1
	.uleb128 0x13
	.byte	0
	.byte	0
	.uleb128 0x15
	.uleb128 0x2e
	.byte	0x1
	.uleb128 0x47
	.uleb128 0x13
	.uleb128 0x64
	.uleb128 0x13
	.uleb128 0x11
	.uleb128 0x1
	.uleb128 0x12
	.uleb128 0x7
	.uleb128 0x40
	.uleb128 0x18
	.uleb128 0x7c
	.uleb128 0x19
	.uleb128 0x1
	.uleb128 0x13
	.byte	0
	.byte	0
	.uleb128 0x16
	.uleb128 0x5
	.byte	0
	.uleb128 0x3
	.uleb128 0x8
	.uleb128 0x3a
	.uleb128 0xb
	.uleb128 0x3b
	.uleb128 0x5
	.uleb128 0x39
	.uleb128 0xb
	.uleb128 0x49
	.uleb128 0x13
	.uleb128 0x2
	.uleb128 0x18
	.byte	0
	.byte	0
	.uleb128 0x17
	.uleb128 0x5
	.byte	0
	.uleb128 0x3
	.uleb128 0xe
	.uleb128 0x3a
	.uleb128 0xb
	.uleb128 0x3b
	.uleb128 0xb
	.uleb128 0x39
	.uleb128 0xb
	.uleb128 0x49
	.uleb128 0x13
	.uleb128 0x2
	.uleb128 0x18
	.byte	0
	.byte	0
	.uleb128 0x18
	.uleb128 0x2e
	.byte	0x1
	.uleb128 0x3f
	.uleb128 0x19
	.uleb128 0x3
	.uleb128 0xe
	.uleb128 0x3a
	.uleb128 0xb
	.uleb128 0x3b
	.uleb128 0xb
	.uleb128 0x39
	.uleb128 0xb
	.uleb128 0x6e
	.uleb128 0xe
	.uleb128 0x49
	.uleb128 0x13
	.uleb128 0x3c
	.uleb128 0x19
	.uleb128 0x1
	.uleb128 0x13
	.byte	0
	.byte	0
	.uleb128 0x19
	.uleb128 0x16
	.byte	0
	.uleb128 0x3
	.uleb128 0xe
	.uleb128 0x3a
	.uleb128 0xb
	.uleb128 0x3b
	.uleb128 0x5
	.uleb128 0x39
	.uleb128 0xb
	.uleb128 0x49
	.uleb128 0x13
	.uleb128 0x32
	.uleb128 0x21
	.sleb128 1
	.byte	0
	.byte	0
	.uleb128 0x1a
	.uleb128 0x2e
	.byte	0x1
	.uleb128 0x3f
	.uleb128 0x19
	.uleb128 0x3
	.uleb128 0xe
	.uleb128 0x3a
	.uleb128 0xb
	.uleb128 0x3b
	.uleb128 0xb
	.uleb128 0x39
	.uleb128 0xb
	.uleb128 0x49
	.uleb128 0x13
	.uleb128 0x3c
	.uleb128 0x19
	.uleb128 0x1
	.uleb128 0x13
	.byte	0
	.byte	0
	.uleb128 0x1b
	.uleb128 0x2e
	.byte	0x1
	.uleb128 0x3f
	.uleb128 0x19
	.uleb128 0x3
	.uleb128 0xe
	.uleb128 0x3a
	.uleb128 0xb
	.uleb128 0x3b
	.uleb128 0xb
	.uleb128 0x39
	.uleb128 0xb
	.uleb128 0x6e
	.uleb128 0xe
	.uleb128 0x49
	.uleb128 0x13
	.uleb128 0x32
	.uleb128 0xb
	.uleb128 0x3c
	.uleb128 0x19
	.uleb128 0x64
	.uleb128 0x13
	.uleb128 0x1
	.uleb128 0x13
	.byte	0
	.byte	0
	.uleb128 0x1c
	.uleb128 0x2e
	.byte	0x1
	.uleb128 0x31
	.uleb128 0x13
	.uleb128 0x6e
	.uleb128 0xe
	.uleb128 0x64
	.uleb128 0x13
	.uleb128 0x11
	.uleb128 0x1
	.uleb128 0x12
	.uleb128 0x7
	.uleb128 0x40
	.uleb128 0x18
	.uleb128 0x7c
	.uleb128 0x19
	.uleb128 0x1
	.uleb128 0x13
	.byte	0
	.byte	0
	.uleb128 0x1d
	.uleb128 0x16
	.byte	0
	.uleb128 0x3
	.uleb128 0xe
	.uleb128 0x3a
	.uleb128 0xb
	.uleb128 0x3b
	.uleb128 0x5
	.uleb128 0x39
	.uleb128 0xb
	.uleb128 0x49
	.uleb128 0x13
	.byte	0
	.byte	0
	.uleb128 0x1e
	.uleb128 0x13
	.byte	0x1
	.uleb128 0x3
	.uleb128 0xe
	.uleb128 0xb
	.uleb128 0xb
	.uleb128 0x3a
	.uleb128 0xb
	.uleb128 0x3b
	.uleb128 0xb
	.uleb128 0x39
	.uleb128 0xb
	.uleb128 0x1
	.uleb128 0x13
	.byte	0
	.byte	0
	.uleb128 0x1f
	.uleb128 0x30
	.byte	0
	.uleb128 0x3
	.uleb128 0xe
	.uleb128 0x49
	.uleb128 0x13
	.uleb128 0x1c
	.uleb128 0xb
	.byte	0
	.byte	0
	.uleb128 0x20
	.uleb128 0x2e
	.byte	0x1
	.uleb128 0x3f
	.uleb128 0x19
	.uleb128 0x3
	.uleb128 0xe
	.uleb128 0x3a
	.uleb128 0xb
	.uleb128 0x3b
	.uleb128 0xb
	.uleb128 0x39
	.uleb128 0xb
	.uleb128 0x6e
	.uleb128 0xe
	.uleb128 0x32
	.uleb128 0x21
	.sleb128 1
	.uleb128 0x3c
	.uleb128 0x19
	.uleb128 0x64
	.uleb128 0x13
	.uleb128 0x1
	.uleb128 0x13
	.byte	0
	.byte	0
	.uleb128 0x21
	.uleb128 0x8
	.byte	0
	.uleb128 0x3a
	.uleb128 0xb
	.uleb128 0x3b
	.uleb128 0x5
	.uleb128 0x39
	.uleb128 0xb
	.uleb128 0x18
	.uleb128 0x13
	.byte	0
	.byte	0
	.uleb128 0x22
	.uleb128 0x2e
	.byte	0x1
	.uleb128 0x3f
	.uleb128 0x19
	.uleb128 0x3
	.uleb128 0xe
	.uleb128 0x3a
	.uleb128 0x21
	.sleb128 7
	.uleb128 0x3b
	.uleb128 0x5
	.uleb128 0x39
	.uleb128 0x21
	.sleb128 7
	.uleb128 0x6e
	.uleb128 0xe
	.uleb128 0x3c
	.uleb128 0x19
	.uleb128 0x64
	.uleb128 0x13
	.uleb128 0x1
	.uleb128 0x13
	.byte	0
	.byte	0
	.uleb128 0x23
	.uleb128 0x5
	.byte	0
	.uleb128 0x49
	.uleb128 0x13
	.uleb128 0x2
	.uleb128 0x18
	.byte	0
	.byte	0
	.uleb128 0x24
	.uleb128 0x2e
	.byte	0x1
	.uleb128 0x3f
	.uleb128 0x19
	.uleb128 0x3
	.uleb128 0xe
	.uleb128 0x3a
	.uleb128 0xb
	.uleb128 0x3b
	.uleb128 0xb
	.uleb128 0x39
	.uleb128 0xb
	.uleb128 0x6e
	.uleb128 0xe
	.uleb128 0x3c
	.uleb128 0x19
	.uleb128 0x64
	.uleb128 0x13
	.uleb128 0x1
	.uleb128 0x13
	.byte	0
	.byte	0
	.uleb128 0x25
	.uleb128 0x2e
	.byte	0x1
	.uleb128 0x47
	.uleb128 0x13
	.uleb128 0x11
	.uleb128 0x1
	.uleb128 0x12
	.uleb128 0x7
	.uleb128 0x40
	.uleb128 0x18
	.uleb128 0x7a
	.uleb128 0x19
	.uleb128 0x1
	.uleb128 0x13
	.byte	0
	.byte	0
	.uleb128 0x26
	.uleb128 0x24
	.byte	0
	.uleb128 0xb
	.uleb128 0xb
	.uleb128 0x3e
	.uleb128 0xb
	.uleb128 0x3
	.uleb128 0xe
	.byte	0
	.byte	0
	.uleb128 0x27
	.uleb128 0x42
	.byte	0
	.uleb128 0xb
	.uleb128 0x21
	.sleb128 8
	.uleb128 0x49
	.uleb128 0x13
	.byte	0
	.byte	0
	.uleb128 0x28
	.uleb128 0x2e
	.byte	0x1
	.uleb128 0x47
	.uleb128 0x13
	.uleb128 0x64
	.uleb128 0x13
	.uleb128 0x11
	.uleb128 0x1
	.uleb128 0x12
	.uleb128 0x7
	.uleb128 0x40
	.uleb128 0x18
	.uleb128 0x7a
	.uleb128 0x19
	.uleb128 0x1
	.uleb128 0x13
	.byte	0
	.byte	0
	.uleb128 0x29
	.uleb128 0x5
	.byte	0
	.uleb128 0x3
	.uleb128 0x8
	.uleb128 0x3a
	.uleb128 0xb
	.uleb128 0x3b
	.uleb128 0xb
	.uleb128 0x39
	.uleb128 0xb
	.uleb128 0x49
	.uleb128 0x13
	.uleb128 0x2
	.uleb128 0x18
	.byte	0
	.byte	0
	.uleb128 0x2a
	.uleb128 0x34
	.byte	0
	.uleb128 0x3
	.uleb128 0xe
	.uleb128 0x3a
	.uleb128 0xb
	.uleb128 0x3b
	.uleb128 0x5
	.uleb128 0x39
	.uleb128 0xb
	.uleb128 0x49
	.uleb128 0x13
	.uleb128 0x2
	.uleb128 0x18
	.byte	0
	.byte	0
	.uleb128 0x2b
	.uleb128 0x30
	.byte	0
	.uleb128 0x49
	.uleb128 0x13
	.uleb128 0x1c
	.uleb128 0xb
	.byte	0
	.byte	0
	.uleb128 0x2c
	.uleb128 0x16
	.byte	0
	.uleb128 0x3
	.uleb128 0xe
	.uleb128 0x3a
	.uleb128 0xb
	.uleb128 0x3b
	.uleb128 0xb
	.uleb128 0x39
	.uleb128 0xb
	.uleb128 0x49
	.uleb128 0x13
	.uleb128 0x32
	.uleb128 0x21
	.sleb128 1
	.byte	0
	.byte	0
	.uleb128 0x2d
	.uleb128 0x13
	.byte	0x1
	.uleb128 0x3
	.uleb128 0xe
	.uleb128 0xb
	.uleb128 0x21
	.sleb128 1
	.uleb128 0x3a
	.uleb128 0xb
	.uleb128 0x3b
	.uleb128 0x5
	.uleb128 0x39
	.uleb128 0x21
	.sleb128 12
	.uleb128 0x1
	.uleb128 0x13
	.byte	0
	.byte	0
	.uleb128 0x2e
	.uleb128 0x34
	.byte	0
	.uleb128 0x3
	.uleb128 0xe
	.uleb128 0x3a
	.uleb128 0xb
	.uleb128 0x3b
	.uleb128 0xb
	.uleb128 0x39
	.uleb128 0xb
	.uleb128 0x49
	.uleb128 0x13
	.uleb128 0x2
	.uleb128 0x18
	.byte	0
	.byte	0
	.uleb128 0x2f
	.uleb128 0x2
	.byte	0x1
	.uleb128 0x3
	.uleb128 0xe
	.uleb128 0xb
	.uleb128 0xb
	.uleb128 0x3a
	.uleb128 0xb
	.uleb128 0x3b
	.uleb128 0xb
	.uleb128 0x39
	.uleb128 0xb
	.uleb128 0x1
	.uleb128 0x13
	.byte	0
	.byte	0
	.uleb128 0x30
	.uleb128 0x2e
	.byte	0
	.uleb128 0x3f
	.uleb128 0x19
	.uleb128 0x3
	.uleb128 0xe
	.uleb128 0x3a
	.uleb128 0x21
	.sleb128 60
	.uleb128 0x3b
	.uleb128 0xb
	.uleb128 0x39
	.uleb128 0x21
	.sleb128 5
	.uleb128 0x6e
	.uleb128 0xe
	.uleb128 0x49
	.uleb128 0x13
	.uleb128 0x32
	.uleb128 0x21
	.sleb128 1
	.uleb128 0x3c
	.uleb128 0x19
	.byte	0
	.byte	0
	.uleb128 0x31
	.uleb128 0x5
	.byte	0
	.uleb128 0x3
	.uleb128 0x8
	.uleb128 0x3a
	.uleb128 0xb
	.uleb128 0x3b
	.uleb128 0x5
	.uleb128 0x39
	.uleb128 0xb
	.uleb128 0x49
	.uleb128 0x13
	.byte	0
	.byte	0
	.uleb128 0x32
	.uleb128 0x2e
	.byte	0x1
	.uleb128 0x31
	.uleb128 0x13
	.uleb128 0x6e
	.uleb128 0xe
	.uleb128 0x64
	.uleb128 0x13
	.uleb128 0x11
	.uleb128 0x1
	.uleb128 0x12
	.uleb128 0x7
	.uleb128 0x40
	.uleb128 0x18
	.uleb128 0x7a
	.uleb128 0x19
	.uleb128 0x1
	.uleb128 0x13
	.byte	0
	.byte	0
	.uleb128 0x33
	.uleb128 0x2e
	.byte	0
	.uleb128 0x3f
	.uleb128 0x19
	.uleb128 0x3
	.uleb128 0xe
	.uleb128 0x3a
	.uleb128 0x21
	.sleb128 21
	.uleb128 0x3b
	.uleb128 0xb
	.uleb128 0x39
	.uleb128 0x21
	.sleb128 27
	.uleb128 0x6e
	.uleb128 0xe
	.uleb128 0x49
	.uleb128 0x13
	.uleb128 0x3c
	.uleb128 0x19
	.byte	0
	.byte	0
	.uleb128 0x34
	.uleb128 0x1c
	.byte	0
	.uleb128 0x49
	.uleb128 0x13
	.uleb128 0x38
	.uleb128 0x21
	.sleb128 0
	.byte	0
	.byte	0
	.uleb128 0x35
	.uleb128 0x2e
	.byte	0x1
	.uleb128 0x3f
	.uleb128 0x19
	.uleb128 0x3
	.uleb128 0xe
	.uleb128 0x3a
	.uleb128 0xb
	.uleb128 0x3b
	.uleb128 0x5
	.uleb128 0x39
	.uleb128 0xb
	.uleb128 0x6e
	.uleb128 0xe
	.uleb128 0x3c
	.uleb128 0x19
	.uleb128 0x1
	.uleb128 0x13
	.byte	0
	.byte	0
	.uleb128 0x36
	.uleb128 0x2e
	.byte	0x1
	.uleb128 0x3f
	.uleb128 0x19
	.uleb128 0x3
	.uleb128 0xe
	.uleb128 0x3a
	.uleb128 0x21
	.sleb128 7
	.uleb128 0x3b
	.uleb128 0x5
	.uleb128 0x39
	.uleb128 0x21
	.sleb128 7
	.uleb128 0x6e
	.uleb128 0xe
	.uleb128 0x49
	.uleb128 0x13
	.uleb128 0x3c
	.uleb128 0x19
	.uleb128 0x64
	.uleb128 0x13
	.uleb128 0x1
	.uleb128 0x13
	.byte	0
	.byte	0
	.uleb128 0x37
	.uleb128 0x2e
	.byte	0x1
	.uleb128 0x3f
	.uleb128 0x19
	.uleb128 0x3
	.uleb128 0xe
	.uleb128 0x3a
	.uleb128 0xb
	.uleb128 0x3b
	.uleb128 0x5
	.uleb128 0x39
	.uleb128 0x21
	.sleb128 7
	.uleb128 0x6e
	.uleb128 0xe
	.uleb128 0x32
	.uleb128 0x21
	.sleb128 1
	.uleb128 0x3c
	.uleb128 0x19
	.uleb128 0x63
	.uleb128 0x19
	.uleb128 0x64
	.uleb128 0x13
	.uleb128 0x1
	.uleb128 0x13
	.byte	0
	.byte	0
	.uleb128 0x38
	.uleb128 0x2e
	.byte	0x1
	.uleb128 0x3f
	.uleb128 0x19
	.uleb128 0x3
	.uleb128 0x8
	.uleb128 0x3a
	.uleb128 0x21
	.sleb128 7
	.uleb128 0x3b
	.uleb128 0x5
	.uleb128 0x39
	.uleb128 0x21
	.sleb128 7
	.uleb128 0x6e
	.uleb128 0xe
	.uleb128 0x49
	.uleb128 0x13
	.uleb128 0x32
	.uleb128 0x21
	.sleb128 1
	.uleb128 0x3c
	.uleb128 0x19
	.uleb128 0x64
	.uleb128 0x13
	.uleb128 0x1
	.uleb128 0x13
	.byte	0
	.byte	0
	.uleb128 0x39
	.uleb128 0x2e
	.byte	0x1
	.uleb128 0x3f
	.uleb128 0x19
	.uleb128 0x3
	.uleb128 0xe
	.uleb128 0x3a
	.uleb128 0xb
	.uleb128 0x3b
	.uleb128 0xb
	.uleb128 0x39
	.uleb128 0xb
	.uleb128 0x6e
	.uleb128 0xe
	.uleb128 0x49
	.uleb128 0x13
	.uleb128 0x3c
	.uleb128 0x19
	.uleb128 0x64
	.uleb128 0x13
	.uleb128 0x1
	.uleb128 0x13
	.byte	0
	.byte	0
	.uleb128 0x3a
	.uleb128 0x2e
	.byte	0x1
	.uleb128 0x3f
	.uleb128 0x19
	.uleb128 0x3
	.uleb128 0xe
	.uleb128 0x3a
	.uleb128 0xb
	.uleb128 0x3b
	.uleb128 0xb
	.uleb128 0x39
	.uleb128 0xb
	.uleb128 0x6e
	.uleb128 0xe
	.uleb128 0x3c
	.uleb128 0x19
	.uleb128 0x1
	.uleb128 0x13
	.byte	0
	.byte	0
	.uleb128 0x3b
	.uleb128 0x2
	.byte	0
	.uleb128 0x3
	.uleb128 0xe
	.uleb128 0x3c
	.uleb128 0x19
	.byte	0
	.byte	0
	.uleb128 0x3c
	.uleb128 0x2e
	.byte	0x1
	.uleb128 0x3f
	.uleb128 0x19
	.uleb128 0x3
	.uleb128 0xe
	.uleb128 0x3a
	.uleb128 0xb
	.uleb128 0x3b
	.uleb128 0xb
	.uleb128 0x39
	.uleb128 0xb
	.uleb128 0x6e
	.uleb128 0xe
	.uleb128 0x49
	.uleb128 0x13
	.uleb128 0x32
	.uleb128 0x21
	.sleb128 1
	.uleb128 0x3c
	.uleb128 0x19
	.uleb128 0x8b
	.uleb128 0x21
	.sleb128 1
	.uleb128 0x64
	.uleb128 0x13
	.uleb128 0x1
	.uleb128 0x13
	.byte	0
	.byte	0
	.uleb128 0x3d
	.uleb128 0x2
	.byte	0x1
	.uleb128 0x3
	.uleb128 0xe
	.uleb128 0xb
	.uleb128 0xb
	.uleb128 0x3a
	.uleb128 0xb
	.uleb128 0x3b
	.uleb128 0x5
	.uleb128 0x39
	.uleb128 0x21
	.sleb128 11
	.uleb128 0x1
	.uleb128 0x13
	.byte	0
	.byte	0
	.uleb128 0x3e
	.uleb128 0x18
	.byte	0
	.byte	0
	.byte	0
	.uleb128 0x3f
	.uleb128 0x2e
	.byte	0x1
	.uleb128 0x3f
	.uleb128 0x19
	.uleb128 0x3
	.uleb128 0xe
	.uleb128 0x3a
	.uleb128 0xb
	.uleb128 0x3b
	.uleb128 0x5
	.uleb128 0x39
	.uleb128 0x21
	.sleb128 13
	.uleb128 0x3c
	.uleb128 0x19
	.uleb128 0x1
	.uleb128 0x13
	.byte	0
	.byte	0
	.uleb128 0x40
	.uleb128 0x2e
	.byte	0x1
	.uleb128 0x3f
	.uleb128 0x19
	.uleb128 0x3
	.uleb128 0xe
	.uleb128 0x3a
	.uleb128 0x21
	.sleb128 5
	.uleb128 0x3b
	.uleb128 0xb
	.uleb128 0x39
	.uleb128 0x21
	.sleb128 9
	.uleb128 0x6e
	.uleb128 0xe
	.uleb128 0x32
	.uleb128 0x21
	.sleb128 1
	.uleb128 0x3c
	.uleb128 0x19
	.uleb128 0x8b
	.uleb128 0x21
	.sleb128 1
	.uleb128 0x64
	.uleb128 0x13
	.uleb128 0x1
	.uleb128 0x13
	.byte	0
	.byte	0
	.uleb128 0x41
	.uleb128 0x4107
	.byte	0
	.uleb128 0x3
	.uleb128 0xe
	.uleb128 0x3a
	.uleb128 0x21
	.sleb128 5
	.uleb128 0x3b
	.uleb128 0xb
	.uleb128 0x39
	.uleb128 0xb
	.byte	0
	.byte	0
	.uleb128 0x42
	.uleb128 0x2f
	.byte	0
	.uleb128 0x49
	.uleb128 0x13
	.byte	0
	.byte	0
	.uleb128 0x43
	.uleb128 0x2e
	.byte	0x1
	.uleb128 0x3f
	.uleb128 0x19
	.uleb128 0x3
	.uleb128 0xe
	.uleb128 0x3a
	.uleb128 0xb
	.uleb128 0x3b
	.uleb128 0x5
	.uleb128 0x39
	.uleb128 0x21
	.sleb128 7
	.uleb128 0x6e
	.uleb128 0xe
	.uleb128 0x32
	.uleb128 0x21
	.sleb128 1
	.uleb128 0x3c
	.uleb128 0x19
	.uleb128 0x8b
	.uleb128 0x21
	.sleb128 1
	.uleb128 0x64
	.uleb128 0x13
	.uleb128 0x1
	.uleb128 0x13
	.byte	0
	.byte	0
	.uleb128 0x44
	.uleb128 0x4107
	.byte	0x1
	.uleb128 0x3
	.uleb128 0xe
	.uleb128 0x3a
	.uleb128 0x21
	.sleb128 5
	.uleb128 0x3b
	.uleb128 0xb
	.uleb128 0x39
	.uleb128 0x21
	.sleb128 32
	.uleb128 0x1
	.uleb128 0x13
	.byte	0
	.byte	0
	.uleb128 0x45
	.uleb128 0x5
	.byte	0
	.uleb128 0x3
	.uleb128 0x8
	.uleb128 0x3a
	.uleb128 0xb
	.uleb128 0x3b
	.uleb128 0xb
	.uleb128 0x39
	.uleb128 0xb
	.uleb128 0x49
	.uleb128 0x13
	.byte	0
	.byte	0
	.uleb128 0x46
	.uleb128 0xd
	.byte	0
	.uleb128 0x3
	.uleb128 0xe
	.uleb128 0x3a
	.uleb128 0x21
	.sleb128 23
	.uleb128 0x3b
	.uleb128 0x21
	.sleb128 0
	.uleb128 0x49
	.uleb128 0x13
	.uleb128 0x38
	.uleb128 0xb
	.byte	0
	.byte	0
	.uleb128 0x47
	.uleb128 0x13
	.byte	0x1
	.uleb128 0xb
	.uleb128 0xb
	.uleb128 0x3a
	.uleb128 0xb
	.uleb128 0x3b
	.uleb128 0xb
	.uleb128 0x39
	.uleb128 0xb
	.uleb128 0x6e
	.uleb128 0xe
	.uleb128 0x1
	.uleb128 0x13
	.byte	0
	.byte	0
	.uleb128 0x48
	.uleb128 0x39
	.byte	0x1
	.uleb128 0x3
	.uleb128 0xe
	.uleb128 0x3a
	.uleb128 0xb
	.uleb128 0x3b
	.uleb128 0xb
	.uleb128 0x39
	.uleb128 0xb
	.uleb128 0x1
	.uleb128 0x13
	.byte	0
	.byte	0
	.uleb128 0x49
	.uleb128 0x1c
	.byte	0
	.uleb128 0x49
	.uleb128 0x13
	.uleb128 0x38
	.uleb128 0x21
	.sleb128 0
	.uleb128 0x32
	.uleb128 0xb
	.byte	0
	.byte	0
	.uleb128 0x4a
	.uleb128 0x2e
	.byte	0x1
	.uleb128 0x3f
	.uleb128 0x19
	.uleb128 0x3
	.uleb128 0xe
	.uleb128 0x3a
	.uleb128 0x21
	.sleb128 7
	.uleb128 0x3b
	.uleb128 0x5
	.uleb128 0x39
	.uleb128 0x21
	.sleb128 7
	.uleb128 0x6e
	.uleb128 0xe
	.uleb128 0x3c
	.uleb128 0x19
	.uleb128 0x8b
	.uleb128 0x21
	.sleb128 1
	.uleb128 0x64
	.uleb128 0x13
	.uleb128 0x1
	.uleb128 0x13
	.byte	0
	.byte	0
	.uleb128 0x4b
	.uleb128 0x2e
	.byte	0x1
	.uleb128 0x3f
	.uleb128 0x19
	.uleb128 0x3
	.uleb128 0xe
	.uleb128 0x3a
	.uleb128 0x21
	.sleb128 7
	.uleb128 0x3b
	.uleb128 0x5
	.uleb128 0x39
	.uleb128 0x21
	.sleb128 7
	.uleb128 0x6e
	.uleb128 0xe
	.uleb128 0x49
	.uleb128 0x13
	.uleb128 0x32
	.uleb128 0x21
	.sleb128 2
	.uleb128 0x3c
	.uleb128 0x19
	.uleb128 0x1
	.uleb128 0x13
	.byte	0
	.byte	0
	.uleb128 0x4c
	.uleb128 0xd
	.byte	0
	.uleb128 0x3
	.uleb128 0xe
	.uleb128 0x3a
	.uleb128 0x21
	.sleb128 18
	.uleb128 0x3b
	.uleb128 0x21
	.sleb128 1046
	.uleb128 0x39
	.uleb128 0x21
	.sleb128 17
	.uleb128 0x49
	.uleb128 0x13
	.uleb128 0x38
	.uleb128 0x21
	.sleb128 0
	.uleb128 0x32
	.uleb128 0x21
	.sleb128 2
	.byte	0
	.byte	0
	.uleb128 0x4d
	.uleb128 0x34
	.byte	0
	.uleb128 0x47
	.uleb128 0x13
	.byte	0
	.byte	0
	.uleb128 0x4e
	.uleb128 0x2e
	.byte	0x1
	.uleb128 0x31
	.uleb128 0x13
	.uleb128 0x6e
	.uleb128 0xe
	.uleb128 0x64
	.uleb128 0x13
	.uleb128 0x1
	.uleb128 0x13
	.byte	0
	.byte	0
	.uleb128 0x4f
	.uleb128 0xb
	.byte	0x1
	.uleb128 0x11
	.uleb128 0x1
	.uleb128 0x12
	.uleb128 0x7
	.byte	0
	.byte	0
	.uleb128 0x50
	.uleb128 0x2e
	.byte	0x1
	.uleb128 0x47
	.uleb128 0x13
	.uleb128 0x49
	.uleb128 0x13
	.uleb128 0x64
	.uleb128 0x13
	.uleb128 0x11
	.uleb128 0x1
	.uleb128 0x12
	.uleb128 0x7
	.uleb128 0x40
	.uleb128 0x18
	.uleb128 0x7c
	.uleb128 0x19
	.uleb128 0x1
	.uleb128 0x13
	.byte	0
	.byte	0
	.uleb128 0x51
	.uleb128 0x1
	.byte	0x1
	.uleb128 0x49
	.uleb128 0x13
	.uleb128 0x1
	.uleb128 0x13
	.byte	0
	.byte	0
	.uleb128 0x52
	.uleb128 0x21
	.byte	0
	.uleb128 0x49
	.uleb128 0x13
	.uleb128 0x2f
	.uleb128 0xb
	.byte	0
	.byte	0
	.uleb128 0x53
	.uleb128 0x2
	.byte	0x1
	.uleb128 0x3
	.uleb128 0xe
	.uleb128 0x3c
	.uleb128 0x19
	.uleb128 0x1
	.uleb128 0x13
	.byte	0
	.byte	0
	.uleb128 0x54
	.uleb128 0x2e
	.byte	0x1
	.uleb128 0x3f
	.uleb128 0x19
	.uleb128 0x3
	.uleb128 0x8
	.uleb128 0x3a
	.uleb128 0xb
	.uleb128 0x3b
	.uleb128 0xb
	.uleb128 0x39
	.uleb128 0xb
	.uleb128 0x6e
	.uleb128 0xe
	.uleb128 0x49
	.uleb128 0x13
	.uleb128 0x32
	.uleb128 0x21
	.sleb128 1
	.uleb128 0x3c
	.uleb128 0x19
	.uleb128 0x64
	.uleb128 0x13
	.uleb128 0x1
	.uleb128 0x13
	.byte	0
	.byte	0
	.uleb128 0x55
	.uleb128 0x2e
	.byte	0
	.uleb128 0x3f
	.uleb128 0x19
	.uleb128 0x3
	.uleb128 0xe
	.uleb128 0x3a
	.uleb128 0xb
	.uleb128 0x3b
	.uleb128 0x5
	.uleb128 0x39
	.uleb128 0xb
	.uleb128 0x49
	.uleb128 0x13
	.uleb128 0x3c
	.uleb128 0x19
	.byte	0
	.byte	0
	.uleb128 0x56
	.uleb128 0xd
	.byte	0
	.uleb128 0x3
	.uleb128 0x8
	.uleb128 0x3a
	.uleb128 0x21
	.sleb128 54
	.uleb128 0x3b
	.uleb128 0xb
	.uleb128 0x39
	.uleb128 0xb
	.uleb128 0x49
	.uleb128 0x13
	.uleb128 0x38
	.uleb128 0xb
	.byte	0
	.byte	0
	.uleb128 0x57
	.uleb128 0x13
	.byte	0
	.uleb128 0x3
	.uleb128 0xe
	.uleb128 0x3c
	.uleb128 0x19
	.byte	0
	.byte	0
	.uleb128 0x58
	.uleb128 0x2e
	.byte	0x1
	.uleb128 0x3f
	.uleb128 0x19
	.uleb128 0x3
	.uleb128 0xe
	.uleb128 0x6e
	.uleb128 0xe
	.uleb128 0x34
	.uleb128 0x19
	.uleb128 0x3c
	.uleb128 0x19
	.uleb128 0x64
	.uleb128 0x13
	.uleb128 0x1
	.uleb128 0x13
	.byte	0
	.byte	0
	.uleb128 0x59
	.uleb128 0x34
	.byte	0
	.uleb128 0x3
	.uleb128 0x8
	.uleb128 0x3a
	.uleb128 0x21
	.sleb128 6
	.uleb128 0x3b
	.uleb128 0xb
	.uleb128 0x39
	.uleb128 0xb
	.uleb128 0x49
	.uleb128 0x13
	.uleb128 0x2
	.uleb128 0x18
	.byte	0
	.byte	0
	.uleb128 0x5a
	.uleb128 0xd
	.byte	0
	.uleb128 0x3
	.uleb128 0xe
	.uleb128 0x3a
	.uleb128 0x21
	.sleb128 26
	.uleb128 0x3b
	.uleb128 0xb
	.uleb128 0x39
	.uleb128 0xb
	.uleb128 0x49
	.uleb128 0x13
	.byte	0
	.byte	0
	.uleb128 0x5b
	.uleb128 0x30
	.byte	0
	.uleb128 0x3
	.uleb128 0x8
	.uleb128 0x49
	.uleb128 0x13
	.uleb128 0x1c
	.uleb128 0xb
	.byte	0
	.byte	0
	.uleb128 0x5c
	.uleb128 0x39
	.byte	0
	.uleb128 0x3
	.uleb128 0xe
	.uleb128 0x3a
	.uleb128 0x21
	.sleb128 3
	.uleb128 0x3b
	.uleb128 0x5
	.uleb128 0x39
	.uleb128 0x21
	.sleb128 13
	.byte	0
	.byte	0
	.uleb128 0x5d
	.uleb128 0x2e
	.byte	0x1
	.uleb128 0x3f
	.uleb128 0x19
	.uleb128 0x3
	.uleb128 0xe
	.uleb128 0x3a
	.uleb128 0xb
	.uleb128 0x3b
	.uleb128 0xb
	.uleb128 0x39
	.uleb128 0xb
	.uleb128 0x6e
	.uleb128 0xe
	.uleb128 0x87
	.uleb128 0x19
	.uleb128 0x3c
	.uleb128 0x19
	.uleb128 0x1
	.uleb128 0x13
	.byte	0
	.byte	0
	.uleb128 0x5e
	.uleb128 0x2e
	.byte	0x1
	.uleb128 0x3f
	.uleb128 0x19
	.uleb128 0x3
	.uleb128 0x8
	.uleb128 0x3a
	.uleb128 0x21
	.sleb128 34
	.uleb128 0x3b
	.uleb128 0x5
	.uleb128 0x39
	.uleb128 0x21
	.sleb128 7
	.uleb128 0x6e
	.uleb128 0xe
	.uleb128 0x49
	.uleb128 0x13
	.uleb128 0x3c
	.uleb128 0x19
	.uleb128 0x1
	.uleb128 0x13
	.byte	0
	.byte	0
	.uleb128 0x5f
	.uleb128 0x39
	.byte	0
	.uleb128 0x3
	.uleb128 0xe
	.uleb128 0x3a
	.uleb128 0xb
	.uleb128 0x3b
	.uleb128 0xb
	.uleb128 0x39
	.uleb128 0xb
	.byte	0
	.byte	0
	.uleb128 0x60
	.uleb128 0x2e
	.byte	0x1
	.uleb128 0x3f
	.uleb128 0x19
	.uleb128 0x3
	.uleb128 0xe
	.uleb128 0x3a
	.uleb128 0x21
	.sleb128 40
	.uleb128 0x3b
	.uleb128 0x5
	.uleb128 0x39
	.uleb128 0x21
	.sleb128 7
	.uleb128 0x6e
	.uleb128 0xe
	.uleb128 0x32
	.uleb128 0x21
	.sleb128 1
	.uleb128 0x3c
	.uleb128 0x19
	.uleb128 0x64
	.uleb128 0x13
	.uleb128 0x20
	.uleb128 0x21
	.sleb128 0
	.uleb128 0x1
	.uleb128 0x13
	.byte	0
	.byte	0
	.uleb128 0x61
	.uleb128 0x2f
	.byte	0
	.uleb128 0x3
	.uleb128 0xe
	.uleb128 0x49
	.uleb128 0x13
	.uleb128 0x1e
	.uleb128 0x19
	.byte	0
	.byte	0
	.uleb128 0x62
	.uleb128 0x2e
	.byte	0x1
	.uleb128 0x3f
	.uleb128 0x19
	.uleb128 0x3
	.uleb128 0xe
	.uleb128 0x3a
	.uleb128 0x21
	.sleb128 9
	.uleb128 0x3b
	.uleb128 0xb
	.uleb128 0x39
	.uleb128 0x21
	.sleb128 7
	.uleb128 0x6e
	.uleb128 0xe
	.uleb128 0x32
	.uleb128 0x21
	.sleb128 1
	.uleb128 0x3c
	.uleb128 0x19
	.uleb128 0x64
	.uleb128 0x13
	.byte	0
	.byte	0
	.uleb128 0x63
	.uleb128 0x2e
	.byte	0x1
	.uleb128 0x3f
	.uleb128 0x19
	.uleb128 0x3
	.uleb128 0xe
	.uleb128 0x3a
	.uleb128 0x21
	.sleb128 7
	.uleb128 0x3b
	.uleb128 0xb
	.uleb128 0x39
	.uleb128 0x21
	.sleb128 2
	.uleb128 0x6e
	.uleb128 0xe
	.uleb128 0x3c
	.uleb128 0x19
	.uleb128 0x64
	.uleb128 0x13
	.byte	0
	.byte	0
	.uleb128 0x64
	.uleb128 0x2e
	.byte	0x1
	.uleb128 0x3f
	.uleb128 0x19
	.uleb128 0x3
	.uleb128 0xe
	.uleb128 0x6e
	.uleb128 0xe
	.uleb128 0x34
	.uleb128 0x19
	.uleb128 0x3c
	.uleb128 0x19
	.uleb128 0x64
	.uleb128 0x13
	.byte	0
	.byte	0
	.uleb128 0x65
	.uleb128 0xd
	.byte	0
	.uleb128 0x3
	.uleb128 0xe
	.uleb128 0x3a
	.uleb128 0x21
	.sleb128 7
	.uleb128 0x3b
	.uleb128 0x21
	.sleb128 371
	.uleb128 0x39
	.uleb128 0x21
	.sleb128 20
	.uleb128 0x49
	.uleb128 0x13
	.uleb128 0x38
	.uleb128 0x21
	.sleb128 0
	.byte	0
	.byte	0
	.uleb128 0x66
	.uleb128 0x2e
	.byte	0
	.uleb128 0x3f
	.uleb128 0x19
	.uleb128 0x3
	.uleb128 0xe
	.uleb128 0x3a
	.uleb128 0x21
	.sleb128 7
	.uleb128 0x3b
	.uleb128 0x21
	.sleb128 478
	.uleb128 0x39
	.uleb128 0x21
	.sleb128 7
	.uleb128 0x6e
	.uleb128 0xe
	.uleb128 0x49
	.uleb128 0x13
	.uleb128 0x3c
	.uleb128 0x19
	.byte	0
	.byte	0
	.uleb128 0x67
	.uleb128 0x2e
	.byte	0
	.uleb128 0x3f
	.uleb128 0x19
	.uleb128 0x3
	.uleb128 0xe
	.uleb128 0x3a
	.uleb128 0x21
	.sleb128 44
	.uleb128 0x3b
	.uleb128 0xb
	.uleb128 0x39
	.uleb128 0x21
	.sleb128 3
	.uleb128 0x6e
	.uleb128 0xe
	.uleb128 0x87
	.uleb128 0x19
	.uleb128 0x3c
	.uleb128 0x19
	.byte	0
	.byte	0
	.uleb128 0x68
	.uleb128 0x4107
	.byte	0
	.uleb128 0x3
	.uleb128 0xe
	.byte	0
	.byte	0
	.uleb128 0x69
	.uleb128 0x2e
	.byte	0x1
	.uleb128 0x3f
	.uleb128 0x19
	.uleb128 0x3
	.uleb128 0xe
	.uleb128 0x3a
	.uleb128 0xb
	.uleb128 0x3b
	.uleb128 0x5
	.uleb128 0x39
	.uleb128 0xb
	.uleb128 0x6e
	.uleb128 0xe
	.uleb128 0x49
	.uleb128 0x13
	.uleb128 0x3c
	.uleb128 0x19
	.byte	0
	.byte	0
	.uleb128 0x6a
	.uleb128 0x3b
	.byte	0
	.uleb128 0x3
	.uleb128 0xe
	.byte	0
	.byte	0
	.uleb128 0x6b
	.uleb128 0x2e
	.byte	0
	.uleb128 0x3f
	.uleb128 0x19
	.uleb128 0x3
	.uleb128 0xe
	.uleb128 0x3a
	.uleb128 0xb
	.uleb128 0x3b
	.uleb128 0xb
	.uleb128 0x39
	.uleb128 0xb
	.uleb128 0x49
	.uleb128 0x13
	.uleb128 0x3c
	.uleb128 0x19
	.byte	0
	.byte	0
	.uleb128 0x6c
	.uleb128 0x3a
	.byte	0
	.uleb128 0x3a
	.uleb128 0xb
	.uleb128 0x3b
	.uleb128 0xb
	.uleb128 0x39
	.uleb128 0xb
	.uleb128 0x18
	.uleb128 0x13
	.byte	0
	.byte	0
	.uleb128 0x6d
	.uleb128 0x39
	.byte	0x1
	.uleb128 0x3
	.uleb128 0xe
	.uleb128 0x3a
	.uleb128 0xb
	.uleb128 0x3b
	.uleb128 0xb
	.uleb128 0x39
	.uleb128 0xb
	.byte	0
	.byte	0
	.uleb128 0x6e
	.uleb128 0x34
	.byte	0
	.uleb128 0x3
	.uleb128 0x8
	.uleb128 0x3a
	.uleb128 0x21
	.sleb128 60
	.uleb128 0x3b
	.uleb128 0xb
	.uleb128 0x39
	.uleb128 0xb
	.uleb128 0x49
	.uleb128 0x13
	.uleb128 0x3c
	.uleb128 0x19
	.uleb128 0x1c
	.uleb128 0xa
	.uleb128 0x6c
	.uleb128 0x19
	.byte	0
	.byte	0
	.uleb128 0x6f
	.uleb128 0x34
	.byte	0
	.uleb128 0x3
	.uleb128 0xe
	.uleb128 0x3a
	.uleb128 0x21
	.sleb128 60
	.uleb128 0x3b
	.uleb128 0xb
	.uleb128 0x39
	.uleb128 0xb
	.uleb128 0x49
	.uleb128 0x13
	.uleb128 0x3c
	.uleb128 0x19
	.uleb128 0x1c
	.uleb128 0xa
	.uleb128 0x6c
	.uleb128 0x19
	.byte	0
	.byte	0
	.uleb128 0x70
	.uleb128 0x4107
	.byte	0x1
	.uleb128 0x3
	.uleb128 0x8
	.uleb128 0x1
	.uleb128 0x13
	.byte	0
	.byte	0
	.uleb128 0x71
	.uleb128 0x2e
	.byte	0x1
	.uleb128 0x3f
	.uleb128 0x19
	.uleb128 0x3
	.uleb128 0xe
	.uleb128 0x49
	.uleb128 0x13
	.uleb128 0x34
	.uleb128 0x19
	.uleb128 0x3c
	.uleb128 0x19
	.uleb128 0x1
	.uleb128 0x13
	.byte	0
	.byte	0
	.uleb128 0x72
	.uleb128 0xb
	.byte	0x1
	.byte	0
	.byte	0
	.uleb128 0x73
	.uleb128 0x34
	.byte	0
	.uleb128 0x3
	.uleb128 0xe
	.uleb128 0x3a
	.uleb128 0x21
	.sleb128 11
	.uleb128 0x3b
	.uleb128 0xb
	.uleb128 0x39
	.uleb128 0x21
	.sleb128 23
	.uleb128 0x49
	.uleb128 0x13
	.byte	0
	.byte	0
	.uleb128 0x74
	.uleb128 0x34
	.byte	0
	.uleb128 0x3
	.uleb128 0xe
	.uleb128 0x3a
	.uleb128 0xb
	.uleb128 0x3b
	.uleb128 0x5
	.uleb128 0x39
	.uleb128 0xb
	.uleb128 0x49
	.uleb128 0x13
	.uleb128 0x6c
	.uleb128 0x19
	.uleb128 0x2
	.uleb128 0x18
	.byte	0
	.byte	0
	.uleb128 0x75
	.uleb128 0x34
	.byte	0
	.uleb128 0x3
	.uleb128 0x8
	.uleb128 0x3a
	.uleb128 0x21
	.sleb128 7
	.uleb128 0x3b
	.uleb128 0x5
	.uleb128 0x39
	.uleb128 0xb
	.uleb128 0x49
	.uleb128 0x13
	.uleb128 0x2
	.uleb128 0x18
	.byte	0
	.byte	0
	.uleb128 0x76
	.uleb128 0xb
	.byte	0x1
	.uleb128 0x55
	.uleb128 0x17
	.byte	0
	.byte	0
	.uleb128 0x77
	.uleb128 0x5
	.byte	0
	.uleb128 0x3
	.uleb128 0xe
	.uleb128 0x3a
	.uleb128 0x21
	.sleb128 5
	.uleb128 0x3b
	.uleb128 0xb
	.uleb128 0x39
	.uleb128 0xb
	.uleb128 0x49
	.uleb128 0x13
	.byte	0
	.byte	0
	.uleb128 0x78
	.uleb128 0x2e
	.byte	0x1
	.uleb128 0x47
	.uleb128 0x13
	.uleb128 0x3a
	.uleb128 0x21
	.sleb128 7
	.uleb128 0x3b
	.uleb128 0xb
	.uleb128 0x39
	.uleb128 0x21
	.sleb128 14
	.uleb128 0x64
	.uleb128 0x13
	.uleb128 0x20
	.uleb128 0x21
	.sleb128 2
	.uleb128 0x1
	.uleb128 0x13
	.byte	0
	.byte	0
	.uleb128 0x79
	.uleb128 0x11
	.byte	0x1
	.uleb128 0x25
	.uleb128 0xe
	.uleb128 0x13
	.uleb128 0xb
	.uleb128 0x3
	.uleb128 0x1f
	.uleb128 0x1b
	.uleb128 0x1f
	.uleb128 0x55
	.uleb128 0x17
	.uleb128 0x11
	.uleb128 0x1
	.uleb128 0x10
	.uleb128 0x17
	.byte	0
	.byte	0
	.uleb128 0x7a
	.uleb128 0x13
	.byte	0x1
	.uleb128 0x3
	.uleb128 0xe
	.uleb128 0xb
	.uleb128 0xb
	.uleb128 0x3a
	.uleb128 0xb
	.uleb128 0x3b
	.uleb128 0xb
	.uleb128 0x1
	.uleb128 0x13
	.byte	0
	.byte	0
	.uleb128 0x7b
	.uleb128 0xf
	.byte	0
	.uleb128 0xb
	.uleb128 0xb
	.byte	0
	.byte	0
	.uleb128 0x7c
	.uleb128 0x17
	.byte	0x1
	.uleb128 0xb
	.uleb128 0xb
	.uleb128 0x3a
	.uleb128 0xb
	.uleb128 0x3b
	.uleb128 0xb
	.uleb128 0x39
	.uleb128 0xb
	.uleb128 0x1
	.uleb128 0x13
	.byte	0
	.byte	0
	.uleb128 0x7d
	.uleb128 0x24
	.byte	0
	.uleb128 0xb
	.uleb128 0xb
	.uleb128 0x3e
	.uleb128 0xb
	.uleb128 0x3
	.uleb128 0x8
	.byte	0
	.byte	0
	.uleb128 0x7e
	.uleb128 0x39
	.byte	0x1
	.uleb128 0x3
	.uleb128 0x8
	.uleb128 0x3a
	.uleb128 0xb
	.uleb128 0x3b
	.uleb128 0x5
	.uleb128 0x39
	.uleb128 0xb
	.uleb128 0x1
	.uleb128 0x13
	.byte	0
	.byte	0
	.uleb128 0x7f
	.uleb128 0x4
	.byte	0
	.uleb128 0x3
	.uleb128 0xe
	.uleb128 0x6d
	.uleb128 0x19
	.uleb128 0x3e
	.uleb128 0xb
	.uleb128 0xb
	.uleb128 0xb
	.uleb128 0x49
	.uleb128 0x13
	.uleb128 0x3a
	.uleb128 0xb
	.uleb128 0x3b
	.uleb128 0xb
	.uleb128 0x39
	.uleb128 0xb
	.byte	0
	.byte	0
	.uleb128 0x80
	.uleb128 0x2e
	.byte	0x1
	.uleb128 0x3f
	.uleb128 0x19
	.uleb128 0x3
	.uleb128 0xe
	.uleb128 0x3a
	.uleb128 0xb
	.uleb128 0x3b
	.uleb128 0xb
	.uleb128 0x39
	.uleb128 0xb
	.uleb128 0x6e
	.uleb128 0xe
	.uleb128 0x3c
	.uleb128 0x19
	.uleb128 0x63
	.uleb128 0x19
	.uleb128 0x64
	.uleb128 0x13
	.uleb128 0x1
	.uleb128 0x13
	.byte	0
	.byte	0
	.uleb128 0x81
	.uleb128 0x2e
	.byte	0x1
	.uleb128 0x3f
	.uleb128 0x19
	.uleb128 0x3
	.uleb128 0xe
	.uleb128 0x3a
	.uleb128 0xb
	.uleb128 0x3b
	.uleb128 0xb
	.uleb128 0x39
	.uleb128 0xb
	.uleb128 0x6e
	.uleb128 0xe
	.uleb128 0x49
	.uleb128 0x13
	.uleb128 0x32
	.uleb128 0xb
	.uleb128 0x3c
	.uleb128 0x19
	.uleb128 0x63
	.uleb128 0x19
	.uleb128 0x64
	.uleb128 0x13
	.uleb128 0x1
	.uleb128 0x13
	.byte	0
	.byte	0
	.uleb128 0x82
	.uleb128 0x2e
	.byte	0x1
	.uleb128 0x3f
	.uleb128 0x19
	.uleb128 0x3
	.uleb128 0xe
	.uleb128 0x3a
	.uleb128 0xb
	.uleb128 0x3b
	.uleb128 0xb
	.uleb128 0x39
	.uleb128 0xb
	.uleb128 0x6e
	.uleb128 0xe
	.uleb128 0x49
	.uleb128 0x13
	.uleb128 0x32
	.uleb128 0xb
	.uleb128 0x3c
	.uleb128 0x19
	.uleb128 0x64
	.uleb128 0x13
	.byte	0
	.byte	0
	.uleb128 0x83
	.uleb128 0x2e
	.byte	0
	.uleb128 0x3f
	.uleb128 0x19
	.uleb128 0x3
	.uleb128 0x8
	.uleb128 0x3a
	.uleb128 0xb
	.uleb128 0x3b
	.uleb128 0x5
	.uleb128 0x39
	.uleb128 0xb
	.uleb128 0x6e
	.uleb128 0xe
	.uleb128 0x49
	.uleb128 0x13
	.uleb128 0x3c
	.uleb128 0x19
	.byte	0
	.byte	0
	.uleb128 0x84
	.uleb128 0x13
	.byte	0
	.uleb128 0x3
	.uleb128 0xe
	.uleb128 0xb
	.uleb128 0xb
	.uleb128 0x3a
	.uleb128 0xb
	.uleb128 0x3b
	.uleb128 0xb
	.uleb128 0x39
	.uleb128 0xb
	.byte	0
	.byte	0
	.uleb128 0x85
	.uleb128 0x2e
	.byte	0x1
	.uleb128 0x3f
	.uleb128 0x19
	.uleb128 0x3
	.uleb128 0xe
	.uleb128 0x3a
	.uleb128 0xb
	.uleb128 0x3b
	.uleb128 0xb
	.uleb128 0x39
	.uleb128 0xb
	.uleb128 0x6e
	.uleb128 0xe
	.uleb128 0x3c
	.uleb128 0x19
	.byte	0
	.byte	0
	.uleb128 0x86
	.uleb128 0x39
	.byte	0
	.uleb128 0x3
	.uleb128 0xe
	.uleb128 0x3a
	.uleb128 0xb
	.uleb128 0x3b
	.uleb128 0x5
	.uleb128 0x39
	.uleb128 0xb
	.uleb128 0x89
	.uleb128 0x19
	.byte	0
	.byte	0
	.uleb128 0x87
	.uleb128 0x39
	.byte	0
	.uleb128 0x3
	.uleb128 0x8
	.uleb128 0x3a
	.uleb128 0xb
	.uleb128 0x3b
	.uleb128 0xb
	.uleb128 0x39
	.uleb128 0xb
	.uleb128 0x89
	.uleb128 0x19
	.byte	0
	.byte	0
	.uleb128 0x88
	.uleb128 0x2
	.byte	0x1
	.uleb128 0x3
	.uleb128 0xe
	.uleb128 0xb
	.uleb128 0xb
	.uleb128 0x3a
	.uleb128 0xb
	.uleb128 0x3b
	.uleb128 0x5
	.uleb128 0x39
	.uleb128 0xb
	.uleb128 0x32
	.uleb128 0xb
	.uleb128 0x1
	.uleb128 0x13
	.byte	0
	.byte	0
	.uleb128 0x89
	.uleb128 0x2e
	.byte	0x1
	.uleb128 0x3f
	.uleb128 0x19
	.uleb128 0x3
	.uleb128 0xe
	.uleb128 0x3a
	.uleb128 0xb
	.uleb128 0x3b
	.uleb128 0x5
	.uleb128 0x39
	.uleb128 0xb
	.uleb128 0x6e
	.uleb128 0xe
	.uleb128 0x49
	.uleb128 0x13
	.uleb128 0x32
	.uleb128 0xb
	.uleb128 0x3c
	.uleb128 0x19
	.uleb128 0x8b
	.uleb128 0xb
	.uleb128 0x64
	.uleb128 0x13
	.byte	0
	.byte	0
	.uleb128 0x8a
	.uleb128 0x34
	.byte	0
	.uleb128 0x3
	.uleb128 0xe
	.uleb128 0x3a
	.uleb128 0xb
	.uleb128 0x3b
	.uleb128 0xb
	.uleb128 0x39
	.uleb128 0xb
	.uleb128 0x6e
	.uleb128 0xe
	.uleb128 0x49
	.uleb128 0x13
	.uleb128 0x3f
	.uleb128 0x19
	.uleb128 0x3c
	.uleb128 0x19
	.byte	0
	.byte	0
	.uleb128 0x8b
	.uleb128 0x34
	.byte	0
	.uleb128 0x3
	.uleb128 0xe
	.uleb128 0x3a
	.uleb128 0xb
	.uleb128 0x3b
	.uleb128 0xb
	.uleb128 0x39
	.uleb128 0xb
	.uleb128 0x49
	.uleb128 0x13
	.uleb128 0x3c
	.uleb128 0x19
	.byte	0
	.byte	0
	.uleb128 0x8c
	.uleb128 0x2e
	.byte	0x1
	.uleb128 0x3f
	.uleb128 0x19
	.uleb128 0x3
	.uleb128 0xe
	.uleb128 0x3a
	.uleb128 0xb
	.uleb128 0x3b
	.uleb128 0xb
	.uleb128 0x39
	.uleb128 0xb
	.uleb128 0x6e
	.uleb128 0xe
	.uleb128 0x4c
	.uleb128 0xb
	.uleb128 0x1d
	.uleb128 0x13
	.uleb128 0x32
	.uleb128 0xb
	.uleb128 0x3c
	.uleb128 0x19
	.uleb128 0x64
	.uleb128 0x13
	.uleb128 0x20
	.uleb128 0xb
	.uleb128 0x1
	.uleb128 0x13
	.byte	0
	.byte	0
	.uleb128 0x8d
	.uleb128 0x2e
	.byte	0x1
	.uleb128 0x3f
	.uleb128 0x19
	.uleb128 0x3
	.uleb128 0xe
	.uleb128 0x3a
	.uleb128 0xb
	.uleb128 0x3b
	.uleb128 0xb
	.uleb128 0x39
	.uleb128 0xb
	.uleb128 0x6e
	.uleb128 0xe
	.uleb128 0x32
	.uleb128 0xb
	.uleb128 0x3c
	.uleb128 0x19
	.uleb128 0x63
	.uleb128 0x19
	.uleb128 0x64
	.uleb128 0x13
	.uleb128 0x20
	.uleb128 0xb
	.byte	0
	.byte	0
	.uleb128 0x8e
	.uleb128 0x13
	.byte	0x1
	.uleb128 0x3
	.uleb128 0x8
	.uleb128 0xb
	.uleb128 0xb
	.uleb128 0x3a
	.uleb128 0xb
	.uleb128 0x3b
	.uleb128 0xb
	.uleb128 0x39
	.uleb128 0xb
	.uleb128 0x1
	.uleb128 0x13
	.byte	0
	.byte	0
	.uleb128 0x8f
	.uleb128 0x39
	.byte	0x1
	.uleb128 0x3
	.uleb128 0xe
	.uleb128 0x3a
	.uleb128 0xb
	.uleb128 0x3b
	.uleb128 0x5
	.uleb128 0x39
	.uleb128 0xb
	.uleb128 0x1
	.uleb128 0x13
	.byte	0
	.byte	0
	.uleb128 0x90
	.uleb128 0x2e
	.byte	0x1
	.uleb128 0x3f
	.uleb128 0x19
	.uleb128 0x3
	.uleb128 0x8
	.uleb128 0x3a
	.uleb128 0xb
	.uleb128 0x3b
	.uleb128 0xb
	.uleb128 0x39
	.uleb128 0xb
	.uleb128 0x6e
	.uleb128 0xe
	.uleb128 0x49
	.uleb128 0x13
	.uleb128 0x3c
	.uleb128 0x19
	.uleb128 0x1
	.uleb128 0x13
	.byte	0
	.byte	0
	.uleb128 0x91
	.uleb128 0x15
	.byte	0x1
	.uleb128 0x1
	.uleb128 0x13
	.byte	0
	.byte	0
	.uleb128 0x92
	.uleb128 0x26
	.byte	0
	.byte	0
	.byte	0
	.uleb128 0x93
	.uleb128 0x15
	.byte	0x1
	.uleb128 0x49
	.uleb128 0x13
	.uleb128 0x1
	.uleb128 0x13
	.byte	0
	.byte	0
	.uleb128 0x94
	.uleb128 0x15
	.byte	0
	.byte	0
	.byte	0
	.uleb128 0x95
	.uleb128 0x2e
	.byte	0x1
	.uleb128 0x3f
	.uleb128 0x19
	.uleb128 0x3
	.uleb128 0x8
	.uleb128 0x3a
	.uleb128 0xb
	.uleb128 0x3b
	.uleb128 0x5
	.uleb128 0x39
	.uleb128 0xb
	.uleb128 0x49
	.uleb128 0x13
	.uleb128 0x3c
	.uleb128 0x19
	.uleb128 0x1
	.uleb128 0x13
	.byte	0
	.byte	0
	.uleb128 0x96
	.uleb128 0x2e
	.byte	0x1
	.uleb128 0x3f
	.uleb128 0x19
	.uleb128 0x3
	.uleb128 0xe
	.uleb128 0x3a
	.uleb128 0xb
	.uleb128 0x3b
	.uleb128 0x5
	.uleb128 0x39
	.uleb128 0xb
	.uleb128 0x87
	.uleb128 0x19
	.uleb128 0x3c
	.uleb128 0x19
	.uleb128 0x1
	.uleb128 0x13
	.byte	0
	.byte	0
	.uleb128 0x97
	.uleb128 0x16
	.byte	0
	.uleb128 0x3
	.uleb128 0xe
	.uleb128 0x3a
	.uleb128 0xb
	.uleb128 0x3b
	.uleb128 0xb
	.uleb128 0x39
	.uleb128 0xb
	.byte	0
	.byte	0
	.uleb128 0x98
	.uleb128 0x34
	.byte	0
	.uleb128 0x47
	.uleb128 0x13
	.uleb128 0x2
	.uleb128 0x18
	.byte	0
	.byte	0
	.uleb128 0x99
	.uleb128 0x39
	.byte	0x1
	.uleb128 0x3
	.uleb128 0x8
	.uleb128 0x3a
	.uleb128 0xb
	.uleb128 0x3b
	.uleb128 0xb
	.uleb128 0x39
	.uleb128 0xb
	.uleb128 0x89
	.uleb128 0x19
	.byte	0
	.byte	0
	.uleb128 0x9a
	.uleb128 0x4107
	.byte	0x1
	.uleb128 0x3
	.uleb128 0xe
	.uleb128 0x3a
	.uleb128 0xb
	.uleb128 0x3b
	.uleb128 0xb
	.uleb128 0x39
	.uleb128 0xb
	.byte	0
	.byte	0
	.uleb128 0x9b
	.uleb128 0x2e
	.byte	0x1
	.uleb128 0x3f
	.uleb128 0x19
	.uleb128 0x3
	.uleb128 0xe
	.uleb128 0x3a
	.uleb128 0xb
	.uleb128 0x3b
	.uleb128 0xb
	.uleb128 0x39
	.uleb128 0xb
	.uleb128 0x6e
	.uleb128 0xe
	.uleb128 0x49
	.uleb128 0x13
	.uleb128 0x3c
	.uleb128 0x19
	.byte	0
	.byte	0
	.uleb128 0x9c
	.uleb128 0x34
	.byte	0
	.uleb128 0x3
	.uleb128 0xe
	.uleb128 0x49
	.uleb128 0x13
	.uleb128 0x3f
	.uleb128 0x19
	.uleb128 0x34
	.uleb128 0x19
	.uleb128 0x3c
	.uleb128 0x19
	.byte	0
	.byte	0
	.uleb128 0x9d
	.uleb128 0x2e
	.byte	0
	.uleb128 0x3f
	.uleb128 0x19
	.uleb128 0x3
	.uleb128 0xe
	.uleb128 0x34
	.uleb128 0x19
	.uleb128 0x3c
	.uleb128 0x19
	.byte	0
	.byte	0
	.uleb128 0x9e
	.uleb128 0x2e
	.byte	0
	.uleb128 0x3f
	.uleb128 0x19
	.uleb128 0x3
	.uleb128 0xe
	.uleb128 0x34
	.uleb128 0x19
	.uleb128 0x87
	.uleb128 0x19
	.uleb128 0x3c
	.uleb128 0x19
	.byte	0
	.byte	0
	.uleb128 0x9f
	.uleb128 0x2e
	.byte	0x1
	.uleb128 0x3f
	.uleb128 0x19
	.uleb128 0x3
	.uleb128 0xe
	.uleb128 0x34
	.uleb128 0x19
	.uleb128 0x3c
	.uleb128 0x19
	.uleb128 0x1
	.uleb128 0x13
	.byte	0
	.byte	0
	.uleb128 0xa0
	.uleb128 0x2e
	.byte	0x1
	.uleb128 0x3f
	.uleb128 0x19
	.uleb128 0x3
	.uleb128 0xe
	.uleb128 0x34
	.uleb128 0x19
	.uleb128 0x87
	.uleb128 0x19
	.uleb128 0x3c
	.uleb128 0x19
	.uleb128 0x1
	.uleb128 0x13
	.byte	0
	.byte	0
	.uleb128 0xa1
	.uleb128 0x2e
	.byte	0
	.uleb128 0x3
	.uleb128 0xe
	.uleb128 0x34
	.uleb128 0x19
	.uleb128 0x11
	.uleb128 0x1
	.uleb128 0x12
	.uleb128 0x7
	.uleb128 0x40
	.uleb128 0x18
	.uleb128 0x7c
	.uleb128 0x19
	.byte	0
	.byte	0
	.uleb128 0xa2
	.uleb128 0x2e
	.byte	0x1
	.uleb128 0x3
	.uleb128 0xe
	.uleb128 0x34
	.uleb128 0x19
	.uleb128 0x11
	.uleb128 0x1
	.uleb128 0x12
	.uleb128 0x7
	.uleb128 0x40
	.uleb128 0x18
	.uleb128 0x7c
	.uleb128 0x19
	.uleb128 0x1
	.uleb128 0x13
	.byte	0
	.byte	0
	.uleb128 0xa3
	.uleb128 0x4108
	.byte	0
	.uleb128 0x3a
	.uleb128 0xb
	.uleb128 0x3b
	.uleb128 0xb
	.uleb128 0x39
	.uleb128 0xb
	.byte	0
	.byte	0
	.uleb128 0xa4
	.uleb128 0x13
	.byte	0x1
	.uleb128 0xb
	.uleb128 0xb
	.uleb128 0x3a
	.uleb128 0xb
	.uleb128 0x3b
	.uleb128 0xb
	.uleb128 0x39
	.uleb128 0xb
	.byte	0
	.byte	0
	.uleb128 0xa5
	.uleb128 0x2e
	.byte	0x1
	.uleb128 0x3f
	.uleb128 0x19
	.uleb128 0x3
	.uleb128 0xe
	.uleb128 0x6e
	.uleb128 0xe
	.uleb128 0x34
	.uleb128 0x19
	.uleb128 0x3c
	.uleb128 0x19
	.uleb128 0x8a
	.uleb128 0x19
	.uleb128 0x64
	.uleb128 0x13
	.uleb128 0x1
	.uleb128 0x13
	.byte	0
	.byte	0
	.uleb128 0xa6
	.uleb128 0x2e
	.byte	0x1
	.uleb128 0x3f
	.uleb128 0x19
	.uleb128 0x3
	.uleb128 0xe
	.uleb128 0x6e
	.uleb128 0xe
	.uleb128 0x34
	.uleb128 0x19
	.uleb128 0x64
	.uleb128 0x13
	.uleb128 0x11
	.uleb128 0x1
	.uleb128 0x12
	.uleb128 0x7
	.uleb128 0x40
	.uleb128 0x18
	.uleb128 0x7c
	.uleb128 0x19
	.byte	0
	.byte	0
	.uleb128 0xa7
	.uleb128 0x34
	.byte	0
	.uleb128 0x3
	.uleb128 0xe
	.uleb128 0x49
	.uleb128 0x13
	.uleb128 0x34
	.uleb128 0x19
	.uleb128 0x2
	.uleb128 0x18
	.byte	0
	.byte	0
	.uleb128 0xa8
	.uleb128 0x2e
	.byte	0x1
	.uleb128 0x47
	.uleb128 0x13
	.uleb128 0x1
	.uleb128 0x13
	.byte	0
	.byte	0
	.uleb128 0xa9
	.uleb128 0x5
	.byte	0
	.uleb128 0x3
	.uleb128 0xe
	.uleb128 0x3a
	.uleb128 0xb
	.uleb128 0x3b
	.uleb128 0x5
	.uleb128 0x39
	.uleb128 0xb
	.uleb128 0x49
	.uleb128 0x13
	.byte	0
	.byte	0
	.uleb128 0xaa
	.uleb128 0x2e
	.byte	0x1
	.uleb128 0x47
	.uleb128 0x13
	.uleb128 0x64
	.uleb128 0x13
	.uleb128 0x1
	.uleb128 0x13
	.byte	0
	.byte	0
	.uleb128 0xab
	.uleb128 0x4108
	.byte	0x1
	.uleb128 0x3a
	.uleb128 0xb
	.uleb128 0x3b
	.uleb128 0xb
	.uleb128 0x39
	.uleb128 0xb
	.uleb128 0x1
	.uleb128 0x13
	.byte	0
	.byte	0
	.uleb128 0xac
	.uleb128 0x2e
	.byte	0x1
	.uleb128 0x3f
	.uleb128 0x19
	.uleb128 0x3
	.uleb128 0xe
	.uleb128 0x3a
	.uleb128 0xb
	.uleb128 0x3b
	.uleb128 0xb
	.uleb128 0x39
	.uleb128 0xb
	.uleb128 0x49
	.uleb128 0x13
	.uleb128 0x11
	.uleb128 0x1
	.uleb128 0x12
	.uleb128 0x7
	.uleb128 0x40
	.uleb128 0x18
	.uleb128 0x7c
	.uleb128 0x19
	.uleb128 0x1
	.uleb128 0x13
	.byte	0
	.byte	0
	.uleb128 0xad
	.uleb128 0x2e
	.byte	0x1
	.uleb128 0x3f
	.uleb128 0x19
	.uleb128 0x3
	.uleb128 0xe
	.uleb128 0x3a
	.uleb128 0xb
	.uleb128 0x3b
	.uleb128 0xb
	.uleb128 0x39
	.uleb128 0xb
	.uleb128 0x6e
	.uleb128 0xe
	.uleb128 0x49
	.uleb128 0x13
	.uleb128 0x11
	.uleb128 0x1
	.uleb128 0x12
	.uleb128 0x7
	.uleb128 0x40
	.uleb128 0x18
	.uleb128 0x7a
	.uleb128 0x19
	.uleb128 0x1
	.uleb128 0x13
	.byte	0
	.byte	0
	.byte	0
	.section	.debug_aranges,"",@progbits
	.long	0xcbc
	.value	0x2
	.long	.Ldebug_info0
	.byte	0x8
	.byte	0
	.value	0
	.value	0
	.quad	.Ltext0
	.quad	.Letext0-.Ltext0
	.quad	.LFB40
	.quad	.LFE40-.LFB40
	.quad	.LFB652
	.quad	.LFE652-.LFB652
	.quad	.LFB907
	.quad	.LFE907-.LFB907
	.quad	.LFB2570
	.quad	.LFE2570-.LFB2570
	.quad	.LFB2573
	.quad	.LFE2573-.LFB2573
	.quad	.LFB2843
	.quad	.LFE2843-.LFB2843
	.quad	.LFB2845
	.quad	.LFE2845-.LFB2845
	.quad	.LFB2847
	.quad	.LFE2847-.LFB2847
	.quad	.LFB2849
	.quad	.LFE2849-.LFB2849
	.quad	.LFB2852
	.quad	.LFE2852-.LFB2852
	.quad	.LFB2855
	.quad	.LFE2855-.LFB2855
	.quad	.LFB2857
	.quad	.LFE2857-.LFB2857
	.quad	.LFB2863
	.quad	.LFE2863-.LFB2863
	.quad	.LFB2865
	.quad	.LFE2865-.LFB2865
	.quad	.LFB2867
	.quad	.LFE2867-.LFB2867
	.quad	.LFB2869
	.quad	.LFE2869-.LFB2869
	.quad	.LFB2871
	.quad	.LFE2871-.LFB2871
	.quad	.LFB2873
	.quad	.LFE2873-.LFB2873
	.quad	.LFB2875
	.quad	.LFE2875-.LFB2875
	.quad	.LFB2983
	.quad	.LFE2983-.LFB2983
	.quad	.LFB2986
	.quad	.LFE2986-.LFB2986
	.quad	.LFB2989
	.quad	.LFE2989-.LFB2989
	.quad	.LFB2992
	.quad	.LFE2992-.LFB2992
	.quad	.LFB2995
	.quad	.LFE2995-.LFB2995
	.quad	.LFB2998
	.quad	.LFE2998-.LFB2998
	.quad	.LFB3001
	.quad	.LFE3001-.LFB3001
	.quad	.LFB3000
	.quad	.LFE3000-.LFB3000
	.quad	.LFB3002
	.quad	.LFE3002-.LFB3002
	.quad	.LFB3003
	.quad	.LFE3003-.LFB3003
	.quad	.LFB3005
	.quad	.LFE3005-.LFB3005
	.quad	.LFB3007
	.quad	.LFE3007-.LFB3007
	.quad	.LFB3008
	.quad	.LFE3008-.LFB3008
	.quad	.LFB3009
	.quad	.LFE3009-.LFB3009
	.quad	.LFB3010
	.quad	.LFE3010-.LFB3010
	.quad	.LFB3011
	.quad	.LFE3011-.LFB3011
	.quad	.LFB3012
	.quad	.LFE3012-.LFB3012
	.quad	.LFB3013
	.quad	.LFE3013-.LFB3013
	.quad	.LFB3015
	.quad	.LFE3015-.LFB3015
	.quad	.LFB3021
	.quad	.LFE3021-.LFB3021
	.quad	.LFB3022
	.quad	.LFE3022-.LFB3022
	.quad	.LFB3017
	.quad	.LFE3017-.LFB3017
	.quad	.LFB3026
	.quad	.LFE3026-.LFB3026
	.quad	.LFB3028
	.quad	.LFE3028-.LFB3028
	.quad	.LFB3030
	.quad	.LFE3030-.LFB3030
	.quad	.LFB3031
	.quad	.LFE3031-.LFB3031
	.quad	.LFB3023
	.quad	.LFE3023-.LFB3023
	.quad	.LFB3032
	.quad	.LFE3032-.LFB3032
	.quad	.LFB3102
	.quad	.LFE3102-.LFB3102
	.quad	.LFB3105
	.quad	.LFE3105-.LFB3105
	.quad	.LFB3108
	.quad	.LFE3108-.LFB3108
	.quad	.LFB3110
	.quad	.LFE3110-.LFB3110
	.quad	.LFB3112
	.quad	.LFE3112-.LFB3112
	.quad	.LFB3115
	.quad	.LFE3115-.LFB3115
	.quad	.LFB3118
	.quad	.LFE3118-.LFB3118
	.quad	.LFB3120
	.quad	.LFE3120-.LFB3120
	.quad	.LFB3121
	.quad	.LFE3121-.LFB3121
	.quad	.LFB3123
	.quad	.LFE3123-.LFB3123
	.quad	.LFB3122
	.quad	.LFE3122-.LFB3122
	.quad	.LFB3124
	.quad	.LFE3124-.LFB3124
	.quad	.LFB3125
	.quad	.LFE3125-.LFB3125
	.quad	.LFB3126
	.quad	.LFE3126-.LFB3126
	.quad	.LFB3127
	.quad	.LFE3127-.LFB3127
	.quad	.LFB3128
	.quad	.LFE3128-.LFB3128
	.quad	.LFB3130
	.quad	.LFE3130-.LFB3130
	.quad	.LFB3131
	.quad	.LFE3131-.LFB3131
	.quad	.LFB3132
	.quad	.LFE3132-.LFB3132
	.quad	.LFB3134
	.quad	.LFE3134-.LFB3134
	.quad	.LFB3136
	.quad	.LFE3136-.LFB3136
	.quad	.LFB3137
	.quad	.LFE3137-.LFB3137
	.quad	.LFB3138
	.quad	.LFE3138-.LFB3138
	.quad	.LFB3139
	.quad	.LFE3139-.LFB3139
	.quad	.LFB3140
	.quad	.LFE3140-.LFB3140
	.quad	.LFB3141
	.quad	.LFE3141-.LFB3141
	.quad	.LFB3142
	.quad	.LFE3142-.LFB3142
	.quad	.LFB3143
	.quad	.LFE3143-.LFB3143
	.quad	.LFB3144
	.quad	.LFE3144-.LFB3144
	.quad	.LFB3146
	.quad	.LFE3146-.LFB3146
	.quad	.LFB3148
	.quad	.LFE3148-.LFB3148
	.quad	.LFB3149
	.quad	.LFE3149-.LFB3149
	.quad	.LFB3150
	.quad	.LFE3150-.LFB3150
	.quad	.LFB3206
	.quad	.LFE3206-.LFB3206
	.quad	.LFB3208
	.quad	.LFE3208-.LFB3208
	.quad	.LFB3210
	.quad	.LFE3210-.LFB3210
	.quad	.LFB3212
	.quad	.LFE3212-.LFB3212
	.quad	.LFB3213
	.quad	.LFE3213-.LFB3213
	.quad	.LFB3214
	.quad	.LFE3214-.LFB3214
	.quad	.LFB3215
	.quad	.LFE3215-.LFB3215
	.quad	.LFB3216
	.quad	.LFE3216-.LFB3216
	.quad	.LFB3217
	.quad	.LFE3217-.LFB3217
	.quad	.LFB3219
	.quad	.LFE3219-.LFB3219
	.quad	.LFB3221
	.quad	.LFE3221-.LFB3221
	.quad	.LFB3222
	.quad	.LFE3222-.LFB3222
	.quad	.LFB3223
	.quad	.LFE3223-.LFB3223
	.quad	.LFB3224
	.quad	.LFE3224-.LFB3224
	.quad	.LFB3228
	.quad	.LFE3228-.LFB3228
	.quad	.LFB3229
	.quad	.LFE3229-.LFB3229
	.quad	.LFB3230
	.quad	.LFE3230-.LFB3230
	.quad	.LFB3231
	.quad	.LFE3231-.LFB3231
	.quad	.LFB3233
	.quad	.LFE3233-.LFB3233
	.quad	.LFB3235
	.quad	.LFE3235-.LFB3235
	.quad	.LFB3237
	.quad	.LFE3237-.LFB3237
	.quad	.LFB3240
	.quad	.LFE3240-.LFB3240
	.quad	.LFB3242
	.quad	.LFE3242-.LFB3242
	.quad	.LFB3243
	.quad	.LFE3243-.LFB3243
	.quad	.LFB3245
	.quad	.LFE3245-.LFB3245
	.quad	.LFB3247
	.quad	.LFE3247-.LFB3247
	.quad	.LFB3250
	.quad	.LFE3250-.LFB3250
	.quad	.LFB3252
	.quad	.LFE3252-.LFB3252
	.quad	.LFB3253
	.quad	.LFE3253-.LFB3253
	.quad	.LFB3275
	.quad	.LFE3275-.LFB3275
	.quad	.LFB3276
	.quad	.LFE3276-.LFB3276
	.quad	.LFB3277
	.quad	.LFE3277-.LFB3277
	.quad	.LFB3278
	.quad	.LFE3278-.LFB3278
	.quad	.LFB3280
	.quad	.LFE3280-.LFB3280
	.quad	.LFB3281
	.quad	.LFE3281-.LFB3281
	.quad	.LFB3282
	.quad	.LFE3282-.LFB3282
	.quad	.LFB3283
	.quad	.LFE3283-.LFB3283
	.quad	.LFB3284
	.quad	.LFE3284-.LFB3284
	.quad	.LFB3285
	.quad	.LFE3285-.LFB3285
	.quad	.LFB3286
	.quad	.LFE3286-.LFB3286
	.quad	.LFB3287
	.quad	.LFE3287-.LFB3287
	.quad	.LFB3288
	.quad	.LFE3288-.LFB3288
	.quad	.LFB3290
	.quad	.LFE3290-.LFB3290
	.quad	.LFB3292
	.quad	.LFE3292-.LFB3292
	.quad	.LFB3293
	.quad	.LFE3293-.LFB3293
	.quad	.LFB3294
	.quad	.LFE3294-.LFB3294
	.quad	.LFB3295
	.quad	.LFE3295-.LFB3295
	.quad	.LFB3297
	.quad	.LFE3297-.LFB3297
	.quad	.LFB3299
	.quad	.LFE3299-.LFB3299
	.quad	.LFB3300
	.quad	.LFE3300-.LFB3300
	.quad	.LFB3301
	.quad	.LFE3301-.LFB3301
	.quad	.LFB3302
	.quad	.LFE3302-.LFB3302
	.quad	.LFB3303
	.quad	.LFE3303-.LFB3303
	.quad	.LFB3304
	.quad	.LFE3304-.LFB3304
	.quad	.LFB3306
	.quad	.LFE3306-.LFB3306
	.quad	.LFB3308
	.quad	.LFE3308-.LFB3308
	.quad	.LFB3309
	.quad	.LFE3309-.LFB3309
	.quad	.LFB3310
	.quad	.LFE3310-.LFB3310
	.quad	.LFB3311
	.quad	.LFE3311-.LFB3311
	.quad	.LFB3321
	.quad	.LFE3321-.LFB3321
	.quad	.LFB3322
	.quad	.LFE3322-.LFB3322
	.quad	.LFB3323
	.quad	.LFE3323-.LFB3323
	.quad	.LFB3324
	.quad	.LFE3324-.LFB3324
	.quad	.LFB3325
	.quad	.LFE3325-.LFB3325
	.quad	.LFB3326
	.quad	.LFE3326-.LFB3326
	.quad	.LFB3327
	.quad	.LFE3327-.LFB3327
	.quad	.LFB3328
	.quad	.LFE3328-.LFB3328
	.quad	.LFB3329
	.quad	.LFE3329-.LFB3329
	.quad	.LFB3330
	.quad	.LFE3330-.LFB3330
	.quad	.LFB3331
	.quad	.LFE3331-.LFB3331
	.quad	.LFB3332
	.quad	.LFE3332-.LFB3332
	.quad	.LFB3334
	.quad	.LFE3334-.LFB3334
	.quad	.LFB3336
	.quad	.LFE3336-.LFB3336
	.quad	.LFB3337
	.quad	.LFE3337-.LFB3337
	.quad	.LFB3338
	.quad	.LFE3338-.LFB3338
	.quad	.LFB3339
	.quad	.LFE3339-.LFB3339
	.quad	.LFB3340
	.quad	.LFE3340-.LFB3340
	.quad	.LFB3341
	.quad	.LFE3341-.LFB3341
	.quad	.LFB3342
	.quad	.LFE3342-.LFB3342
	.quad	.LFB3343
	.quad	.LFE3343-.LFB3343
	.quad	.LFB3344
	.quad	.LFE3344-.LFB3344
	.quad	.LFB3345
	.quad	.LFE3345-.LFB3345
	.quad	.LFB3347
	.quad	.LFE3347-.LFB3347
	.quad	.LFB3352
	.quad	.LFE3352-.LFB3352
	.quad	.LFB3353
	.quad	.LFE3353-.LFB3353
	.quad	.LFB3354
	.quad	.LFE3354-.LFB3354
	.quad	.LFB3355
	.quad	.LFE3355-.LFB3355
	.quad	.LFB3356
	.quad	.LFE3356-.LFB3356
	.quad	.LFB3357
	.quad	.LFE3357-.LFB3357
	.quad	.LFB3358
	.quad	.LFE3358-.LFB3358
	.quad	.LFB3359
	.quad	.LFE3359-.LFB3359
	.quad	.LFB3360
	.quad	.LFE3360-.LFB3360
	.quad	.LFB3361
	.quad	.LFE3361-.LFB3361
	.quad	.LFB3362
	.quad	.LFE3362-.LFB3362
	.quad	.LFB3363
	.quad	.LFE3363-.LFB3363
	.quad	.LFB3364
	.quad	.LFE3364-.LFB3364
	.quad	.LFB3365
	.quad	.LFE3365-.LFB3365
	.quad	.LFB3366
	.quad	.LFE3366-.LFB3366
	.quad	.LFB3367
	.quad	.LFE3367-.LFB3367
	.quad	.LFB3369
	.quad	.LFE3369-.LFB3369
	.quad	.LFB3370
	.quad	.LFE3370-.LFB3370
	.quad	.LFB3371
	.quad	.LFE3371-.LFB3371
	.quad	.LFB3372
	.quad	.LFE3372-.LFB3372
	.quad	.LFB3373
	.quad	.LFE3373-.LFB3373
	.quad	.LFB3374
	.quad	.LFE3374-.LFB3374
	.quad	.LFB3375
	.quad	.LFE3375-.LFB3375
	.quad	.LFB3376
	.quad	.LFE3376-.LFB3376
	.quad	.LFB3377
	.quad	.LFE3377-.LFB3377
	.quad	.LFB3378
	.quad	.LFE3378-.LFB3378
	.quad	.LFB3379
	.quad	.LFE3379-.LFB3379
	.quad	.LFB3380
	.quad	.LFE3380-.LFB3380
	.quad	.LFB3381
	.quad	.LFE3381-.LFB3381
	.quad	.LFB3382
	.quad	.LFE3382-.LFB3382
	.quad	.LFB3383
	.quad	.LFE3383-.LFB3383
	.quad	.LFB3384
	.quad	.LFE3384-.LFB3384
	.quad	.LFB3385
	.quad	.LFE3385-.LFB3385
	.quad	.LFB3386
	.quad	.LFE3386-.LFB3386
	.quad	.LFB3387
	.quad	.LFE3387-.LFB3387
	.quad	.LFB3388
	.quad	.LFE3388-.LFB3388
	.quad	.LFB3389
	.quad	.LFE3389-.LFB3389
	.quad	.LFB3390
	.quad	.LFE3390-.LFB3390
	.quad	0
	.quad	0
	.section	.debug_rnglists,"",@progbits
.Ldebug_ranges0:
	.long	.Ldebug_ranges3-.Ldebug_ranges2
.Ldebug_ranges2:
	.value	0x5
	.byte	0x8
	.byte	0
	.long	0
.LLRL0:
	.byte	0x5
	.quad	.LBB37
	.byte	0x4
	.uleb128 .LBB37-.LBB37
	.uleb128 .LBE37-.LBB37
	.byte	0x4
	.uleb128 .LBB43-.LBB37
	.uleb128 .LBE43-.LBB37
	.byte	0x4
	.uleb128 .LBB44-.LBB37
	.uleb128 .LBE44-.LBB37
	.byte	0
.LLRL1:
	.byte	0x5
	.quad	.LBB39
	.byte	0x4
	.uleb128 .LBB39-.LBB39
	.uleb128 .LBE39-.LBB39
	.byte	0x4
	.uleb128 .LBB40-.LBB39
	.uleb128 .LBE40-.LBB39
	.byte	0
.LLRL2:
	.byte	0x7
	.quad	.Ltext0
	.uleb128 .Letext0-.Ltext0
	.byte	0x7
	.quad	.LFB40
	.uleb128 .LFE40-.LFB40
	.byte	0x7
	.quad	.LFB652
	.uleb128 .LFE652-.LFB652
	.byte	0x7
	.quad	.LFB907
	.uleb128 .LFE907-.LFB907
	.byte	0x7
	.quad	.LFB2570
	.uleb128 .LFE2570-.LFB2570
	.byte	0x7
	.quad	.LFB2573
	.uleb128 .LFE2573-.LFB2573
	.byte	0x7
	.quad	.LFB2843
	.uleb128 .LFE2843-.LFB2843
	.byte	0x7
	.quad	.LFB2845
	.uleb128 .LFE2845-.LFB2845
	.byte	0x7
	.quad	.LFB2847
	.uleb128 .LFE2847-.LFB2847
	.byte	0x7
	.quad	.LFB2849
	.uleb128 .LFE2849-.LFB2849
	.byte	0x7
	.quad	.LFB2852
	.uleb128 .LFE2852-.LFB2852
	.byte	0x7
	.quad	.LFB2855
	.uleb128 .LFE2855-.LFB2855
	.byte	0x7
	.quad	.LFB2857
	.uleb128 .LFE2857-.LFB2857
	.byte	0x7
	.quad	.LFB2863
	.uleb128 .LFE2863-.LFB2863
	.byte	0x7
	.quad	.LFB2865
	.uleb128 .LFE2865-.LFB2865
	.byte	0x7
	.quad	.LFB2867
	.uleb128 .LFE2867-.LFB2867
	.byte	0x7
	.quad	.LFB2869
	.uleb128 .LFE2869-.LFB2869
	.byte	0x7
	.quad	.LFB2871
	.uleb128 .LFE2871-.LFB2871
	.byte	0x7
	.quad	.LFB2873
	.uleb128 .LFE2873-.LFB2873
	.byte	0x7
	.quad	.LFB2875
	.uleb128 .LFE2875-.LFB2875
	.byte	0x7
	.quad	.LFB2983
	.uleb128 .LFE2983-.LFB2983
	.byte	0x7
	.quad	.LFB2986
	.uleb128 .LFE2986-.LFB2986
	.byte	0x7
	.quad	.LFB2989
	.uleb128 .LFE2989-.LFB2989
	.byte	0x7
	.quad	.LFB2992
	.uleb128 .LFE2992-.LFB2992
	.byte	0x7
	.quad	.LFB2995
	.uleb128 .LFE2995-.LFB2995
	.byte	0x7
	.quad	.LFB2998
	.uleb128 .LFE2998-.LFB2998
	.byte	0x7
	.quad	.LFB3001
	.uleb128 .LFE3001-.LFB3001
	.byte	0x7
	.quad	.LFB3000
	.uleb128 .LFE3000-.LFB3000
	.byte	0x7
	.quad	.LFB3002
	.uleb128 .LFE3002-.LFB3002
	.byte	0x7
	.quad	.LFB3003
	.uleb128 .LFE3003-.LFB3003
	.byte	0x7
	.quad	.LFB3005
	.uleb128 .LFE3005-.LFB3005
	.byte	0x7
	.quad	.LFB3007
	.uleb128 .LFE3007-.LFB3007
	.byte	0x7
	.quad	.LFB3008
	.uleb128 .LFE3008-.LFB3008
	.byte	0x7
	.quad	.LFB3009
	.uleb128 .LFE3009-.LFB3009
	.byte	0x7
	.quad	.LFB3010
	.uleb128 .LFE3010-.LFB3010
	.byte	0x7
	.quad	.LFB3011
	.uleb128 .LFE3011-.LFB3011
	.byte	0x7
	.quad	.LFB3012
	.uleb128 .LFE3012-.LFB3012
	.byte	0x7
	.quad	.LFB3013
	.uleb128 .LFE3013-.LFB3013
	.byte	0x7
	.quad	.LFB3015
	.uleb128 .LFE3015-.LFB3015
	.byte	0x7
	.quad	.LFB3021
	.uleb128 .LFE3021-.LFB3021
	.byte	0x7
	.quad	.LFB3022
	.uleb128 .LFE3022-.LFB3022
	.byte	0x7
	.quad	.LFB3017
	.uleb128 .LFE3017-.LFB3017
	.byte	0x7
	.quad	.LFB3026
	.uleb128 .LFE3026-.LFB3026
	.byte	0x7
	.quad	.LFB3028
	.uleb128 .LFE3028-.LFB3028
	.byte	0x7
	.quad	.LFB3030
	.uleb128 .LFE3030-.LFB3030
	.byte	0x7
	.quad	.LFB3031
	.uleb128 .LFE3031-.LFB3031
	.byte	0x7
	.quad	.LFB3023
	.uleb128 .LFE3023-.LFB3023
	.byte	0x7
	.quad	.LFB3032
	.uleb128 .LFE3032-.LFB3032
	.byte	0x7
	.quad	.LFB3102
	.uleb128 .LFE3102-.LFB3102
	.byte	0x7
	.quad	.LFB3105
	.uleb128 .LFE3105-.LFB3105
	.byte	0x7
	.quad	.LFB3108
	.uleb128 .LFE3108-.LFB3108
	.byte	0x7
	.quad	.LFB3110
	.uleb128 .LFE3110-.LFB3110
	.byte	0x7
	.quad	.LFB3112
	.uleb128 .LFE3112-.LFB3112
	.byte	0x7
	.quad	.LFB3115
	.uleb128 .LFE3115-.LFB3115
	.byte	0x7
	.quad	.LFB3118
	.uleb128 .LFE3118-.LFB3118
	.byte	0x7
	.quad	.LFB3120
	.uleb128 .LFE3120-.LFB3120
	.byte	0x7
	.quad	.LFB3121
	.uleb128 .LFE3121-.LFB3121
	.byte	0x7
	.quad	.LFB3123
	.uleb128 .LFE3123-.LFB3123
	.byte	0x7
	.quad	.LFB3122
	.uleb128 .LFE3122-.LFB3122
	.byte	0x7
	.quad	.LFB3124
	.uleb128 .LFE3124-.LFB3124
	.byte	0x7
	.quad	.LFB3125
	.uleb128 .LFE3125-.LFB3125
	.byte	0x7
	.quad	.LFB3126
	.uleb128 .LFE3126-.LFB3126
	.byte	0x7
	.quad	.LFB3127
	.uleb128 .LFE3127-.LFB3127
	.byte	0x7
	.quad	.LFB3128
	.uleb128 .LFE3128-.LFB3128
	.byte	0x7
	.quad	.LFB3130
	.uleb128 .LFE3130-.LFB3130
	.byte	0x7
	.quad	.LFB3131
	.uleb128 .LFE3131-.LFB3131
	.byte	0x7
	.quad	.LFB3132
	.uleb128 .LFE3132-.LFB3132
	.byte	0x7
	.quad	.LFB3134
	.uleb128 .LFE3134-.LFB3134
	.byte	0x7
	.quad	.LFB3136
	.uleb128 .LFE3136-.LFB3136
	.byte	0x7
	.quad	.LFB3137
	.uleb128 .LFE3137-.LFB3137
	.byte	0x7
	.quad	.LFB3138
	.uleb128 .LFE3138-.LFB3138
	.byte	0x7
	.quad	.LFB3139
	.uleb128 .LFE3139-.LFB3139
	.byte	0x7
	.quad	.LFB3140
	.uleb128 .LFE3140-.LFB3140
	.byte	0x7
	.quad	.LFB3141
	.uleb128 .LFE3141-.LFB3141
	.byte	0x7
	.quad	.LFB3142
	.uleb128 .LFE3142-.LFB3142
	.byte	0x7
	.quad	.LFB3143
	.uleb128 .LFE3143-.LFB3143
	.byte	0x7
	.quad	.LFB3144
	.uleb128 .LFE3144-.LFB3144
	.byte	0x7
	.quad	.LFB3146
	.uleb128 .LFE3146-.LFB3146
	.byte	0x7
	.quad	.LFB3148
	.uleb128 .LFE3148-.LFB3148
	.byte	0x7
	.quad	.LFB3149
	.uleb128 .LFE3149-.LFB3149
	.byte	0x7
	.quad	.LFB3150
	.uleb128 .LFE3150-.LFB3150
	.byte	0x7
	.quad	.LFB3206
	.uleb128 .LFE3206-.LFB3206
	.byte	0x7
	.quad	.LFB3208
	.uleb128 .LFE3208-.LFB3208
	.byte	0x7
	.quad	.LFB3210
	.uleb128 .LFE3210-.LFB3210
	.byte	0x7
	.quad	.LFB3212
	.uleb128 .LFE3212-.LFB3212
	.byte	0x7
	.quad	.LFB3213
	.uleb128 .LFE3213-.LFB3213
	.byte	0x7
	.quad	.LFB3214
	.uleb128 .LFE3214-.LFB3214
	.byte	0x7
	.quad	.LFB3215
	.uleb128 .LFE3215-.LFB3215
	.byte	0x7
	.quad	.LFB3216
	.uleb128 .LFE3216-.LFB3216
	.byte	0x7
	.quad	.LFB3217
	.uleb128 .LFE3217-.LFB3217
	.byte	0x7
	.quad	.LFB3219
	.uleb128 .LFE3219-.LFB3219
	.byte	0x7
	.quad	.LFB3221
	.uleb128 .LFE3221-.LFB3221
	.byte	0x7
	.quad	.LFB3222
	.uleb128 .LFE3222-.LFB3222
	.byte	0x7
	.quad	.LFB3223
	.uleb128 .LFE3223-.LFB3223
	.byte	0x7
	.quad	.LFB3224
	.uleb128 .LFE3224-.LFB3224
	.byte	0x7
	.quad	.LFB3228
	.uleb128 .LFE3228-.LFB3228
	.byte	0x7
	.quad	.LFB3229
	.uleb128 .LFE3229-.LFB3229
	.byte	0x7
	.quad	.LFB3230
	.uleb128 .LFE3230-.LFB3230
	.byte	0x7
	.quad	.LFB3231
	.uleb128 .LFE3231-.LFB3231
	.byte	0x7
	.quad	.LFB3233
	.uleb128 .LFE3233-.LFB3233
	.byte	0x7
	.quad	.LFB3235
	.uleb128 .LFE3235-.LFB3235
	.byte	0x7
	.quad	.LFB3237
	.uleb128 .LFE3237-.LFB3237
	.byte	0x7
	.quad	.LFB3240
	.uleb128 .LFE3240-.LFB3240
	.byte	0x7
	.quad	.LFB3242
	.uleb128 .LFE3242-.LFB3242
	.byte	0x7
	.quad	.LFB3243
	.uleb128 .LFE3243-.LFB3243
	.byte	0x7
	.quad	.LFB3245
	.uleb128 .LFE3245-.LFB3245
	.byte	0x7
	.quad	.LFB3247
	.uleb128 .LFE3247-.LFB3247
	.byte	0x7
	.quad	.LFB3250
	.uleb128 .LFE3250-.LFB3250
	.byte	0x7
	.quad	.LFB3252
	.uleb128 .LFE3252-.LFB3252
	.byte	0x7
	.quad	.LFB3253
	.uleb128 .LFE3253-.LFB3253
	.byte	0x7
	.quad	.LFB3275
	.uleb128 .LFE3275-.LFB3275
	.byte	0x7
	.quad	.LFB3276
	.uleb128 .LFE3276-.LFB3276
	.byte	0x7
	.quad	.LFB3277
	.uleb128 .LFE3277-.LFB3277
	.byte	0x7
	.quad	.LFB3278
	.uleb128 .LFE3278-.LFB3278
	.byte	0x7
	.quad	.LFB3280
	.uleb128 .LFE3280-.LFB3280
	.byte	0x7
	.quad	.LFB3281
	.uleb128 .LFE3281-.LFB3281
	.byte	0x7
	.quad	.LFB3282
	.uleb128 .LFE3282-.LFB3282
	.byte	0x7
	.quad	.LFB3283
	.uleb128 .LFE3283-.LFB3283
	.byte	0x7
	.quad	.LFB3284
	.uleb128 .LFE3284-.LFB3284
	.byte	0x7
	.quad	.LFB3285
	.uleb128 .LFE3285-.LFB3285
	.byte	0x7
	.quad	.LFB3286
	.uleb128 .LFE3286-.LFB3286
	.byte	0x7
	.quad	.LFB3287
	.uleb128 .LFE3287-.LFB3287
	.byte	0x7
	.quad	.LFB3288
	.uleb128 .LFE3288-.LFB3288
	.byte	0x7
	.quad	.LFB3290
	.uleb128 .LFE3290-.LFB3290
	.byte	0x7
	.quad	.LFB3292
	.uleb128 .LFE3292-.LFB3292
	.byte	0x7
	.quad	.LFB3293
	.uleb128 .LFE3293-.LFB3293
	.byte	0x7
	.quad	.LFB3294
	.uleb128 .LFE3294-.LFB3294
	.byte	0x7
	.quad	.LFB3295
	.uleb128 .LFE3295-.LFB3295
	.byte	0x7
	.quad	.LFB3297
	.uleb128 .LFE3297-.LFB3297
	.byte	0x7
	.quad	.LFB3299
	.uleb128 .LFE3299-.LFB3299
	.byte	0x7
	.quad	.LFB3300
	.uleb128 .LFE3300-.LFB3300
	.byte	0x7
	.quad	.LFB3301
	.uleb128 .LFE3301-.LFB3301
	.byte	0x7
	.quad	.LFB3302
	.uleb128 .LFE3302-.LFB3302
	.byte	0x7
	.quad	.LFB3303
	.uleb128 .LFE3303-.LFB3303
	.byte	0x7
	.quad	.LFB3304
	.uleb128 .LFE3304-.LFB3304
	.byte	0x7
	.quad	.LFB3306
	.uleb128 .LFE3306-.LFB3306
	.byte	0x7
	.quad	.LFB3308
	.uleb128 .LFE3308-.LFB3308
	.byte	0x7
	.quad	.LFB3309
	.uleb128 .LFE3309-.LFB3309
	.byte	0x7
	.quad	.LFB3310
	.uleb128 .LFE3310-.LFB3310
	.byte	0x7
	.quad	.LFB3311
	.uleb128 .LFE3311-.LFB3311
	.byte	0x7
	.quad	.LFB3321
	.uleb128 .LFE3321-.LFB3321
	.byte	0x7
	.quad	.LFB3322
	.uleb128 .LFE3322-.LFB3322
	.byte	0x7
	.quad	.LFB3323
	.uleb128 .LFE3323-.LFB3323
	.byte	0x7
	.quad	.LFB3324
	.uleb128 .LFE3324-.LFB3324
	.byte	0x7
	.quad	.LFB3325
	.uleb128 .LFE3325-.LFB3325
	.byte	0x7
	.quad	.LFB3326
	.uleb128 .LFE3326-.LFB3326
	.byte	0x7
	.quad	.LFB3327
	.uleb128 .LFE3327-.LFB3327
	.byte	0x7
	.quad	.LFB3328
	.uleb128 .LFE3328-.LFB3328
	.byte	0x7
	.quad	.LFB3329
	.uleb128 .LFE3329-.LFB3329
	.byte	0x7
	.quad	.LFB3330
	.uleb128 .LFE3330-.LFB3330
	.byte	0x7
	.quad	.LFB3331
	.uleb128 .LFE3331-.LFB3331
	.byte	0x7
	.quad	.LFB3332
	.uleb128 .LFE3332-.LFB3332
	.byte	0x7
	.quad	.LFB3334
	.uleb128 .LFE3334-.LFB3334
	.byte	0x7
	.quad	.LFB3336
	.uleb128 .LFE3336-.LFB3336
	.byte	0x7
	.quad	.LFB3337
	.uleb128 .LFE3337-.LFB3337
	.byte	0x7
	.quad	.LFB3338
	.uleb128 .LFE3338-.LFB3338
	.byte	0x7
	.quad	.LFB3339
	.uleb128 .LFE3339-.LFB3339
	.byte	0x7
	.quad	.LFB3340
	.uleb128 .LFE3340-.LFB3340
	.byte	0x7
	.quad	.LFB3341
	.uleb128 .LFE3341-.LFB3341
	.byte	0x7
	.quad	.LFB3342
	.uleb128 .LFE3342-.LFB3342
	.byte	0x7
	.quad	.LFB3343
	.uleb128 .LFE3343-.LFB3343
	.byte	0x7
	.quad	.LFB3344
	.uleb128 .LFE3344-.LFB3344
	.byte	0x7
	.quad	.LFB3345
	.uleb128 .LFE3345-.LFB3345
	.byte	0x7
	.quad	.LFB3347
	.uleb128 .LFE3347-.LFB3347
	.byte	0x7
	.quad	.LFB3352
	.uleb128 .LFE3352-.LFB3352
	.byte	0x7
	.quad	.LFB3353
	.uleb128 .LFE3353-.LFB3353
	.byte	0x7
	.quad	.LFB3354
	.uleb128 .LFE3354-.LFB3354
	.byte	0x7
	.quad	.LFB3355
	.uleb128 .LFE3355-.LFB3355
	.byte	0x7
	.quad	.LFB3356
	.uleb128 .LFE3356-.LFB3356
	.byte	0x7
	.quad	.LFB3357
	.uleb128 .LFE3357-.LFB3357
	.byte	0x7
	.quad	.LFB3358
	.uleb128 .LFE3358-.LFB3358
	.byte	0x7
	.quad	.LFB3359
	.uleb128 .LFE3359-.LFB3359
	.byte	0x7
	.quad	.LFB3360
	.uleb128 .LFE3360-.LFB3360
	.byte	0x7
	.quad	.LFB3361
	.uleb128 .LFE3361-.LFB3361
	.byte	0x7
	.quad	.LFB3362
	.uleb128 .LFE3362-.LFB3362
	.byte	0x7
	.quad	.LFB3363
	.uleb128 .LFE3363-.LFB3363
	.byte	0x7
	.quad	.LFB3364
	.uleb128 .LFE3364-.LFB3364
	.byte	0x7
	.quad	.LFB3365
	.uleb128 .LFE3365-.LFB3365
	.byte	0x7
	.quad	.LFB3366
	.uleb128 .LFE3366-.LFB3366
	.byte	0x7
	.quad	.LFB3367
	.uleb128 .LFE3367-.LFB3367
	.byte	0x7
	.quad	.LFB3369
	.uleb128 .LFE3369-.LFB3369
	.byte	0x7
	.quad	.LFB3370
	.uleb128 .LFE3370-.LFB3370
	.byte	0x7
	.quad	.LFB3371
	.uleb128 .LFE3371-.LFB3371
	.byte	0x7
	.quad	.LFB3372
	.uleb128 .LFE3372-.LFB3372
	.byte	0x7
	.quad	.LFB3373
	.uleb128 .LFE3373-.LFB3373
	.byte	0x7
	.quad	.LFB3374
	.uleb128 .LFE3374-.LFB3374
	.byte	0x7
	.quad	.LFB3375
	.uleb128 .LFE3375-.LFB3375
	.byte	0x7
	.quad	.LFB3376
	.uleb128 .LFE3376-.LFB3376
	.byte	0x7
	.quad	.LFB3377
	.uleb128 .LFE3377-.LFB3377
	.byte	0x7
	.quad	.LFB3378
	.uleb128 .LFE3378-.LFB3378
	.byte	0x7
	.quad	.LFB3379
	.uleb128 .LFE3379-.LFB3379
	.byte	0x7
	.quad	.LFB3380
	.uleb128 .LFE3380-.LFB3380
	.byte	0x7
	.quad	.LFB3381
	.uleb128 .LFE3381-.LFB3381
	.byte	0x7
	.quad	.LFB3382
	.uleb128 .LFE3382-.LFB3382
	.byte	0x7
	.quad	.LFB3383
	.uleb128 .LFE3383-.LFB3383
	.byte	0x7
	.quad	.LFB3384
	.uleb128 .LFE3384-.LFB3384
	.byte	0x7
	.quad	.LFB3385
	.uleb128 .LFE3385-.LFB3385
	.byte	0x7
	.quad	.LFB3386
	.uleb128 .LFE3386-.LFB3386
	.byte	0x7
	.quad	.LFB3387
	.uleb128 .LFE3387-.LFB3387
	.byte	0x7
	.quad	.LFB3388
	.uleb128 .LFE3388-.LFB3388
	.byte	0x7
	.quad	.LFB3389
	.uleb128 .LFE3389-.LFB3389
	.byte	0x7
	.quad	.LFB3390
	.uleb128 .LFE3390-.LFB3390
	.byte	0
.Ldebug_ranges3:
	.section	.debug_line,"",@progbits
.Ldebug_line0:
	.section	.debug_str,"MS",@progbits,1
.LASF226:
	.string	"_ZNSt12_Vector_baseIlSaIlEEC4ERKS0_"
.LASF885:
	.string	"long long int"
.LASF952:
	.string	"positive_sign"
.LASF385:
	.string	"_ZNKSt16initializer_listIlE5beginEv"
.LASF624:
	.string	"_ZSt4moveIRSaIlEEONSt16remove_referenceIT_E4typeEOS3_"
.LASF991:
	.string	"mbstowcs"
.LASF1105:
	.string	"_ZN9container6tensorIdJEEC4ERKS1_"
.LASF979:
	.string	"lldiv_t"
.LASF49:
	.string	"__pad5"
.LASF1000:
	.string	"strtoul"
.LASF503:
	.string	"_ZNSt6vectorIdSaIdEE5eraseEN9__gnu_cxx17__normal_iteratorIPKdS1_EES6_"
.LASF969:
	.string	"getwchar"
.LASF7:
	.string	"long unsigned int"
.LASF230:
	.string	"_ZNSt12_Vector_baseIlSaIlEEC4EOS0_"
.LASF799:
	.string	"_ZN9__gnu_cxx17__normal_iteratorIPlSt6vectorIlSaIlEEEC4Ev"
.LASF1049:
	.string	"__pstl"
.LASF148:
	.string	"_InputIterator"
.LASF1040:
	.string	"tmpfile"
.LASF580:
	.string	"_ZSt12__niter_wrapIPlET_RKS1_S1_"
.LASF444:
	.string	"_ZNSt6vectorIdSaIdEE14_S_do_relocateEPdS2_S2_RS0_St17integral_constantIbLb1EE"
.LASF213:
	.string	"_ZNSt12_Vector_baseIlSaIlEE12_Vector_implC4Ev"
.LASF381:
	.string	"initializer_list"
.LASF463:
	.string	"_ZNSt6vectorIdSaIdEE6assignESt16initializer_listIdE"
.LASF48:
	.string	"_freeres_buf"
.LASF304:
	.string	"shrink_to_fit"
.LASF1074:
	.string	"tensor"
.LASF1161:
	.string	"__al"
.LASF229:
	.string	"_ZNSt12_Vector_baseIlSaIlEEC4EOS1_"
.LASF560:
	.string	"_ZSt12__niter_baseIPKlSt6vectorIlSaIlEEET_N9__gnu_cxx17__normal_iteratorIS5_T0_EE"
.LASF508:
	.string	"_ZNSt6vectorIdSaIdEE14_M_fill_assignEmRKd"
.LASF310:
	.string	"reserve"
.LASF690:
	.string	"_IIter"
.LASF1172:
	.string	"_ZNSt6vectorIlSaIlEEC2ERKS0_"
.LASF1242:
	.string	"index"
.LASF118:
	.string	"_ZNSt11char_traitsIcE7not_eofERKi"
.LASF355:
	.string	"_ZNSt6vectorIlSaIlEE16_M_shrink_to_fitEv"
.LASF702:
	.string	"__size_to_integer"
.LASF220:
	.string	"_ZNSt12_Vector_baseIlSaIlEE19_M_get_Tp_allocatorEv"
.LASF850:
	.string	"_ZNK9__gnu_cxx17__normal_iteratorIPdSt6vectorIdSaIdEEEdeEv"
.LASF372:
	.string	"_ZNSt6vectorIlSaIlEE14_M_move_assignEOS1_St17integral_constantIbLb1EE"
.LASF466:
	.string	"_ZNSt6vectorIdSaIdEE3endEv"
.LASF288:
	.string	"_ZNSt6vectorIlSaIlEE4rendEv"
.LASF533:
	.string	"iterator_traits<long int const*>"
.LASF588:
	.string	"_ZSt4copyIN9__gnu_cxx17__normal_iteratorIPKlSt6vectorIlSaIlEEEEPlET0_T_SA_S9_"
.LASF1181:
	.string	"_ZNSt6vectorIlSaIlEEC2ERKS1_"
.LASF856:
	.string	"_ZNK9__gnu_cxx17__normal_iteratorIPdSt6vectorIdSaIdEEEixEl"
.LASF294:
	.string	"crbegin"
.LASF1204:
	.string	"_ZNSt12_Vector_baseIlSaIlEE12_Vector_implC2Ev"
.LASF940:
	.string	"uintptr_t"
.LASF798:
	.string	"__normal_iterator"
.LASF483:
	.string	"_ZNSt6vectorIdSaIdEE7reserveEm"
.LASF578:
	.string	"_Iter"
.LASF1065:
	.string	"unsequenced_policy"
.LASF606:
	.string	"__relocate_a_1<double, double>"
.LASF312:
	.string	"operator[]"
.LASF321:
	.string	"_ZNKSt6vectorIlSaIlEE5frontEv"
.LASF944:
	.string	"decimal_point"
.LASF324:
	.string	"_ZNKSt6vectorIlSaIlEE4backEv"
.LASF682:
	.string	"move<std::vector<long int>&>"
.LASF461:
	.string	"_ZNSt6vectorIdSaIdEEaSESt16initializer_listIdE"
.LASF1142:
	.string	"__first"
.LASF542:
	.string	"__copy_m<double>"
.LASF1084:
	.string	"_ZNK9container6tensorIdJLl2ELl3ELl5EEE4sizeEv"
.LASF1042:
	.string	"ungetc"
.LASF551:
	.string	"_ZSt17__throw_bad_allocv"
.LASF1110:
	.string	"_ZNK9container6tensorIdJEE5orderEv"
.LASF464:
	.string	"_ZNSt6vectorIdSaIdEE5beginEv"
.LASF501:
	.string	"_ZNSt6vectorIdSaIdEE6insertEN9__gnu_cxx17__normal_iteratorIPKdS1_EEmRS4_"
.LASF600:
	.string	"_ZSt12__equal_aux1IPlS0_EbT_S1_T0_"
.LASF910:
	.string	"__intmax_t"
.LASF943:
	.string	"lconv"
.LASF946:
	.string	"grouping"
.LASF730:
	.string	"__isoc99_vswscanf"
.LASF964:
	.string	"int_n_cs_precedes"
.LASF405:
	.string	"_ZNSt16allocator_traitsISaIdEE8allocateERS0_m"
.LASF422:
	.string	"_ZNSt12_Vector_baseIdSaIdEE12_Vector_implD4Ev"
.LASF474:
	.string	"_ZNKSt6vectorIdSaIdEE7crbeginEv"
.LASF723:
	.string	"__isoc99_swscanf"
.LASF1085:
	.string	"shape"
.LASF343:
	.string	"_ZNSt6vectorIlSaIlEE5clearEv"
.LASF1228:
	.string	"n_indices"
.LASF673:
	.string	"__iterator_category<long int const*>"
.LASF861:
	.string	"_ZNK9__gnu_cxx17__normal_iteratorIPdSt6vectorIdSaIdEEE4baseEv"
.LASF1014:
	.string	"_IO_marker"
.LASF380:
	.string	"_M_len"
.LASF637:
	.string	"_ZSt14__copy_move_a1ILb1EPKdPdET1_T0_S4_S3_"
.LASF1094:
	.string	"_ZN9container6tensorIdJLl2ELl3ELl5EEE11_initializeEv"
.LASF1122:
	.string	"execution"
.LASF1211:
	.string	"_ZZN9container6tensorIdJLl2ELl3ELl5EEE11_initializeEvENUliE_D4Ev"
.LASF611:
	.string	"_ZSt4copyIPKlPlET0_T_S4_S3_"
.LASF929:
	.string	"uint_least32_t"
.LASF119:
	.string	"_CharT"
.LASF129:
	.string	"_BoolType"
.LASF744:
	.string	"tm_mday"
.LASF881:
	.string	"operator!=<long int*, std::vector<long int> >"
.LASF1260:
	.string	"__cxa_free_exception"
.LASF448:
	.string	"_ZNSt6vectorIdSaIdEEC4ERKS0_"
.LASF77:
	.string	"_ZNKSt15__exception_ptr13exception_ptr6_M_getEv"
.LASF1033:
	.string	"getchar"
.LASF212:
	.string	"_Vector_impl"
.LASF921:
	.string	"uint32_t"
.LASF167:
	.string	"reference"
.LASF1187:
	.string	"_ZNSt15__new_allocatorIdEC2Ev"
.LASF104:
	.string	"move"
.LASF1029:
	.string	"fseek"
.LASF250:
	.string	"_S_use_relocate"
.LASF751:
	.string	"tm_zone"
.LASF1202:
	.string	"_ZNSt6vectorIlSaIlEEC2EOS1_"
.LASF451:
	.string	"_ZNSt6vectorIdSaIdEEC4ERKS1_"
.LASF1175:
	.string	"__d1"
.LASF661:
	.string	"__equal4<__gnu_cxx::__normal_iterator<long int*, std::vector<long int> >, __gnu_cxx::__normal_iterator<long int*, std::vector<long int> > >"
.LASF275:
	.string	"iterator"
.LASF6:
	.string	"long double"
.LASF522:
	.string	"initializer_list<double>"
.LASF419:
	.string	"_ZNSt12_Vector_baseIdSaIdEE12_Vector_implC4EOS0_OS2_"
.LASF697:
	.string	"_ZSt8_DestroyIPddEvT_S1_RSaIT0_E"
.LASF1176:
	.string	"__d2"
.LASF592:
	.string	"_ZSt10_ConstructIdJEEvPT_DpOT0_"
.LASF614:
	.string	"__equal_aux<__gnu_cxx::__normal_iterator<long int*, std::vector<long int> >, __gnu_cxx::__normal_iterator<long int*, std::vector<long int> > >"
.LASF1250:
	.string	"_ZNSt11char_traitsIcE3eofEv"
.LASF1016:
	.string	"_IO_wide_data"
.LASF705:
	.string	"fgetwc"
.LASF706:
	.string	"fgetws"
.LASF927:
	.string	"uint_least8_t"
.LASF133:
	.string	"__cxx11"
.LASF1263:
	.string	"_ZZN9container6tensorIdJLl2ELl3ELl5EEE11_initializeEvENUliE_C4Ev"
.LASF123:
	.string	"bidirectional_iterator_tag"
.LASF189:
	.string	"allocator_traits<std::allocator<long int> >"
.LASF584:
	.string	"_ZSt12__niter_baseIPlET_S1_"
.LASF211:
	.string	"_ZNSt12_Vector_baseIlSaIlEE17_Vector_impl_data12_M_swap_dataERS2_"
.LASF125:
	.string	"__debug"
.LASF170:
	.string	"const_reference"
.LASF574:
	.string	"_ZSt10__fill_n_aIPdmdET_S1_T0_RKT1_St26random_access_iterator_tag"
.LASF802:
	.string	"_ZNK9__gnu_cxx17__normal_iteratorIPlSt6vectorIlSaIlEEEdeEv"
.LASF217:
	.string	"_ZNSt12_Vector_baseIlSaIlEE12_Vector_implC4EOS0_OS2_"
.LASF80:
	.string	"_ZNSt15__exception_ptr13exception_ptrC4EDn"
.LASF1135:
	.string	"_Znwm"
.LASF997:
	.string	"srand"
.LASF1118:
	.string	"_ZN9container6tensorIdJEE26_diff_type_copy_initializeIJLl2ELl3ELl5EEEEvRKNS0_IdJXspT_EEEE"
.LASF811:
	.string	"_ZNK9__gnu_cxx17__normal_iteratorIPlSt6vectorIlSaIlEEEixEl"
.LASF888:
	.string	"bool"
.LASF254:
	.string	"_S_relocate"
.LASF287:
	.string	"rend"
.LASF1139:
	.string	"__cxa_allocate_exception"
.LASF236:
	.string	"_M_allocate"
.LASF607:
	.string	"_ZSt14__relocate_a_1IddENSt9enable_ifIXsrSt24__is_bitwise_relocatableIT_vE5valueEPS2_E4typeES4_S4_S4_RSaIT0_E"
.LASF907:
	.string	"__uint_least32_t"
.LASF491:
	.string	"_ZNSt6vectorIdSaIdEE4backEv"
.LASF543:
	.string	"_ZNSt11__copy_moveILb0ELb1ESt26random_access_iterator_tagE8__copy_mIdEEPT_PKS3_S6_S4_"
.LASF1087:
	.string	"_ZNK9container6tensorIdJLl2ELl3ELl5EEE5shapeEl"
.LASF298:
	.string	"size"
.LASF338:
	.string	"erase"
.LASF141:
	.string	"basic_ostream<char, std::char_traits<char> >"
.LASF1086:
	.string	"_ZNK9container6tensorIdJLl2ELl3ELl5EEE5shapeEv"
.LASF630:
	.string	"max<long unsigned int>"
.LASF203:
	.string	"_M_finish"
.LASF863:
	.string	"_ZN9__gnu_cxx17__normal_iteratorIPKdSt6vectorIdSaIdEEEC4Ev"
.LASF188:
	.string	"_ZNSaIlED4Ev"
.LASF995:
	.string	"quick_exit"
.LASF742:
	.string	"tm_min"
.LASF948:
	.string	"currency_symbol"
.LASF710:
	.string	"fwide"
.LASF984:
	.string	"atof"
.LASF985:
	.string	"atoi"
.LASF206:
	.string	"_ZNSt12_Vector_baseIlSaIlEE17_Vector_impl_dataC4EOS2_"
.LASF846:
	.string	"rebind<double>"
.LASF1099:
	.string	"rhs_dims"
.LASF1072:
	.string	"container"
.LASF396:
	.string	"_ZNSt15__new_allocatorIdE10deallocateEPdm"
.LASF1106:
	.string	"_ZN9container6tensorIdJEEC4EOS1_"
.LASF572:
	.string	"_ZSt12__miter_baseIN9__gnu_cxx17__normal_iteratorIPKlSt6vectorIlSaIlEEEEET_S8_"
.LASF51:
	.string	"_unused2"
.LASF1148:
	.string	"__it"
.LASF13:
	.string	"size_t"
.LASF349:
	.string	"_ZNSt6vectorIlSaIlEE14_M_fill_assignEmRKl"
.LASF359:
	.string	"_ZNSt6vectorIlSaIlEE14_M_emplace_auxEN9__gnu_cxx17__normal_iteratorIPKlS1_EEOl"
.LASF382:
	.string	"_ZNSt16initializer_listIlEC4EPKlm"
.LASF699:
	.string	"_ZStlsISt11char_traitsIcEERSt13basic_ostreamIcT_ES5_c"
.LASF567:
	.string	"__memcmp<long int, long int>"
.LASF153:
	.string	"__uninit_default_n<double*, long unsigned int>"
.LASF184:
	.string	"operator bool"
.LASF1091:
	.string	"_data"
.LASF265:
	.string	"_ZNSt6vectorIlSaIlEEC4EOS1_RKS0_St17integral_constantIbLb0EE"
.LASF772:
	.string	"__isoc99_wscanf"
.LASF432:
	.string	"_ZNSt12_Vector_baseIdSaIdEEC4EOS1_RKS0_"
.LASF569:
	.string	"__copy_move_a<false, __gnu_cxx::__normal_iterator<long int const*, std::vector<long int> >, long int*>"
.LASF604:
	.string	"_ZSt12__niter_baseIPlSt6vectorIlSaIlEEET_N9__gnu_cxx17__normal_iteratorIS4_T0_EE"
.LASF424:
	.string	"_ZNKSt12_Vector_baseIdSaIdEE19_M_get_Tp_allocatorEv"
.LASF93:
	.string	"nullptr_t"
.LASF331:
	.string	"pop_back"
.LASF722:
	.string	"swscanf"
.LASF290:
	.string	"cbegin"
.LASF853:
	.string	"_ZN9__gnu_cxx17__normal_iteratorIPdSt6vectorIdSaIdEEEppEi"
.LASF852:
	.string	"_ZN9__gnu_cxx17__normal_iteratorIPdSt6vectorIdSaIdEEEppEv"
.LASF826:
	.string	"_ZNK9__gnu_cxx17__normal_iteratorIPKlSt6vectorIlSaIlEEEdeEv"
.LASF50:
	.string	"_mode"
.LASF1130:
	.string	"this"
.LASF599:
	.string	"__equal_aux1<long int*, long int*>"
.LASF185:
	.string	"_ZNKSt15__exception_ptr13exception_ptrcvbEv"
.LASF383:
	.string	"_ZNSt16initializer_listIlEC4Ev"
.LASF59:
	.string	"_ZNKSt17integral_constantIbLb0EEcvbEv"
.LASF357:
	.string	"_ZNSt6vectorIlSaIlEE14_M_insert_rvalEN9__gnu_cxx17__normal_iteratorIPKlS1_EEOl"
.LASF727:
	.string	"__isoc99_vfwscanf"
.LASF1129:
	.string	"_ZNSt8ios_base4InitC1Ev"
.LASF401:
	.string	"_ZNSaIdEC4ERKS_"
.LASF390:
	.string	"_ZNSt15__new_allocatorIdEC4Ev"
.LASF268:
	.string	"~vector"
.LASF973:
	.string	"5div_t"
.LASF782:
	.string	"_ZN9__gnu_cxx14__alloc_traitsISaIlElE17_S_select_on_copyERKS1_"
.LASF149:
	.string	"__uninit_copy<long int const*, long int*>"
.LASF822:
	.string	"__normal_iterator<long int const*, std::vector<long int, std::allocator<long int> > >"
.LASF713:
	.string	"__isoc99_fwscanf"
.LASF121:
	.string	"true_type"
.LASF797:
	.string	"__normal_iterator<long int*, std::vector<long int, std::allocator<long int> > >"
.LASF966:
	.string	"int_p_sign_posn"
.LASF974:
	.string	"quot"
.LASF16:
	.string	"__wchb"
.LASF1170:
	.string	"__one"
.LASF107:
	.string	"_ZNSt11char_traitsIcE4copyEPcPKcm"
.LASF204:
	.string	"_M_end_of_storage"
.LASF1262:
	.string	"__static_initialization_and_destruction_0"
.LASF674:
	.string	"_ZSt19__iterator_categoryIPKlENSt15iterator_traitsIT_E17iterator_categoryERKS3_"
.LASF745:
	.string	"tm_mon"
.LASF1002:
	.string	"wcstombs"
.LASF1046:
	.string	"towctrans"
.LASF1208:
	.string	"_ZZN9container6tensorIdJLl2ELl3ELl5EEE11_initializeEvENUliE_C4EOS2_"
.LASF589:
	.string	"fill_n<double*, long unsigned int, double>"
.LASF608:
	.string	"__niter_base<double*>"
.LASF986:
	.string	"atol"
.LASF336:
	.string	"_ZNSt6vectorIlSaIlEE6insertEN9__gnu_cxx17__normal_iteratorIPKlS1_EESt16initializer_listIlE"
.LASF379:
	.string	"_M_array"
.LASF1245:
	.string	"__int128"
.LASF594:
	.string	"_ZSt11__addressofIdEPT_RS0_"
.LASF779:
	.string	"__ops"
.LASF1082:
	.string	"order"
.LASF936:
	.string	"uint_fast16_t"
.LASF126:
	.string	"__equal<true>"
.LASF199:
	.string	"rebind_alloc"
.LASF895:
	.string	"__uint8_t"
.LASF743:
	.string	"tm_hour"
.LASF1255:
	.string	"_ZNSt13runtime_errorD4Ev"
.LASF105:
	.string	"_ZNSt11char_traitsIcE4moveEPcPKcm"
.LASF942:
	.string	"uintmax_t"
.LASF41:
	.string	"_vtable_offset"
.LASF1155:
	.string	"_Args"
.LASF138:
	.string	"_ZNSt8ios_base4InitC4ERKS0_"
.LASF492:
	.string	"_ZNKSt6vectorIdSaIdEE4backEv"
.LASF327:
	.string	"_ZNKSt6vectorIlSaIlEE4dataEv"
.LASF160:
	.string	"_ZNSt15__new_allocatorIlEC4ERKS0_"
.LASF71:
	.string	"_ZNSt15__exception_ptr13exception_ptrC4EPv"
.LASF475:
	.string	"_ZNKSt6vectorIdSaIdEE5crendEv"
.LASF824:
	.string	"_ZN9__gnu_cxx17__normal_iteratorIPKlSt6vectorIlSaIlEEEC4Ev"
.LASF1138:
	.string	"_ZNSt13runtime_errorC1EPKc"
.LASF279:
	.string	"_ZNKSt6vectorIlSaIlEE5beginEv"
.LASF825:
	.string	"_ZN9__gnu_cxx17__normal_iteratorIPKlSt6vectorIlSaIlEEEC4ERKS2_"
.LASF553:
	.string	"__throw_length_error"
.LASF1207:
	.string	"<lambda>"
.LASF571:
	.string	"__miter_base<__gnu_cxx::__normal_iterator<long int const*, std::vector<long int> > >"
.LASF546:
	.string	"_Category"
.LASF247:
	.string	"_S_nothrow_relocate"
.LASF363:
	.string	"_ZNSt6vectorIlSaIlEE17_S_check_init_lenEmRKS0_"
.LASF992:
	.string	"mbtowc"
.LASF202:
	.string	"_M_start"
.LASF989:
	.string	"ldiv"
.LASF56:
	.string	"value_type"
.LASF748:
	.string	"tm_yday"
.LASF427:
	.string	"_ZNSt12_Vector_baseIdSaIdEEC4ERKS0_"
.LASF660:
	.string	"_ZSt13__copy_move_aILb1EN9__gnu_cxx17__normal_iteratorIPKdSt6vectorIdSaIdEEEENS1_IPdS6_EEET1_T0_SB_SA_"
.LASF507:
	.string	"_ZNSt6vectorIdSaIdEE21_M_default_initializeEm"
.LASF1026:
	.string	"fopen"
.LASF313:
	.string	"_ZNSt6vectorIlSaIlEEixEm"
.LASF311:
	.string	"_ZNSt6vectorIlSaIlEE7reserveEm"
.LASF73:
	.string	"_M_release"
.LASF506:
	.string	"_ZNSt6vectorIdSaIdEE18_M_fill_initializeEmRKd"
.LASF918:
	.string	"int64_t"
.LASF737:
	.string	"wcscoll"
.LASF541:
	.string	"_ZNSt11__copy_moveILb0ELb1ESt26random_access_iterator_tagE8__copy_mIlEEPT_PKS3_S6_S4_"
.LASF807:
	.string	"_ZN9__gnu_cxx17__normal_iteratorIPlSt6vectorIlSaIlEEEppEi"
.LASF263:
	.string	"_ZNSt6vectorIlSaIlEEC4ERKS1_RKS0_"
.LASF1103:
	.string	"tensor<double>"
.LASF335:
	.string	"_ZNSt6vectorIlSaIlEE6insertEN9__gnu_cxx17__normal_iteratorIPKlS1_EEOl"
.LASF1169:
	.string	"__from"
.LASF806:
	.string	"_ZN9__gnu_cxx17__normal_iteratorIPlSt6vectorIlSaIlEEEppEv"
.LASF794:
	.string	"_ZN9__gnu_cxx14__alloc_traitsISaIlElE15_S_nothrow_moveEv"
.LASF695:
	.string	"_ZSt8_DestroyIPllEvT_S1_RSaIT0_E"
.LASF552:
	.string	"_ZSt28__throw_bad_array_new_lengthv"
.LASF1219:
	.string	"_ZNSt12_Vector_baseIdSaIdEE12_Vector_implC2Ev"
.LASF147:
	.string	"_ZNSt20__uninitialized_copyILb1EE13__uninit_copyIN9__gnu_cxx17__normal_iteratorIPKlSt6vectorIlSaIlEEEEPlEET0_T_SC_SB_"
.LASF1188:
	.string	"_ZNSt12_Vector_baseIlSaIlEE12_Vector_implC2EOS2_"
.LASF300:
	.string	"_ZNKSt6vectorIlSaIlEE8max_sizeEv"
.LASF23:
	.string	"_flags"
.LASF1121:
	.string	"dims"
.LASF955:
	.string	"frac_digits"
.LASF1114:
	.string	"_ZNK9container6tensorIdJEE5beginEv"
.LASF347:
	.string	"_ZNSt6vectorIlSaIlEE21_M_default_initializeEm"
.LASF757:
	.string	"wcsspn"
.LASF535:
	.string	"enable_if<true, double*>"
.LASF523:
	.string	"reverse_iterator<__gnu_cxx::__normal_iterator<double*, std::vector<double, std::allocator<double> > > >"
.LASF724:
	.string	"ungetwc"
.LASF5:
	.string	"double"
.LASF233:
	.string	"~_Vector_base"
.LASF1048:
	.string	"wctype"
.LASF612:
	.string	"__copy_move_a2<true, double const*, double*>"
.LASF33:
	.string	"_IO_backup_base"
.LASF1108:
	.string	"_ZN9container6tensorIdJEEaSEOS1_"
.LASF983:
	.string	"at_quick_exit"
.LASF20:
	.string	"__mbstate_t"
.LASF416:
	.string	"_ZNSt12_Vector_baseIdSaIdEE12_Vector_implC4ERKS0_"
.LASF259:
	.string	"_ZNSt6vectorIlSaIlEEC4EmRKS0_"
.LASF193:
	.string	"const_void_pointer"
.LASF490:
	.string	"_ZNKSt6vectorIdSaIdEE5frontEv"
.LASF972:
	.string	"11__mbstate_t"
.LASF583:
	.string	"__niter_base<long int*>"
.LASF631:
	.string	"_ZSt3maxImERKT_S2_S2_"
.LASF712:
	.string	"fwscanf"
.LASF1166:
	.string	"__allocmax"
.LASF95:
	.string	"char_type"
.LASF1032:
	.string	"getc"
.LASF1143:
	.string	"__last"
.LASF145:
	.string	"__uninitialized_copy<true>"
.LASF1083:
	.string	"_ZNK9container6tensorIdJLl2ELl3ELl5EEE5orderEv"
.LASF397:
	.string	"_ZNKSt15__new_allocatorIdE8max_sizeEv"
.LASF965:
	.string	"int_n_sep_by_space"
.LASF64:
	.string	"_ZNKSt17integral_constantIbLb1EEclEv"
.LASF144:
	.string	"ostream"
.LASF375:
	.string	"_ZNSt6vectorIlSaIlEE19_M_range_initializeIPKlEEvT_S5_St20forward_iterator_tag"
.LASF619:
	.string	"__iterator_category<__gnu_cxx::__normal_iterator<long int*, std::vector<long int> > >"
.LASF681:
	.string	"_ZSt4copyIN9__gnu_cxx17__normal_iteratorIPKdSt6vectorIdSaIdEEEENS1_IPdS6_EEET0_T_SB_SA_"
.LASF231:
	.string	"_ZNSt12_Vector_baseIlSaIlEEC4EOS1_RKS0_"
.LASF1231:
	.string	"_ZNSt6vectorIlSaIlEED2Ev"
.LASF596:
	.string	"_ZSt13__copy_move_aILb0EPKlPlET1_T0_S4_S3_"
.LASF291:
	.string	"_ZNKSt6vectorIlSaIlEE6cbeginEv"
.LASF152:
	.string	"__uninitialized_default_n_1<true>"
.LASF754:
	.string	"wcsncmp"
.LASF402:
	.string	"_ZNSaIdEaSERKS_"
.LASF25:
	.string	"_IO_read_end"
.LASF328:
	.string	"push_back"
.LASF776:
	.string	"wcsstr"
.LASF256:
	.string	"vector"
.LASF395:
	.string	"_ZNSt15__new_allocatorIdE8allocateEmPKv"
.LASF977:
	.string	"ldiv_t"
.LASF700:
	.string	"move<container::tensor<double>&>"
.LASF169:
	.string	"_ZNKSt15__new_allocatorIlE7addressERKl"
.LASF1195:
	.string	"_ZNSt15__new_allocatorIlED2Ev"
.LASF32:
	.string	"_IO_save_base"
.LASF505:
	.string	"_ZNSt6vectorIdSaIdEE5clearEv"
.LASF108:
	.string	"assign"
.LASF517:
	.string	"_ZNSt6vectorIdSaIdEE15_M_erase_at_endEPd"
.LASF101:
	.string	"_ZNSt11char_traitsIcE6lengthEPKc"
.LASF140:
	.string	"ios_base"
.LASF950:
	.string	"mon_thousands_sep"
.LASF605:
	.string	"__enable_if_t"
.LASF29:
	.string	"_IO_write_end"
.LASF364:
	.string	"_S_max_size"
.LASF334:
	.string	"_ZNSt6vectorIlSaIlEE6insertEN9__gnu_cxx17__normal_iteratorIPKlS1_EERS4_"
.LASF1201:
	.string	"rhs_dim_vector"
.LASF214:
	.string	"_ZNSt12_Vector_baseIlSaIlEE12_Vector_implC4ERKS0_"
.LASF617:
	.string	"_ZSt10__distanceIN9__gnu_cxx17__normal_iteratorIPlSt6vectorIlSaIlEEEEENSt15iterator_traitsIT_E15difference_typeES8_S8_St26random_access_iterator_tag"
.LASF423:
	.string	"_ZNSt12_Vector_baseIdSaIdEE19_M_get_Tp_allocatorEv"
.LASF528:
	.string	"difference_type"
.LASF837:
	.string	"_ZNK9__gnu_cxx17__normal_iteratorIPKlSt6vectorIlSaIlEEE4baseEv"
.LASF563:
	.string	"_ZSt8__fill_aIPddEvT_S1_RKT0_"
.LASF680:
	.string	"copy<__gnu_cxx::__normal_iterator<double const*, std::vector<double, std::allocator<double> > >, __gnu_cxx::__normal_iterator<double*, std::vector<double, std::allocator<double> > > >"
.LASF471:
	.string	"_ZNKSt6vectorIdSaIdEE4rendEv"
.LASF873:
	.string	"_ZNK9__gnu_cxx17__normal_iteratorIPKdSt6vectorIdSaIdEEEplEl"
.LASF734:
	.string	"wcrtomb"
.LASF642:
	.string	"__niter_wrap<__gnu_cxx::__normal_iterator<double*, std::vector<double, std::allocator<double> > >, double*>"
.LASF110:
	.string	"to_char_type"
.LASF161:
	.string	"~__new_allocator"
.LASF1205:
	.string	"_ZNSt12_Vector_baseIlSaIlEED2Ev"
.LASF30:
	.string	"_IO_buf_base"
.LASF393:
	.string	"_ZNKSt15__new_allocatorIdE7addressERd"
.LASF1216:
	.string	"_ZNSaIlEC2Ev"
.LASF1225:
	.string	"_ZNSt12_Vector_baseIlSaIlEEC2Ev"
.LASF638:
	.string	"equal<__gnu_cxx::__normal_iterator<long int*, std::vector<long int> >, __gnu_cxx::__normal_iterator<long int*, std::vector<long int> > >"
.LASF44:
	.string	"_offset"
.LASF897:
	.string	"__uint16_t"
.LASF1030:
	.string	"fsetpos"
.LASF449:
	.string	"_ZNSt6vectorIdSaIdEEC4EmRKS0_"
.LASF172:
	.string	"_ZNSt15__new_allocatorIlE8allocateEmPKv"
.LASF582:
	.string	"_ZSt14__copy_move_a1ILb0EPKlPlET1_T0_S4_S3_"
.LASF132:
	.string	"_ForwardIterator"
.LASF752:
	.string	"wcslen"
.LASF1243:
	.string	"oor_index"
.LASF689:
	.string	"_ZSt8for_eachIN9__gnu_cxx17__normal_iteratorIPlSt6vectorIlSaIlEEEEZN9container6tensorIdJLl2ELl3ELl5EEE11_initializeEvEUliE_ET0_T_SC_SB_"
.LASF191:
	.string	"allocator_type"
.LASF1028:
	.string	"freopen"
.LASF603:
	.string	"__niter_base<long int*, std::vector<long int> >"
.LASF76:
	.string	"_M_get"
.LASF922:
	.string	"uint64_t"
.LASF701:
	.string	"_ZSt4moveIRN9container6tensorIdJEEEEONSt16remove_referenceIT_E4typeEOS5_"
.LASF387:
	.string	"reverse_iterator<__gnu_cxx::__normal_iterator<long int*, std::vector<long int, std::allocator<long int> > > >"
.LASF715:
	.string	"mbrlen"
.LASF409:
	.string	"_ZNSt16allocator_traitsISaIdEE37select_on_container_copy_constructionERKS0_"
.LASF976:
	.string	"6ldiv_t"
.LASF481:
	.string	"_ZNKSt6vectorIdSaIdEE8capacityEv"
.LASF1184:
	.string	"__new_start"
.LASF1144:
	.string	"__ioinit"
.LASF771:
	.string	"wscanf"
.LASF306:
	.string	"capacity"
.LASF880:
	.string	"_ZN9__gnu_cxxeqIPlSt6vectorIlSaIlEEEEbRKNS_17__normal_iteratorIT_T0_EESA_"
.LASF472:
	.string	"_ZNKSt6vectorIdSaIdEE6cbeginEv"
.LASF1253:
	.string	"_ZSt4cout"
.LASF731:
	.string	"vwprintf"
.LASF539:
	.string	"__copy_move<false, true, std::random_access_iterator_tag>"
.LASF696:
	.string	"_Destroy<double*, double>"
.LASF91:
	.string	"rethrow_exception"
.LASF683:
	.string	"_ZSt4moveIRSt6vectorIlSaIlEEEONSt16remove_referenceIT_E4typeEOS5_"
.LASF1134:
	.string	"operator new"
.LASF415:
	.string	"_ZNSt12_Vector_baseIdSaIdEE12_Vector_implC4Ev"
.LASF196:
	.string	"_ZNSt16allocator_traitsISaIlEE8max_sizeERKS0_"
.LASF1120:
	.string	"_ZN9container6tensorIdJEEC4IJLl2ELl3ELl5EEEERKNS0_IdJXspT_EEEE"
.LASF292:
	.string	"cend"
.LASF219:
	.string	"_M_get_Tp_allocator"
.LASF369:
	.string	"_ZNSt6vectorIlSaIlEE8_M_eraseEN9__gnu_cxx17__normal_iteratorIPlS1_EE"
.LASF350:
	.string	"_M_fill_insert"
.LASF1123:
	.string	"details"
.LASF209:
	.string	"_M_swap_data"
.LASF285:
	.string	"const_reverse_iterator"
.LASF323:
	.string	"_ZNSt6vectorIlSaIlEE4backEv"
.LASF994:
	.string	"qsort"
.LASF868:
	.string	"_ZN9__gnu_cxx17__normal_iteratorIPKdSt6vectorIdSaIdEEEppEi"
.LASF669:
	.string	"__uninitialized_copy_a<long int const*, long int*, long int>"
.LASF867:
	.string	"_ZN9__gnu_cxx17__normal_iteratorIPKdSt6vectorIdSaIdEEEppEv"
.LASF61:
	.string	"integral_constant<bool, true>"
.LASF548:
	.string	"_ZNSt11__copy_moveILb1ELb1ESt26random_access_iterator_tagE8__copy_mIdEEPT_PKS3_S6_S4_"
.LASF855:
	.string	"_ZN9__gnu_cxx17__normal_iteratorIPdSt6vectorIdSaIdEEEmmEi"
.LASF329:
	.string	"_ZNSt6vectorIlSaIlEE9push_backERKl"
.LASF237:
	.string	"_ZNSt12_Vector_baseIlSaIlEE11_M_allocateEm"
.LASF854:
	.string	"_ZN9__gnu_cxx17__normal_iteratorIPdSt6vectorIdSaIdEEEmmEv"
.LASF177:
	.string	"_ZNKSt15__new_allocatorIlE8max_sizeEv"
.LASF60:
	.string	"_ZNKSt17integral_constantIbLb0EEclEv"
.LASF171:
	.string	"allocate"
.LASF479:
	.string	"_ZNSt6vectorIdSaIdEE6resizeEmRKd"
.LASF735:
	.string	"wcscat"
.LASF1090:
	.string	"_ZNK9container6tensorIdJLl2ELl3ELl5EEE3endEv"
.LASF1257:
	.string	"_IO_lock_t"
.LASF174:
	.string	"deallocate"
.LASF24:
	.string	"_IO_read_ptr"
.LASF3:
	.string	"__float128"
.LASF1190:
	.string	"__move_storage"
.LASF155:
	.string	"_Size"
.LASF1061:
	.string	"parallel_unsequenced_policy"
.LASF38:
	.string	"_flags2"
.LASF394:
	.string	"_ZNKSt15__new_allocatorIdE7addressERKd"
.LASF192:
	.string	"_ZNSt16allocator_traitsISaIlEE8allocateERS0_mPKv"
.LASF1037:
	.string	"rewind"
.LASF788:
	.string	"_ZN9__gnu_cxx14__alloc_traitsISaIlElE27_S_propagate_on_move_assignEv"
.LASF352:
	.string	"_M_default_append"
.LASF958:
	.string	"n_cs_precedes"
.LASF45:
	.string	"_codecvt"
.LASF269:
	.string	"_ZNSt6vectorIlSaIlEED4Ev"
.LASF454:
	.string	"_ZNSt6vectorIdSaIdEEC4EOS1_RKS0_St17integral_constantIbLb1EE"
.LASF639:
	.string	"_ZSt5equalIN9__gnu_cxx17__normal_iteratorIPlSt6vectorIlSaIlEEEES6_EbT_S7_T0_"
.LASF536:
	.string	"__iterator_traits<__gnu_cxx::__normal_iterator<long int*, std::vector<long int, std::allocator<long int> > >, void>"
.LASF280:
	.string	"_ZNSt6vectorIlSaIlEE3endEv"
.LASF909:
	.string	"__uint_least64_t"
.LASF89:
	.string	"__cxa_exception_type"
.LASF500:
	.string	"_ZNSt6vectorIdSaIdEE6insertEN9__gnu_cxx17__normal_iteratorIPKdS1_EESt16initializer_listIdE"
.LASF654:
	.string	"_ZSt22__uninitialized_copy_aIN9__gnu_cxx17__normal_iteratorIPKlSt6vectorIlSaIlEEEEPllET0_T_SA_S9_RSaIT1_E"
.LASF28:
	.string	"_IO_write_ptr"
.LASF83:
	.string	"_ZNSt15__exception_ptr13exception_ptraSERKS0_"
.LASF1241:
	.string	"_ZN9container6tensorIdJLl2ELl3ELl5EEED2Ev"
.LASF554:
	.string	"_ZSt20__throw_length_errorPKc"
.LASF124:
	.string	"random_access_iterator_tag"
.LASF162:
	.string	"_ZNSt15__new_allocatorIlED4Ev"
.LASF1167:
	.string	"_ZN9__gnu_cxx17__normal_iteratorIPKlSt6vectorIlSaIlEEEC2ERKS2_"
.LASF1227:
	.string	"index_list"
.LASF218:
	.string	"_Tp_alloc_type"
.LASF834:
	.string	"_ZNK9__gnu_cxx17__normal_iteratorIPKlSt6vectorIlSaIlEEEplEl"
.LASF1168:
	.string	"_ZNSt15__new_allocatorIlEC2ERKS0_"
.LASF741:
	.string	"tm_sec"
.LASF842:
	.string	"_ZN9__gnu_cxx14__alloc_traitsISaIdEdE27_S_propagate_on_move_assignEv"
.LASF1203:
	.string	"_ZNSt12_Vector_baseIlSaIlEEC2EOS1_"
.LASF1098:
	.string	"_ZN9container6tensorIdJLl2ELl3ELl5EEEC4IJEEEONS0_IdJXspT_EEEE"
.LASF847:
	.string	"__normal_iterator<double*, std::vector<double, std::allocator<double> > >"
.LASF510:
	.string	"_ZNSt6vectorIdSaIdEE17_M_default_appendEm"
.LASF374:
	.string	"_M_range_initialize<long int const*>"
.LASF286:
	.string	"_ZNKSt6vectorIlSaIlEE6rbeginEv"
.LASF1063:
	.string	"_ZN6__pstl9execution2v127parallel_unsequenced_policy14__allow_vectorEv"
.LASF665:
	.string	"__copy_move_a<false, __gnu_cxx::__normal_iterator<double const*, std::vector<double, std::allocator<double> > >, __gnu_cxx::__normal_iterator<double*, std::vector<double, std::allocator<double> > > >"
.LASF166:
	.string	"_ZNKSt15__new_allocatorIlE7addressERl"
.LASF939:
	.string	"intptr_t"
.LASF1126:
	.string	"decltype(nullptr)"
.LASF1078:
	.string	"_ZN9container6tensorIdJLl2ELl3ELl5EEEaSERKS1_"
.LASF894:
	.string	"__int8_t"
.LASF476:
	.string	"_ZNKSt6vectorIdSaIdEE4sizeEv"
.LASF930:
	.string	"uint_least64_t"
.LASF234:
	.string	"_ZNSt12_Vector_baseIlSaIlEED4Ev"
.LASF959:
	.string	"n_sep_by_space"
.LASF441:
	.string	"_ZNSt6vectorIdSaIdEE19_S_nothrow_relocateESt17integral_constantIbLb0EE"
.LASF228:
	.string	"_ZNSt12_Vector_baseIlSaIlEEC4EmRKS0_"
.LASF182:
	.string	"_ZNSaIlEC4Ev"
.LASF703:
	.string	"_ZSt17__size_to_integerm"
.LASF534:
	.string	"remove_reference<std::_Vector_base<long int, std::allocator<long int> >::_Vector_impl&>"
.LASF945:
	.string	"thousands_sep"
.LASF252:
	.string	"_ZNSt6vectorIlSaIlEE14_S_do_relocateEPlS2_S2_RS0_St17integral_constantIbLb1EE"
.LASF773:
	.string	"wcschr"
.LASF558:
	.string	"_ZSt9__fill_a1IPddEN9__gnu_cxx11__enable_ifIXsrSt11__is_scalarIT0_E7__valueEvE6__typeET_S8_RKS4_"
.LASF550:
	.string	"__throw_bad_array_new_length"
.LASF370:
	.string	"_ZNSt6vectorIlSaIlEE8_M_eraseEN9__gnu_cxx17__normal_iteratorIPlS1_EES5_"
.LASF833:
	.string	"_ZN9__gnu_cxx17__normal_iteratorIPKlSt6vectorIlSaIlEEEpLEl"
.LASF675:
	.string	"move<__gnu_cxx::__normal_iterator<double const*, std::vector<double, std::allocator<double> > >, __gnu_cxx::__normal_iterator<double*, std::vector<double, std::allocator<double> > > >"
.LASF1165:
	.string	"__diffmax"
.LASF719:
	.string	"putwc"
.LASF361:
	.string	"_ZNKSt6vectorIlSaIlEE12_M_check_lenEmPKc"
.LASF168:
	.string	"const_pointer"
.LASF496:
	.string	"_ZNSt6vectorIdSaIdEE9push_backEOd"
.LASF857:
	.string	"_ZN9__gnu_cxx17__normal_iteratorIPdSt6vectorIdSaIdEEEpLEl"
.LASF657:
	.string	"uninitialized_copy<long int const*, long int*>"
.LASF183:
	.string	"_ZNSaIlEC4ERKS_"
.LASF1212:
	.string	"__size_1d"
.LASF72:
	.string	"_M_addref"
.LASF465:
	.string	"_ZNKSt6vectorIdSaIdEE5beginEv"
.LASF935:
	.string	"uint_fast8_t"
.LASF43:
	.string	"_lock"
.LASF829:
	.string	"_ZN9__gnu_cxx17__normal_iteratorIPKlSt6vectorIlSaIlEEEppEi"
.LASF564:
	.string	"_FIte"
.LASF828:
	.string	"_ZN9__gnu_cxx17__normal_iteratorIPKlSt6vectorIlSaIlEEEppEv"
.LASF577:
	.string	"_ZSt19__iterator_categoryIPdENSt15iterator_traitsIT_E17iterator_categoryERKS2_"
.LASF923:
	.string	"int_least8_t"
.LASF487:
	.string	"_ZNSt6vectorIdSaIdEE2atEm"
.LASF998:
	.string	"strtod"
.LASF1008:
	.string	"strtof"
.LASF635:
	.string	"_ZSt3minImERKT_S2_S2_"
.LASF810:
	.string	"_ZN9__gnu_cxx17__normal_iteratorIPlSt6vectorIlSaIlEEEmmEi"
.LASF243:
	.string	"__type_identity<std::allocator<long int> >"
.LASF999:
	.string	"strtol"
.LASF904:
	.string	"__int_least16_t"
.LASF100:
	.string	"_ZNSt11char_traitsIcE7compareEPKcS2_m"
.LASF809:
	.string	"_ZN9__gnu_cxx17__normal_iteratorIPlSt6vectorIlSaIlEEEmmEv"
.LASF392:
	.string	"_ZNSt15__new_allocatorIdED4Ev"
.LASF63:
	.string	"_ZNKSt17integral_constantIbLb1EEcvbEv"
.LASF937:
	.string	"uint_fast32_t"
.LASF68:
	.string	"__exception_ptr"
.LASF764:
	.string	"wcsxfrm"
.LASF1259:
	.string	"__cxa_rethrow"
.LASF840:
	.string	"_ZN9__gnu_cxx14__alloc_traitsISaIdEdE10_S_on_swapERS1_S3_"
.LASF31:
	.string	"_IO_buf_end"
.LASF53:
	.string	"short unsigned int"
.LASF961:
	.string	"n_sign_posn"
.LASF883:
	.string	"wcstold"
.LASF924:
	.string	"int_least16_t"
.LASF67:
	.string	"__swappable_with_details"
.LASF270:
	.string	"_ZNSt6vectorIlSaIlEEaSERKS1_"
.LASF884:
	.string	"wcstoll"
.LASF662:
	.string	"_ZSt8__equal4IN9__gnu_cxx17__normal_iteratorIPlSt6vectorIlSaIlEEEES6_EbT_S7_T0_S8_"
.LASF1059:
	.string	"_ZN6__pstl9execution2v115parallel_policy14__allow_vectorEv"
.LASF484:
	.string	"_ZNSt6vectorIdSaIdEEixEm"
.LASF469:
	.string	"_ZNKSt6vectorIdSaIdEE6rbeginEv"
.LASF545:
	.string	"_IsSimple"
.LASF756:
	.string	"wcsrtombs"
.LASF1015:
	.string	"_IO_codecvt"
.LASF1004:
	.string	"lldiv"
.LASF70:
	.string	"exception_ptr"
.LASF736:
	.string	"wcscmp"
.LASF878:
	.string	"_ZN9__gnu_cxxmiIPlSt6vectorIlSaIlEEEENS_17__normal_iteratorIT_T0_E15difference_typeERKS8_SB_"
.LASF640:
	.string	"distance<__gnu_cxx::__normal_iterator<long int*, std::vector<long int> > >"
.LASF896:
	.string	"__int16_t"
.LASF1071:
	.string	"unseq"
.LASF739:
	.string	"wcscspn"
.LASF267:
	.string	"_ZNSt6vectorIlSaIlEEC4ESt16initializer_listIlERKS0_"
.LASF190:
	.string	"_ZNSt16allocator_traitsISaIlEE8allocateERS0_m"
.LASF26:
	.string	"_IO_read_base"
.LASF1154:
	.string	"__len"
.LASF1057:
	.string	"parallel_policy"
.LASF436:
	.string	"_ZNSt12_Vector_baseIdSaIdEE13_M_deallocateEPdm"
.LASF1163:
	.string	"__can_memmove"
.LASF848:
	.string	"_ZN9__gnu_cxx17__normal_iteratorIPdSt6vectorIdSaIdEEEC4Ev"
.LASF1264:
	.string	"_ZZN9container6tensorIdJLl2ELl3ELl5EEE11_initializeEvENKUliE_clEi"
.LASF180:
	.string	"allocator<long int>"
.LASF429:
	.string	"_ZNSt12_Vector_baseIdSaIdEEC4EmRKS0_"
.LASF538:
	.string	"remove_reference<std::allocator<long int>&>"
.LASF1088:
	.string	"_ZNK9container6tensorIdJLl2ELl3ELl5EEE5beginEv"
.LASF445:
	.string	"_ZNSt6vectorIdSaIdEE14_S_do_relocateEPdS2_S2_RS0_St17integral_constantIbLb0EE"
.LASF248:
	.string	"_ZNSt6vectorIlSaIlEE19_S_nothrow_relocateESt17integral_constantIbLb1EE"
.LASF1186:
	.string	"_ZNSt12_Vector_baseIlSaIlEE12_Vector_implC2ERKS0_"
.LASF530:
	.string	"iterator_traits<double const*>"
.LASF223:
	.string	"_ZNKSt12_Vector_baseIlSaIlEE13get_allocatorEv"
.LASF15:
	.string	"__wch"
.LASF360:
	.string	"_M_check_len"
.LASF753:
	.string	"wcsncat"
.LASF165:
	.string	"address"
.LASF960:
	.string	"p_sign_posn"
.LASF919:
	.string	"uint8_t"
.LASF1081:
	.string	"_ZN9container6tensorIdJLl2ELl3ELl5EEED4Ev"
.LASF1092:
	.string	"_dims"
.LASF22:
	.string	"__FILE"
.LASF911:
	.string	"__uintmax_t"
.LASF98:
	.string	"compare"
.LASF1254:
	.string	"~runtime_error"
.LASF373:
	.string	"_ZNSt6vectorIlSaIlEE14_M_move_assignEOS1_St17integral_constantIbLb0EE"
.LASF497:
	.string	"_ZNSt6vectorIdSaIdEE8pop_backEv"
.LASF452:
	.string	"_ZNSt6vectorIdSaIdEEC4EOS1_"
.LASF738:
	.string	"wcscpy"
.LASF18:
	.string	"__value"
.LASF433:
	.string	"_ZNSt12_Vector_baseIdSaIdEEC4ERKS0_OS1_"
.LASF42:
	.string	"_shortbuf"
.LASF437:
	.string	"_ZNSt12_Vector_baseIdSaIdEE17_M_create_storageEm"
.LASF647:
	.string	"__niter_base<double*, std::vector<double, std::allocator<double> > >"
.LASF69:
	.string	"_M_exception_object"
.LASF792:
	.string	"_ZN9__gnu_cxx14__alloc_traitsISaIlElE15_S_always_equalEv"
.LASF765:
	.string	"wctob"
.LASF882:
	.string	"_ZN9__gnu_cxxneIPlSt6vectorIlSaIlEEEEbRKNS_17__normal_iteratorIT_T0_EESA_"
.LASF684:
	.string	"_Destroy<long int*>"
.LASF224:
	.string	"_Vector_base"
.LASF493:
	.string	"_ZNSt6vectorIdSaIdEE4dataEv"
.LASF1022:
	.string	"fflush"
.LASF303:
	.string	"_ZNSt6vectorIlSaIlEE6resizeEmRKl"
.LASF92:
	.string	"_ZSt17rethrow_exceptionNSt15__exception_ptr13exception_ptrE"
.LASF302:
	.string	"_ZNSt6vectorIlSaIlEE6resizeEm"
.LASF4:
	.string	"float"
.LASF1117:
	.string	"_diff_type_copy_initialize<2, 3, 5>"
.LASF587:
	.string	"copy<__gnu_cxx::__normal_iterator<long int const*, std::vector<long int> >, long int*>"
.LASF17:
	.string	"__count"
.LASF889:
	.string	"unsigned char"
.LASF1232:
	.string	"_ZNSt6vectorIdSaIdEED2Ev"
.LASF260:
	.string	"_ZNSt6vectorIlSaIlEEC4EmRKlRKS0_"
.LASF774:
	.string	"wcspbrk"
.LASF1215:
	.string	"_ZNSaIlED2Ev"
.LASF1164:
	.string	"__assignable"
.LASF272:
	.string	"_ZNSt6vectorIlSaIlEEaSESt16initializer_listIlE"
.LASF875:
	.string	"_ZNK9__gnu_cxx17__normal_iteratorIPKdSt6vectorIdSaIdEEEmiEl"
.LASF1193:
	.string	"_ZNSt12_Vector_baseIlSaIlEEC2ERKS0_"
.LASF963:
	.string	"int_p_sep_by_space"
.LASF386:
	.string	"type_info"
.LASF813:
	.string	"_ZN9__gnu_cxx17__normal_iteratorIPlSt6vectorIlSaIlEEEpLEl"
.LASF1020:
	.string	"feof"
.LASF1036:
	.string	"rename"
.LASF947:
	.string	"int_curr_symbol"
.LASF717:
	.string	"mbsinit"
.LASF649:
	.string	"__niter_base<double const*, std::vector<double, std::allocator<double> > >"
.LASF721:
	.string	"swprintf"
.LASF377:
	.string	"__type_identity_t"
.LASF1210:
	.string	"~<lambda>"
.LASF1047:
	.string	"wctrans"
.LASF1177:
	.string	"_ZNSt12_Vector_baseIlSaIlEE17_Vector_impl_dataC2EOS2_"
.LASF769:
	.string	"wmemset"
.LASF740:
	.string	"wcsftime"
.LASF1013:
	.string	"__fpos_t"
.LASF278:
	.string	"const_iterator"
.LASF693:
	.string	"_ZSt8distanceIPKlENSt15iterator_traitsIT_E15difference_typeES3_S3_"
.LASF968:
	.string	"setlocale"
.LASF879:
	.string	"operator==<long int*, std::vector<long int> >"
.LASF353:
	.string	"_ZNSt6vectorIlSaIlEE17_M_default_appendEm"
.LASF1156:
	.string	"__simple"
.LASF495:
	.string	"_ZNSt6vectorIdSaIdEE9push_backERKd"
.LASF274:
	.string	"_ZNSt6vectorIlSaIlEE6assignESt16initializer_listIlE"
.LASF1018:
	.string	"clearerr"
.LASF763:
	.string	"wcstoul"
.LASF346:
	.string	"_M_default_initialize"
.LASF646:
	.string	"_ZSt14__copy_move_a1ILb0EPKdPdET1_T0_S4_S3_"
.LASF276:
	.string	"begin"
.LASF793:
	.string	"_S_nothrow_move"
.LASF590:
	.string	"_ZSt6fill_nIPdmdET_S1_T0_RKT1_"
.LASF289:
	.string	"_ZNKSt6vectorIlSaIlEE4rendEv"
.LASF251:
	.string	"_S_do_relocate"
.LASF780:
	.string	"__alloc_traits<std::allocator<long int>, long int>"
.LASF244:
	.string	"type"
.LASF418:
	.string	"_ZNSt12_Vector_baseIdSaIdEE12_Vector_implC4EOS0_"
.LASF729:
	.string	"vswscanf"
.LASF912:
	.string	"__off_t"
.LASF137:
	.string	"_ZNSt8ios_base4InitD4Ev"
.LASF849:
	.string	"_ZN9__gnu_cxx17__normal_iteratorIPdSt6vectorIdSaIdEEEC4ERKS1_"
.LASF1217:
	.string	"_ZNSt12_Vector_baseIdSaIdEED2Ev"
.LASF651:
	.string	"__alloc_on_move<std::allocator<long int> >"
.LASF714:
	.string	"getwc"
.LASF1035:
	.string	"remove"
.LASF1218:
	.string	"_ZNSaIdED2Ev"
.LASF186:
	.string	"_ZNSaIlEaSERKS_"
.LASF877:
	.string	"operator-<long int*, std::vector<long int> >"
.LASF457:
	.string	"_ZNSt6vectorIdSaIdEEC4ESt16initializer_listIdERKS0_"
.LASF317:
	.string	"_ZNSt6vectorIlSaIlEE2atEm"
.LASF1060:
	.string	"_ZN6__pstl9execution2v115parallel_policy16__allow_parallelEv"
.LASF135:
	.string	"~Init"
.LASF520:
	.string	"_ZNSt6vectorIdSaIdEE14_M_move_assignEOS1_St17integral_constantIbLb1EE"
.LASF728:
	.string	"vswprintf"
.LASF845:
	.string	"_ZN9__gnu_cxx14__alloc_traitsISaIdEdE15_S_nothrow_moveEv"
.LASF597:
	.string	"__miter_base<long int const*>"
.LASF478:
	.string	"_ZNSt6vectorIdSaIdEE6resizeEm"
.LASF134:
	.string	"Init"
.LASF870:
	.string	"_ZN9__gnu_cxx17__normal_iteratorIPKdSt6vectorIdSaIdEEEmmEi"
.LASF1124:
	.string	"index_check"
.LASF342:
	.string	"clear"
.LASF869:
	.string	"_ZN9__gnu_cxx17__normal_iteratorIPKdSt6vectorIdSaIdEEEmmEv"
.LASF593:
	.string	"__addressof<double>"
.LASF378:
	.string	"initializer_list<long int>"
.LASF499:
	.string	"_ZNSt6vectorIdSaIdEE6insertEN9__gnu_cxx17__normal_iteratorIPKdS1_EEOd"
.LASF781:
	.string	"_S_select_on_copy"
.LASF698:
	.string	"operator<< <std::char_traits<char> >"
.LASF1191:
	.string	"_ZNSt12_Vector_baseIlSaIlEE17_Vector_impl_dataC2Ev"
.LASF967:
	.string	"int_n_sign_posn"
.LASF1054:
	.string	"_ZN6__pstl9execution2v116sequenced_policy14__allow_vectorEv"
.LASF1136:
	.string	"_ZNSt13runtime_errorD1Ev"
.LASF1224:
	.string	"_ZNSt6vectorIlSaIlEEC2Ev"
.LASF9:
	.string	"fp_offset"
.LASF565:
	.string	"__copy_move_a2<false, long int const*, long int*>"
.LASF1220:
	.string	"__out"
.LASF511:
	.string	"_ZNSt6vectorIdSaIdEE16_M_shrink_to_fitEv"
.LASF899:
	.string	"__uint32_t"
.LASF1256:
	.string	"_ZN9__gnu_cxx3divExx"
.LASF1005:
	.string	"atoll"
.LASF117:
	.string	"not_eof"
.LASF1024:
	.string	"fgetpos"
.LASF178:
	.string	"_M_max_size"
.LASF1196:
	.string	"_ZNSt15__new_allocatorIlEC2Ev"
.LASF815:
	.string	"_ZNK9__gnu_cxx17__normal_iteratorIPlSt6vectorIlSaIlEEEplEl"
.LASF1240:
	.string	"_ZN9container6tensorIdJEED2Ev"
.LASF46:
	.string	"_wide_data"
.LASF1064:
	.string	"_ZN6__pstl9execution2v127parallel_unsequenced_policy16__allow_parallelEv"
.LASF498:
	.string	"_ZNSt6vectorIdSaIdEE6insertEN9__gnu_cxx17__normal_iteratorIPKdS1_EERS4_"
.LASF613:
	.string	"_ZSt14__copy_move_a2ILb1EPKdPdET1_T0_S4_S3_"
.LASF1023:
	.string	"fgetc"
.LASF941:
	.string	"intmax_t"
.LASF1025:
	.string	"fgets"
.LASF650:
	.string	"_ZSt12__niter_baseIPKdSt6vectorIdSaIdEEET_N9__gnu_cxx17__normal_iteratorIS5_T0_EE"
.LASF668:
	.string	"_ZSt12__miter_baseIN9__gnu_cxx17__normal_iteratorIPKdSt6vectorIdSaIdEEEEET_S8_"
.LASF1043:
	.string	"wctype_t"
.LASF88:
	.string	"_ZNSt15__exception_ptr13exception_ptr4swapERS0_"
.LASF636:
	.string	"__copy_move_a1<true, double const*, double*>"
.LASF595:
	.string	"__copy_move_a<false, long int const*, long int*>"
.LASF235:
	.string	"_M_impl"
.LASF438:
	.string	"__type_identity<std::allocator<double> >"
.LASF836:
	.string	"_ZNK9__gnu_cxx17__normal_iteratorIPKlSt6vectorIlSaIlEEEmiEl"
.LASF467:
	.string	"_ZNKSt6vectorIdSaIdEE3endEv"
.LASF953:
	.string	"negative_sign"
.LASF301:
	.string	"resize"
.LASF39:
	.string	"_old_offset"
.LASF988:
	.string	"getenv"
.LASF652:
	.string	"_ZSt15__alloc_on_moveISaIlEEvRT_S2_"
.LASF718:
	.string	"mbsrtowcs"
.LASF87:
	.string	"swap"
.LASF458:
	.string	"_ZNSt6vectorIdSaIdEED4Ev"
.LASF1010:
	.string	"_G_fpos_t"
.LASF462:
	.string	"_ZNSt6vectorIdSaIdEE6assignEmRKd"
.LASF755:
	.string	"wcsncpy"
.LASF1077:
	.string	"_ZN9container6tensorIdJLl2ELl3ELl5EEEC4EOS1_"
.LASF659:
	.string	"__copy_move_a<true, __gnu_cxx::__normal_iterator<double const*, std::vector<double, std::allocator<double> > >, __gnu_cxx::__normal_iterator<double*, std::vector<double, std::allocator<double> > > >"
.LASF435:
	.string	"_ZNSt12_Vector_baseIdSaIdEE11_M_allocateEm"
.LASF839:
	.string	"_ZN9__gnu_cxx14__alloc_traitsISaIdEdE17_S_select_on_copyERKS1_"
.LASF356:
	.string	"_M_insert_rval"
.LASF1125:
	.string	"_ZN9container7details11index_checkEll"
.LASF456:
	.string	"_ZNSt6vectorIdSaIdEEC4EOS1_RKS0_"
.LASF1012:
	.string	"__state"
.LASF460:
	.string	"_ZNSt6vectorIdSaIdEEaSEOS1_"
.LASF1051:
	.string	"__allow_unsequenced"
.LASF97:
	.string	"_ZNSt11char_traitsIcE2ltERKcS2_"
.LASF971:
	.string	"__gnu_debug"
.LASF241:
	.string	"_ZNSt12_Vector_baseIlSaIlEE17_M_create_storageEm"
.LASF576:
	.string	"__iterator_category<double*>"
.LASF175:
	.string	"_ZNSt15__new_allocatorIlE10deallocateEPlm"
.LASF790:
	.string	"_ZN9__gnu_cxx14__alloc_traitsISaIlElE20_S_propagate_on_swapEv"
.LASF892:
	.string	"char16_t"
.LASF232:
	.string	"_ZNSt12_Vector_baseIlSaIlEEC4ERKS0_OS1_"
.LASF34:
	.string	"_IO_save_end"
.LASF531:
	.string	"iterator_traits<double*>"
.LASF58:
	.string	"operator()"
.LASF322:
	.string	"back"
.LASF398:
	.string	"_ZNKSt15__new_allocatorIdE11_M_max_sizeEv"
.LASF1252:
	.string	"_ZNSt12_Destroy_auxILb1EE9__destroyIPdEEvT_S3_"
.LASF821:
	.string	"_ZNK9__gnu_cxx17__normal_iteratorIPlSt6vectorIlSaIlEEE4baseEv"
.LASF1093:
	.string	"_initialize"
.LASF1132:
	.string	"operator delete"
.LASF687:
	.string	"_ZSt8_DestroyIPdEvT_S1_"
.LASF982:
	.string	"atexit"
.LASF872:
	.string	"_ZN9__gnu_cxx17__normal_iteratorIPKdSt6vectorIdSaIdEEEpLEl"
.LASF305:
	.string	"_ZNSt6vectorIlSaIlEE13shrink_to_fitEv"
.LASF164:
	.string	"pointer"
.LASF1221:
	.string	"dim_index"
.LASF547:
	.string	"__copy_move<true, true, std::random_access_iterator_tag>"
.LASF473:
	.string	"_ZNKSt6vectorIdSaIdEE4cendEv"
.LASF299:
	.string	"_ZNKSt6vectorIlSaIlEE4sizeEv"
.LASF1050:
	.string	"sequenced_policy"
.LASF859:
	.string	"_ZN9__gnu_cxx17__normal_iteratorIPdSt6vectorIdSaIdEEEmIEl"
.LASF1157:
	.string	"__lhs"
.LASF1131:
	.string	"__cxa_begin_catch"
.LASF720:
	.string	"putwchar"
.LASF858:
	.string	"_ZNK9__gnu_cxx17__normal_iteratorIPdSt6vectorIdSaIdEEEplEl"
.LASF434:
	.string	"_ZNSt12_Vector_baseIdSaIdEED4Ev"
.LASF544:
	.string	"_IsMove"
.LASF518:
	.string	"_ZNSt6vectorIdSaIdEE8_M_eraseEN9__gnu_cxx17__normal_iteratorIPdS1_EE"
.LASF570:
	.string	"_ZSt13__copy_move_aILb0EN9__gnu_cxx17__normal_iteratorIPKlSt6vectorIlSaIlEEEEPlET1_T0_SA_S9_"
.LASF831:
	.string	"_ZN9__gnu_cxx17__normal_iteratorIPKlSt6vectorIlSaIlEEEmmEi"
.LASF830:
	.string	"_ZN9__gnu_cxx17__normal_iteratorIPKlSt6vectorIlSaIlEEEmmEv"
.LASF403:
	.string	"_ZNSaIdED4Ev"
.LASF509:
	.string	"_ZNSt6vectorIdSaIdEE14_M_fill_insertEN9__gnu_cxx17__normal_iteratorIPdS1_EEmRKd"
.LASF187:
	.string	"~allocator"
.LASF66:
	.string	"__swappable_details"
.LASF623:
	.string	"move<std::allocator<long int>&>"
.LASF238:
	.string	"_M_deallocate"
.LASF368:
	.string	"_M_erase"
.LASF812:
	.string	"operator+="
.LASF131:
	.string	"__destroy<long int*>"
.LASF86:
	.string	"_ZNSt15__exception_ptr13exception_ptrD4Ev"
.LASF1226:
	.string	"_ZNSt12_Vector_baseIlSaIlEE12_Vector_implD2Ev"
.LASF707:
	.string	"wchar_t"
.LASF957:
	.string	"p_sep_by_space"
.LASF242:
	.string	"_Alloc"
.LASF791:
	.string	"_S_always_equal"
.LASF586:
	.string	"_ZSt12__niter_baseIPKlET_S2_"
.LASF579:
	.string	"__niter_wrap<long int*>"
.LASF726:
	.string	"vfwscanf"
.LASF938:
	.string	"uint_fast64_t"
.LASF1159:
	.string	"__alloc"
.LASF1146:
	.string	"__result"
.LASF406:
	.string	"_ZNSt16allocator_traitsISaIdEE8allocateERS0_mPKv"
.LASF886:
	.string	"wcstoull"
.LASF658:
	.string	"_ZSt18uninitialized_copyIPKlPlET0_T_S4_S3_"
.LASF749:
	.string	"tm_isdst"
.LASF307:
	.string	"_ZNKSt6vectorIlSaIlEE8capacityEv"
.LASF956:
	.string	"p_cs_precedes"
.LASF127:
	.string	"equal<long int>"
.LASF205:
	.string	"_ZNSt12_Vector_baseIlSaIlEE17_Vector_impl_dataC4Ev"
.LASF410:
	.string	"_Vector_base<double, std::allocator<double> >"
.LASF81:
	.string	"_ZNSt15__exception_ptr13exception_ptrC4EOS0_"
.LASF616:
	.string	"__distance<__gnu_cxx::__normal_iterator<long int*, std::vector<long int> > >"
.LASF257:
	.string	"_ZNSt6vectorIlSaIlEEC4Ev"
.LASF1249:
	.string	"align_val_t"
.LASF816:
	.string	"operator-="
.LASF803:
	.string	"operator->"
.LASF1115:
	.string	"_ZNK9container6tensorIdJEE3endEv"
.LASF844:
	.string	"_ZN9__gnu_cxx14__alloc_traitsISaIdEdE15_S_always_equalEv"
.LASF295:
	.string	"_ZNKSt6vectorIlSaIlEE7crbeginEv"
.LASF1209:
	.string	"_ZZN9container6tensorIdJLl2ELl3ELl5EEE11_initializeEvENUliE_C4ERKS2_"
.LASF526:
	.string	"iterator_traits<long int*>"
.LASF399:
	.string	"allocator<double>"
.LASF320:
	.string	"_ZNSt6vectorIlSaIlEE5frontEv"
.LASF1246:
	.string	"__int128 unsigned"
.LASF676:
	.string	"_ZSt4moveIN9__gnu_cxx17__normal_iteratorIPKdSt6vectorIdSaIdEEEENS1_IPdS6_EEET0_T_SB_SA_"
.LASF760:
	.string	"wcstok"
.LASF1233:
	.string	"_ZN9container6tensorIdJLl2ELl3ELl5EEEC2Ev"
.LASF1185:
	.string	"_ZN9__gnu_cxx17__normal_iteratorIPlSt6vectorIlSaIlEEEC2ERKS1_"
.LASF891:
	.string	"short int"
.LASF524:
	.string	"reverse_iterator<__gnu_cxx::__normal_iterator<double const*, std::vector<double, std::allocator<double> > > >"
.LASF159:
	.string	"_ZNSt15__new_allocatorIlEC4Ev"
.LASF1109:
	.string	"_ZN9container6tensorIdJEED4Ev"
.LASF239:
	.string	"_ZNSt12_Vector_baseIlSaIlEE13_M_deallocateEPlm"
.LASF692:
	.string	"distance<long int const*>"
.LASF504:
	.string	"_ZNSt6vectorIdSaIdEE4swapERS1_"
.LASF556:
	.string	"_ZNSt13runtime_errorC4EPKc"
.LASF453:
	.string	"_ZNSt6vectorIdSaIdEEC4ERKS1_RKS0_"
.LASF629:
	.string	"_Allocator"
.LASF404:
	.string	"allocator_traits<std::allocator<double> >"
.LASF970:
	.string	"localeconv"
.LASF459:
	.string	"_ZNSt6vectorIdSaIdEEaSERKS1_"
.LASF1089:
	.string	"_ZNKSt16initializer_listIlE3endEv"
.LASF314:
	.string	"_ZNKSt6vectorIlSaIlEEixEm"
.LASF35:
	.string	"_markers"
.LASF488:
	.string	"_ZNKSt6vectorIdSaIdEE2atEm"
.LASF37:
	.string	"_fileno"
.LASF57:
	.string	"operator std::integral_constant<bool, false>::value_type"
.LASF906:
	.string	"__int_least32_t"
.LASF1141:
	.string	"__priority"
.LASF201:
	.string	"_Vector_impl_data"
.LASF384:
	.string	"_ZNKSt16initializer_listIlE4sizeEv"
.LASF860:
	.string	"_ZNK9__gnu_cxx17__normal_iteratorIPdSt6vectorIdSaIdEEEmiEl"
.LASF227:
	.string	"_ZNSt12_Vector_baseIlSaIlEEC4Em"
.LASF1151:
	.string	"__num"
.LASF225:
	.string	"_ZNSt12_Vector_baseIlSaIlEEC4Ev"
.LASF866:
	.string	"_ZNK9__gnu_cxx17__normal_iteratorIPKdSt6vectorIdSaIdEEEptEv"
.LASF618:
	.string	"_RandomAccessIterator"
.LASF1213:
	.string	"__closure"
.LASF102:
	.string	"find"
.LASF1055:
	.string	"__allow_parallel"
.LASF351:
	.string	"_ZNSt6vectorIlSaIlEE14_M_fill_insertEN9__gnu_cxx17__normal_iteratorIPlS1_EEmRKl"
.LASF914:
	.string	"__ssize_t"
.LASF925:
	.string	"int_least32_t"
.LASF514:
	.string	"_ZNKSt6vectorIdSaIdEE12_M_check_lenEmPKc"
.LASF1140:
	.string	"__initialize_p"
.LASF264:
	.string	"_ZNSt6vectorIlSaIlEEC4EOS1_RKS0_St17integral_constantIbLb1EE"
.LASF762:
	.string	"long int"
.LASF262:
	.string	"_ZNSt6vectorIlSaIlEEC4EOS1_"
.LASF1096:
	.string	"_ZN9container6tensorIdJLl2ELl3ELl5EEE26_diff_type_move_initializeIJEEEvONS0_IdJXspT_EEEE"
.LASF898:
	.string	"__int32_t"
.LASF768:
	.string	"wmemmove"
.LASF1179:
	.string	"_ZN9__gnu_cxx17__normal_iteratorIPdSt6vectorIdSaIdEEEC2ERKS1_"
.LASF653:
	.string	"__uninitialized_copy_a<__gnu_cxx::__normal_iterator<long int const*, std::vector<long int> >, long int*, long int>"
.LASF648:
	.string	"_ZSt12__niter_baseIPdSt6vectorIdSaIdEEET_N9__gnu_cxx17__normal_iteratorIS4_T0_EE"
.LASF194:
	.string	"_ZNSt11char_traitsIcE6assignERcRKc"
.LASF817:
	.string	"_ZN9__gnu_cxx17__normal_iteratorIPlSt6vectorIlSaIlEEEmIEl"
.LASF1206:
	.string	"size_1d"
.LASF778:
	.string	"__gnu_cxx"
.LASF326:
	.string	"_ZNSt6vectorIlSaIlEE4dataEv"
.LASF932:
	.string	"int_fast16_t"
.LASF783:
	.string	"_S_on_swap"
.LASF1052:
	.string	"__allow_vector"
.LASF207:
	.string	"_M_copy_data"
.LASF805:
	.string	"operator++"
.LASF1079:
	.string	"_ZN9container6tensorIdJLl2ELl3ELl5EEEaSEOS1_"
.LASF348:
	.string	"_M_fill_assign"
.LASF1194:
	.string	"__in_chrg"
.LASF255:
	.string	"_ZNSt6vectorIlSaIlEE11_S_relocateEPlS2_S2_RS0_"
.LASF1214:
	.string	"_ZNSt6vectorIlSaIlEEC2ESt16initializer_listIlERKS0_"
.LASF993:
	.string	"__destroy<double*>"
.LASF337:
	.string	"_ZNSt6vectorIlSaIlEE6insertEN9__gnu_cxx17__normal_iteratorIPKlS1_EEmRS4_"
.LASF27:
	.string	"_IO_write_base"
.LASF443:
	.string	"_ZNSt6vectorIdSaIdEE15_S_use_relocateEv"
.LASF1133:
	.string	"_ZdlPvm"
.LASF266:
	.string	"_ZNSt6vectorIlSaIlEEC4EOS1_RKS0_"
.LASF103:
	.string	"_ZNSt11char_traitsIcE4findEPKcmRS1_"
.LASF1127:
	.string	"auto"
.LASF179:
	.string	"_ZNKSt15__new_allocatorIlE11_M_max_sizeEv"
.LASF1107:
	.string	"_ZN9container6tensorIdJEEaSERKS1_"
.LASF645:
	.string	"__copy_move_a1<false, double const*, double*>"
.LASF1068:
	.string	"_ZN6__pstl9execution2v118unsequenced_policy16__allow_parallelEv"
.LASF273:
	.string	"_ZNSt6vectorIlSaIlEE6assignEmRKl"
.LASF55:
	.string	"integral_constant<bool, false>"
.LASF1200:
	.string	"rhs_tensor"
.LASF557:
	.string	"__fill_a1<double*, double>"
.LASF330:
	.string	"_ZNSt6vectorIlSaIlEE9push_backEOl"
.LASF115:
	.string	"eq_int_type"
.LASF519:
	.string	"_ZNSt6vectorIdSaIdEE8_M_eraseEN9__gnu_cxx17__normal_iteratorIPdS1_EES5_"
.LASF916:
	.string	"int16_t"
.LASF1011:
	.string	"__pos"
.LASF163:
	.string	"__ostream_type"
.LASF421:
	.string	"_ZNSt12_Vector_baseIlSaIlEE12_Vector_implD4Ev"
.LASF628:
	.string	"_ZSt12__relocate_aIPdS0_SaIdEET0_T_S3_S2_RT1_"
.LASF1182:
	.string	"__size"
.LASF216:
	.string	"_ZNSt12_Vector_baseIlSaIlEE12_Vector_implC4EOS0_"
.LASF1101:
	.string	"_ZN9container6tensorIdJLl2ELl3ELl5EEEclIJiiiEEERdDpT_"
.LASF246:
	.string	"vector<long int, std::allocator<long int> >"
.LASF1019:
	.string	"fclose"
.LASF686:
	.string	"_Destroy<double*>"
.LASF339:
	.string	"_ZNSt6vectorIlSaIlEE5eraseEN9__gnu_cxx17__normal_iteratorIPKlS1_EE"
.LASF620:
	.string	"_ZSt19__iterator_categoryIN9__gnu_cxx17__normal_iteratorIPlSt6vectorIlSaIlEEEEENSt15iterator_traitsIT_E17iterator_categoryERKS8_"
.LASF876:
	.string	"_ZNK9__gnu_cxx17__normal_iteratorIPKdSt6vectorIdSaIdEEE4baseEv"
.LASF412:
	.string	"_ZNSt12_Vector_baseIdSaIdEE17_Vector_impl_dataC4EOS2_"
.LASF789:
	.string	"_S_propagate_on_swap"
.LASF808:
	.string	"operator--"
.LASF417:
	.string	"_ZNSt12_Vector_baseIdSaIdEE12_Vector_implC4EOS2_"
.LASF1038:
	.string	"setbuf"
.LASF934:
	.string	"int_fast64_t"
.LASF1152:
	.string	"__res"
.LASF1003:
	.string	"wctomb"
.LASF1244:
	.string	"_ZnwmPv"
.LASF371:
	.string	"_M_move_assign"
.LASF340:
	.string	"_ZNSt6vectorIlSaIlEE5eraseEN9__gnu_cxx17__normal_iteratorIPKlS1_EES6_"
.LASF240:
	.string	"_M_create_storage"
.LASF1075:
	.string	"_ZN9container6tensorIdJLl2ELl3ELl5EEEC4Ev"
.LASF158:
	.string	"__new_allocator"
.LASF1095:
	.string	"_diff_type_move_initialize<>"
.LASF40:
	.string	"_cur_column"
.LASF679:
	.string	"_ZSt4moveISt6vectorIlSaIlEEEONSt16remove_referenceIT_E4typeEOS4_"
.LASF516:
	.string	"_ZNSt6vectorIdSaIdEE11_S_max_sizeERKS0_"
.LASF112:
	.string	"int_type"
.LASF1149:
	.string	"__first1"
.LASF1150:
	.string	"__first2"
.LASF367:
	.string	"_ZNSt6vectorIlSaIlEE15_M_erase_at_endEPl"
.LASF84:
	.string	"_ZNSt15__exception_ptr13exception_ptraSEOS0_"
.LASF308:
	.string	"empty"
.LASF156:
	.string	"_TrivialValueType"
.LASF1153:
	.string	"__last1"
.LASF1174:
	.string	"__last2"
.LASF663:
	.string	"move<std::_Vector_base<long int, std::allocator<long int> >::_Vector_impl&>"
.LASF561:
	.string	"_Container"
.LASF862:
	.string	"__normal_iterator<double const*, std::vector<double, std::allocator<double> > >"
.LASF819:
	.string	"_ZNK9__gnu_cxx17__normal_iteratorIPlSt6vectorIlSaIlEEEmiEl"
.LASF951:
	.string	"mon_grouping"
.LASF245:
	.string	"_Type"
.LASF573:
	.string	"__fill_n_a<double*, long unsigned int, double>"
.LASF309:
	.string	"_ZNKSt6vectorIlSaIlEE5emptyEv"
.LASF777:
	.string	"wmemchr"
.LASF1137:
	.string	"__cxa_throw"
.LASF827:
	.string	"_ZNK9__gnu_cxx17__normal_iteratorIPKlSt6vectorIlSaIlEEEptEv"
.LASF1251:
	.string	"input_iterator_tag"
.LASF990:
	.string	"mblen"
.LASF746:
	.string	"tm_year"
.LASF864:
	.string	"_ZN9__gnu_cxx17__normal_iteratorIPKdSt6vectorIdSaIdEEEC4ERKS2_"
.LASF1158:
	.string	"__rhs"
.LASF978:
	.string	"7lldiv_t"
.LASF694:
	.string	"_Destroy<long int*, long int>"
.LASF113:
	.string	"to_int_type"
.LASF142:
	.string	"operator<<"
.LASF122:
	.string	"forward_iterator_tag"
.LASF1247:
	.string	"GNU C++17 12.2.0 -mtune=generic -march=x86-64 -g -std=c++17 -fasynchronous-unwind-tables"
.LASF1234:
	.string	"_ZNSt6vectorIdSaIdEEC2Ev"
.LASF407:
	.string	"_ZNSt16allocator_traitsISaIdEE10deallocateERS0_Pdm"
.LASF79:
	.string	"_ZNSt15__exception_ptr13exception_ptrC4ERKS0_"
.LASF609:
	.string	"_ZSt12__niter_baseIPdET_S1_"
.LASF1007:
	.string	"strtoull"
.LASF376:
	.string	"_Traits"
.LASF581:
	.string	"__copy_move_a1<false, long int const*, long int*>"
.LASF431:
	.string	"_ZNSt12_Vector_baseIdSaIdEEC4EOS0_"
.LASF913:
	.string	"__off64_t"
.LASF758:
	.string	"wcstod"
.LASF65:
	.string	"false_type"
.LASF759:
	.string	"wcstof"
.LASF747:
	.string	"tm_wday"
.LASF761:
	.string	"wcstol"
.LASF284:
	.string	"_ZNSt6vectorIlSaIlEE6rbeginEv"
.LASF366:
	.string	"_M_erase_at_end"
.LASF150:
	.string	"_ZNSt20__uninitialized_copyILb1EE13__uninit_copyIPKlPlEET0_T_S6_S5_"
.LASF688:
	.string	"for_each<__gnu_cxx::__normal_iterator<long int*, std::vector<long int> >, container::tensor<double, 2, 3, 5>::_initialize()::<lambda(int)> >"
.LASF318:
	.string	"_ZNKSt6vectorIlSaIlEE2atEm"
.LASF1197:
	.string	"_ZNSt15__new_allocatorIdED2Ev"
.LASF75:
	.string	"_ZNSt15__exception_ptr13exception_ptr10_M_releaseEv"
.LASF632:
	.string	"__uninitialized_default_n<double*, long unsigned int>"
.LASF890:
	.string	"signed char"
.LASF670:
	.string	"_ZSt22__uninitialized_copy_aIPKlPllET0_T_S4_S3_RSaIT1_E"
.LASF1066:
	.string	"_ZN6__pstl9execution2v118unsequenced_policy19__allow_unsequencedEv"
.LASF430:
	.string	"_ZNSt12_Vector_baseIdSaIdEEC4EOS1_"
.LASF1034:
	.string	"perror"
.LASF388:
	.string	"reverse_iterator<__gnu_cxx::__normal_iterator<long int const*, std::vector<long int, std::allocator<long int> > > >"
.LASF1178:
	.string	"_ZNSaIlEC2ERKS_"
.LASF389:
	.string	"__new_allocator<double>"
.LASF1229:
	.string	"index_1d"
.LASF332:
	.string	"_ZNSt6vectorIlSaIlEE8pop_backEv"
.LASF671:
	.string	"__distance<long int const*>"
.LASF139:
	.string	"_ZNSt8ios_base4InitaSERKS0_"
.LASF470:
	.string	"_ZNSt6vectorIdSaIdEE4rendEv"
.LASF843:
	.string	"_ZN9__gnu_cxx14__alloc_traitsISaIdEdE20_S_propagate_on_swapEv"
.LASF1058:
	.string	"_ZN6__pstl9execution2v115parallel_policy19__allow_unsequencedEv"
.LASF733:
	.string	"__isoc99_vwscanf"
.LASF704:
	.string	"btowc"
.LASF128:
	.string	"_ZNSt7__equalILb1EE5equalIlEEbPKT_S4_S4_"
.LASF568:
	.string	"_ZSt8__memcmpIllEiPKT_PKT0_m"
.LASF1119:
	.string	"tensor<2, 3, 5>"
.LASF197:
	.string	"select_on_container_copy_construction"
.LASF439:
	.string	"vector<double, std::allocator<double> >"
.LASF74:
	.string	"_ZNSt15__exception_ptr13exception_ptr9_M_addrefEv"
.LASF766:
	.string	"wmemcmp"
.LASF785:
	.string	"_S_propagate_on_copy_assign"
.LASF901:
	.string	"__uint64_t"
.LASF1223:
	.string	"_ZN9container6tensorIdJEEC2IJLl2ELl3ELl5EEEERKNS0_IdJXspT_EEEE"
.LASF176:
	.string	"max_size"
.LASF601:
	.string	"_II1"
.LASF602:
	.string	"_II2"
.LASF136:
	.string	"_ZNSt8ios_base4InitC4Ev"
.LASF1235:
	.string	"_ZNSt12_Vector_baseIdSaIdEEC2Ev"
.LASF143:
	.string	"_ZNSolsEl"
.LASF94:
	.string	"char_traits<char>"
.LASF315:
	.string	"_M_range_check"
.LASF633:
	.string	"_ZSt25__uninitialized_default_nIPdmET_S1_T0_"
.LASF1076:
	.string	"_ZN9container6tensorIdJLl2ELl3ELl5EEEC4ERKS1_"
.LASF195:
	.string	"_ZNSt16allocator_traitsISaIlEE10deallocateERS0_Plm"
.LASF271:
	.string	"_ZNSt6vectorIlSaIlEEaSEOS1_"
.LASF685:
	.string	"_ZSt8_DestroyIPlEvT_S1_"
.LASF1199:
	.string	"_ZNSaIdEC2Ev"
.LASF1102:
	.string	"data_type"
.LASF874:
	.string	"_ZN9__gnu_cxx17__normal_iteratorIPKdSt6vectorIdSaIdEEEmIEl"
.LASF208:
	.string	"_ZNSt12_Vector_baseIlSaIlEE17_Vector_impl_data12_M_copy_dataERKS2_"
.LASF414:
	.string	"_ZNSt12_Vector_baseIdSaIdEE17_Vector_impl_data12_M_swap_dataERS2_"
.LASF455:
	.string	"_ZNSt6vectorIdSaIdEEC4EOS1_RKS0_St17integral_constantIbLb0EE"
.LASF1198:
	.string	"_ZNSt12_Vector_baseIdSaIdEE17_Vector_impl_dataC2Ev"
.LASF277:
	.string	"_ZNSt6vectorIlSaIlEE5beginEv"
.LASF796:
	.string	"other"
.LASF566:
	.string	"_ZSt14__copy_move_a2ILb0EPKlPlET1_T0_S4_S3_"
.LASF615:
	.string	"_ZSt11__equal_auxIN9__gnu_cxx17__normal_iteratorIPlSt6vectorIlSaIlEEEES6_EbT_S7_T0_"
.LASF1261:
	.string	"_GLOBAL__sub_I__ZN9container7details11index_checkEll"
.LASF920:
	.string	"uint16_t"
.LASF515:
	.string	"_ZNSt6vectorIdSaIdEE17_S_check_init_lenEmRKS0_"
.LASF1041:
	.string	"tmpnam"
.LASF1116:
	.string	"_ZN9container6tensorIdJEE11_initializeEv"
.LASF283:
	.string	"rbegin"
.LASF627:
	.string	"__relocate_a<double*, double*, std::allocator<double> >"
.LASF887:
	.string	"long long unsigned int"
.LASF787:
	.string	"_S_propagate_on_move_assign"
.LASF767:
	.string	"wmemcpy"
.LASF425:
	.string	"_ZNKSt12_Vector_baseIdSaIdEE13get_allocatorEv"
.LASF420:
	.string	"~_Vector_impl"
.LASF293:
	.string	"_ZNKSt6vectorIlSaIlEE4cendEv"
.LASF106:
	.string	"copy"
.LASF1001:
	.string	"system"
.LASF865:
	.string	"_ZNK9__gnu_cxx17__normal_iteratorIPKdSt6vectorIdSaIdEEEdeEv"
.LASF540:
	.string	"__copy_m<long int>"
.LASF358:
	.string	"_M_emplace_aux"
.LASF154:
	.string	"_ZNSt27__uninitialized_default_n_1ILb1EE18__uninit_default_nIPdmEET_S3_T0_"
.LASF795:
	.string	"rebind<long int>"
.LASF468:
	.string	"_ZNSt6vectorIdSaIdEE6rbeginEv"
.LASF109:
	.string	"_ZNSt11char_traitsIcE6assignEPcmc"
.LASF801:
	.string	"operator*"
.LASF814:
	.string	"operator+"
.LASF818:
	.string	"operator-"
.LASF871:
	.string	"_ZNK9__gnu_cxx17__normal_iteratorIPKdSt6vectorIdSaIdEEEixEl"
.LASF316:
	.string	"_ZNKSt6vectorIlSaIlEE14_M_range_checkEm"
.LASF1056:
	.string	"_ZN6__pstl9execution2v116sequenced_policy16__allow_parallelEv"
.LASF975:
	.string	"div_t"
.LASF82:
	.string	"operator="
.LASF1031:
	.string	"ftell"
.LASF62:
	.string	"operator std::integral_constant<bool, true>::value_type"
.LASF258:
	.string	"_ZNSt6vectorIlSaIlEEC4ERKS0_"
.LASF893:
	.string	"char32_t"
.LASF996:
	.string	"rand"
.LASF677:
	.string	"_ZSt5equalIN9__gnu_cxx17__normal_iteratorIPlSt6vectorIlSaIlEEEES6_EbT_S7_T0_S8_"
.LASF198:
	.string	"_ZNSt16allocator_traitsISaIlEE37select_on_container_copy_constructionERKS0_"
.LASF525:
	.string	"remove_reference<container::tensor<double>&>"
.LASF667:
	.string	"__miter_base<__gnu_cxx::__normal_iterator<double const*, std::vector<double, std::allocator<double> > > >"
.LASF261:
	.string	"_ZNSt6vectorIlSaIlEEC4ERKS1_"
.LASF442:
	.string	"_ZNSt6vectorIlSaIlEE15_S_use_relocateEv"
.LASF644:
	.string	"_From"
.LASF446:
	.string	"_ZNSt6vectorIdSaIdEE11_S_relocateEPdS2_S2_RS0_"
.LASF253:
	.string	"_ZNSt6vectorIlSaIlEE14_S_do_relocateEPlS2_S2_RS0_St17integral_constantIbLb0EE"
.LASF1067:
	.string	"_ZN6__pstl9execution2v118unsequenced_policy14__allow_vectorEv"
.LASF1173:
	.string	"_ZNSt12_Vector_baseIlSaIlEEC2EmRKS0_"
.LASF341:
	.string	"_ZNSt6vectorIlSaIlEE4swapERS1_"
.LASF362:
	.string	"_S_check_init_len"
.LASF146:
	.string	"__uninit_copy<__gnu_cxx::__normal_iterator<long int const*, std::vector<long int> >, long int*>"
.LASF215:
	.string	"_ZNSt12_Vector_baseIlSaIlEE12_Vector_implC4EOS2_"
.LASF173:
	.string	"size_type"
.LASF2:
	.string	"__unknown__"
.LASF413:
	.string	"_ZNSt12_Vector_baseIdSaIdEE17_Vector_impl_data12_M_copy_dataERKS2_"
.LASF851:
	.string	"_ZNK9__gnu_cxx17__normal_iteratorIPdSt6vectorIdSaIdEEEptEv"
.LASF820:
	.string	"base"
.LASF52:
	.string	"FILE"
.LASF655:
	.string	"__uninitialized_default_n_a<double*, long unsigned int, double>"
.LASF447:
	.string	"_ZNSt6vectorIdSaIdEEC4Ev"
.LASF210:
	.string	"_ZNSt12_Destroy_auxILb1EE9__destroyIPlEEvT_S3_"
.LASF905:
	.string	"__uint_least16_t"
.LASF1160:
	.string	"__dso_handle"
.LASF221:
	.string	"_ZNKSt12_Vector_baseIlSaIlEE19_M_get_Tp_allocatorEv"
.LASF691:
	.string	"_Funct"
.LASF622:
	.string	"_ZSt14__copy_move_a2ILb0EPKdPdET1_T0_S4_S3_"
.LASF450:
	.string	"_ZNSt6vectorIdSaIdEEC4EmRKdRKS0_"
.LASF591:
	.string	"_Construct<double>"
.LASF19:
	.string	"char"
.LASF1069:
	.string	"cout"
.LASF489:
	.string	"_ZNSt6vectorIdSaIdEE5frontEv"
.LASF549:
	.string	"__throw_bad_alloc"
.LASF1045:
	.string	"iswctype"
.LASF1128:
	.string	"_ZNSt8ios_base4InitD1Ev"
.LASF181:
	.string	"allocator"
.LASF527:
	.string	"iterator_category"
.LASF1027:
	.string	"fread"
.LASF345:
	.string	"_ZNSt6vectorIlSaIlEE18_M_fill_initializeEmRKl"
.LASF750:
	.string	"tm_gmtoff"
.LASF559:
	.string	"__niter_base<long int const*, std::vector<long int> >"
.LASF641:
	.string	"_ZSt8distanceIN9__gnu_cxx17__normal_iteratorIPlSt6vectorIlSaIlEEEEENSt15iterator_traitsIT_E15difference_typeES8_S8_"
.LASF1097:
	.string	"tensor<>"
.LASF151:
	.string	"_TrivialValueTypes"
.LASF732:
	.string	"vwscanf"
.LASF116:
	.string	"_ZNSt11char_traitsIcE11eq_int_typeERKiS2_"
.LASF365:
	.string	"_ZNSt6vectorIlSaIlEE11_S_max_sizeERKS0_"
.LASF111:
	.string	"_ZNSt11char_traitsIcE12to_char_typeERKi"
.LASF200:
	.string	"_Vector_base<long int, std::allocator<long int> >"
.LASF222:
	.string	"get_allocator"
.LASF575:
	.string	"_OutputIterator"
.LASF626:
	.string	"_ZSt18uninitialized_copyIN9__gnu_cxx17__normal_iteratorIPKlSt6vectorIlSaIlEEEEPlET0_T_SA_S9_"
.LASF485:
	.string	"_ZNKSt6vectorIdSaIdEEixEm"
.LASF1222:
	.string	"_ZN9container6tensorIdJLl2ELl3ELl5EEEC2IJEEEONS0_IdJXspT_EEEE"
.LASF933:
	.string	"int_fast32_t"
.LASF835:
	.string	"_ZN9__gnu_cxx17__normal_iteratorIPKlSt6vectorIlSaIlEEEmIEl"
.LASF1113:
	.string	"_ZNK9container6tensorIdJEE5shapeEl"
.LASF157:
	.string	"__new_allocator<long int>"
.LASF1112:
	.string	"_ZNK9container6tensorIdJEE5shapeEv"
.LASF1080:
	.string	"~tensor"
.LASF610:
	.string	"copy<long int const*, long int*>"
.LASF643:
	.string	"_ZSt12__niter_wrapIN9__gnu_cxx17__normal_iteratorIPdSt6vectorIdSaIdEEEES2_ET_S7_T0_"
.LASF1162:
	.string	"__val"
.LASF391:
	.string	"_ZNSt15__new_allocatorIdEC4ERKS0_"
.LASF928:
	.string	"uint_least16_t"
.LASF428:
	.string	"_ZNSt12_Vector_baseIdSaIdEEC4Em"
.LASF1145:
	.string	"__tmp"
.LASF426:
	.string	"_ZNSt12_Vector_baseIdSaIdEEC4Ev"
.LASF1192:
	.string	"__new_size"
.LASF319:
	.string	"front"
.LASF333:
	.string	"insert"
.LASF784:
	.string	"_ZN9__gnu_cxx14__alloc_traitsISaIlElE10_S_on_swapERS1_S3_"
.LASF400:
	.string	"_ZNSaIdEC4Ev"
.LASF325:
	.string	"data"
.LASF90:
	.string	"_ZNKSt15__exception_ptr13exception_ptr20__cxa_exception_typeEv"
.LASF78:
	.string	"_ZNSt15__exception_ptr13exception_ptrC4Ev"
.LASF716:
	.string	"mbrtowc"
.LASF411:
	.string	"_ZNSt12_Vector_baseIdSaIdEE17_Vector_impl_dataC4Ev"
.LASF249:
	.string	"_ZNSt6vectorIlSaIlEE19_S_nothrow_relocateESt17integral_constantIbLb0EE"
.LASF1073:
	.string	"tensor<double, 2, 3, 5>"
.LASF1147:
	.string	"_Num"
.LASF949:
	.string	"mon_decimal_point"
.LASF96:
	.string	"_ZNSt11char_traitsIcE2eqERKcS2_"
.LASF1111:
	.string	"_ZNK9container6tensorIdJEE4sizeEv"
.LASF36:
	.string	"_chain"
.LASF1248:
	.string	"typedef __va_list_tag __va_list_tag"
.LASF344:
	.string	"_M_fill_initialize"
.LASF981:
	.string	"__compar_fn_t"
.LASF477:
	.string	"_ZNKSt6vectorIdSaIdEE8max_sizeEv"
.LASF786:
	.string	"_ZN9__gnu_cxx14__alloc_traitsISaIlElE27_S_propagate_on_copy_assignEv"
.LASF1258:
	.string	"__cxa_end_catch"
.LASF634:
	.string	"min<long unsigned int>"
.LASF1100:
	.string	"operator()<int, int, int>"
.LASF1017:
	.string	"fpos_t"
.LASF823:
	.string	"_M_current"
.LASF902:
	.string	"__int_least8_t"
.LASF832:
	.string	"_ZNK9__gnu_cxx17__normal_iteratorIPKlSt6vectorIlSaIlEEEixEl"
.LASF281:
	.string	"_ZNKSt6vectorIlSaIlEE3endEv"
.LASF10:
	.string	"overflow_arg_area"
.LASF11:
	.string	"reg_save_area"
.LASF908:
	.string	"__int_least64_t"
.LASF1009:
	.string	"strtold"
.LASF1006:
	.string	"strtoll"
.LASF408:
	.string	"_ZNSt16allocator_traitsISaIdEE8max_sizeERKS0_"
.LASF532:
	.string	"remove_reference<std::vector<long int, std::allocator<long int> > >"
.LASF711:
	.string	"fwprintf"
.LASF1180:
	.string	"_ZN9__gnu_cxx17__normal_iteratorIPKdSt6vectorIdSaIdEEEC2ERKS2_"
.LASF1237:
	.string	"main"
.LASF841:
	.string	"_ZN9__gnu_cxx14__alloc_traitsISaIdEdE27_S_propagate_on_copy_assignEv"
.LASF85:
	.string	"~exception_ptr"
.LASF1104:
	.string	"_ZN9container6tensorIdJEEC4Ev"
.LASF926:
	.string	"int_least64_t"
.LASF954:
	.string	"int_frac_digits"
.LASF598:
	.string	"_ZSt12__miter_baseIPKlET_S2_"
.LASF1039:
	.string	"setvbuf"
.LASF47:
	.string	"_freeres_list"
.LASF804:
	.string	"_ZNK9__gnu_cxx17__normal_iteratorIPlSt6vectorIlSaIlEEEptEv"
.LASF1070:
	.string	"par_unseq"
.LASF900:
	.string	"__int64_t"
.LASF440:
	.string	"_ZNSt6vectorIdSaIdEE19_S_nothrow_relocateESt17integral_constantIbLb1EE"
.LASF486:
	.string	"_ZNKSt6vectorIdSaIdEE14_M_range_checkEm"
.LASF1230:
	.string	"current_dim"
.LASF962:
	.string	"int_p_cs_precedes"
.LASF838:
	.string	"__alloc_traits<std::allocator<double>, double>"
.LASF1183:
	.string	"__navail"
.LASF770:
	.string	"wprintf"
.LASF54:
	.string	"_IO_FILE"
.LASF664:
	.string	"_ZSt4moveIRNSt12_Vector_baseIlSaIlEE12_Vector_implEEONSt16remove_referenceIT_E4typeEOS6_"
.LASF1236:
	.string	"_ZNSt12_Vector_baseIdSaIdEE12_Vector_implD2Ev"
.LASF120:
	.string	"ptrdiff_t"
.LASF666:
	.string	"_ZSt13__copy_move_aILb0EN9__gnu_cxx17__normal_iteratorIPKdSt6vectorIdSaIdEEEENS1_IPdS6_EEET1_T0_SB_SA_"
.LASF800:
	.string	"_ZN9__gnu_cxx17__normal_iteratorIPlSt6vectorIlSaIlEEEC4ERKS1_"
.LASF537:
	.string	"_Iterator"
.LASF8:
	.string	"gp_offset"
.LASF296:
	.string	"crend"
.LASF903:
	.string	"__uint_least8_t"
.LASF1189:
	.string	"__can_fill"
.LASF562:
	.string	"__fill_a<double*, double>"
.LASF980:
	.string	"ssize_t"
.LASF1238:
	.string	"argc"
.LASF502:
	.string	"_ZNSt6vectorIdSaIdEE5eraseEN9__gnu_cxx17__normal_iteratorIPKdS1_EE"
.LASF1021:
	.string	"ferror"
.LASF672:
	.string	"_ZSt10__distanceIPKlENSt15iterator_traitsIT_E15difference_typeES3_S3_St26random_access_iterator_tag"
.LASF354:
	.string	"_M_shrink_to_fit"
.LASF1053:
	.string	"_ZN6__pstl9execution2v116sequenced_policy19__allow_unsequencedEv"
.LASF1239:
	.string	"argv"
.LASF114:
	.string	"_ZNSt11char_traitsIcE11to_int_typeERKc"
.LASF725:
	.string	"vfwprintf"
.LASF513:
	.string	"_ZNSt6vectorIdSaIdEE14_M_emplace_auxEN9__gnu_cxx17__normal_iteratorIPKdS1_EEOd"
.LASF585:
	.string	"__niter_base<long int const*>"
.LASF917:
	.string	"int32_t"
.LASF621:
	.string	"__copy_move_a2<false, double const*, double*>"
.LASF99:
	.string	"length"
.LASF931:
	.string	"int_fast8_t"
.LASF775:
	.string	"wcsrchr"
.LASF708:
	.string	"fputwc"
.LASF915:
	.string	"int8_t"
.LASF709:
	.string	"fputws"
.LASF656:
	.string	"_ZSt27__uninitialized_default_n_aIPdmdET_S1_T0_RSaIT1_E"
.LASF21:
	.string	"mbstate_t"
.LASF480:
	.string	"_ZNSt6vectorIdSaIdEE13shrink_to_fitEv"
.LASF529:
	.string	"remove_reference<std::vector<long int, std::allocator<long int> >&>"
.LASF14:
	.string	"wint_t"
.LASF1044:
	.string	"wctrans_t"
.LASF555:
	.string	"runtime_error"
.LASF494:
	.string	"_ZNKSt6vectorIdSaIdEE4dataEv"
.LASF1062:
	.string	"_ZN6__pstl9execution2v127parallel_unsequenced_policy19__allow_unsequencedEv"
.LASF297:
	.string	"_ZNKSt6vectorIlSaIlEE5crendEv"
.LASF678:
	.string	"move<std::vector<long int> >"
.LASF625:
	.string	"uninitialized_copy<__gnu_cxx::__normal_iterator<long int const*, std::vector<long int> >, long int*>"
.LASF1171:
	.string	"__two"
.LASF512:
	.string	"_ZNSt6vectorIdSaIdEE14_M_insert_rvalEN9__gnu_cxx17__normal_iteratorIPKdS1_EEOd"
.LASF12:
	.string	"unsigned int"
.LASF521:
	.string	"_ZNSt6vectorIdSaIdEE14_M_move_assignEOS1_St17integral_constantIbLb0EE"
.LASF282:
	.string	"reverse_iterator"
.LASF482:
	.string	"_ZNKSt6vectorIdSaIdEE5emptyEv"
.LASF130:
	.string	"_Destroy_aux<true>"
.LASF987:
	.string	"bsearch"
	.section	.debug_line_str,"MS",@progbits,1
.LASF1:
	.string	"/home/xunililak/Code/Projects/10-Tensor"
.LASF0:
	.string	"Application.cpp"
	.hidden	DW.ref.__gxx_personality_v0
	.weak	DW.ref.__gxx_personality_v0
	.section	.data.rel.local.DW.ref.__gxx_personality_v0,"awG",@progbits,DW.ref.__gxx_personality_v0,comdat
	.align 8
	.type	DW.ref.__gxx_personality_v0, @object
	.size	DW.ref.__gxx_personality_v0, 8
DW.ref.__gxx_personality_v0:
	.quad	__gxx_personality_v0
	.hidden	__dso_handle
	.ident	"GCC: (Debian 12.2.0-3) 12.2.0"
	.section	.note.GNU-stack,"",@progbits
