	.file	"Application.cpp"
# GNU C++17 (Debian 12.2.0-3) version 12.2.0 (x86_64-linux-gnu)
#	compiled by GNU C version 12.2.0, GMP version 6.2.1, MPFR version 4.1.0, MPC version 1.2.1, isl version isl-0.25-GMP

# GGC heuristics: --param ggc-min-expand=100 --param ggc-min-heapsize=131072
# options passed: -mtune=generic -march=x86-64 -g -std=c++17 -fasynchronous-unwind-tables
	.text
.Ltext0:
	.file 0 "/home/xunililak/Code/Projects/10-Tensor" "Application.cpp"
	.section	.text._ZnwmPv,"axG",@progbits,_ZnwmPv,comdat
	.weak	_ZnwmPv
	.type	_ZnwmPv, @function
_ZnwmPv:
.LFB40:
	.file 1 "/usr/include/c++/12/new"
	.loc 1 175 1
	.cfi_startproc
	pushq	%rbp	#
	.cfi_def_cfa_offset 16
	.cfi_offset 6, -16
	movq	%rsp, %rbp	#,
	.cfi_def_cfa_register 6
	movq	%rdi, -8(%rbp)	# D.3371, D.3371
	movq	%rsi, -16(%rbp)	# __p, __p
# /usr/include/c++/12/new:175: { return __p; }
	.loc 1 175 10
	movq	-16(%rbp), %rax	# __p, _2
# /usr/include/c++/12/new:175: { return __p; }
	.loc 1 175 15
	popq	%rbp	#
	.cfi_def_cfa 7, 8
	ret	
	.cfi_endproc
.LFE40:
	.size	_ZnwmPv, .-_ZnwmPv
	.section	.text._ZSt17__size_to_integerm,"axG",@progbits,_ZSt17__size_to_integerm,comdat
	.weak	_ZSt17__size_to_integerm
	.type	_ZSt17__size_to_integerm, @function
_ZSt17__size_to_integerm:
.LFB652:
	.file 2 "/usr/include/c++/12/bits/stl_algobase.h"
	.loc 2 1009 40
	.cfi_startproc
	pushq	%rbp	#
	.cfi_def_cfa_offset 16
	.cfi_offset 6, -16
	movq	%rsp, %rbp	#,
	.cfi_def_cfa_register 6
	movq	%rdi, -8(%rbp)	# __n, __n
# /usr/include/c++/12/bits/stl_algobase.h:1009:   __size_to_integer(unsigned long __n) { return __n; }
	.loc 2 1009 49
	movq	-8(%rbp), %rax	# __n, _2
# /usr/include/c++/12/bits/stl_algobase.h:1009:   __size_to_integer(unsigned long __n) { return __n; }
	.loc 2 1009 54
	popq	%rbp	#
	.cfi_def_cfa 7, 8
	ret	
	.cfi_endproc
.LFE652:
	.size	_ZSt17__size_to_integerm, .-_ZSt17__size_to_integerm
	.local	_ZStL8__ioinit
	.comm	_ZStL8__ioinit,1,1
	.section	.rodata
.LC0:
	.string	"Index out of range."
	.text
	.globl	_ZN9container7details11index_checkEll
	.type	_ZN9container7details11index_checkEll, @function
_ZN9container7details11index_checkEll:
.LFB1754:
	.file 3 "src/Tensor/../Utils/Utils.hpp"
	.loc 3 26 9
	.cfi_startproc
	.cfi_personality 0x9b,DW.ref.__gxx_personality_v0
	.cfi_lsda 0x1b,.LLSDA1754
	pushq	%rbp	#
	.cfi_def_cfa_offset 16
	.cfi_offset 6, -16
	movq	%rsp, %rbp	#,
	.cfi_def_cfa_register 6
	pushq	%r12	#
	pushq	%rbx	#
	subq	$16, %rsp	#,
	.cfi_offset 12, -24
	.cfi_offset 3, -32
	movq	%rdi, -24(%rbp)	# index, index
	movq	%rsi, -32(%rbp)	# oor_index, oor_index
# src/Tensor/../Utils/Utils.hpp:27:             if (index >= oor_index || index < -oor_index)
	.loc 3 27 13
	movq	-24(%rbp), %rax	# index, tmp87
	cmpq	-32(%rbp), %rax	# oor_index, tmp87
	jge	.L6	#,
# src/Tensor/../Utils/Utils.hpp:27:             if (index >= oor_index || index < -oor_index)
	.loc 3 27 47 discriminator 1
	movq	-32(%rbp), %rax	# oor_index, tmp88
	negq	%rax	# _1
# src/Tensor/../Utils/Utils.hpp:27:             if (index >= oor_index || index < -oor_index)
	.loc 3 27 36 discriminator 1
	cmpq	%rax, -24(%rbp)	# _1, index
	jge	.L7	#,
.L6:
# src/Tensor/../Utils/Utils.hpp:28:                 throw std::runtime_error("Index out of range.");
	.loc 3 28 63
	movl	$16, %edi	#,
	call	__cxa_allocate_exception@PLT	#
	movq	%rax, %rbx	# tmp89, _10
# src/Tensor/../Utils/Utils.hpp:28:                 throw std::runtime_error("Index out of range.");
	.loc 3 28 17
	leaq	.LC0(%rip), %rax	#, tmp90
	movq	%rax, %rsi	# tmp90,
	movq	%rbx, %rdi	# _10,
.LEHB0:
	call	_ZNSt13runtime_errorC1EPKc@PLT	#
.LEHE0:
# src/Tensor/../Utils/Utils.hpp:28:                 throw std::runtime_error("Index out of range.");
	.loc 3 28 63 discriminator 2
	movq	_ZNSt13runtime_errorD1Ev@GOTPCREL(%rip), %rax	#, tmp92
	movq	%rax, %rdx	# tmp91,
	leaq	_ZTISt13runtime_error(%rip), %rax	#, tmp93
	movq	%rax, %rsi	# tmp93,
	movq	%rbx, %rdi	# _10,
.LEHB1:
	call	__cxa_throw@PLT	#
.L7:
# src/Tensor/../Utils/Utils.hpp:29:             return index >= 0 ? index : oor_index + index;
	.loc 3 29 31
	cmpq	$0, -24(%rbp)	#, index
	jns	.L8	#,
# src/Tensor/../Utils/Utils.hpp:29:             return index >= 0 ? index : oor_index + index;
	.loc 3 29 31 is_stmt 0 discriminator 1
	movq	-32(%rbp), %rdx	# oor_index, tmp94
	movq	-24(%rbp), %rax	# index, tmp95
	addq	%rdx, %rax	# tmp94, iftmp.0_2
# src/Tensor/../Utils/Utils.hpp:29:             return index >= 0 ? index : oor_index + index;
	.loc 3 29 53 is_stmt 1 discriminator 1
	jmp	.L13	#
.L8:
# src/Tensor/../Utils/Utils.hpp:29:             return index >= 0 ? index : oor_index + index;
	.loc 3 29 31 discriminator 2
	movq	-24(%rbp), %rax	# index, iftmp.0_2
# src/Tensor/../Utils/Utils.hpp:29:             return index >= 0 ? index : oor_index + index;
	.loc 3 29 53 discriminator 2
	jmp	.L13	#
.L12:
# src/Tensor/../Utils/Utils.hpp:28:                 throw std::runtime_error("Index out of range.");
	.loc 3 28 63
	movq	%rax, %r12	#, tmp97
	movq	%rbx, %rdi	# _10,
	call	__cxa_free_exception@PLT	#
	movq	%r12, %rax	# tmp97, D.66229
	movq	%rax, %rdi	# D.66229,
	call	_Unwind_Resume@PLT	#
.LEHE1:
.L13:
# src/Tensor/../Utils/Utils.hpp:30:         }
	.loc 3 30 9
	addq	$16, %rsp	#,
	popq	%rbx	#
	popq	%r12	#
	popq	%rbp	#
	.cfi_def_cfa 7, 8
	ret	
	.cfi_endproc
.LFE1754:
	.globl	__gxx_personality_v0
	.section	.gcc_except_table,"a",@progbits
.LLSDA1754:
	.byte	0xff
	.byte	0xff
	.byte	0x1
	.uleb128 .LLSDACSE1754-.LLSDACSB1754
.LLSDACSB1754:
	.uleb128 .LEHB0-.LFB1754
	.uleb128 .LEHE0-.LEHB0
	.uleb128 .L12-.LFB1754
	.uleb128 0
	.uleb128 .LEHB1-.LFB1754
	.uleb128 .LEHE1-.LEHB1
	.uleb128 0
	.uleb128 0
.LLSDACSE1754:
	.text
	.size	_ZN9container7details11index_checkEll, .-_ZN9container7details11index_checkEll
	.section	.rodata
	.type	_ZN6__pstl9execution2v1L3seqE, @object
	.size	_ZN6__pstl9execution2v1L3seqE, 1
_ZN6__pstl9execution2v1L3seqE:
	.zero	1
	.type	_ZN6__pstl9execution2v1L3parE, @object
	.size	_ZN6__pstl9execution2v1L3parE, 1
_ZN6__pstl9execution2v1L3parE:
	.zero	1
	.type	_ZN6__pstl9execution2v1L9par_unseqE, @object
	.size	_ZN6__pstl9execution2v1L9par_unseqE, 1
_ZN6__pstl9execution2v1L9par_unseqE:
	.zero	1
	.type	_ZN6__pstl9execution2v1L5unseqE, @object
	.size	_ZN6__pstl9execution2v1L5unseqE, 1
_ZN6__pstl9execution2v1L5unseqE:
	.zero	1
	.section	.text._ZN9container6tensorIdJEED2Ev,"axG",@progbits,_ZN9container6tensorIdJEED5Ev,comdat
	.align 2
	.weak	_ZN9container6tensorIdJEED2Ev
	.type	_ZN9container6tensorIdJEED2Ev, @function
_ZN9container6tensorIdJEED2Ev:
.LFB2568:
	.file 4 "src/Tensor/Tensor.hpp"
	.loc 4 80 11
	.cfi_startproc
	pushq	%rbp	#
	.cfi_def_cfa_offset 16
	.cfi_offset 6, -16
	movq	%rsp, %rbp	#,
	.cfi_def_cfa_register 6
	subq	$16, %rsp	#,
	movq	%rdi, -8(%rbp)	# this, this
.LBB2:
# src/Tensor/Tensor.hpp:80:     class tensor<data_type>
	.loc 4 80 11
	movq	-8(%rbp), %rax	# this, tmp84
	addq	$24, %rax	#, _1
	movq	%rax, %rdi	# _1,
	call	_ZNSt6vectorIlSaIlEED1Ev	#
	movq	-8(%rbp), %rax	# this, _2
	movq	%rax, %rdi	# _2,
	call	_ZNSt6vectorIdSaIdEED1Ev	#
.LBE2:
	nop	
	leave	
	.cfi_def_cfa 7, 8
	ret	
	.cfi_endproc
.LFE2568:
	.size	_ZN9container6tensorIdJEED2Ev, .-_ZN9container6tensorIdJEED2Ev
	.weak	_ZN9container6tensorIdJEED1Ev
	.set	_ZN9container6tensorIdJEED1Ev,_ZN9container6tensorIdJEED2Ev
	.text
	.globl	main
	.type	main, @function
main:
.LFB2566:
	.file 5 "Application.cpp"
	.loc 5 9 1
	.cfi_startproc
	.cfi_personality 0x9b,DW.ref.__gxx_personality_v0
	.cfi_lsda 0x1b,.LLSDA2566
	pushq	%rbp	#
	.cfi_def_cfa_offset 16
	.cfi_offset 6, -16
	movq	%rsp, %rbp	#,
	.cfi_def_cfa_register 6
	pushq	%rbx	#
	subq	$72, %rsp	#,
	.cfi_offset 3, -24
	movl	%edi, -68(%rbp)	# argc, argc
	movq	%rsi, -80(%rbp)	# argv, argv
# Application.cpp:10:     tensor<double> t{3, 3, 3, 3, 3, 3};
	.loc 5 10 38
	leaq	-64(%rbp), %rax	#, tmp87
	subq	$8, %rsp	#,
	pushq	$3	#
	movl	$3, %r9d	#,
	movl	$3, %r8d	#,
	movl	$3, %ecx	#,
	movl	$3, %edx	#,
	movl	$3, %esi	#,
	movq	%rax, %rdi	# tmp87,
.LEHB2:
	call	_ZN9container6tensorIdJEEC1IJiiiiiiEEEDpT_	#
.LEHE2:
	addq	$16, %rsp	#,
# Application.cpp:12:     std::cout << t.size() << '\n';
	.loc 5 12 25
	leaq	-64(%rbp), %rax	#, tmp88
	movq	%rax, %rdi	# tmp88,
	call	_ZNK9container6tensorIdJEE4sizeEv	#
	movq	%rax, %rsi	# _1,
	leaq	_ZSt4cout(%rip), %rax	#, tmp89
	movq	%rax, %rdi	# tmp89,
.LEHB3:
	call	_ZNSolsEl@PLT	#
# Application.cpp:12:     std::cout << t.size() << '\n';
	.loc 5 12 30
	movl	$10, %esi	#,
	movq	%rax, %rdi	# _2,
	call	_ZStlsISt11char_traitsIcEERSt13basic_ostreamIcT_ES5_c@PLT	#
.LEHE3:
# Application.cpp:14:     return 0;
	.loc 5 14 12
	movl	$0, %ebx	#, _11
# Application.cpp:15: }
	.loc 5 15 1
	leaq	-64(%rbp), %rax	#, tmp90
	movq	%rax, %rdi	# tmp90,
	call	_ZN9container6tensorIdJEED1Ev	#
	movl	%ebx, %eax	# _11, <retval>
	jmp	.L19	#
.L18:
	movq	%rax, %rbx	#, tmp93
	leaq	-64(%rbp), %rax	#, tmp92
	movq	%rax, %rdi	# tmp92,
	call	_ZN9container6tensorIdJEED1Ev	#
	movq	%rbx, %rax	# tmp93, D.66231
	movq	%rax, %rdi	# D.66231,
.LEHB4:
	call	_Unwind_Resume@PLT	#
.LEHE4:
.L19:
	movq	-8(%rbp), %rbx	#,
	leave	
	.cfi_def_cfa 7, 8
	ret	
	.cfi_endproc
.LFE2566:
	.section	.gcc_except_table
.LLSDA2566:
	.byte	0xff
	.byte	0xff
	.byte	0x1
	.uleb128 .LLSDACSE2566-.LLSDACSB2566
.LLSDACSB2566:
	.uleb128 .LEHB2-.LFB2566
	.uleb128 .LEHE2-.LEHB2
	.uleb128 0
	.uleb128 0
	.uleb128 .LEHB3-.LFB2566
	.uleb128 .LEHE3-.LEHB3
	.uleb128 .L18-.LFB2566
	.uleb128 0
	.uleb128 .LEHB4-.LFB2566
	.uleb128 .LEHE4-.LEHB4
	.uleb128 0
	.uleb128 0
.LLSDACSE2566:
	.text
	.size	main, .-main
	.section	.text._ZNSt12_Vector_baseIdSaIdEE12_Vector_implD2Ev,"axG",@progbits,_ZNSt12_Vector_baseIdSaIdEE12_Vector_implD5Ev,comdat
	.align 2
	.weak	_ZNSt12_Vector_baseIdSaIdEE12_Vector_implD2Ev
	.type	_ZNSt12_Vector_baseIdSaIdEE12_Vector_implD2Ev, @function
_ZNSt12_Vector_baseIdSaIdEE12_Vector_implD2Ev:
.LFB2838:
	.file 6 "/usr/include/c++/12/bits/stl_vector.h"
	.loc 6 133 14
	.cfi_startproc
	pushq	%rbp	#
	.cfi_def_cfa_offset 16
	.cfi_offset 6, -16
	movq	%rsp, %rbp	#,
	.cfi_def_cfa_register 6
	subq	$16, %rsp	#,
	movq	%rdi, -8(%rbp)	# this, this
.LBB3:
# /usr/include/c++/12/bits/stl_vector.h:133:       struct _Vector_impl
	.loc 6 133 14
	movq	-8(%rbp), %rax	# this, tmp82
	movq	%rax, %rdi	# tmp82,
	call	_ZNSaIdED2Ev	#
.LBE3:
	nop	
	leave	
	.cfi_def_cfa 7, 8
	ret	
	.cfi_endproc
.LFE2838:
	.size	_ZNSt12_Vector_baseIdSaIdEE12_Vector_implD2Ev, .-_ZNSt12_Vector_baseIdSaIdEE12_Vector_implD2Ev
	.weak	_ZNSt12_Vector_baseIdSaIdEE12_Vector_implD1Ev
	.set	_ZNSt12_Vector_baseIdSaIdEE12_Vector_implD1Ev,_ZNSt12_Vector_baseIdSaIdEE12_Vector_implD2Ev
	.section	.text._ZNSt12_Vector_baseIdSaIdEEC2Ev,"axG",@progbits,_ZNSt12_Vector_baseIdSaIdEEC5Ev,comdat
	.align 2
	.weak	_ZNSt12_Vector_baseIdSaIdEEC2Ev
	.type	_ZNSt12_Vector_baseIdSaIdEEC2Ev, @function
_ZNSt12_Vector_baseIdSaIdEEC2Ev:
.LFB2840:
	.loc 6 312 7
	.cfi_startproc
	pushq	%rbp	#
	.cfi_def_cfa_offset 16
	.cfi_offset 6, -16
	movq	%rsp, %rbp	#,
	.cfi_def_cfa_register 6
	subq	$16, %rsp	#,
	movq	%rdi, -8(%rbp)	# this, this
.LBB4:
# /usr/include/c++/12/bits/stl_vector.h:312:       _Vector_base() = default;
	.loc 6 312 7
	movq	-8(%rbp), %rax	# this, _1
	movq	%rax, %rdi	# _1,
	call	_ZNSt12_Vector_baseIdSaIdEE12_Vector_implC1Ev	#
.LBE4:
	nop	
	leave	
	.cfi_def_cfa 7, 8
	ret	
	.cfi_endproc
.LFE2840:
	.size	_ZNSt12_Vector_baseIdSaIdEEC2Ev, .-_ZNSt12_Vector_baseIdSaIdEEC2Ev
	.weak	_ZNSt12_Vector_baseIdSaIdEEC1Ev
	.set	_ZNSt12_Vector_baseIdSaIdEEC1Ev,_ZNSt12_Vector_baseIdSaIdEEC2Ev
	.section	.text._ZNSt6vectorIdSaIdEEC2Ev,"axG",@progbits,_ZNSt6vectorIdSaIdEEC5Ev,comdat
	.align 2
	.weak	_ZNSt6vectorIdSaIdEEC2Ev
	.type	_ZNSt6vectorIdSaIdEEC2Ev, @function
_ZNSt6vectorIdSaIdEEC2Ev:
.LFB2842:
	.loc 6 526 7
	.cfi_startproc
	pushq	%rbp	#
	.cfi_def_cfa_offset 16
	.cfi_offset 6, -16
	movq	%rsp, %rbp	#,
	.cfi_def_cfa_register 6
	subq	$16, %rsp	#,
	movq	%rdi, -8(%rbp)	# this, this
.LBB5:
# /usr/include/c++/12/bits/stl_vector.h:526:       vector() = default;
	.loc 6 526 7
	movq	-8(%rbp), %rax	# this, _1
	movq	%rax, %rdi	# _1,
	call	_ZNSt12_Vector_baseIdSaIdEEC2Ev	#
.LBE5:
	nop	
	leave	
	.cfi_def_cfa 7, 8
	ret	
	.cfi_endproc
.LFE2842:
	.size	_ZNSt6vectorIdSaIdEEC2Ev, .-_ZNSt6vectorIdSaIdEEC2Ev
	.weak	_ZNSt6vectorIdSaIdEEC1Ev
	.set	_ZNSt6vectorIdSaIdEEC1Ev,_ZNSt6vectorIdSaIdEEC2Ev
	.section	.rodata
.LC1:
	.string	"dim <= 0"
	.section	.text._ZZN9container6tensorIdJEEC4IJiiiiiiEEEDpT_ENKUliE_clEi,"axG",@progbits,_ZZN9container6tensorIdJEEC4IJiiiiiiEEEDpT_ENKUliE_clEi,comdat
	.align 2
	.weak	_ZZN9container6tensorIdJEEC4IJiiiiiiEEEDpT_ENKUliE_clEi
	.type	_ZZN9container6tensorIdJEEC4IJiiiiiiEEEDpT_ENKUliE_clEi, @function
_ZZN9container6tensorIdJEEC4IJiiiiiiEEEDpT_ENKUliE_clEi:
.LFB2844:
	.loc 4 89 55
	.cfi_startproc
	.cfi_personality 0x9b,DW.ref.__gxx_personality_v0
	.cfi_lsda 0x1b,.LLSDA2844
	pushq	%rbp	#
	.cfi_def_cfa_offset 16
	.cfi_offset 6, -16
	movq	%rsp, %rbp	#,
	.cfi_def_cfa_register 6
	pushq	%r12	#
	pushq	%rbx	#
	subq	$16, %rsp	#,
	.cfi_offset 12, -24
	.cfi_offset 3, -32
	movq	%rdi, -24(%rbp)	# __closure, __closure
	movl	%esi, -28(%rbp)	# size, size
# src/Tensor/Tensor.hpp:90:                           { if (size <= 0)
	.loc 4 90 29
	cmpl	$0, -28(%rbp)	#, size
	jg	.L24	#,
# src/Tensor/Tensor.hpp:91:                                     throw std::runtime_error("dim <= 0");
	.loc 4 91 37
	movl	$16, %edi	#,
	call	__cxa_allocate_exception@PLT	#
	movq	%rax, %rbx	# tmp89, _11
	leaq	.LC1(%rip), %rax	#, tmp90
	movq	%rax, %rsi	# tmp90,
	movq	%rbx, %rdi	# _11,
.LEHB5:
	call	_ZNSt13runtime_errorC1EPKc@PLT	#
.LEHE5:
# src/Tensor/Tensor.hpp:91:                                     throw std::runtime_error("dim <= 0");
	.loc 4 91 37 is_stmt 0 discriminator 2
	movq	_ZNSt13runtime_errorD1Ev@GOTPCREL(%rip), %rax	#, tmp92
	movq	%rax, %rdx	# tmp91,
	leaq	_ZTISt13runtime_error(%rip), %rax	#, tmp93
	movq	%rax, %rsi	# tmp93,
	movq	%rbx, %rdi	# _11,
.LEHB6:
	call	__cxa_throw@PLT	#
.L24:
# src/Tensor/Tensor.hpp:89:             std::for_each(_dims.begin(), _dims.end(), [&](int size)
	.loc 4 89 55 is_stmt 1
	movq	-24(%rbp), %rax	# __closure, tmp94
	movq	(%rax), %rax	# __closure_8(D)->__size_1d, _1
# src/Tensor/Tensor.hpp:92:                                 size_1d *= size; });    // exception: dim <= 0
	.loc 4 92 41
	movq	(%rax), %rcx	# *_1, _2
# src/Tensor/Tensor.hpp:92:                                 size_1d *= size; });    // exception: dim <= 0
	.loc 4 92 44
	movl	-28(%rbp), %eax	# size, tmp95
	movslq	%eax, %rdx	# tmp95, _3
# src/Tensor/Tensor.hpp:89:             std::for_each(_dims.begin(), _dims.end(), [&](int size)
	.loc 4 89 55
	movq	-24(%rbp), %rax	# __closure, tmp96
	movq	(%rax), %rax	# __closure_8(D)->__size_1d, _4
# src/Tensor/Tensor.hpp:92:                                 size_1d *= size; });    // exception: dim <= 0
	.loc 4 92 41
	imulq	%rcx, %rdx	# _2, _5
	movq	%rdx, (%rax)	# _5, *_4
# src/Tensor/Tensor.hpp:89:             std::for_each(_dims.begin(), _dims.end(), [&](int size)
	.loc 4 89 55
	jmp	.L27	#
.L26:
# src/Tensor/Tensor.hpp:91:                                     throw std::runtime_error("dim <= 0");
	.loc 4 91 37
	movq	%rax, %r12	#, tmp97
	movq	%rbx, %rdi	# _11,
	call	__cxa_free_exception@PLT	#
	movq	%r12, %rax	# tmp97, D.66232
	movq	%rax, %rdi	# D.66232,
	call	_Unwind_Resume@PLT	#
.LEHE6:
.L27:
# src/Tensor/Tensor.hpp:89:             std::for_each(_dims.begin(), _dims.end(), [&](int size)
	.loc 4 89 55
	addq	$16, %rsp	#,
	popq	%rbx	#
	popq	%r12	#
	popq	%rbp	#
	.cfi_def_cfa 7, 8
	ret	
	.cfi_endproc
.LFE2844:
	.section	.gcc_except_table
.LLSDA2844:
	.byte	0xff
	.byte	0xff
	.byte	0x1
	.uleb128 .LLSDACSE2844-.LLSDACSB2844
.LLSDACSB2844:
	.uleb128 .LEHB5-.LFB2844
	.uleb128 .LEHE5-.LEHB5
	.uleb128 .L26-.LFB2844
	.uleb128 0
	.uleb128 .LEHB6-.LFB2844
	.uleb128 .LEHE6-.LEHB6
	.uleb128 0
	.uleb128 0
.LLSDACSE2844:
	.section	.text._ZZN9container6tensorIdJEEC4IJiiiiiiEEEDpT_ENKUliE_clEi,"axG",@progbits,_ZZN9container6tensorIdJEEC4IJiiiiiiEEEDpT_ENKUliE_clEi,comdat
	.size	_ZZN9container6tensorIdJEEC4IJiiiiiiEEEDpT_ENKUliE_clEi, .-_ZZN9container6tensorIdJEEC4IJiiiiiiEEEDpT_ENKUliE_clEi
	.section	.text._ZN9container6tensorIdJEEC2IJiiiiiiEEEDpT_,"axG",@progbits,_ZN9container6tensorIdJEEC5IJiiiiiiEEEDpT_,comdat
	.align 2
	.weak	_ZN9container6tensorIdJEEC2IJiiiiiiEEEDpT_
	.type	_ZN9container6tensorIdJEEC2IJiiiiiiEEEDpT_, @function
_ZN9container6tensorIdJEEC2IJiiiiiiEEEDpT_:
.LFB2845:
	.loc 4 86 9
	.cfi_startproc
	.cfi_personality 0x9b,DW.ref.__gxx_personality_v0
	.cfi_lsda 0x1b,.LLSDA2845
	pushq	%rbp	#
	.cfi_def_cfa_offset 16
	.cfi_offset 6, -16
	movq	%rsp, %rbp	#,
	.cfi_def_cfa_register 6
	pushq	%r13	#
	pushq	%r12	#
	pushq	%rbx	#
	subq	$120, %rsp	#,
	.cfi_offset 13, -24
	.cfi_offset 12, -32
	.cfi_offset 3, -40
	movq	%rdi, -120(%rbp)	# this, this
	movl	%esi, -124(%rbp)	# dims#0, dims#0
	movl	%edx, -128(%rbp)	# dims#1, dims#1
	movl	%ecx, -132(%rbp)	# dims#2, dims#2
	movl	%r8d, -136(%rbp)	# dims#3, dims#3
	movl	%r9d, -140(%rbp)	# dims#4, dims#4
.LBB6:
# src/Tensor/Tensor.hpp:86:         tensor(T... dims) : _dims{dims...}
	.loc 4 86 42
	movq	-120(%rbp), %rax	# this, _1
	movq	%rax, %rdi	# _1,
	call	_ZNSt6vectorIdSaIdEEC1Ev	#
# src/Tensor/Tensor.hpp:86:         tensor(T... dims) : _dims{dims...}
	.loc 4 86 29
	movq	-120(%rbp), %rax	# this, tmp103
	leaq	24(%rax), %rbx	#, _2
# src/Tensor/Tensor.hpp:86:         tensor(T... dims) : _dims{dims...}
	.loc 4 86 35
	movl	-124(%rbp), %eax	# dims#0, tmp104
	cltq
# src/Tensor/Tensor.hpp:86:         tensor(T... dims) : _dims{dims...}
	.loc 4 86 29
	movq	%rax, -96(%rbp)	# _3, D.62003[0]
# src/Tensor/Tensor.hpp:86:         tensor(T... dims) : _dims{dims...}
	.loc 4 86 35
	movl	-128(%rbp), %eax	# dims#1, tmp105
	cltq
# src/Tensor/Tensor.hpp:86:         tensor(T... dims) : _dims{dims...}
	.loc 4 86 29
	movq	%rax, -88(%rbp)	# _4, D.62003[1]
# src/Tensor/Tensor.hpp:86:         tensor(T... dims) : _dims{dims...}
	.loc 4 86 35
	movl	-132(%rbp), %eax	# dims#2, tmp106
	cltq
# src/Tensor/Tensor.hpp:86:         tensor(T... dims) : _dims{dims...}
	.loc 4 86 29
	movq	%rax, -80(%rbp)	# _5, D.62003[2]
# src/Tensor/Tensor.hpp:86:         tensor(T... dims) : _dims{dims...}
	.loc 4 86 35
	movl	-136(%rbp), %eax	# dims#3, tmp107
	cltq
# src/Tensor/Tensor.hpp:86:         tensor(T... dims) : _dims{dims...}
	.loc 4 86 29
	movq	%rax, -72(%rbp)	# _6, D.62003[3]
# src/Tensor/Tensor.hpp:86:         tensor(T... dims) : _dims{dims...}
	.loc 4 86 35
	movl	-140(%rbp), %eax	# dims#4, tmp108
	cltq
# src/Tensor/Tensor.hpp:86:         tensor(T... dims) : _dims{dims...}
	.loc 4 86 29
	movq	%rax, -64(%rbp)	# _7, D.62003[4]
# src/Tensor/Tensor.hpp:86:         tensor(T... dims) : _dims{dims...}
	.loc 4 86 35
	movl	16(%rbp), %eax	# dims#5, tmp109
	cltq
# src/Tensor/Tensor.hpp:86:         tensor(T... dims) : _dims{dims...}
	.loc 4 86 29
	movq	%rax, -56(%rbp)	# _8, D.62003[5]
	leaq	-96(%rbp), %rax	#, tmp110
	movq	%rax, %r12	# tmp110, D.62002
	movl	$6, %r13d	#, D.62002
	leaq	-33(%rbp), %rax	#, tmp111
	movq	%rax, %rdi	# tmp111,
	call	_ZNSaIlEC1Ev	#
	leaq	-33(%rbp), %rax	#, tmp112
	movq	%r12, %r8	# D.62002, tmp113
	movq	%r13, %r9	# D.62002,
	movq	%r12, %rsi	# D.62002, tmp114
	movq	%r13, %rdi	# D.62002,
	movq	%rdi, %rdx	#, tmp116
	movq	%rax, %rcx	# tmp112,
	movq	%r8, %rsi	# tmp115,
	movq	%rbx, %rdi	# _2,
.LEHB7:
	call	_ZNSt6vectorIlSaIlEEC1ESt16initializer_listIlERKS0_	#
.LEHE7:
# src/Tensor/Tensor.hpp:86:         tensor(T... dims) : _dims{dims...}
	.loc 4 86 29 is_stmt 0 discriminator 2
	leaq	-33(%rbp), %rax	#, tmp117
	movq	%rax, %rdi	# tmp117,
	call	_ZNSaIlED1Ev	#
.LBB7:
# src/Tensor/Tensor.hpp:88:             size_type size_1d = 1;
	.loc 4 88 23 is_stmt 1 discriminator 2
	movq	$1, -104(%rbp)	#, size_1d
# src/Tensor/Tensor.hpp:89:             std::for_each(_dims.begin(), _dims.end(), [&](int size)
	.loc 4 89 26 discriminator 2
	leaq	-104(%rbp), %rax	#, tmp118
	movq	%rax, %r12	# tmp118, D.65735
	movq	-120(%rbp), %rax	# this, tmp119
	addq	$24, %rax	#, _9
	movq	%rax, %rdi	# _9,
	call	_ZNSt6vectorIlSaIlEE3endEv	#
	movq	%rax, %rbx	#, D.65736
	movq	-120(%rbp), %rax	# this, tmp120
	addq	$24, %rax	#, _10
	movq	%rax, %rdi	# _10,
	call	_ZNSt6vectorIlSaIlEE5beginEv	#
	movq	%r12, %rdx	# D.65735,
	movq	%rbx, %rsi	# D.65736,
	movq	%rax, %rdi	# D.65737,
.LEHB8:
	call	_ZSt8for_eachIN9__gnu_cxx17__normal_iteratorIPlSt6vectorIlSaIlEEEEZN9container6tensorIdJEEC4IJiiiiiiEEEDpT_EUliE_ET0_T_SF_SE_	#
# src/Tensor/Tensor.hpp:93:             _data.resize(size_1d); // exception: bad_alloc
	.loc 4 93 25 discriminator 2
	movq	-120(%rbp), %rax	# this, _11
	movq	-104(%rbp), %rdx	# size_1d, size_1d.1_12
	movq	%rdx, %rsi	# size_1d.2_13,
	movq	%rax, %rdi	# _11,
	call	_ZNSt6vectorIdSaIdEE6resizeEm	#
.LEHE8:
.LBE7:
.LBE6:
# src/Tensor/Tensor.hpp:94:         }
	.loc 4 94 9
	jmp	.L34	#
.L32:
.LBB8:
# src/Tensor/Tensor.hpp:86:         tensor(T... dims) : _dims{dims...}
	.loc 4 86 29
	movq	%rax, %rbx	#, tmp123
	leaq	-33(%rbp), %rax	#, tmp121
	movq	%rax, %rdi	# tmp121,
	call	_ZNSaIlED1Ev	#
	jmp	.L30	#
.L33:
# src/Tensor/Tensor.hpp:94:         }
	.loc 4 94 9
	movq	%rax, %rbx	#, tmp127
	movq	-120(%rbp), %rax	# this, tmp126
	addq	$24, %rax	#, _14
	movq	%rax, %rdi	# _14,
	call	_ZNSt6vectorIlSaIlEED1Ev	#
.L30:
	movq	-120(%rbp), %rax	# this, _15
	movq	%rax, %rdi	# _15,
	call	_ZNSt6vectorIdSaIdEED1Ev	#
	movq	%rbx, %rax	# tmp122, D.66234
	movq	%rax, %rdi	# D.66234,
.LEHB9:
	call	_Unwind_Resume@PLT	#
.LEHE9:
.L34:
.LBE8:
	addq	$120, %rsp	#,
	popq	%rbx	#
	popq	%r12	#
	popq	%r13	#
	popq	%rbp	#
	.cfi_def_cfa 7, 8
	ret	
	.cfi_endproc
.LFE2845:
	.section	.gcc_except_table
.LLSDA2845:
	.byte	0xff
	.byte	0xff
	.byte	0x1
	.uleb128 .LLSDACSE2845-.LLSDACSB2845
.LLSDACSB2845:
	.uleb128 .LEHB7-.LFB2845
	.uleb128 .LEHE7-.LEHB7
	.uleb128 .L32-.LFB2845
	.uleb128 0
	.uleb128 .LEHB8-.LFB2845
	.uleb128 .LEHE8-.LEHB8
	.uleb128 .L33-.LFB2845
	.uleb128 0
	.uleb128 .LEHB9-.LFB2845
	.uleb128 .LEHE9-.LEHB9
	.uleb128 0
	.uleb128 0
.LLSDACSE2845:
	.section	.text._ZN9container6tensorIdJEEC2IJiiiiiiEEEDpT_,"axG",@progbits,_ZN9container6tensorIdJEEC5IJiiiiiiEEEDpT_,comdat
	.size	_ZN9container6tensorIdJEEC2IJiiiiiiEEEDpT_, .-_ZN9container6tensorIdJEEC2IJiiiiiiEEEDpT_
	.weak	_ZN9container6tensorIdJEEC1IJiiiiiiEEEDpT_
	.set	_ZN9container6tensorIdJEEC1IJiiiiiiEEEDpT_,_ZN9container6tensorIdJEEC2IJiiiiiiEEEDpT_
	.section	.text._ZNSt6vectorIdSaIdEED2Ev,"axG",@progbits,_ZNSt6vectorIdSaIdEED5Ev,comdat
	.align 2
	.weak	_ZNSt6vectorIdSaIdEED2Ev
	.type	_ZNSt6vectorIdSaIdEED2Ev, @function
_ZNSt6vectorIdSaIdEED2Ev:
.LFB2848:
	.loc 6 728 7
	.cfi_startproc
	.cfi_personality 0x9b,DW.ref.__gxx_personality_v0
	.cfi_lsda 0x1b,.LLSDA2848
	pushq	%rbp	#
	.cfi_def_cfa_offset 16
	.cfi_offset 6, -16
	movq	%rsp, %rbp	#,
	.cfi_def_cfa_register 6
	subq	$16, %rsp	#,
	movq	%rdi, -8(%rbp)	# this, this
.LBB9:
# /usr/include/c++/12/bits/stl_vector.h:731: 		      _M_get_Tp_allocator());
	.loc 6 731 28
	movq	-8(%rbp), %rax	# this, _1
	movq	%rax, %rdi	# _1,
	call	_ZNSt12_Vector_baseIdSaIdEE19_M_get_Tp_allocatorEv	#
	movq	%rax, %rdx	#, _2
# /usr/include/c++/12/bits/stl_vector.h:730: 	std::_Destroy(this->_M_impl._M_start, this->_M_impl._M_finish,
	.loc 6 730 15
	movq	-8(%rbp), %rax	# this, tmp87
	movq	8(%rax), %rcx	# this_6(D)->D.58579._M_impl.D.57918._M_finish, _3
	movq	-8(%rbp), %rax	# this, tmp88
	movq	(%rax), %rax	# this_6(D)->D.58579._M_impl.D.57918._M_start, _4
	movq	%rcx, %rsi	# _3,
	movq	%rax, %rdi	# _4,
	call	_ZSt8_DestroyIPddEvT_S1_RSaIT0_E	#
# /usr/include/c++/12/bits/stl_vector.h:733:       }
	.loc 6 733 7
	movq	-8(%rbp), %rax	# this, _5
	movq	%rax, %rdi	# _5,
	call	_ZNSt12_Vector_baseIdSaIdEED2Ev	#
.LBE9:
	nop	
	leave	
	.cfi_def_cfa 7, 8
	ret	
	.cfi_endproc
.LFE2848:
	.section	.gcc_except_table
.LLSDA2848:
	.byte	0xff
	.byte	0xff
	.byte	0x1
	.uleb128 .LLSDACSE2848-.LLSDACSB2848
.LLSDACSB2848:
.LLSDACSE2848:
	.section	.text._ZNSt6vectorIdSaIdEED2Ev,"axG",@progbits,_ZNSt6vectorIdSaIdEED5Ev,comdat
	.size	_ZNSt6vectorIdSaIdEED2Ev, .-_ZNSt6vectorIdSaIdEED2Ev
	.weak	_ZNSt6vectorIdSaIdEED1Ev
	.set	_ZNSt6vectorIdSaIdEED1Ev,_ZNSt6vectorIdSaIdEED2Ev
	.section	.text._ZNSt6vectorIlSaIlEED2Ev,"axG",@progbits,_ZNSt6vectorIlSaIlEED5Ev,comdat
	.align 2
	.weak	_ZNSt6vectorIlSaIlEED2Ev
	.type	_ZNSt6vectorIlSaIlEED2Ev, @function
_ZNSt6vectorIlSaIlEED2Ev:
.LFB2851:
	.loc 6 728 7
	.cfi_startproc
	.cfi_personality 0x9b,DW.ref.__gxx_personality_v0
	.cfi_lsda 0x1b,.LLSDA2851
	pushq	%rbp	#
	.cfi_def_cfa_offset 16
	.cfi_offset 6, -16
	movq	%rsp, %rbp	#,
	.cfi_def_cfa_register 6
	subq	$16, %rsp	#,
	movq	%rdi, -8(%rbp)	# this, this
.LBB10:
# /usr/include/c++/12/bits/stl_vector.h:731: 		      _M_get_Tp_allocator());
	.loc 6 731 28
	movq	-8(%rbp), %rax	# this, _1
	movq	%rax, %rdi	# _1,
	call	_ZNSt12_Vector_baseIlSaIlEE19_M_get_Tp_allocatorEv	#
	movq	%rax, %rdx	#, _2
# /usr/include/c++/12/bits/stl_vector.h:730: 	std::_Destroy(this->_M_impl._M_start, this->_M_impl._M_finish,
	.loc 6 730 15
	movq	-8(%rbp), %rax	# this, tmp87
	movq	8(%rax), %rcx	# this_6(D)->D.54736._M_impl.D.54048._M_finish, _3
	movq	-8(%rbp), %rax	# this, tmp88
	movq	(%rax), %rax	# this_6(D)->D.54736._M_impl.D.54048._M_start, _4
	movq	%rcx, %rsi	# _3,
	movq	%rax, %rdi	# _4,
	call	_ZSt8_DestroyIPllEvT_S1_RSaIT0_E	#
# /usr/include/c++/12/bits/stl_vector.h:733:       }
	.loc 6 733 7
	movq	-8(%rbp), %rax	# this, _5
	movq	%rax, %rdi	# _5,
	call	_ZNSt12_Vector_baseIlSaIlEED2Ev	#
.LBE10:
	nop	
	leave	
	.cfi_def_cfa 7, 8
	ret	
	.cfi_endproc
.LFE2851:
	.section	.gcc_except_table
.LLSDA2851:
	.byte	0xff
	.byte	0xff
	.byte	0x1
	.uleb128 .LLSDACSE2851-.LLSDACSB2851
.LLSDACSB2851:
.LLSDACSE2851:
	.section	.text._ZNSt6vectorIlSaIlEED2Ev,"axG",@progbits,_ZNSt6vectorIlSaIlEED5Ev,comdat
	.size	_ZNSt6vectorIlSaIlEED2Ev, .-_ZNSt6vectorIlSaIlEED2Ev
	.weak	_ZNSt6vectorIlSaIlEED1Ev
	.set	_ZNSt6vectorIlSaIlEED1Ev,_ZNSt6vectorIlSaIlEED2Ev
	.section	.text._ZNK9container6tensorIdJEE4sizeEv,"axG",@progbits,_ZNK9container6tensorIdJEE4sizeEv,comdat
	.align 2
	.weak	_ZNK9container6tensorIdJEE4sizeEv
	.type	_ZNK9container6tensorIdJEE4sizeEv, @function
_ZNK9container6tensorIdJEE4sizeEv:
.LFB2853:
	.loc 4 101 19
	.cfi_startproc
	pushq	%rbp	#
	.cfi_def_cfa_offset 16
	.cfi_offset 6, -16
	movq	%rsp, %rbp	#,
	.cfi_def_cfa_register 6
	subq	$16, %rsp	#,
	movq	%rdi, -8(%rbp)	# this, this
# src/Tensor/Tensor.hpp:103:             return _data.size();
	.loc 4 103 30
	movq	-8(%rbp), %rax	# this, _1
	movq	%rax, %rdi	# _1,
	call	_ZNKSt6vectorIdSaIdEE4sizeEv	#
# src/Tensor/Tensor.hpp:104:         }
	.loc 4 104 9
	leave	
	.cfi_def_cfa 7, 8
	ret	
	.cfi_endproc
.LFE2853:
	.size	_ZNK9container6tensorIdJEE4sizeEv, .-_ZNK9container6tensorIdJEE4sizeEv
	.section	.text._ZNSt12_Vector_baseIdSaIdEE12_Vector_implC2Ev,"axG",@progbits,_ZNSt12_Vector_baseIdSaIdEE12_Vector_implC5Ev,comdat
	.align 2
	.weak	_ZNSt12_Vector_baseIdSaIdEE12_Vector_implC2Ev
	.type	_ZNSt12_Vector_baseIdSaIdEE12_Vector_implC2Ev, @function
_ZNSt12_Vector_baseIdSaIdEE12_Vector_implC2Ev:
.LFB2961:
	.loc 6 137 2
	.cfi_startproc
	pushq	%rbp	#
	.cfi_def_cfa_offset 16
	.cfi_offset 6, -16
	movq	%rsp, %rbp	#,
	.cfi_def_cfa_register 6
	subq	$16, %rsp	#,
	movq	%rdi, -8(%rbp)	# this, this
.LBB11:
# /usr/include/c++/12/bits/stl_vector.h:139: 	: _Tp_alloc_type()
	.loc 6 139 19
	movq	-8(%rbp), %rax	# this, tmp83
	movq	%rax, %rdi	# tmp83,
	call	_ZNSaIdEC2Ev	#
	movq	-8(%rbp), %rax	# this, _1
	movq	%rax, %rdi	# _1,
	call	_ZNSt12_Vector_baseIdSaIdEE17_Vector_impl_dataC2Ev	#
.LBE11:
# /usr/include/c++/12/bits/stl_vector.h:140: 	{ }
	.loc 6 140 4
	nop	
	leave	
	.cfi_def_cfa 7, 8
	ret	
	.cfi_endproc
.LFE2961:
	.size	_ZNSt12_Vector_baseIdSaIdEE12_Vector_implC2Ev, .-_ZNSt12_Vector_baseIdSaIdEE12_Vector_implC2Ev
	.weak	_ZNSt12_Vector_baseIdSaIdEE12_Vector_implC1Ev
	.set	_ZNSt12_Vector_baseIdSaIdEE12_Vector_implC1Ev,_ZNSt12_Vector_baseIdSaIdEE12_Vector_implC2Ev
	.section	.text._ZNSaIdED2Ev,"axG",@progbits,_ZNSaIdED5Ev,comdat
	.align 2
	.weak	_ZNSaIdED2Ev
	.type	_ZNSaIdED2Ev, @function
_ZNSaIdED2Ev:
.LFB2964:
	.file 7 "/usr/include/c++/12/bits/allocator.h"
	.loc 7 174 7
	.cfi_startproc
	pushq	%rbp	#
	.cfi_def_cfa_offset 16
	.cfi_offset 6, -16
	movq	%rsp, %rbp	#,
	.cfi_def_cfa_register 6
	subq	$16, %rsp	#,
	movq	%rdi, -8(%rbp)	# this, this
.LBB12:
# /usr/include/c++/12/bits/allocator.h:174:       ~allocator() _GLIBCXX_NOTHROW { }
	.loc 7 174 39
	movq	-8(%rbp), %rax	# this, tmp82
	movq	%rax, %rdi	# tmp82,
	call	_ZNSt15__new_allocatorIdED2Ev	#
.LBE12:
	nop	
	leave	
	.cfi_def_cfa 7, 8
	ret	
	.cfi_endproc
.LFE2964:
	.size	_ZNSaIdED2Ev, .-_ZNSaIdED2Ev
	.weak	_ZNSaIdED1Ev
	.set	_ZNSaIdED1Ev,_ZNSaIdED2Ev
	.section	.text._ZNSt12_Vector_baseIdSaIdEED2Ev,"axG",@progbits,_ZNSt12_Vector_baseIdSaIdEED5Ev,comdat
	.align 2
	.weak	_ZNSt12_Vector_baseIdSaIdEED2Ev
	.type	_ZNSt12_Vector_baseIdSaIdEED2Ev, @function
_ZNSt12_Vector_baseIdSaIdEED2Ev:
.LFB2967:
	.loc 6 364 7
	.cfi_startproc
	.cfi_personality 0x9b,DW.ref.__gxx_personality_v0
	.cfi_lsda 0x1b,.LLSDA2967
	pushq	%rbp	#
	.cfi_def_cfa_offset 16
	.cfi_offset 6, -16
	movq	%rsp, %rbp	#,
	.cfi_def_cfa_register 6
	subq	$16, %rsp	#,
	movq	%rdi, -8(%rbp)	# this, this
.LBB13:
# /usr/include/c++/12/bits/stl_vector.h:367: 		      _M_impl._M_end_of_storage - _M_impl._M_start);
	.loc 6 367 17
	movq	-8(%rbp), %rax	# this, tmp89
	movq	16(%rax), %rdx	# this_9(D)->_M_impl.D.57918._M_end_of_storage, _1
# /usr/include/c++/12/bits/stl_vector.h:367: 		      _M_impl._M_end_of_storage - _M_impl._M_start);
	.loc 6 367 45
	movq	-8(%rbp), %rax	# this, tmp90
	movq	(%rax), %rax	# this_9(D)->_M_impl.D.57918._M_start, _2
# /usr/include/c++/12/bits/stl_vector.h:367: 		      _M_impl._M_end_of_storage - _M_impl._M_start);
	.loc 6 367 35
	subq	%rax, %rdx	# _2, _3
	movq	%rdx, %rax	# _3, _3
	sarq	$3, %rax	#, _3
# /usr/include/c++/12/bits/stl_vector.h:366: 	_M_deallocate(_M_impl._M_start,
	.loc 6 366 15
	movq	%rax, %rdx	# _4, _5
	movq	-8(%rbp), %rax	# this, tmp92
	movq	(%rax), %rcx	# this_9(D)->_M_impl.D.57918._M_start, _6
	movq	-8(%rbp), %rax	# this, tmp93
	movq	%rcx, %rsi	# _6,
	movq	%rax, %rdi	# tmp93,
	call	_ZNSt12_Vector_baseIdSaIdEE13_M_deallocateEPdm	#
# /usr/include/c++/12/bits/stl_vector.h:368:       }
	.loc 6 368 7
	movq	-8(%rbp), %rax	# this, _7
	movq	%rax, %rdi	# _7,
	call	_ZNSt12_Vector_baseIdSaIdEE12_Vector_implD1Ev	#
.LBE13:
	nop	
	leave	
	.cfi_def_cfa 7, 8
	ret	
	.cfi_endproc
.LFE2967:
	.section	.gcc_except_table
.LLSDA2967:
	.byte	0xff
	.byte	0xff
	.byte	0x1
	.uleb128 .LLSDACSE2967-.LLSDACSB2967
.LLSDACSB2967:
.LLSDACSE2967:
	.section	.text._ZNSt12_Vector_baseIdSaIdEED2Ev,"axG",@progbits,_ZNSt12_Vector_baseIdSaIdEED5Ev,comdat
	.size	_ZNSt12_Vector_baseIdSaIdEED2Ev, .-_ZNSt12_Vector_baseIdSaIdEED2Ev
	.weak	_ZNSt12_Vector_baseIdSaIdEED1Ev
	.set	_ZNSt12_Vector_baseIdSaIdEED1Ev,_ZNSt12_Vector_baseIdSaIdEED2Ev
	.section	.text._ZNSaIlEC2Ev,"axG",@progbits,_ZNSaIlEC5Ev,comdat
	.align 2
	.weak	_ZNSaIlEC2Ev
	.type	_ZNSaIlEC2Ev, @function
_ZNSaIlEC2Ev:
.LFB2970:
	.loc 7 156 7
	.cfi_startproc
	pushq	%rbp	#
	.cfi_def_cfa_offset 16
	.cfi_offset 6, -16
	movq	%rsp, %rbp	#,
	.cfi_def_cfa_register 6
	subq	$16, %rsp	#,
	movq	%rdi, -8(%rbp)	# this, this
.LBB14:
# /usr/include/c++/12/bits/allocator.h:156:       allocator() _GLIBCXX_NOTHROW { }
	.loc 7 156 36
	movq	-8(%rbp), %rax	# this, tmp82
	movq	%rax, %rdi	# tmp82,
	call	_ZNSt15__new_allocatorIlEC2Ev	#
.LBE14:
# /usr/include/c++/12/bits/allocator.h:156:       allocator() _GLIBCXX_NOTHROW { }
	.loc 7 156 38
	nop	
	leave	
	.cfi_def_cfa 7, 8
	ret	
	.cfi_endproc
.LFE2970:
	.size	_ZNSaIlEC2Ev, .-_ZNSaIlEC2Ev
	.weak	_ZNSaIlEC1Ev
	.set	_ZNSaIlEC1Ev,_ZNSaIlEC2Ev
	.section	.text._ZNSaIlED2Ev,"axG",@progbits,_ZNSaIlED5Ev,comdat
	.align 2
	.weak	_ZNSaIlED2Ev
	.type	_ZNSaIlED2Ev, @function
_ZNSaIlED2Ev:
.LFB2973:
	.loc 7 174 7
	.cfi_startproc
	pushq	%rbp	#
	.cfi_def_cfa_offset 16
	.cfi_offset 6, -16
	movq	%rsp, %rbp	#,
	.cfi_def_cfa_register 6
	subq	$16, %rsp	#,
	movq	%rdi, -8(%rbp)	# this, this
.LBB15:
# /usr/include/c++/12/bits/allocator.h:174:       ~allocator() _GLIBCXX_NOTHROW { }
	.loc 7 174 39
	movq	-8(%rbp), %rax	# this, tmp82
	movq	%rax, %rdi	# tmp82,
	call	_ZNSt15__new_allocatorIlED2Ev	#
.LBE15:
	nop	
	leave	
	.cfi_def_cfa 7, 8
	ret	
	.cfi_endproc
.LFE2973:
	.size	_ZNSaIlED2Ev, .-_ZNSaIlED2Ev
	.weak	_ZNSaIlED1Ev
	.set	_ZNSaIlED1Ev,_ZNSaIlED2Ev
	.section	.text._ZNSt6vectorIlSaIlEEC2ESt16initializer_listIlERKS0_,"axG",@progbits,_ZNSt6vectorIlSaIlEEC5ESt16initializer_listIlERKS0_,comdat
	.align 2
	.weak	_ZNSt6vectorIlSaIlEEC2ESt16initializer_listIlERKS0_
	.type	_ZNSt6vectorIlSaIlEEC2ESt16initializer_listIlERKS0_, @function
_ZNSt6vectorIlSaIlEEC2ESt16initializer_listIlERKS0_:
.LFB2976:
	.loc 6 673 7
	.cfi_startproc
	.cfi_personality 0x9b,DW.ref.__gxx_personality_v0
	.cfi_lsda 0x1b,.LLSDA2976
	pushq	%rbp	#
	.cfi_def_cfa_offset 16
	.cfi_offset 6, -16
	movq	%rsp, %rbp	#,
	.cfi_def_cfa_register 6
	pushq	%rbx	#
	subq	$56, %rsp	#,
	.cfi_offset 3, -24
	movq	%rdi, -40(%rbp)	# this, this
	movq	%rsi, %rax	# __l, tmp90
	movq	%rdx, %rsi	# __l, tmp91
	movq	%rsi, %rdx	# tmp91,
	movq	%rax, -64(%rbp)	# tmp89, __l
	movq	%rdx, -56(%rbp)	#, __l
	movq	%rcx, -48(%rbp)	# __a, __a
.LBB16:
# /usr/include/c++/12/bits/stl_vector.h:675:       : _Base(__a)
	.loc 6 675 18
	movq	-40(%rbp), %rax	# this, _1
	movq	-48(%rbp), %rdx	# __a, tmp92
	movq	%rdx, %rsi	# tmp92,
	movq	%rax, %rdi	# _1,
	call	_ZNSt12_Vector_baseIlSaIlEEC2ERKS0_	#
# /usr/include/c++/12/bits/stl_vector.h:677: 	_M_range_initialize(__l.begin(), __l.end(),
	.loc 6 677 21
	leaq	-64(%rbp), %rax	#, tmp93
	movq	%rax, %rdi	# tmp93,
	call	_ZNKSt16initializer_listIlE3endEv	#
	movq	%rax, %rbx	#, _3
	leaq	-64(%rbp), %rax	#, tmp94
	movq	%rax, %rdi	# tmp94,
	call	_ZNKSt16initializer_listIlE5beginEv	#
	movq	%rax, %rcx	#, _4
	movq	-40(%rbp), %rax	# this, tmp95
	movq	%rbx, %rdx	# _3,
	movq	%rcx, %rsi	# _4,
	movq	%rax, %rdi	# tmp95,
.LEHB10:
	call	_ZNSt6vectorIlSaIlEE19_M_range_initializeIPKlEEvT_S5_St20forward_iterator_tag	#
.LEHE10:
.LBE16:
# /usr/include/c++/12/bits/stl_vector.h:679:       }
	.loc 6 679 7
	jmp	.L47	#
.L46:
.LBB17:
	movq	%rax, %rbx	#, tmp96
	movq	-40(%rbp), %rax	# this, _5
	movq	%rax, %rdi	# _5,
	call	_ZNSt12_Vector_baseIlSaIlEED2Ev	#
	movq	%rbx, %rax	# tmp96, D.66235
	movq	%rax, %rdi	# D.66235,
.LEHB11:
	call	_Unwind_Resume@PLT	#
.LEHE11:
.L47:
.LBE17:
	movq	-8(%rbp), %rbx	#,
	leave	
	.cfi_def_cfa 7, 8
	ret	
	.cfi_endproc
.LFE2976:
	.section	.gcc_except_table
.LLSDA2976:
	.byte	0xff
	.byte	0xff
	.byte	0x1
	.uleb128 .LLSDACSE2976-.LLSDACSB2976
.LLSDACSB2976:
	.uleb128 .LEHB10-.LFB2976
	.uleb128 .LEHE10-.LEHB10
	.uleb128 .L46-.LFB2976
	.uleb128 0
	.uleb128 .LEHB11-.LFB2976
	.uleb128 .LEHE11-.LEHB11
	.uleb128 0
	.uleb128 0
.LLSDACSE2976:
	.section	.text._ZNSt6vectorIlSaIlEEC2ESt16initializer_listIlERKS0_,"axG",@progbits,_ZNSt6vectorIlSaIlEEC5ESt16initializer_listIlERKS0_,comdat
	.size	_ZNSt6vectorIlSaIlEEC2ESt16initializer_listIlERKS0_, .-_ZNSt6vectorIlSaIlEEC2ESt16initializer_listIlERKS0_
	.weak	_ZNSt6vectorIlSaIlEEC1ESt16initializer_listIlERKS0_
	.set	_ZNSt6vectorIlSaIlEEC1ESt16initializer_listIlERKS0_,_ZNSt6vectorIlSaIlEEC2ESt16initializer_listIlERKS0_
	.section	.text._ZNSt6vectorIlSaIlEE5beginEv,"axG",@progbits,_ZNSt6vectorIlSaIlEE5beginEv,comdat
	.align 2
	.weak	_ZNSt6vectorIlSaIlEE5beginEv
	.type	_ZNSt6vectorIlSaIlEE5beginEv, @function
_ZNSt6vectorIlSaIlEE5beginEv:
.LFB2978:
	.loc 6 868 7
	.cfi_startproc
	pushq	%rbp	#
	.cfi_def_cfa_offset 16
	.cfi_offset 6, -16
	movq	%rsp, %rbp	#,
	.cfi_def_cfa_register 6
	subq	$32, %rsp	#,
	movq	%rdi, -24(%rbp)	# this, this
# /usr/include/c++/12/bits/stl_vector.h:869:       { return iterator(this->_M_impl._M_start); }
	.loc 6 869 39
	movq	-24(%rbp), %rdx	# this, _1
# /usr/include/c++/12/bits/stl_vector.h:869:       { return iterator(this->_M_impl._M_start); }
	.loc 6 869 16
	leaq	-8(%rbp), %rax	#, tmp85
	movq	%rdx, %rsi	# _1,
	movq	%rax, %rdi	# tmp85,
	call	_ZN9__gnu_cxx17__normal_iteratorIPlSt6vectorIlSaIlEEEC1ERKS1_	#
# /usr/include/c++/12/bits/stl_vector.h:869:       { return iterator(this->_M_impl._M_start); }
	.loc 6 869 47
	movq	-8(%rbp), %rax	# D.63382, D.65847
# /usr/include/c++/12/bits/stl_vector.h:869:       { return iterator(this->_M_impl._M_start); }
	.loc 6 869 50
	leave	
	.cfi_def_cfa 7, 8
	ret	
	.cfi_endproc
.LFE2978:
	.size	_ZNSt6vectorIlSaIlEE5beginEv, .-_ZNSt6vectorIlSaIlEE5beginEv
	.section	.text._ZNSt6vectorIlSaIlEE3endEv,"axG",@progbits,_ZNSt6vectorIlSaIlEE3endEv,comdat
	.align 2
	.weak	_ZNSt6vectorIlSaIlEE3endEv
	.type	_ZNSt6vectorIlSaIlEE3endEv, @function
_ZNSt6vectorIlSaIlEE3endEv:
.LFB2979:
	.loc 6 888 7
	.cfi_startproc
	pushq	%rbp	#
	.cfi_def_cfa_offset 16
	.cfi_offset 6, -16
	movq	%rsp, %rbp	#,
	.cfi_def_cfa_register 6
	subq	$32, %rsp	#,
	movq	%rdi, -24(%rbp)	# this, this
# /usr/include/c++/12/bits/stl_vector.h:889:       { return iterator(this->_M_impl._M_finish); }
	.loc 6 889 39
	movq	-24(%rbp), %rax	# this, tmp85
	leaq	8(%rax), %rdx	#, _1
# /usr/include/c++/12/bits/stl_vector.h:889:       { return iterator(this->_M_impl._M_finish); }
	.loc 6 889 16
	leaq	-8(%rbp), %rax	#, tmp86
	movq	%rdx, %rsi	# _1,
	movq	%rax, %rdi	# tmp86,
	call	_ZN9__gnu_cxx17__normal_iteratorIPlSt6vectorIlSaIlEEEC1ERKS1_	#
# /usr/include/c++/12/bits/stl_vector.h:889:       { return iterator(this->_M_impl._M_finish); }
	.loc 6 889 48
	movq	-8(%rbp), %rax	# D.63384, D.65844
# /usr/include/c++/12/bits/stl_vector.h:889:       { return iterator(this->_M_impl._M_finish); }
	.loc 6 889 51
	leave	
	.cfi_def_cfa 7, 8
	ret	
	.cfi_endproc
.LFE2979:
	.size	_ZNSt6vectorIlSaIlEE3endEv, .-_ZNSt6vectorIlSaIlEE3endEv
	.section	.text._ZSt8for_eachIN9__gnu_cxx17__normal_iteratorIPlSt6vectorIlSaIlEEEEZN9container6tensorIdJEEC4IJiiiiiiEEEDpT_EUliE_ET0_T_SF_SE_,"axG",@progbits,_ZSt8for_eachIN9__gnu_cxx17__normal_iteratorIPlSt6vectorIlSaIlEEEEZN9container6tensorIdJEEC4IJiiiiiiEEEDpT_EUliE_ET0_T_SF_SE_,comdat
	.weak	_ZSt8for_eachIN9__gnu_cxx17__normal_iteratorIPlSt6vectorIlSaIlEEEEZN9container6tensorIdJEEC4IJiiiiiiEEEDpT_EUliE_ET0_T_SF_SE_
	.type	_ZSt8for_eachIN9__gnu_cxx17__normal_iteratorIPlSt6vectorIlSaIlEEEEZN9container6tensorIdJEEC4IJiiiiiiEEEDpT_EUliE_ET0_T_SF_SE_, @function
_ZSt8for_eachIN9__gnu_cxx17__normal_iteratorIPlSt6vectorIlSaIlEEEEZN9container6tensorIdJEEC4IJiiiiiiEEEDpT_EUliE_ET0_T_SF_SE_:
.LFB2980:
	.file 8 "/usr/include/c++/12/bits/stl_algo.h"
	.loc 8 3781 5
	.cfi_startproc
	pushq	%rbp	#
	.cfi_def_cfa_offset 16
	.cfi_offset 6, -16
	movq	%rsp, %rbp	#,
	.cfi_def_cfa_register 6
	subq	$32, %rsp	#,
	movq	%rdi, -8(%rbp)	# __first, __first
	movq	%rsi, -16(%rbp)	# __last, __last
	movq	%rdx, -24(%rbp)	# __f, __f
# /usr/include/c++/12/bits/stl_algo.h:3786:       for (; __first != __last; ++__first)
	.loc 8 3786 7
	jmp	.L53	#
.L54:
# /usr/include/c++/12/bits/stl_algo.h:3787: 	__f(*__first);
	.loc 8 3787 6 discriminator 2
	leaq	-8(%rbp), %rax	#, tmp88
	movq	%rax, %rdi	# tmp88,
	call	_ZNK9__gnu_cxx17__normal_iteratorIPlSt6vectorIlSaIlEEEdeEv	#
# /usr/include/c++/12/bits/stl_algo.h:3787: 	__f(*__first);
	.loc 8 3787 5 discriminator 2
	movq	(%rax), %rax	# *_1, _2
	movl	%eax, %edx	# _2, _3
	leaq	-24(%rbp), %rax	#, tmp89
	movl	%edx, %esi	# _3,
	movq	%rax, %rdi	# tmp89,
	call	_ZZN9container6tensorIdJEEC4IJiiiiiiEEEDpT_ENKUliE_clEi	#
# /usr/include/c++/12/bits/stl_algo.h:3786:       for (; __first != __last; ++__first)
	.loc 8 3786 33 discriminator 2
	leaq	-8(%rbp), %rax	#, tmp90
	movq	%rax, %rdi	# tmp90,
	call	_ZN9__gnu_cxx17__normal_iteratorIPlSt6vectorIlSaIlEEEppEv	#
.L53:
# /usr/include/c++/12/bits/stl_algo.h:3786:       for (; __first != __last; ++__first)
	.loc 8 3786 22 discriminator 1
	leaq	-16(%rbp), %rdx	#, tmp91
	leaq	-8(%rbp), %rax	#, tmp92
	movq	%rdx, %rsi	# tmp91,
	movq	%rax, %rdi	# tmp92,
	call	_ZN9__gnu_cxxneIPlSt6vectorIlSaIlEEEEbRKNS_17__normal_iteratorIT_T0_EESA_	#
	testb	%al, %al	# retval.10_7
	jne	.L54	#,
# /usr/include/c++/12/bits/stl_algo.h:3788:       return __f; // N.B. [alg.foreach] says std::move(f) but it's redundant.
	.loc 8 3788 14
	movq	-24(%rbp), %rax	# __f, D.65851
# /usr/include/c++/12/bits/stl_algo.h:3789:     }
	.loc 8 3789 5
	leave	
	.cfi_def_cfa 7, 8
	ret	
	.cfi_endproc
.LFE2980:
	.size	_ZSt8for_eachIN9__gnu_cxx17__normal_iteratorIPlSt6vectorIlSaIlEEEEZN9container6tensorIdJEEC4IJiiiiiiEEEDpT_EUliE_ET0_T_SF_SE_, .-_ZSt8for_eachIN9__gnu_cxx17__normal_iteratorIPlSt6vectorIlSaIlEEEEZN9container6tensorIdJEEC4IJiiiiiiEEEDpT_EUliE_ET0_T_SF_SE_
	.section	.text._ZNSt6vectorIdSaIdEE6resizeEm,"axG",@progbits,_ZNSt6vectorIdSaIdEE6resizeEm,comdat
	.align 2
	.weak	_ZNSt6vectorIdSaIdEE6resizeEm
	.type	_ZNSt6vectorIdSaIdEE6resizeEm, @function
_ZNSt6vectorIdSaIdEE6resizeEm:
.LFB2981:
	.loc 6 1008 7
	.cfi_startproc
	pushq	%rbp	#
	.cfi_def_cfa_offset 16
	.cfi_offset 6, -16
	movq	%rsp, %rbp	#,
	.cfi_def_cfa_register 6
	subq	$16, %rsp	#,
	movq	%rdi, -8(%rbp)	# this, this
	movq	%rsi, -16(%rbp)	# __new_size, __new_size
# /usr/include/c++/12/bits/stl_vector.h:1010: 	if (__new_size > size())
	.loc 6 1010 23
	movq	-8(%rbp), %rax	# this, tmp91
	movq	%rax, %rdi	# tmp91,
	call	_ZNKSt6vectorIdSaIdEE4sizeEv	#
# /usr/include/c++/12/bits/stl_vector.h:1010: 	if (__new_size > size())
	.loc 6 1010 17
	cmpq	-16(%rbp), %rax	# __new_size, _1
	setb	%al	#, retval.11_13
# /usr/include/c++/12/bits/stl_vector.h:1010: 	if (__new_size > size())
	.loc 6 1010 2
	testb	%al, %al	# retval.11_13
	je	.L57	#,
# /usr/include/c++/12/bits/stl_vector.h:1011: 	  _M_default_append(__new_size - size());
	.loc 6 1011 39
	movq	-8(%rbp), %rax	# this, tmp92
	movq	%rax, %rdi	# tmp92,
	call	_ZNKSt6vectorIdSaIdEE4sizeEv	#
# /usr/include/c++/12/bits/stl_vector.h:1011: 	  _M_default_append(__new_size - size());
	.loc 6 1011 21
	movq	-16(%rbp), %rdx	# __new_size, tmp93
	subq	%rax, %rdx	# _2, _3
	movq	-8(%rbp), %rax	# this, tmp94
	movq	%rdx, %rsi	# _3,
	movq	%rax, %rdi	# tmp94,
	call	_ZNSt6vectorIdSaIdEE17_M_default_appendEm	#
# /usr/include/c++/12/bits/stl_vector.h:1014:       }
	.loc 6 1014 7
	jmp	.L59	#
.L57:
# /usr/include/c++/12/bits/stl_vector.h:1012: 	else if (__new_size < size())
	.loc 6 1012 28
	movq	-8(%rbp), %rax	# this, tmp95
	movq	%rax, %rdi	# tmp95,
	call	_ZNKSt6vectorIdSaIdEE4sizeEv	#
# /usr/include/c++/12/bits/stl_vector.h:1012: 	else if (__new_size < size())
	.loc 6 1012 22
	cmpq	%rax, -16(%rbp)	# _4, __new_size
	setb	%al	#, retval.12_15
# /usr/include/c++/12/bits/stl_vector.h:1012: 	else if (__new_size < size())
	.loc 6 1012 7
	testb	%al, %al	# retval.12_15
	je	.L59	#,
# /usr/include/c++/12/bits/stl_vector.h:1013: 	  _M_erase_at_end(this->_M_impl._M_start + __new_size);
	.loc 6 1013 34
	movq	-8(%rbp), %rax	# this, tmp96
	movq	(%rax), %rax	# this_10(D)->D.58579._M_impl.D.57918._M_start, _5
# /usr/include/c++/12/bits/stl_vector.h:1013: 	  _M_erase_at_end(this->_M_impl._M_start + __new_size);
	.loc 6 1013 43
	movq	-16(%rbp), %rdx	# __new_size, tmp97
	salq	$3, %rdx	#, _6
# /usr/include/c++/12/bits/stl_vector.h:1013: 	  _M_erase_at_end(this->_M_impl._M_start + __new_size);
	.loc 6 1013 19
	addq	%rax, %rdx	# _5, _7
	movq	-8(%rbp), %rax	# this, tmp98
	movq	%rdx, %rsi	# _7,
	movq	%rax, %rdi	# tmp98,
	call	_ZNSt6vectorIdSaIdEE15_M_erase_at_endEPd	#
.L59:
# /usr/include/c++/12/bits/stl_vector.h:1014:       }
	.loc 6 1014 7
	nop	
	leave	
	.cfi_def_cfa 7, 8
	ret	
	.cfi_endproc
.LFE2981:
	.size	_ZNSt6vectorIdSaIdEE6resizeEm, .-_ZNSt6vectorIdSaIdEE6resizeEm
	.section	.text._ZNSt12_Vector_baseIdSaIdEE19_M_get_Tp_allocatorEv,"axG",@progbits,_ZNSt12_Vector_baseIdSaIdEE19_M_get_Tp_allocatorEv,comdat
	.align 2
	.weak	_ZNSt12_Vector_baseIdSaIdEE19_M_get_Tp_allocatorEv
	.type	_ZNSt12_Vector_baseIdSaIdEE19_M_get_Tp_allocatorEv, @function
_ZNSt12_Vector_baseIdSaIdEE19_M_get_Tp_allocatorEv:
.LFB2982:
	.loc 6 298 7
	.cfi_startproc
	pushq	%rbp	#
	.cfi_def_cfa_offset 16
	.cfi_offset 6, -16
	movq	%rsp, %rbp	#,
	.cfi_def_cfa_register 6
	movq	%rdi, -8(%rbp)	# this, this
# /usr/include/c++/12/bits/stl_vector.h:299:       { return this->_M_impl; }
	.loc 6 299 22
	movq	-8(%rbp), %rax	# this, _2
# /usr/include/c++/12/bits/stl_vector.h:299:       { return this->_M_impl; }
	.loc 6 299 31
	popq	%rbp	#
	.cfi_def_cfa 7, 8
	ret	
	.cfi_endproc
.LFE2982:
	.size	_ZNSt12_Vector_baseIdSaIdEE19_M_get_Tp_allocatorEv, .-_ZNSt12_Vector_baseIdSaIdEE19_M_get_Tp_allocatorEv
	.section	.text._ZSt8_DestroyIPddEvT_S1_RSaIT0_E,"axG",@progbits,_ZSt8_DestroyIPddEvT_S1_RSaIT0_E,comdat
	.weak	_ZSt8_DestroyIPddEvT_S1_RSaIT0_E
	.type	_ZSt8_DestroyIPddEvT_S1_RSaIT0_E, @function
_ZSt8_DestroyIPddEvT_S1_RSaIT0_E:
.LFB2983:
	.file 9 "/usr/include/c++/12/bits/alloc_traits.h"
	.loc 9 847 5
	.cfi_startproc
	pushq	%rbp	#
	.cfi_def_cfa_offset 16
	.cfi_offset 6, -16
	movq	%rsp, %rbp	#,
	.cfi_def_cfa_register 6
	subq	$32, %rsp	#,
	movq	%rdi, -8(%rbp)	# __first, __first
	movq	%rsi, -16(%rbp)	# __last, __last
	movq	%rdx, -24(%rbp)	# D.63439, D.63439
# /usr/include/c++/12/bits/alloc_traits.h:850:       _Destroy(__first, __last);
	.loc 9 850 15
	movq	-16(%rbp), %rdx	# __last, tmp82
	movq	-8(%rbp), %rax	# __first, tmp83
	movq	%rdx, %rsi	# tmp82,
	movq	%rax, %rdi	# tmp83,
	call	_ZSt8_DestroyIPdEvT_S1_	#
# /usr/include/c++/12/bits/alloc_traits.h:851:     }
	.loc 9 851 5
	nop	
	leave	
	.cfi_def_cfa 7, 8
	ret	
	.cfi_endproc
.LFE2983:
	.size	_ZSt8_DestroyIPddEvT_S1_RSaIT0_E, .-_ZSt8_DestroyIPddEvT_S1_RSaIT0_E
	.section	.text._ZNSt12_Vector_baseIlSaIlEE12_Vector_implD2Ev,"axG",@progbits,_ZNSt12_Vector_baseIlSaIlEE12_Vector_implD5Ev,comdat
	.align 2
	.weak	_ZNSt12_Vector_baseIlSaIlEE12_Vector_implD2Ev
	.type	_ZNSt12_Vector_baseIlSaIlEE12_Vector_implD2Ev, @function
_ZNSt12_Vector_baseIlSaIlEE12_Vector_implD2Ev:
.LFB2986:
	.loc 6 133 14
	.cfi_startproc
	pushq	%rbp	#
	.cfi_def_cfa_offset 16
	.cfi_offset 6, -16
	movq	%rsp, %rbp	#,
	.cfi_def_cfa_register 6
	subq	$16, %rsp	#,
	movq	%rdi, -8(%rbp)	# this, this
.LBB18:
# /usr/include/c++/12/bits/stl_vector.h:133:       struct _Vector_impl
	.loc 6 133 14
	movq	-8(%rbp), %rax	# this, tmp82
	movq	%rax, %rdi	# tmp82,
	call	_ZNSaIlED2Ev	#
.LBE18:
	nop	
	leave	
	.cfi_def_cfa 7, 8
	ret	
	.cfi_endproc
.LFE2986:
	.size	_ZNSt12_Vector_baseIlSaIlEE12_Vector_implD2Ev, .-_ZNSt12_Vector_baseIlSaIlEE12_Vector_implD2Ev
	.weak	_ZNSt12_Vector_baseIlSaIlEE12_Vector_implD1Ev
	.set	_ZNSt12_Vector_baseIlSaIlEE12_Vector_implD1Ev,_ZNSt12_Vector_baseIlSaIlEE12_Vector_implD2Ev
	.section	.text._ZNSt12_Vector_baseIlSaIlEED2Ev,"axG",@progbits,_ZNSt12_Vector_baseIlSaIlEED5Ev,comdat
	.align 2
	.weak	_ZNSt12_Vector_baseIlSaIlEED2Ev
	.type	_ZNSt12_Vector_baseIlSaIlEED2Ev, @function
_ZNSt12_Vector_baseIlSaIlEED2Ev:
.LFB2988:
	.loc 6 364 7
	.cfi_startproc
	.cfi_personality 0x9b,DW.ref.__gxx_personality_v0
	.cfi_lsda 0x1b,.LLSDA2988
	pushq	%rbp	#
	.cfi_def_cfa_offset 16
	.cfi_offset 6, -16
	movq	%rsp, %rbp	#,
	.cfi_def_cfa_register 6
	subq	$16, %rsp	#,
	movq	%rdi, -8(%rbp)	# this, this
.LBB19:
# /usr/include/c++/12/bits/stl_vector.h:367: 		      _M_impl._M_end_of_storage - _M_impl._M_start);
	.loc 6 367 17
	movq	-8(%rbp), %rax	# this, tmp89
	movq	16(%rax), %rdx	# this_9(D)->_M_impl.D.54048._M_end_of_storage, _1
# /usr/include/c++/12/bits/stl_vector.h:367: 		      _M_impl._M_end_of_storage - _M_impl._M_start);
	.loc 6 367 45
	movq	-8(%rbp), %rax	# this, tmp90
	movq	(%rax), %rax	# this_9(D)->_M_impl.D.54048._M_start, _2
# /usr/include/c++/12/bits/stl_vector.h:367: 		      _M_impl._M_end_of_storage - _M_impl._M_start);
	.loc 6 367 35
	subq	%rax, %rdx	# _2, _3
	movq	%rdx, %rax	# _3, _3
	sarq	$3, %rax	#, _3
# /usr/include/c++/12/bits/stl_vector.h:366: 	_M_deallocate(_M_impl._M_start,
	.loc 6 366 15
	movq	%rax, %rdx	# _4, _5
	movq	-8(%rbp), %rax	# this, tmp92
	movq	(%rax), %rcx	# this_9(D)->_M_impl.D.54048._M_start, _6
	movq	-8(%rbp), %rax	# this, tmp93
	movq	%rcx, %rsi	# _6,
	movq	%rax, %rdi	# tmp93,
	call	_ZNSt12_Vector_baseIlSaIlEE13_M_deallocateEPlm	#
# /usr/include/c++/12/bits/stl_vector.h:368:       }
	.loc 6 368 7
	movq	-8(%rbp), %rax	# this, _7
	movq	%rax, %rdi	# _7,
	call	_ZNSt12_Vector_baseIlSaIlEE12_Vector_implD1Ev	#
.LBE19:
	nop	
	leave	
	.cfi_def_cfa 7, 8
	ret	
	.cfi_endproc
.LFE2988:
	.section	.gcc_except_table
.LLSDA2988:
	.byte	0xff
	.byte	0xff
	.byte	0x1
	.uleb128 .LLSDACSE2988-.LLSDACSB2988
.LLSDACSB2988:
.LLSDACSE2988:
	.section	.text._ZNSt12_Vector_baseIlSaIlEED2Ev,"axG",@progbits,_ZNSt12_Vector_baseIlSaIlEED5Ev,comdat
	.size	_ZNSt12_Vector_baseIlSaIlEED2Ev, .-_ZNSt12_Vector_baseIlSaIlEED2Ev
	.weak	_ZNSt12_Vector_baseIlSaIlEED1Ev
	.set	_ZNSt12_Vector_baseIlSaIlEED1Ev,_ZNSt12_Vector_baseIlSaIlEED2Ev
	.section	.text._ZNSt12_Vector_baseIlSaIlEE19_M_get_Tp_allocatorEv,"axG",@progbits,_ZNSt12_Vector_baseIlSaIlEE19_M_get_Tp_allocatorEv,comdat
	.align 2
	.weak	_ZNSt12_Vector_baseIlSaIlEE19_M_get_Tp_allocatorEv
	.type	_ZNSt12_Vector_baseIlSaIlEE19_M_get_Tp_allocatorEv, @function
_ZNSt12_Vector_baseIlSaIlEE19_M_get_Tp_allocatorEv:
.LFB2990:
	.loc 6 298 7
	.cfi_startproc
	pushq	%rbp	#
	.cfi_def_cfa_offset 16
	.cfi_offset 6, -16
	movq	%rsp, %rbp	#,
	.cfi_def_cfa_register 6
	movq	%rdi, -8(%rbp)	# this, this
# /usr/include/c++/12/bits/stl_vector.h:299:       { return this->_M_impl; }
	.loc 6 299 22
	movq	-8(%rbp), %rax	# this, _2
# /usr/include/c++/12/bits/stl_vector.h:299:       { return this->_M_impl; }
	.loc 6 299 31
	popq	%rbp	#
	.cfi_def_cfa 7, 8
	ret	
	.cfi_endproc
.LFE2990:
	.size	_ZNSt12_Vector_baseIlSaIlEE19_M_get_Tp_allocatorEv, .-_ZNSt12_Vector_baseIlSaIlEE19_M_get_Tp_allocatorEv
	.section	.text._ZSt8_DestroyIPllEvT_S1_RSaIT0_E,"axG",@progbits,_ZSt8_DestroyIPllEvT_S1_RSaIT0_E,comdat
	.weak	_ZSt8_DestroyIPllEvT_S1_RSaIT0_E
	.type	_ZSt8_DestroyIPllEvT_S1_RSaIT0_E, @function
_ZSt8_DestroyIPllEvT_S1_RSaIT0_E:
.LFB2991:
	.loc 9 847 5
	.cfi_startproc
	pushq	%rbp	#
	.cfi_def_cfa_offset 16
	.cfi_offset 6, -16
	movq	%rsp, %rbp	#,
	.cfi_def_cfa_register 6
	subq	$32, %rsp	#,
	movq	%rdi, -8(%rbp)	# __first, __first
	movq	%rsi, -16(%rbp)	# __last, __last
	movq	%rdx, -24(%rbp)	# D.63461, D.63461
# /usr/include/c++/12/bits/alloc_traits.h:850:       _Destroy(__first, __last);
	.loc 9 850 15
	movq	-16(%rbp), %rdx	# __last, tmp82
	movq	-8(%rbp), %rax	# __first, tmp83
	movq	%rdx, %rsi	# tmp82,
	movq	%rax, %rdi	# tmp83,
	call	_ZSt8_DestroyIPlEvT_S1_	#
# /usr/include/c++/12/bits/alloc_traits.h:851:     }
	.loc 9 851 5
	nop	
	leave	
	.cfi_def_cfa 7, 8
	ret	
	.cfi_endproc
.LFE2991:
	.size	_ZSt8_DestroyIPllEvT_S1_RSaIT0_E, .-_ZSt8_DestroyIPllEvT_S1_RSaIT0_E
	.section	.text._ZNKSt6vectorIdSaIdEE4sizeEv,"axG",@progbits,_ZNKSt6vectorIdSaIdEE4sizeEv,comdat
	.align 2
	.weak	_ZNKSt6vectorIdSaIdEE4sizeEv
	.type	_ZNKSt6vectorIdSaIdEE4sizeEv, @function
_ZNKSt6vectorIdSaIdEE4sizeEv:
.LFB2992:
	.loc 6 987 7
	.cfi_startproc
	pushq	%rbp	#
	.cfi_def_cfa_offset 16
	.cfi_offset 6, -16
	movq	%rsp, %rbp	#,
	.cfi_def_cfa_register 6
	movq	%rdi, -8(%rbp)	# this, this
# /usr/include/c++/12/bits/stl_vector.h:988:       { return size_type(this->_M_impl._M_finish - this->_M_impl._M_start); }
	.loc 6 988 40
	movq	-8(%rbp), %rax	# this, tmp88
	movq	8(%rax), %rdx	# this_6(D)->D.58579._M_impl.D.57918._M_finish, _1
# /usr/include/c++/12/bits/stl_vector.h:988:       { return size_type(this->_M_impl._M_finish - this->_M_impl._M_start); }
	.loc 6 988 66
	movq	-8(%rbp), %rax	# this, tmp89
	movq	(%rax), %rax	# this_6(D)->D.58579._M_impl.D.57918._M_start, _2
# /usr/include/c++/12/bits/stl_vector.h:988:       { return size_type(this->_M_impl._M_finish - this->_M_impl._M_start); }
	.loc 6 988 50
	subq	%rax, %rdx	# _2, _3
	movq	%rdx, %rax	# _3, _3
	sarq	$3, %rax	#, _3
# /usr/include/c++/12/bits/stl_vector.h:988:       { return size_type(this->_M_impl._M_finish - this->_M_impl._M_start); }
	.loc 6 988 77
	popq	%rbp	#
	.cfi_def_cfa 7, 8
	ret	
	.cfi_endproc
.LFE2992:
	.size	_ZNKSt6vectorIdSaIdEE4sizeEv, .-_ZNKSt6vectorIdSaIdEE4sizeEv
	.section	.text._ZNSaIdEC2Ev,"axG",@progbits,_ZNSaIdEC5Ev,comdat
	.align 2
	.weak	_ZNSaIdEC2Ev
	.type	_ZNSaIdEC2Ev, @function
_ZNSaIdEC2Ev:
.LFB3062:
	.loc 7 156 7
	.cfi_startproc
	pushq	%rbp	#
	.cfi_def_cfa_offset 16
	.cfi_offset 6, -16
	movq	%rsp, %rbp	#,
	.cfi_def_cfa_register 6
	subq	$16, %rsp	#,
	movq	%rdi, -8(%rbp)	# this, this
.LBB20:
# /usr/include/c++/12/bits/allocator.h:156:       allocator() _GLIBCXX_NOTHROW { }
	.loc 7 156 36
	movq	-8(%rbp), %rax	# this, tmp82
	movq	%rax, %rdi	# tmp82,
	call	_ZNSt15__new_allocatorIdEC2Ev	#
.LBE20:
# /usr/include/c++/12/bits/allocator.h:156:       allocator() _GLIBCXX_NOTHROW { }
	.loc 7 156 38
	nop	
	leave	
	.cfi_def_cfa 7, 8
	ret	
	.cfi_endproc
.LFE3062:
	.size	_ZNSaIdEC2Ev, .-_ZNSaIdEC2Ev
	.weak	_ZNSaIdEC1Ev
	.set	_ZNSaIdEC1Ev,_ZNSaIdEC2Ev
	.section	.text._ZNSt12_Vector_baseIdSaIdEE17_Vector_impl_dataC2Ev,"axG",@progbits,_ZNSt12_Vector_baseIdSaIdEE17_Vector_impl_dataC5Ev,comdat
	.align 2
	.weak	_ZNSt12_Vector_baseIdSaIdEE17_Vector_impl_dataC2Ev
	.type	_ZNSt12_Vector_baseIdSaIdEE17_Vector_impl_dataC2Ev, @function
_ZNSt12_Vector_baseIdSaIdEE17_Vector_impl_dataC2Ev:
.LFB3065:
	.loc 6 99 2
	.cfi_startproc
	pushq	%rbp	#
	.cfi_def_cfa_offset 16
	.cfi_offset 6, -16
	movq	%rsp, %rbp	#,
	.cfi_def_cfa_register 6
	movq	%rdi, -8(%rbp)	# this, this
.LBB21:
# /usr/include/c++/12/bits/stl_vector.h:100: 	: _M_start(), _M_finish(), _M_end_of_storage()
	.loc 6 100 4
	movq	-8(%rbp), %rax	# this, tmp82
	movq	$0, (%rax)	#, this_2(D)->_M_start
# /usr/include/c++/12/bits/stl_vector.h:100: 	: _M_start(), _M_finish(), _M_end_of_storage()
	.loc 6 100 16
	movq	-8(%rbp), %rax	# this, tmp83
	movq	$0, 8(%rax)	#, this_2(D)->_M_finish
# /usr/include/c++/12/bits/stl_vector.h:100: 	: _M_start(), _M_finish(), _M_end_of_storage()
	.loc 6 100 29
	movq	-8(%rbp), %rax	# this, tmp84
	movq	$0, 16(%rax)	#, this_2(D)->_M_end_of_storage
.LBE21:
# /usr/include/c++/12/bits/stl_vector.h:101: 	{ }
	.loc 6 101 4
	nop	
	popq	%rbp	#
	.cfi_def_cfa 7, 8
	ret	
	.cfi_endproc
.LFE3065:
	.size	_ZNSt12_Vector_baseIdSaIdEE17_Vector_impl_dataC2Ev, .-_ZNSt12_Vector_baseIdSaIdEE17_Vector_impl_dataC2Ev
	.weak	_ZNSt12_Vector_baseIdSaIdEE17_Vector_impl_dataC1Ev
	.set	_ZNSt12_Vector_baseIdSaIdEE17_Vector_impl_dataC1Ev,_ZNSt12_Vector_baseIdSaIdEE17_Vector_impl_dataC2Ev
	.section	.text._ZNSt15__new_allocatorIdED2Ev,"axG",@progbits,_ZNSt15__new_allocatorIdED5Ev,comdat
	.align 2
	.weak	_ZNSt15__new_allocatorIdED2Ev
	.type	_ZNSt15__new_allocatorIdED2Ev, @function
_ZNSt15__new_allocatorIdED2Ev:
.LFB3068:
	.file 10 "/usr/include/c++/12/bits/new_allocator.h"
	.loc 10 90 7
	.cfi_startproc
	pushq	%rbp	#
	.cfi_def_cfa_offset 16
	.cfi_offset 6, -16
	movq	%rsp, %rbp	#,
	.cfi_def_cfa_register 6
	movq	%rdi, -8(%rbp)	# this, this
# /usr/include/c++/12/bits/new_allocator.h:90:       ~__new_allocator() _GLIBCXX_USE_NOEXCEPT { }
	.loc 10 90 50
	nop	
	popq	%rbp	#
	.cfi_def_cfa 7, 8
	ret	
	.cfi_endproc
.LFE3068:
	.size	_ZNSt15__new_allocatorIdED2Ev, .-_ZNSt15__new_allocatorIdED2Ev
	.weak	_ZNSt15__new_allocatorIdED1Ev
	.set	_ZNSt15__new_allocatorIdED1Ev,_ZNSt15__new_allocatorIdED2Ev
	.section	.text._ZNSt12_Vector_baseIdSaIdEE13_M_deallocateEPdm,"axG",@progbits,_ZNSt12_Vector_baseIdSaIdEE13_M_deallocateEPdm,comdat
	.align 2
	.weak	_ZNSt12_Vector_baseIdSaIdEE13_M_deallocateEPdm
	.type	_ZNSt12_Vector_baseIdSaIdEE13_M_deallocateEPdm, @function
_ZNSt12_Vector_baseIdSaIdEE13_M_deallocateEPdm:
.LFB3070:
	.loc 6 383 7
	.cfi_startproc
	pushq	%rbp	#
	.cfi_def_cfa_offset 16
	.cfi_offset 6, -16
	movq	%rsp, %rbp	#,
	.cfi_def_cfa_register 6
	subq	$32, %rsp	#,
	movq	%rdi, -8(%rbp)	# this, this
	movq	%rsi, -16(%rbp)	# __p, __p
	movq	%rdx, -24(%rbp)	# __n, __n
# /usr/include/c++/12/bits/stl_vector.h:386: 	if (__p)
	.loc 6 386 2
	cmpq	$0, -16(%rbp)	#, __p
	je	.L75	#,
# /usr/include/c++/12/bits/stl_vector.h:387: 	  _Tr::deallocate(_M_impl, __p, __n);
	.loc 6 387 20
	movq	-8(%rbp), %rax	# this, _1
# /usr/include/c++/12/bits/stl_vector.h:387: 	  _Tr::deallocate(_M_impl, __p, __n);
	.loc 6 387 19
	movq	-24(%rbp), %rdx	# __n, tmp83
	movq	-16(%rbp), %rcx	# __p, tmp84
	movq	%rcx, %rsi	# tmp84,
	movq	%rax, %rdi	# _1,
	call	_ZNSt16allocator_traitsISaIdEE10deallocateERS0_Pdm	#
.L75:
# /usr/include/c++/12/bits/stl_vector.h:388:       }
	.loc 6 388 7
	nop	
	leave	
	.cfi_def_cfa 7, 8
	ret	
	.cfi_endproc
.LFE3070:
	.size	_ZNSt12_Vector_baseIdSaIdEE13_M_deallocateEPdm, .-_ZNSt12_Vector_baseIdSaIdEE13_M_deallocateEPdm
	.section	.text._ZNSt15__new_allocatorIlEC2Ev,"axG",@progbits,_ZNSt15__new_allocatorIlEC5Ev,comdat
	.align 2
	.weak	_ZNSt15__new_allocatorIlEC2Ev
	.type	_ZNSt15__new_allocatorIlEC2Ev, @function
_ZNSt15__new_allocatorIlEC2Ev:
.LFB3072:
	.loc 10 80 7
	.cfi_startproc
	pushq	%rbp	#
	.cfi_def_cfa_offset 16
	.cfi_offset 6, -16
	movq	%rsp, %rbp	#,
	.cfi_def_cfa_register 6
	movq	%rdi, -8(%rbp)	# this, this
# /usr/include/c++/12/bits/new_allocator.h:80:       __new_allocator() _GLIBCXX_USE_NOEXCEPT { }
	.loc 10 80 49
	nop	
	popq	%rbp	#
	.cfi_def_cfa 7, 8
	ret	
	.cfi_endproc
.LFE3072:
	.size	_ZNSt15__new_allocatorIlEC2Ev, .-_ZNSt15__new_allocatorIlEC2Ev
	.weak	_ZNSt15__new_allocatorIlEC1Ev
	.set	_ZNSt15__new_allocatorIlEC1Ev,_ZNSt15__new_allocatorIlEC2Ev
	.section	.text._ZNSt15__new_allocatorIlED2Ev,"axG",@progbits,_ZNSt15__new_allocatorIlED5Ev,comdat
	.align 2
	.weak	_ZNSt15__new_allocatorIlED2Ev
	.type	_ZNSt15__new_allocatorIlED2Ev, @function
_ZNSt15__new_allocatorIlED2Ev:
.LFB3075:
	.loc 10 90 7
	.cfi_startproc
	pushq	%rbp	#
	.cfi_def_cfa_offset 16
	.cfi_offset 6, -16
	movq	%rsp, %rbp	#,
	.cfi_def_cfa_register 6
	movq	%rdi, -8(%rbp)	# this, this
# /usr/include/c++/12/bits/new_allocator.h:90:       ~__new_allocator() _GLIBCXX_USE_NOEXCEPT { }
	.loc 10 90 50
	nop	
	popq	%rbp	#
	.cfi_def_cfa 7, 8
	ret	
	.cfi_endproc
.LFE3075:
	.size	_ZNSt15__new_allocatorIlED2Ev, .-_ZNSt15__new_allocatorIlED2Ev
	.weak	_ZNSt15__new_allocatorIlED1Ev
	.set	_ZNSt15__new_allocatorIlED1Ev,_ZNSt15__new_allocatorIlED2Ev
	.section	.text._ZNSt12_Vector_baseIlSaIlEEC2ERKS0_,"axG",@progbits,_ZNSt12_Vector_baseIlSaIlEEC5ERKS0_,comdat
	.align 2
	.weak	_ZNSt12_Vector_baseIlSaIlEEC2ERKS0_
	.type	_ZNSt12_Vector_baseIlSaIlEEC2ERKS0_, @function
_ZNSt12_Vector_baseIlSaIlEEC2ERKS0_:
.LFB3078:
	.loc 6 318 7
	.cfi_startproc
	pushq	%rbp	#
	.cfi_def_cfa_offset 16
	.cfi_offset 6, -16
	movq	%rsp, %rbp	#,
	.cfi_def_cfa_register 6
	subq	$16, %rsp	#,
	movq	%rdi, -8(%rbp)	# this, this
	movq	%rsi, -16(%rbp)	# __a, __a
.LBB22:
# /usr/include/c++/12/bits/stl_vector.h:319:       : _M_impl(__a) { }
	.loc 6 319 9
	movq	-8(%rbp), %rax	# this, _1
	movq	-16(%rbp), %rdx	# __a, tmp84
	movq	%rdx, %rsi	# tmp84,
	movq	%rax, %rdi	# _1,
	call	_ZNSt12_Vector_baseIlSaIlEE12_Vector_implC1ERKS0_	#
.LBE22:
# /usr/include/c++/12/bits/stl_vector.h:319:       : _M_impl(__a) { }
	.loc 6 319 24
	nop	
	leave	
	.cfi_def_cfa 7, 8
	ret	
	.cfi_endproc
.LFE3078:
	.size	_ZNSt12_Vector_baseIlSaIlEEC2ERKS0_, .-_ZNSt12_Vector_baseIlSaIlEEC2ERKS0_
	.weak	_ZNSt12_Vector_baseIlSaIlEEC1ERKS0_
	.set	_ZNSt12_Vector_baseIlSaIlEEC1ERKS0_,_ZNSt12_Vector_baseIlSaIlEEC2ERKS0_
	.section	.text._ZNKSt16initializer_listIlE5beginEv,"axG",@progbits,_ZNKSt16initializer_listIlE5beginEv,comdat
	.align 2
	.weak	_ZNKSt16initializer_listIlE5beginEv
	.type	_ZNKSt16initializer_listIlE5beginEv, @function
_ZNKSt16initializer_listIlE5beginEv:
.LFB3080:
	.file 11 "/usr/include/c++/12/initializer_list"
	.loc 11 75 7
	.cfi_startproc
	pushq	%rbp	#
	.cfi_def_cfa_offset 16
	.cfi_offset 6, -16
	movq	%rsp, %rbp	#,
	.cfi_def_cfa_register 6
	movq	%rdi, -8(%rbp)	# this, this
# /usr/include/c++/12/initializer_list:75:       begin() const noexcept { return _M_array; }
	.loc 11 75 39
	movq	-8(%rbp), %rax	# this, tmp84
	movq	(%rax), %rax	# this_2(D)->_M_array, _3
# /usr/include/c++/12/initializer_list:75:       begin() const noexcept { return _M_array; }
	.loc 11 75 49
	popq	%rbp	#
	.cfi_def_cfa 7, 8
	ret	
	.cfi_endproc
.LFE3080:
	.size	_ZNKSt16initializer_listIlE5beginEv, .-_ZNKSt16initializer_listIlE5beginEv
	.section	.text._ZNKSt16initializer_listIlE3endEv,"axG",@progbits,_ZNKSt16initializer_listIlE3endEv,comdat
	.align 2
	.weak	_ZNKSt16initializer_listIlE3endEv
	.type	_ZNKSt16initializer_listIlE3endEv, @function
_ZNKSt16initializer_listIlE3endEv:
.LFB3081:
	.loc 11 79 7
	.cfi_startproc
	pushq	%rbp	#
	.cfi_def_cfa_offset 16
	.cfi_offset 6, -16
	movq	%rsp, %rbp	#,
	.cfi_def_cfa_register 6
	pushq	%rbx	#
	subq	$24, %rsp	#,
	.cfi_offset 3, -24
	movq	%rdi, -24(%rbp)	# this, this
# /usr/include/c++/12/initializer_list:79:       end() const noexcept { return begin() + size(); }
	.loc 11 79 42
	movq	-24(%rbp), %rax	# this, tmp87
	movq	%rax, %rdi	# tmp87,
	call	_ZNKSt16initializer_listIlE5beginEv	#
	movq	%rax, %rbx	#, _1
# /usr/include/c++/12/initializer_list:79:       end() const noexcept { return begin() + size(); }
	.loc 11 79 51
	movq	-24(%rbp), %rax	# this, tmp88
	movq	%rax, %rdi	# tmp88,
	call	_ZNKSt16initializer_listIlE4sizeEv	#
# /usr/include/c++/12/initializer_list:79:       end() const noexcept { return begin() + size(); }
	.loc 11 79 45
	salq	$3, %rax	#, _3
# /usr/include/c++/12/initializer_list:79:       end() const noexcept { return begin() + size(); }
	.loc 11 79 52
	addq	%rbx, %rax	# _1, _8
# /usr/include/c++/12/initializer_list:79:       end() const noexcept { return begin() + size(); }
	.loc 11 79 55
	movq	-8(%rbp), %rbx	#,
	leave	
	.cfi_def_cfa 7, 8
	ret	
	.cfi_endproc
.LFE3081:
	.size	_ZNKSt16initializer_listIlE3endEv, .-_ZNKSt16initializer_listIlE3endEv
	.section	.text._ZSt8distanceIPKlENSt15iterator_traitsIT_E15difference_typeES3_S3_,"axG",@progbits,_ZSt8distanceIPKlENSt15iterator_traitsIT_E15difference_typeES3_S3_,comdat
	.weak	_ZSt8distanceIPKlENSt15iterator_traitsIT_E15difference_typeES3_S3_
	.type	_ZSt8distanceIPKlENSt15iterator_traitsIT_E15difference_typeES3_S3_, @function
_ZSt8distanceIPKlENSt15iterator_traitsIT_E15difference_typeES3_S3_:
.LFB3083:
	.file 12 "/usr/include/c++/12/bits/stl_iterator_base_funcs.h"
	.loc 12 147 5
	.cfi_startproc
	pushq	%rbp	#
	.cfi_def_cfa_offset 16
	.cfi_offset 6, -16
	movq	%rsp, %rbp	#,
	.cfi_def_cfa_register 6
	subq	$16, %rsp	#,
	movq	%rdi, -8(%rbp)	# __first, __first
	movq	%rsi, -16(%rbp)	# __last, __last
# /usr/include/c++/12/bits/stl_iterator_base_funcs.h:151: 			     std::__iterator_category(__first));
	.loc 12 151 33
	leaq	-8(%rbp), %rax	#, tmp86
	movq	%rax, %rdi	# tmp86,
	call	_ZSt19__iterator_categoryIPKlENSt15iterator_traitsIT_E17iterator_categoryERKS3_	#
# /usr/include/c++/12/bits/stl_iterator_base_funcs.h:150:       return std::__distance(__first, __last,
	.loc 12 150 29
	movq	-8(%rbp), %rax	# __first, __first.3_1
	movq	-16(%rbp), %rdx	# __last, tmp87
	movq	%rdx, %rsi	# tmp87,
	movq	%rax, %rdi	# __first.3_1,
	call	_ZSt10__distanceIPKlENSt15iterator_traitsIT_E15difference_typeES3_S3_St26random_access_iterator_tag	#
# /usr/include/c++/12/bits/stl_iterator_base_funcs.h:152:     }
	.loc 12 152 5
	leave	
	.cfi_def_cfa 7, 8
	ret	
	.cfi_endproc
.LFE3083:
	.size	_ZSt8distanceIPKlENSt15iterator_traitsIT_E15difference_typeES3_S3_, .-_ZSt8distanceIPKlENSt15iterator_traitsIT_E15difference_typeES3_S3_
	.section	.text._ZNSt6vectorIlSaIlEE19_M_range_initializeIPKlEEvT_S5_St20forward_iterator_tag,"axG",@progbits,_ZNSt6vectorIlSaIlEE19_M_range_initializeIPKlEEvT_S5_St20forward_iterator_tag,comdat
	.align 2
	.weak	_ZNSt6vectorIlSaIlEE19_M_range_initializeIPKlEEvT_S5_St20forward_iterator_tag
	.type	_ZNSt6vectorIlSaIlEE19_M_range_initializeIPKlEEvT_S5_St20forward_iterator_tag, @function
_ZNSt6vectorIlSaIlEE19_M_range_initializeIPKlEEvT_S5_St20forward_iterator_tag:
.LFB3082:
	.loc 6 1682 2
	.cfi_startproc
	pushq	%rbp	#
	.cfi_def_cfa_offset 16
	.cfi_offset 6, -16
	movq	%rsp, %rbp	#,
	.cfi_def_cfa_register 6
	pushq	%rbx	#
	subq	$56, %rsp	#,
	.cfi_offset 3, -24
	movq	%rdi, -40(%rbp)	# this, this
	movq	%rsi, -48(%rbp)	# __first, __first
	movq	%rdx, -56(%rbp)	# __last, __last
# /usr/include/c++/12/bits/stl_vector.h:1685: 	  const size_type __n = std::distance(__first, __last);
	.loc 6 1685 39
	movq	-56(%rbp), %rdx	# __last, tmp95
	movq	-48(%rbp), %rax	# __first, tmp96
	movq	%rdx, %rsi	# tmp95,
	movq	%rax, %rdi	# tmp96,
	call	_ZSt8distanceIPKlENSt15iterator_traitsIT_E15difference_typeES3_S3_	#
# /usr/include/c++/12/bits/stl_vector.h:1685: 	  const size_type __n = std::distance(__first, __last);
	.loc 6 1685 20
	movq	%rax, -24(%rbp)	# _1, __n
# /usr/include/c++/12/bits/stl_vector.h:1687: 	    = this->_M_allocate(_S_check_init_len(__n, _M_get_Tp_allocator()));
	.loc 6 1687 25
	movq	-40(%rbp), %rbx	# this, _2
# /usr/include/c++/12/bits/stl_vector.h:1687: 	    = this->_M_allocate(_S_check_init_len(__n, _M_get_Tp_allocator()));
	.loc 6 1687 68
	movq	-40(%rbp), %rax	# this, _3
	movq	%rax, %rdi	# _3,
	call	_ZNSt12_Vector_baseIlSaIlEE19_M_get_Tp_allocatorEv	#
	movq	%rax, %rdx	#, _4
# /usr/include/c++/12/bits/stl_vector.h:1687: 	    = this->_M_allocate(_S_check_init_len(__n, _M_get_Tp_allocator()));
	.loc 6 1687 25
	movq	-24(%rbp), %rax	# __n, tmp97
	movq	%rdx, %rsi	# _4,
	movq	%rax, %rdi	# tmp97,
	call	_ZNSt6vectorIlSaIlEE17_S_check_init_lenEmRKS0_	#
	movq	%rax, %rsi	# _5,
	movq	%rbx, %rdi	# _2,
	call	_ZNSt12_Vector_baseIlSaIlEE11_M_allocateEm	#
# /usr/include/c++/12/bits/stl_vector.h:1687: 	    = this->_M_allocate(_S_check_init_len(__n, _M_get_Tp_allocator()));
	.loc 6 1687 6
	movq	-40(%rbp), %rdx	# this, tmp98
	movq	%rax, (%rdx)	# _6, this_20(D)->D.54736._M_impl.D.54048._M_start
# /usr/include/c++/12/bits/stl_vector.h:1688: 	  this->_M_impl._M_end_of_storage = this->_M_impl._M_start + __n;
	.loc 6 1688 52
	movq	-40(%rbp), %rax	# this, tmp99
	movq	(%rax), %rax	# this_20(D)->D.54736._M_impl.D.54048._M_start, _7
# /usr/include/c++/12/bits/stl_vector.h:1688: 	  this->_M_impl._M_end_of_storage = this->_M_impl._M_start + __n;
	.loc 6 1688 61
	movq	-24(%rbp), %rdx	# __n, tmp100
	salq	$3, %rdx	#, _8
	addq	%rax, %rdx	# _7, _9
# /usr/include/c++/12/bits/stl_vector.h:1688: 	  this->_M_impl._M_end_of_storage = this->_M_impl._M_start + __n;
	.loc 6 1688 36
	movq	-40(%rbp), %rax	# this, tmp101
	movq	%rdx, 16(%rax)	# _9, this_20(D)->D.54736._M_impl.D.54048._M_end_of_storage
# /usr/include/c++/12/bits/stl_vector.h:1692: 					_M_get_Tp_allocator());
	.loc 6 1692 25
	movq	-40(%rbp), %rax	# this, _10
	movq	%rax, %rdi	# _10,
	call	_ZNSt12_Vector_baseIlSaIlEE19_M_get_Tp_allocatorEv	#
	movq	%rax, %rcx	#, _11
# /usr/include/c++/12/bits/stl_vector.h:1690: 	    std::__uninitialized_copy_a(__first, __last,
	.loc 6 1690 33
	movq	-40(%rbp), %rax	# this, tmp102
	movq	(%rax), %rdx	# this_20(D)->D.54736._M_impl.D.54048._M_start, _12
	movq	-56(%rbp), %rsi	# __last, tmp103
	movq	-48(%rbp), %rax	# __first, tmp104
	movq	%rax, %rdi	# tmp104,
	call	_ZSt22__uninitialized_copy_aIPKlPllET0_T_S4_S3_RSaIT1_E	#
# /usr/include/c++/12/bits/stl_vector.h:1689: 	  this->_M_impl._M_finish =
	.loc 6 1689 28
	movq	-40(%rbp), %rdx	# this, tmp105
	movq	%rax, 8(%rdx)	# _13, this_20(D)->D.54736._M_impl.D.54048._M_finish
# /usr/include/c++/12/bits/stl_vector.h:1693: 	}
	.loc 6 1693 2
	nop	
	movq	-8(%rbp), %rbx	#,
	leave	
	.cfi_def_cfa 7, 8
	ret	
	.cfi_endproc
.LFE3082:
	.size	_ZNSt6vectorIlSaIlEE19_M_range_initializeIPKlEEvT_S5_St20forward_iterator_tag, .-_ZNSt6vectorIlSaIlEE19_M_range_initializeIPKlEEvT_S5_St20forward_iterator_tag
	.section	.text._ZN9__gnu_cxx17__normal_iteratorIPlSt6vectorIlSaIlEEEC2ERKS1_,"axG",@progbits,_ZN9__gnu_cxx17__normal_iteratorIPlSt6vectorIlSaIlEEEC5ERKS1_,comdat
	.align 2
	.weak	_ZN9__gnu_cxx17__normal_iteratorIPlSt6vectorIlSaIlEEEC2ERKS1_
	.type	_ZN9__gnu_cxx17__normal_iteratorIPlSt6vectorIlSaIlEEEC2ERKS1_, @function
_ZN9__gnu_cxx17__normal_iteratorIPlSt6vectorIlSaIlEEEC2ERKS1_:
.LFB3085:
	.file 13 "/usr/include/c++/12/bits/stl_iterator.h"
	.loc 13 1072 7
	.cfi_startproc
	pushq	%rbp	#
	.cfi_def_cfa_offset 16
	.cfi_offset 6, -16
	movq	%rsp, %rbp	#,
	.cfi_def_cfa_register 6
	movq	%rdi, -8(%rbp)	# this, this
	movq	%rsi, -16(%rbp)	# __i, __i
.LBB23:
# /usr/include/c++/12/bits/stl_iterator.h:1073:       : _M_current(__i) { }
	.loc 13 1073 9
	movq	-16(%rbp), %rax	# __i, tmp83
	movq	(%rax), %rdx	# *__i_5(D), _1
	movq	-8(%rbp), %rax	# this, tmp84
	movq	%rdx, (%rax)	# _1, this_3(D)->_M_current
.LBE23:
# /usr/include/c++/12/bits/stl_iterator.h:1073:       : _M_current(__i) { }
	.loc 13 1073 27
	nop	
	popq	%rbp	#
	.cfi_def_cfa 7, 8
	ret	
	.cfi_endproc
.LFE3085:
	.size	_ZN9__gnu_cxx17__normal_iteratorIPlSt6vectorIlSaIlEEEC2ERKS1_, .-_ZN9__gnu_cxx17__normal_iteratorIPlSt6vectorIlSaIlEEEC2ERKS1_
	.weak	_ZN9__gnu_cxx17__normal_iteratorIPlSt6vectorIlSaIlEEEC1ERKS1_
	.set	_ZN9__gnu_cxx17__normal_iteratorIPlSt6vectorIlSaIlEEEC1ERKS1_,_ZN9__gnu_cxx17__normal_iteratorIPlSt6vectorIlSaIlEEEC2ERKS1_
	.section	.text._ZN9__gnu_cxxneIPlSt6vectorIlSaIlEEEEbRKNS_17__normal_iteratorIT_T0_EESA_,"axG",@progbits,_ZN9__gnu_cxxneIPlSt6vectorIlSaIlEEEEbRKNS_17__normal_iteratorIT_T0_EESA_,comdat
	.weak	_ZN9__gnu_cxxneIPlSt6vectorIlSaIlEEEEbRKNS_17__normal_iteratorIT_T0_EESA_
	.type	_ZN9__gnu_cxxneIPlSt6vectorIlSaIlEEEEbRKNS_17__normal_iteratorIT_T0_EESA_, @function
_ZN9__gnu_cxxneIPlSt6vectorIlSaIlEEEEbRKNS_17__normal_iteratorIT_T0_EESA_:
.LFB3087:
	.loc 13 1237 5
	.cfi_startproc
	pushq	%rbp	#
	.cfi_def_cfa_offset 16
	.cfi_offset 6, -16
	movq	%rsp, %rbp	#,
	.cfi_def_cfa_register 6
	pushq	%rbx	#
	subq	$24, %rsp	#,
	.cfi_offset 3, -24
	movq	%rdi, -24(%rbp)	# __lhs, __lhs
	movq	%rsi, -32(%rbp)	# __rhs, __rhs
# /usr/include/c++/12/bits/stl_iterator.h:1240:     { return __lhs.base() != __rhs.base(); }
	.loc 13 1240 24
	movq	-24(%rbp), %rax	# __lhs, tmp88
	movq	%rax, %rdi	# tmp88,
	call	_ZNK9__gnu_cxx17__normal_iteratorIPlSt6vectorIlSaIlEEE4baseEv	#
# /usr/include/c++/12/bits/stl_iterator.h:1240:     { return __lhs.base() != __rhs.base(); }
	.loc 13 1240 27
	movq	(%rax), %rbx	# *_1, _2
# /usr/include/c++/12/bits/stl_iterator.h:1240:     { return __lhs.base() != __rhs.base(); }
	.loc 13 1240 40
	movq	-32(%rbp), %rax	# __rhs, tmp89
	movq	%rax, %rdi	# tmp89,
	call	_ZNK9__gnu_cxx17__normal_iteratorIPlSt6vectorIlSaIlEEE4baseEv	#
# /usr/include/c++/12/bits/stl_iterator.h:1240:     { return __lhs.base() != __rhs.base(); }
	.loc 13 1240 27
	movq	(%rax), %rax	# *_3, _4
# /usr/include/c++/12/bits/stl_iterator.h:1240:     { return __lhs.base() != __rhs.base(); }
	.loc 13 1240 41
	cmpq	%rax, %rbx	# _4, _2
	setne	%al	#, _10
# /usr/include/c++/12/bits/stl_iterator.h:1240:     { return __lhs.base() != __rhs.base(); }
	.loc 13 1240 44
	movq	-8(%rbp), %rbx	#,
	leave	
	.cfi_def_cfa 7, 8
	ret	
	.cfi_endproc
.LFE3087:
	.size	_ZN9__gnu_cxxneIPlSt6vectorIlSaIlEEEEbRKNS_17__normal_iteratorIT_T0_EESA_, .-_ZN9__gnu_cxxneIPlSt6vectorIlSaIlEEEEbRKNS_17__normal_iteratorIT_T0_EESA_
	.section	.text._ZN9__gnu_cxx17__normal_iteratorIPlSt6vectorIlSaIlEEEppEv,"axG",@progbits,_ZN9__gnu_cxx17__normal_iteratorIPlSt6vectorIlSaIlEEEppEv,comdat
	.align 2
	.weak	_ZN9__gnu_cxx17__normal_iteratorIPlSt6vectorIlSaIlEEEppEv
	.type	_ZN9__gnu_cxx17__normal_iteratorIPlSt6vectorIlSaIlEEEppEv, @function
_ZN9__gnu_cxx17__normal_iteratorIPlSt6vectorIlSaIlEEEppEv:
.LFB3088:
	.loc 13 1105 7
	.cfi_startproc
	pushq	%rbp	#
	.cfi_def_cfa_offset 16
	.cfi_offset 6, -16
	movq	%rsp, %rbp	#,
	.cfi_def_cfa_register 6
	movq	%rdi, -8(%rbp)	# this, this
# /usr/include/c++/12/bits/stl_iterator.h:1107: 	++_M_current;
	.loc 13 1107 4
	movq	-8(%rbp), %rax	# this, tmp86
	movq	(%rax), %rax	# this_4(D)->_M_current, _1
# /usr/include/c++/12/bits/stl_iterator.h:1107: 	++_M_current;
	.loc 13 1107 2
	leaq	8(%rax), %rdx	#, _2
	movq	-8(%rbp), %rax	# this, tmp87
	movq	%rdx, (%rax)	# _2, this_4(D)->_M_current
# /usr/include/c++/12/bits/stl_iterator.h:1108: 	return *this;
	.loc 13 1108 10
	movq	-8(%rbp), %rax	# this, _6
# /usr/include/c++/12/bits/stl_iterator.h:1109:       }
	.loc 13 1109 7
	popq	%rbp	#
	.cfi_def_cfa 7, 8
	ret	
	.cfi_endproc
.LFE3088:
	.size	_ZN9__gnu_cxx17__normal_iteratorIPlSt6vectorIlSaIlEEEppEv, .-_ZN9__gnu_cxx17__normal_iteratorIPlSt6vectorIlSaIlEEEppEv
	.section	.text._ZNK9__gnu_cxx17__normal_iteratorIPlSt6vectorIlSaIlEEEdeEv,"axG",@progbits,_ZNK9__gnu_cxx17__normal_iteratorIPlSt6vectorIlSaIlEEEdeEv,comdat
	.align 2
	.weak	_ZNK9__gnu_cxx17__normal_iteratorIPlSt6vectorIlSaIlEEEdeEv
	.type	_ZNK9__gnu_cxx17__normal_iteratorIPlSt6vectorIlSaIlEEEdeEv, @function
_ZNK9__gnu_cxx17__normal_iteratorIPlSt6vectorIlSaIlEEEdeEv:
.LFB3089:
	.loc 13 1095 7
	.cfi_startproc
	pushq	%rbp	#
	.cfi_def_cfa_offset 16
	.cfi_offset 6, -16
	movq	%rsp, %rbp	#,
	.cfi_def_cfa_register 6
	movq	%rdi, -8(%rbp)	# this, this
# /usr/include/c++/12/bits/stl_iterator.h:1096:       { return *_M_current; }
	.loc 13 1096 17
	movq	-8(%rbp), %rax	# this, tmp84
	movq	(%rax), %rax	# this_2(D)->_M_current, _3
# /usr/include/c++/12/bits/stl_iterator.h:1096:       { return *_M_current; }
	.loc 13 1096 29
	popq	%rbp	#
	.cfi_def_cfa 7, 8
	ret	
	.cfi_endproc
.LFE3089:
	.size	_ZNK9__gnu_cxx17__normal_iteratorIPlSt6vectorIlSaIlEEEdeEv, .-_ZNK9__gnu_cxx17__normal_iteratorIPlSt6vectorIlSaIlEEEdeEv
	.section	.rodata
.LC2:
	.string	"vector::_M_default_append"
	.section	.text._ZNSt6vectorIdSaIdEE17_M_default_appendEm,"axG",@progbits,_ZNSt6vectorIdSaIdEE17_M_default_appendEm,comdat
	.align 2
	.weak	_ZNSt6vectorIdSaIdEE17_M_default_appendEm
	.type	_ZNSt6vectorIdSaIdEE17_M_default_appendEm, @function
_ZNSt6vectorIdSaIdEE17_M_default_appendEm:
.LFB3090:
	.file 14 "/usr/include/c++/12/bits/vector.tcc"
	.loc 14 626 5
	.cfi_startproc
	.cfi_personality 0x9b,DW.ref.__gxx_personality_v0
	.cfi_lsda 0x1b,.LLSDA3090
	pushq	%rbp	#
	.cfi_def_cfa_offset 16
	.cfi_offset 6, -16
	movq	%rsp, %rbp	#,
	.cfi_def_cfa_register 6
	pushq	%rbx	#
	subq	$56, %rsp	#,
	.cfi_offset 3, -24
	movq	%rdi, -56(%rbp)	# this, this
	movq	%rsi, -64(%rbp)	# __n, __n
.LBB24:
# /usr/include/c++/12/bits/vector.tcc:629:       if (__n != 0)
	.loc 14 629 7
	cmpq	$0, -64(%rbp)	#, __n
	je	.L104	#,
.LBB25:
# /usr/include/c++/12/bits/vector.tcc:631: 	  const size_type __size = size();
	.loc 14 631 33
	movq	-56(%rbp), %rax	# this, tmp120
	movq	%rax, %rdi	# tmp120,
	call	_ZNKSt6vectorIdSaIdEE4sizeEv	#
	movq	%rax, -24(%rbp)	# tmp121, __size
# /usr/include/c++/12/bits/vector.tcc:632: 	  size_type __navail = size_type(this->_M_impl._M_end_of_storage
	.loc 14 632 49
	movq	-56(%rbp), %rax	# this, tmp122
	movq	16(%rax), %rdx	# this_42(D)->D.58579._M_impl.D.57918._M_end_of_storage, _1
# /usr/include/c++/12/bits/vector.tcc:633: 					 - this->_M_impl._M_finish);
	.loc 14 633 23
	movq	-56(%rbp), %rax	# this, tmp123
	movq	8(%rax), %rax	# this_42(D)->D.58579._M_impl.D.57918._M_finish, _2
# /usr/include/c++/12/bits/vector.tcc:633: 					 - this->_M_impl._M_finish);
	.loc 14 633 7
	subq	%rax, %rdx	# _2, _3
	movq	%rdx, %rax	# _3, _3
	sarq	$3, %rax	#, _3
# /usr/include/c++/12/bits/vector.tcc:632: 	  size_type __navail = size_type(this->_M_impl._M_end_of_storage
	.loc 14 632 14
	movq	%rax, -32(%rbp)	# _4, __navail
# /usr/include/c++/12/bits/vector.tcc:635: 	  if (__size > max_size() || __navail > max_size() - __size)
	.loc 14 635 25
	movq	-56(%rbp), %rax	# this, tmp125
	movq	%rax, %rdi	# tmp125,
	call	_ZNKSt6vectorIdSaIdEE8max_sizeEv	#
# /usr/include/c++/12/bits/vector.tcc:635: 	  if (__size > max_size() || __navail > max_size() - __size)
	.loc 14 635 28
	cmpq	-24(%rbp), %rax	# __size, _5
	jb	.L95	#,
# /usr/include/c++/12/bits/vector.tcc:635: 	  if (__size > max_size() || __navail > max_size() - __size)
	.loc 14 635 50 discriminator 2
	movq	-56(%rbp), %rax	# this, tmp126
	movq	%rax, %rdi	# tmp126,
	call	_ZNKSt6vectorIdSaIdEE8max_sizeEv	#
# /usr/include/c++/12/bits/vector.tcc:635: 	  if (__size > max_size() || __navail > max_size() - __size)
	.loc 14 635 53 discriminator 2
	subq	-24(%rbp), %rax	# __size, _7
# /usr/include/c++/12/bits/vector.tcc:635: 	  if (__size > max_size() || __navail > max_size() - __size)
	.loc 14 635 28 discriminator 2
	cmpq	-32(%rbp), %rax	# __navail, _7
	jnb	.L96	#,
.L95:
# /usr/include/c++/12/bits/vector.tcc:635: 	  if (__size > max_size() || __navail > max_size() - __size)
	.loc 14 635 28 is_stmt 0 discriminator 3
	movl	$1, %eax	#, iftmp.14_35
	jmp	.L97	#
.L96:
# /usr/include/c++/12/bits/vector.tcc:635: 	  if (__size > max_size() || __navail > max_size() - __size)
	.loc 14 635 28 discriminator 4
	movl	$0, %eax	#, iftmp.14_35
.L97:
# /usr/include/c++/12/bits/vector.tcc:635: 	  if (__size > max_size() || __navail > max_size() - __size)
	.loc 14 635 4 is_stmt 1 discriminator 6
	testb	%al, %al	# iftmp.14_35
.LBB26:
# /usr/include/c++/12/bits/vector.tcc:638: 	  if (__navail >= __n)
	.loc 14 638 4 discriminator 6
	movq	-32(%rbp), %rax	# __navail, tmp127
	cmpq	-64(%rbp), %rax	# __n, tmp127
	jb	.L99	#,
# /usr/include/c++/12/bits/vector.tcc:643: 						 __n, _M_get_Tp_allocator());
	.loc 14 643 32
	movq	-56(%rbp), %rax	# this, _8
	movq	%rax, %rdi	# _8,
	call	_ZNSt12_Vector_baseIdSaIdEE19_M_get_Tp_allocatorEv	#
	movq	%rax, %rdx	#, _9
# /usr/include/c++/12/bits/vector.tcc:642: 		std::__uninitialized_default_n_a(this->_M_impl._M_finish,
	.loc 14 642 35
	movq	-56(%rbp), %rax	# this, tmp128
	movq	8(%rax), %rax	# this_42(D)->D.58579._M_impl.D.57918._M_finish, _10
	movq	-64(%rbp), %rcx	# __n, tmp129
	movq	%rcx, %rsi	# tmp129,
	movq	%rax, %rdi	# _10,
.LEHB12:
	call	_ZSt27__uninitialized_default_n_aIPdmdET_S1_T0_RSaIT1_E	#
# /usr/include/c++/12/bits/vector.tcc:641: 	      this->_M_impl._M_finish =
	.loc 14 641 32
	movq	-56(%rbp), %rdx	# this, tmp130
	movq	%rax, 8(%rdx)	# _11, this_42(D)->D.58579._M_impl.D.57918._M_finish
.LBE26:
.LBE25:
.LBE24:
# /usr/include/c++/12/bits/vector.tcc:698:     }
	.loc 14 698 5
	jmp	.L104	#
.L99:
.LBB33:
.LBB31:
.LBB29:
.LBB27:
# /usr/include/c++/12/bits/vector.tcc:649: 		_M_check_len(__n, "vector::_M_default_append");
	.loc 14 649 15
	movq	-64(%rbp), %rcx	# __n, tmp131
	movq	-56(%rbp), %rax	# this, tmp132
	leaq	.LC2(%rip), %rdx	#, tmp133
	movq	%rcx, %rsi	# tmp131,
	movq	%rax, %rdi	# tmp132,
	call	_ZNKSt6vectorIdSaIdEE12_M_check_lenEmPKc	#
	movq	%rax, -40(%rbp)	# _52, __len
# /usr/include/c++/12/bits/vector.tcc:650: 	      pointer __new_start(this->_M_allocate(__len));
	.loc 14 650 45
	movq	-56(%rbp), %rax	# this, _12
	movq	-40(%rbp), %rdx	# __len, tmp134
	movq	%rdx, %rsi	# tmp134,
	movq	%rax, %rdi	# _12,
	call	_ZNSt12_Vector_baseIdSaIdEE11_M_allocateEm	#
.LEHE12:
	movq	%rax, -48(%rbp)	# _55, __new_start
# /usr/include/c++/12/bits/vector.tcc:656: 			      __n, _M_get_Tp_allocator());
	.loc 14 656 34
	movq	-56(%rbp), %rax	# this, _13
	movq	%rax, %rdi	# _13,
	call	_ZNSt12_Vector_baseIdSaIdEE19_M_get_Tp_allocatorEv	#
	movq	%rax, %rdx	#, _14
# /usr/include/c++/12/bits/vector.tcc:655: 		      std::__uninitialized_default_n_a(__new_start + __size,
	.loc 14 655 54
	movq	-24(%rbp), %rax	# __size, tmp135
	leaq	0(,%rax,8), %rcx	#, _15
# /usr/include/c++/12/bits/vector.tcc:655: 		      std::__uninitialized_default_n_a(__new_start + __size,
	.loc 14 655 41
	movq	-48(%rbp), %rax	# __new_start, tmp136
	addq	%rax, %rcx	# tmp136, _16
	movq	-64(%rbp), %rax	# __n, tmp137
	movq	%rax, %rsi	# tmp137,
	movq	%rcx, %rdi	# _16,
.LEHB13:
	call	_ZSt27__uninitialized_default_n_aIPdmdET_S1_T0_RSaIT1_E	#
.LEHE13:
# /usr/include/c++/12/bits/vector.tcc:664: 			      __new_start, _M_get_Tp_allocator());
	.loc 14 664 42
	movq	-56(%rbp), %rax	# this, _19
	movq	%rax, %rdi	# _19,
	call	_ZNSt12_Vector_baseIdSaIdEE19_M_get_Tp_allocatorEv	#
	movq	%rax, %rcx	#, _20
# /usr/include/c++/12/bits/vector.tcc:663: 		  _S_relocate(this->_M_impl._M_start, this->_M_impl._M_finish,
	.loc 14 663 16
	movq	-56(%rbp), %rax	# this, tmp138
	movq	8(%rax), %rsi	# this_42(D)->D.58579._M_impl.D.57918._M_finish, _21
	movq	-56(%rbp), %rax	# this, tmp139
	movq	(%rax), %rax	# this_42(D)->D.58579._M_impl.D.57918._M_start, _22
	movq	-48(%rbp), %rdx	# __new_start, tmp140
	movq	%rax, %rdi	# _22,
	call	_ZNSt6vectorIdSaIdEE11_S_relocateEPdS2_S2_RS0_	#
# /usr/include/c++/12/bits/vector.tcc:690: 	      _M_deallocate(this->_M_impl._M_start,
	.loc 14 690 21
	movq	-56(%rbp), %rax	# this, _23
# /usr/include/c++/12/bits/vector.tcc:691: 			    this->_M_impl._M_end_of_storage
	.loc 14 691 22
	movq	-56(%rbp), %rdx	# this, tmp141
	movq	16(%rdx), %rcx	# this_42(D)->D.58579._M_impl.D.57918._M_end_of_storage, _24
# /usr/include/c++/12/bits/vector.tcc:692: 			    - this->_M_impl._M_start);
	.loc 14 692 24
	movq	-56(%rbp), %rdx	# this, tmp142
	movq	(%rdx), %rdx	# this_42(D)->D.58579._M_impl.D.57918._M_start, _25
# /usr/include/c++/12/bits/vector.tcc:692: 			    - this->_M_impl._M_start);
	.loc 14 692 8
	subq	%rdx, %rcx	# _25, _26
	sarq	$3, %rcx	#, _26
	movq	%rcx, %rdx	# _26, tmp143
# /usr/include/c++/12/bits/vector.tcc:690: 	      _M_deallocate(this->_M_impl._M_start,
	.loc 14 690 21
	movq	%rdx, %rsi	# _27, _28
	movq	-56(%rbp), %rdx	# this, tmp144
	movq	(%rdx), %rcx	# this_42(D)->D.58579._M_impl.D.57918._M_start, _29
	movq	%rsi, %rdx	# _28,
	movq	%rcx, %rsi	# _29,
	movq	%rax, %rdi	# _23,
.LEHB14:
	call	_ZNSt12_Vector_baseIdSaIdEE13_M_deallocateEPdm	#
.LEHE14:
# /usr/include/c++/12/bits/vector.tcc:693: 	      this->_M_impl._M_start = __new_start;
	.loc 14 693 31
	movq	-56(%rbp), %rax	# this, tmp145
	movq	-48(%rbp), %rdx	# __new_start, tmp146
	movq	%rdx, (%rax)	# tmp146, this_42(D)->D.58579._M_impl.D.57918._M_start
# /usr/include/c++/12/bits/vector.tcc:694: 	      this->_M_impl._M_finish = __new_start + __size + __n;
	.loc 14 694 55
	movq	-24(%rbp), %rdx	# __size, tmp147
	movq	-64(%rbp), %rax	# __n, tmp148
	addq	%rdx, %rax	# tmp147, _30
	leaq	0(,%rax,8), %rdx	#, _31
	movq	-48(%rbp), %rax	# __new_start, tmp149
	addq	%rax, %rdx	# tmp149, _32
# /usr/include/c++/12/bits/vector.tcc:694: 	      this->_M_impl._M_finish = __new_start + __size + __n;
	.loc 14 694 32
	movq	-56(%rbp), %rax	# this, tmp150
	movq	%rdx, 8(%rax)	# _32, this_42(D)->D.58579._M_impl.D.57918._M_finish
# /usr/include/c++/12/bits/vector.tcc:695: 	      this->_M_impl._M_end_of_storage = __new_start + __len;
	.loc 14 695 54
	movq	-40(%rbp), %rax	# __len, tmp151
	leaq	0(,%rax,8), %rdx	#, _33
	movq	-48(%rbp), %rax	# __new_start, tmp152
	addq	%rax, %rdx	# tmp152, _34
# /usr/include/c++/12/bits/vector.tcc:695: 	      this->_M_impl._M_end_of_storage = __new_start + __len;
	.loc 14 695 40
	movq	-56(%rbp), %rax	# this, tmp153
	movq	%rdx, 16(%rax)	# _34, this_42(D)->D.58579._M_impl.D.57918._M_end_of_storage
.LBE27:
.LBE29:
.LBE31:
.LBE33:
# /usr/include/c++/12/bits/vector.tcc:698:     }
	.loc 14 698 5
	jmp	.L104	#
.L102:
.LBB34:
.LBB32:
.LBB30:
.LBB28:
# /usr/include/c++/12/bits/vector.tcc:658: 		  __catch(...)
	.loc 14 658 5
	movq	%rax, %rdi	# _17,
	call	__cxa_begin_catch@PLT	#
# /usr/include/c++/12/bits/vector.tcc:660: 		      _M_deallocate(__new_start, __len);
	.loc 14 660 22
	movq	-56(%rbp), %rax	# this, _18
	movq	-40(%rbp), %rdx	# __len, tmp155
	movq	-48(%rbp), %rcx	# __new_start, tmp156
	movq	%rcx, %rsi	# tmp156,
	movq	%rax, %rdi	# _18,
.LEHB15:
	call	_ZNSt12_Vector_baseIdSaIdEE13_M_deallocateEPdm	#
# /usr/include/c++/12/bits/vector.tcc:661: 		      __throw_exception_again;
	.loc 14 661 9
	call	__cxa_rethrow@PLT	#
.LEHE15:
.L103:
# /usr/include/c++/12/bits/vector.tcc:658: 		  __catch(...)
	.loc 14 658 5
	movq	%rax, %rbx	#, tmp157
	call	__cxa_end_catch@PLT	#
	movq	%rbx, %rax	# tmp157, D.66236
	movq	%rax, %rdi	# D.66236,
.LEHB16:
	call	_Unwind_Resume@PLT	#
.LEHE16:
.L104:
.LBE28:
.LBE30:
.LBE32:
.LBE34:
# /usr/include/c++/12/bits/vector.tcc:698:     }
	.loc 14 698 5
	nop	
	movq	-8(%rbp), %rbx	#,
	leave	
	.cfi_def_cfa 7, 8
	ret	
	.cfi_endproc
.LFE3090:
	.section	.gcc_except_table
	.align 4
.LLSDA3090:
	.byte	0xff
	.byte	0x9b
	.uleb128 .LLSDATT3090-.LLSDATTD3090
.LLSDATTD3090:
	.byte	0x1
	.uleb128 .LLSDACSE3090-.LLSDACSB3090
.LLSDACSB3090:
	.uleb128 .LEHB12-.LFB3090
	.uleb128 .LEHE12-.LEHB12
	.uleb128 0
	.uleb128 0
	.uleb128 .LEHB13-.LFB3090
	.uleb128 .LEHE13-.LEHB13
	.uleb128 .L102-.LFB3090
	.uleb128 0x1
	.uleb128 .LEHB14-.LFB3090
	.uleb128 .LEHE14-.LEHB14
	.uleb128 0
	.uleb128 0
	.uleb128 .LEHB15-.LFB3090
	.uleb128 .LEHE15-.LEHB15
	.uleb128 .L103-.LFB3090
	.uleb128 0
	.uleb128 .LEHB16-.LFB3090
	.uleb128 .LEHE16-.LEHB16
	.uleb128 0
	.uleb128 0
.LLSDACSE3090:
	.byte	0x1
	.byte	0
	.align 4
	.long	0

.LLSDATT3090:
	.section	.text._ZNSt6vectorIdSaIdEE17_M_default_appendEm,"axG",@progbits,_ZNSt6vectorIdSaIdEE17_M_default_appendEm,comdat
	.size	_ZNSt6vectorIdSaIdEE17_M_default_appendEm, .-_ZNSt6vectorIdSaIdEE17_M_default_appendEm
	.section	.text._ZNSt6vectorIdSaIdEE15_M_erase_at_endEPd,"axG",@progbits,_ZNSt6vectorIdSaIdEE15_M_erase_at_endEPd,comdat
	.align 2
	.weak	_ZNSt6vectorIdSaIdEE15_M_erase_at_endEPd
	.type	_ZNSt6vectorIdSaIdEE15_M_erase_at_endEPd, @function
_ZNSt6vectorIdSaIdEE15_M_erase_at_endEPd:
.LFB3095:
	.loc 6 1928 7
	.cfi_startproc
	.cfi_personality 0x9b,DW.ref.__gxx_personality_v0
	.cfi_lsda 0x1b,.LLSDA3095
	pushq	%rbp	#
	.cfi_def_cfa_offset 16
	.cfi_offset 6, -16
	movq	%rsp, %rbp	#,
	.cfi_def_cfa_register 6
	subq	$32, %rsp	#,
	movq	%rdi, -24(%rbp)	# this, this
	movq	%rsi, -32(%rbp)	# __pos, __pos
.LBB35:
# /usr/include/c++/12/bits/stl_vector.h:1930: 	if (size_type __n = this->_M_impl._M_finish - __pos)
	.loc 6 1930 36
	movq	-24(%rbp), %rax	# this, tmp88
	movq	8(%rax), %rax	# this_9(D)->D.58579._M_impl.D.57918._M_finish, _1
# /usr/include/c++/12/bits/stl_vector.h:1930: 	if (size_type __n = this->_M_impl._M_finish - __pos)
	.loc 6 1930 46
	subq	-32(%rbp), %rax	# __pos, _2
	sarq	$3, %rax	#, tmp89
# /usr/include/c++/12/bits/stl_vector.h:1930: 	if (size_type __n = this->_M_impl._M_finish - __pos)
	.loc 6 1930 16
	movq	%rax, -8(%rbp)	# _3, __n
# /usr/include/c++/12/bits/stl_vector.h:1930: 	if (size_type __n = this->_M_impl._M_finish - __pos)
	.loc 6 1930 2
	cmpq	$0, -8(%rbp)	#, __n
	je	.L107	#,
# /usr/include/c++/12/bits/stl_vector.h:1933: 			  _M_get_Tp_allocator());
	.loc 6 1933 25
	movq	-24(%rbp), %rax	# this, _4
	movq	%rax, %rdi	# _4,
	call	_ZNSt12_Vector_baseIdSaIdEE19_M_get_Tp_allocatorEv	#
	movq	%rax, %rdx	#, _5
# /usr/include/c++/12/bits/stl_vector.h:1932: 	    std::_Destroy(__pos, this->_M_impl._M_finish,
	.loc 6 1932 19
	movq	-24(%rbp), %rax	# this, tmp90
	movq	8(%rax), %rcx	# this_9(D)->D.58579._M_impl.D.57918._M_finish, _6
	movq	-32(%rbp), %rax	# __pos, tmp91
	movq	%rcx, %rsi	# _6,
	movq	%rax, %rdi	# tmp91,
	call	_ZSt8_DestroyIPddEvT_S1_RSaIT0_E	#
# /usr/include/c++/12/bits/stl_vector.h:1934: 	    this->_M_impl._M_finish = __pos;
	.loc 6 1934 30
	movq	-24(%rbp), %rax	# this, tmp92
	movq	-32(%rbp), %rdx	# __pos, tmp93
	movq	%rdx, 8(%rax)	# tmp93, this_9(D)->D.58579._M_impl.D.57918._M_finish
.L107:
.LBE35:
# /usr/include/c++/12/bits/stl_vector.h:1937:       }
	.loc 6 1937 7
	nop	
	leave	
	.cfi_def_cfa 7, 8
	ret	
	.cfi_endproc
.LFE3095:
	.section	.gcc_except_table
.LLSDA3095:
	.byte	0xff
	.byte	0xff
	.byte	0x1
	.uleb128 .LLSDACSE3095-.LLSDACSB3095
.LLSDACSB3095:
.LLSDACSE3095:
	.section	.text._ZNSt6vectorIdSaIdEE15_M_erase_at_endEPd,"axG",@progbits,_ZNSt6vectorIdSaIdEE15_M_erase_at_endEPd,comdat
	.size	_ZNSt6vectorIdSaIdEE15_M_erase_at_endEPd, .-_ZNSt6vectorIdSaIdEE15_M_erase_at_endEPd
	.section	.text._ZSt8_DestroyIPdEvT_S1_,"axG",@progbits,_ZSt8_DestroyIPdEvT_S1_,comdat
	.weak	_ZSt8_DestroyIPdEvT_S1_
	.type	_ZSt8_DestroyIPdEvT_S1_, @function
_ZSt8_DestroyIPdEvT_S1_:
.LFB3096:
	.file 15 "/usr/include/c++/12/bits/stl_construct.h"
	.loc 15 182 5
	.cfi_startproc
	pushq	%rbp	#
	.cfi_def_cfa_offset 16
	.cfi_offset 6, -16
	movq	%rsp, %rbp	#,
	.cfi_def_cfa_register 6
	subq	$16, %rsp	#,
	movq	%rdi, -8(%rbp)	# __first, __first
	movq	%rsi, -16(%rbp)	# __last, __last
# /usr/include/c++/12/bits/stl_construct.h:196: 	__destroy(__first, __last);
	.loc 15 196 11
	movq	-16(%rbp), %rdx	# __last, tmp82
	movq	-8(%rbp), %rax	# __first, tmp83
	movq	%rdx, %rsi	# tmp82,
	movq	%rax, %rdi	# tmp83,
	call	_ZNSt12_Destroy_auxILb1EE9__destroyIPdEEvT_S3_	#
# /usr/include/c++/12/bits/stl_construct.h:197:     }
	.loc 15 197 5
	nop	
	leave	
	.cfi_def_cfa 7, 8
	ret	
	.cfi_endproc
.LFE3096:
	.size	_ZSt8_DestroyIPdEvT_S1_, .-_ZSt8_DestroyIPdEvT_S1_
	.section	.text._ZNSt12_Vector_baseIlSaIlEE13_M_deallocateEPlm,"axG",@progbits,_ZNSt12_Vector_baseIlSaIlEE13_M_deallocateEPlm,comdat
	.align 2
	.weak	_ZNSt12_Vector_baseIlSaIlEE13_M_deallocateEPlm
	.type	_ZNSt12_Vector_baseIlSaIlEE13_M_deallocateEPlm, @function
_ZNSt12_Vector_baseIlSaIlEE13_M_deallocateEPlm:
.LFB3097:
	.loc 6 383 7
	.cfi_startproc
	pushq	%rbp	#
	.cfi_def_cfa_offset 16
	.cfi_offset 6, -16
	movq	%rsp, %rbp	#,
	.cfi_def_cfa_register 6
	subq	$32, %rsp	#,
	movq	%rdi, -8(%rbp)	# this, this
	movq	%rsi, -16(%rbp)	# __p, __p
	movq	%rdx, -24(%rbp)	# __n, __n
# /usr/include/c++/12/bits/stl_vector.h:386: 	if (__p)
	.loc 6 386 2
	cmpq	$0, -16(%rbp)	#, __p
	je	.L111	#,
# /usr/include/c++/12/bits/stl_vector.h:387: 	  _Tr::deallocate(_M_impl, __p, __n);
	.loc 6 387 20
	movq	-8(%rbp), %rax	# this, _1
# /usr/include/c++/12/bits/stl_vector.h:387: 	  _Tr::deallocate(_M_impl, __p, __n);
	.loc 6 387 19
	movq	-24(%rbp), %rdx	# __n, tmp83
	movq	-16(%rbp), %rcx	# __p, tmp84
	movq	%rcx, %rsi	# tmp84,
	movq	%rax, %rdi	# _1,
	call	_ZNSt16allocator_traitsISaIlEE10deallocateERS0_Plm	#
.L111:
# /usr/include/c++/12/bits/stl_vector.h:388:       }
	.loc 6 388 7
	nop	
	leave	
	.cfi_def_cfa 7, 8
	ret	
	.cfi_endproc
.LFE3097:
	.size	_ZNSt12_Vector_baseIlSaIlEE13_M_deallocateEPlm, .-_ZNSt12_Vector_baseIlSaIlEE13_M_deallocateEPlm
	.section	.text._ZSt8_DestroyIPlEvT_S1_,"axG",@progbits,_ZSt8_DestroyIPlEvT_S1_,comdat
	.weak	_ZSt8_DestroyIPlEvT_S1_
	.type	_ZSt8_DestroyIPlEvT_S1_, @function
_ZSt8_DestroyIPlEvT_S1_:
.LFB3098:
	.loc 15 182 5
	.cfi_startproc
	pushq	%rbp	#
	.cfi_def_cfa_offset 16
	.cfi_offset 6, -16
	movq	%rsp, %rbp	#,
	.cfi_def_cfa_register 6
	subq	$16, %rsp	#,
	movq	%rdi, -8(%rbp)	# __first, __first
	movq	%rsi, -16(%rbp)	# __last, __last
# /usr/include/c++/12/bits/stl_construct.h:196: 	__destroy(__first, __last);
	.loc 15 196 11
	movq	-16(%rbp), %rdx	# __last, tmp82
	movq	-8(%rbp), %rax	# __first, tmp83
	movq	%rdx, %rsi	# tmp82,
	movq	%rax, %rdi	# tmp83,
	call	_ZNSt12_Destroy_auxILb1EE9__destroyIPlEEvT_S3_	#
# /usr/include/c++/12/bits/stl_construct.h:197:     }
	.loc 15 197 5
	nop	
	leave	
	.cfi_def_cfa 7, 8
	ret	
	.cfi_endproc
.LFE3098:
	.size	_ZSt8_DestroyIPlEvT_S1_, .-_ZSt8_DestroyIPlEvT_S1_
	.section	.text._ZNSt15__new_allocatorIdEC2Ev,"axG",@progbits,_ZNSt15__new_allocatorIdEC5Ev,comdat
	.align 2
	.weak	_ZNSt15__new_allocatorIdEC2Ev
	.type	_ZNSt15__new_allocatorIdEC2Ev, @function
_ZNSt15__new_allocatorIdEC2Ev:
.LFB3154:
	.loc 10 80 7
	.cfi_startproc
	pushq	%rbp	#
	.cfi_def_cfa_offset 16
	.cfi_offset 6, -16
	movq	%rsp, %rbp	#,
	.cfi_def_cfa_register 6
	movq	%rdi, -8(%rbp)	# this, this
# /usr/include/c++/12/bits/new_allocator.h:80:       __new_allocator() _GLIBCXX_USE_NOEXCEPT { }
	.loc 10 80 49
	nop	
	popq	%rbp	#
	.cfi_def_cfa 7, 8
	ret	
	.cfi_endproc
.LFE3154:
	.size	_ZNSt15__new_allocatorIdEC2Ev, .-_ZNSt15__new_allocatorIdEC2Ev
	.weak	_ZNSt15__new_allocatorIdEC1Ev
	.set	_ZNSt15__new_allocatorIdEC1Ev,_ZNSt15__new_allocatorIdEC2Ev
	.section	.text._ZNSt16allocator_traitsISaIdEE10deallocateERS0_Pdm,"axG",@progbits,_ZNSt16allocator_traitsISaIdEE10deallocateERS0_Pdm,comdat
	.weak	_ZNSt16allocator_traitsISaIdEE10deallocateERS0_Pdm
	.type	_ZNSt16allocator_traitsISaIdEE10deallocateERS0_Pdm, @function
_ZNSt16allocator_traitsISaIdEE10deallocateERS0_Pdm:
.LFB3156:
	.loc 9 495 7
	.cfi_startproc
	pushq	%rbp	#
	.cfi_def_cfa_offset 16
	.cfi_offset 6, -16
	movq	%rsp, %rbp	#,
	.cfi_def_cfa_register 6
	subq	$32, %rsp	#,
	movq	%rdi, -8(%rbp)	# __a, __a
	movq	%rsi, -16(%rbp)	# __p, __p
	movq	%rdx, -24(%rbp)	# __n, __n
# /usr/include/c++/12/bits/alloc_traits.h:496:       { __a.deallocate(__p, __n); }
	.loc 9 496 23
	movq	-24(%rbp), %rdx	# __n, tmp82
	movq	-16(%rbp), %rcx	# __p, tmp83
	movq	-8(%rbp), %rax	# __a, tmp84
	movq	%rcx, %rsi	# tmp83,
	movq	%rax, %rdi	# tmp84,
	call	_ZNSt15__new_allocatorIdE10deallocateEPdm	#
# /usr/include/c++/12/bits/alloc_traits.h:496:       { __a.deallocate(__p, __n); }
	.loc 9 496 35
	nop	
	leave	
	.cfi_def_cfa 7, 8
	ret	
	.cfi_endproc
.LFE3156:
	.size	_ZNSt16allocator_traitsISaIdEE10deallocateERS0_Pdm, .-_ZNSt16allocator_traitsISaIdEE10deallocateERS0_Pdm
	.section	.text._ZNSt12_Vector_baseIlSaIlEE12_Vector_implC2ERKS0_,"axG",@progbits,_ZNSt12_Vector_baseIlSaIlEE12_Vector_implC5ERKS0_,comdat
	.align 2
	.weak	_ZNSt12_Vector_baseIlSaIlEE12_Vector_implC2ERKS0_
	.type	_ZNSt12_Vector_baseIlSaIlEE12_Vector_implC2ERKS0_, @function
_ZNSt12_Vector_baseIlSaIlEE12_Vector_implC2ERKS0_:
.LFB3158:
	.loc 6 143 2
	.cfi_startproc
	pushq	%rbp	#
	.cfi_def_cfa_offset 16
	.cfi_offset 6, -16
	movq	%rsp, %rbp	#,
	.cfi_def_cfa_register 6
	subq	$16, %rsp	#,
	movq	%rdi, -8(%rbp)	# this, this
	movq	%rsi, -16(%rbp)	# __a, __a
.LBB36:
# /usr/include/c++/12/bits/stl_vector.h:144: 	: _Tp_alloc_type(__a)
	.loc 6 144 22
	movq	-16(%rbp), %rdx	# __a, tmp83
	movq	-8(%rbp), %rax	# this, tmp84
	movq	%rdx, %rsi	# tmp83,
	movq	%rax, %rdi	# tmp84,
	call	_ZNSaIlEC2ERKS_	#
	movq	-8(%rbp), %rax	# this, _1
	movq	%rax, %rdi	# _1,
	call	_ZNSt12_Vector_baseIlSaIlEE17_Vector_impl_dataC2Ev	#
.LBE36:
# /usr/include/c++/12/bits/stl_vector.h:145: 	{ }
	.loc 6 145 4
	nop	
	leave	
	.cfi_def_cfa 7, 8
	ret	
	.cfi_endproc
.LFE3158:
	.size	_ZNSt12_Vector_baseIlSaIlEE12_Vector_implC2ERKS0_, .-_ZNSt12_Vector_baseIlSaIlEE12_Vector_implC2ERKS0_
	.weak	_ZNSt12_Vector_baseIlSaIlEE12_Vector_implC1ERKS0_
	.set	_ZNSt12_Vector_baseIlSaIlEE12_Vector_implC1ERKS0_,_ZNSt12_Vector_baseIlSaIlEE12_Vector_implC2ERKS0_
	.section	.text._ZNKSt16initializer_listIlE4sizeEv,"axG",@progbits,_ZNKSt16initializer_listIlE4sizeEv,comdat
	.align 2
	.weak	_ZNKSt16initializer_listIlE4sizeEv
	.type	_ZNKSt16initializer_listIlE4sizeEv, @function
_ZNKSt16initializer_listIlE4sizeEv:
.LFB3160:
	.loc 11 71 7
	.cfi_startproc
	pushq	%rbp	#
	.cfi_def_cfa_offset 16
	.cfi_offset 6, -16
	movq	%rsp, %rbp	#,
	.cfi_def_cfa_register 6
	movq	%rdi, -8(%rbp)	# this, this
# /usr/include/c++/12/initializer_list:71:       size() const noexcept { return _M_len; }
	.loc 11 71 38
	movq	-8(%rbp), %rax	# this, tmp84
	movq	8(%rax), %rax	# this_2(D)->_M_len, _3
# /usr/include/c++/12/initializer_list:71:       size() const noexcept { return _M_len; }
	.loc 11 71 46
	popq	%rbp	#
	.cfi_def_cfa 7, 8
	ret	
	.cfi_endproc
.LFE3160:
	.size	_ZNKSt16initializer_listIlE4sizeEv, .-_ZNKSt16initializer_listIlE4sizeEv
	.section	.text._ZSt19__iterator_categoryIPKlENSt15iterator_traitsIT_E17iterator_categoryERKS3_,"axG",@progbits,_ZSt19__iterator_categoryIPKlENSt15iterator_traitsIT_E17iterator_categoryERKS3_,comdat
	.weak	_ZSt19__iterator_categoryIPKlENSt15iterator_traitsIT_E17iterator_categoryERKS3_
	.type	_ZSt19__iterator_categoryIPKlENSt15iterator_traitsIT_E17iterator_categoryERKS3_, @function
_ZSt19__iterator_categoryIPKlENSt15iterator_traitsIT_E17iterator_categoryERKS3_:
.LFB3161:
	.file 16 "/usr/include/c++/12/bits/stl_iterator_base_types.h"
	.loc 16 238 5
	.cfi_startproc
	pushq	%rbp	#
	.cfi_def_cfa_offset 16
	.cfi_offset 6, -16
	movq	%rsp, %rbp	#,
	.cfi_def_cfa_register 6
	movq	%rdi, -8(%rbp)	# D.64880, D.64880
# /usr/include/c++/12/bits/stl_iterator_base_types.h:239:     { return typename iterator_traits<_Iter>::iterator_category(); }
	.loc 16 239 65
	nop	
# /usr/include/c++/12/bits/stl_iterator_base_types.h:239:     { return typename iterator_traits<_Iter>::iterator_category(); }
	.loc 16 239 68
	popq	%rbp	#
	.cfi_def_cfa 7, 8
	ret	
	.cfi_endproc
.LFE3161:
	.size	_ZSt19__iterator_categoryIPKlENSt15iterator_traitsIT_E17iterator_categoryERKS3_, .-_ZSt19__iterator_categoryIPKlENSt15iterator_traitsIT_E17iterator_categoryERKS3_
	.section	.text._ZSt10__distanceIPKlENSt15iterator_traitsIT_E15difference_typeES3_S3_St26random_access_iterator_tag,"axG",@progbits,_ZSt10__distanceIPKlENSt15iterator_traitsIT_E15difference_typeES3_S3_St26random_access_iterator_tag,comdat
	.weak	_ZSt10__distanceIPKlENSt15iterator_traitsIT_E15difference_typeES3_S3_St26random_access_iterator_tag
	.type	_ZSt10__distanceIPKlENSt15iterator_traitsIT_E15difference_typeES3_S3_St26random_access_iterator_tag, @function
_ZSt10__distanceIPKlENSt15iterator_traitsIT_E15difference_typeES3_S3_St26random_access_iterator_tag:
.LFB3162:
	.loc 12 99 5
	.cfi_startproc
	pushq	%rbp	#
	.cfi_def_cfa_offset 16
	.cfi_offset 6, -16
	movq	%rsp, %rbp	#,
	.cfi_def_cfa_register 6
	movq	%rdi, -8(%rbp)	# __first, __first
	movq	%rsi, -16(%rbp)	# __last, __last
# /usr/include/c++/12/bits/stl_iterator_base_funcs.h:105:       return __last - __first;
	.loc 12 105 21
	movq	-16(%rbp), %rax	# __last, tmp85
	subq	-8(%rbp), %rax	# __first, _1
# /usr/include/c++/12/bits/stl_iterator_base_funcs.h:105:       return __last - __first;
	.loc 12 105 23
	sarq	$3, %rax	#, tmp86
# /usr/include/c++/12/bits/stl_iterator_base_funcs.h:106:     }
	.loc 12 106 5
	popq	%rbp	#
	.cfi_def_cfa 7, 8
	ret	
	.cfi_endproc
.LFE3162:
	.size	_ZSt10__distanceIPKlENSt15iterator_traitsIT_E15difference_typeES3_S3_St26random_access_iterator_tag, .-_ZSt10__distanceIPKlENSt15iterator_traitsIT_E15difference_typeES3_S3_St26random_access_iterator_tag
	.section	.rodata
	.align 8
.LC3:
	.string	"cannot create std::vector larger than max_size()"
	.section	.text._ZNSt6vectorIlSaIlEE17_S_check_init_lenEmRKS0_,"axG",@progbits,_ZNSt6vectorIlSaIlEE17_S_check_init_lenEmRKS0_,comdat
	.weak	_ZNSt6vectorIlSaIlEE17_S_check_init_lenEmRKS0_
	.type	_ZNSt6vectorIlSaIlEE17_S_check_init_lenEmRKS0_, @function
_ZNSt6vectorIlSaIlEE17_S_check_init_lenEmRKS0_:
.LFB3163:
	.loc 6 1902 7
	.cfi_startproc
	pushq	%rbp	#
	.cfi_def_cfa_offset 16
	.cfi_offset 6, -16
	movq	%rsp, %rbp	#,
	.cfi_def_cfa_register 6
	pushq	%rbx	#
	subq	$40, %rsp	#,
	.cfi_offset 3, -24
	movq	%rdi, -40(%rbp)	# __n, __n
	movq	%rsi, -48(%rbp)	# __a, __a
# /usr/include/c++/12/bits/stl_vector.h:1904: 	if (__n > _S_max_size(_Tp_alloc_type(__a)))
	.loc 6 1904 24
	movq	-48(%rbp), %rdx	# __a, tmp86
	leaq	-17(%rbp), %rax	#, tmp87
	movq	%rdx, %rsi	# tmp86,
	movq	%rax, %rdi	# tmp87,
	call	_ZNSaIlEC1ERKS_	#
# /usr/include/c++/12/bits/stl_vector.h:1904: 	if (__n > _S_max_size(_Tp_alloc_type(__a)))
	.loc 6 1904 23
	leaq	-17(%rbp), %rax	#, tmp88
	movq	%rax, %rdi	# tmp88,
	call	_ZNSt6vectorIlSaIlEE11_S_max_sizeERKS0_	#
# /usr/include/c++/12/bits/stl_vector.h:1904: 	if (__n > _S_max_size(_Tp_alloc_type(__a)))
	.loc 6 1904 10
	cmpq	-40(%rbp), %rax	# __n, _1
	setb	%bl	#, retval.4_7
# /usr/include/c++/12/bits/stl_vector.h:1904: 	if (__n > _S_max_size(_Tp_alloc_type(__a)))
	.loc 6 1904 24
	leaq	-17(%rbp), %rax	#, tmp89
	movq	%rax, %rdi	# tmp89,
	call	_ZNSaIlED1Ev	#
# /usr/include/c++/12/bits/stl_vector.h:1904: 	if (__n > _S_max_size(_Tp_alloc_type(__a)))
	.loc 6 1904 2
	testb	%bl, %bl	# retval.4_7
	je	.L123	#,
# /usr/include/c++/12/bits/stl_vector.h:1905: 	  __throw_length_error(
	.loc 6 1905 24
	leaq	.LC3(%rip), %rax	#, tmp90
	movq	%rax, %rdi	# tmp90,
	call	_ZSt20__throw_length_errorPKc@PLT	#
.L123:
# /usr/include/c++/12/bits/stl_vector.h:1907: 	return __n;
	.loc 6 1907 9
	movq	-40(%rbp), %rax	# __n, _10
# /usr/include/c++/12/bits/stl_vector.h:1908:       }
	.loc 6 1908 7
	movq	-8(%rbp), %rbx	#,
	leave	
	.cfi_def_cfa 7, 8
	ret	
	.cfi_endproc
.LFE3163:
	.size	_ZNSt6vectorIlSaIlEE17_S_check_init_lenEmRKS0_, .-_ZNSt6vectorIlSaIlEE17_S_check_init_lenEmRKS0_
	.section	.text._ZNSt12_Vector_baseIlSaIlEE11_M_allocateEm,"axG",@progbits,_ZNSt12_Vector_baseIlSaIlEE11_M_allocateEm,comdat
	.align 2
	.weak	_ZNSt12_Vector_baseIlSaIlEE11_M_allocateEm
	.type	_ZNSt12_Vector_baseIlSaIlEE11_M_allocateEm, @function
_ZNSt12_Vector_baseIlSaIlEE11_M_allocateEm:
.LFB3164:
	.loc 6 375 7
	.cfi_startproc
	pushq	%rbp	#
	.cfi_def_cfa_offset 16
	.cfi_offset 6, -16
	movq	%rsp, %rbp	#,
	.cfi_def_cfa_register 6
	subq	$16, %rsp	#,
	movq	%rdi, -8(%rbp)	# this, this
	movq	%rsi, -16(%rbp)	# __n, __n
# /usr/include/c++/12/bits/stl_vector.h:378: 	return __n != 0 ? _Tr::allocate(_M_impl, __n) : pointer();
	.loc 6 378 18
	cmpq	$0, -16(%rbp)	#, __n
	je	.L126	#,
# /usr/include/c++/12/bits/stl_vector.h:378: 	return __n != 0 ? _Tr::allocate(_M_impl, __n) : pointer();
	.loc 6 378 34 discriminator 1
	movq	-8(%rbp), %rax	# this, _1
# /usr/include/c++/12/bits/stl_vector.h:378: 	return __n != 0 ? _Tr::allocate(_M_impl, __n) : pointer();
	.loc 6 378 33 discriminator 1
	movq	-16(%rbp), %rdx	# __n, tmp85
	movq	%rdx, %rsi	# tmp85,
	movq	%rax, %rdi	# _1,
	call	_ZNSt16allocator_traitsISaIlEE8allocateERS0_m	#
# /usr/include/c++/12/bits/stl_vector.h:378: 	return __n != 0 ? _Tr::allocate(_M_impl, __n) : pointer();
	.loc 6 378 58 discriminator 1
	jmp	.L128	#
.L126:
# /usr/include/c++/12/bits/stl_vector.h:378: 	return __n != 0 ? _Tr::allocate(_M_impl, __n) : pointer();
	.loc 6 378 18 discriminator 2
	movl	$0, %eax	#, _9
.L128:
# /usr/include/c++/12/bits/stl_vector.h:379:       }
	.loc 6 379 7 discriminator 5
	leave	
	.cfi_def_cfa 7, 8
	ret	
	.cfi_endproc
.LFE3164:
	.size	_ZNSt12_Vector_baseIlSaIlEE11_M_allocateEm, .-_ZNSt12_Vector_baseIlSaIlEE11_M_allocateEm
	.section	.text._ZSt22__uninitialized_copy_aIPKlPllET0_T_S4_S3_RSaIT1_E,"axG",@progbits,_ZSt22__uninitialized_copy_aIPKlPllET0_T_S4_S3_RSaIT1_E,comdat
	.weak	_ZSt22__uninitialized_copy_aIPKlPllET0_T_S4_S3_RSaIT1_E
	.type	_ZSt22__uninitialized_copy_aIPKlPllET0_T_S4_S3_RSaIT1_E, @function
_ZSt22__uninitialized_copy_aIPKlPllET0_T_S4_S3_RSaIT1_E:
.LFB3165:
	.file 17 "/usr/include/c++/12/bits/stl_uninitialized.h"
	.loc 17 365 5
	.cfi_startproc
	pushq	%rbp	#
	.cfi_def_cfa_offset 16
	.cfi_offset 6, -16
	movq	%rsp, %rbp	#,
	.cfi_def_cfa_register 6
	subq	$32, %rsp	#,
	movq	%rdi, -8(%rbp)	# __first, __first
	movq	%rsi, -16(%rbp)	# __last, __last
	movq	%rdx, -24(%rbp)	# __result, __result
	movq	%rcx, -32(%rbp)	# D.64905, D.64905
# /usr/include/c++/12/bits/stl_uninitialized.h:372:       return std::uninitialized_copy(__first, __last, __result);
	.loc 17 372 37
	movq	-24(%rbp), %rdx	# __result, tmp84
	movq	-16(%rbp), %rcx	# __last, tmp85
	movq	-8(%rbp), %rax	# __first, tmp86
	movq	%rcx, %rsi	# tmp85,
	movq	%rax, %rdi	# tmp86,
	call	_ZSt18uninitialized_copyIPKlPlET0_T_S4_S3_	#
# /usr/include/c++/12/bits/stl_uninitialized.h:373:     }
	.loc 17 373 5
	leave	
	.cfi_def_cfa 7, 8
	ret	
	.cfi_endproc
.LFE3165:
	.size	_ZSt22__uninitialized_copy_aIPKlPllET0_T_S4_S3_RSaIT1_E, .-_ZSt22__uninitialized_copy_aIPKlPllET0_T_S4_S3_RSaIT1_E
	.section	.text._ZNK9__gnu_cxx17__normal_iteratorIPlSt6vectorIlSaIlEEE4baseEv,"axG",@progbits,_ZNK9__gnu_cxx17__normal_iteratorIPlSt6vectorIlSaIlEEE4baseEv,comdat
	.align 2
	.weak	_ZNK9__gnu_cxx17__normal_iteratorIPlSt6vectorIlSaIlEEE4baseEv
	.type	_ZNK9__gnu_cxx17__normal_iteratorIPlSt6vectorIlSaIlEEE4baseEv, @function
_ZNK9__gnu_cxx17__normal_iteratorIPlSt6vectorIlSaIlEEE4baseEv:
.LFB3166:
	.loc 13 1158 7
	.cfi_startproc
	pushq	%rbp	#
	.cfi_def_cfa_offset 16
	.cfi_offset 6, -16
	movq	%rsp, %rbp	#,
	.cfi_def_cfa_register 6
	movq	%rdi, -8(%rbp)	# this, this
# /usr/include/c++/12/bits/stl_iterator.h:1159:       { return _M_current; }
	.loc 13 1159 16
	movq	-8(%rbp), %rax	# this, _2
# /usr/include/c++/12/bits/stl_iterator.h:1159:       { return _M_current; }
	.loc 13 1159 28
	popq	%rbp	#
	.cfi_def_cfa 7, 8
	ret	
	.cfi_endproc
.LFE3166:
	.size	_ZNK9__gnu_cxx17__normal_iteratorIPlSt6vectorIlSaIlEEE4baseEv, .-_ZNK9__gnu_cxx17__normal_iteratorIPlSt6vectorIlSaIlEEE4baseEv
	.section	.text._ZNKSt6vectorIdSaIdEE8max_sizeEv,"axG",@progbits,_ZNKSt6vectorIdSaIdEE8max_sizeEv,comdat
	.align 2
	.weak	_ZNKSt6vectorIdSaIdEE8max_sizeEv
	.type	_ZNKSt6vectorIdSaIdEE8max_sizeEv, @function
_ZNKSt6vectorIdSaIdEE8max_sizeEv:
.LFB3167:
	.loc 6 993 7
	.cfi_startproc
	pushq	%rbp	#
	.cfi_def_cfa_offset 16
	.cfi_offset 6, -16
	movq	%rsp, %rbp	#,
	.cfi_def_cfa_register 6
	subq	$16, %rsp	#,
	movq	%rdi, -8(%rbp)	# this, this
# /usr/include/c++/12/bits/stl_vector.h:994:       { return _S_max_size(_M_get_Tp_allocator()); }
	.loc 6 994 47
	movq	-8(%rbp), %rax	# this, _1
	movq	%rax, %rdi	# _1,
	call	_ZNKSt12_Vector_baseIdSaIdEE19_M_get_Tp_allocatorEv	#
# /usr/include/c++/12/bits/stl_vector.h:994:       { return _S_max_size(_M_get_Tp_allocator()); }
	.loc 6 994 27
	movq	%rax, %rdi	# _2,
	call	_ZNSt6vectorIdSaIdEE11_S_max_sizeERKS0_	#
# /usr/include/c++/12/bits/stl_vector.h:994:       { return _S_max_size(_M_get_Tp_allocator()); }
	.loc 6 994 52
	leave	
	.cfi_def_cfa 7, 8
	ret	
	.cfi_endproc
.LFE3167:
	.size	_ZNKSt6vectorIdSaIdEE8max_sizeEv, .-_ZNKSt6vectorIdSaIdEE8max_sizeEv
	.section	.text._ZSt27__uninitialized_default_n_aIPdmdET_S1_T0_RSaIT1_E,"axG",@progbits,_ZSt27__uninitialized_default_n_aIPdmdET_S1_T0_RSaIT1_E,comdat
	.weak	_ZSt27__uninitialized_default_n_aIPdmdET_S1_T0_RSaIT1_E
	.type	_ZSt27__uninitialized_default_n_aIPdmdET_S1_T0_RSaIT1_E, @function
_ZSt27__uninitialized_default_n_aIPdmdET_S1_T0_RSaIT1_E:
.LFB3168:
	.loc 17 764 5
	.cfi_startproc
	pushq	%rbp	#
	.cfi_def_cfa_offset 16
	.cfi_offset 6, -16
	movq	%rsp, %rbp	#,
	.cfi_def_cfa_register 6
	subq	$32, %rsp	#,
	movq	%rdi, -8(%rbp)	# __first, __first
	movq	%rsi, -16(%rbp)	# __n, __n
	movq	%rdx, -24(%rbp)	# D.64915, D.64915
# /usr/include/c++/12/bits/stl_uninitialized.h:766:     { return std::__uninitialized_default_n(__first, __n); }
	.loc 17 766 44
	movq	-16(%rbp), %rdx	# __n, tmp84
	movq	-8(%rbp), %rax	# __first, tmp85
	movq	%rdx, %rsi	# tmp84,
	movq	%rax, %rdi	# tmp85,
	call	_ZSt25__uninitialized_default_nIPdmET_S1_T0_	#
# /usr/include/c++/12/bits/stl_uninitialized.h:766:     { return std::__uninitialized_default_n(__first, __n); }
	.loc 17 766 60
	leave	
	.cfi_def_cfa 7, 8
	ret	
	.cfi_endproc
.LFE3168:
	.size	_ZSt27__uninitialized_default_n_aIPdmdET_S1_T0_RSaIT1_E, .-_ZSt27__uninitialized_default_n_aIPdmdET_S1_T0_RSaIT1_E
	.section	.text._ZNKSt6vectorIdSaIdEE12_M_check_lenEmPKc,"axG",@progbits,_ZNKSt6vectorIdSaIdEE12_M_check_lenEmPKc,comdat
	.align 2
	.weak	_ZNKSt6vectorIdSaIdEE12_M_check_lenEmPKc
	.type	_ZNKSt6vectorIdSaIdEE12_M_check_lenEmPKc, @function
_ZNKSt6vectorIdSaIdEE12_M_check_lenEmPKc:
.LFB3169:
	.loc 6 1891 7
	.cfi_startproc
	pushq	%rbp	#
	.cfi_def_cfa_offset 16
	.cfi_offset 6, -16
	movq	%rsp, %rbp	#,
	.cfi_def_cfa_register 6
	pushq	%rbx	#
	subq	$56, %rsp	#,
	.cfi_offset 3, -24
	movq	%rdi, -40(%rbp)	# this, this
	movq	%rsi, -48(%rbp)	# __n, __n
	movq	%rdx, -56(%rbp)	# __s, __s
# /usr/include/c++/12/bits/stl_vector.h:1893: 	if (max_size() - size() < __n)
	.loc 6 1893 14
	movq	-40(%rbp), %rax	# this, tmp95
	movq	%rax, %rdi	# tmp95,
	call	_ZNKSt6vectorIdSaIdEE8max_sizeEv	#
	movq	%rax, %rbx	#, _1
# /usr/include/c++/12/bits/stl_vector.h:1893: 	if (max_size() - size() < __n)
	.loc 6 1893 23
	movq	-40(%rbp), %rax	# this, tmp96
	movq	%rax, %rdi	# tmp96,
	call	_ZNKSt6vectorIdSaIdEE4sizeEv	#
# /usr/include/c++/12/bits/stl_vector.h:1893: 	if (max_size() - size() < __n)
	.loc 6 1893 17
	subq	%rax, %rbx	# _2, _1
	movq	%rbx, %rdx	# _1, _3
# /usr/include/c++/12/bits/stl_vector.h:1893: 	if (max_size() - size() < __n)
	.loc 6 1893 26
	movq	-48(%rbp), %rax	# __n, __n.16_4
	cmpq	%rax, %rdx	# __n.16_4, _3
	setb	%al	#, retval.15_18
# /usr/include/c++/12/bits/stl_vector.h:1893: 	if (max_size() - size() < __n)
	.loc 6 1893 2
	testb	%al, %al	# retval.15_18
	je	.L138	#,
# /usr/include/c++/12/bits/stl_vector.h:1894: 	  __throw_length_error(__N(__s));
	.loc 6 1894 24
	movq	-56(%rbp), %rax	# __s, tmp97
	movq	%rax, %rdi	# tmp97,
	call	_ZSt20__throw_length_errorPKc@PLT	#
.L138:
# /usr/include/c++/12/bits/stl_vector.h:1896: 	const size_type __len = size() + (std::max)(size(), __n);
	.loc 6 1896 30
	movq	-40(%rbp), %rax	# this, tmp98
	movq	%rax, %rdi	# tmp98,
	call	_ZNKSt6vectorIdSaIdEE4sizeEv	#
	movq	%rax, %rbx	#, _5
# /usr/include/c++/12/bits/stl_vector.h:1896: 	const size_type __len = size() + (std::max)(size(), __n);
	.loc 6 1896 50
	movq	-40(%rbp), %rax	# this, tmp99
	movq	%rax, %rdi	# tmp99,
	call	_ZNKSt6vectorIdSaIdEE4sizeEv	#
	movq	%rax, -32(%rbp)	# _6, D.64927
# /usr/include/c++/12/bits/stl_vector.h:1896: 	const size_type __len = size() + (std::max)(size(), __n);
	.loc 6 1896 45
	leaq	-48(%rbp), %rdx	#, tmp100
	leaq	-32(%rbp), %rax	#, tmp101
	movq	%rdx, %rsi	# tmp100,
	movq	%rax, %rdi	# tmp101,
	call	_ZSt3maxImERKT_S2_S2_	#
# /usr/include/c++/12/bits/stl_vector.h:1896: 	const size_type __len = size() + (std::max)(size(), __n);
	.loc 6 1896 33
	movq	(%rax), %rax	# *_7, _8
# /usr/include/c++/12/bits/stl_vector.h:1896: 	const size_type __len = size() + (std::max)(size(), __n);
	.loc 6 1896 18
	addq	%rbx, %rax	# _5, tmp102
	movq	%rax, -24(%rbp)	# tmp102, __len
# /usr/include/c++/12/bits/stl_vector.h:1897: 	return (__len < size() || __len > max_size()) ? max_size() : __len;
	.loc 6 1897 22
	movq	-40(%rbp), %rax	# this, tmp103
	movq	%rax, %rdi	# tmp103,
	call	_ZNKSt6vectorIdSaIdEE4sizeEv	#
# /usr/include/c++/12/bits/stl_vector.h:1897: 	return (__len < size() || __len > max_size()) ? max_size() : __len;
	.loc 6 1897 48
	cmpq	%rax, -24(%rbp)	# _9, __len
	jb	.L139	#,
# /usr/include/c++/12/bits/stl_vector.h:1897: 	return (__len < size() || __len > max_size()) ? max_size() : __len;
	.loc 6 1897 44 discriminator 2
	movq	-40(%rbp), %rax	# this, tmp104
	movq	%rax, %rdi	# tmp104,
	call	_ZNKSt6vectorIdSaIdEE8max_sizeEv	#
# /usr/include/c++/12/bits/stl_vector.h:1897: 	return (__len < size() || __len > max_size()) ? max_size() : __len;
	.loc 6 1897 25 discriminator 2
	cmpq	-24(%rbp), %rax	# __len, _10
	jnb	.L140	#,
.L139:
# /usr/include/c++/12/bits/stl_vector.h:1897: 	return (__len < size() || __len > max_size()) ? max_size() : __len;
	.loc 6 1897 58 discriminator 3
	movq	-40(%rbp), %rax	# this, tmp105
	movq	%rax, %rdi	# tmp105,
	call	_ZNKSt6vectorIdSaIdEE8max_sizeEv	#
# /usr/include/c++/12/bits/stl_vector.h:1897: 	return (__len < size() || __len > max_size()) ? max_size() : __len;
	.loc 6 1897 48 discriminator 3
	jmp	.L141	#
.L140:
# /usr/include/c++/12/bits/stl_vector.h:1897: 	return (__len < size() || __len > max_size()) ? max_size() : __len;
	.loc 6 1897 48 is_stmt 0 discriminator 4
	movq	-24(%rbp), %rax	# __len, iftmp.17_11
.L141:
# /usr/include/c++/12/bits/stl_vector.h:1898:       }
	.loc 6 1898 7 is_stmt 1 discriminator 6
	movq	-8(%rbp), %rbx	#,
	leave	
	.cfi_def_cfa 7, 8
	ret	
	.cfi_endproc
.LFE3169:
	.size	_ZNKSt6vectorIdSaIdEE12_M_check_lenEmPKc, .-_ZNKSt6vectorIdSaIdEE12_M_check_lenEmPKc
	.section	.text._ZNSt12_Vector_baseIdSaIdEE11_M_allocateEm,"axG",@progbits,_ZNSt12_Vector_baseIdSaIdEE11_M_allocateEm,comdat
	.align 2
	.weak	_ZNSt12_Vector_baseIdSaIdEE11_M_allocateEm
	.type	_ZNSt12_Vector_baseIdSaIdEE11_M_allocateEm, @function
_ZNSt12_Vector_baseIdSaIdEE11_M_allocateEm:
.LFB3170:
	.loc 6 375 7
	.cfi_startproc
	pushq	%rbp	#
	.cfi_def_cfa_offset 16
	.cfi_offset 6, -16
	movq	%rsp, %rbp	#,
	.cfi_def_cfa_register 6
	subq	$16, %rsp	#,
	movq	%rdi, -8(%rbp)	# this, this
	movq	%rsi, -16(%rbp)	# __n, __n
# /usr/include/c++/12/bits/stl_vector.h:378: 	return __n != 0 ? _Tr::allocate(_M_impl, __n) : pointer();
	.loc 6 378 18
	cmpq	$0, -16(%rbp)	#, __n
	je	.L144	#,
# /usr/include/c++/12/bits/stl_vector.h:378: 	return __n != 0 ? _Tr::allocate(_M_impl, __n) : pointer();
	.loc 6 378 34 discriminator 1
	movq	-8(%rbp), %rax	# this, _1
# /usr/include/c++/12/bits/stl_vector.h:378: 	return __n != 0 ? _Tr::allocate(_M_impl, __n) : pointer();
	.loc 6 378 33 discriminator 1
	movq	-16(%rbp), %rdx	# __n, tmp85
	movq	%rdx, %rsi	# tmp85,
	movq	%rax, %rdi	# _1,
	call	_ZNSt16allocator_traitsISaIdEE8allocateERS0_m	#
# /usr/include/c++/12/bits/stl_vector.h:378: 	return __n != 0 ? _Tr::allocate(_M_impl, __n) : pointer();
	.loc 6 378 58 discriminator 1
	jmp	.L146	#
.L144:
# /usr/include/c++/12/bits/stl_vector.h:378: 	return __n != 0 ? _Tr::allocate(_M_impl, __n) : pointer();
	.loc 6 378 18 discriminator 2
	movl	$0, %eax	#, _9
.L146:
# /usr/include/c++/12/bits/stl_vector.h:379:       }
	.loc 6 379 7 discriminator 5
	leave	
	.cfi_def_cfa 7, 8
	ret	
	.cfi_endproc
.LFE3170:
	.size	_ZNSt12_Vector_baseIdSaIdEE11_M_allocateEm, .-_ZNSt12_Vector_baseIdSaIdEE11_M_allocateEm
	.section	.text._ZNSt6vectorIdSaIdEE11_S_relocateEPdS2_S2_RS0_,"axG",@progbits,_ZNSt6vectorIdSaIdEE11_S_relocateEPdS2_S2_RS0_,comdat
	.weak	_ZNSt6vectorIdSaIdEE11_S_relocateEPdS2_S2_RS0_
	.type	_ZNSt6vectorIdSaIdEE11_S_relocateEPdS2_S2_RS0_, @function
_ZNSt6vectorIdSaIdEE11_S_relocateEPdS2_S2_RS0_:
.LFB3171:
	.loc 6 499 7
	.cfi_startproc
	pushq	%rbp	#
	.cfi_def_cfa_offset 16
	.cfi_offset 6, -16
	movq	%rsp, %rbp	#,
	.cfi_def_cfa_register 6
	subq	$32, %rsp	#,
	movq	%rdi, -8(%rbp)	# __first, __first
	movq	%rsi, -16(%rbp)	# __last, __last
	movq	%rdx, -24(%rbp)	# __result, __result
	movq	%rcx, -32(%rbp)	# __alloc, __alloc
# /usr/include/c++/12/bits/stl_vector.h:504: 	return std::__relocate_a(__first, __last, __result, __alloc);
	.loc 6 504 26
	movq	-32(%rbp), %rcx	# __alloc, tmp84
	movq	-24(%rbp), %rdx	# __result, tmp85
	movq	-16(%rbp), %rsi	# __last, tmp86
	movq	-8(%rbp), %rax	# __first, tmp87
	movq	%rax, %rdi	# tmp87,
	call	_ZSt12__relocate_aIPdS0_SaIdEET0_T_S3_S2_RT1_	#
# /usr/include/c++/12/bits/stl_vector.h:509:       }
	.loc 6 509 7
	leave	
	.cfi_def_cfa 7, 8
	ret	
	.cfi_endproc
.LFE3171:
	.size	_ZNSt6vectorIdSaIdEE11_S_relocateEPdS2_S2_RS0_, .-_ZNSt6vectorIdSaIdEE11_S_relocateEPdS2_S2_RS0_
	.section	.text._ZNSt12_Destroy_auxILb1EE9__destroyIPdEEvT_S3_,"axG",@progbits,_ZNSt12_Destroy_auxILb1EE9__destroyIPdEEvT_S3_,comdat
	.weak	_ZNSt12_Destroy_auxILb1EE9__destroyIPdEEvT_S3_
	.type	_ZNSt12_Destroy_auxILb1EE9__destroyIPdEEvT_S3_, @function
_ZNSt12_Destroy_auxILb1EE9__destroyIPdEEvT_S3_:
.LFB3172:
	.loc 15 172 9
	.cfi_startproc
	pushq	%rbp	#
	.cfi_def_cfa_offset 16
	.cfi_offset 6, -16
	movq	%rsp, %rbp	#,
	.cfi_def_cfa_register 6
	movq	%rdi, -8(%rbp)	# D.64936, D.64936
	movq	%rsi, -16(%rbp)	# D.64937, D.64937
# /usr/include/c++/12/bits/stl_construct.h:172:         __destroy(_ForwardIterator, _ForwardIterator) { }
	.loc 15 172 57
	nop	
	popq	%rbp	#
	.cfi_def_cfa 7, 8
	ret	
	.cfi_endproc
.LFE3172:
	.size	_ZNSt12_Destroy_auxILb1EE9__destroyIPdEEvT_S3_, .-_ZNSt12_Destroy_auxILb1EE9__destroyIPdEEvT_S3_
	.section	.text._ZNSt16allocator_traitsISaIlEE10deallocateERS0_Plm,"axG",@progbits,_ZNSt16allocator_traitsISaIlEE10deallocateERS0_Plm,comdat
	.weak	_ZNSt16allocator_traitsISaIlEE10deallocateERS0_Plm
	.type	_ZNSt16allocator_traitsISaIlEE10deallocateERS0_Plm, @function
_ZNSt16allocator_traitsISaIlEE10deallocateERS0_Plm:
.LFB3173:
	.loc 9 495 7
	.cfi_startproc
	pushq	%rbp	#
	.cfi_def_cfa_offset 16
	.cfi_offset 6, -16
	movq	%rsp, %rbp	#,
	.cfi_def_cfa_register 6
	subq	$32, %rsp	#,
	movq	%rdi, -8(%rbp)	# __a, __a
	movq	%rsi, -16(%rbp)	# __p, __p
	movq	%rdx, -24(%rbp)	# __n, __n
# /usr/include/c++/12/bits/alloc_traits.h:496:       { __a.deallocate(__p, __n); }
	.loc 9 496 23
	movq	-24(%rbp), %rdx	# __n, tmp82
	movq	-16(%rbp), %rcx	# __p, tmp83
	movq	-8(%rbp), %rax	# __a, tmp84
	movq	%rcx, %rsi	# tmp83,
	movq	%rax, %rdi	# tmp84,
	call	_ZNSt15__new_allocatorIlE10deallocateEPlm	#
# /usr/include/c++/12/bits/alloc_traits.h:496:       { __a.deallocate(__p, __n); }
	.loc 9 496 35
	nop	
	leave	
	.cfi_def_cfa 7, 8
	ret	
	.cfi_endproc
.LFE3173:
	.size	_ZNSt16allocator_traitsISaIlEE10deallocateERS0_Plm, .-_ZNSt16allocator_traitsISaIlEE10deallocateERS0_Plm
	.section	.text._ZNSt12_Destroy_auxILb1EE9__destroyIPlEEvT_S3_,"axG",@progbits,_ZNSt12_Destroy_auxILb1EE9__destroyIPlEEvT_S3_,comdat
	.weak	_ZNSt12_Destroy_auxILb1EE9__destroyIPlEEvT_S3_
	.type	_ZNSt12_Destroy_auxILb1EE9__destroyIPlEEvT_S3_, @function
_ZNSt12_Destroy_auxILb1EE9__destroyIPlEEvT_S3_:
.LFB3174:
	.loc 15 172 9
	.cfi_startproc
	pushq	%rbp	#
	.cfi_def_cfa_offset 16
	.cfi_offset 6, -16
	movq	%rsp, %rbp	#,
	.cfi_def_cfa_register 6
	movq	%rdi, -8(%rbp)	# D.64943, D.64943
	movq	%rsi, -16(%rbp)	# D.64944, D.64944
# /usr/include/c++/12/bits/stl_construct.h:172:         __destroy(_ForwardIterator, _ForwardIterator) { }
	.loc 15 172 57
	nop	
	popq	%rbp	#
	.cfi_def_cfa 7, 8
	ret	
	.cfi_endproc
.LFE3174:
	.size	_ZNSt12_Destroy_auxILb1EE9__destroyIPlEEvT_S3_, .-_ZNSt12_Destroy_auxILb1EE9__destroyIPlEEvT_S3_
	.section	.text._ZNSt15__new_allocatorIdE10deallocateEPdm,"axG",@progbits,_ZNSt15__new_allocatorIdE10deallocateEPdm,comdat
	.align 2
	.weak	_ZNSt15__new_allocatorIdE10deallocateEPdm
	.type	_ZNSt15__new_allocatorIdE10deallocateEPdm, @function
_ZNSt15__new_allocatorIdE10deallocateEPdm:
.LFB3196:
	.loc 10 142 7
	.cfi_startproc
	pushq	%rbp	#
	.cfi_def_cfa_offset 16
	.cfi_offset 6, -16
	movq	%rsp, %rbp	#,
	.cfi_def_cfa_register 6
	subq	$32, %rsp	#,
	movq	%rdi, -8(%rbp)	# this, this
	movq	%rsi, -16(%rbp)	# __p, __p
	movq	%rdx, -24(%rbp)	# __n, __n
# /usr/include/c++/12/bits/new_allocator.h:158: 	_GLIBCXX_OPERATOR_DELETE(_GLIBCXX_SIZED_DEALLOC(__p, __n));
	.loc 10 158 26
	movq	-24(%rbp), %rax	# __n, tmp83
	leaq	0(,%rax,8), %rdx	#, _2
	movq	-16(%rbp), %rax	# __p, tmp84
	movq	%rdx, %rsi	# _2,
	movq	%rax, %rdi	# tmp84,
	call	_ZdlPvm@PLT	#
# /usr/include/c++/12/bits/new_allocator.h:159:       }
	.loc 10 159 7
	leave	
	.cfi_def_cfa 7, 8
	ret	
	.cfi_endproc
.LFE3196:
	.size	_ZNSt15__new_allocatorIdE10deallocateEPdm, .-_ZNSt15__new_allocatorIdE10deallocateEPdm
	.section	.text._ZNSaIlEC2ERKS_,"axG",@progbits,_ZNSaIlEC5ERKS_,comdat
	.align 2
	.weak	_ZNSaIlEC2ERKS_
	.type	_ZNSaIlEC2ERKS_, @function
_ZNSaIlEC2ERKS_:
.LFB3198:
	.loc 7 159 7
	.cfi_startproc
	pushq	%rbp	#
	.cfi_def_cfa_offset 16
	.cfi_offset 6, -16
	movq	%rsp, %rbp	#,
	.cfi_def_cfa_register 6
	subq	$16, %rsp	#,
	movq	%rdi, -8(%rbp)	# this, this
	movq	%rsi, -16(%rbp)	# __a, __a
.LBB37:
# /usr/include/c++/12/bits/allocator.h:160:       : __allocator_base<_Tp>(__a) { }
	.loc 7 160 34
	movq	-16(%rbp), %rdx	# __a, tmp82
	movq	-8(%rbp), %rax	# this, tmp83
	movq	%rdx, %rsi	# tmp82,
	movq	%rax, %rdi	# tmp83,
	call	_ZNSt15__new_allocatorIlEC2ERKS0_	#
.LBE37:
# /usr/include/c++/12/bits/allocator.h:160:       : __allocator_base<_Tp>(__a) { }
	.loc 7 160 38
	nop	
	leave	
	.cfi_def_cfa 7, 8
	ret	
	.cfi_endproc
.LFE3198:
	.size	_ZNSaIlEC2ERKS_, .-_ZNSaIlEC2ERKS_
	.weak	_ZNSaIlEC1ERKS_
	.set	_ZNSaIlEC1ERKS_,_ZNSaIlEC2ERKS_
	.section	.text._ZNSt12_Vector_baseIlSaIlEE17_Vector_impl_dataC2Ev,"axG",@progbits,_ZNSt12_Vector_baseIlSaIlEE17_Vector_impl_dataC5Ev,comdat
	.align 2
	.weak	_ZNSt12_Vector_baseIlSaIlEE17_Vector_impl_dataC2Ev
	.type	_ZNSt12_Vector_baseIlSaIlEE17_Vector_impl_dataC2Ev, @function
_ZNSt12_Vector_baseIlSaIlEE17_Vector_impl_dataC2Ev:
.LFB3201:
	.loc 6 99 2
	.cfi_startproc
	pushq	%rbp	#
	.cfi_def_cfa_offset 16
	.cfi_offset 6, -16
	movq	%rsp, %rbp	#,
	.cfi_def_cfa_register 6
	movq	%rdi, -8(%rbp)	# this, this
.LBB38:
# /usr/include/c++/12/bits/stl_vector.h:100: 	: _M_start(), _M_finish(), _M_end_of_storage()
	.loc 6 100 4
	movq	-8(%rbp), %rax	# this, tmp82
	movq	$0, (%rax)	#, this_2(D)->_M_start
# /usr/include/c++/12/bits/stl_vector.h:100: 	: _M_start(), _M_finish(), _M_end_of_storage()
	.loc 6 100 16
	movq	-8(%rbp), %rax	# this, tmp83
	movq	$0, 8(%rax)	#, this_2(D)->_M_finish
# /usr/include/c++/12/bits/stl_vector.h:100: 	: _M_start(), _M_finish(), _M_end_of_storage()
	.loc 6 100 29
	movq	-8(%rbp), %rax	# this, tmp84
	movq	$0, 16(%rax)	#, this_2(D)->_M_end_of_storage
.LBE38:
# /usr/include/c++/12/bits/stl_vector.h:101: 	{ }
	.loc 6 101 4
	nop	
	popq	%rbp	#
	.cfi_def_cfa 7, 8
	ret	
	.cfi_endproc
.LFE3201:
	.size	_ZNSt12_Vector_baseIlSaIlEE17_Vector_impl_dataC2Ev, .-_ZNSt12_Vector_baseIlSaIlEE17_Vector_impl_dataC2Ev
	.weak	_ZNSt12_Vector_baseIlSaIlEE17_Vector_impl_dataC1Ev
	.set	_ZNSt12_Vector_baseIlSaIlEE17_Vector_impl_dataC1Ev,_ZNSt12_Vector_baseIlSaIlEE17_Vector_impl_dataC2Ev
	.section	.text._ZNSt6vectorIlSaIlEE11_S_max_sizeERKS0_,"axG",@progbits,_ZNSt6vectorIlSaIlEE11_S_max_sizeERKS0_,comdat
	.weak	_ZNSt6vectorIlSaIlEE11_S_max_sizeERKS0_
	.type	_ZNSt6vectorIlSaIlEE11_S_max_sizeERKS0_, @function
_ZNSt6vectorIlSaIlEE11_S_max_sizeERKS0_:
.LFB3203:
	.loc 6 1911 7
	.cfi_startproc
	pushq	%rbp	#
	.cfi_def_cfa_offset 16
	.cfi_offset 6, -16
	movq	%rsp, %rbp	#,
	.cfi_def_cfa_register 6
	subq	$32, %rsp	#,
	movq	%rdi, -24(%rbp)	# __a, __a
# /usr/include/c++/12/bits/stl_vector.h:1916: 	const size_t __diffmax
	.loc 6 1916 15
	movabsq	$1152921504606846975, %rax	#, tmp91
	movq	%rax, -8(%rbp)	# tmp91, __diffmax
# /usr/include/c++/12/bits/stl_vector.h:1918: 	const size_t __allocmax = _Alloc_traits::max_size(__a);
	.loc 6 1918 51
	movq	-24(%rbp), %rax	# __a, tmp86
	movq	%rax, %rdi	# tmp86,
	call	_ZNSt16allocator_traitsISaIlEE8max_sizeERKS0_	#
# /usr/include/c++/12/bits/stl_vector.h:1918: 	const size_t __allocmax = _Alloc_traits::max_size(__a);
	.loc 6 1918 15
	movq	%rax, -16(%rbp)	# _1, __allocmax
# /usr/include/c++/12/bits/stl_vector.h:1919: 	return (std::min)(__diffmax, __allocmax);
	.loc 6 1919 19
	leaq	-16(%rbp), %rdx	#, tmp87
	leaq	-8(%rbp), %rax	#, tmp88
	movq	%rdx, %rsi	# tmp87,
	movq	%rax, %rdi	# tmp88,
	call	_ZSt3minImERKT_S2_S2_	#
# /usr/include/c++/12/bits/stl_vector.h:1919: 	return (std::min)(__diffmax, __allocmax);
	.loc 6 1919 41
	movq	(%rax), %rax	# *_2, _9
# /usr/include/c++/12/bits/stl_vector.h:1920:       }
	.loc 6 1920 7
	leave	
	.cfi_def_cfa 7, 8
	ret	
	.cfi_endproc
.LFE3203:
	.size	_ZNSt6vectorIlSaIlEE11_S_max_sizeERKS0_, .-_ZNSt6vectorIlSaIlEE11_S_max_sizeERKS0_
	.section	.text._ZNSt16allocator_traitsISaIlEE8allocateERS0_m,"axG",@progbits,_ZNSt16allocator_traitsISaIlEE8allocateERS0_m,comdat
	.weak	_ZNSt16allocator_traitsISaIlEE8allocateERS0_m
	.type	_ZNSt16allocator_traitsISaIlEE8allocateERS0_m, @function
_ZNSt16allocator_traitsISaIlEE8allocateERS0_m:
.LFB3204:
	.loc 9 463 7
	.cfi_startproc
	pushq	%rbp	#
	.cfi_def_cfa_offset 16
	.cfi_offset 6, -16
	movq	%rsp, %rbp	#,
	.cfi_def_cfa_register 6
	subq	$16, %rsp	#,
	movq	%rdi, -8(%rbp)	# __a, __a
	movq	%rsi, -16(%rbp)	# __n, __n
# /usr/include/c++/12/bits/alloc_traits.h:464:       { return __a.allocate(__n); }
	.loc 9 464 28
	movq	-16(%rbp), %rcx	# __n, tmp84
	movq	-8(%rbp), %rax	# __a, tmp85
	movl	$0, %edx	#,
	movq	%rcx, %rsi	# tmp84,
	movq	%rax, %rdi	# tmp85,
	call	_ZNSt15__new_allocatorIlE8allocateEmPKv	#
# /usr/include/c++/12/bits/alloc_traits.h:464:       { return __a.allocate(__n); }
	.loc 9 464 35
	leave	
	.cfi_def_cfa 7, 8
	ret	
	.cfi_endproc
.LFE3204:
	.size	_ZNSt16allocator_traitsISaIlEE8allocateERS0_m, .-_ZNSt16allocator_traitsISaIlEE8allocateERS0_m
	.section	.text._ZSt18uninitialized_copyIPKlPlET0_T_S4_S3_,"axG",@progbits,_ZSt18uninitialized_copyIPKlPlET0_T_S4_S3_,comdat
	.weak	_ZSt18uninitialized_copyIPKlPlET0_T_S4_S3_
	.type	_ZSt18uninitialized_copyIPKlPlET0_T_S4_S3_, @function
_ZSt18uninitialized_copyIPKlPlET0_T_S4_S3_:
.LFB3205:
	.loc 17 163 5
	.cfi_startproc
	pushq	%rbp	#
	.cfi_def_cfa_offset 16
	.cfi_offset 6, -16
	movq	%rsp, %rbp	#,
	.cfi_def_cfa_register 6
	subq	$48, %rsp	#,
	movq	%rdi, -24(%rbp)	# __first, __first
	movq	%rsi, -32(%rbp)	# __last, __last
	movq	%rdx, -40(%rbp)	# __result, __result
# /usr/include/c++/12/bits/stl_uninitialized.h:174:       const bool __can_memmove = __is_trivial(_ValueType1);
	.loc 17 174 18
	movb	$1, -1(%rbp)	#, __can_memmove
# /usr/include/c++/12/bits/stl_uninitialized.h:181:       const bool __assignable
	.loc 17 181 18
	movb	$1, -2(%rbp)	#, __assignable
# /usr/include/c++/12/bits/stl_uninitialized.h:185: 	__uninit_copy(__first, __last, __result);
	.loc 17 185 15
	movq	-40(%rbp), %rdx	# __result, tmp84
	movq	-32(%rbp), %rcx	# __last, tmp85
	movq	-24(%rbp), %rax	# __first, tmp86
	movq	%rcx, %rsi	# tmp85,
	movq	%rax, %rdi	# tmp86,
	call	_ZNSt20__uninitialized_copyILb1EE13__uninit_copyIPKlPlEET0_T_S6_S5_	#
# /usr/include/c++/12/bits/stl_uninitialized.h:186:     }
	.loc 17 186 5
	leave	
	.cfi_def_cfa 7, 8
	ret	
	.cfi_endproc
.LFE3205:
	.size	_ZSt18uninitialized_copyIPKlPlET0_T_S4_S3_, .-_ZSt18uninitialized_copyIPKlPlET0_T_S4_S3_
	.section	.text._ZNSt6vectorIdSaIdEE11_S_max_sizeERKS0_,"axG",@progbits,_ZNSt6vectorIdSaIdEE11_S_max_sizeERKS0_,comdat
	.weak	_ZNSt6vectorIdSaIdEE11_S_max_sizeERKS0_
	.type	_ZNSt6vectorIdSaIdEE11_S_max_sizeERKS0_, @function
_ZNSt6vectorIdSaIdEE11_S_max_sizeERKS0_:
.LFB3207:
	.loc 6 1911 7
	.cfi_startproc
	pushq	%rbp	#
	.cfi_def_cfa_offset 16
	.cfi_offset 6, -16
	movq	%rsp, %rbp	#,
	.cfi_def_cfa_register 6
	subq	$32, %rsp	#,
	movq	%rdi, -24(%rbp)	# __a, __a
# /usr/include/c++/12/bits/stl_vector.h:1916: 	const size_t __diffmax
	.loc 6 1916 15
	movabsq	$1152921504606846975, %rax	#, tmp91
	movq	%rax, -8(%rbp)	# tmp91, __diffmax
# /usr/include/c++/12/bits/stl_vector.h:1918: 	const size_t __allocmax = _Alloc_traits::max_size(__a);
	.loc 6 1918 51
	movq	-24(%rbp), %rax	# __a, tmp86
	movq	%rax, %rdi	# tmp86,
	call	_ZNSt16allocator_traitsISaIdEE8max_sizeERKS0_	#
# /usr/include/c++/12/bits/stl_vector.h:1918: 	const size_t __allocmax = _Alloc_traits::max_size(__a);
	.loc 6 1918 15
	movq	%rax, -16(%rbp)	# _1, __allocmax
# /usr/include/c++/12/bits/stl_vector.h:1919: 	return (std::min)(__diffmax, __allocmax);
	.loc 6 1919 19
	leaq	-16(%rbp), %rdx	#, tmp87
	leaq	-8(%rbp), %rax	#, tmp88
	movq	%rdx, %rsi	# tmp87,
	movq	%rax, %rdi	# tmp88,
	call	_ZSt3minImERKT_S2_S2_	#
# /usr/include/c++/12/bits/stl_vector.h:1919: 	return (std::min)(__diffmax, __allocmax);
	.loc 6 1919 41
	movq	(%rax), %rax	# *_2, _9
# /usr/include/c++/12/bits/stl_vector.h:1920:       }
	.loc 6 1920 7
	leave	
	.cfi_def_cfa 7, 8
	ret	
	.cfi_endproc
.LFE3207:
	.size	_ZNSt6vectorIdSaIdEE11_S_max_sizeERKS0_, .-_ZNSt6vectorIdSaIdEE11_S_max_sizeERKS0_
	.section	.text._ZNKSt12_Vector_baseIdSaIdEE19_M_get_Tp_allocatorEv,"axG",@progbits,_ZNKSt12_Vector_baseIdSaIdEE19_M_get_Tp_allocatorEv,comdat
	.align 2
	.weak	_ZNKSt12_Vector_baseIdSaIdEE19_M_get_Tp_allocatorEv
	.type	_ZNKSt12_Vector_baseIdSaIdEE19_M_get_Tp_allocatorEv, @function
_ZNKSt12_Vector_baseIdSaIdEE19_M_get_Tp_allocatorEv:
.LFB3208:
	.loc 6 303 7
	.cfi_startproc
	pushq	%rbp	#
	.cfi_def_cfa_offset 16
	.cfi_offset 6, -16
	movq	%rsp, %rbp	#,
	.cfi_def_cfa_register 6
	movq	%rdi, -8(%rbp)	# this, this
# /usr/include/c++/12/bits/stl_vector.h:304:       { return this->_M_impl; }
	.loc 6 304 22
	movq	-8(%rbp), %rax	# this, _2
# /usr/include/c++/12/bits/stl_vector.h:304:       { return this->_M_impl; }
	.loc 6 304 31
	popq	%rbp	#
	.cfi_def_cfa 7, 8
	ret	
	.cfi_endproc
.LFE3208:
	.size	_ZNKSt12_Vector_baseIdSaIdEE19_M_get_Tp_allocatorEv, .-_ZNKSt12_Vector_baseIdSaIdEE19_M_get_Tp_allocatorEv
	.section	.text._ZSt25__uninitialized_default_nIPdmET_S1_T0_,"axG",@progbits,_ZSt25__uninitialized_default_nIPdmET_S1_T0_,comdat
	.weak	_ZSt25__uninitialized_default_nIPdmET_S1_T0_
	.type	_ZSt25__uninitialized_default_nIPdmET_S1_T0_, @function
_ZSt25__uninitialized_default_nIPdmET_S1_T0_:
.LFB3209:
	.loc 17 691 5
	.cfi_startproc
	pushq	%rbp	#
	.cfi_def_cfa_offset 16
	.cfi_offset 6, -16
	movq	%rsp, %rbp	#,
	.cfi_def_cfa_register 6
	subq	$32, %rsp	#,
	movq	%rdi, -24(%rbp)	# __first, __first
	movq	%rsi, -32(%rbp)	# __n, __n
# /usr/include/c++/12/bits/stl_uninitialized.h:696:       constexpr bool __can_fill
	.loc 17 696 22
	movb	$1, -1(%rbp)	#, __can_fill
# /usr/include/c++/12/bits/stl_uninitialized.h:701: 	__uninit_default_n(__first, __n);
	.loc 17 701 20
	movq	-32(%rbp), %rdx	# __n, tmp84
	movq	-24(%rbp), %rax	# __first, tmp85
	movq	%rdx, %rsi	# tmp84,
	movq	%rax, %rdi	# tmp85,
	call	_ZNSt27__uninitialized_default_n_1ILb1EE18__uninit_default_nIPdmEET_S3_T0_	#
# /usr/include/c++/12/bits/stl_uninitialized.h:702:     }
	.loc 17 702 5
	leave	
	.cfi_def_cfa 7, 8
	ret	
	.cfi_endproc
.LFE3209:
	.size	_ZSt25__uninitialized_default_nIPdmET_S1_T0_, .-_ZSt25__uninitialized_default_nIPdmET_S1_T0_
	.section	.text._ZSt3maxImERKT_S2_S2_,"axG",@progbits,_ZSt3maxImERKT_S2_S2_,comdat
	.weak	_ZSt3maxImERKT_S2_S2_
	.type	_ZSt3maxImERKT_S2_S2_, @function
_ZSt3maxImERKT_S2_S2_:
.LFB3210:
	.loc 2 254 5
	.cfi_startproc
	pushq	%rbp	#
	.cfi_def_cfa_offset 16
	.cfi_offset 6, -16
	movq	%rsp, %rbp	#,
	.cfi_def_cfa_register 6
	movq	%rdi, -8(%rbp)	# __a, __a
	movq	%rsi, -16(%rbp)	# __b, __b
# /usr/include/c++/12/bits/stl_algobase.h:259:       if (__a < __b)
	.loc 2 259 15
	movq	-8(%rbp), %rax	# __a, tmp86
	movq	(%rax), %rdx	# *__a_5(D), _1
	movq	-16(%rbp), %rax	# __b, tmp87
	movq	(%rax), %rax	# *__b_6(D), _2
# /usr/include/c++/12/bits/stl_algobase.h:259:       if (__a < __b)
	.loc 2 259 7
	cmpq	%rax, %rdx	# _2, _1
	jnb	.L169	#,
# /usr/include/c++/12/bits/stl_algobase.h:260: 	return __b;
	.loc 2 260 9
	movq	-16(%rbp), %rax	# __b, _3
	jmp	.L170	#
.L169:
# /usr/include/c++/12/bits/stl_algobase.h:261:       return __a;
	.loc 2 261 14
	movq	-8(%rbp), %rax	# __a, _3
.L170:
# /usr/include/c++/12/bits/stl_algobase.h:262:     }
	.loc 2 262 5
	popq	%rbp	#
	.cfi_def_cfa 7, 8
	ret	
	.cfi_endproc
.LFE3210:
	.size	_ZSt3maxImERKT_S2_S2_, .-_ZSt3maxImERKT_S2_S2_
	.section	.text._ZNSt16allocator_traitsISaIdEE8allocateERS0_m,"axG",@progbits,_ZNSt16allocator_traitsISaIdEE8allocateERS0_m,comdat
	.weak	_ZNSt16allocator_traitsISaIdEE8allocateERS0_m
	.type	_ZNSt16allocator_traitsISaIdEE8allocateERS0_m, @function
_ZNSt16allocator_traitsISaIdEE8allocateERS0_m:
.LFB3211:
	.loc 9 463 7
	.cfi_startproc
	pushq	%rbp	#
	.cfi_def_cfa_offset 16
	.cfi_offset 6, -16
	movq	%rsp, %rbp	#,
	.cfi_def_cfa_register 6
	subq	$16, %rsp	#,
	movq	%rdi, -8(%rbp)	# __a, __a
	movq	%rsi, -16(%rbp)	# __n, __n
# /usr/include/c++/12/bits/alloc_traits.h:464:       { return __a.allocate(__n); }
	.loc 9 464 28
	movq	-16(%rbp), %rcx	# __n, tmp84
	movq	-8(%rbp), %rax	# __a, tmp85
	movl	$0, %edx	#,
	movq	%rcx, %rsi	# tmp84,
	movq	%rax, %rdi	# tmp85,
	call	_ZNSt15__new_allocatorIdE8allocateEmPKv	#
# /usr/include/c++/12/bits/alloc_traits.h:464:       { return __a.allocate(__n); }
	.loc 9 464 35
	leave	
	.cfi_def_cfa 7, 8
	ret	
	.cfi_endproc
.LFE3211:
	.size	_ZNSt16allocator_traitsISaIdEE8allocateERS0_m, .-_ZNSt16allocator_traitsISaIdEE8allocateERS0_m
	.section	.text._ZSt12__relocate_aIPdS0_SaIdEET0_T_S3_S2_RT1_,"axG",@progbits,_ZSt12__relocate_aIPdS0_SaIdEET0_T_S3_S2_RT1_,comdat
	.weak	_ZSt12__relocate_aIPdS0_SaIdEET0_T_S3_S2_RT1_
	.type	_ZSt12__relocate_aIPdS0_SaIdEET0_T_S3_S2_RT1_, @function
_ZSt12__relocate_aIPdS0_SaIdEET0_T_S3_S2_RT1_:
.LFB3212:
	.loc 17 1127 5
	.cfi_startproc
	pushq	%rbp	#
	.cfi_def_cfa_offset 16
	.cfi_offset 6, -16
	movq	%rsp, %rbp	#,
	.cfi_def_cfa_register 6
	pushq	%r12	#
	pushq	%rbx	#
	subq	$32, %rsp	#,
	.cfi_offset 12, -24
	.cfi_offset 3, -32
	movq	%rdi, -24(%rbp)	# __first, __first
	movq	%rsi, -32(%rbp)	# __last, __last
	movq	%rdx, -40(%rbp)	# __result, __result
	movq	%rcx, -48(%rbp)	# __alloc, __alloc
# /usr/include/c++/12/bits/stl_uninitialized.h:1133:       return std::__relocate_a_1(std::__niter_base(__first),
	.loc 17 1133 33
	movq	-40(%rbp), %rax	# __result, tmp87
	movq	%rax, %rdi	# tmp87,
	call	_ZSt12__niter_baseIPdET_S1_	#
	movq	%rax, %r12	#, _1
	movq	-32(%rbp), %rax	# __last, tmp88
	movq	%rax, %rdi	# tmp88,
	call	_ZSt12__niter_baseIPdET_S1_	#
	movq	%rax, %rbx	#, _2
	movq	-24(%rbp), %rax	# __first, tmp89
	movq	%rax, %rdi	# tmp89,
	call	_ZSt12__niter_baseIPdET_S1_	#
	movq	%rax, %rdi	#, _3
	movq	-48(%rbp), %rax	# __alloc, tmp90
	movq	%rax, %rcx	# tmp90,
	movq	%r12, %rdx	# _1,
	movq	%rbx, %rsi	# _2,
	call	_ZSt14__relocate_a_1IddENSt9enable_ifIXsrSt24__is_bitwise_relocatableIT_vE5valueEPS2_E4typeES4_S4_S4_RSaIT0_E	#
# /usr/include/c++/12/bits/stl_uninitialized.h:1136:     }
	.loc 17 1136 5
	addq	$32, %rsp	#,
	popq	%rbx	#
	popq	%r12	#
	popq	%rbp	#
	.cfi_def_cfa 7, 8
	ret	
	.cfi_endproc
.LFE3212:
	.size	_ZSt12__relocate_aIPdS0_SaIdEET0_T_S3_S2_RT1_, .-_ZSt12__relocate_aIPdS0_SaIdEET0_T_S3_S2_RT1_
	.section	.text._ZNSt15__new_allocatorIlE10deallocateEPlm,"axG",@progbits,_ZNSt15__new_allocatorIlE10deallocateEPlm,comdat
	.align 2
	.weak	_ZNSt15__new_allocatorIlE10deallocateEPlm
	.type	_ZNSt15__new_allocatorIlE10deallocateEPlm, @function
_ZNSt15__new_allocatorIlE10deallocateEPlm:
.LFB3213:
	.loc 10 142 7
	.cfi_startproc
	pushq	%rbp	#
	.cfi_def_cfa_offset 16
	.cfi_offset 6, -16
	movq	%rsp, %rbp	#,
	.cfi_def_cfa_register 6
	subq	$32, %rsp	#,
	movq	%rdi, -8(%rbp)	# this, this
	movq	%rsi, -16(%rbp)	# __p, __p
	movq	%rdx, -24(%rbp)	# __n, __n
# /usr/include/c++/12/bits/new_allocator.h:158: 	_GLIBCXX_OPERATOR_DELETE(_GLIBCXX_SIZED_DEALLOC(__p, __n));
	.loc 10 158 26
	movq	-24(%rbp), %rax	# __n, tmp83
	leaq	0(,%rax,8), %rdx	#, _2
	movq	-16(%rbp), %rax	# __p, tmp84
	movq	%rdx, %rsi	# _2,
	movq	%rax, %rdi	# tmp84,
	call	_ZdlPvm@PLT	#
# /usr/include/c++/12/bits/new_allocator.h:159:       }
	.loc 10 159 7
	leave	
	.cfi_def_cfa 7, 8
	ret	
	.cfi_endproc
.LFE3213:
	.size	_ZNSt15__new_allocatorIlE10deallocateEPlm, .-_ZNSt15__new_allocatorIlE10deallocateEPlm
	.section	.text._ZNSt15__new_allocatorIlEC2ERKS0_,"axG",@progbits,_ZNSt15__new_allocatorIlEC5ERKS0_,comdat
	.align 2
	.weak	_ZNSt15__new_allocatorIlEC2ERKS0_
	.type	_ZNSt15__new_allocatorIlEC2ERKS0_, @function
_ZNSt15__new_allocatorIlEC2ERKS0_:
.LFB3224:
	.loc 10 83 7
	.cfi_startproc
	pushq	%rbp	#
	.cfi_def_cfa_offset 16
	.cfi_offset 6, -16
	movq	%rsp, %rbp	#,
	.cfi_def_cfa_register 6
	movq	%rdi, -8(%rbp)	# this, this
	movq	%rsi, -16(%rbp)	# D.53749, D.53749
# /usr/include/c++/12/bits/new_allocator.h:83:       __new_allocator(const __new_allocator&) _GLIBCXX_USE_NOEXCEPT { }
	.loc 10 83 71
	nop	
	popq	%rbp	#
	.cfi_def_cfa 7, 8
	ret	
	.cfi_endproc
.LFE3224:
	.size	_ZNSt15__new_allocatorIlEC2ERKS0_, .-_ZNSt15__new_allocatorIlEC2ERKS0_
	.weak	_ZNSt15__new_allocatorIlEC1ERKS0_
	.set	_ZNSt15__new_allocatorIlEC1ERKS0_,_ZNSt15__new_allocatorIlEC2ERKS0_
	.section	.text._ZNSt16allocator_traitsISaIlEE8max_sizeERKS0_,"axG",@progbits,_ZNSt16allocator_traitsISaIlEE8max_sizeERKS0_,comdat
	.weak	_ZNSt16allocator_traitsISaIlEE8max_sizeERKS0_
	.type	_ZNSt16allocator_traitsISaIlEE8max_sizeERKS0_, @function
_ZNSt16allocator_traitsISaIlEE8max_sizeERKS0_:
.LFB3226:
	.loc 9 547 7
	.cfi_startproc
	pushq	%rbp	#
	.cfi_def_cfa_offset 16
	.cfi_offset 6, -16
	movq	%rsp, %rbp	#,
	.cfi_def_cfa_register 6
	subq	$16, %rsp	#,
	movq	%rdi, -8(%rbp)	# __a, __a
# /usr/include/c++/12/bits/alloc_traits.h:550: 	return __a.max_size();
	.loc 9 550 21
	movq	-8(%rbp), %rax	# __a, tmp84
	movq	%rax, %rdi	# tmp84,
	call	_ZNKSt15__new_allocatorIlE8max_sizeEv	#
# /usr/include/c++/12/bits/alloc_traits.h:554:       }
	.loc 9 554 7
	leave	
	.cfi_def_cfa 7, 8
	ret	
	.cfi_endproc
.LFE3226:
	.size	_ZNSt16allocator_traitsISaIlEE8max_sizeERKS0_, .-_ZNSt16allocator_traitsISaIlEE8max_sizeERKS0_
	.section	.text._ZSt3minImERKT_S2_S2_,"axG",@progbits,_ZSt3minImERKT_S2_S2_,comdat
	.weak	_ZSt3minImERKT_S2_S2_
	.type	_ZSt3minImERKT_S2_S2_, @function
_ZSt3minImERKT_S2_S2_:
.LFB3227:
	.loc 2 230 5
	.cfi_startproc
	pushq	%rbp	#
	.cfi_def_cfa_offset 16
	.cfi_offset 6, -16
	movq	%rsp, %rbp	#,
	.cfi_def_cfa_register 6
	movq	%rdi, -8(%rbp)	# __a, __a
	movq	%rsi, -16(%rbp)	# __b, __b
# /usr/include/c++/12/bits/stl_algobase.h:235:       if (__b < __a)
	.loc 2 235 15
	movq	-16(%rbp), %rax	# __b, tmp86
	movq	(%rax), %rdx	# *__b_5(D), _1
	movq	-8(%rbp), %rax	# __a, tmp87
	movq	(%rax), %rax	# *__a_6(D), _2
# /usr/include/c++/12/bits/stl_algobase.h:235:       if (__b < __a)
	.loc 2 235 7
	cmpq	%rax, %rdx	# _2, _1
	jnb	.L181	#,
# /usr/include/c++/12/bits/stl_algobase.h:236: 	return __b;
	.loc 2 236 9
	movq	-16(%rbp), %rax	# __b, _3
	jmp	.L182	#
.L181:
# /usr/include/c++/12/bits/stl_algobase.h:237:       return __a;
	.loc 2 237 14
	movq	-8(%rbp), %rax	# __a, _3
.L182:
# /usr/include/c++/12/bits/stl_algobase.h:238:     }
	.loc 2 238 5
	popq	%rbp	#
	.cfi_def_cfa 7, 8
	ret	
	.cfi_endproc
.LFE3227:
	.size	_ZSt3minImERKT_S2_S2_, .-_ZSt3minImERKT_S2_S2_
	.section	.text._ZNSt15__new_allocatorIlE8allocateEmPKv,"axG",@progbits,_ZNSt15__new_allocatorIlE8allocateEmPKv,comdat
	.align 2
	.weak	_ZNSt15__new_allocatorIlE8allocateEmPKv
	.type	_ZNSt15__new_allocatorIlE8allocateEmPKv, @function
_ZNSt15__new_allocatorIlE8allocateEmPKv:
.LFB3228:
	.loc 10 112 7
	.cfi_startproc
	pushq	%rbp	#
	.cfi_def_cfa_offset 16
	.cfi_offset 6, -16
	movq	%rsp, %rbp	#,
	.cfi_def_cfa_register 6
	subq	$32, %rsp	#,
	movq	%rdi, -8(%rbp)	# this, this
	movq	%rsi, -16(%rbp)	# __n, __n
	movq	%rdx, -24(%rbp)	# D.65171, D.65171
# /usr/include/c++/12/bits/new_allocator.h:120: 	if (__builtin_expect(__n > this->_M_max_size(), false))
	.loc 10 120 46
	movq	-8(%rbp), %rax	# this, tmp90
	movq	%rax, %rdi	# tmp90,
	call	_ZNKSt15__new_allocatorIlE11_M_max_sizeEv	#
# /usr/include/c++/12/bits/new_allocator.h:120: 	if (__builtin_expect(__n > this->_M_max_size(), false))
	.loc 10 120 27
	cmpq	-16(%rbp), %rax	# __n, _1
	setb	%al	#, _2
# /usr/include/c++/12/bits/new_allocator.h:120: 	if (__builtin_expect(__n > this->_M_max_size(), false))
	.loc 10 120 22
	movzbl	%al, %eax	# _2, _3
	testq	%rax, %rax	# _4
	setne	%al	#, retval.6_10
# /usr/include/c++/12/bits/new_allocator.h:120: 	if (__builtin_expect(__n > this->_M_max_size(), false))
	.loc 10 120 2
	testb	%al, %al	# retval.6_10
	je	.L184	#,
# /usr/include/c++/12/bits/new_allocator.h:124: 	    if (__n > (std::size_t(-1) / sizeof(_Tp)))
	.loc 10 124 6
	movabsq	$2305843009213693951, %rax	#, tmp91
	cmpq	-16(%rbp), %rax	# __n, tmp91
	jnb	.L185	#,
# /usr/include/c++/12/bits/new_allocator.h:125: 	      std::__throw_bad_array_new_length();
	.loc 10 125 41
	call	_ZSt28__throw_bad_array_new_lengthv@PLT	#
.L185:
# /usr/include/c++/12/bits/new_allocator.h:126: 	    std::__throw_bad_alloc();
	.loc 10 126 28
	call	_ZSt17__throw_bad_allocv@PLT	#
.L184:
# /usr/include/c++/12/bits/new_allocator.h:137: 	return static_cast<_Tp*>(_GLIBCXX_OPERATOR_NEW(__n * sizeof(_Tp)));
	.loc 10 137 48
	movq	-16(%rbp), %rax	# __n, tmp92
	salq	$3, %rax	#, _6
	movq	%rax, %rdi	# _6,
	call	_Znwm@PLT	#
# /usr/include/c++/12/bits/new_allocator.h:137: 	return static_cast<_Tp*>(_GLIBCXX_OPERATOR_NEW(__n * sizeof(_Tp)));
	.loc 10 137 67
	nop	
# /usr/include/c++/12/bits/new_allocator.h:138:       }
	.loc 10 138 7
	leave	
	.cfi_def_cfa 7, 8
	ret	
	.cfi_endproc
.LFE3228:
	.size	_ZNSt15__new_allocatorIlE8allocateEmPKv, .-_ZNSt15__new_allocatorIlE8allocateEmPKv
	.section	.text._ZNSt20__uninitialized_copyILb1EE13__uninit_copyIPKlPlEET0_T_S6_S5_,"axG",@progbits,_ZNSt20__uninitialized_copyILb1EE13__uninit_copyIPKlPlEET0_T_S6_S5_,comdat
	.weak	_ZNSt20__uninitialized_copyILb1EE13__uninit_copyIPKlPlEET0_T_S6_S5_
	.type	_ZNSt20__uninitialized_copyILb1EE13__uninit_copyIPKlPlEET0_T_S6_S5_, @function
_ZNSt20__uninitialized_copyILb1EE13__uninit_copyIPKlPlEET0_T_S6_S5_:
.LFB3229:
	.loc 17 145 9
	.cfi_startproc
	pushq	%rbp	#
	.cfi_def_cfa_offset 16
	.cfi_offset 6, -16
	movq	%rsp, %rbp	#,
	.cfi_def_cfa_register 6
	subq	$32, %rsp	#,
	movq	%rdi, -8(%rbp)	# __first, __first
	movq	%rsi, -16(%rbp)	# __last, __last
	movq	%rdx, -24(%rbp)	# __result, __result
# /usr/include/c++/12/bits/stl_uninitialized.h:147:         { return std::copy(__first, __last, __result); }
	.loc 17 147 27
	movq	-24(%rbp), %rdx	# __result, tmp84
	movq	-16(%rbp), %rcx	# __last, tmp85
	movq	-8(%rbp), %rax	# __first, tmp86
	movq	%rcx, %rsi	# tmp85,
	movq	%rax, %rdi	# tmp86,
	call	_ZSt4copyIPKlPlET0_T_S4_S3_	#
# /usr/include/c++/12/bits/stl_uninitialized.h:147:         { return std::copy(__first, __last, __result); }
	.loc 17 147 56
	leave	
	.cfi_def_cfa 7, 8
	ret	
	.cfi_endproc
.LFE3229:
	.size	_ZNSt20__uninitialized_copyILb1EE13__uninit_copyIPKlPlEET0_T_S6_S5_, .-_ZNSt20__uninitialized_copyILb1EE13__uninit_copyIPKlPlEET0_T_S6_S5_
	.section	.text._ZNSt16allocator_traitsISaIdEE8max_sizeERKS0_,"axG",@progbits,_ZNSt16allocator_traitsISaIdEE8max_sizeERKS0_,comdat
	.weak	_ZNSt16allocator_traitsISaIdEE8max_sizeERKS0_
	.type	_ZNSt16allocator_traitsISaIdEE8max_sizeERKS0_, @function
_ZNSt16allocator_traitsISaIdEE8max_sizeERKS0_:
.LFB3230:
	.loc 9 547 7
	.cfi_startproc
	pushq	%rbp	#
	.cfi_def_cfa_offset 16
	.cfi_offset 6, -16
	movq	%rsp, %rbp	#,
	.cfi_def_cfa_register 6
	subq	$16, %rsp	#,
	movq	%rdi, -8(%rbp)	# __a, __a
# /usr/include/c++/12/bits/alloc_traits.h:550: 	return __a.max_size();
	.loc 9 550 21
	movq	-8(%rbp), %rax	# __a, tmp84
	movq	%rax, %rdi	# tmp84,
	call	_ZNKSt15__new_allocatorIdE8max_sizeEv	#
# /usr/include/c++/12/bits/alloc_traits.h:554:       }
	.loc 9 554 7
	leave	
	.cfi_def_cfa 7, 8
	ret	
	.cfi_endproc
.LFE3230:
	.size	_ZNSt16allocator_traitsISaIdEE8max_sizeERKS0_, .-_ZNSt16allocator_traitsISaIdEE8max_sizeERKS0_
	.section	.text._ZNSt27__uninitialized_default_n_1ILb1EE18__uninit_default_nIPdmEET_S3_T0_,"axG",@progbits,_ZNSt27__uninitialized_default_n_1ILb1EE18__uninit_default_nIPdmEET_S3_T0_,comdat
	.weak	_ZNSt27__uninitialized_default_n_1ILb1EE18__uninit_default_nIPdmEET_S3_T0_
	.type	_ZNSt27__uninitialized_default_n_1ILb1EE18__uninit_default_nIPdmEET_S3_T0_, @function
_ZNSt27__uninitialized_default_n_1ILb1EE18__uninit_default_nIPdmEET_S3_T0_:
.LFB3231:
	.loc 17 655 9
	.cfi_startproc
	pushq	%rbp	#
	.cfi_def_cfa_offset 16
	.cfi_offset 6, -16
	movq	%rsp, %rbp	#,
	.cfi_def_cfa_register 6
	subq	$32, %rsp	#,
	movq	%rdi, -24(%rbp)	# __first, __first
	movq	%rsi, -32(%rbp)	# __n, __n
.LBB39:
# /usr/include/c++/12/bits/stl_uninitialized.h:657: 	  if (__n > 0)
	.loc 17 657 4
	cmpq	$0, -32(%rbp)	#, __n
	je	.L192	#,
.LBB40:
# /usr/include/c++/12/bits/stl_uninitialized.h:660: 		= std::__addressof(*__first);
	.loc 17 660 21
	movq	-24(%rbp), %rax	# __first, tmp86
	movq	%rax, %rdi	# tmp86,
	call	_ZSt11__addressofIdEPT_RS0_	#
	movq	%rax, -8(%rbp)	# tmp87, __val
# /usr/include/c++/12/bits/stl_uninitialized.h:661: 	      std::_Construct(__val);
	.loc 17 661 23
	movq	-8(%rbp), %rax	# __val, tmp88
	movq	%rax, %rdi	# tmp88,
	call	_ZSt10_ConstructIdJEEvPT_DpOT0_	#
# /usr/include/c++/12/bits/stl_uninitialized.h:662: 	      ++__first;
	.loc 17 662 8
	addq	$8, -24(%rbp)	#, __first
# /usr/include/c++/12/bits/stl_uninitialized.h:663: 	      __first = std::fill_n(__first, __n - 1, *__val);
	.loc 17 663 29
	movq	-32(%rbp), %rax	# __n, tmp89
	leaq	-1(%rax), %rcx	#, _1
	movq	-8(%rbp), %rdx	# __val, tmp90
	movq	-24(%rbp), %rax	# __first, tmp91
	movq	%rcx, %rsi	# _1,
	movq	%rax, %rdi	# tmp91,
	call	_ZSt6fill_nIPdmdET_S1_T0_RKT1_	#
	movq	%rax, -24(%rbp)	# _12, __first
.L192:
.LBE40:
.LBE39:
# /usr/include/c++/12/bits/stl_uninitialized.h:665: 	  return __first;
	.loc 17 665 11
	movq	-24(%rbp), %rax	# __first, _14
# /usr/include/c++/12/bits/stl_uninitialized.h:666: 	}
	.loc 17 666 2
	leave	
	.cfi_def_cfa 7, 8
	ret	
	.cfi_endproc
.LFE3231:
	.size	_ZNSt27__uninitialized_default_n_1ILb1EE18__uninit_default_nIPdmEET_S3_T0_, .-_ZNSt27__uninitialized_default_n_1ILb1EE18__uninit_default_nIPdmEET_S3_T0_
	.section	.text._ZNSt15__new_allocatorIdE8allocateEmPKv,"axG",@progbits,_ZNSt15__new_allocatorIdE8allocateEmPKv,comdat
	.align 2
	.weak	_ZNSt15__new_allocatorIdE8allocateEmPKv
	.type	_ZNSt15__new_allocatorIdE8allocateEmPKv, @function
_ZNSt15__new_allocatorIdE8allocateEmPKv:
.LFB3232:
	.loc 10 112 7
	.cfi_startproc
	pushq	%rbp	#
	.cfi_def_cfa_offset 16
	.cfi_offset 6, -16
	movq	%rsp, %rbp	#,
	.cfi_def_cfa_register 6
	subq	$32, %rsp	#,
	movq	%rdi, -8(%rbp)	# this, this
	movq	%rsi, -16(%rbp)	# __n, __n
	movq	%rdx, -24(%rbp)	# D.65197, D.65197
# /usr/include/c++/12/bits/new_allocator.h:120: 	if (__builtin_expect(__n > this->_M_max_size(), false))
	.loc 10 120 46
	movq	-8(%rbp), %rax	# this, tmp90
	movq	%rax, %rdi	# tmp90,
	call	_ZNKSt15__new_allocatorIdE11_M_max_sizeEv	#
# /usr/include/c++/12/bits/new_allocator.h:120: 	if (__builtin_expect(__n > this->_M_max_size(), false))
	.loc 10 120 27
	cmpq	-16(%rbp), %rax	# __n, _1
	setb	%al	#, _2
# /usr/include/c++/12/bits/new_allocator.h:120: 	if (__builtin_expect(__n > this->_M_max_size(), false))
	.loc 10 120 22
	movzbl	%al, %eax	# _2, _3
	testq	%rax, %rax	# _4
	setne	%al	#, retval.19_10
# /usr/include/c++/12/bits/new_allocator.h:120: 	if (__builtin_expect(__n > this->_M_max_size(), false))
	.loc 10 120 2
	testb	%al, %al	# retval.19_10
	je	.L195	#,
# /usr/include/c++/12/bits/new_allocator.h:124: 	    if (__n > (std::size_t(-1) / sizeof(_Tp)))
	.loc 10 124 6
	movabsq	$2305843009213693951, %rax	#, tmp91
	cmpq	-16(%rbp), %rax	# __n, tmp91
	jnb	.L196	#,
# /usr/include/c++/12/bits/new_allocator.h:125: 	      std::__throw_bad_array_new_length();
	.loc 10 125 41
	call	_ZSt28__throw_bad_array_new_lengthv@PLT	#
.L196:
# /usr/include/c++/12/bits/new_allocator.h:126: 	    std::__throw_bad_alloc();
	.loc 10 126 28
	call	_ZSt17__throw_bad_allocv@PLT	#
.L195:
# /usr/include/c++/12/bits/new_allocator.h:137: 	return static_cast<_Tp*>(_GLIBCXX_OPERATOR_NEW(__n * sizeof(_Tp)));
	.loc 10 137 48
	movq	-16(%rbp), %rax	# __n, tmp92
	salq	$3, %rax	#, _6
	movq	%rax, %rdi	# _6,
	call	_Znwm@PLT	#
# /usr/include/c++/12/bits/new_allocator.h:137: 	return static_cast<_Tp*>(_GLIBCXX_OPERATOR_NEW(__n * sizeof(_Tp)));
	.loc 10 137 67
	nop	
# /usr/include/c++/12/bits/new_allocator.h:138:       }
	.loc 10 138 7
	leave	
	.cfi_def_cfa 7, 8
	ret	
	.cfi_endproc
.LFE3232:
	.size	_ZNSt15__new_allocatorIdE8allocateEmPKv, .-_ZNSt15__new_allocatorIdE8allocateEmPKv
	.section	.text._ZSt12__niter_baseIPdET_S1_,"axG",@progbits,_ZSt12__niter_baseIPdET_S1_,comdat
	.weak	_ZSt12__niter_baseIPdET_S1_
	.type	_ZSt12__niter_baseIPdET_S1_, @function
_ZSt12__niter_baseIPdET_S1_:
.LFB3233:
	.loc 2 313 5
	.cfi_startproc
	pushq	%rbp	#
	.cfi_def_cfa_offset 16
	.cfi_offset 6, -16
	movq	%rsp, %rbp	#,
	.cfi_def_cfa_register 6
	movq	%rdi, -8(%rbp)	# __it, __it
# /usr/include/c++/12/bits/stl_algobase.h:315:     { return __it; }
	.loc 2 315 14
	movq	-8(%rbp), %rax	# __it, _2
# /usr/include/c++/12/bits/stl_algobase.h:315:     { return __it; }
	.loc 2 315 20
	popq	%rbp	#
	.cfi_def_cfa 7, 8
	ret	
	.cfi_endproc
.LFE3233:
	.size	_ZSt12__niter_baseIPdET_S1_, .-_ZSt12__niter_baseIPdET_S1_
	.section	.text._ZSt14__relocate_a_1IddENSt9enable_ifIXsrSt24__is_bitwise_relocatableIT_vE5valueEPS2_E4typeES4_S4_S4_RSaIT0_E,"axG",@progbits,_ZSt14__relocate_a_1IddENSt9enable_ifIXsrSt24__is_bitwise_relocatableIT_vE5valueEPS2_E4typeES4_S4_S4_RSaIT0_E,comdat
	.weak	_ZSt14__relocate_a_1IddENSt9enable_ifIXsrSt24__is_bitwise_relocatableIT_vE5valueEPS2_E4typeES4_S4_S4_RSaIT0_E
	.type	_ZSt14__relocate_a_1IddENSt9enable_ifIXsrSt24__is_bitwise_relocatableIT_vE5valueEPS2_E4typeES4_S4_S4_RSaIT0_E, @function
_ZSt14__relocate_a_1IddENSt9enable_ifIXsrSt24__is_bitwise_relocatableIT_vE5valueEPS2_E4typeES4_S4_S4_RSaIT0_E:
.LFB3234:
	.loc 17 1100 5
	.cfi_startproc
	pushq	%rbp	#
	.cfi_def_cfa_offset 16
	.cfi_offset 6, -16
	movq	%rsp, %rbp	#,
	.cfi_def_cfa_register 6
	subq	$48, %rsp	#,
	movq	%rdi, -24(%rbp)	# __first, __first
	movq	%rsi, -32(%rbp)	# __last, __last
	movq	%rdx, -40(%rbp)	# __result, __result
	movq	%rcx, -48(%rbp)	# __alloc, __alloc
# /usr/include/c++/12/bits/stl_uninitialized.h:1104:       ptrdiff_t __count = __last - __first;
	.loc 17 1104 34
	movq	-32(%rbp), %rax	# __last, tmp89
	subq	-24(%rbp), %rax	# __first, _1
# /usr/include/c++/12/bits/stl_uninitialized.h:1104:       ptrdiff_t __count = __last - __first;
	.loc 17 1104 17
	sarq	$3, %rax	#, tmp90
	movq	%rax, -8(%rbp)	# tmp90, __count
# /usr/include/c++/12/bits/stl_uninitialized.h:1105:       if (__count > 0)
	.loc 17 1105 7
	cmpq	$0, -8(%rbp)	#, __count
	jle	.L201	#,
# /usr/include/c++/12/bits/stl_uninitialized.h:1117: 	  __builtin_memmove(__result, __first, __count * sizeof(_Tp));
	.loc 17 1117 41
	movq	-8(%rbp), %rax	# __count, __count.21_2
# /usr/include/c++/12/bits/stl_uninitialized.h:1117: 	  __builtin_memmove(__result, __first, __count * sizeof(_Tp));
	.loc 17 1117 21
	leaq	0(,%rax,8), %rdx	#, _3
	movq	-24(%rbp), %rcx	# __first, tmp93
	movq	-40(%rbp), %rax	# __result, tmp94
	movq	%rcx, %rsi	# tmp93,
	movq	%rax, %rdi	# tmp94,
	call	memmove@PLT	#
.L201:
# /usr/include/c++/12/bits/stl_uninitialized.h:1119:       return __result + __count;
	.loc 17 1119 25
	movq	-8(%rbp), %rax	# __count, __count.22_4
# /usr/include/c++/12/bits/stl_uninitialized.h:1119:       return __result + __count;
	.loc 17 1119 23
	leaq	0(,%rax,8), %rdx	#, _5
# /usr/include/c++/12/bits/stl_uninitialized.h:1119:       return __result + __count;
	.loc 17 1119 25
	movq	-40(%rbp), %rax	# __result, tmp95
	addq	%rdx, %rax	# _5, _13
# /usr/include/c++/12/bits/stl_uninitialized.h:1120:     }
	.loc 17 1120 5
	leave	
	.cfi_def_cfa 7, 8
	ret	
	.cfi_endproc
.LFE3234:
	.size	_ZSt14__relocate_a_1IddENSt9enable_ifIXsrSt24__is_bitwise_relocatableIT_vE5valueEPS2_E4typeES4_S4_S4_RSaIT0_E, .-_ZSt14__relocate_a_1IddENSt9enable_ifIXsrSt24__is_bitwise_relocatableIT_vE5valueEPS2_E4typeES4_S4_S4_RSaIT0_E
	.section	.text._ZNKSt15__new_allocatorIlE8max_sizeEv,"axG",@progbits,_ZNKSt15__new_allocatorIlE8max_sizeEv,comdat
	.align 2
	.weak	_ZNKSt15__new_allocatorIlE8max_sizeEv
	.type	_ZNKSt15__new_allocatorIlE8max_sizeEv, @function
_ZNKSt15__new_allocatorIlE8max_sizeEv:
.LFB3239:
	.loc 10 167 7
	.cfi_startproc
	pushq	%rbp	#
	.cfi_def_cfa_offset 16
	.cfi_offset 6, -16
	movq	%rsp, %rbp	#,
	.cfi_def_cfa_register 6
	subq	$16, %rsp	#,
	movq	%rdi, -8(%rbp)	# this, this
# /usr/include/c++/12/bits/new_allocator.h:168:       { return _M_max_size(); }
	.loc 10 168 27
	movq	-8(%rbp), %rax	# this, tmp84
	movq	%rax, %rdi	# tmp84,
	call	_ZNKSt15__new_allocatorIlE11_M_max_sizeEv	#
# /usr/include/c++/12/bits/new_allocator.h:168:       { return _M_max_size(); }
	.loc 10 168 31
	leave	
	.cfi_def_cfa 7, 8
	ret	
	.cfi_endproc
.LFE3239:
	.size	_ZNKSt15__new_allocatorIlE8max_sizeEv, .-_ZNKSt15__new_allocatorIlE8max_sizeEv
	.section	.text._ZNKSt15__new_allocatorIlE11_M_max_sizeEv,"axG",@progbits,_ZNKSt15__new_allocatorIlE11_M_max_sizeEv,comdat
	.align 2
	.weak	_ZNKSt15__new_allocatorIlE11_M_max_sizeEv
	.type	_ZNKSt15__new_allocatorIlE11_M_max_sizeEv, @function
_ZNKSt15__new_allocatorIlE11_M_max_sizeEv:
.LFB3240:
	.loc 10 210 7
	.cfi_startproc
	pushq	%rbp	#
	.cfi_def_cfa_offset 16
	.cfi_offset 6, -16
	movq	%rsp, %rbp	#,
	.cfi_def_cfa_register 6
	movq	%rdi, -8(%rbp)	# this, this
# /usr/include/c++/12/bits/new_allocator.h:213: 	return std::size_t(__PTRDIFF_MAX__) / sizeof(_Tp);
	.loc 10 213 50
	movabsq	$1152921504606846975, %rax	#, _1
# /usr/include/c++/12/bits/new_allocator.h:217:       }
	.loc 10 217 7
	popq	%rbp	#
	.cfi_def_cfa 7, 8
	ret	
	.cfi_endproc
.LFE3240:
	.size	_ZNKSt15__new_allocatorIlE11_M_max_sizeEv, .-_ZNKSt15__new_allocatorIlE11_M_max_sizeEv
	.section	.text._ZSt4copyIPKlPlET0_T_S4_S3_,"axG",@progbits,_ZSt4copyIPKlPlET0_T_S4_S3_,comdat
	.weak	_ZSt4copyIPKlPlET0_T_S4_S3_
	.type	_ZSt4copyIPKlPlET0_T_S4_S3_, @function
_ZSt4copyIPKlPlET0_T_S4_S3_:
.LFB3241:
	.loc 2 611 5
	.cfi_startproc
	pushq	%rbp	#
	.cfi_def_cfa_offset 16
	.cfi_offset 6, -16
	movq	%rsp, %rbp	#,
	.cfi_def_cfa_register 6
	pushq	%rbx	#
	subq	$40, %rsp	#,
	.cfi_offset 3, -24
	movq	%rdi, -24(%rbp)	# __first, __first
	movq	%rsi, -32(%rbp)	# __last, __last
	movq	%rdx, -40(%rbp)	# __result, __result
# /usr/include/c++/12/bits/stl_algobase.h:620: 	     (std::__miter_base(__first), std::__miter_base(__last), __result);
	.loc 2 620 7
	movq	-32(%rbp), %rax	# __last, tmp86
	movq	%rax, %rdi	# tmp86,
	call	_ZSt12__miter_baseIPKlET_S2_	#
	movq	%rax, %rbx	#, _1
	movq	-24(%rbp), %rax	# __first, tmp87
	movq	%rax, %rdi	# tmp87,
	call	_ZSt12__miter_baseIPKlET_S2_	#
	movq	%rax, %rcx	#, _2
	movq	-40(%rbp), %rax	# __result, tmp88
	movq	%rax, %rdx	# tmp88,
	movq	%rbx, %rsi	# _1,
	movq	%rcx, %rdi	# _2,
	call	_ZSt13__copy_move_aILb0EPKlPlET1_T0_S4_S3_	#
# /usr/include/c++/12/bits/stl_algobase.h:621:     }
	.loc 2 621 5
	movq	-8(%rbp), %rbx	#,
	leave	
	.cfi_def_cfa 7, 8
	ret	
	.cfi_endproc
.LFE3241:
	.size	_ZSt4copyIPKlPlET0_T_S4_S3_, .-_ZSt4copyIPKlPlET0_T_S4_S3_
	.section	.text._ZNKSt15__new_allocatorIdE8max_sizeEv,"axG",@progbits,_ZNKSt15__new_allocatorIdE8max_sizeEv,comdat
	.align 2
	.weak	_ZNKSt15__new_allocatorIdE8max_sizeEv
	.type	_ZNKSt15__new_allocatorIdE8max_sizeEv, @function
_ZNKSt15__new_allocatorIdE8max_sizeEv:
.LFB3242:
	.loc 10 167 7
	.cfi_startproc
	pushq	%rbp	#
	.cfi_def_cfa_offset 16
	.cfi_offset 6, -16
	movq	%rsp, %rbp	#,
	.cfi_def_cfa_register 6
	subq	$16, %rsp	#,
	movq	%rdi, -8(%rbp)	# this, this
# /usr/include/c++/12/bits/new_allocator.h:168:       { return _M_max_size(); }
	.loc 10 168 27
	movq	-8(%rbp), %rax	# this, tmp84
	movq	%rax, %rdi	# tmp84,
	call	_ZNKSt15__new_allocatorIdE11_M_max_sizeEv	#
# /usr/include/c++/12/bits/new_allocator.h:168:       { return _M_max_size(); }
	.loc 10 168 31
	leave	
	.cfi_def_cfa 7, 8
	ret	
	.cfi_endproc
.LFE3242:
	.size	_ZNKSt15__new_allocatorIdE8max_sizeEv, .-_ZNKSt15__new_allocatorIdE8max_sizeEv
	.section	.text._ZSt11__addressofIdEPT_RS0_,"axG",@progbits,_ZSt11__addressofIdEPT_RS0_,comdat
	.weak	_ZSt11__addressofIdEPT_RS0_
	.type	_ZSt11__addressofIdEPT_RS0_, @function
_ZSt11__addressofIdEPT_RS0_:
.LFB3243:
	.file 18 "/usr/include/c++/12/bits/move.h"
	.loc 18 49 5
	.cfi_startproc
	pushq	%rbp	#
	.cfi_def_cfa_offset 16
	.cfi_offset 6, -16
	movq	%rsp, %rbp	#,
	.cfi_def_cfa_register 6
	movq	%rdi, -8(%rbp)	# __r, __r
# /usr/include/c++/12/bits/move.h:50:     { return __builtin_addressof(__r); }
	.loc 18 50 37
	movq	-8(%rbp), %rax	# __r, _2
# /usr/include/c++/12/bits/move.h:50:     { return __builtin_addressof(__r); }
	.loc 18 50 40
	popq	%rbp	#
	.cfi_def_cfa 7, 8
	ret	
	.cfi_endproc
.LFE3243:
	.size	_ZSt11__addressofIdEPT_RS0_, .-_ZSt11__addressofIdEPT_RS0_
	.section	.text._ZSt10_ConstructIdJEEvPT_DpOT0_,"axG",@progbits,_ZSt10_ConstructIdJEEvPT_DpOT0_,comdat
	.weak	_ZSt10_ConstructIdJEEvPT_DpOT0_
	.type	_ZSt10_ConstructIdJEEvPT_DpOT0_, @function
_ZSt10_ConstructIdJEEvPT_DpOT0_:
.LFB3244:
	.loc 15 109 5
	.cfi_startproc
	pushq	%rbp	#
	.cfi_def_cfa_offset 16
	.cfi_offset 6, -16
	movq	%rsp, %rbp	#,
	.cfi_def_cfa_register 6
	subq	$16, %rsp	#,
	movq	%rdi, -8(%rbp)	# __p, __p
# /usr/include/c++/12/bits/stl_construct.h:119:       ::new((void*)__p) _Tp(std::forward<_Args>(__args)...);
	.loc 15 119 13
	movq	-8(%rbp), %rax	# __p, _2
# /usr/include/c++/12/bits/stl_construct.h:119:       ::new((void*)__p) _Tp(std::forward<_Args>(__args)...);
	.loc 15 119 7
	movq	%rax, %rsi	# _2,
	movl	$8, %edi	#,
	call	_ZnwmPv	#
	pxor	%xmm0, %xmm0	# tmp86
	movsd	%xmm0, (%rax)	# tmp86, MEM[(double *)_5]
# /usr/include/c++/12/bits/stl_construct.h:120:     }
	.loc 15 120 5
	nop	
	leave	
	.cfi_def_cfa 7, 8
	ret	
	.cfi_endproc
.LFE3244:
	.size	_ZSt10_ConstructIdJEEvPT_DpOT0_, .-_ZSt10_ConstructIdJEEvPT_DpOT0_
	.section	.text._ZSt6fill_nIPdmdET_S1_T0_RKT1_,"axG",@progbits,_ZSt6fill_nIPdmdET_S1_T0_RKT1_,comdat
	.weak	_ZSt6fill_nIPdmdET_S1_T0_RKT1_
	.type	_ZSt6fill_nIPdmdET_S1_T0_RKT1_, @function
_ZSt6fill_nIPdmdET_S1_T0_RKT1_:
.LFB3245:
	.loc 2 1143 5
	.cfi_startproc
	pushq	%rbp	#
	.cfi_def_cfa_offset 16
	.cfi_offset 6, -16
	movq	%rsp, %rbp	#,
	.cfi_def_cfa_register 6
	subq	$32, %rsp	#,
	movq	%rdi, -8(%rbp)	# __first, __first
	movq	%rsi, -16(%rbp)	# __n, __n
	movq	%rdx, -24(%rbp)	# __value, __value
# /usr/include/c++/12/bits/stl_algobase.h:1149: 			       std::__iterator_category(__first));
	.loc 2 1149 35
	leaq	-8(%rbp), %rax	#, tmp87
	movq	%rax, %rdi	# tmp87,
	call	_ZSt19__iterator_categoryIPdENSt15iterator_traitsIT_E17iterator_categoryERKS2_	#
# /usr/include/c++/12/bits/stl_algobase.h:1148:       return std::__fill_n_a(__first, std::__size_to_integer(__n), __value,
	.loc 2 1148 29
	movq	-16(%rbp), %rax	# __n, tmp88
	movq	%rax, %rdi	# tmp88,
	call	_ZSt17__size_to_integerm	#
	movq	%rax, %rcx	#, _1
	movq	-8(%rbp), %rax	# __first, __first.20_2
	movq	-24(%rbp), %rdx	# __value, tmp89
	movq	%rcx, %rsi	# _1,
	movq	%rax, %rdi	# __first.20_2,
	call	_ZSt10__fill_n_aIPdmdET_S1_T0_RKT1_St26random_access_iterator_tag	#
# /usr/include/c++/12/bits/stl_algobase.h:1150:     }
	.loc 2 1150 5
	leave	
	.cfi_def_cfa 7, 8
	ret	
	.cfi_endproc
.LFE3245:
	.size	_ZSt6fill_nIPdmdET_S1_T0_RKT1_, .-_ZSt6fill_nIPdmdET_S1_T0_RKT1_
	.section	.text._ZNKSt15__new_allocatorIdE11_M_max_sizeEv,"axG",@progbits,_ZNKSt15__new_allocatorIdE11_M_max_sizeEv,comdat
	.align 2
	.weak	_ZNKSt15__new_allocatorIdE11_M_max_sizeEv
	.type	_ZNKSt15__new_allocatorIdE11_M_max_sizeEv, @function
_ZNKSt15__new_allocatorIdE11_M_max_sizeEv:
.LFB3246:
	.loc 10 210 7
	.cfi_startproc
	pushq	%rbp	#
	.cfi_def_cfa_offset 16
	.cfi_offset 6, -16
	movq	%rsp, %rbp	#,
	.cfi_def_cfa_register 6
	movq	%rdi, -8(%rbp)	# this, this
# /usr/include/c++/12/bits/new_allocator.h:213: 	return std::size_t(__PTRDIFF_MAX__) / sizeof(_Tp);
	.loc 10 213 50
	movabsq	$1152921504606846975, %rax	#, _1
# /usr/include/c++/12/bits/new_allocator.h:217:       }
	.loc 10 217 7
	popq	%rbp	#
	.cfi_def_cfa 7, 8
	ret	
	.cfi_endproc
.LFE3246:
	.size	_ZNKSt15__new_allocatorIdE11_M_max_sizeEv, .-_ZNKSt15__new_allocatorIdE11_M_max_sizeEv
	.section	.text._ZSt12__miter_baseIPKlET_S2_,"axG",@progbits,_ZSt12__miter_baseIPKlET_S2_,comdat
	.weak	_ZSt12__miter_baseIPKlET_S2_
	.type	_ZSt12__miter_baseIPKlET_S2_, @function
_ZSt12__miter_baseIPKlET_S2_:
.LFB3247:
	.file 19 "/usr/include/c++/12/bits/cpp_type_traits.h"
	.loc 19 562 5
	.cfi_startproc
	pushq	%rbp	#
	.cfi_def_cfa_offset 16
	.cfi_offset 6, -16
	movq	%rsp, %rbp	#,
	.cfi_def_cfa_register 6
	movq	%rdi, -8(%rbp)	# __it, __it
# /usr/include/c++/12/bits/cpp_type_traits.h:563:     { return __it; }
	.loc 19 563 14
	movq	-8(%rbp), %rax	# __it, _2
# /usr/include/c++/12/bits/cpp_type_traits.h:563:     { return __it; }
	.loc 19 563 20
	popq	%rbp	#
	.cfi_def_cfa 7, 8
	ret	
	.cfi_endproc
.LFE3247:
	.size	_ZSt12__miter_baseIPKlET_S2_, .-_ZSt12__miter_baseIPKlET_S2_
	.section	.text._ZSt13__copy_move_aILb0EPKlPlET1_T0_S4_S3_,"axG",@progbits,_ZSt13__copy_move_aILb0EPKlPlET1_T0_S4_S3_,comdat
	.weak	_ZSt13__copy_move_aILb0EPKlPlET1_T0_S4_S3_
	.type	_ZSt13__copy_move_aILb0EPKlPlET1_T0_S4_S3_, @function
_ZSt13__copy_move_aILb0EPKlPlET1_T0_S4_S3_:
.LFB3248:
	.loc 2 527 5
	.cfi_startproc
	pushq	%rbp	#
	.cfi_def_cfa_offset 16
	.cfi_offset 6, -16
	movq	%rsp, %rbp	#,
	.cfi_def_cfa_register 6
	pushq	%r12	#
	pushq	%rbx	#
	subq	$32, %rsp	#,
	.cfi_offset 12, -24
	.cfi_offset 3, -32
	movq	%rdi, -24(%rbp)	# __first, __first
	movq	%rsi, -32(%rbp)	# __last, __last
	movq	%rdx, -40(%rbp)	# __result, __result
# /usr/include/c++/12/bits/stl_algobase.h:529:       return std::__niter_wrap(__result,
	.loc 2 529 31
	movq	-40(%rbp), %rax	# __result, __result.7_1
	movq	%rax, %rdi	# __result.7_1,
	call	_ZSt12__niter_baseIPlET_S1_	#
	movq	%rax, %r12	#, _2
	movq	-32(%rbp), %rax	# __last, tmp89
	movq	%rax, %rdi	# tmp89,
	call	_ZSt12__niter_baseIPKlET_S2_	#
	movq	%rax, %rbx	#, _3
	movq	-24(%rbp), %rax	# __first, tmp90
	movq	%rax, %rdi	# tmp90,
	call	_ZSt12__niter_baseIPKlET_S2_	#
	movq	%r12, %rdx	# _2,
	movq	%rbx, %rsi	# _3,
	movq	%rax, %rdi	# _4,
	call	_ZSt14__copy_move_a1ILb0EPKlPlET1_T0_S4_S3_	#
	movq	%rax, %rdx	#, _5
	leaq	-40(%rbp), %rax	#, tmp91
	movq	%rdx, %rsi	# _5,
	movq	%rax, %rdi	# tmp91,
	call	_ZSt12__niter_wrapIPlET_RKS1_S1_	#
# /usr/include/c++/12/bits/stl_algobase.h:533:     }
	.loc 2 533 5
	addq	$32, %rsp	#,
	popq	%rbx	#
	popq	%r12	#
	popq	%rbp	#
	.cfi_def_cfa 7, 8
	ret	
	.cfi_endproc
.LFE3248:
	.size	_ZSt13__copy_move_aILb0EPKlPlET1_T0_S4_S3_, .-_ZSt13__copy_move_aILb0EPKlPlET1_T0_S4_S3_
	.section	.text._ZSt19__iterator_categoryIPdENSt15iterator_traitsIT_E17iterator_categoryERKS2_,"axG",@progbits,_ZSt19__iterator_categoryIPdENSt15iterator_traitsIT_E17iterator_categoryERKS2_,comdat
	.weak	_ZSt19__iterator_categoryIPdENSt15iterator_traitsIT_E17iterator_categoryERKS2_
	.type	_ZSt19__iterator_categoryIPdENSt15iterator_traitsIT_E17iterator_categoryERKS2_, @function
_ZSt19__iterator_categoryIPdENSt15iterator_traitsIT_E17iterator_categoryERKS2_:
.LFB3251:
	.loc 16 238 5
	.cfi_startproc
	pushq	%rbp	#
	.cfi_def_cfa_offset 16
	.cfi_offset 6, -16
	movq	%rsp, %rbp	#,
	.cfi_def_cfa_register 6
	movq	%rdi, -8(%rbp)	# D.65554, D.65554
# /usr/include/c++/12/bits/stl_iterator_base_types.h:239:     { return typename iterator_traits<_Iter>::iterator_category(); }
	.loc 16 239 65
	nop	
# /usr/include/c++/12/bits/stl_iterator_base_types.h:239:     { return typename iterator_traits<_Iter>::iterator_category(); }
	.loc 16 239 68
	popq	%rbp	#
	.cfi_def_cfa 7, 8
	ret	
	.cfi_endproc
.LFE3251:
	.size	_ZSt19__iterator_categoryIPdENSt15iterator_traitsIT_E17iterator_categoryERKS2_, .-_ZSt19__iterator_categoryIPdENSt15iterator_traitsIT_E17iterator_categoryERKS2_
	.section	.text._ZSt10__fill_n_aIPdmdET_S1_T0_RKT1_St26random_access_iterator_tag,"axG",@progbits,_ZSt10__fill_n_aIPdmdET_S1_T0_RKT1_St26random_access_iterator_tag,comdat
	.weak	_ZSt10__fill_n_aIPdmdET_S1_T0_RKT1_St26random_access_iterator_tag
	.type	_ZSt10__fill_n_aIPdmdET_S1_T0_RKT1_St26random_access_iterator_tag, @function
_ZSt10__fill_n_aIPdmdET_S1_T0_RKT1_St26random_access_iterator_tag:
.LFB3252:
	.loc 2 1108 5
	.cfi_startproc
	pushq	%rbp	#
	.cfi_def_cfa_offset 16
	.cfi_offset 6, -16
	movq	%rsp, %rbp	#,
	.cfi_def_cfa_register 6
	subq	$32, %rsp	#,
	movq	%rdi, -8(%rbp)	# __first, __first
	movq	%rsi, -16(%rbp)	# __n, __n
	movq	%rdx, -24(%rbp)	# __value, __value
# /usr/include/c++/12/bits/stl_algobase.h:1114:       if (__n <= 0)
	.loc 2 1114 7
	cmpq	$0, -16(%rbp)	#, __n
	jne	.L225	#,
# /usr/include/c++/12/bits/stl_algobase.h:1115: 	return __first;
	.loc 2 1115 9
	movq	-8(%rbp), %rax	# __first, _4
	jmp	.L226	#
.L225:
# /usr/include/c++/12/bits/stl_algobase.h:1119:       std::__fill_a(__first, __first + __n, __value);
	.loc 2 1119 38
	movq	-16(%rbp), %rax	# __n, tmp87
	leaq	0(,%rax,8), %rdx	#, _1
# /usr/include/c++/12/bits/stl_algobase.h:1119:       std::__fill_a(__first, __first + __n, __value);
	.loc 2 1119 20
	movq	-8(%rbp), %rax	# __first, tmp88
	leaq	(%rdx,%rax), %rcx	#, _2
	movq	-24(%rbp), %rdx	# __value, tmp89
	movq	-8(%rbp), %rax	# __first, tmp90
	movq	%rcx, %rsi	# _2,
	movq	%rax, %rdi	# tmp90,
	call	_ZSt8__fill_aIPddEvT_S1_RKT0_	#
# /usr/include/c++/12/bits/stl_algobase.h:1120:       return __first + __n;
	.loc 2 1120 22
	movq	-16(%rbp), %rax	# __n, tmp91
	leaq	0(,%rax,8), %rdx	#, _3
# /usr/include/c++/12/bits/stl_algobase.h:1120:       return __first + __n;
	.loc 2 1120 24
	movq	-8(%rbp), %rax	# __first, tmp92
	addq	%rdx, %rax	# _3, _4
.L226:
# /usr/include/c++/12/bits/stl_algobase.h:1121:     }
	.loc 2 1121 5
	leave	
	.cfi_def_cfa 7, 8
	ret	
	.cfi_endproc
.LFE3252:
	.size	_ZSt10__fill_n_aIPdmdET_S1_T0_RKT1_St26random_access_iterator_tag, .-_ZSt10__fill_n_aIPdmdET_S1_T0_RKT1_St26random_access_iterator_tag
	.section	.text._ZSt12__niter_baseIPKlET_S2_,"axG",@progbits,_ZSt12__niter_baseIPKlET_S2_,comdat
	.weak	_ZSt12__niter_baseIPKlET_S2_
	.type	_ZSt12__niter_baseIPKlET_S2_, @function
_ZSt12__niter_baseIPKlET_S2_:
.LFB3253:
	.loc 2 313 5
	.cfi_startproc
	pushq	%rbp	#
	.cfi_def_cfa_offset 16
	.cfi_offset 6, -16
	movq	%rsp, %rbp	#,
	.cfi_def_cfa_register 6
	movq	%rdi, -8(%rbp)	# __it, __it
# /usr/include/c++/12/bits/stl_algobase.h:315:     { return __it; }
	.loc 2 315 14
	movq	-8(%rbp), %rax	# __it, _2
# /usr/include/c++/12/bits/stl_algobase.h:315:     { return __it; }
	.loc 2 315 20
	popq	%rbp	#
	.cfi_def_cfa 7, 8
	ret	
	.cfi_endproc
.LFE3253:
	.size	_ZSt12__niter_baseIPKlET_S2_, .-_ZSt12__niter_baseIPKlET_S2_
	.section	.text._ZSt12__niter_baseIPlET_S1_,"axG",@progbits,_ZSt12__niter_baseIPlET_S1_,comdat
	.weak	_ZSt12__niter_baseIPlET_S1_
	.type	_ZSt12__niter_baseIPlET_S1_, @function
_ZSt12__niter_baseIPlET_S1_:
.LFB3254:
	.loc 2 313 5
	.cfi_startproc
	pushq	%rbp	#
	.cfi_def_cfa_offset 16
	.cfi_offset 6, -16
	movq	%rsp, %rbp	#,
	.cfi_def_cfa_register 6
	movq	%rdi, -8(%rbp)	# __it, __it
# /usr/include/c++/12/bits/stl_algobase.h:315:     { return __it; }
	.loc 2 315 14
	movq	-8(%rbp), %rax	# __it, _2
# /usr/include/c++/12/bits/stl_algobase.h:315:     { return __it; }
	.loc 2 315 20
	popq	%rbp	#
	.cfi_def_cfa 7, 8
	ret	
	.cfi_endproc
.LFE3254:
	.size	_ZSt12__niter_baseIPlET_S1_, .-_ZSt12__niter_baseIPlET_S1_
	.section	.text._ZSt14__copy_move_a1ILb0EPKlPlET1_T0_S4_S3_,"axG",@progbits,_ZSt14__copy_move_a1ILb0EPKlPlET1_T0_S4_S3_,comdat
	.weak	_ZSt14__copy_move_a1ILb0EPKlPlET1_T0_S4_S3_
	.type	_ZSt14__copy_move_a1ILb0EPKlPlET1_T0_S4_S3_, @function
_ZSt14__copy_move_a1ILb0EPKlPlET1_T0_S4_S3_:
.LFB3255:
	.loc 2 521 5
	.cfi_startproc
	pushq	%rbp	#
	.cfi_def_cfa_offset 16
	.cfi_offset 6, -16
	movq	%rsp, %rbp	#,
	.cfi_def_cfa_register 6
	subq	$32, %rsp	#,
	movq	%rdi, -8(%rbp)	# __first, __first
	movq	%rsi, -16(%rbp)	# __last, __last
	movq	%rdx, -24(%rbp)	# __result, __result
# /usr/include/c++/12/bits/stl_algobase.h:522:     { return std::__copy_move_a2<_IsMove>(__first, __last, __result); }
	.loc 2 522 42
	movq	-24(%rbp), %rdx	# __result, tmp84
	movq	-16(%rbp), %rcx	# __last, tmp85
	movq	-8(%rbp), %rax	# __first, tmp86
	movq	%rcx, %rsi	# tmp85,
	movq	%rax, %rdi	# tmp86,
	call	_ZSt14__copy_move_a2ILb0EPKlPlET1_T0_S4_S3_	#
# /usr/include/c++/12/bits/stl_algobase.h:522:     { return std::__copy_move_a2<_IsMove>(__first, __last, __result); }
	.loc 2 522 71
	leave	
	.cfi_def_cfa 7, 8
	ret	
	.cfi_endproc
.LFE3255:
	.size	_ZSt14__copy_move_a1ILb0EPKlPlET1_T0_S4_S3_, .-_ZSt14__copy_move_a1ILb0EPKlPlET1_T0_S4_S3_
	.section	.text._ZSt12__niter_wrapIPlET_RKS1_S1_,"axG",@progbits,_ZSt12__niter_wrapIPlET_RKS1_S1_,comdat
	.weak	_ZSt12__niter_wrapIPlET_RKS1_S1_
	.type	_ZSt12__niter_wrapIPlET_RKS1_S1_, @function
_ZSt12__niter_wrapIPlET_RKS1_S1_:
.LFB3256:
	.loc 2 335 5
	.cfi_startproc
	pushq	%rbp	#
	.cfi_def_cfa_offset 16
	.cfi_offset 6, -16
	movq	%rsp, %rbp	#,
	.cfi_def_cfa_register 6
	movq	%rdi, -8(%rbp)	# D.65592, D.65592
	movq	%rsi, -16(%rbp)	# __res, __res
# /usr/include/c++/12/bits/stl_algobase.h:336:     { return __res; }
	.loc 2 336 14
	movq	-16(%rbp), %rax	# __res, _2
# /usr/include/c++/12/bits/stl_algobase.h:336:     { return __res; }
	.loc 2 336 21
	popq	%rbp	#
	.cfi_def_cfa 7, 8
	ret	
	.cfi_endproc
.LFE3256:
	.size	_ZSt12__niter_wrapIPlET_RKS1_S1_, .-_ZSt12__niter_wrapIPlET_RKS1_S1_
	.section	.text._ZSt8__fill_aIPddEvT_S1_RKT0_,"axG",@progbits,_ZSt8__fill_aIPddEvT_S1_RKT0_,comdat
	.weak	_ZSt8__fill_aIPddEvT_S1_RKT0_
	.type	_ZSt8__fill_aIPddEvT_S1_RKT0_, @function
_ZSt8__fill_aIPddEvT_S1_RKT0_:
.LFB3257:
	.loc 2 967 5
	.cfi_startproc
	pushq	%rbp	#
	.cfi_def_cfa_offset 16
	.cfi_offset 6, -16
	movq	%rsp, %rbp	#,
	.cfi_def_cfa_register 6
	subq	$32, %rsp	#,
	movq	%rdi, -8(%rbp)	# __first, __first
	movq	%rsi, -16(%rbp)	# __last, __last
	movq	%rdx, -24(%rbp)	# __value, __value
# /usr/include/c++/12/bits/stl_algobase.h:968:     { std::__fill_a1(__first, __last, __value); }
	.loc 2 968 21
	movq	-24(%rbp), %rdx	# __value, tmp82
	movq	-16(%rbp), %rcx	# __last, tmp83
	movq	-8(%rbp), %rax	# __first, tmp84
	movq	%rcx, %rsi	# tmp83,
	movq	%rax, %rdi	# tmp84,
	call	_ZSt9__fill_a1IPddEN9__gnu_cxx11__enable_ifIXsrSt11__is_scalarIT0_E7__valueEvE6__typeET_S8_RKS4_	#
# /usr/include/c++/12/bits/stl_algobase.h:968:     { std::__fill_a1(__first, __last, __value); }
	.loc 2 968 49
	nop	
	leave	
	.cfi_def_cfa 7, 8
	ret	
	.cfi_endproc
.LFE3257:
	.size	_ZSt8__fill_aIPddEvT_S1_RKT0_, .-_ZSt8__fill_aIPddEvT_S1_RKT0_
	.section	.text._ZSt14__copy_move_a2ILb0EPKlPlET1_T0_S4_S3_,"axG",@progbits,_ZSt14__copy_move_a2ILb0EPKlPlET1_T0_S4_S3_,comdat
	.weak	_ZSt14__copy_move_a2ILb0EPKlPlET1_T0_S4_S3_
	.type	_ZSt14__copy_move_a2ILb0EPKlPlET1_T0_S4_S3_, @function
_ZSt14__copy_move_a2ILb0EPKlPlET1_T0_S4_S3_:
.LFB3258:
	.loc 2 486 5
	.cfi_startproc
	pushq	%rbp	#
	.cfi_def_cfa_offset 16
	.cfi_offset 6, -16
	movq	%rsp, %rbp	#,
	.cfi_def_cfa_register 6
	subq	$32, %rsp	#,
	movq	%rdi, -8(%rbp)	# __first, __first
	movq	%rsi, -16(%rbp)	# __last, __last
	movq	%rdx, -24(%rbp)	# __result, __result
# /usr/include/c++/12/bits/stl_algobase.h:495: 			      _Category>::__copy_m(__first, __last, __result);
	.loc 2 495 30
	movq	-24(%rbp), %rdx	# __result, tmp84
	movq	-16(%rbp), %rcx	# __last, tmp85
	movq	-8(%rbp), %rax	# __first, tmp86
	movq	%rcx, %rsi	# tmp85,
	movq	%rax, %rdi	# tmp86,
	call	_ZNSt11__copy_moveILb0ELb1ESt26random_access_iterator_tagE8__copy_mIlEEPT_PKS3_S6_S4_	#
# /usr/include/c++/12/bits/stl_algobase.h:496:     }
	.loc 2 496 5
	leave	
	.cfi_def_cfa 7, 8
	ret	
	.cfi_endproc
.LFE3258:
	.size	_ZSt14__copy_move_a2ILb0EPKlPlET1_T0_S4_S3_, .-_ZSt14__copy_move_a2ILb0EPKlPlET1_T0_S4_S3_
	.section	.text._ZSt9__fill_a1IPddEN9__gnu_cxx11__enable_ifIXsrSt11__is_scalarIT0_E7__valueEvE6__typeET_S8_RKS4_,"axG",@progbits,_ZSt9__fill_a1IPddEN9__gnu_cxx11__enable_ifIXsrSt11__is_scalarIT0_E7__valueEvE6__typeET_S8_RKS4_,comdat
	.weak	_ZSt9__fill_a1IPddEN9__gnu_cxx11__enable_ifIXsrSt11__is_scalarIT0_E7__valueEvE6__typeET_S8_RKS4_
	.type	_ZSt9__fill_a1IPddEN9__gnu_cxx11__enable_ifIXsrSt11__is_scalarIT0_E7__valueEvE6__typeET_S8_RKS4_, @function
_ZSt9__fill_a1IPddEN9__gnu_cxx11__enable_ifIXsrSt11__is_scalarIT0_E7__valueEvE6__typeET_S8_RKS4_:
.LFB3259:
	.loc 2 917 5
	.cfi_startproc
	pushq	%rbp	#
	.cfi_def_cfa_offset 16
	.cfi_offset 6, -16
	movq	%rsp, %rbp	#,
	.cfi_def_cfa_register 6
	movq	%rdi, -24(%rbp)	# __first, __first
	movq	%rsi, -32(%rbp)	# __last, __last
	movq	%rdx, -40(%rbp)	# __value, __value
# /usr/include/c++/12/bits/stl_algobase.h:920:       const _Tp __tmp = __value;
	.loc 2 920 17
	movq	-40(%rbp), %rax	# __value, tmp82
	movsd	(%rax), %xmm0	# *__value_4(D), tmp83
	movsd	%xmm0, -8(%rbp)	# tmp83, __tmp
# /usr/include/c++/12/bits/stl_algobase.h:921:       for (; __first != __last; ++__first)
	.loc 2 921 7
	jmp	.L239	#
.L240:
# /usr/include/c++/12/bits/stl_algobase.h:922: 	*__first = __tmp;
	.loc 2 922 11 discriminator 2
	movq	-24(%rbp), %rax	# __first, tmp84
	movsd	-8(%rbp), %xmm0	# __tmp, tmp85
	movsd	%xmm0, (%rax)	# tmp85, *__first_1
# /usr/include/c++/12/bits/stl_algobase.h:921:       for (; __first != __last; ++__first)
	.loc 2 921 7 discriminator 2
	addq	$8, -24(%rbp)	#, __first
.L239:
# /usr/include/c++/12/bits/stl_algobase.h:921:       for (; __first != __last; ++__first)
	.loc 2 921 22 discriminator 1
	movq	-24(%rbp), %rax	# __first, tmp86
	cmpq	-32(%rbp), %rax	# __last, tmp86
	jne	.L240	#,
# /usr/include/c++/12/bits/stl_algobase.h:923:     }
	.loc 2 923 5
	nop	
	nop	
	popq	%rbp	#
	.cfi_def_cfa 7, 8
	ret	
	.cfi_endproc
.LFE3259:
	.size	_ZSt9__fill_a1IPddEN9__gnu_cxx11__enable_ifIXsrSt11__is_scalarIT0_E7__valueEvE6__typeET_S8_RKS4_, .-_ZSt9__fill_a1IPddEN9__gnu_cxx11__enable_ifIXsrSt11__is_scalarIT0_E7__valueEvE6__typeET_S8_RKS4_
	.section	.text._ZNSt11__copy_moveILb0ELb1ESt26random_access_iterator_tagE8__copy_mIlEEPT_PKS3_S6_S4_,"axG",@progbits,_ZNSt11__copy_moveILb0ELb1ESt26random_access_iterator_tagE8__copy_mIlEEPT_PKS3_S6_S4_,comdat
	.weak	_ZNSt11__copy_moveILb0ELb1ESt26random_access_iterator_tagE8__copy_mIlEEPT_PKS3_S6_S4_
	.type	_ZNSt11__copy_moveILb0ELb1ESt26random_access_iterator_tagE8__copy_mIlEEPT_PKS3_S6_S4_, @function
_ZNSt11__copy_moveILb0ELb1ESt26random_access_iterator_tagE8__copy_mIlEEPT_PKS3_S6_S4_:
.LFB3260:
	.loc 2 420 2
	.cfi_startproc
	pushq	%rbp	#
	.cfi_def_cfa_offset 16
	.cfi_offset 6, -16
	movq	%rsp, %rbp	#,
	.cfi_def_cfa_register 6
	subq	$48, %rsp	#,
	movq	%rdi, -24(%rbp)	# __first, __first
	movq	%rsi, -32(%rbp)	# __last, __last
	movq	%rdx, -40(%rbp)	# __result, __result
# /usr/include/c++/12/bits/stl_algobase.h:429: 	  const ptrdiff_t _Num = __last - __first;
	.loc 2 429 34
	movq	-32(%rbp), %rax	# __last, tmp89
	subq	-24(%rbp), %rax	# __first, _1
# /usr/include/c++/12/bits/stl_algobase.h:429: 	  const ptrdiff_t _Num = __last - __first;
	.loc 2 429 20
	sarq	$3, %rax	#, tmp90
	movq	%rax, -8(%rbp)	# tmp90, _Num
# /usr/include/c++/12/bits/stl_algobase.h:430: 	  if (_Num)
	.loc 2 430 4
	cmpq	$0, -8(%rbp)	#, _Num
	je	.L242	#,
# /usr/include/c++/12/bits/stl_algobase.h:431: 	    __builtin_memmove(__result, __first, sizeof(_Tp) * _Num);
	.loc 2 431 57
	movq	-8(%rbp), %rax	# _Num, _Num.8_2
# /usr/include/c++/12/bits/stl_algobase.h:431: 	    __builtin_memmove(__result, __first, sizeof(_Tp) * _Num);
	.loc 2 431 23
	leaq	0(,%rax,8), %rdx	#, _3
	movq	-24(%rbp), %rcx	# __first, tmp93
	movq	-40(%rbp), %rax	# __result, tmp94
	movq	%rcx, %rsi	# tmp93,
	movq	%rax, %rdi	# tmp94,
	call	memmove@PLT	#
.L242:
# /usr/include/c++/12/bits/stl_algobase.h:432: 	  return __result + _Num;
	.loc 2 432 22
	movq	-8(%rbp), %rax	# _Num, _Num.9_4
# /usr/include/c++/12/bits/stl_algobase.h:432: 	  return __result + _Num;
	.loc 2 432 20
	leaq	0(,%rax,8), %rdx	#, _5
# /usr/include/c++/12/bits/stl_algobase.h:432: 	  return __result + _Num;
	.loc 2 432 22
	movq	-40(%rbp), %rax	# __result, tmp95
	addq	%rdx, %rax	# _5, _13
# /usr/include/c++/12/bits/stl_algobase.h:433: 	}
	.loc 2 433 2
	leave	
	.cfi_def_cfa 7, 8
	ret	
	.cfi_endproc
.LFE3260:
	.size	_ZNSt11__copy_moveILb0ELb1ESt26random_access_iterator_tagE8__copy_mIlEEPT_PKS3_S6_S4_, .-_ZNSt11__copy_moveILb0ELb1ESt26random_access_iterator_tagE8__copy_mIlEEPT_PKS3_S6_S4_
	.text
	.type	_Z41__static_initialization_and_destruction_0ii, @function
_Z41__static_initialization_and_destruction_0ii:
.LFB3261:
	.loc 5 15 1
	.cfi_startproc
	pushq	%rbp	#
	.cfi_def_cfa_offset 16
	.cfi_offset 6, -16
	movq	%rsp, %rbp	#,
	.cfi_def_cfa_register 6
	subq	$16, %rsp	#,
	movl	%edi, -4(%rbp)	# __initialize_p, __initialize_p
	movl	%esi, -8(%rbp)	# __priority, __priority
# Application.cpp:15: }
	.loc 5 15 1
	cmpl	$1, -4(%rbp)	#, __initialize_p
	jne	.L246	#,
# Application.cpp:15: }
	.loc 5 15 1 is_stmt 0 discriminator 1
	cmpl	$65535, -8(%rbp)	#, __priority
	jne	.L246	#,
# /usr/include/c++/12/iostream:74:   static ios_base::Init __ioinit;
	.file 20 "/usr/include/c++/12/iostream"
	.loc 20 74 25 is_stmt 1
	leaq	_ZStL8__ioinit(%rip), %rax	#, tmp82
	movq	%rax, %rdi	# tmp82,
	call	_ZNSt8ios_base4InitC1Ev@PLT	#
	leaq	__dso_handle(%rip), %rax	#, tmp83
	movq	%rax, %rdx	# tmp83,
	leaq	_ZStL8__ioinit(%rip), %rax	#, tmp84
	movq	%rax, %rsi	# tmp84,
	movq	_ZNSt8ios_base4InitD1Ev@GOTPCREL(%rip), %rax	#, tmp86
	movq	%rax, %rdi	# tmp85,
	call	__cxa_atexit@PLT	#
.L246:
# Application.cpp:15: }
	.loc 5 15 1
	nop	
	leave	
	.cfi_def_cfa 7, 8
	ret	
	.cfi_endproc
.LFE3261:
	.size	_Z41__static_initialization_and_destruction_0ii, .-_Z41__static_initialization_and_destruction_0ii
	.type	_GLOBAL__sub_I__ZN9container7details11index_checkEll, @function
_GLOBAL__sub_I__ZN9container7details11index_checkEll:
.LFB3262:
	.loc 5 15 1
	.cfi_startproc
	pushq	%rbp	#
	.cfi_def_cfa_offset 16
	.cfi_offset 6, -16
	movq	%rsp, %rbp	#,
	.cfi_def_cfa_register 6
# Application.cpp:15: }
	.loc 5 15 1
	movl	$65535, %esi	#,
	movl	$1, %edi	#,
	call	_Z41__static_initialization_and_destruction_0ii	#
	popq	%rbp	#
	.cfi_def_cfa 7, 8
	ret	
	.cfi_endproc
.LFE3262:
	.size	_GLOBAL__sub_I__ZN9container7details11index_checkEll, .-_GLOBAL__sub_I__ZN9container7details11index_checkEll
	.section	.init_array,"aw"
	.align 8
	.quad	_GLOBAL__sub_I__ZN9container7details11index_checkEll
	.text
.Letext0:
	.file 21 "<built-in>"
	.file 22 "/usr/lib/gcc/x86_64-linux-gnu/12/include/stddef.h"
	.file 23 "/usr/include/x86_64-linux-gnu/bits/types/wint_t.h"
	.file 24 "/usr/include/x86_64-linux-gnu/bits/types/__mbstate_t.h"
	.file 25 "/usr/include/x86_64-linux-gnu/bits/types/mbstate_t.h"
	.file 26 "/usr/include/x86_64-linux-gnu/bits/types/__FILE.h"
	.file 27 "/usr/include/x86_64-linux-gnu/bits/types/struct_FILE.h"
	.file 28 "/usr/include/x86_64-linux-gnu/bits/types/FILE.h"
	.file 29 "/usr/include/c++/12/cwchar"
	.file 30 "/usr/include/x86_64-linux-gnu/c++/12/bits/c++config.h"
	.file 31 "/usr/include/c++/12/type_traits"
	.file 32 "/usr/include/c++/12/bits/exception_ptr.h"
	.file 33 "/usr/include/c++/12/bits/char_traits.h"
	.file 34 "/usr/include/c++/12/cstdint"
	.file 35 "/usr/include/c++/12/clocale"
	.file 36 "/usr/include/c++/12/debug/debug.h"
	.file 37 "/usr/include/c++/12/cstdlib"
	.file 38 "/usr/include/c++/12/cstdio"
	.file 39 "/usr/include/c++/12/bits/ios_base.h"
	.file 40 "/usr/include/c++/12/cwctype"
	.file 41 "/usr/include/c++/12/ostream"
	.file 42 "/usr/include/c++/12/iosfwd"
	.file 43 "/usr/include/c++/12/bits/functexcept.h"
	.file 44 "/usr/include/c++/12/stdexcept"
	.file 45 "/usr/include/wchar.h"
	.file 46 "/usr/include/x86_64-linux-gnu/bits/types/struct_tm.h"
	.file 47 "/usr/include/c++/12/bits/predefined_ops.h"
	.file 48 "/usr/include/c++/12/ext/alloc_traits.h"
	.file 49 "/usr/include/x86_64-linux-gnu/bits/types.h"
	.file 50 "/usr/include/x86_64-linux-gnu/bits/stdint-intn.h"
	.file 51 "/usr/include/x86_64-linux-gnu/bits/stdint-uintn.h"
	.file 52 "/usr/include/stdint.h"
	.file 53 "/usr/include/locale.h"
	.file 54 "/usr/include/stdlib.h"
	.file 55 "/usr/include/x86_64-linux-gnu/sys/types.h"
	.file 56 "/usr/include/x86_64-linux-gnu/bits/types/__fpos_t.h"
	.file 57 "/usr/include/stdio.h"
	.file 58 "/usr/include/x86_64-linux-gnu/bits/wctype-wchar.h"
	.file 59 "/usr/include/wctype.h"
	.file 60 "/usr/include/c++/12/pstl/execution_defs.h"
	.file 61 "/usr/include/c++/12/system_error"
	.section	.debug_info,"",@progbits
.Ldebug_info0:
	.long	0x8037
	.value	0x5
	.byte	0x1
	.byte	0x8
	.long	.Ldebug_abbrev0
	.uleb128 0x6f
	.long	.LASF1043
	.byte	0x21
	.long	.LASF0
	.long	.LASF1
	.long	.LLRL2
	.quad	0
	.long	.Ldebug_line0
	.uleb128 0x1f
	.byte	0x20
	.byte	0x3
	.long	.LASF2
	.uleb128 0x1f
	.byte	0x10
	.byte	0x4
	.long	.LASF3
	.uleb128 0x1f
	.byte	0x4
	.byte	0x4
	.long	.LASF4
	.uleb128 0x1f
	.byte	0x8
	.byte	0x4
	.long	.LASF5
	.uleb128 0x6
	.long	0x3f
	.uleb128 0x1f
	.byte	0x10
	.byte	0x4
	.long	.LASF6
	.uleb128 0x5
	.long	.LASF13
	.byte	0x16
	.byte	0xd6
	.byte	0x17
	.long	0x5e
	.uleb128 0x1f
	.byte	0x8
	.byte	0x7
	.long	.LASF7
	.uleb128 0x6
	.long	0x5e
	.uleb128 0x70
	.long	.LASF1044
	.byte	0x18
	.byte	0x15
	.byte	0
	.long	0x9f
	.uleb128 0x3e
	.long	.LASF8
	.long	0x9f
	.byte	0
	.uleb128 0x3e
	.long	.LASF9
	.long	0x9f
	.byte	0x4
	.uleb128 0x3e
	.long	.LASF10
	.long	0xa6
	.byte	0x8
	.uleb128 0x3e
	.long	.LASF11
	.long	0xa6
	.byte	0x10
	.byte	0
	.uleb128 0x1f
	.byte	0x4
	.byte	0x7
	.long	.LASF12
	.uleb128 0x71
	.byte	0x8
	.uleb128 0x5
	.long	.LASF14
	.byte	0x17
	.byte	0x14
	.byte	0x17
	.long	0x9f
	.uleb128 0x3f
	.byte	0x8
	.byte	0x18
	.byte	0xe
	.byte	0x1
	.long	.LASF838
	.long	0xfc
	.uleb128 0x72
	.byte	0x4
	.byte	0x18
	.byte	0x11
	.byte	0x3
	.long	0xe1
	.uleb128 0x53
	.long	.LASF15
	.byte	0x12
	.byte	0x13
	.long	0x9f
	.uleb128 0x53
	.long	.LASF16
	.byte	0x13
	.byte	0xa
	.long	0xfc
	.byte	0
	.uleb128 0x7
	.long	.LASF17
	.byte	0x18
	.byte	0xf
	.byte	0x7
	.long	0x118
	.byte	0
	.uleb128 0x7
	.long	.LASF18
	.byte	0x18
	.byte	0x14
	.byte	0x5
	.long	0xc1
	.byte	0x4
	.byte	0
	.uleb128 0x46
	.long	0x10c
	.long	0x10c
	.uleb128 0x47
	.long	0x5e
	.byte	0x3
	.byte	0
	.uleb128 0x1f
	.byte	0x1
	.byte	0x6
	.long	.LASF19
	.uleb128 0x6
	.long	0x10c
	.uleb128 0x73
	.byte	0x4
	.byte	0x5
	.string	"int"
	.uleb128 0x6
	.long	0x118
	.uleb128 0x5
	.long	.LASF20
	.byte	0x18
	.byte	0x15
	.byte	0x3
	.long	0xb4
	.uleb128 0x5
	.long	.LASF21
	.byte	0x19
	.byte	0x6
	.byte	0x15
	.long	0x124
	.uleb128 0x6
	.long	0x130
	.uleb128 0x5
	.long	.LASF22
	.byte	0x1a
	.byte	0x5
	.byte	0x19
	.long	0x14d
	.uleb128 0x16
	.long	.LASF54
	.byte	0xd8
	.byte	0x1b
	.byte	0x31
	.byte	0x8
	.long	0x2d4
	.uleb128 0x7
	.long	.LASF23
	.byte	0x1b
	.byte	0x33
	.byte	0x7
	.long	0x118
	.byte	0
	.uleb128 0x7
	.long	.LASF24
	.byte	0x1b
	.byte	0x36
	.byte	0x9
	.long	0x41d9
	.byte	0x8
	.uleb128 0x7
	.long	.LASF25
	.byte	0x1b
	.byte	0x37
	.byte	0x9
	.long	0x41d9
	.byte	0x10
	.uleb128 0x7
	.long	.LASF26
	.byte	0x1b
	.byte	0x38
	.byte	0x9
	.long	0x41d9
	.byte	0x18
	.uleb128 0x7
	.long	.LASF27
	.byte	0x1b
	.byte	0x39
	.byte	0x9
	.long	0x41d9
	.byte	0x20
	.uleb128 0x7
	.long	.LASF28
	.byte	0x1b
	.byte	0x3a
	.byte	0x9
	.long	0x41d9
	.byte	0x28
	.uleb128 0x7
	.long	.LASF29
	.byte	0x1b
	.byte	0x3b
	.byte	0x9
	.long	0x41d9
	.byte	0x30
	.uleb128 0x7
	.long	.LASF30
	.byte	0x1b
	.byte	0x3c
	.byte	0x9
	.long	0x41d9
	.byte	0x38
	.uleb128 0x7
	.long	.LASF31
	.byte	0x1b
	.byte	0x3d
	.byte	0x9
	.long	0x41d9
	.byte	0x40
	.uleb128 0x7
	.long	.LASF32
	.byte	0x1b
	.byte	0x40
	.byte	0x9
	.long	0x41d9
	.byte	0x48
	.uleb128 0x7
	.long	.LASF33
	.byte	0x1b
	.byte	0x41
	.byte	0x9
	.long	0x41d9
	.byte	0x50
	.uleb128 0x7
	.long	.LASF34
	.byte	0x1b
	.byte	0x42
	.byte	0x9
	.long	0x41d9
	.byte	0x58
	.uleb128 0x7
	.long	.LASF35
	.byte	0x1b
	.byte	0x44
	.byte	0x16
	.long	0x54ca
	.byte	0x60
	.uleb128 0x7
	.long	.LASF36
	.byte	0x1b
	.byte	0x46
	.byte	0x14
	.long	0x54cf
	.byte	0x68
	.uleb128 0x7
	.long	.LASF37
	.byte	0x1b
	.byte	0x48
	.byte	0x7
	.long	0x118
	.byte	0x70
	.uleb128 0x7
	.long	.LASF38
	.byte	0x1b
	.byte	0x49
	.byte	0x7
	.long	0x118
	.byte	0x74
	.uleb128 0x7
	.long	.LASF39
	.byte	0x1b
	.byte	0x4a
	.byte	0xb
	.long	0x4da5
	.byte	0x78
	.uleb128 0x7
	.long	.LASF40
	.byte	0x1b
	.byte	0x4d
	.byte	0x12
	.long	0x2e0
	.byte	0x80
	.uleb128 0x7
	.long	.LASF41
	.byte	0x1b
	.byte	0x4e
	.byte	0xf
	.long	0x4c75
	.byte	0x82
	.uleb128 0x7
	.long	.LASF42
	.byte	0x1b
	.byte	0x4f
	.byte	0x8
	.long	0x54d4
	.byte	0x83
	.uleb128 0x7
	.long	.LASF43
	.byte	0x1b
	.byte	0x51
	.byte	0xf
	.long	0x54e4
	.byte	0x88
	.uleb128 0x7
	.long	.LASF44
	.byte	0x1b
	.byte	0x59
	.byte	0xd
	.long	0x4db1
	.byte	0x90
	.uleb128 0x7
	.long	.LASF45
	.byte	0x1b
	.byte	0x5b
	.byte	0x17
	.long	0x54ee
	.byte	0x98
	.uleb128 0x7
	.long	.LASF46
	.byte	0x1b
	.byte	0x5c
	.byte	0x19
	.long	0x54f8
	.byte	0xa0
	.uleb128 0x7
	.long	.LASF47
	.byte	0x1b
	.byte	0x5d
	.byte	0x14
	.long	0x54cf
	.byte	0xa8
	.uleb128 0x7
	.long	.LASF48
	.byte	0x1b
	.byte	0x5e
	.byte	0x9
	.long	0xa6
	.byte	0xb0
	.uleb128 0x7
	.long	.LASF49
	.byte	0x1b
	.byte	0x5f
	.byte	0xa
	.long	0x52
	.byte	0xb8
	.uleb128 0x7
	.long	.LASF50
	.byte	0x1b
	.byte	0x60
	.byte	0x7
	.long	0x118
	.byte	0xc0
	.uleb128 0x7
	.long	.LASF51
	.byte	0x1b
	.byte	0x62
	.byte	0x8
	.long	0x54fd
	.byte	0xc4
	.byte	0
	.uleb128 0x5
	.long	.LASF52
	.byte	0x1c
	.byte	0x7
	.byte	0x19
	.long	0x14d
	.uleb128 0x1f
	.byte	0x2
	.byte	0x7
	.long	.LASF53
	.uleb128 0x9
	.long	0x113
	.uleb128 0x74
	.string	"std"
	.byte	0x1e
	.value	0x128
	.byte	0xb
	.long	0x3ea1
	.uleb128 0x3
	.byte	0x1d
	.byte	0x40
	.byte	0xb
	.long	0x130
	.uleb128 0x3
	.byte	0x1d
	.byte	0x8d
	.byte	0xb
	.long	0xa8
	.uleb128 0x3
	.byte	0x1d
	.byte	0x8f
	.byte	0xb
	.long	0x3ea1
	.uleb128 0x3
	.byte	0x1d
	.byte	0x90
	.byte	0xb
	.long	0x3eb8
	.uleb128 0x3
	.byte	0x1d
	.byte	0x91
	.byte	0xb
	.long	0x3ed4
	.uleb128 0x3
	.byte	0x1d
	.byte	0x92
	.byte	0xb
	.long	0x3f06
	.uleb128 0x3
	.byte	0x1d
	.byte	0x93
	.byte	0xb
	.long	0x3f22
	.uleb128 0x3
	.byte	0x1d
	.byte	0x94
	.byte	0xb
	.long	0x3f43
	.uleb128 0x3
	.byte	0x1d
	.byte	0x95
	.byte	0xb
	.long	0x3f5f
	.uleb128 0x3
	.byte	0x1d
	.byte	0x96
	.byte	0xb
	.long	0x3f7c
	.uleb128 0x3
	.byte	0x1d
	.byte	0x97
	.byte	0xb
	.long	0x3f9d
	.uleb128 0x3
	.byte	0x1d
	.byte	0x98
	.byte	0xb
	.long	0x3fb4
	.uleb128 0x3
	.byte	0x1d
	.byte	0x99
	.byte	0xb
	.long	0x3fc1
	.uleb128 0x3
	.byte	0x1d
	.byte	0x9a
	.byte	0xb
	.long	0x3fe7
	.uleb128 0x3
	.byte	0x1d
	.byte	0x9b
	.byte	0xb
	.long	0x400d
	.uleb128 0x3
	.byte	0x1d
	.byte	0x9c
	.byte	0xb
	.long	0x4029
	.uleb128 0x3
	.byte	0x1d
	.byte	0x9d
	.byte	0xb
	.long	0x4054
	.uleb128 0x3
	.byte	0x1d
	.byte	0x9e
	.byte	0xb
	.long	0x4070
	.uleb128 0x3
	.byte	0x1d
	.byte	0xa0
	.byte	0xb
	.long	0x4087
	.uleb128 0x3
	.byte	0x1d
	.byte	0xa2
	.byte	0xb
	.long	0x40a9
	.uleb128 0x3
	.byte	0x1d
	.byte	0xa3
	.byte	0xb
	.long	0x40ca
	.uleb128 0x3
	.byte	0x1d
	.byte	0xa4
	.byte	0xb
	.long	0x40e6
	.uleb128 0x3
	.byte	0x1d
	.byte	0xa6
	.byte	0xb
	.long	0x410c
	.uleb128 0x3
	.byte	0x1d
	.byte	0xa9
	.byte	0xb
	.long	0x4131
	.uleb128 0x3
	.byte	0x1d
	.byte	0xac
	.byte	0xb
	.long	0x4157
	.uleb128 0x3
	.byte	0x1d
	.byte	0xae
	.byte	0xb
	.long	0x417c
	.uleb128 0x3
	.byte	0x1d
	.byte	0xb0
	.byte	0xb
	.long	0x4198
	.uleb128 0x3
	.byte	0x1d
	.byte	0xb2
	.byte	0xb
	.long	0x41b8
	.uleb128 0x3
	.byte	0x1d
	.byte	0xb3
	.byte	0xb
	.long	0x41de
	.uleb128 0x3
	.byte	0x1d
	.byte	0xb4
	.byte	0xb
	.long	0x41f9
	.uleb128 0x3
	.byte	0x1d
	.byte	0xb5
	.byte	0xb
	.long	0x4214
	.uleb128 0x3
	.byte	0x1d
	.byte	0xb6
	.byte	0xb
	.long	0x422f
	.uleb128 0x3
	.byte	0x1d
	.byte	0xb7
	.byte	0xb
	.long	0x424a
	.uleb128 0x3
	.byte	0x1d
	.byte	0xb8
	.byte	0xb
	.long	0x4265
	.uleb128 0x3
	.byte	0x1d
	.byte	0xb9
	.byte	0xb
	.long	0x4332
	.uleb128 0x3
	.byte	0x1d
	.byte	0xba
	.byte	0xb
	.long	0x4348
	.uleb128 0x3
	.byte	0x1d
	.byte	0xbb
	.byte	0xb
	.long	0x4368
	.uleb128 0x3
	.byte	0x1d
	.byte	0xbc
	.byte	0xb
	.long	0x4388
	.uleb128 0x3
	.byte	0x1d
	.byte	0xbd
	.byte	0xb
	.long	0x43a8
	.uleb128 0x3
	.byte	0x1d
	.byte	0xbe
	.byte	0xb
	.long	0x43d3
	.uleb128 0x3
	.byte	0x1d
	.byte	0xbf
	.byte	0xb
	.long	0x43ee
	.uleb128 0x3
	.byte	0x1d
	.byte	0xc1
	.byte	0xb
	.long	0x440f
	.uleb128 0x3
	.byte	0x1d
	.byte	0xc3
	.byte	0xb
	.long	0x442b
	.uleb128 0x3
	.byte	0x1d
	.byte	0xc4
	.byte	0xb
	.long	0x444b
	.uleb128 0x3
	.byte	0x1d
	.byte	0xc5
	.byte	0xb
	.long	0x4478
	.uleb128 0x3
	.byte	0x1d
	.byte	0xc6
	.byte	0xb
	.long	0x4499
	.uleb128 0x3
	.byte	0x1d
	.byte	0xc7
	.byte	0xb
	.long	0x44b9
	.uleb128 0x3
	.byte	0x1d
	.byte	0xc8
	.byte	0xb
	.long	0x44d0
	.uleb128 0x3
	.byte	0x1d
	.byte	0xc9
	.byte	0xb
	.long	0x44f1
	.uleb128 0x3
	.byte	0x1d
	.byte	0xca
	.byte	0xb
	.long	0x4512
	.uleb128 0x3
	.byte	0x1d
	.byte	0xcb
	.byte	0xb
	.long	0x4533
	.uleb128 0x3
	.byte	0x1d
	.byte	0xcc
	.byte	0xb
	.long	0x4554
	.uleb128 0x3
	.byte	0x1d
	.byte	0xcd
	.byte	0xb
	.long	0x456c
	.uleb128 0x3
	.byte	0x1d
	.byte	0xce
	.byte	0xb
	.long	0x4588
	.uleb128 0x3
	.byte	0x1d
	.byte	0xce
	.byte	0xb
	.long	0x45a7
	.uleb128 0x3
	.byte	0x1d
	.byte	0xcf
	.byte	0xb
	.long	0x45c6
	.uleb128 0x3
	.byte	0x1d
	.byte	0xcf
	.byte	0xb
	.long	0x45e5
	.uleb128 0x3
	.byte	0x1d
	.byte	0xd0
	.byte	0xb
	.long	0x4604
	.uleb128 0x3
	.byte	0x1d
	.byte	0xd0
	.byte	0xb
	.long	0x4623
	.uleb128 0x3
	.byte	0x1d
	.byte	0xd1
	.byte	0xb
	.long	0x4642
	.uleb128 0x3
	.byte	0x1d
	.byte	0xd1
	.byte	0xb
	.long	0x4661
	.uleb128 0x3
	.byte	0x1d
	.byte	0xd2
	.byte	0xb
	.long	0x4680
	.uleb128 0x3
	.byte	0x1d
	.byte	0xd2
	.byte	0xb
	.long	0x46a4
	.uleb128 0x18
	.byte	0x1d
	.value	0x10b
	.byte	0x16
	.long	0x4be6
	.uleb128 0x18
	.byte	0x1d
	.value	0x10c
	.byte	0x16
	.long	0x4c02
	.uleb128 0x18
	.byte	0x1d
	.value	0x10d
	.byte	0x16
	.long	0x4c2a
	.uleb128 0x18
	.byte	0x1d
	.value	0x11b
	.byte	0xe
	.long	0x440f
	.uleb128 0x18
	.byte	0x1d
	.value	0x11e
	.byte	0xe
	.long	0x410c
	.uleb128 0x18
	.byte	0x1d
	.value	0x121
	.byte	0xe
	.long	0x4157
	.uleb128 0x18
	.byte	0x1d
	.value	0x124
	.byte	0xe
	.long	0x4198
	.uleb128 0x18
	.byte	0x1d
	.value	0x128
	.byte	0xe
	.long	0x4be6
	.uleb128 0x18
	.byte	0x1d
	.value	0x129
	.byte	0xe
	.long	0x4c02
	.uleb128 0x18
	.byte	0x1d
	.value	0x12a
	.byte	0xe
	.long	0x4c2a
	.uleb128 0x75
	.long	.LASF1045
	.byte	0x7
	.byte	0x8
	.long	0x5e
	.byte	0x1
	.byte	0x59
	.byte	0xe
	.uleb128 0x19
	.long	.LASF13
	.byte	0x1e
	.value	0x12a
	.byte	0x1a
	.long	0x5e
	.uleb128 0x6
	.long	0x559
	.uleb128 0x16
	.long	.LASF55
	.byte	0x1
	.byte	0x1f
	.byte	0x3e
	.byte	0xc
	.long	0x5d4
	.uleb128 0x5
	.long	.LASF56
	.byte	0x1f
	.byte	0x41
	.byte	0x2d
	.long	0x4c58
	.uleb128 0x35
	.long	.LASF57
	.byte	0x1f
	.byte	0x43
	.byte	0x11
	.long	.LASF59
	.long	0x578
	.long	0x59c
	.long	0x5a2
	.uleb128 0x2
	.long	0x4c64
	.byte	0
	.uleb128 0x35
	.long	.LASF58
	.byte	0x1f
	.byte	0x48
	.byte	0x1c
	.long	.LASF60
	.long	0x578
	.long	0x5ba
	.long	0x5c0
	.uleb128 0x2
	.long	0x4c64
	.byte	0
	.uleb128 0xa
	.string	"_Tp"
	.long	0x4c58
	.uleb128 0x54
	.string	"__v"
	.long	0x4c58
	.byte	0
	.byte	0
	.uleb128 0x6
	.long	0x56b
	.uleb128 0x16
	.long	.LASF61
	.byte	0x1
	.byte	0x1f
	.byte	0x3e
	.byte	0xc
	.long	0x642
	.uleb128 0x5
	.long	.LASF56
	.byte	0x1f
	.byte	0x41
	.byte	0x2d
	.long	0x4c58
	.uleb128 0x35
	.long	.LASF62
	.byte	0x1f
	.byte	0x43
	.byte	0x11
	.long	.LASF63
	.long	0x5e6
	.long	0x60a
	.long	0x610
	.uleb128 0x2
	.long	0x4c69
	.byte	0
	.uleb128 0x35
	.long	.LASF58
	.byte	0x1f
	.byte	0x48
	.byte	0x1c
	.long	.LASF64
	.long	0x5e6
	.long	0x628
	.long	0x62e
	.uleb128 0x2
	.long	0x4c69
	.byte	0
	.uleb128 0xa
	.string	"_Tp"
	.long	0x4c58
	.uleb128 0x54
	.string	"__v"
	.long	0x4c58
	.byte	0x1
	.byte	0
	.uleb128 0x6
	.long	0x5d9
	.uleb128 0x5
	.long	.LASF65
	.byte	0x1f
	.byte	0x55
	.byte	0x9
	.long	0x56b
	.uleb128 0x55
	.long	.LASF66
	.value	0xa9f
	.uleb128 0x55
	.long	.LASF67
	.value	0xaf5
	.uleb128 0x40
	.long	.LASF68
	.byte	0x20
	.byte	0x3f
	.byte	0xd
	.long	0x83e
	.uleb128 0x2c
	.long	.LASF70
	.byte	0x8
	.byte	0x20
	.byte	0x5a
	.byte	0xb
	.long	0x830
	.uleb128 0x7
	.long	.LASF69
	.byte	0x20
	.byte	0x5c
	.byte	0xd
	.long	0xa6
	.byte	0
	.uleb128 0x76
	.long	.LASF70
	.byte	0x20
	.byte	0x5e
	.byte	0x10
	.long	.LASF71
	.long	0x69b
	.long	0x6a6
	.uleb128 0x2
	.long	0x4c91
	.uleb128 0x1
	.long	0xa6
	.byte	0
	.uleb128 0x22
	.long	.LASF72
	.byte	0x20
	.byte	0x60
	.byte	0xc
	.long	.LASF74
	.long	0x6ba
	.long	0x6c0
	.uleb128 0x2
	.long	0x4c91
	.byte	0
	.uleb128 0x22
	.long	.LASF73
	.byte	0x20
	.byte	0x61
	.byte	0xc
	.long	.LASF75
	.long	0x6d4
	.long	0x6da
	.uleb128 0x2
	.long	0x4c91
	.byte	0
	.uleb128 0x35
	.long	.LASF76
	.byte	0x20
	.byte	0x63
	.byte	0xd
	.long	.LASF77
	.long	0xa6
	.long	0x6f2
	.long	0x6f8
	.uleb128 0x2
	.long	0x4c96
	.byte	0
	.uleb128 0x1d
	.long	.LASF70
	.byte	0x20
	.byte	0x6b
	.byte	0x7
	.long	.LASF78
	.long	0x70c
	.long	0x712
	.uleb128 0x2
	.long	0x4c91
	.byte	0
	.uleb128 0x1d
	.long	.LASF70
	.byte	0x20
	.byte	0x6d
	.byte	0x7
	.long	.LASF79
	.long	0x726
	.long	0x731
	.uleb128 0x2
	.long	0x4c91
	.uleb128 0x1
	.long	0x4c9b
	.byte	0
	.uleb128 0x1d
	.long	.LASF70
	.byte	0x20
	.byte	0x70
	.byte	0x7
	.long	.LASF80
	.long	0x745
	.long	0x750
	.uleb128 0x2
	.long	0x4c91
	.uleb128 0x1
	.long	0x85c
	.byte	0
	.uleb128 0x1d
	.long	.LASF70
	.byte	0x20
	.byte	0x74
	.byte	0x7
	.long	.LASF81
	.long	0x764
	.long	0x76f
	.uleb128 0x2
	.long	0x4c91
	.uleb128 0x1
	.long	0x4ca0
	.byte	0
	.uleb128 0x17
	.long	.LASF82
	.byte	0x20
	.byte	0x81
	.byte	0x7
	.long	.LASF83
	.long	0x4ca5
	.byte	0x1
	.long	0x788
	.long	0x793
	.uleb128 0x2
	.long	0x4c91
	.uleb128 0x1
	.long	0x4c9b
	.byte	0
	.uleb128 0x17
	.long	.LASF82
	.byte	0x20
	.byte	0x85
	.byte	0x7
	.long	.LASF84
	.long	0x4ca5
	.byte	0x1
	.long	0x7ac
	.long	0x7b7
	.uleb128 0x2
	.long	0x4c91
	.uleb128 0x1
	.long	0x4ca0
	.byte	0
	.uleb128 0x1d
	.long	.LASF85
	.byte	0x20
	.byte	0x8c
	.byte	0x7
	.long	.LASF86
	.long	0x7cb
	.long	0x7d6
	.uleb128 0x2
	.long	0x4c91
	.uleb128 0x2
	.long	0x118
	.byte	0
	.uleb128 0x1d
	.long	.LASF87
	.byte	0x20
	.byte	0x8f
	.byte	0x7
	.long	.LASF88
	.long	0x7ea
	.long	0x7f5
	.uleb128 0x2
	.long	0x4c91
	.uleb128 0x1
	.long	0x4ca5
	.byte	0
	.uleb128 0x77
	.long	.LASF178
	.byte	0x20
	.byte	0x9b
	.byte	0x10
	.long	.LASF179
	.long	0x4c58
	.byte	0x1
	.long	0x80e
	.long	0x814
	.uleb128 0x2
	.long	0x4c96
	.byte	0
	.uleb128 0x78
	.long	.LASF89
	.byte	0x20
	.byte	0xb0
	.byte	0x7
	.long	.LASF90
	.long	0x4caa
	.byte	0x1
	.long	0x829
	.uleb128 0x2
	.long	0x4c96
	.byte	0
	.byte	0
	.uleb128 0x6
	.long	0x66d
	.uleb128 0x3
	.byte	0x20
	.byte	0x54
	.byte	0x10
	.long	0x846
	.byte	0
	.uleb128 0x3
	.byte	0x20
	.byte	0x44
	.byte	0x1a
	.long	0x66d
	.uleb128 0x56
	.long	.LASF91
	.byte	0x20
	.byte	0x50
	.byte	0x8
	.long	.LASF92
	.long	0x85c
	.uleb128 0x1
	.long	0x66d
	.byte	0
	.uleb128 0x19
	.long	.LASF93
	.byte	0x1e
	.value	0x12e
	.byte	0x1d
	.long	0x4c52
	.uleb128 0x30
	.long	.LASF380
	.uleb128 0x6
	.long	0x869
	.uleb128 0x38
	.long	.LASF94
	.byte	0x21
	.value	0x14f
	.long	0xa59
	.uleb128 0x36
	.long	.LASF108
	.byte	0x21
	.value	0x15b
	.byte	0x7
	.long	.LASF188
	.long	0x89b
	.uleb128 0x1
	.long	0x4caf
	.uleb128 0x1
	.long	0x4cb4
	.byte	0
	.uleb128 0x19
	.long	.LASF95
	.byte	0x21
	.value	0x151
	.byte	0x21
	.long	0x10c
	.uleb128 0x6
	.long	0x89b
	.uleb128 0x57
	.string	"eq"
	.value	0x166
	.long	.LASF96
	.long	0x4c58
	.long	0x8ca
	.uleb128 0x1
	.long	0x4cb4
	.uleb128 0x1
	.long	0x4cb4
	.byte	0
	.uleb128 0x57
	.string	"lt"
	.value	0x16a
	.long	.LASF97
	.long	0x4c58
	.long	0x8e7
	.uleb128 0x1
	.long	0x4cb4
	.uleb128 0x1
	.long	0x4cb4
	.byte	0
	.uleb128 0xe
	.long	.LASF98
	.byte	0x21
	.value	0x172
	.byte	0x7
	.long	.LASF100
	.long	0x118
	.long	0x90c
	.uleb128 0x1
	.long	0x4cb9
	.uleb128 0x1
	.long	0x4cb9
	.uleb128 0x1
	.long	0x559
	.byte	0
	.uleb128 0xe
	.long	.LASF99
	.byte	0x21
	.value	0x185
	.byte	0x7
	.long	.LASF101
	.long	0x559
	.long	0x927
	.uleb128 0x1
	.long	0x4cb9
	.byte	0
	.uleb128 0xe
	.long	.LASF102
	.byte	0x21
	.value	0x18f
	.byte	0x7
	.long	.LASF103
	.long	0x4cb9
	.long	0x94c
	.uleb128 0x1
	.long	0x4cb9
	.uleb128 0x1
	.long	0x559
	.uleb128 0x1
	.long	0x4cb4
	.byte	0
	.uleb128 0xe
	.long	.LASF104
	.byte	0x21
	.value	0x19b
	.byte	0x7
	.long	.LASF105
	.long	0x4cbe
	.long	0x971
	.uleb128 0x1
	.long	0x4cbe
	.uleb128 0x1
	.long	0x4cb9
	.uleb128 0x1
	.long	0x559
	.byte	0
	.uleb128 0xe
	.long	.LASF106
	.byte	0x21
	.value	0x1a7
	.byte	0x7
	.long	.LASF107
	.long	0x4cbe
	.long	0x996
	.uleb128 0x1
	.long	0x4cbe
	.uleb128 0x1
	.long	0x4cb9
	.uleb128 0x1
	.long	0x559
	.byte	0
	.uleb128 0xe
	.long	.LASF108
	.byte	0x21
	.value	0x1b3
	.byte	0x7
	.long	.LASF109
	.long	0x4cbe
	.long	0x9bb
	.uleb128 0x1
	.long	0x4cbe
	.uleb128 0x1
	.long	0x559
	.uleb128 0x1
	.long	0x89b
	.byte	0
	.uleb128 0xe
	.long	.LASF110
	.byte	0x21
	.value	0x1bf
	.byte	0x7
	.long	.LASF111
	.long	0x89b
	.long	0x9d6
	.uleb128 0x1
	.long	0x4cc3
	.byte	0
	.uleb128 0x19
	.long	.LASF112
	.byte	0x21
	.value	0x152
	.byte	0x21
	.long	0x118
	.uleb128 0x6
	.long	0x9d6
	.uleb128 0xe
	.long	.LASF113
	.byte	0x21
	.value	0x1c5
	.byte	0x7
	.long	.LASF114
	.long	0x9d6
	.long	0xa03
	.uleb128 0x1
	.long	0x4cb4
	.byte	0
	.uleb128 0xe
	.long	.LASF115
	.byte	0x21
	.value	0x1c9
	.byte	0x7
	.long	.LASF116
	.long	0x4c58
	.long	0xa23
	.uleb128 0x1
	.long	0x4cc3
	.uleb128 0x1
	.long	0x4cc3
	.byte	0
	.uleb128 0x79
	.string	"eof"
	.byte	0x21
	.value	0x1cd
	.byte	0x7
	.long	.LASF1046
	.long	0x9d6
	.uleb128 0xe
	.long	.LASF117
	.byte	0x21
	.value	0x1d1
	.byte	0x7
	.long	.LASF118
	.long	0x9d6
	.long	0xa4f
	.uleb128 0x1
	.long	0x4cc3
	.byte	0
	.uleb128 0x4
	.long	.LASF119
	.long	0x10c
	.byte	0
	.uleb128 0x3
	.byte	0x22
	.byte	0x2f
	.byte	0xb
	.long	0x4dc9
	.uleb128 0x3
	.byte	0x22
	.byte	0x30
	.byte	0xb
	.long	0x4dd5
	.uleb128 0x3
	.byte	0x22
	.byte	0x31
	.byte	0xb
	.long	0x4de1
	.uleb128 0x3
	.byte	0x22
	.byte	0x32
	.byte	0xb
	.long	0x4ded
	.uleb128 0x3
	.byte	0x22
	.byte	0x34
	.byte	0xb
	.long	0x4e89
	.uleb128 0x3
	.byte	0x22
	.byte	0x35
	.byte	0xb
	.long	0x4e95
	.uleb128 0x3
	.byte	0x22
	.byte	0x36
	.byte	0xb
	.long	0x4ea1
	.uleb128 0x3
	.byte	0x22
	.byte	0x37
	.byte	0xb
	.long	0x4ead
	.uleb128 0x3
	.byte	0x22
	.byte	0x39
	.byte	0xb
	.long	0x4e29
	.uleb128 0x3
	.byte	0x22
	.byte	0x3a
	.byte	0xb
	.long	0x4e35
	.uleb128 0x3
	.byte	0x22
	.byte	0x3b
	.byte	0xb
	.long	0x4e41
	.uleb128 0x3
	.byte	0x22
	.byte	0x3c
	.byte	0xb
	.long	0x4e4d
	.uleb128 0x3
	.byte	0x22
	.byte	0x3e
	.byte	0xb
	.long	0x4f01
	.uleb128 0x3
	.byte	0x22
	.byte	0x3f
	.byte	0xb
	.long	0x4ee9
	.uleb128 0x3
	.byte	0x22
	.byte	0x41
	.byte	0xb
	.long	0x4df9
	.uleb128 0x3
	.byte	0x22
	.byte	0x42
	.byte	0xb
	.long	0x4e05
	.uleb128 0x3
	.byte	0x22
	.byte	0x43
	.byte	0xb
	.long	0x4e11
	.uleb128 0x3
	.byte	0x22
	.byte	0x44
	.byte	0xb
	.long	0x4e1d
	.uleb128 0x3
	.byte	0x22
	.byte	0x46
	.byte	0xb
	.long	0x4eb9
	.uleb128 0x3
	.byte	0x22
	.byte	0x47
	.byte	0xb
	.long	0x4ec5
	.uleb128 0x3
	.byte	0x22
	.byte	0x48
	.byte	0xb
	.long	0x4ed1
	.uleb128 0x3
	.byte	0x22
	.byte	0x49
	.byte	0xb
	.long	0x4edd
	.uleb128 0x3
	.byte	0x22
	.byte	0x4b
	.byte	0xb
	.long	0x4e59
	.uleb128 0x3
	.byte	0x22
	.byte	0x4c
	.byte	0xb
	.long	0x4e65
	.uleb128 0x3
	.byte	0x22
	.byte	0x4d
	.byte	0xb
	.long	0x4e71
	.uleb128 0x3
	.byte	0x22
	.byte	0x4e
	.byte	0xb
	.long	0x4e7d
	.uleb128 0x3
	.byte	0x22
	.byte	0x50
	.byte	0xb
	.long	0x4f0d
	.uleb128 0x3
	.byte	0x22
	.byte	0x51
	.byte	0xb
	.long	0x4ef5
	.uleb128 0x3
	.byte	0x23
	.byte	0x35
	.byte	0xb
	.long	0x4f19
	.uleb128 0x3
	.byte	0x23
	.byte	0x36
	.byte	0xb
	.long	0x505f
	.uleb128 0x3
	.byte	0x23
	.byte	0x37
	.byte	0xb
	.long	0x507a
	.uleb128 0x19
	.long	.LASF120
	.byte	0x1e
	.value	0x12b
	.byte	0x1c
	.long	0x446c
	.uleb128 0x6
	.long	0xb51
	.uleb128 0x5
	.long	.LASF121
	.byte	0x1f
	.byte	0x52
	.byte	0x9
	.long	0x5d9
	.uleb128 0x7a
	.long	.LASF1047
	.byte	0x1
	.byte	0x10
	.byte	0x5d
	.byte	0xa
	.uleb128 0x16
	.long	.LASF122
	.byte	0x1
	.byte	0x10
	.byte	0x63
	.byte	0xa
	.long	0xb8b
	.uleb128 0x31
	.long	0xb6f
	.byte	0
	.uleb128 0x16
	.long	.LASF123
	.byte	0x1
	.byte	0x10
	.byte	0x67
	.byte	0xa
	.long	0xb9e
	.uleb128 0x31
	.long	0xb78
	.byte	0
	.uleb128 0x16
	.long	.LASF124
	.byte	0x1
	.byte	0x10
	.byte	0x6b
	.byte	0xa
	.long	0xbb1
	.uleb128 0x31
	.long	0xb8b
	.byte	0
	.uleb128 0x58
	.long	.LASF125
	.byte	0x24
	.byte	0x32
	.byte	0xd
	.uleb128 0x16
	.long	.LASF126
	.byte	0x1
	.byte	0xf
	.byte	0xa8
	.byte	0xc
	.long	0xc0b
	.uleb128 0x37
	.long	.LASF127
	.byte	0xf
	.byte	0xac
	.byte	0x9
	.long	.LASF204
	.long	0xbea
	.uleb128 0x4
	.long	.LASF128
	.long	0x59aa
	.uleb128 0x1
	.long	0x59aa
	.uleb128 0x1
	.long	0x59aa
	.byte	0
	.uleb128 0x7b
	.long	.LASF859
	.byte	0xf
	.byte	0xac
	.byte	0x9
	.long	.LASF1048
	.uleb128 0x4
	.long	.LASF128
	.long	0x5c34
	.uleb128 0x1
	.long	0x5c34
	.uleb128 0x1
	.long	0x5c34
	.byte	0
	.byte	0
	.uleb128 0x3
	.byte	0x25
	.byte	0x7f
	.byte	0xb
	.long	0x50df
	.uleb128 0x3
	.byte	0x25
	.byte	0x80
	.byte	0xb
	.long	0x5112
	.uleb128 0x3
	.byte	0x25
	.byte	0x86
	.byte	0xb
	.long	0x5184
	.uleb128 0x3
	.byte	0x25
	.byte	0x89
	.byte	0xb
	.long	0x51a2
	.uleb128 0x3
	.byte	0x25
	.byte	0x8c
	.byte	0xb
	.long	0x51bd
	.uleb128 0x3
	.byte	0x25
	.byte	0x8d
	.byte	0xb
	.long	0x51d3
	.uleb128 0x3
	.byte	0x25
	.byte	0x8e
	.byte	0xb
	.long	0x51e9
	.uleb128 0x3
	.byte	0x25
	.byte	0x8f
	.byte	0xb
	.long	0x51ff
	.uleb128 0x3
	.byte	0x25
	.byte	0x91
	.byte	0xb
	.long	0x522a
	.uleb128 0x3
	.byte	0x25
	.byte	0x94
	.byte	0xb
	.long	0x5247
	.uleb128 0x3
	.byte	0x25
	.byte	0x96
	.byte	0xb
	.long	0x525e
	.uleb128 0x3
	.byte	0x25
	.byte	0x99
	.byte	0xb
	.long	0x527a
	.uleb128 0x3
	.byte	0x25
	.byte	0x9a
	.byte	0xb
	.long	0x5296
	.uleb128 0x3
	.byte	0x25
	.byte	0x9b
	.byte	0xb
	.long	0x52b7
	.uleb128 0x3
	.byte	0x25
	.byte	0x9d
	.byte	0xb
	.long	0x52d8
	.uleb128 0x3
	.byte	0x25
	.byte	0xa0
	.byte	0xb
	.long	0x52f9
	.uleb128 0x3
	.byte	0x25
	.byte	0xa3
	.byte	0xb
	.long	0x530d
	.uleb128 0x3
	.byte	0x25
	.byte	0xa5
	.byte	0xb
	.long	0x531a
	.uleb128 0x3
	.byte	0x25
	.byte	0xa6
	.byte	0xb
	.long	0x532c
	.uleb128 0x3
	.byte	0x25
	.byte	0xa7
	.byte	0xb
	.long	0x534c
	.uleb128 0x3
	.byte	0x25
	.byte	0xa8
	.byte	0xb
	.long	0x536c
	.uleb128 0x3
	.byte	0x25
	.byte	0xa9
	.byte	0xb
	.long	0x538c
	.uleb128 0x3
	.byte	0x25
	.byte	0xab
	.byte	0xb
	.long	0x53a3
	.uleb128 0x3
	.byte	0x25
	.byte	0xac
	.byte	0xb
	.long	0x53c4
	.uleb128 0x3
	.byte	0x25
	.byte	0xf0
	.byte	0x16
	.long	0x5145
	.uleb128 0x3
	.byte	0x25
	.byte	0xf5
	.byte	0x16
	.long	0x4730
	.uleb128 0x3
	.byte	0x25
	.byte	0xf6
	.byte	0x16
	.long	0x53e0
	.uleb128 0x3
	.byte	0x25
	.byte	0xf8
	.byte	0x16
	.long	0x53fc
	.uleb128 0x3
	.byte	0x25
	.byte	0xf9
	.byte	0x16
	.long	0x5452
	.uleb128 0x3
	.byte	0x25
	.byte	0xfa
	.byte	0x16
	.long	0x5412
	.uleb128 0x3
	.byte	0x25
	.byte	0xfb
	.byte	0x16
	.long	0x5432
	.uleb128 0x3
	.byte	0x25
	.byte	0xfc
	.byte	0x16
	.long	0x546d
	.uleb128 0x3
	.byte	0x26
	.byte	0x62
	.byte	0xb
	.long	0x2d4
	.uleb128 0x3
	.byte	0x26
	.byte	0x63
	.byte	0xb
	.long	0x550d
	.uleb128 0x3
	.byte	0x26
	.byte	0x65
	.byte	0xb
	.long	0x5523
	.uleb128 0x3
	.byte	0x26
	.byte	0x66
	.byte	0xb
	.long	0x5535
	.uleb128 0x3
	.byte	0x26
	.byte	0x67
	.byte	0xb
	.long	0x554b
	.uleb128 0x3
	.byte	0x26
	.byte	0x68
	.byte	0xb
	.long	0x5562
	.uleb128 0x3
	.byte	0x26
	.byte	0x69
	.byte	0xb
	.long	0x5579
	.uleb128 0x3
	.byte	0x26
	.byte	0x6a
	.byte	0xb
	.long	0x558f
	.uleb128 0x3
	.byte	0x26
	.byte	0x6b
	.byte	0xb
	.long	0x55a6
	.uleb128 0x3
	.byte	0x26
	.byte	0x6c
	.byte	0xb
	.long	0x55c7
	.uleb128 0x3
	.byte	0x26
	.byte	0x6d
	.byte	0xb
	.long	0x55e8
	.uleb128 0x3
	.byte	0x26
	.byte	0x71
	.byte	0xb
	.long	0x5604
	.uleb128 0x3
	.byte	0x26
	.byte	0x72
	.byte	0xb
	.long	0x562a
	.uleb128 0x3
	.byte	0x26
	.byte	0x74
	.byte	0xb
	.long	0x564b
	.uleb128 0x3
	.byte	0x26
	.byte	0x75
	.byte	0xb
	.long	0x566c
	.uleb128 0x3
	.byte	0x26
	.byte	0x76
	.byte	0xb
	.long	0x568d
	.uleb128 0x3
	.byte	0x26
	.byte	0x78
	.byte	0xb
	.long	0x56a4
	.uleb128 0x3
	.byte	0x26
	.byte	0x79
	.byte	0xb
	.long	0x56bb
	.uleb128 0x3
	.byte	0x26
	.byte	0x7e
	.byte	0xb
	.long	0x56c8
	.uleb128 0x3
	.byte	0x26
	.byte	0x83
	.byte	0xb
	.long	0x56da
	.uleb128 0x3
	.byte	0x26
	.byte	0x84
	.byte	0xb
	.long	0x56f0
	.uleb128 0x3
	.byte	0x26
	.byte	0x85
	.byte	0xb
	.long	0x570b
	.uleb128 0x3
	.byte	0x26
	.byte	0x87
	.byte	0xb
	.long	0x571d
	.uleb128 0x3
	.byte	0x26
	.byte	0x88
	.byte	0xb
	.long	0x5734
	.uleb128 0x3
	.byte	0x26
	.byte	0x8b
	.byte	0xb
	.long	0x575a
	.uleb128 0x3
	.byte	0x26
	.byte	0x8d
	.byte	0xb
	.long	0x5766
	.uleb128 0x3
	.byte	0x26
	.byte	0x8f
	.byte	0xb
	.long	0x577c
	.uleb128 0x7c
	.long	.LASF129
	.byte	0x1e
	.value	0x14b
	.byte	0x41
	.uleb128 0x7d
	.string	"_V2"
	.byte	0x3d
	.byte	0x50
	.byte	0x14
	.uleb128 0x48
	.long	.LASF136
	.long	0xe8b
	.uleb128 0x7e
	.long	.LASF130
	.byte	0x1
	.byte	0x27
	.value	0x27b
	.byte	0xb
	.byte	0x1
	.long	0xe85
	.uleb128 0x59
	.long	.LASF130
	.value	0x27f
	.long	.LASF132
	.long	0xe1f
	.long	0xe25
	.uleb128 0x2
	.long	0x5798
	.byte	0
	.uleb128 0x59
	.long	.LASF131
	.value	0x280
	.long	.LASF133
	.long	0xe38
	.long	0xe43
	.uleb128 0x2
	.long	0x5798
	.uleb128 0x2
	.long	0x118
	.byte	0
	.uleb128 0x3b
	.long	.LASF130
	.byte	0x27
	.value	0x283
	.long	.LASF134
	.long	0xe57
	.long	0xe62
	.uleb128 0x2
	.long	0x5798
	.uleb128 0x1
	.long	0x57a2
	.byte	0
	.uleb128 0x7f
	.long	.LASF82
	.byte	0x27
	.value	0x284
	.byte	0xd
	.long	.LASF135
	.long	0x57a7
	.byte	0x1
	.byte	0x1
	.long	0xe79
	.uleb128 0x2
	.long	0x5798
	.uleb128 0x1
	.long	0x57a2
	.byte	0
	.byte	0
	.uleb128 0x6
	.long	0xdfd
	.byte	0
	.uleb128 0x3
	.byte	0x28
	.byte	0x52
	.byte	0xb
	.long	0x57b8
	.uleb128 0x3
	.byte	0x28
	.byte	0x53
	.byte	0xb
	.long	0x57ac
	.uleb128 0x3
	.byte	0x28
	.byte	0x54
	.byte	0xb
	.long	0xa8
	.uleb128 0x3
	.byte	0x28
	.byte	0x5c
	.byte	0xb
	.long	0x57c9
	.uleb128 0x3
	.byte	0x28
	.byte	0x65
	.byte	0xb
	.long	0x57e4
	.uleb128 0x3
	.byte	0x28
	.byte	0x68
	.byte	0xb
	.long	0x57ff
	.uleb128 0x3
	.byte	0x28
	.byte	0x69
	.byte	0xb
	.long	0x5815
	.uleb128 0x48
	.long	.LASF137
	.long	0xf0f
	.uleb128 0x27
	.long	.LASF157
	.byte	0x29
	.byte	0x47
	.byte	0x2f
	.long	0xec3
	.uleb128 0x17
	.long	.LASF138
	.byte	0x29
	.byte	0xa6
	.byte	0x7
	.long	.LASF139
	.long	0x7b01
	.byte	0x1
	.long	0xef1
	.long	0xefc
	.uleb128 0x2
	.long	0x7b06
	.uleb128 0x1
	.long	0x446c
	.byte	0
	.uleb128 0x4
	.long	.LASF119
	.long	0x10c
	.uleb128 0x5a
	.long	.LASF370
	.long	0x873
	.byte	0
	.uleb128 0x5
	.long	.LASF140
	.byte	0x2a
	.byte	0x8d
	.byte	0x21
	.long	0xec3
	.uleb128 0x80
	.long	.LASF935
	.byte	0x14
	.byte	0x3d
	.byte	0x12
	.long	.LASF1049
	.long	0xf0f
	.uleb128 0x81
	.long	.LASF975
	.byte	0x14
	.byte	0x4a
	.byte	0x19
	.long	0xdfd
	.uleb128 0x16
	.long	.LASF141
	.byte	0x1
	.byte	0x11
	.byte	0x8d
	.byte	0xc
	.long	0xf87
	.uleb128 0x1e
	.long	.LASF142
	.byte	0x11
	.byte	0x91
	.byte	0x9
	.long	.LASF143
	.long	0x59aa
	.long	0xf7c
	.uleb128 0x4
	.long	.LASF144
	.long	0x59c3
	.uleb128 0x4
	.long	.LASF128
	.long	0x59aa
	.uleb128 0x1
	.long	0x59c3
	.uleb128 0x1
	.long	0x59c3
	.uleb128 0x1
	.long	0x59aa
	.byte	0
	.uleb128 0x2e
	.long	.LASF145
	.long	0x4c58
	.byte	0x1
	.byte	0
	.uleb128 0x38
	.long	.LASF146
	.byte	0x11
	.value	0x28a
	.long	0xfd0
	.uleb128 0xe
	.long	.LASF147
	.byte	0x11
	.value	0x28f
	.byte	0x9
	.long	.LASF148
	.long	0x5c34
	.long	0xfc5
	.uleb128 0x4
	.long	.LASF128
	.long	0x5c34
	.uleb128 0x4
	.long	.LASF149
	.long	0x5e
	.uleb128 0x1
	.long	0x5c34
	.uleb128 0x1
	.long	0x5e
	.byte	0
	.uleb128 0x2e
	.long	.LASF150
	.long	0x4c58
	.byte	0x1
	.byte	0
	.uleb128 0x2c
	.long	.LASF151
	.byte	0x1
	.byte	0xa
	.byte	0x38
	.byte	0xb
	.long	0x114d
	.uleb128 0x1d
	.long	.LASF152
	.byte	0xa
	.byte	0x50
	.byte	0x7
	.long	.LASF153
	.long	0xff1
	.long	0xff7
	.uleb128 0x2
	.long	0x599b
	.byte	0
	.uleb128 0x1d
	.long	.LASF152
	.byte	0xa
	.byte	0x53
	.byte	0x7
	.long	.LASF154
	.long	0x100b
	.long	0x1016
	.uleb128 0x2
	.long	0x599b
	.uleb128 0x1
	.long	0x59a5
	.byte	0
	.uleb128 0x1d
	.long	.LASF155
	.byte	0xa
	.byte	0x5a
	.byte	0x7
	.long	.LASF156
	.long	0x102a
	.long	0x1035
	.uleb128 0x2
	.long	0x599b
	.uleb128 0x2
	.long	0x118
	.byte	0
	.uleb128 0x27
	.long	.LASF158
	.byte	0xa
	.byte	0x3f
	.byte	0x1a
	.long	0x59aa
	.uleb128 0x17
	.long	.LASF159
	.byte	0xa
	.byte	0x5d
	.byte	0x7
	.long	.LASF160
	.long	0x1035
	.byte	0x1
	.long	0x105a
	.long	0x1065
	.uleb128 0x2
	.long	0x59b4
	.uleb128 0x1
	.long	0x1065
	.byte	0
	.uleb128 0x27
	.long	.LASF161
	.byte	0xa
	.byte	0x41
	.byte	0x1a
	.long	0x59be
	.uleb128 0x27
	.long	.LASF162
	.byte	0xa
	.byte	0x40
	.byte	0x1a
	.long	0x59c3
	.uleb128 0x17
	.long	.LASF159
	.byte	0xa
	.byte	0x61
	.byte	0x7
	.long	.LASF163
	.long	0x1071
	.byte	0x1
	.long	0x1096
	.long	0x10a1
	.uleb128 0x2
	.long	0x59b4
	.uleb128 0x1
	.long	0x10a1
	.byte	0
	.uleb128 0x27
	.long	.LASF164
	.byte	0xa
	.byte	0x42
	.byte	0x1a
	.long	0x59cd
	.uleb128 0x17
	.long	.LASF165
	.byte	0xa
	.byte	0x70
	.byte	0x7
	.long	.LASF166
	.long	0x59aa
	.byte	0x1
	.long	0x10c6
	.long	0x10d6
	.uleb128 0x2
	.long	0x599b
	.uleb128 0x1
	.long	0x10d6
	.uleb128 0x1
	.long	0x509c
	.byte	0
	.uleb128 0x27
	.long	.LASF167
	.byte	0xa
	.byte	0x3c
	.byte	0x1f
	.long	0x559
	.uleb128 0x1d
	.long	.LASF168
	.byte	0xa
	.byte	0x8e
	.byte	0x7
	.long	.LASF169
	.long	0x10f6
	.long	0x1106
	.uleb128 0x2
	.long	0x599b
	.uleb128 0x1
	.long	0x59aa
	.uleb128 0x1
	.long	0x10d6
	.byte	0
	.uleb128 0x17
	.long	.LASF170
	.byte	0xa
	.byte	0xa7
	.byte	0x7
	.long	.LASF171
	.long	0x10d6
	.byte	0x1
	.long	0x111f
	.long	0x1125
	.uleb128 0x2
	.long	0x59b4
	.byte	0
	.uleb128 0x35
	.long	.LASF172
	.byte	0xa
	.byte	0xd2
	.byte	0x7
	.long	.LASF173
	.long	0x10d6
	.long	0x113d
	.long	0x1143
	.uleb128 0x2
	.long	0x59b4
	.byte	0
	.uleb128 0xa
	.string	"_Tp"
	.long	0x446c
	.byte	0
	.uleb128 0x6
	.long	0xfd0
	.uleb128 0x2c
	.long	.LASF174
	.byte	0x1
	.byte	0x7
	.byte	0x7c
	.byte	0xb
	.long	0x11d9
	.uleb128 0x41
	.long	0xfd0
	.byte	0x1
	.uleb128 0x1d
	.long	.LASF175
	.byte	0x7
	.byte	0x9c
	.byte	0x7
	.long	.LASF176
	.long	0x1179
	.long	0x117f
	.uleb128 0x2
	.long	0x59d2
	.byte	0
	.uleb128 0x1d
	.long	.LASF175
	.byte	0x7
	.byte	0x9f
	.byte	0x7
	.long	.LASF177
	.long	0x1193
	.long	0x119e
	.uleb128 0x2
	.long	0x59d2
	.uleb128 0x1
	.long	0x59dc
	.byte	0
	.uleb128 0x5b
	.long	.LASF82
	.byte	0xa4
	.long	.LASF180
	.long	0x59e1
	.long	0x11b4
	.long	0x11bf
	.uleb128 0x2
	.long	0x59d2
	.uleb128 0x1
	.long	0x59dc
	.byte	0
	.uleb128 0x5c
	.long	.LASF181
	.byte	0xae
	.long	.LASF182
	.long	0x11cd
	.uleb128 0x2
	.long	0x59d2
	.uleb128 0x2
	.long	0x118
	.byte	0
	.byte	0
	.uleb128 0x6
	.long	0x1152
	.uleb128 0x38
	.long	.LASF183
	.byte	0x9
	.value	0x19b
	.long	0x12da
	.uleb128 0x19
	.long	.LASF158
	.byte	0x9
	.value	0x1a4
	.byte	0xd
	.long	0x59aa
	.uleb128 0xe
	.long	.LASF165
	.byte	0x9
	.value	0x1cf
	.byte	0x7
	.long	.LASF184
	.long	0x11ea
	.long	0x1217
	.uleb128 0x1
	.long	0x59e6
	.uleb128 0x1
	.long	0x1229
	.byte	0
	.uleb128 0x19
	.long	.LASF185
	.byte	0x9
	.value	0x19e
	.byte	0xd
	.long	0x1152
	.uleb128 0x6
	.long	0x1217
	.uleb128 0x19
	.long	.LASF167
	.byte	0x9
	.value	0x1b3
	.byte	0xd
	.long	0x559
	.uleb128 0xe
	.long	.LASF165
	.byte	0x9
	.value	0x1dd
	.byte	0x7
	.long	.LASF186
	.long	0x11ea
	.long	0x125b
	.uleb128 0x1
	.long	0x59e6
	.uleb128 0x1
	.long	0x1229
	.uleb128 0x1
	.long	0x125b
	.byte	0
	.uleb128 0x19
	.long	.LASF187
	.byte	0x9
	.value	0x1ad
	.byte	0xd
	.long	0x509c
	.uleb128 0x36
	.long	.LASF168
	.byte	0x9
	.value	0x1ef
	.byte	0x7
	.long	.LASF189
	.long	0x1289
	.uleb128 0x1
	.long	0x59e6
	.uleb128 0x1
	.long	0x11ea
	.uleb128 0x1
	.long	0x1229
	.byte	0
	.uleb128 0xe
	.long	.LASF170
	.byte	0x9
	.value	0x223
	.byte	0x7
	.long	.LASF190
	.long	0x1229
	.long	0x12a4
	.uleb128 0x1
	.long	0x59eb
	.byte	0
	.uleb128 0xe
	.long	.LASF191
	.byte	0x9
	.value	0x232
	.byte	0x7
	.long	.LASF192
	.long	0x1217
	.long	0x12bf
	.uleb128 0x1
	.long	0x59eb
	.byte	0
	.uleb128 0x19
	.long	.LASF56
	.byte	0x9
	.value	0x1a1
	.byte	0xd
	.long	0x446c
	.uleb128 0x19
	.long	.LASF193
	.byte	0x9
	.value	0x1c2
	.byte	0x8
	.long	0x1152
	.byte	0
	.uleb128 0x16
	.long	.LASF194
	.byte	0x18
	.byte	0x6
	.byte	0x55
	.byte	0xc
	.long	0x167d
	.uleb128 0x16
	.long	.LASF195
	.byte	0x18
	.byte	0x6
	.byte	0x5c
	.byte	0xe
	.long	0x138d
	.uleb128 0x7
	.long	.LASF196
	.byte	0x6
	.byte	0x5e
	.byte	0xa
	.long	0x1392
	.byte	0
	.uleb128 0x7
	.long	.LASF197
	.byte	0x6
	.byte	0x5f
	.byte	0xa
	.long	0x1392
	.byte	0x8
	.uleb128 0x7
	.long	.LASF198
	.byte	0x6
	.byte	0x60
	.byte	0xa
	.long	0x1392
	.byte	0x10
	.uleb128 0x22
	.long	.LASF195
	.byte	0x6
	.byte	0x63
	.byte	0x2
	.long	.LASF199
	.long	0x132f
	.long	0x1335
	.uleb128 0x2
	.long	0x59fa
	.byte	0
	.uleb128 0x22
	.long	.LASF195
	.byte	0x6
	.byte	0x69
	.byte	0x2
	.long	.LASF200
	.long	0x1349
	.long	0x1354
	.uleb128 0x2
	.long	0x59fa
	.uleb128 0x1
	.long	0x5a04
	.byte	0
	.uleb128 0x22
	.long	.LASF201
	.byte	0x6
	.byte	0x71
	.byte	0x2
	.long	.LASF202
	.long	0x1368
	.long	0x1373
	.uleb128 0x2
	.long	0x59fa
	.uleb128 0x1
	.long	0x5a09
	.byte	0
	.uleb128 0x5d
	.long	.LASF203
	.byte	0x7a
	.long	.LASF205
	.long	0x1381
	.uleb128 0x2
	.long	0x59fa
	.uleb128 0x1
	.long	0x5a0e
	.byte	0
	.byte	0
	.uleb128 0x6
	.long	0x12e7
	.uleb128 0x5
	.long	.LASF158
	.byte	0x6
	.byte	0x5a
	.byte	0x9
	.long	0x480e
	.uleb128 0x16
	.long	.LASF206
	.byte	0x18
	.byte	0x6
	.byte	0x85
	.byte	0xe
	.long	0x1469
	.uleb128 0x31
	.long	0x1152
	.uleb128 0x31
	.long	0x12e7
	.uleb128 0x22
	.long	.LASF206
	.byte	0x6
	.byte	0x89
	.byte	0x2
	.long	.LASF207
	.long	0x13c9
	.long	0x13cf
	.uleb128 0x2
	.long	0x5a13
	.byte	0
	.uleb128 0x22
	.long	.LASF206
	.byte	0x6
	.byte	0x8f
	.byte	0x2
	.long	.LASF208
	.long	0x13e3
	.long	0x13ee
	.uleb128 0x2
	.long	0x5a13
	.uleb128 0x1
	.long	0x5a1d
	.byte	0
	.uleb128 0x22
	.long	.LASF206
	.byte	0x6
	.byte	0x97
	.byte	0x2
	.long	.LASF209
	.long	0x1402
	.long	0x140d
	.uleb128 0x2
	.long	0x5a13
	.uleb128 0x1
	.long	0x5a22
	.byte	0
	.uleb128 0x22
	.long	.LASF206
	.byte	0x6
	.byte	0x9c
	.byte	0x2
	.long	.LASF210
	.long	0x1421
	.long	0x142c
	.uleb128 0x2
	.long	0x5a13
	.uleb128 0x1
	.long	0x5a27
	.byte	0
	.uleb128 0x22
	.long	.LASF206
	.byte	0x6
	.byte	0xa1
	.byte	0x2
	.long	.LASF211
	.long	0x1440
	.long	0x1450
	.uleb128 0x2
	.long	0x5a13
	.uleb128 0x1
	.long	0x5a27
	.uleb128 0x1
	.long	0x5a22
	.byte	0
	.uleb128 0x5e
	.long	.LASF414
	.long	.LASF415
	.long	0x145d
	.uleb128 0x2
	.long	0x5a13
	.uleb128 0x2
	.long	0x118
	.byte	0
	.byte	0
	.uleb128 0x5
	.long	.LASF212
	.byte	0x6
	.byte	0x58
	.byte	0x15
	.long	0x483f
	.uleb128 0x6
	.long	0x1469
	.uleb128 0x32
	.long	.LASF213
	.value	0x12a
	.long	.LASF214
	.long	0x5a2c
	.long	0x1491
	.long	0x1497
	.uleb128 0x2
	.long	0x5a31
	.byte	0
	.uleb128 0x32
	.long	.LASF213
	.value	0x12f
	.long	.LASF215
	.long	0x5a1d
	.long	0x14ae
	.long	0x14b4
	.uleb128 0x2
	.long	0x5a3b
	.byte	0
	.uleb128 0x19
	.long	.LASF185
	.byte	0x6
	.value	0x126
	.byte	0x16
	.long	0x1152
	.uleb128 0x6
	.long	0x14b4
	.uleb128 0x32
	.long	.LASF216
	.value	0x134
	.long	.LASF217
	.long	0x14b4
	.long	0x14dd
	.long	0x14e3
	.uleb128 0x2
	.long	0x5a3b
	.byte	0
	.uleb128 0x42
	.long	.LASF218
	.value	0x138
	.long	.LASF219
	.long	0x14f6
	.long	0x14fc
	.uleb128 0x2
	.long	0x5a31
	.byte	0
	.uleb128 0x1a
	.long	.LASF218
	.value	0x13e
	.long	.LASF220
	.long	0x150f
	.long	0x151a
	.uleb128 0x2
	.long	0x5a31
	.uleb128 0x1
	.long	0x5a40
	.byte	0
	.uleb128 0x1a
	.long	.LASF218
	.value	0x144
	.long	.LASF221
	.long	0x152d
	.long	0x1538
	.uleb128 0x2
	.long	0x5a31
	.uleb128 0x1
	.long	0x559
	.byte	0
	.uleb128 0x1a
	.long	.LASF218
	.value	0x14a
	.long	.LASF222
	.long	0x154b
	.long	0x155b
	.uleb128 0x2
	.long	0x5a31
	.uleb128 0x1
	.long	0x559
	.uleb128 0x1
	.long	0x5a40
	.byte	0
	.uleb128 0x42
	.long	.LASF218
	.value	0x14f
	.long	.LASF223
	.long	0x156e
	.long	0x1579
	.uleb128 0x2
	.long	0x5a31
	.uleb128 0x1
	.long	0x5a45
	.byte	0
	.uleb128 0x1a
	.long	.LASF218
	.value	0x154
	.long	.LASF224
	.long	0x158c
	.long	0x1597
	.uleb128 0x2
	.long	0x5a31
	.uleb128 0x1
	.long	0x5a27
	.byte	0
	.uleb128 0x1a
	.long	.LASF218
	.value	0x158
	.long	.LASF225
	.long	0x15aa
	.long	0x15ba
	.uleb128 0x2
	.long	0x5a31
	.uleb128 0x1
	.long	0x5a45
	.uleb128 0x1
	.long	0x5a40
	.byte	0
	.uleb128 0x1a
	.long	.LASF218
	.value	0x166
	.long	.LASF226
	.long	0x15cd
	.long	0x15dd
	.uleb128 0x2
	.long	0x5a31
	.uleb128 0x1
	.long	0x5a40
	.uleb128 0x1
	.long	0x5a45
	.byte	0
	.uleb128 0x1a
	.long	.LASF227
	.value	0x16c
	.long	.LASF228
	.long	0x15f0
	.long	0x15fb
	.uleb128 0x2
	.long	0x5a31
	.uleb128 0x2
	.long	0x118
	.byte	0
	.uleb128 0x5f
	.long	.LASF229
	.long	0x139e
	.uleb128 0x32
	.long	.LASF230
	.value	0x177
	.long	.LASF231
	.long	0x1392
	.long	0x161b
	.long	0x1626
	.uleb128 0x2
	.long	0x5a31
	.uleb128 0x1
	.long	0x559
	.byte	0
	.uleb128 0x1a
	.long	.LASF232
	.value	0x17f
	.long	.LASF233
	.long	0x1639
	.long	0x1649
	.uleb128 0x2
	.long	0x5a31
	.uleb128 0x1
	.long	0x1392
	.uleb128 0x1
	.long	0x559
	.byte	0
	.uleb128 0xf
	.long	.LASF234
	.byte	0x6
	.value	0x189
	.byte	0x7
	.long	.LASF235
	.byte	0x2
	.long	0x165f
	.long	0x166a
	.uleb128 0x2
	.long	0x5a31
	.uleb128 0x1
	.long	0x559
	.byte	0
	.uleb128 0xa
	.string	"_Tp"
	.long	0x446c
	.uleb128 0x4
	.long	.LASF236
	.long	0x1152
	.byte	0
	.uleb128 0x6
	.long	0x12da
	.uleb128 0x16
	.long	.LASF237
	.byte	0x1
	.byte	0x1f
	.byte	0x7c
	.byte	0xc
	.long	0x16a5
	.uleb128 0x5
	.long	.LASF238
	.byte	0x1f
	.byte	0x7d
	.byte	0xd
	.long	0x1152
	.uleb128 0x4
	.long	.LASF239
	.long	0x1152
	.byte	0
	.uleb128 0x49
	.long	.LASF240
	.byte	0x18
	.byte	0x6
	.value	0x1a7
	.long	0x22c4
	.uleb128 0x18
	.byte	0x6
	.value	0x1a7
	.byte	0xb
	.long	0x1604
	.uleb128 0x18
	.byte	0x6
	.value	0x1a7
	.byte	0xb
	.long	0x1626
	.uleb128 0x18
	.byte	0x6
	.value	0x1a7
	.byte	0xb
	.long	0x15fb
	.uleb128 0x18
	.byte	0x6
	.value	0x1a7
	.byte	0xb
	.long	0x1497
	.uleb128 0x18
	.byte	0x6
	.value	0x1a7
	.byte	0xb
	.long	0x147a
	.uleb128 0x18
	.byte	0x6
	.value	0x1a7
	.byte	0xb
	.long	0x14c6
	.uleb128 0x41
	.long	0x12da
	.byte	0x2
	.uleb128 0xe
	.long	.LASF241
	.byte	0x6
	.value	0x1d1
	.byte	0x7
	.long	.LASF242
	.long	0x4c58
	.long	0x1709
	.uleb128 0x1
	.long	0xb63
	.byte	0
	.uleb128 0xe
	.long	.LASF241
	.byte	0x6
	.value	0x1da
	.byte	0x7
	.long	.LASF243
	.long	0x4c58
	.long	0x1724
	.uleb128 0x1
	.long	0x647
	.byte	0
	.uleb128 0x60
	.long	.LASF244
	.long	.LASF436
	.long	0x4c58
	.uleb128 0x1c
	.long	.LASF158
	.byte	0x6
	.value	0x1c1
	.byte	0x29
	.long	0x1392
	.uleb128 0xe
	.long	.LASF245
	.byte	0x6
	.value	0x1e7
	.byte	0x7
	.long	.LASF246
	.long	0x1731
	.long	0x176d
	.uleb128 0x1
	.long	0x1731
	.uleb128 0x1
	.long	0x1731
	.uleb128 0x1
	.long	0x1731
	.uleb128 0x1
	.long	0x5a4a
	.uleb128 0x1
	.long	0xb63
	.byte	0
	.uleb128 0x19
	.long	.LASF212
	.byte	0x6
	.value	0x1bc
	.byte	0x2f
	.long	0x1469
	.uleb128 0x6
	.long	0x176d
	.uleb128 0xe
	.long	.LASF245
	.byte	0x6
	.value	0x1ee
	.byte	0x7
	.long	.LASF247
	.long	0x1731
	.long	0x17ae
	.uleb128 0x1
	.long	0x1731
	.uleb128 0x1
	.long	0x1731
	.uleb128 0x1
	.long	0x1731
	.uleb128 0x1
	.long	0x5a4a
	.uleb128 0x1
	.long	0x647
	.byte	0
	.uleb128 0xe
	.long	.LASF248
	.byte	0x6
	.value	0x1f3
	.byte	0x7
	.long	.LASF249
	.long	0x1731
	.long	0x17d8
	.uleb128 0x1
	.long	0x1731
	.uleb128 0x1
	.long	0x1731
	.uleb128 0x1
	.long	0x1731
	.uleb128 0x1
	.long	0x5a4a
	.byte	0
	.uleb128 0x3b
	.long	.LASF250
	.byte	0x6
	.value	0x20e
	.long	.LASF251
	.long	0x17ec
	.long	0x17f2
	.uleb128 0x2
	.long	0x5a4f
	.byte	0
	.uleb128 0x3c
	.long	.LASF250
	.byte	0x6
	.value	0x219
	.long	.LASF252
	.long	0x1806
	.long	0x1811
	.uleb128 0x2
	.long	0x5a4f
	.uleb128 0x1
	.long	0x5a59
	.byte	0
	.uleb128 0x1c
	.long	.LASF185
	.byte	0x6
	.value	0x1cc
	.byte	0x1a
	.long	0x1152
	.uleb128 0x6
	.long	0x1811
	.uleb128 0x3c
	.long	.LASF250
	.byte	0x6
	.value	0x227
	.long	.LASF253
	.long	0x1837
	.long	0x1847
	.uleb128 0x2
	.long	0x5a4f
	.uleb128 0x1
	.long	0x1847
	.uleb128 0x1
	.long	0x5a59
	.byte	0
	.uleb128 0x1c
	.long	.LASF167
	.byte	0x6
	.value	0x1ca
	.byte	0x1a
	.long	0x559
	.uleb128 0x6
	.long	0x1847
	.uleb128 0xf
	.long	.LASF250
	.byte	0x6
	.value	0x234
	.byte	0x7
	.long	.LASF254
	.byte	0x1
	.long	0x186f
	.long	0x1884
	.uleb128 0x2
	.long	0x5a4f
	.uleb128 0x1
	.long	0x1847
	.uleb128 0x1
	.long	0x5a5e
	.uleb128 0x1
	.long	0x5a59
	.byte	0
	.uleb128 0x1c
	.long	.LASF56
	.byte	0x6
	.value	0x1c0
	.byte	0x17
	.long	0x446c
	.uleb128 0x6
	.long	0x1884
	.uleb128 0xf
	.long	.LASF250
	.byte	0x6
	.value	0x254
	.byte	0x7
	.long	.LASF255
	.byte	0x1
	.long	0x18ac
	.long	0x18b7
	.uleb128 0x2
	.long	0x5a4f
	.uleb128 0x1
	.long	0x5a63
	.byte	0
	.uleb128 0x3b
	.long	.LASF250
	.byte	0x6
	.value	0x267
	.long	.LASF256
	.long	0x18cb
	.long	0x18d6
	.uleb128 0x2
	.long	0x5a4f
	.uleb128 0x1
	.long	0x5a68
	.byte	0
	.uleb128 0xf
	.long	.LASF250
	.byte	0x6
	.value	0x26b
	.byte	0x7
	.long	.LASF257
	.byte	0x1
	.long	0x18ec
	.long	0x18fc
	.uleb128 0x2
	.long	0x5a4f
	.uleb128 0x1
	.long	0x5a63
	.uleb128 0x1
	.long	0x5a6d
	.byte	0
	.uleb128 0x1a
	.long	.LASF250
	.value	0x276
	.long	.LASF258
	.long	0x190f
	.long	0x1924
	.uleb128 0x2
	.long	0x5a4f
	.uleb128 0x1
	.long	0x5a68
	.uleb128 0x1
	.long	0x5a59
	.uleb128 0x1
	.long	0xb63
	.byte	0
	.uleb128 0x1a
	.long	.LASF250
	.value	0x27b
	.long	.LASF259
	.long	0x1937
	.long	0x194c
	.uleb128 0x2
	.long	0x5a4f
	.uleb128 0x1
	.long	0x5a68
	.uleb128 0x1
	.long	0x5a59
	.uleb128 0x1
	.long	0x647
	.byte	0
	.uleb128 0xf
	.long	.LASF250
	.byte	0x6
	.value	0x28e
	.byte	0x7
	.long	.LASF260
	.byte	0x1
	.long	0x1962
	.long	0x1972
	.uleb128 0x2
	.long	0x5a4f
	.uleb128 0x1
	.long	0x5a68
	.uleb128 0x1
	.long	0x5a6d
	.byte	0
	.uleb128 0xf
	.long	.LASF250
	.byte	0x6
	.value	0x2a1
	.byte	0x7
	.long	.LASF261
	.byte	0x1
	.long	0x1988
	.long	0x1998
	.uleb128 0x2
	.long	0x5a4f
	.uleb128 0x1
	.long	0x22da
	.uleb128 0x1
	.long	0x5a59
	.byte	0
	.uleb128 0xf
	.long	.LASF262
	.byte	0x6
	.value	0x2d8
	.byte	0x7
	.long	.LASF263
	.byte	0x1
	.long	0x19ae
	.long	0x19b9
	.uleb128 0x2
	.long	0x5a4f
	.uleb128 0x2
	.long	0x118
	.byte	0
	.uleb128 0x17
	.long	.LASF82
	.byte	0xe
	.byte	0xcc
	.byte	0x5
	.long	.LASF264
	.long	0x5a72
	.byte	0x1
	.long	0x19d2
	.long	0x19dd
	.uleb128 0x2
	.long	0x5a4f
	.uleb128 0x1
	.long	0x5a63
	.byte	0
	.uleb128 0x8
	.long	.LASF82
	.byte	0x6
	.value	0x2f9
	.byte	0x7
	.long	.LASF265
	.long	0x5a72
	.byte	0x1
	.long	0x19f7
	.long	0x1a02
	.uleb128 0x2
	.long	0x5a4f
	.uleb128 0x1
	.long	0x5a68
	.byte	0
	.uleb128 0x8
	.long	.LASF82
	.byte	0x6
	.value	0x30f
	.byte	0x7
	.long	.LASF266
	.long	0x5a72
	.byte	0x1
	.long	0x1a1c
	.long	0x1a27
	.uleb128 0x2
	.long	0x5a4f
	.uleb128 0x1
	.long	0x22da
	.byte	0
	.uleb128 0xf
	.long	.LASF108
	.byte	0x6
	.value	0x323
	.byte	0x7
	.long	.LASF267
	.byte	0x1
	.long	0x1a3d
	.long	0x1a4d
	.uleb128 0x2
	.long	0x5a4f
	.uleb128 0x1
	.long	0x1847
	.uleb128 0x1
	.long	0x5a5e
	.byte	0
	.uleb128 0xf
	.long	.LASF108
	.byte	0x6
	.value	0x352
	.byte	0x7
	.long	.LASF268
	.byte	0x1
	.long	0x1a63
	.long	0x1a6e
	.uleb128 0x2
	.long	0x5a4f
	.uleb128 0x1
	.long	0x22da
	.byte	0
	.uleb128 0x1c
	.long	.LASF269
	.byte	0x6
	.value	0x1c5
	.byte	0x3d
	.long	0x485f
	.uleb128 0x8
	.long	.LASF270
	.byte	0x6
	.value	0x364
	.byte	0x7
	.long	.LASF271
	.long	0x1a6e
	.byte	0x1
	.long	0x1a95
	.long	0x1a9b
	.uleb128 0x2
	.long	0x5a4f
	.byte	0
	.uleb128 0x1c
	.long	.LASF272
	.byte	0x6
	.value	0x1c7
	.byte	0x7
	.long	0x4a99
	.uleb128 0x8
	.long	.LASF270
	.byte	0x6
	.value	0x36e
	.byte	0x7
	.long	.LASF273
	.long	0x1a9b
	.byte	0x1
	.long	0x1ac2
	.long	0x1ac8
	.uleb128 0x2
	.long	0x5a77
	.byte	0
	.uleb128 0x33
	.string	"end"
	.value	0x378
	.long	.LASF274
	.long	0x1a6e
	.long	0x1adf
	.long	0x1ae5
	.uleb128 0x2
	.long	0x5a4f
	.byte	0
	.uleb128 0x33
	.string	"end"
	.value	0x382
	.long	.LASF275
	.long	0x1a9b
	.long	0x1afc
	.long	0x1b02
	.uleb128 0x2
	.long	0x5a77
	.byte	0
	.uleb128 0x1c
	.long	.LASF276
	.byte	0x6
	.value	0x1c9
	.byte	0x30
	.long	0x23cf
	.uleb128 0x8
	.long	.LASF277
	.byte	0x6
	.value	0x38c
	.byte	0x7
	.long	.LASF278
	.long	0x1b02
	.byte	0x1
	.long	0x1b29
	.long	0x1b2f
	.uleb128 0x2
	.long	0x5a4f
	.byte	0
	.uleb128 0x1c
	.long	.LASF279
	.byte	0x6
	.value	0x1c8
	.byte	0x35
	.long	0x23d4
	.uleb128 0x8
	.long	.LASF277
	.byte	0x6
	.value	0x396
	.byte	0x7
	.long	.LASF280
	.long	0x1b2f
	.byte	0x1
	.long	0x1b56
	.long	0x1b5c
	.uleb128 0x2
	.long	0x5a77
	.byte	0
	.uleb128 0x8
	.long	.LASF281
	.byte	0x6
	.value	0x3a0
	.byte	0x7
	.long	.LASF282
	.long	0x1b02
	.byte	0x1
	.long	0x1b76
	.long	0x1b7c
	.uleb128 0x2
	.long	0x5a4f
	.byte	0
	.uleb128 0x8
	.long	.LASF281
	.byte	0x6
	.value	0x3aa
	.byte	0x7
	.long	.LASF283
	.long	0x1b2f
	.byte	0x1
	.long	0x1b96
	.long	0x1b9c
	.uleb128 0x2
	.long	0x5a77
	.byte	0
	.uleb128 0x8
	.long	.LASF284
	.byte	0x6
	.value	0x3b5
	.byte	0x7
	.long	.LASF285
	.long	0x1a9b
	.byte	0x1
	.long	0x1bb6
	.long	0x1bbc
	.uleb128 0x2
	.long	0x5a77
	.byte	0
	.uleb128 0x8
	.long	.LASF286
	.byte	0x6
	.value	0x3bf
	.byte	0x7
	.long	.LASF287
	.long	0x1a9b
	.byte	0x1
	.long	0x1bd6
	.long	0x1bdc
	.uleb128 0x2
	.long	0x5a77
	.byte	0
	.uleb128 0x8
	.long	.LASF288
	.byte	0x6
	.value	0x3c9
	.byte	0x7
	.long	.LASF289
	.long	0x1b2f
	.byte	0x1
	.long	0x1bf6
	.long	0x1bfc
	.uleb128 0x2
	.long	0x5a77
	.byte	0
	.uleb128 0x8
	.long	.LASF290
	.byte	0x6
	.value	0x3d3
	.byte	0x7
	.long	.LASF291
	.long	0x1b2f
	.byte	0x1
	.long	0x1c16
	.long	0x1c1c
	.uleb128 0x2
	.long	0x5a77
	.byte	0
	.uleb128 0x8
	.long	.LASF292
	.byte	0x6
	.value	0x3db
	.byte	0x7
	.long	.LASF293
	.long	0x1847
	.byte	0x1
	.long	0x1c36
	.long	0x1c3c
	.uleb128 0x2
	.long	0x5a77
	.byte	0
	.uleb128 0x8
	.long	.LASF170
	.byte	0x6
	.value	0x3e1
	.byte	0x7
	.long	.LASF294
	.long	0x1847
	.byte	0x1
	.long	0x1c56
	.long	0x1c5c
	.uleb128 0x2
	.long	0x5a77
	.byte	0
	.uleb128 0xf
	.long	.LASF295
	.byte	0x6
	.value	0x3f0
	.byte	0x7
	.long	.LASF296
	.byte	0x1
	.long	0x1c72
	.long	0x1c7d
	.uleb128 0x2
	.long	0x5a4f
	.uleb128 0x1
	.long	0x1847
	.byte	0
	.uleb128 0xf
	.long	.LASF295
	.byte	0x6
	.value	0x405
	.byte	0x7
	.long	.LASF297
	.byte	0x1
	.long	0x1c93
	.long	0x1ca3
	.uleb128 0x2
	.long	0x5a4f
	.uleb128 0x1
	.long	0x1847
	.uleb128 0x1
	.long	0x5a5e
	.byte	0
	.uleb128 0xf
	.long	.LASF298
	.byte	0x6
	.value	0x427
	.byte	0x7
	.long	.LASF299
	.byte	0x1
	.long	0x1cb9
	.long	0x1cbf
	.uleb128 0x2
	.long	0x5a4f
	.byte	0
	.uleb128 0x8
	.long	.LASF300
	.byte	0x6
	.value	0x431
	.byte	0x7
	.long	.LASF301
	.long	0x1847
	.byte	0x1
	.long	0x1cd9
	.long	0x1cdf
	.uleb128 0x2
	.long	0x5a77
	.byte	0
	.uleb128 0x8
	.long	.LASF302
	.byte	0x6
	.value	0x43b
	.byte	0x7
	.long	.LASF303
	.long	0x4c58
	.byte	0x1
	.long	0x1cf9
	.long	0x1cff
	.uleb128 0x2
	.long	0x5a77
	.byte	0
	.uleb128 0x1d
	.long	.LASF304
	.byte	0xe
	.byte	0x43
	.byte	0x5
	.long	.LASF305
	.long	0x1d13
	.long	0x1d1e
	.uleb128 0x2
	.long	0x5a4f
	.uleb128 0x1
	.long	0x1847
	.byte	0
	.uleb128 0x1c
	.long	.LASF161
	.byte	0x6
	.value	0x1c3
	.byte	0x32
	.long	0x481a
	.uleb128 0x8
	.long	.LASF306
	.byte	0x6
	.value	0x461
	.byte	0x7
	.long	.LASF307
	.long	0x1d1e
	.byte	0x1
	.long	0x1d45
	.long	0x1d50
	.uleb128 0x2
	.long	0x5a4f
	.uleb128 0x1
	.long	0x1847
	.byte	0
	.uleb128 0x1c
	.long	.LASF164
	.byte	0x6
	.value	0x1c4
	.byte	0x37
	.long	0x4826
	.uleb128 0x8
	.long	.LASF306
	.byte	0x6
	.value	0x474
	.byte	0x7
	.long	.LASF308
	.long	0x1d50
	.byte	0x1
	.long	0x1d77
	.long	0x1d82
	.uleb128 0x2
	.long	0x5a77
	.uleb128 0x1
	.long	0x1847
	.byte	0
	.uleb128 0xf
	.long	.LASF309
	.byte	0x6
	.value	0x47e
	.byte	0x7
	.long	.LASF310
	.byte	0x2
	.long	0x1d98
	.long	0x1da3
	.uleb128 0x2
	.long	0x5a77
	.uleb128 0x1
	.long	0x1847
	.byte	0
	.uleb128 0x33
	.string	"at"
	.value	0x495
	.long	.LASF311
	.long	0x1d1e
	.long	0x1db9
	.long	0x1dc4
	.uleb128 0x2
	.long	0x5a4f
	.uleb128 0x1
	.long	0x1847
	.byte	0
	.uleb128 0x33
	.string	"at"
	.value	0x4a8
	.long	.LASF312
	.long	0x1d50
	.long	0x1dda
	.long	0x1de5
	.uleb128 0x2
	.long	0x5a77
	.uleb128 0x1
	.long	0x1847
	.byte	0
	.uleb128 0x8
	.long	.LASF313
	.byte	0x6
	.value	0x4b4
	.byte	0x7
	.long	.LASF314
	.long	0x1d1e
	.byte	0x1
	.long	0x1dff
	.long	0x1e05
	.uleb128 0x2
	.long	0x5a4f
	.byte	0
	.uleb128 0x8
	.long	.LASF313
	.byte	0x6
	.value	0x4c0
	.byte	0x7
	.long	.LASF315
	.long	0x1d50
	.byte	0x1
	.long	0x1e1f
	.long	0x1e25
	.uleb128 0x2
	.long	0x5a77
	.byte	0
	.uleb128 0x8
	.long	.LASF316
	.byte	0x6
	.value	0x4cc
	.byte	0x7
	.long	.LASF317
	.long	0x1d1e
	.byte	0x1
	.long	0x1e3f
	.long	0x1e45
	.uleb128 0x2
	.long	0x5a4f
	.byte	0
	.uleb128 0x8
	.long	.LASF316
	.byte	0x6
	.value	0x4d8
	.byte	0x7
	.long	.LASF318
	.long	0x1d50
	.byte	0x1
	.long	0x1e5f
	.long	0x1e65
	.uleb128 0x2
	.long	0x5a77
	.byte	0
	.uleb128 0x8
	.long	.LASF319
	.byte	0x6
	.value	0x4e7
	.byte	0x7
	.long	.LASF320
	.long	0x59aa
	.byte	0x1
	.long	0x1e7f
	.long	0x1e85
	.uleb128 0x2
	.long	0x5a4f
	.byte	0
	.uleb128 0x8
	.long	.LASF319
	.byte	0x6
	.value	0x4ec
	.byte	0x7
	.long	.LASF321
	.long	0x59c3
	.byte	0x1
	.long	0x1e9f
	.long	0x1ea5
	.uleb128 0x2
	.long	0x5a77
	.byte	0
	.uleb128 0xf
	.long	.LASF322
	.byte	0x6
	.value	0x4fc
	.byte	0x7
	.long	.LASF323
	.byte	0x1
	.long	0x1ebb
	.long	0x1ec6
	.uleb128 0x2
	.long	0x5a4f
	.uleb128 0x1
	.long	0x5a5e
	.byte	0
	.uleb128 0xf
	.long	.LASF322
	.byte	0x6
	.value	0x50d
	.byte	0x7
	.long	.LASF324
	.byte	0x1
	.long	0x1edc
	.long	0x1ee7
	.uleb128 0x2
	.long	0x5a4f
	.uleb128 0x1
	.long	0x5a7c
	.byte	0
	.uleb128 0xf
	.long	.LASF325
	.byte	0x6
	.value	0x525
	.byte	0x7
	.long	.LASF326
	.byte	0x1
	.long	0x1efd
	.long	0x1f03
	.uleb128 0x2
	.long	0x5a4f
	.byte	0
	.uleb128 0x17
	.long	.LASF327
	.byte	0xe
	.byte	0x85
	.byte	0x5
	.long	.LASF328
	.long	0x1a6e
	.byte	0x1
	.long	0x1f1c
	.long	0x1f2c
	.uleb128 0x2
	.long	0x5a4f
	.uleb128 0x1
	.long	0x1a9b
	.uleb128 0x1
	.long	0x5a5e
	.byte	0
	.uleb128 0x8
	.long	.LASF327
	.byte	0x6
	.value	0x56c
	.byte	0x7
	.long	.LASF329
	.long	0x1a6e
	.byte	0x1
	.long	0x1f46
	.long	0x1f56
	.uleb128 0x2
	.long	0x5a4f
	.uleb128 0x1
	.long	0x1a9b
	.uleb128 0x1
	.long	0x5a7c
	.byte	0
	.uleb128 0x8
	.long	.LASF327
	.byte	0x6
	.value	0x57e
	.byte	0x7
	.long	.LASF330
	.long	0x1a6e
	.byte	0x1
	.long	0x1f70
	.long	0x1f80
	.uleb128 0x2
	.long	0x5a4f
	.uleb128 0x1
	.long	0x1a9b
	.uleb128 0x1
	.long	0x22da
	.byte	0
	.uleb128 0x8
	.long	.LASF327
	.byte	0x6
	.value	0x598
	.byte	0x7
	.long	.LASF331
	.long	0x1a6e
	.byte	0x1
	.long	0x1f9a
	.long	0x1faf
	.uleb128 0x2
	.long	0x5a4f
	.uleb128 0x1
	.long	0x1a9b
	.uleb128 0x1
	.long	0x1847
	.uleb128 0x1
	.long	0x5a5e
	.byte	0
	.uleb128 0x8
	.long	.LASF332
	.byte	0x6
	.value	0x5f9
	.byte	0x7
	.long	.LASF333
	.long	0x1a6e
	.byte	0x1
	.long	0x1fc9
	.long	0x1fd4
	.uleb128 0x2
	.long	0x5a4f
	.uleb128 0x1
	.long	0x1a9b
	.byte	0
	.uleb128 0x8
	.long	.LASF332
	.byte	0x6
	.value	0x615
	.byte	0x7
	.long	.LASF334
	.long	0x1a6e
	.byte	0x1
	.long	0x1fee
	.long	0x1ffe
	.uleb128 0x2
	.long	0x5a4f
	.uleb128 0x1
	.long	0x1a9b
	.uleb128 0x1
	.long	0x1a9b
	.byte	0
	.uleb128 0xf
	.long	.LASF87
	.byte	0x6
	.value	0x62d
	.byte	0x7
	.long	.LASF335
	.byte	0x1
	.long	0x2014
	.long	0x201f
	.uleb128 0x2
	.long	0x5a4f
	.uleb128 0x1
	.long	0x5a72
	.byte	0
	.uleb128 0xf
	.long	.LASF336
	.byte	0x6
	.value	0x640
	.byte	0x7
	.long	.LASF337
	.byte	0x1
	.long	0x2035
	.long	0x203b
	.uleb128 0x2
	.long	0x5a4f
	.byte	0
	.uleb128 0xf
	.long	.LASF338
	.byte	0x6
	.value	0x6a3
	.byte	0x7
	.long	.LASF339
	.byte	0x2
	.long	0x2051
	.long	0x2061
	.uleb128 0x2
	.long	0x5a4f
	.uleb128 0x1
	.long	0x1847
	.uleb128 0x1
	.long	0x5a5e
	.byte	0
	.uleb128 0xf
	.long	.LASF340
	.byte	0x6
	.value	0x6ae
	.byte	0x7
	.long	.LASF341
	.byte	0x2
	.long	0x2077
	.long	0x2082
	.uleb128 0x2
	.long	0x5a4f
	.uleb128 0x1
	.long	0x1847
	.byte	0
	.uleb128 0xf
	.long	.LASF342
	.byte	0xe
	.value	0x108
	.byte	0x5
	.long	.LASF343
	.byte	0x2
	.long	0x2098
	.long	0x20a8
	.uleb128 0x2
	.long	0x5a4f
	.uleb128 0x1
	.long	0x559
	.uleb128 0x1
	.long	0x5a5e
	.byte	0
	.uleb128 0xf
	.long	.LASF344
	.byte	0xe
	.value	0x20b
	.byte	0x5
	.long	.LASF345
	.byte	0x2
	.long	0x20be
	.long	0x20d3
	.uleb128 0x2
	.long	0x5a4f
	.uleb128 0x1
	.long	0x1a6e
	.uleb128 0x1
	.long	0x1847
	.uleb128 0x1
	.long	0x5a5e
	.byte	0
	.uleb128 0xf
	.long	.LASF346
	.byte	0xe
	.value	0x272
	.byte	0x5
	.long	.LASF347
	.byte	0x2
	.long	0x20e9
	.long	0x20f4
	.uleb128 0x2
	.long	0x5a4f
	.uleb128 0x1
	.long	0x1847
	.byte	0
	.uleb128 0x8
	.long	.LASF348
	.byte	0xe
	.value	0x2bf
	.byte	0x5
	.long	.LASF349
	.long	0x4c58
	.byte	0x2
	.long	0x210e
	.long	0x2114
	.uleb128 0x2
	.long	0x5a4f
	.byte	0
	.uleb128 0x8
	.long	.LASF350
	.byte	0xe
	.value	0x15e
	.byte	0x5
	.long	.LASF351
	.long	0x1a6e
	.byte	0x2
	.long	0x212e
	.long	0x213e
	.uleb128 0x2
	.long	0x5a4f
	.uleb128 0x1
	.long	0x1a9b
	.uleb128 0x1
	.long	0x5a7c
	.byte	0
	.uleb128 0x8
	.long	.LASF352
	.byte	0x6
	.value	0x75c
	.byte	0x7
	.long	.LASF353
	.long	0x1a6e
	.byte	0x2
	.long	0x2158
	.long	0x2168
	.uleb128 0x2
	.long	0x5a4f
	.uleb128 0x1
	.long	0x1a9b
	.uleb128 0x1
	.long	0x5a7c
	.byte	0
	.uleb128 0x8
	.long	.LASF354
	.byte	0x6
	.value	0x763
	.byte	0x7
	.long	.LASF355
	.long	0x1847
	.byte	0x2
	.long	0x2182
	.long	0x2192
	.uleb128 0x2
	.long	0x5a77
	.uleb128 0x1
	.long	0x1847
	.uleb128 0x1
	.long	0x2e7
	.byte	0
	.uleb128 0x43
	.long	.LASF356
	.value	0x76e
	.long	.LASF357
	.long	0x1847
	.long	0x21b0
	.uleb128 0x1
	.long	0x1847
	.uleb128 0x1
	.long	0x5a59
	.byte	0
	.uleb128 0x43
	.long	.LASF358
	.value	0x777
	.long	.LASF359
	.long	0x1847
	.long	0x21c9
	.uleb128 0x1
	.long	0x5a81
	.byte	0
	.uleb128 0xf
	.long	.LASF360
	.byte	0x6
	.value	0x788
	.byte	0x7
	.long	.LASF361
	.byte	0x2
	.long	0x21df
	.long	0x21ea
	.uleb128 0x2
	.long	0x5a4f
	.uleb128 0x1
	.long	0x1731
	.byte	0
	.uleb128 0x17
	.long	.LASF362
	.byte	0xe
	.byte	0xaf
	.byte	0x5
	.long	.LASF363
	.long	0x1a6e
	.byte	0x2
	.long	0x2203
	.long	0x220e
	.uleb128 0x2
	.long	0x5a4f
	.uleb128 0x1
	.long	0x1a6e
	.byte	0
	.uleb128 0x17
	.long	.LASF362
	.byte	0xe
	.byte	0xbd
	.byte	0x5
	.long	.LASF364
	.long	0x1a6e
	.byte	0x2
	.long	0x2227
	.long	0x2237
	.uleb128 0x2
	.long	0x5a4f
	.uleb128 0x1
	.long	0x1a6e
	.uleb128 0x1
	.long	0x1a6e
	.byte	0
	.uleb128 0x1a
	.long	.LASF365
	.value	0x7a2
	.long	.LASF366
	.long	0x224a
	.long	0x225a
	.uleb128 0x2
	.long	0x5a4f
	.uleb128 0x1
	.long	0x5a68
	.uleb128 0x1
	.long	0xb63
	.byte	0
	.uleb128 0x1a
	.long	.LASF365
	.value	0x7ae
	.long	.LASF367
	.long	0x226d
	.long	0x227d
	.uleb128 0x2
	.long	0x5a4f
	.uleb128 0x1
	.long	0x5a68
	.uleb128 0x1
	.long	0x647
	.byte	0
	.uleb128 0xf
	.long	.LASF368
	.byte	0x6
	.value	0x692
	.byte	0x2
	.long	.LASF369
	.byte	0x2
	.long	0x229c
	.long	0x22b1
	.uleb128 0x4
	.long	.LASF128
	.long	0x59c3
	.uleb128 0x2
	.long	0x5a4f
	.uleb128 0x1
	.long	0x59c3
	.uleb128 0x1
	.long	0x59c3
	.uleb128 0x1
	.long	0xb78
	.byte	0
	.uleb128 0xa
	.string	"_Tp"
	.long	0x446c
	.uleb128 0x5a
	.long	.LASF236
	.long	0x1152
	.byte	0
	.uleb128 0x6
	.long	0x16a5
	.uleb128 0x5
	.long	.LASF371
	.byte	0x1f
	.byte	0x80
	.byte	0xb
	.long	0x168f
	.uleb128 0x6
	.long	0x22c9
	.uleb128 0x2c
	.long	.LASF372
	.byte	0x10
	.byte	0xb
	.byte	0x2f
	.byte	0xb
	.long	0x23ca
	.uleb128 0x27
	.long	.LASF269
	.byte	0xb
	.byte	0x36
	.byte	0x1a
	.long	0x59c3
	.uleb128 0x7
	.long	.LASF373
	.byte	0xb
	.byte	0x3a
	.byte	0x12
	.long	0x22e7
	.byte	0
	.uleb128 0x27
	.long	.LASF167
	.byte	0xb
	.byte	0x35
	.byte	0x18
	.long	0x559
	.uleb128 0x7
	.long	.LASF374
	.byte	0xb
	.byte	0x3b
	.byte	0x13
	.long	0x2300
	.byte	0x8
	.uleb128 0x22
	.long	.LASF375
	.byte	0xb
	.byte	0x3e
	.byte	0x11
	.long	.LASF376
	.long	0x232d
	.long	0x233d
	.uleb128 0x2
	.long	0x5d29
	.uleb128 0x1
	.long	0x233d
	.uleb128 0x1
	.long	0x2300
	.byte	0
	.uleb128 0x27
	.long	.LASF272
	.byte	0xb
	.byte	0x37
	.byte	0x1a
	.long	0x59c3
	.uleb128 0x1d
	.long	.LASF375
	.byte	0xb
	.byte	0x42
	.byte	0x11
	.long	.LASF377
	.long	0x235d
	.long	0x2363
	.uleb128 0x2
	.long	0x5d29
	.byte	0
	.uleb128 0x17
	.long	.LASF292
	.byte	0xb
	.byte	0x47
	.byte	0x7
	.long	.LASF378
	.long	0x2300
	.byte	0x1
	.long	0x237c
	.long	0x2382
	.uleb128 0x2
	.long	0x5d2e
	.byte	0
	.uleb128 0x17
	.long	.LASF270
	.byte	0xb
	.byte	0x4b
	.byte	0x7
	.long	.LASF379
	.long	0x233d
	.byte	0x1
	.long	0x239b
	.long	0x23a1
	.uleb128 0x2
	.long	0x5d2e
	.byte	0
	.uleb128 0x82
	.string	"end"
	.byte	0xb
	.byte	0x4f
	.byte	0x7
	.long	.LASF1050
	.long	0x233d
	.byte	0x1
	.long	0x23bb
	.long	0x23c1
	.uleb128 0x2
	.long	0x5d2e
	.byte	0
	.uleb128 0xa
	.string	"_E"
	.long	0x446c
	.byte	0
	.uleb128 0x6
	.long	0x22da
	.uleb128 0x30
	.long	.LASF381
	.uleb128 0x30
	.long	.LASF382
	.uleb128 0x2c
	.long	.LASF383
	.byte	0x1
	.byte	0xa
	.byte	0x38
	.byte	0xb
	.long	0x2556
	.uleb128 0x1d
	.long	.LASF152
	.byte	0xa
	.byte	0x50
	.byte	0x7
	.long	.LASF384
	.long	0x23fa
	.long	0x2400
	.uleb128 0x2
	.long	0x5c25
	.byte	0
	.uleb128 0x1d
	.long	.LASF152
	.byte	0xa
	.byte	0x53
	.byte	0x7
	.long	.LASF385
	.long	0x2414
	.long	0x241f
	.uleb128 0x2
	.long	0x5c25
	.uleb128 0x1
	.long	0x5c2f
	.byte	0
	.uleb128 0x1d
	.long	.LASF155
	.byte	0xa
	.byte	0x5a
	.byte	0x7
	.long	.LASF386
	.long	0x2433
	.long	0x243e
	.uleb128 0x2
	.long	0x5c25
	.uleb128 0x2
	.long	0x118
	.byte	0
	.uleb128 0x27
	.long	.LASF158
	.byte	0xa
	.byte	0x3f
	.byte	0x1a
	.long	0x5c34
	.uleb128 0x17
	.long	.LASF159
	.byte	0xa
	.byte	0x5d
	.byte	0x7
	.long	.LASF387
	.long	0x243e
	.byte	0x1
	.long	0x2463
	.long	0x246e
	.uleb128 0x2
	.long	0x5c3e
	.uleb128 0x1
	.long	0x246e
	.byte	0
	.uleb128 0x27
	.long	.LASF161
	.byte	0xa
	.byte	0x41
	.byte	0x1a
	.long	0x5c48
	.uleb128 0x27
	.long	.LASF162
	.byte	0xa
	.byte	0x40
	.byte	0x1a
	.long	0x5c4d
	.uleb128 0x17
	.long	.LASF159
	.byte	0xa
	.byte	0x61
	.byte	0x7
	.long	.LASF388
	.long	0x247a
	.byte	0x1
	.long	0x249f
	.long	0x24aa
	.uleb128 0x2
	.long	0x5c3e
	.uleb128 0x1
	.long	0x24aa
	.byte	0
	.uleb128 0x27
	.long	.LASF164
	.byte	0xa
	.byte	0x42
	.byte	0x1a
	.long	0x5c52
	.uleb128 0x17
	.long	.LASF165
	.byte	0xa
	.byte	0x70
	.byte	0x7
	.long	.LASF389
	.long	0x5c34
	.byte	0x1
	.long	0x24cf
	.long	0x24df
	.uleb128 0x2
	.long	0x5c25
	.uleb128 0x1
	.long	0x24df
	.uleb128 0x1
	.long	0x509c
	.byte	0
	.uleb128 0x27
	.long	.LASF167
	.byte	0xa
	.byte	0x3c
	.byte	0x1f
	.long	0x559
	.uleb128 0x1d
	.long	.LASF168
	.byte	0xa
	.byte	0x8e
	.byte	0x7
	.long	.LASF390
	.long	0x24ff
	.long	0x250f
	.uleb128 0x2
	.long	0x5c25
	.uleb128 0x1
	.long	0x5c34
	.uleb128 0x1
	.long	0x24df
	.byte	0
	.uleb128 0x17
	.long	.LASF170
	.byte	0xa
	.byte	0xa7
	.byte	0x7
	.long	.LASF391
	.long	0x24df
	.byte	0x1
	.long	0x2528
	.long	0x252e
	.uleb128 0x2
	.long	0x5c3e
	.byte	0
	.uleb128 0x35
	.long	.LASF172
	.byte	0xa
	.byte	0xd2
	.byte	0x7
	.long	.LASF392
	.long	0x24df
	.long	0x2546
	.long	0x254c
	.uleb128 0x2
	.long	0x5c3e
	.byte	0
	.uleb128 0xa
	.string	"_Tp"
	.long	0x3f
	.byte	0
	.uleb128 0x6
	.long	0x23d9
	.uleb128 0x2c
	.long	.LASF393
	.byte	0x1
	.byte	0x7
	.byte	0x7c
	.byte	0xb
	.long	0x25e2
	.uleb128 0x41
	.long	0x23d9
	.byte	0x1
	.uleb128 0x1d
	.long	.LASF175
	.byte	0x7
	.byte	0x9c
	.byte	0x7
	.long	.LASF394
	.long	0x2582
	.long	0x2588
	.uleb128 0x2
	.long	0x5c57
	.byte	0
	.uleb128 0x1d
	.long	.LASF175
	.byte	0x7
	.byte	0x9f
	.byte	0x7
	.long	.LASF395
	.long	0x259c
	.long	0x25a7
	.uleb128 0x2
	.long	0x5c57
	.uleb128 0x1
	.long	0x5c61
	.byte	0
	.uleb128 0x5b
	.long	.LASF82
	.byte	0xa4
	.long	.LASF396
	.long	0x5c66
	.long	0x25bd
	.long	0x25c8
	.uleb128 0x2
	.long	0x5c57
	.uleb128 0x1
	.long	0x5c61
	.byte	0
	.uleb128 0x5c
	.long	.LASF181
	.byte	0xae
	.long	.LASF397
	.long	0x25d6
	.uleb128 0x2
	.long	0x5c57
	.uleb128 0x2
	.long	0x118
	.byte	0
	.byte	0
	.uleb128 0x6
	.long	0x255b
	.uleb128 0x38
	.long	.LASF398
	.byte	0x9
	.value	0x19b
	.long	0x26e3
	.uleb128 0x19
	.long	.LASF158
	.byte	0x9
	.value	0x1a4
	.byte	0xd
	.long	0x5c34
	.uleb128 0xe
	.long	.LASF165
	.byte	0x9
	.value	0x1cf
	.byte	0x7
	.long	.LASF399
	.long	0x25f3
	.long	0x2620
	.uleb128 0x1
	.long	0x5c6b
	.uleb128 0x1
	.long	0x2632
	.byte	0
	.uleb128 0x19
	.long	.LASF185
	.byte	0x9
	.value	0x19e
	.byte	0xd
	.long	0x255b
	.uleb128 0x6
	.long	0x2620
	.uleb128 0x19
	.long	.LASF167
	.byte	0x9
	.value	0x1b3
	.byte	0xd
	.long	0x559
	.uleb128 0xe
	.long	.LASF165
	.byte	0x9
	.value	0x1dd
	.byte	0x7
	.long	.LASF400
	.long	0x25f3
	.long	0x2664
	.uleb128 0x1
	.long	0x5c6b
	.uleb128 0x1
	.long	0x2632
	.uleb128 0x1
	.long	0x2664
	.byte	0
	.uleb128 0x19
	.long	.LASF187
	.byte	0x9
	.value	0x1ad
	.byte	0xd
	.long	0x509c
	.uleb128 0x36
	.long	.LASF168
	.byte	0x9
	.value	0x1ef
	.byte	0x7
	.long	.LASF401
	.long	0x2692
	.uleb128 0x1
	.long	0x5c6b
	.uleb128 0x1
	.long	0x25f3
	.uleb128 0x1
	.long	0x2632
	.byte	0
	.uleb128 0xe
	.long	.LASF170
	.byte	0x9
	.value	0x223
	.byte	0x7
	.long	.LASF402
	.long	0x2632
	.long	0x26ad
	.uleb128 0x1
	.long	0x5c70
	.byte	0
	.uleb128 0xe
	.long	.LASF191
	.byte	0x9
	.value	0x232
	.byte	0x7
	.long	.LASF403
	.long	0x2620
	.long	0x26c8
	.uleb128 0x1
	.long	0x5c70
	.byte	0
	.uleb128 0x19
	.long	.LASF56
	.byte	0x9
	.value	0x1a1
	.byte	0xd
	.long	0x3f
	.uleb128 0x19
	.long	.LASF193
	.byte	0x9
	.value	0x1c2
	.byte	0x8
	.long	0x255b
	.byte	0
	.uleb128 0x16
	.long	.LASF404
	.byte	0x18
	.byte	0x6
	.byte	0x55
	.byte	0xc
	.long	0x2a86
	.uleb128 0x16
	.long	.LASF195
	.byte	0x18
	.byte	0x6
	.byte	0x5c
	.byte	0xe
	.long	0x2796
	.uleb128 0x7
	.long	.LASF196
	.byte	0x6
	.byte	0x5e
	.byte	0xa
	.long	0x279b
	.byte	0
	.uleb128 0x7
	.long	.LASF197
	.byte	0x6
	.byte	0x5f
	.byte	0xa
	.long	0x279b
	.byte	0x8
	.uleb128 0x7
	.long	.LASF198
	.byte	0x6
	.byte	0x60
	.byte	0xa
	.long	0x279b
	.byte	0x10
	.uleb128 0x22
	.long	.LASF195
	.byte	0x6
	.byte	0x63
	.byte	0x2
	.long	.LASF405
	.long	0x2738
	.long	0x273e
	.uleb128 0x2
	.long	0x5c7f
	.byte	0
	.uleb128 0x22
	.long	.LASF195
	.byte	0x6
	.byte	0x69
	.byte	0x2
	.long	.LASF406
	.long	0x2752
	.long	0x275d
	.uleb128 0x2
	.long	0x5c7f
	.uleb128 0x1
	.long	0x5c89
	.byte	0
	.uleb128 0x22
	.long	.LASF201
	.byte	0x6
	.byte	0x71
	.byte	0x2
	.long	.LASF407
	.long	0x2771
	.long	0x277c
	.uleb128 0x2
	.long	0x5c7f
	.uleb128 0x1
	.long	0x5c8e
	.byte	0
	.uleb128 0x5d
	.long	.LASF203
	.byte	0x7a
	.long	.LASF408
	.long	0x278a
	.uleb128 0x2
	.long	0x5c7f
	.uleb128 0x1
	.long	0x5c93
	.byte	0
	.byte	0
	.uleb128 0x6
	.long	0x26f0
	.uleb128 0x5
	.long	.LASF158
	.byte	0x6
	.byte	0x5a
	.byte	0x9
	.long	0x4b5c
	.uleb128 0x16
	.long	.LASF206
	.byte	0x18
	.byte	0x6
	.byte	0x85
	.byte	0xe
	.long	0x2872
	.uleb128 0x31
	.long	0x255b
	.uleb128 0x31
	.long	0x26f0
	.uleb128 0x22
	.long	.LASF206
	.byte	0x6
	.byte	0x89
	.byte	0x2
	.long	.LASF409
	.long	0x27d2
	.long	0x27d8
	.uleb128 0x2
	.long	0x5c98
	.byte	0
	.uleb128 0x22
	.long	.LASF206
	.byte	0x6
	.byte	0x8f
	.byte	0x2
	.long	.LASF410
	.long	0x27ec
	.long	0x27f7
	.uleb128 0x2
	.long	0x5c98
	.uleb128 0x1
	.long	0x5ca2
	.byte	0
	.uleb128 0x22
	.long	.LASF206
	.byte	0x6
	.byte	0x97
	.byte	0x2
	.long	.LASF411
	.long	0x280b
	.long	0x2816
	.uleb128 0x2
	.long	0x5c98
	.uleb128 0x1
	.long	0x5ca7
	.byte	0
	.uleb128 0x22
	.long	.LASF206
	.byte	0x6
	.byte	0x9c
	.byte	0x2
	.long	.LASF412
	.long	0x282a
	.long	0x2835
	.uleb128 0x2
	.long	0x5c98
	.uleb128 0x1
	.long	0x5cac
	.byte	0
	.uleb128 0x22
	.long	.LASF206
	.byte	0x6
	.byte	0xa1
	.byte	0x2
	.long	.LASF413
	.long	0x2849
	.long	0x2859
	.uleb128 0x2
	.long	0x5c98
	.uleb128 0x1
	.long	0x5cac
	.uleb128 0x1
	.long	0x5ca7
	.byte	0
	.uleb128 0x5e
	.long	.LASF414
	.long	.LASF416
	.long	0x2866
	.uleb128 0x2
	.long	0x5c98
	.uleb128 0x2
	.long	0x118
	.byte	0
	.byte	0
	.uleb128 0x5
	.long	.LASF212
	.byte	0x6
	.byte	0x58
	.byte	0x15
	.long	0x4b8d
	.uleb128 0x6
	.long	0x2872
	.uleb128 0x32
	.long	.LASF213
	.value	0x12a
	.long	.LASF417
	.long	0x5cb1
	.long	0x289a
	.long	0x28a0
	.uleb128 0x2
	.long	0x5cb6
	.byte	0
	.uleb128 0x32
	.long	.LASF213
	.value	0x12f
	.long	.LASF418
	.long	0x5ca2
	.long	0x28b7
	.long	0x28bd
	.uleb128 0x2
	.long	0x5cc0
	.byte	0
	.uleb128 0x19
	.long	.LASF185
	.byte	0x6
	.value	0x126
	.byte	0x16
	.long	0x255b
	.uleb128 0x6
	.long	0x28bd
	.uleb128 0x32
	.long	.LASF216
	.value	0x134
	.long	.LASF419
	.long	0x28bd
	.long	0x28e6
	.long	0x28ec
	.uleb128 0x2
	.long	0x5cc0
	.byte	0
	.uleb128 0x42
	.long	.LASF218
	.value	0x138
	.long	.LASF420
	.long	0x28ff
	.long	0x2905
	.uleb128 0x2
	.long	0x5cb6
	.byte	0
	.uleb128 0x1a
	.long	.LASF218
	.value	0x13e
	.long	.LASF421
	.long	0x2918
	.long	0x2923
	.uleb128 0x2
	.long	0x5cb6
	.uleb128 0x1
	.long	0x5cca
	.byte	0
	.uleb128 0x1a
	.long	.LASF218
	.value	0x144
	.long	.LASF422
	.long	0x2936
	.long	0x2941
	.uleb128 0x2
	.long	0x5cb6
	.uleb128 0x1
	.long	0x559
	.byte	0
	.uleb128 0x1a
	.long	.LASF218
	.value	0x14a
	.long	.LASF423
	.long	0x2954
	.long	0x2964
	.uleb128 0x2
	.long	0x5cb6
	.uleb128 0x1
	.long	0x559
	.uleb128 0x1
	.long	0x5cca
	.byte	0
	.uleb128 0x42
	.long	.LASF218
	.value	0x14f
	.long	.LASF424
	.long	0x2977
	.long	0x2982
	.uleb128 0x2
	.long	0x5cb6
	.uleb128 0x1
	.long	0x5ccf
	.byte	0
	.uleb128 0x1a
	.long	.LASF218
	.value	0x154
	.long	.LASF425
	.long	0x2995
	.long	0x29a0
	.uleb128 0x2
	.long	0x5cb6
	.uleb128 0x1
	.long	0x5cac
	.byte	0
	.uleb128 0x1a
	.long	.LASF218
	.value	0x158
	.long	.LASF426
	.long	0x29b3
	.long	0x29c3
	.uleb128 0x2
	.long	0x5cb6
	.uleb128 0x1
	.long	0x5ccf
	.uleb128 0x1
	.long	0x5cca
	.byte	0
	.uleb128 0x1a
	.long	.LASF218
	.value	0x166
	.long	.LASF427
	.long	0x29d6
	.long	0x29e6
	.uleb128 0x2
	.long	0x5cb6
	.uleb128 0x1
	.long	0x5cca
	.uleb128 0x1
	.long	0x5ccf
	.byte	0
	.uleb128 0x1a
	.long	.LASF227
	.value	0x16c
	.long	.LASF428
	.long	0x29f9
	.long	0x2a04
	.uleb128 0x2
	.long	0x5cb6
	.uleb128 0x2
	.long	0x118
	.byte	0
	.uleb128 0x5f
	.long	.LASF229
	.long	0x27a7
	.uleb128 0x32
	.long	.LASF230
	.value	0x177
	.long	.LASF429
	.long	0x279b
	.long	0x2a24
	.long	0x2a2f
	.uleb128 0x2
	.long	0x5cb6
	.uleb128 0x1
	.long	0x559
	.byte	0
	.uleb128 0x1a
	.long	.LASF232
	.value	0x17f
	.long	.LASF430
	.long	0x2a42
	.long	0x2a52
	.uleb128 0x2
	.long	0x5cb6
	.uleb128 0x1
	.long	0x279b
	.uleb128 0x1
	.long	0x559
	.byte	0
	.uleb128 0xf
	.long	.LASF234
	.byte	0x6
	.value	0x189
	.byte	0x7
	.long	.LASF431
	.byte	0x2
	.long	0x2a68
	.long	0x2a73
	.uleb128 0x2
	.long	0x5cb6
	.uleb128 0x1
	.long	0x559
	.byte	0
	.uleb128 0xa
	.string	"_Tp"
	.long	0x3f
	.uleb128 0x4
	.long	.LASF236
	.long	0x255b
	.byte	0
	.uleb128 0x6
	.long	0x26e3
	.uleb128 0x16
	.long	.LASF432
	.byte	0x1
	.byte	0x1f
	.byte	0x7c
	.byte	0xc
	.long	0x2aae
	.uleb128 0x5
	.long	.LASF238
	.byte	0x1f
	.byte	0x7d
	.byte	0xd
	.long	0x255b
	.uleb128 0x4
	.long	.LASF239
	.long	0x255b
	.byte	0
	.uleb128 0x49
	.long	.LASF433
	.byte	0x18
	.byte	0x6
	.value	0x1a7
	.long	0x3699
	.uleb128 0x18
	.byte	0x6
	.value	0x1a7
	.byte	0xb
	.long	0x2a0d
	.uleb128 0x18
	.byte	0x6
	.value	0x1a7
	.byte	0xb
	.long	0x2a2f
	.uleb128 0x18
	.byte	0x6
	.value	0x1a7
	.byte	0xb
	.long	0x2a04
	.uleb128 0x18
	.byte	0x6
	.value	0x1a7
	.byte	0xb
	.long	0x28a0
	.uleb128 0x18
	.byte	0x6
	.value	0x1a7
	.byte	0xb
	.long	0x2883
	.uleb128 0x18
	.byte	0x6
	.value	0x1a7
	.byte	0xb
	.long	0x28cf
	.uleb128 0x41
	.long	0x26e3
	.byte	0x2
	.uleb128 0xe
	.long	.LASF241
	.byte	0x6
	.value	0x1d1
	.byte	0x7
	.long	.LASF434
	.long	0x4c58
	.long	0x2b12
	.uleb128 0x1
	.long	0xb63
	.byte	0
	.uleb128 0xe
	.long	.LASF241
	.byte	0x6
	.value	0x1da
	.byte	0x7
	.long	.LASF435
	.long	0x4c58
	.long	0x2b2d
	.uleb128 0x1
	.long	0x647
	.byte	0
	.uleb128 0x60
	.long	.LASF244
	.long	.LASF437
	.long	0x4c58
	.uleb128 0x1c
	.long	.LASF158
	.byte	0x6
	.value	0x1c1
	.byte	0x29
	.long	0x279b
	.uleb128 0xe
	.long	.LASF245
	.byte	0x6
	.value	0x1e7
	.byte	0x7
	.long	.LASF438
	.long	0x2b3a
	.long	0x2b76
	.uleb128 0x1
	.long	0x2b3a
	.uleb128 0x1
	.long	0x2b3a
	.uleb128 0x1
	.long	0x2b3a
	.uleb128 0x1
	.long	0x5cd4
	.uleb128 0x1
	.long	0xb63
	.byte	0
	.uleb128 0x19
	.long	.LASF212
	.byte	0x6
	.value	0x1bc
	.byte	0x2f
	.long	0x2872
	.uleb128 0x6
	.long	0x2b76
	.uleb128 0xe
	.long	.LASF245
	.byte	0x6
	.value	0x1ee
	.byte	0x7
	.long	.LASF439
	.long	0x2b3a
	.long	0x2bb7
	.uleb128 0x1
	.long	0x2b3a
	.uleb128 0x1
	.long	0x2b3a
	.uleb128 0x1
	.long	0x2b3a
	.uleb128 0x1
	.long	0x5cd4
	.uleb128 0x1
	.long	0x647
	.byte	0
	.uleb128 0xe
	.long	.LASF248
	.byte	0x6
	.value	0x1f3
	.byte	0x7
	.long	.LASF440
	.long	0x2b3a
	.long	0x2be1
	.uleb128 0x1
	.long	0x2b3a
	.uleb128 0x1
	.long	0x2b3a
	.uleb128 0x1
	.long	0x2b3a
	.uleb128 0x1
	.long	0x5cd4
	.byte	0
	.uleb128 0x3b
	.long	.LASF250
	.byte	0x6
	.value	0x20e
	.long	.LASF441
	.long	0x2bf5
	.long	0x2bfb
	.uleb128 0x2
	.long	0x5cd9
	.byte	0
	.uleb128 0x3c
	.long	.LASF250
	.byte	0x6
	.value	0x219
	.long	.LASF442
	.long	0x2c0f
	.long	0x2c1a
	.uleb128 0x2
	.long	0x5cd9
	.uleb128 0x1
	.long	0x5ce3
	.byte	0
	.uleb128 0x1c
	.long	.LASF185
	.byte	0x6
	.value	0x1cc
	.byte	0x1a
	.long	0x255b
	.uleb128 0x6
	.long	0x2c1a
	.uleb128 0x3c
	.long	.LASF250
	.byte	0x6
	.value	0x227
	.long	.LASF443
	.long	0x2c40
	.long	0x2c50
	.uleb128 0x2
	.long	0x5cd9
	.uleb128 0x1
	.long	0x2c50
	.uleb128 0x1
	.long	0x5ce3
	.byte	0
	.uleb128 0x1c
	.long	.LASF167
	.byte	0x6
	.value	0x1ca
	.byte	0x1a
	.long	0x559
	.uleb128 0x6
	.long	0x2c50
	.uleb128 0xf
	.long	.LASF250
	.byte	0x6
	.value	0x234
	.byte	0x7
	.long	.LASF444
	.byte	0x1
	.long	0x2c78
	.long	0x2c8d
	.uleb128 0x2
	.long	0x5cd9
	.uleb128 0x1
	.long	0x2c50
	.uleb128 0x1
	.long	0x5ce8
	.uleb128 0x1
	.long	0x5ce3
	.byte	0
	.uleb128 0x1c
	.long	.LASF56
	.byte	0x6
	.value	0x1c0
	.byte	0x17
	.long	0x3f
	.uleb128 0x6
	.long	0x2c8d
	.uleb128 0xf
	.long	.LASF250
	.byte	0x6
	.value	0x254
	.byte	0x7
	.long	.LASF445
	.byte	0x1
	.long	0x2cb5
	.long	0x2cc0
	.uleb128 0x2
	.long	0x5cd9
	.uleb128 0x1
	.long	0x5ced
	.byte	0
	.uleb128 0x3b
	.long	.LASF250
	.byte	0x6
	.value	0x267
	.long	.LASF446
	.long	0x2cd4
	.long	0x2cdf
	.uleb128 0x2
	.long	0x5cd9
	.uleb128 0x1
	.long	0x5cf2
	.byte	0
	.uleb128 0xf
	.long	.LASF250
	.byte	0x6
	.value	0x26b
	.byte	0x7
	.long	.LASF447
	.byte	0x1
	.long	0x2cf5
	.long	0x2d05
	.uleb128 0x2
	.long	0x5cd9
	.uleb128 0x1
	.long	0x5ced
	.uleb128 0x1
	.long	0x5cf7
	.byte	0
	.uleb128 0x1a
	.long	.LASF250
	.value	0x276
	.long	.LASF448
	.long	0x2d18
	.long	0x2d2d
	.uleb128 0x2
	.long	0x5cd9
	.uleb128 0x1
	.long	0x5cf2
	.uleb128 0x1
	.long	0x5ce3
	.uleb128 0x1
	.long	0xb63
	.byte	0
	.uleb128 0x1a
	.long	.LASF250
	.value	0x27b
	.long	.LASF449
	.long	0x2d40
	.long	0x2d55
	.uleb128 0x2
	.long	0x5cd9
	.uleb128 0x1
	.long	0x5cf2
	.uleb128 0x1
	.long	0x5ce3
	.uleb128 0x1
	.long	0x647
	.byte	0
	.uleb128 0xf
	.long	.LASF250
	.byte	0x6
	.value	0x28e
	.byte	0x7
	.long	.LASF450
	.byte	0x1
	.long	0x2d6b
	.long	0x2d7b
	.uleb128 0x2
	.long	0x5cd9
	.uleb128 0x1
	.long	0x5cf2
	.uleb128 0x1
	.long	0x5cf7
	.byte	0
	.uleb128 0xf
	.long	.LASF250
	.byte	0x6
	.value	0x2a1
	.byte	0x7
	.long	.LASF451
	.byte	0x1
	.long	0x2d91
	.long	0x2da1
	.uleb128 0x2
	.long	0x5cd9
	.uleb128 0x1
	.long	0x36af
	.uleb128 0x1
	.long	0x5ce3
	.byte	0
	.uleb128 0xf
	.long	.LASF262
	.byte	0x6
	.value	0x2d8
	.byte	0x7
	.long	.LASF452
	.byte	0x1
	.long	0x2db7
	.long	0x2dc2
	.uleb128 0x2
	.long	0x5cd9
	.uleb128 0x2
	.long	0x118
	.byte	0
	.uleb128 0x17
	.long	.LASF82
	.byte	0xe
	.byte	0xcc
	.byte	0x5
	.long	.LASF453
	.long	0x5cfc
	.byte	0x1
	.long	0x2ddb
	.long	0x2de6
	.uleb128 0x2
	.long	0x5cd9
	.uleb128 0x1
	.long	0x5ced
	.byte	0
	.uleb128 0x8
	.long	.LASF82
	.byte	0x6
	.value	0x2f9
	.byte	0x7
	.long	.LASF454
	.long	0x5cfc
	.byte	0x1
	.long	0x2e00
	.long	0x2e0b
	.uleb128 0x2
	.long	0x5cd9
	.uleb128 0x1
	.long	0x5cf2
	.byte	0
	.uleb128 0x8
	.long	.LASF82
	.byte	0x6
	.value	0x30f
	.byte	0x7
	.long	.LASF455
	.long	0x5cfc
	.byte	0x1
	.long	0x2e25
	.long	0x2e30
	.uleb128 0x2
	.long	0x5cd9
	.uleb128 0x1
	.long	0x36af
	.byte	0
	.uleb128 0xf
	.long	.LASF108
	.byte	0x6
	.value	0x323
	.byte	0x7
	.long	.LASF456
	.byte	0x1
	.long	0x2e46
	.long	0x2e56
	.uleb128 0x2
	.long	0x5cd9
	.uleb128 0x1
	.long	0x2c50
	.uleb128 0x1
	.long	0x5ce8
	.byte	0
	.uleb128 0xf
	.long	.LASF108
	.byte	0x6
	.value	0x352
	.byte	0x7
	.long	.LASF457
	.byte	0x1
	.long	0x2e6c
	.long	0x2e77
	.uleb128 0x2
	.long	0x5cd9
	.uleb128 0x1
	.long	0x36af
	.byte	0
	.uleb128 0x1c
	.long	.LASF269
	.byte	0x6
	.value	0x1c5
	.byte	0x3d
	.long	0x4bad
	.uleb128 0x8
	.long	.LASF270
	.byte	0x6
	.value	0x364
	.byte	0x7
	.long	.LASF458
	.long	0x2e77
	.byte	0x1
	.long	0x2e9e
	.long	0x2ea4
	.uleb128 0x2
	.long	0x5cd9
	.byte	0
	.uleb128 0x1c
	.long	.LASF272
	.byte	0x6
	.value	0x1c7
	.byte	0x7
	.long	0x4bb2
	.uleb128 0x8
	.long	.LASF270
	.byte	0x6
	.value	0x36e
	.byte	0x7
	.long	.LASF459
	.long	0x2ea4
	.byte	0x1
	.long	0x2ecb
	.long	0x2ed1
	.uleb128 0x2
	.long	0x5d01
	.byte	0
	.uleb128 0x33
	.string	"end"
	.value	0x378
	.long	.LASF460
	.long	0x2e77
	.long	0x2ee8
	.long	0x2eee
	.uleb128 0x2
	.long	0x5cd9
	.byte	0
	.uleb128 0x33
	.string	"end"
	.value	0x382
	.long	.LASF461
	.long	0x2ea4
	.long	0x2f05
	.long	0x2f0b
	.uleb128 0x2
	.long	0x5d01
	.byte	0
	.uleb128 0x1c
	.long	.LASF276
	.byte	0x6
	.value	0x1c9
	.byte	0x30
	.long	0x36b4
	.uleb128 0x8
	.long	.LASF277
	.byte	0x6
	.value	0x38c
	.byte	0x7
	.long	.LASF462
	.long	0x2f0b
	.byte	0x1
	.long	0x2f32
	.long	0x2f38
	.uleb128 0x2
	.long	0x5cd9
	.byte	0
	.uleb128 0x1c
	.long	.LASF279
	.byte	0x6
	.value	0x1c8
	.byte	0x35
	.long	0x36b9
	.uleb128 0x8
	.long	.LASF277
	.byte	0x6
	.value	0x396
	.byte	0x7
	.long	.LASF463
	.long	0x2f38
	.byte	0x1
	.long	0x2f5f
	.long	0x2f65
	.uleb128 0x2
	.long	0x5d01
	.byte	0
	.uleb128 0x8
	.long	.LASF281
	.byte	0x6
	.value	0x3a0
	.byte	0x7
	.long	.LASF464
	.long	0x2f0b
	.byte	0x1
	.long	0x2f7f
	.long	0x2f85
	.uleb128 0x2
	.long	0x5cd9
	.byte	0
	.uleb128 0x8
	.long	.LASF281
	.byte	0x6
	.value	0x3aa
	.byte	0x7
	.long	.LASF465
	.long	0x2f38
	.byte	0x1
	.long	0x2f9f
	.long	0x2fa5
	.uleb128 0x2
	.long	0x5d01
	.byte	0
	.uleb128 0x8
	.long	.LASF284
	.byte	0x6
	.value	0x3b5
	.byte	0x7
	.long	.LASF466
	.long	0x2ea4
	.byte	0x1
	.long	0x2fbf
	.long	0x2fc5
	.uleb128 0x2
	.long	0x5d01
	.byte	0
	.uleb128 0x8
	.long	.LASF286
	.byte	0x6
	.value	0x3bf
	.byte	0x7
	.long	.LASF467
	.long	0x2ea4
	.byte	0x1
	.long	0x2fdf
	.long	0x2fe5
	.uleb128 0x2
	.long	0x5d01
	.byte	0
	.uleb128 0x8
	.long	.LASF288
	.byte	0x6
	.value	0x3c9
	.byte	0x7
	.long	.LASF468
	.long	0x2f38
	.byte	0x1
	.long	0x2fff
	.long	0x3005
	.uleb128 0x2
	.long	0x5d01
	.byte	0
	.uleb128 0x8
	.long	.LASF290
	.byte	0x6
	.value	0x3d3
	.byte	0x7
	.long	.LASF469
	.long	0x2f38
	.byte	0x1
	.long	0x301f
	.long	0x3025
	.uleb128 0x2
	.long	0x5d01
	.byte	0
	.uleb128 0x8
	.long	.LASF292
	.byte	0x6
	.value	0x3db
	.byte	0x7
	.long	.LASF470
	.long	0x2c50
	.byte	0x1
	.long	0x303f
	.long	0x3045
	.uleb128 0x2
	.long	0x5d01
	.byte	0
	.uleb128 0x8
	.long	.LASF170
	.byte	0x6
	.value	0x3e1
	.byte	0x7
	.long	.LASF471
	.long	0x2c50
	.byte	0x1
	.long	0x305f
	.long	0x3065
	.uleb128 0x2
	.long	0x5d01
	.byte	0
	.uleb128 0xf
	.long	.LASF295
	.byte	0x6
	.value	0x3f0
	.byte	0x7
	.long	.LASF472
	.byte	0x1
	.long	0x307b
	.long	0x3086
	.uleb128 0x2
	.long	0x5cd9
	.uleb128 0x1
	.long	0x2c50
	.byte	0
	.uleb128 0xf
	.long	.LASF295
	.byte	0x6
	.value	0x405
	.byte	0x7
	.long	.LASF473
	.byte	0x1
	.long	0x309c
	.long	0x30ac
	.uleb128 0x2
	.long	0x5cd9
	.uleb128 0x1
	.long	0x2c50
	.uleb128 0x1
	.long	0x5ce8
	.byte	0
	.uleb128 0xf
	.long	.LASF298
	.byte	0x6
	.value	0x427
	.byte	0x7
	.long	.LASF474
	.byte	0x1
	.long	0x30c2
	.long	0x30c8
	.uleb128 0x2
	.long	0x5cd9
	.byte	0
	.uleb128 0x8
	.long	.LASF300
	.byte	0x6
	.value	0x431
	.byte	0x7
	.long	.LASF475
	.long	0x2c50
	.byte	0x1
	.long	0x30e2
	.long	0x30e8
	.uleb128 0x2
	.long	0x5d01
	.byte	0
	.uleb128 0x8
	.long	.LASF302
	.byte	0x6
	.value	0x43b
	.byte	0x7
	.long	.LASF476
	.long	0x4c58
	.byte	0x1
	.long	0x3102
	.long	0x3108
	.uleb128 0x2
	.long	0x5d01
	.byte	0
	.uleb128 0x1d
	.long	.LASF304
	.byte	0xe
	.byte	0x43
	.byte	0x5
	.long	.LASF477
	.long	0x311c
	.long	0x3127
	.uleb128 0x2
	.long	0x5cd9
	.uleb128 0x1
	.long	0x2c50
	.byte	0
	.uleb128 0x1c
	.long	.LASF161
	.byte	0x6
	.value	0x1c3
	.byte	0x32
	.long	0x4b68
	.uleb128 0x8
	.long	.LASF306
	.byte	0x6
	.value	0x461
	.byte	0x7
	.long	.LASF478
	.long	0x3127
	.byte	0x1
	.long	0x314e
	.long	0x3159
	.uleb128 0x2
	.long	0x5cd9
	.uleb128 0x1
	.long	0x2c50
	.byte	0
	.uleb128 0x1c
	.long	.LASF164
	.byte	0x6
	.value	0x1c4
	.byte	0x37
	.long	0x4b74
	.uleb128 0x8
	.long	.LASF306
	.byte	0x6
	.value	0x474
	.byte	0x7
	.long	.LASF479
	.long	0x3159
	.byte	0x1
	.long	0x3180
	.long	0x318b
	.uleb128 0x2
	.long	0x5d01
	.uleb128 0x1
	.long	0x2c50
	.byte	0
	.uleb128 0xf
	.long	.LASF309
	.byte	0x6
	.value	0x47e
	.byte	0x7
	.long	.LASF480
	.byte	0x2
	.long	0x31a1
	.long	0x31ac
	.uleb128 0x2
	.long	0x5d01
	.uleb128 0x1
	.long	0x2c50
	.byte	0
	.uleb128 0x33
	.string	"at"
	.value	0x495
	.long	.LASF481
	.long	0x3127
	.long	0x31c2
	.long	0x31cd
	.uleb128 0x2
	.long	0x5cd9
	.uleb128 0x1
	.long	0x2c50
	.byte	0
	.uleb128 0x33
	.string	"at"
	.value	0x4a8
	.long	.LASF482
	.long	0x3159
	.long	0x31e3
	.long	0x31ee
	.uleb128 0x2
	.long	0x5d01
	.uleb128 0x1
	.long	0x2c50
	.byte	0
	.uleb128 0x8
	.long	.LASF313
	.byte	0x6
	.value	0x4b4
	.byte	0x7
	.long	.LASF483
	.long	0x3127
	.byte	0x1
	.long	0x3208
	.long	0x320e
	.uleb128 0x2
	.long	0x5cd9
	.byte	0
	.uleb128 0x8
	.long	.LASF313
	.byte	0x6
	.value	0x4c0
	.byte	0x7
	.long	.LASF484
	.long	0x3159
	.byte	0x1
	.long	0x3228
	.long	0x322e
	.uleb128 0x2
	.long	0x5d01
	.byte	0
	.uleb128 0x8
	.long	.LASF316
	.byte	0x6
	.value	0x4cc
	.byte	0x7
	.long	.LASF485
	.long	0x3127
	.byte	0x1
	.long	0x3248
	.long	0x324e
	.uleb128 0x2
	.long	0x5cd9
	.byte	0
	.uleb128 0x8
	.long	.LASF316
	.byte	0x6
	.value	0x4d8
	.byte	0x7
	.long	.LASF486
	.long	0x3159
	.byte	0x1
	.long	0x3268
	.long	0x326e
	.uleb128 0x2
	.long	0x5d01
	.byte	0
	.uleb128 0x8
	.long	.LASF319
	.byte	0x6
	.value	0x4e7
	.byte	0x7
	.long	.LASF487
	.long	0x5c34
	.byte	0x1
	.long	0x3288
	.long	0x328e
	.uleb128 0x2
	.long	0x5cd9
	.byte	0
	.uleb128 0x8
	.long	.LASF319
	.byte	0x6
	.value	0x4ec
	.byte	0x7
	.long	.LASF488
	.long	0x5c4d
	.byte	0x1
	.long	0x32a8
	.long	0x32ae
	.uleb128 0x2
	.long	0x5d01
	.byte	0
	.uleb128 0xf
	.long	.LASF322
	.byte	0x6
	.value	0x4fc
	.byte	0x7
	.long	.LASF489
	.byte	0x1
	.long	0x32c4
	.long	0x32cf
	.uleb128 0x2
	.long	0x5cd9
	.uleb128 0x1
	.long	0x5ce8
	.byte	0
	.uleb128 0xf
	.long	.LASF322
	.byte	0x6
	.value	0x50d
	.byte	0x7
	.long	.LASF490
	.byte	0x1
	.long	0x32e5
	.long	0x32f0
	.uleb128 0x2
	.long	0x5cd9
	.uleb128 0x1
	.long	0x5d0b
	.byte	0
	.uleb128 0xf
	.long	.LASF325
	.byte	0x6
	.value	0x525
	.byte	0x7
	.long	.LASF491
	.byte	0x1
	.long	0x3306
	.long	0x330c
	.uleb128 0x2
	.long	0x5cd9
	.byte	0
	.uleb128 0x17
	.long	.LASF327
	.byte	0xe
	.byte	0x85
	.byte	0x5
	.long	.LASF492
	.long	0x2e77
	.byte	0x1
	.long	0x3325
	.long	0x3335
	.uleb128 0x2
	.long	0x5cd9
	.uleb128 0x1
	.long	0x2ea4
	.uleb128 0x1
	.long	0x5ce8
	.byte	0
	.uleb128 0x8
	.long	.LASF327
	.byte	0x6
	.value	0x56c
	.byte	0x7
	.long	.LASF493
	.long	0x2e77
	.byte	0x1
	.long	0x334f
	.long	0x335f
	.uleb128 0x2
	.long	0x5cd9
	.uleb128 0x1
	.long	0x2ea4
	.uleb128 0x1
	.long	0x5d0b
	.byte	0
	.uleb128 0x8
	.long	.LASF327
	.byte	0x6
	.value	0x57e
	.byte	0x7
	.long	.LASF494
	.long	0x2e77
	.byte	0x1
	.long	0x3379
	.long	0x3389
	.uleb128 0x2
	.long	0x5cd9
	.uleb128 0x1
	.long	0x2ea4
	.uleb128 0x1
	.long	0x36af
	.byte	0
	.uleb128 0x8
	.long	.LASF327
	.byte	0x6
	.value	0x598
	.byte	0x7
	.long	.LASF495
	.long	0x2e77
	.byte	0x1
	.long	0x33a3
	.long	0x33b8
	.uleb128 0x2
	.long	0x5cd9
	.uleb128 0x1
	.long	0x2ea4
	.uleb128 0x1
	.long	0x2c50
	.uleb128 0x1
	.long	0x5ce8
	.byte	0
	.uleb128 0x8
	.long	.LASF332
	.byte	0x6
	.value	0x5f9
	.byte	0x7
	.long	.LASF496
	.long	0x2e77
	.byte	0x1
	.long	0x33d2
	.long	0x33dd
	.uleb128 0x2
	.long	0x5cd9
	.uleb128 0x1
	.long	0x2ea4
	.byte	0
	.uleb128 0x8
	.long	.LASF332
	.byte	0x6
	.value	0x615
	.byte	0x7
	.long	.LASF497
	.long	0x2e77
	.byte	0x1
	.long	0x33f7
	.long	0x3407
	.uleb128 0x2
	.long	0x5cd9
	.uleb128 0x1
	.long	0x2ea4
	.uleb128 0x1
	.long	0x2ea4
	.byte	0
	.uleb128 0xf
	.long	.LASF87
	.byte	0x6
	.value	0x62d
	.byte	0x7
	.long	.LASF498
	.byte	0x1
	.long	0x341d
	.long	0x3428
	.uleb128 0x2
	.long	0x5cd9
	.uleb128 0x1
	.long	0x5cfc
	.byte	0
	.uleb128 0xf
	.long	.LASF336
	.byte	0x6
	.value	0x640
	.byte	0x7
	.long	.LASF499
	.byte	0x1
	.long	0x343e
	.long	0x3444
	.uleb128 0x2
	.long	0x5cd9
	.byte	0
	.uleb128 0xf
	.long	.LASF338
	.byte	0x6
	.value	0x6a3
	.byte	0x7
	.long	.LASF500
	.byte	0x2
	.long	0x345a
	.long	0x346a
	.uleb128 0x2
	.long	0x5cd9
	.uleb128 0x1
	.long	0x2c50
	.uleb128 0x1
	.long	0x5ce8
	.byte	0
	.uleb128 0xf
	.long	.LASF340
	.byte	0x6
	.value	0x6ae
	.byte	0x7
	.long	.LASF501
	.byte	0x2
	.long	0x3480
	.long	0x348b
	.uleb128 0x2
	.long	0x5cd9
	.uleb128 0x1
	.long	0x2c50
	.byte	0
	.uleb128 0xf
	.long	.LASF342
	.byte	0xe
	.value	0x108
	.byte	0x5
	.long	.LASF502
	.byte	0x2
	.long	0x34a1
	.long	0x34b1
	.uleb128 0x2
	.long	0x5cd9
	.uleb128 0x1
	.long	0x559
	.uleb128 0x1
	.long	0x5ce8
	.byte	0
	.uleb128 0xf
	.long	.LASF344
	.byte	0xe
	.value	0x20b
	.byte	0x5
	.long	.LASF503
	.byte	0x2
	.long	0x34c7
	.long	0x34dc
	.uleb128 0x2
	.long	0x5cd9
	.uleb128 0x1
	.long	0x2e77
	.uleb128 0x1
	.long	0x2c50
	.uleb128 0x1
	.long	0x5ce8
	.byte	0
	.uleb128 0xf
	.long	.LASF346
	.byte	0xe
	.value	0x272
	.byte	0x5
	.long	.LASF504
	.byte	0x2
	.long	0x34f2
	.long	0x34fd
	.uleb128 0x2
	.long	0x5cd9
	.uleb128 0x1
	.long	0x2c50
	.byte	0
	.uleb128 0x8
	.long	.LASF348
	.byte	0xe
	.value	0x2bf
	.byte	0x5
	.long	.LASF505
	.long	0x4c58
	.byte	0x2
	.long	0x3517
	.long	0x351d
	.uleb128 0x2
	.long	0x5cd9
	.byte	0
	.uleb128 0x8
	.long	.LASF350
	.byte	0xe
	.value	0x15e
	.byte	0x5
	.long	.LASF506
	.long	0x2e77
	.byte	0x2
	.long	0x3537
	.long	0x3547
	.uleb128 0x2
	.long	0x5cd9
	.uleb128 0x1
	.long	0x2ea4
	.uleb128 0x1
	.long	0x5d0b
	.byte	0
	.uleb128 0x8
	.long	.LASF352
	.byte	0x6
	.value	0x75c
	.byte	0x7
	.long	.LASF507
	.long	0x2e77
	.byte	0x2
	.long	0x3561
	.long	0x3571
	.uleb128 0x2
	.long	0x5cd9
	.uleb128 0x1
	.long	0x2ea4
	.uleb128 0x1
	.long	0x5d0b
	.byte	0
	.uleb128 0x8
	.long	.LASF354
	.byte	0x6
	.value	0x763
	.byte	0x7
	.long	.LASF508
	.long	0x2c50
	.byte	0x2
	.long	0x358b
	.long	0x359b
	.uleb128 0x2
	.long	0x5d01
	.uleb128 0x1
	.long	0x2c50
	.uleb128 0x1
	.long	0x2e7
	.byte	0
	.uleb128 0x43
	.long	.LASF356
	.value	0x76e
	.long	.LASF509
	.long	0x2c50
	.long	0x35b9
	.uleb128 0x1
	.long	0x2c50
	.uleb128 0x1
	.long	0x5ce3
	.byte	0
	.uleb128 0x43
	.long	.LASF358
	.value	0x777
	.long	.LASF510
	.long	0x2c50
	.long	0x35d2
	.uleb128 0x1
	.long	0x5d10
	.byte	0
	.uleb128 0xf
	.long	.LASF360
	.byte	0x6
	.value	0x788
	.byte	0x7
	.long	.LASF511
	.byte	0x2
	.long	0x35e8
	.long	0x35f3
	.uleb128 0x2
	.long	0x5cd9
	.uleb128 0x1
	.long	0x2b3a
	.byte	0
	.uleb128 0x17
	.long	.LASF362
	.byte	0xe
	.byte	0xaf
	.byte	0x5
	.long	.LASF512
	.long	0x2e77
	.byte	0x2
	.long	0x360c
	.long	0x3617
	.uleb128 0x2
	.long	0x5cd9
	.uleb128 0x1
	.long	0x2e77
	.byte	0
	.uleb128 0x17
	.long	.LASF362
	.byte	0xe
	.byte	0xbd
	.byte	0x5
	.long	.LASF513
	.long	0x2e77
	.byte	0x2
	.long	0x3630
	.long	0x3640
	.uleb128 0x2
	.long	0x5cd9
	.uleb128 0x1
	.long	0x2e77
	.uleb128 0x1
	.long	0x2e77
	.byte	0
	.uleb128 0x1a
	.long	.LASF365
	.value	0x7a2
	.long	.LASF514
	.long	0x3653
	.long	0x3663
	.uleb128 0x2
	.long	0x5cd9
	.uleb128 0x1
	.long	0x5cf2
	.uleb128 0x1
	.long	0xb63
	.byte	0
	.uleb128 0x1a
	.long	.LASF365
	.value	0x7ae
	.long	.LASF515
	.long	0x3676
	.long	0x3686
	.uleb128 0x2
	.long	0x5cd9
	.uleb128 0x1
	.long	0x5cf2
	.uleb128 0x1
	.long	0x647
	.byte	0
	.uleb128 0xa
	.string	"_Tp"
	.long	0x3f
	.uleb128 0x4
	.long	.LASF236
	.long	0x255b
	.byte	0
	.uleb128 0x6
	.long	0x2aae
	.uleb128 0x5
	.long	.LASF371
	.byte	0x1f
	.byte	0x80
	.byte	0xb
	.long	0x2a98
	.uleb128 0x6
	.long	0x369e
	.uleb128 0x30
	.long	.LASF516
	.uleb128 0x30
	.long	.LASF517
	.uleb128 0x30
	.long	.LASF518
	.uleb128 0x16
	.long	.LASF519
	.byte	0x1
	.byte	0x10
	.byte	0xd2
	.byte	0xc
	.long	0x36f0
	.uleb128 0x5
	.long	.LASF520
	.byte	0x10
	.byte	0xd6
	.byte	0x2b
	.long	0xb51
	.uleb128 0x5
	.long	.LASF158
	.byte	0x10
	.byte	0xd7
	.byte	0x2b
	.long	0x59aa
	.uleb128 0x5
	.long	.LASF161
	.byte	0x10
	.byte	0xd8
	.byte	0x2b
	.long	0x59be
	.byte	0
	.uleb128 0x16
	.long	.LASF521
	.byte	0x1
	.byte	0x10
	.byte	0xdd
	.byte	0xc
	.long	0x3716
	.uleb128 0x5
	.long	.LASF522
	.byte	0x10
	.byte	0xdf
	.byte	0x2a
	.long	0xb9e
	.uleb128 0x5
	.long	.LASF520
	.byte	0x10
	.byte	0xe1
	.byte	0x2b
	.long	0xb51
	.byte	0
	.uleb128 0x38
	.long	.LASF523
	.byte	0x1f
	.value	0x8b9
	.long	0x3739
	.uleb128 0x19
	.long	.LASF238
	.byte	0x1f
	.value	0x8ba
	.byte	0x13
	.long	0x5c34
	.uleb128 0xa
	.string	"_Tp"
	.long	0x5c34
	.byte	0
	.uleb128 0x16
	.long	.LASF524
	.byte	0x1
	.byte	0x10
	.byte	0xd2
	.byte	0xc
	.long	0x375f
	.uleb128 0x5
	.long	.LASF522
	.byte	0x10
	.byte	0xd4
	.byte	0x2a
	.long	0xb9e
	.uleb128 0x5
	.long	.LASF56
	.byte	0x10
	.byte	0xd5
	.byte	0x2b
	.long	0x3f
	.byte	0
	.uleb128 0x38
	.long	.LASF525
	.byte	0x2
	.value	0x19f
	.long	0x37b7
	.uleb128 0xe
	.long	.LASF526
	.byte	0x2
	.value	0x1a4
	.byte	0x2
	.long	.LASF527
	.long	0x59aa
	.long	0x3799
	.uleb128 0xa
	.string	"_Tp"
	.long	0x446c
	.uleb128 0x1
	.long	0x59c3
	.uleb128 0x1
	.long	0x59c3
	.uleb128 0x1
	.long	0x59aa
	.byte	0
	.uleb128 0x2e
	.long	.LASF528
	.long	0x4c58
	.byte	0
	.uleb128 0x2e
	.long	.LASF529
	.long	0x4c58
	.byte	0x1
	.uleb128 0x4
	.long	.LASF530
	.long	0xb9e
	.byte	0
	.uleb128 0x61
	.long	.LASF531
	.byte	0x34
	.long	.LASF533
	.uleb128 0x61
	.long	.LASF532
	.byte	0x37
	.long	.LASF534
	.uleb128 0x56
	.long	.LASF535
	.byte	0x2b
	.byte	0x4b
	.byte	0x3
	.long	.LASF536
	.long	0x37e1
	.uleb128 0x1
	.long	0x2e7
	.byte	0
	.uleb128 0x48
	.long	.LASF537
	.long	0x3830
	.uleb128 0x83
	.long	.LASF1051
	.byte	0x2c
	.byte	0xf4
	.byte	0xd
	.long	.LASF1052
	.byte	0x1
	.long	0x37e1
	.byte	0x1
	.long	0x3806
	.byte	0
	.long	0x3811
	.uleb128 0x2
	.long	0x5dfa
	.uleb128 0x2
	.long	0x118
	.byte	0
	.uleb128 0x84
	.long	.LASF537
	.byte	0x2c
	.byte	0xe6
	.byte	0x5
	.long	.LASF538
	.byte	0x1
	.long	0x3824
	.byte	0
	.uleb128 0x2
	.long	0x5dfa
	.uleb128 0x1
	.long	0x2e7
	.byte	0
	.byte	0
	.uleb128 0x36
	.long	.LASF539
	.byte	0x2
	.value	0x395
	.byte	0x5
	.long	.LASF540
	.long	0x3863
	.uleb128 0x4
	.long	.LASF128
	.long	0x5c34
	.uleb128 0xa
	.string	"_Tp"
	.long	0x3f
	.uleb128 0x1
	.long	0x5c34
	.uleb128 0x1
	.long	0x5c34
	.uleb128 0x1
	.long	0x5c52
	.byte	0
	.uleb128 0xe
	.long	.LASF541
	.byte	0x2
	.value	0x1e6
	.byte	0x5
	.long	.LASF542
	.long	0x59aa
	.long	0x38a4
	.uleb128 0x2e
	.long	.LASF528
	.long	0x4c58
	.byte	0
	.uleb128 0xa
	.string	"_II"
	.long	0x59c3
	.uleb128 0xa
	.string	"_OI"
	.long	0x59aa
	.uleb128 0x1
	.long	0x59c3
	.uleb128 0x1
	.long	0x59c3
	.uleb128 0x1
	.long	0x59aa
	.byte	0
	.uleb128 0x36
	.long	.LASF543
	.byte	0x2
	.value	0x3c7
	.byte	0x5
	.long	.LASF544
	.long	0x38d7
	.uleb128 0x4
	.long	.LASF545
	.long	0x5c34
	.uleb128 0xa
	.string	"_Tp"
	.long	0x3f
	.uleb128 0x1
	.long	0x5c34
	.uleb128 0x1
	.long	0x5c34
	.uleb128 0x1
	.long	0x5c52
	.byte	0
	.uleb128 0xe
	.long	.LASF546
	.byte	0x2
	.value	0x14f
	.byte	0x5
	.long	.LASF547
	.long	0x59aa
	.long	0x3900
	.uleb128 0x4
	.long	.LASF548
	.long	0x59aa
	.uleb128 0x1
	.long	0x5d42
	.uleb128 0x1
	.long	0x59aa
	.byte	0
	.uleb128 0xe
	.long	.LASF549
	.byte	0x2
	.value	0x209
	.byte	0x5
	.long	.LASF550
	.long	0x59aa
	.long	0x3941
	.uleb128 0x2e
	.long	.LASF528
	.long	0x4c58
	.byte	0
	.uleb128 0xa
	.string	"_II"
	.long	0x59c3
	.uleb128 0xa
	.string	"_OI"
	.long	0x59aa
	.uleb128 0x1
	.long	0x59c3
	.uleb128 0x1
	.long	0x59c3
	.uleb128 0x1
	.long	0x59aa
	.byte	0
	.uleb128 0xe
	.long	.LASF551
	.byte	0x2
	.value	0x139
	.byte	0x5
	.long	.LASF552
	.long	0x59aa
	.long	0x3965
	.uleb128 0x4
	.long	.LASF548
	.long	0x59aa
	.uleb128 0x1
	.long	0x59aa
	.byte	0
	.uleb128 0xe
	.long	.LASF553
	.byte	0x2
	.value	0x139
	.byte	0x5
	.long	.LASF554
	.long	0x59c3
	.long	0x3989
	.uleb128 0x4
	.long	.LASF548
	.long	0x59c3
	.uleb128 0x1
	.long	0x59c3
	.byte	0
	.uleb128 0xe
	.long	.LASF555
	.byte	0x2
	.value	0x454
	.byte	0x5
	.long	.LASF556
	.long	0x5c34
	.long	0x39ce
	.uleb128 0x4
	.long	.LASF557
	.long	0x5c34
	.uleb128 0x4
	.long	.LASF149
	.long	0x5e
	.uleb128 0xa
	.string	"_Tp"
	.long	0x3f
	.uleb128 0x1
	.long	0x5c34
	.uleb128 0x1
	.long	0x5e
	.uleb128 0x1
	.long	0x5c52
	.uleb128 0x1
	.long	0xb9e
	.byte	0
	.uleb128 0x1e
	.long	.LASF558
	.byte	0x10
	.byte	0xee
	.byte	0x5
	.long	.LASF559
	.long	0x3746
	.long	0x39f1
	.uleb128 0x4
	.long	.LASF560
	.long	0x5c34
	.uleb128 0x1
	.long	0x61d6
	.byte	0
	.uleb128 0xe
	.long	.LASF561
	.byte	0x2
	.value	0x20f
	.byte	0x5
	.long	.LASF562
	.long	0x59aa
	.long	0x3a32
	.uleb128 0x2e
	.long	.LASF528
	.long	0x4c58
	.byte	0
	.uleb128 0xa
	.string	"_II"
	.long	0x59c3
	.uleb128 0xa
	.string	"_OI"
	.long	0x59aa
	.uleb128 0x1
	.long	0x59c3
	.uleb128 0x1
	.long	0x59c3
	.uleb128 0x1
	.long	0x59aa
	.byte	0
	.uleb128 0xe
	.long	.LASF563
	.byte	0x13
	.value	0x232
	.byte	0x5
	.long	.LASF564
	.long	0x59c3
	.long	0x3a56
	.uleb128 0x4
	.long	.LASF548
	.long	0x59c3
	.uleb128 0x1
	.long	0x59c3
	.byte	0
	.uleb128 0xe
	.long	.LASF565
	.byte	0x2
	.value	0x477
	.byte	0x5
	.long	.LASF566
	.long	0x5c34
	.long	0x3a96
	.uleb128 0xa
	.string	"_OI"
	.long	0x5c34
	.uleb128 0x4
	.long	.LASF149
	.long	0x5e
	.uleb128 0xa
	.string	"_Tp"
	.long	0x3f
	.uleb128 0x1
	.long	0x5c34
	.uleb128 0x1
	.long	0x5e
	.uleb128 0x1
	.long	0x5c52
	.byte	0
	.uleb128 0x37
	.long	.LASF567
	.byte	0xf
	.byte	0x6d
	.byte	0x5
	.long	.LASF568
	.long	0x3aba
	.uleb128 0xa
	.string	"_Tp"
	.long	0x3f
	.uleb128 0x62
	.long	.LASF980
	.uleb128 0x1
	.long	0x5c34
	.byte	0
	.uleb128 0x1e
	.long	.LASF569
	.byte	0x12
	.byte	0x31
	.byte	0x5
	.long	.LASF570
	.long	0x5c34
	.long	0x3add
	.uleb128 0xa
	.string	"_Tp"
	.long	0x3f
	.uleb128 0x1
	.long	0x5c48
	.byte	0
	.uleb128 0xe
	.long	.LASF571
	.byte	0x2
	.value	0x263
	.byte	0x5
	.long	.LASF572
	.long	0x59aa
	.long	0x3b14
	.uleb128 0xa
	.string	"_II"
	.long	0x59c3
	.uleb128 0xa
	.string	"_OI"
	.long	0x59aa
	.uleb128 0x1
	.long	0x59c3
	.uleb128 0x1
	.long	0x59c3
	.uleb128 0x1
	.long	0x59aa
	.byte	0
	.uleb128 0x19
	.long	.LASF573
	.byte	0x1f
	.value	0x8c0
	.byte	0xb
	.long	0x3722
	.uleb128 0xe
	.long	.LASF574
	.byte	0x11
	.value	0x44c
	.byte	0x5
	.long	.LASF575
	.long	0x3b14
	.long	0x3b5d
	.uleb128 0xa
	.string	"_Tp"
	.long	0x3f
	.uleb128 0xa
	.string	"_Up"
	.long	0x3f
	.uleb128 0x1
	.long	0x5c34
	.uleb128 0x1
	.long	0x5c34
	.uleb128 0x1
	.long	0x5c34
	.uleb128 0x1
	.long	0x5c66
	.byte	0
	.uleb128 0xe
	.long	.LASF576
	.byte	0x2
	.value	0x139
	.byte	0x5
	.long	.LASF577
	.long	0x5c34
	.long	0x3b81
	.uleb128 0x4
	.long	.LASF548
	.long	0x5c34
	.uleb128 0x1
	.long	0x5c34
	.byte	0
	.uleb128 0x1e
	.long	.LASF578
	.byte	0x2
	.byte	0xe6
	.byte	0x5
	.long	.LASF579
	.long	0x66db
	.long	0x3ba9
	.uleb128 0xa
	.string	"_Tp"
	.long	0x5e
	.uleb128 0x1
	.long	0x66db
	.uleb128 0x1
	.long	0x66db
	.byte	0
	.uleb128 0xe
	.long	.LASF580
	.byte	0x11
	.value	0x467
	.byte	0x5
	.long	.LASF581
	.long	0x5c34
	.long	0x3bee
	.uleb128 0x4
	.long	.LASF144
	.long	0x5c34
	.uleb128 0x4
	.long	.LASF128
	.long	0x5c34
	.uleb128 0x4
	.long	.LASF582
	.long	0x255b
	.uleb128 0x1
	.long	0x5c34
	.uleb128 0x1
	.long	0x5c34
	.uleb128 0x1
	.long	0x5c34
	.uleb128 0x1
	.long	0x5c66
	.byte	0
	.uleb128 0x1e
	.long	.LASF583
	.byte	0x2
	.byte	0xfe
	.byte	0x5
	.long	.LASF584
	.long	0x66db
	.long	0x3c16
	.uleb128 0xa
	.string	"_Tp"
	.long	0x5e
	.uleb128 0x1
	.long	0x66db
	.uleb128 0x1
	.long	0x66db
	.byte	0
	.uleb128 0xe
	.long	.LASF585
	.byte	0x11
	.value	0x2b3
	.byte	0x5
	.long	.LASF586
	.long	0x5c34
	.long	0x3c48
	.uleb128 0x4
	.long	.LASF128
	.long	0x5c34
	.uleb128 0x4
	.long	.LASF149
	.long	0x5e
	.uleb128 0x1
	.long	0x5c34
	.uleb128 0x1
	.long	0x5e
	.byte	0
	.uleb128 0x1e
	.long	.LASF587
	.byte	0x11
	.byte	0xa3
	.byte	0x5
	.long	.LASF588
	.long	0x59aa
	.long	0x3c7e
	.uleb128 0x4
	.long	.LASF144
	.long	0x59c3
	.uleb128 0x4
	.long	.LASF128
	.long	0x59aa
	.uleb128 0x1
	.long	0x59c3
	.uleb128 0x1
	.long	0x59c3
	.uleb128 0x1
	.long	0x59aa
	.byte	0
	.uleb128 0xe
	.long	.LASF589
	.byte	0x11
	.value	0x2fc
	.byte	0x5
	.long	.LASF590
	.long	0x5c34
	.long	0x3cbe
	.uleb128 0x4
	.long	.LASF128
	.long	0x5c34
	.uleb128 0x4
	.long	.LASF149
	.long	0x5e
	.uleb128 0xa
	.string	"_Tp"
	.long	0x3f
	.uleb128 0x1
	.long	0x5c34
	.uleb128 0x1
	.long	0x5e
	.uleb128 0x1
	.long	0x5c66
	.byte	0
	.uleb128 0xe
	.long	.LASF591
	.byte	0x11
	.value	0x16d
	.byte	0x5
	.long	.LASF592
	.long	0x59aa
	.long	0x3d03
	.uleb128 0x4
	.long	.LASF144
	.long	0x59c3
	.uleb128 0x4
	.long	.LASF128
	.long	0x59aa
	.uleb128 0xa
	.string	"_Tp"
	.long	0x446c
	.uleb128 0x1
	.long	0x59c3
	.uleb128 0x1
	.long	0x59c3
	.uleb128 0x1
	.long	0x59aa
	.uleb128 0x1
	.long	0x59e1
	.byte	0
	.uleb128 0x1e
	.long	.LASF593
	.byte	0xc
	.byte	0x63
	.byte	0x5
	.long	.LASF594
	.long	0x3709
	.long	0x3d30
	.uleb128 0x4
	.long	.LASF595
	.long	0x59c3
	.uleb128 0x1
	.long	0x59c3
	.uleb128 0x1
	.long	0x59c3
	.uleb128 0x1
	.long	0xb9e
	.byte	0
	.uleb128 0x1e
	.long	.LASF596
	.byte	0x10
	.byte	0xee
	.byte	0x5
	.long	.LASF597
	.long	0x36fd
	.long	0x3d53
	.uleb128 0x4
	.long	.LASF560
	.long	0x59c3
	.uleb128 0x1
	.long	0x6f2b
	.byte	0
	.uleb128 0x37
	.long	.LASF598
	.byte	0xf
	.byte	0xb6
	.byte	0x5
	.long	.LASF599
	.long	0x3d77
	.uleb128 0x4
	.long	.LASF128
	.long	0x59aa
	.uleb128 0x1
	.long	0x59aa
	.uleb128 0x1
	.long	0x59aa
	.byte	0
	.uleb128 0x37
	.long	.LASF600
	.byte	0xf
	.byte	0xb6
	.byte	0x5
	.long	.LASF601
	.long	0x3d9b
	.uleb128 0x4
	.long	.LASF128
	.long	0x5c34
	.uleb128 0x1
	.long	0x5c34
	.uleb128 0x1
	.long	0x5c34
	.byte	0
	.uleb128 0x1e
	.long	.LASF602
	.byte	0xc
	.byte	0x93
	.byte	0x5
	.long	.LASF603
	.long	0x3709
	.long	0x3dc3
	.uleb128 0x4
	.long	.LASF144
	.long	0x59c3
	.uleb128 0x1
	.long	0x59c3
	.uleb128 0x1
	.long	0x59c3
	.byte	0
	.uleb128 0x36
	.long	.LASF604
	.byte	0x9
	.value	0x34f
	.byte	0x5
	.long	.LASF605
	.long	0x3df6
	.uleb128 0x4
	.long	.LASF128
	.long	0x59aa
	.uleb128 0xa
	.string	"_Tp"
	.long	0x446c
	.uleb128 0x1
	.long	0x59aa
	.uleb128 0x1
	.long	0x59aa
	.uleb128 0x1
	.long	0x59e1
	.byte	0
	.uleb128 0x36
	.long	.LASF606
	.byte	0x9
	.value	0x34f
	.byte	0x5
	.long	.LASF607
	.long	0x3e29
	.uleb128 0x4
	.long	.LASF128
	.long	0x5c34
	.uleb128 0xa
	.string	"_Tp"
	.long	0x3f
	.uleb128 0x1
	.long	0x5c34
	.uleb128 0x1
	.long	0x5c34
	.uleb128 0x1
	.long	0x5c66
	.byte	0
	.uleb128 0xe
	.long	.LASF608
	.byte	0x8
	.value	0xec5
	.byte	0x5
	.long	.LASF609
	.long	0x7c65
	.long	0x3e60
	.uleb128 0x4
	.long	.LASF610
	.long	0x485f
	.uleb128 0x4
	.long	.LASF611
	.long	0x7c65
	.uleb128 0x1
	.long	0x485f
	.uleb128 0x1
	.long	0x485f
	.uleb128 0x1
	.long	0x7c65
	.byte	0
	.uleb128 0xe
	.long	.LASF612
	.byte	0x29
	.value	0x20b
	.byte	0x5
	.long	.LASF613
	.long	0x582b
	.long	0x3e89
	.uleb128 0x4
	.long	.LASF370
	.long	0x873
	.uleb128 0x1
	.long	0x582b
	.uleb128 0x1
	.long	0x10c
	.byte	0
	.uleb128 0x63
	.long	.LASF614
	.byte	0x2
	.value	0x3f1
	.byte	0x3
	.long	.LASF615
	.long	0x5e
	.uleb128 0x1
	.long	0x5e
	.byte	0
	.byte	0
	.uleb128 0xb
	.long	.LASF616
	.byte	0x2d
	.value	0x11d
	.byte	0xf
	.long	0xa8
	.long	0x3eb8
	.uleb128 0x1
	.long	0x118
	.byte	0
	.uleb128 0xb
	.long	.LASF617
	.byte	0x2d
	.value	0x2e8
	.byte	0xf
	.long	0xa8
	.long	0x3ecf
	.uleb128 0x1
	.long	0x3ecf
	.byte	0
	.uleb128 0x9
	.long	0x141
	.uleb128 0xb
	.long	.LASF618
	.byte	0x2d
	.value	0x305
	.byte	0x11
	.long	0x3ef5
	.long	0x3ef5
	.uleb128 0x1
	.long	0x3ef5
	.uleb128 0x1
	.long	0x118
	.uleb128 0x1
	.long	0x3ecf
	.byte	0
	.uleb128 0x9
	.long	0x3efa
	.uleb128 0x1f
	.byte	0x4
	.byte	0x5
	.long	.LASF619
	.uleb128 0x6
	.long	0x3efa
	.uleb128 0xb
	.long	.LASF620
	.byte	0x2d
	.value	0x2f6
	.byte	0xf
	.long	0xa8
	.long	0x3f22
	.uleb128 0x1
	.long	0x3efa
	.uleb128 0x1
	.long	0x3ecf
	.byte	0
	.uleb128 0xb
	.long	.LASF621
	.byte	0x2d
	.value	0x30c
	.byte	0xc
	.long	0x118
	.long	0x3f3e
	.uleb128 0x1
	.long	0x3f3e
	.uleb128 0x1
	.long	0x3ecf
	.byte	0
	.uleb128 0x9
	.long	0x3f01
	.uleb128 0xb
	.long	.LASF622
	.byte	0x2d
	.value	0x24c
	.byte	0xc
	.long	0x118
	.long	0x3f5f
	.uleb128 0x1
	.long	0x3ecf
	.uleb128 0x1
	.long	0x118
	.byte	0
	.uleb128 0xb
	.long	.LASF623
	.byte	0x2d
	.value	0x253
	.byte	0xc
	.long	0x118
	.long	0x3f7c
	.uleb128 0x1
	.long	0x3ecf
	.uleb128 0x1
	.long	0x3f3e
	.uleb128 0x39
	.byte	0
	.uleb128 0xe
	.long	.LASF624
	.byte	0x2d
	.value	0x291
	.byte	0xc
	.long	.LASF625
	.long	0x118
	.long	0x3f9d
	.uleb128 0x1
	.long	0x3ecf
	.uleb128 0x1
	.long	0x3f3e
	.uleb128 0x39
	.byte	0
	.uleb128 0xb
	.long	.LASF626
	.byte	0x2d
	.value	0x2e9
	.byte	0xf
	.long	0xa8
	.long	0x3fb4
	.uleb128 0x1
	.long	0x3ecf
	.byte	0
	.uleb128 0x4a
	.long	.LASF835
	.byte	0x2d
	.value	0x2ef
	.byte	0xf
	.long	0xa8
	.uleb128 0xb
	.long	.LASF627
	.byte	0x2d
	.value	0x134
	.byte	0xf
	.long	0x52
	.long	0x3fe2
	.uleb128 0x1
	.long	0x2e7
	.uleb128 0x1
	.long	0x52
	.uleb128 0x1
	.long	0x3fe2
	.byte	0
	.uleb128 0x9
	.long	0x130
	.uleb128 0xb
	.long	.LASF628
	.byte	0x2d
	.value	0x129
	.byte	0xf
	.long	0x52
	.long	0x400d
	.uleb128 0x1
	.long	0x3ef5
	.uleb128 0x1
	.long	0x2e7
	.uleb128 0x1
	.long	0x52
	.uleb128 0x1
	.long	0x3fe2
	.byte	0
	.uleb128 0xb
	.long	.LASF629
	.byte	0x2d
	.value	0x125
	.byte	0xc
	.long	0x118
	.long	0x4024
	.uleb128 0x1
	.long	0x4024
	.byte	0
	.uleb128 0x9
	.long	0x13c
	.uleb128 0xb
	.long	.LASF630
	.byte	0x2d
	.value	0x152
	.byte	0xf
	.long	0x52
	.long	0x404f
	.uleb128 0x1
	.long	0x3ef5
	.uleb128 0x1
	.long	0x404f
	.uleb128 0x1
	.long	0x52
	.uleb128 0x1
	.long	0x3fe2
	.byte	0
	.uleb128 0x9
	.long	0x2e7
	.uleb128 0xb
	.long	.LASF631
	.byte	0x2d
	.value	0x2f7
	.byte	0xf
	.long	0xa8
	.long	0x4070
	.uleb128 0x1
	.long	0x3efa
	.uleb128 0x1
	.long	0x3ecf
	.byte	0
	.uleb128 0xb
	.long	.LASF632
	.byte	0x2d
	.value	0x2fd
	.byte	0xf
	.long	0xa8
	.long	0x4087
	.uleb128 0x1
	.long	0x3efa
	.byte	0
	.uleb128 0xb
	.long	.LASF633
	.byte	0x2d
	.value	0x25d
	.byte	0xc
	.long	0x118
	.long	0x40a9
	.uleb128 0x1
	.long	0x3ef5
	.uleb128 0x1
	.long	0x52
	.uleb128 0x1
	.long	0x3f3e
	.uleb128 0x39
	.byte	0
	.uleb128 0xe
	.long	.LASF634
	.byte	0x2d
	.value	0x298
	.byte	0xc
	.long	.LASF635
	.long	0x118
	.long	0x40ca
	.uleb128 0x1
	.long	0x3f3e
	.uleb128 0x1
	.long	0x3f3e
	.uleb128 0x39
	.byte	0
	.uleb128 0xb
	.long	.LASF636
	.byte	0x2d
	.value	0x314
	.byte	0xf
	.long	0xa8
	.long	0x40e6
	.uleb128 0x1
	.long	0xa8
	.uleb128 0x1
	.long	0x3ecf
	.byte	0
	.uleb128 0xb
	.long	.LASF637
	.byte	0x2d
	.value	0x265
	.byte	0xc
	.long	0x118
	.long	0x4107
	.uleb128 0x1
	.long	0x3ecf
	.uleb128 0x1
	.long	0x3f3e
	.uleb128 0x1
	.long	0x4107
	.byte	0
	.uleb128 0x9
	.long	0x6a
	.uleb128 0xe
	.long	.LASF638
	.byte	0x2d
	.value	0x2c7
	.byte	0xc
	.long	.LASF639
	.long	0x118
	.long	0x4131
	.uleb128 0x1
	.long	0x3ecf
	.uleb128 0x1
	.long	0x3f3e
	.uleb128 0x1
	.long	0x4107
	.byte	0
	.uleb128 0xb
	.long	.LASF640
	.byte	0x2d
	.value	0x272
	.byte	0xc
	.long	0x118
	.long	0x4157
	.uleb128 0x1
	.long	0x3ef5
	.uleb128 0x1
	.long	0x52
	.uleb128 0x1
	.long	0x3f3e
	.uleb128 0x1
	.long	0x4107
	.byte	0
	.uleb128 0xe
	.long	.LASF641
	.byte	0x2d
	.value	0x2ce
	.byte	0xc
	.long	.LASF642
	.long	0x118
	.long	0x417c
	.uleb128 0x1
	.long	0x3f3e
	.uleb128 0x1
	.long	0x3f3e
	.uleb128 0x1
	.long	0x4107
	.byte	0
	.uleb128 0xb
	.long	.LASF643
	.byte	0x2d
	.value	0x26d
	.byte	0xc
	.long	0x118
	.long	0x4198
	.uleb128 0x1
	.long	0x3f3e
	.uleb128 0x1
	.long	0x4107
	.byte	0
	.uleb128 0xe
	.long	.LASF644
	.byte	0x2d
	.value	0x2cb
	.byte	0xc
	.long	.LASF645
	.long	0x118
	.long	0x41b8
	.uleb128 0x1
	.long	0x3f3e
	.uleb128 0x1
	.long	0x4107
	.byte	0
	.uleb128 0xb
	.long	.LASF646
	.byte	0x2d
	.value	0x12e
	.byte	0xf
	.long	0x52
	.long	0x41d9
	.uleb128 0x1
	.long	0x41d9
	.uleb128 0x1
	.long	0x3efa
	.uleb128 0x1
	.long	0x3fe2
	.byte	0
	.uleb128 0x9
	.long	0x10c
	.uleb128 0x13
	.long	.LASF647
	.byte	0x2d
	.byte	0x61
	.byte	0x11
	.long	0x3ef5
	.long	0x41f9
	.uleb128 0x1
	.long	0x3ef5
	.uleb128 0x1
	.long	0x3f3e
	.byte	0
	.uleb128 0x13
	.long	.LASF648
	.byte	0x2d
	.byte	0x6a
	.byte	0xc
	.long	0x118
	.long	0x4214
	.uleb128 0x1
	.long	0x3f3e
	.uleb128 0x1
	.long	0x3f3e
	.byte	0
	.uleb128 0x13
	.long	.LASF649
	.byte	0x2d
	.byte	0x83
	.byte	0xc
	.long	0x118
	.long	0x422f
	.uleb128 0x1
	.long	0x3f3e
	.uleb128 0x1
	.long	0x3f3e
	.byte	0
	.uleb128 0x13
	.long	.LASF650
	.byte	0x2d
	.byte	0x57
	.byte	0x11
	.long	0x3ef5
	.long	0x424a
	.uleb128 0x1
	.long	0x3ef5
	.uleb128 0x1
	.long	0x3f3e
	.byte	0
	.uleb128 0x13
	.long	.LASF651
	.byte	0x2d
	.byte	0xbc
	.byte	0xf
	.long	0x52
	.long	0x4265
	.uleb128 0x1
	.long	0x3f3e
	.uleb128 0x1
	.long	0x3f3e
	.byte	0
	.uleb128 0xb
	.long	.LASF652
	.byte	0x2d
	.value	0x354
	.byte	0xf
	.long	0x52
	.long	0x428b
	.uleb128 0x1
	.long	0x3ef5
	.uleb128 0x1
	.long	0x52
	.uleb128 0x1
	.long	0x3f3e
	.uleb128 0x1
	.long	0x428b
	.byte	0
	.uleb128 0x9
	.long	0x432d
	.uleb128 0x85
	.string	"tm"
	.byte	0x38
	.byte	0x2e
	.byte	0x7
	.byte	0x8
	.long	0x432d
	.uleb128 0x7
	.long	.LASF653
	.byte	0x2e
	.byte	0x9
	.byte	0x7
	.long	0x118
	.byte	0
	.uleb128 0x7
	.long	.LASF654
	.byte	0x2e
	.byte	0xa
	.byte	0x7
	.long	0x118
	.byte	0x4
	.uleb128 0x7
	.long	.LASF655
	.byte	0x2e
	.byte	0xb
	.byte	0x7
	.long	0x118
	.byte	0x8
	.uleb128 0x7
	.long	.LASF656
	.byte	0x2e
	.byte	0xc
	.byte	0x7
	.long	0x118
	.byte	0xc
	.uleb128 0x7
	.long	.LASF657
	.byte	0x2e
	.byte	0xd
	.byte	0x7
	.long	0x118
	.byte	0x10
	.uleb128 0x7
	.long	.LASF658
	.byte	0x2e
	.byte	0xe
	.byte	0x7
	.long	0x118
	.byte	0x14
	.uleb128 0x7
	.long	.LASF659
	.byte	0x2e
	.byte	0xf
	.byte	0x7
	.long	0x118
	.byte	0x18
	.uleb128 0x7
	.long	.LASF660
	.byte	0x2e
	.byte	0x10
	.byte	0x7
	.long	0x118
	.byte	0x1c
	.uleb128 0x7
	.long	.LASF661
	.byte	0x2e
	.byte	0x11
	.byte	0x7
	.long	0x118
	.byte	0x20
	.uleb128 0x7
	.long	.LASF662
	.byte	0x2e
	.byte	0x14
	.byte	0xc
	.long	0x446c
	.byte	0x28
	.uleb128 0x7
	.long	.LASF663
	.byte	0x2e
	.byte	0x15
	.byte	0xf
	.long	0x2e7
	.byte	0x30
	.byte	0
	.uleb128 0x6
	.long	0x4290
	.uleb128 0x13
	.long	.LASF664
	.byte	0x2d
	.byte	0xdf
	.byte	0xf
	.long	0x52
	.long	0x4348
	.uleb128 0x1
	.long	0x3f3e
	.byte	0
	.uleb128 0x13
	.long	.LASF665
	.byte	0x2d
	.byte	0x65
	.byte	0x11
	.long	0x3ef5
	.long	0x4368
	.uleb128 0x1
	.long	0x3ef5
	.uleb128 0x1
	.long	0x3f3e
	.uleb128 0x1
	.long	0x52
	.byte	0
	.uleb128 0x13
	.long	.LASF666
	.byte	0x2d
	.byte	0x6d
	.byte	0xc
	.long	0x118
	.long	0x4388
	.uleb128 0x1
	.long	0x3f3e
	.uleb128 0x1
	.long	0x3f3e
	.uleb128 0x1
	.long	0x52
	.byte	0
	.uleb128 0x13
	.long	.LASF667
	.byte	0x2d
	.byte	0x5c
	.byte	0x11
	.long	0x3ef5
	.long	0x43a8
	.uleb128 0x1
	.long	0x3ef5
	.uleb128 0x1
	.long	0x3f3e
	.uleb128 0x1
	.long	0x52
	.byte	0
	.uleb128 0xb
	.long	.LASF668
	.byte	0x2d
	.value	0x158
	.byte	0xf
	.long	0x52
	.long	0x43ce
	.uleb128 0x1
	.long	0x41d9
	.uleb128 0x1
	.long	0x43ce
	.uleb128 0x1
	.long	0x52
	.uleb128 0x1
	.long	0x3fe2
	.byte	0
	.uleb128 0x9
	.long	0x3f3e
	.uleb128 0x13
	.long	.LASF669
	.byte	0x2d
	.byte	0xc0
	.byte	0xf
	.long	0x52
	.long	0x43ee
	.uleb128 0x1
	.long	0x3f3e
	.uleb128 0x1
	.long	0x3f3e
	.byte	0
	.uleb128 0xb
	.long	.LASF670
	.byte	0x2d
	.value	0x17a
	.byte	0xf
	.long	0x3f
	.long	0x440a
	.uleb128 0x1
	.long	0x3f3e
	.uleb128 0x1
	.long	0x440a
	.byte	0
	.uleb128 0x9
	.long	0x3ef5
	.uleb128 0xb
	.long	.LASF671
	.byte	0x2d
	.value	0x17f
	.byte	0xe
	.long	0x38
	.long	0x442b
	.uleb128 0x1
	.long	0x3f3e
	.uleb128 0x1
	.long	0x440a
	.byte	0
	.uleb128 0x13
	.long	.LASF672
	.byte	0x2d
	.byte	0xda
	.byte	0x11
	.long	0x3ef5
	.long	0x444b
	.uleb128 0x1
	.long	0x3ef5
	.uleb128 0x1
	.long	0x3f3e
	.uleb128 0x1
	.long	0x440a
	.byte	0
	.uleb128 0xb
	.long	.LASF673
	.byte	0x2d
	.value	0x1ad
	.byte	0x11
	.long	0x446c
	.long	0x446c
	.uleb128 0x1
	.long	0x3f3e
	.uleb128 0x1
	.long	0x440a
	.uleb128 0x1
	.long	0x118
	.byte	0
	.uleb128 0x1f
	.byte	0x8
	.byte	0x5
	.long	.LASF674
	.uleb128 0x6
	.long	0x446c
	.uleb128 0xb
	.long	.LASF675
	.byte	0x2d
	.value	0x1b2
	.byte	0x1a
	.long	0x5e
	.long	0x4499
	.uleb128 0x1
	.long	0x3f3e
	.uleb128 0x1
	.long	0x440a
	.uleb128 0x1
	.long	0x118
	.byte	0
	.uleb128 0x13
	.long	.LASF676
	.byte	0x2d
	.byte	0x87
	.byte	0xf
	.long	0x52
	.long	0x44b9
	.uleb128 0x1
	.long	0x3ef5
	.uleb128 0x1
	.long	0x3f3e
	.uleb128 0x1
	.long	0x52
	.byte	0
	.uleb128 0xb
	.long	.LASF677
	.byte	0x2d
	.value	0x121
	.byte	0xc
	.long	0x118
	.long	0x44d0
	.uleb128 0x1
	.long	0xa8
	.byte	0
	.uleb128 0xb
	.long	.LASF678
	.byte	0x2d
	.value	0x103
	.byte	0xc
	.long	0x118
	.long	0x44f1
	.uleb128 0x1
	.long	0x3f3e
	.uleb128 0x1
	.long	0x3f3e
	.uleb128 0x1
	.long	0x52
	.byte	0
	.uleb128 0xb
	.long	.LASF679
	.byte	0x2d
	.value	0x107
	.byte	0x11
	.long	0x3ef5
	.long	0x4512
	.uleb128 0x1
	.long	0x3ef5
	.uleb128 0x1
	.long	0x3f3e
	.uleb128 0x1
	.long	0x52
	.byte	0
	.uleb128 0xb
	.long	.LASF680
	.byte	0x2d
	.value	0x10c
	.byte	0x11
	.long	0x3ef5
	.long	0x4533
	.uleb128 0x1
	.long	0x3ef5
	.uleb128 0x1
	.long	0x3f3e
	.uleb128 0x1
	.long	0x52
	.byte	0
	.uleb128 0xb
	.long	.LASF681
	.byte	0x2d
	.value	0x110
	.byte	0x11
	.long	0x3ef5
	.long	0x4554
	.uleb128 0x1
	.long	0x3ef5
	.uleb128 0x1
	.long	0x3efa
	.uleb128 0x1
	.long	0x52
	.byte	0
	.uleb128 0xb
	.long	.LASF682
	.byte	0x2d
	.value	0x25a
	.byte	0xc
	.long	0x118
	.long	0x456c
	.uleb128 0x1
	.long	0x3f3e
	.uleb128 0x39
	.byte	0
	.uleb128 0xe
	.long	.LASF683
	.byte	0x2d
	.value	0x295
	.byte	0xc
	.long	.LASF684
	.long	0x118
	.long	0x4588
	.uleb128 0x1
	.long	0x3f3e
	.uleb128 0x39
	.byte	0
	.uleb128 0x1e
	.long	.LASF685
	.byte	0x2d
	.byte	0xa2
	.byte	0x1d
	.long	.LASF685
	.long	0x3f3e
	.long	0x45a7
	.uleb128 0x1
	.long	0x3f3e
	.uleb128 0x1
	.long	0x3efa
	.byte	0
	.uleb128 0x1e
	.long	.LASF685
	.byte	0x2d
	.byte	0xa0
	.byte	0x17
	.long	.LASF685
	.long	0x3ef5
	.long	0x45c6
	.uleb128 0x1
	.long	0x3ef5
	.uleb128 0x1
	.long	0x3efa
	.byte	0
	.uleb128 0x1e
	.long	.LASF686
	.byte	0x2d
	.byte	0xc6
	.byte	0x1d
	.long	.LASF686
	.long	0x3f3e
	.long	0x45e5
	.uleb128 0x1
	.long	0x3f3e
	.uleb128 0x1
	.long	0x3f3e
	.byte	0
	.uleb128 0x1e
	.long	.LASF686
	.byte	0x2d
	.byte	0xc4
	.byte	0x17
	.long	.LASF686
	.long	0x3ef5
	.long	0x4604
	.uleb128 0x1
	.long	0x3ef5
	.uleb128 0x1
	.long	0x3f3e
	.byte	0
	.uleb128 0x1e
	.long	.LASF687
	.byte	0x2d
	.byte	0xac
	.byte	0x1d
	.long	.LASF687
	.long	0x3f3e
	.long	0x4623
	.uleb128 0x1
	.long	0x3f3e
	.uleb128 0x1
	.long	0x3efa
	.byte	0
	.uleb128 0x1e
	.long	.LASF687
	.byte	0x2d
	.byte	0xaa
	.byte	0x17
	.long	.LASF687
	.long	0x3ef5
	.long	0x4642
	.uleb128 0x1
	.long	0x3ef5
	.uleb128 0x1
	.long	0x3efa
	.byte	0
	.uleb128 0x1e
	.long	.LASF688
	.byte	0x2d
	.byte	0xd1
	.byte	0x1d
	.long	.LASF688
	.long	0x3f3e
	.long	0x4661
	.uleb128 0x1
	.long	0x3f3e
	.uleb128 0x1
	.long	0x3f3e
	.byte	0
	.uleb128 0x1e
	.long	.LASF688
	.byte	0x2d
	.byte	0xcf
	.byte	0x17
	.long	.LASF688
	.long	0x3ef5
	.long	0x4680
	.uleb128 0x1
	.long	0x3ef5
	.uleb128 0x1
	.long	0x3f3e
	.byte	0
	.uleb128 0x1e
	.long	.LASF689
	.byte	0x2d
	.byte	0xfa
	.byte	0x1d
	.long	.LASF689
	.long	0x3f3e
	.long	0x46a4
	.uleb128 0x1
	.long	0x3f3e
	.uleb128 0x1
	.long	0x3efa
	.uleb128 0x1
	.long	0x52
	.byte	0
	.uleb128 0x1e
	.long	.LASF689
	.byte	0x2d
	.byte	0xf8
	.byte	0x17
	.long	.LASF689
	.long	0x3ef5
	.long	0x46c8
	.uleb128 0x1
	.long	0x3ef5
	.uleb128 0x1
	.long	0x3efa
	.uleb128 0x1
	.long	0x52
	.byte	0
	.uleb128 0x86
	.long	.LASF690
	.byte	0x1e
	.value	0x14d
	.byte	0xb
	.long	0x4be6
	.uleb128 0x3
	.byte	0x1d
	.byte	0xfb
	.byte	0xb
	.long	0x4be6
	.uleb128 0x18
	.byte	0x1d
	.value	0x104
	.byte	0xb
	.long	0x4c02
	.uleb128 0x18
	.byte	0x1d
	.value	0x105
	.byte	0xb
	.long	0x4c2a
	.uleb128 0x58
	.long	.LASF691
	.byte	0x2f
	.byte	0x25
	.byte	0xb
	.uleb128 0x3
	.byte	0x25
	.byte	0xc8
	.byte	0xb
	.long	0x5145
	.uleb128 0x3
	.byte	0x25
	.byte	0xd8
	.byte	0xb
	.long	0x53e0
	.uleb128 0x3
	.byte	0x25
	.byte	0xe3
	.byte	0xb
	.long	0x53fc
	.uleb128 0x3
	.byte	0x25
	.byte	0xe4
	.byte	0xb
	.long	0x5412
	.uleb128 0x3
	.byte	0x25
	.byte	0xe5
	.byte	0xb
	.long	0x5432
	.uleb128 0x3
	.byte	0x25
	.byte	0xe7
	.byte	0xb
	.long	0x5452
	.uleb128 0x3
	.byte	0x25
	.byte	0xe8
	.byte	0xb
	.long	0x546d
	.uleb128 0x87
	.string	"div"
	.byte	0x25
	.byte	0xd5
	.byte	0x3
	.long	.LASF1053
	.long	0x5145
	.long	0x4750
	.uleb128 0x1
	.long	0x4c23
	.uleb128 0x1
	.long	0x4c23
	.byte	0
	.uleb128 0x16
	.long	.LASF692
	.byte	0x1
	.byte	0x30
	.byte	0x30
	.byte	0xa
	.long	0x485f
	.uleb128 0x3
	.byte	0x30
	.byte	0x30
	.byte	0xa
	.long	0x1236
	.uleb128 0x3
	.byte	0x30
	.byte	0x30
	.byte	0xa
	.long	0x11f7
	.uleb128 0x3
	.byte	0x30
	.byte	0x30
	.byte	0xa
	.long	0x1268
	.uleb128 0x3
	.byte	0x30
	.byte	0x30
	.byte	0xa
	.long	0x1289
	.uleb128 0x31
	.long	0x11de
	.uleb128 0x1e
	.long	.LASF693
	.byte	0x30
	.byte	0x61
	.byte	0x1d
	.long	.LASF694
	.long	0x1152
	.long	0x479c
	.uleb128 0x1
	.long	0x59dc
	.byte	0
	.uleb128 0x37
	.long	.LASF695
	.byte	0x30
	.byte	0x64
	.byte	0x26
	.long	.LASF696
	.long	0x47b7
	.uleb128 0x1
	.long	0x59e1
	.uleb128 0x1
	.long	0x59e1
	.byte	0
	.uleb128 0x2f
	.long	.LASF697
	.byte	0x67
	.long	.LASF698
	.long	0x4c58
	.uleb128 0x2f
	.long	.LASF699
	.byte	0x6a
	.long	.LASF700
	.long	0x4c58
	.uleb128 0x2f
	.long	.LASF701
	.byte	0x6d
	.long	.LASF702
	.long	0x4c58
	.uleb128 0x2f
	.long	.LASF703
	.byte	0x70
	.long	.LASF704
	.long	0x4c58
	.uleb128 0x2f
	.long	.LASF705
	.byte	0x73
	.long	.LASF706
	.long	0x4c58
	.uleb128 0x5
	.long	.LASF56
	.byte	0x30
	.byte	0x38
	.byte	0x35
	.long	0x12bf
	.uleb128 0x6
	.long	0x47fd
	.uleb128 0x5
	.long	.LASF158
	.byte	0x30
	.byte	0x39
	.byte	0x35
	.long	0x11ea
	.uleb128 0x5
	.long	.LASF161
	.byte	0x30
	.byte	0x3e
	.byte	0x35
	.long	0x59f0
	.uleb128 0x5
	.long	.LASF164
	.byte	0x30
	.byte	0x3f
	.byte	0x35
	.long	0x59f5
	.uleb128 0x16
	.long	.LASF707
	.byte	0x1
	.byte	0x30
	.byte	0x77
	.byte	0xe
	.long	0x4855
	.uleb128 0x5
	.long	.LASF708
	.byte	0x30
	.byte	0x78
	.byte	0x41
	.long	0x12cc
	.uleb128 0xa
	.string	"_Tp"
	.long	0x446c
	.byte	0
	.uleb128 0x4
	.long	.LASF236
	.long	0x1152
	.byte	0
	.uleb128 0x49
	.long	.LASF709
	.byte	0x8
	.byte	0xd
	.value	0x413
	.long	0x4a94
	.uleb128 0x88
	.long	.LASF1054
	.byte	0xd
	.value	0x416
	.byte	0x11
	.long	0x59aa
	.byte	0
	.byte	0x2
	.uleb128 0xf
	.long	.LASF710
	.byte	0xd
	.value	0x42c
	.byte	0x1a
	.long	.LASF711
	.byte	0x1
	.long	0x4892
	.long	0x4898
	.uleb128 0x2
	.long	0x5d38
	.byte	0
	.uleb128 0x3c
	.long	.LASF710
	.byte	0xd
	.value	0x430
	.long	.LASF712
	.long	0x48ac
	.long	0x48b7
	.uleb128 0x2
	.long	0x5d38
	.uleb128 0x1
	.long	0x5d42
	.byte	0
	.uleb128 0x1c
	.long	.LASF161
	.byte	0xd
	.value	0x425
	.byte	0x32
	.long	0x36e3
	.uleb128 0x8
	.long	.LASF713
	.byte	0xd
	.value	0x447
	.byte	0x7
	.long	.LASF714
	.long	0x48b7
	.byte	0x1
	.long	0x48de
	.long	0x48e4
	.uleb128 0x2
	.long	0x5d47
	.byte	0
	.uleb128 0x1c
	.long	.LASF158
	.byte	0xd
	.value	0x426
	.byte	0x32
	.long	0x36d7
	.uleb128 0x8
	.long	.LASF715
	.byte	0xd
	.value	0x44c
	.byte	0x7
	.long	.LASF716
	.long	0x48e4
	.byte	0x1
	.long	0x490b
	.long	0x4911
	.uleb128 0x2
	.long	0x5d47
	.byte	0
	.uleb128 0x8
	.long	.LASF717
	.byte	0xd
	.value	0x451
	.byte	0x7
	.long	.LASF718
	.long	0x5d51
	.byte	0x1
	.long	0x492b
	.long	0x4931
	.uleb128 0x2
	.long	0x5d38
	.byte	0
	.uleb128 0x8
	.long	.LASF717
	.byte	0xd
	.value	0x459
	.byte	0x7
	.long	.LASF719
	.long	0x485f
	.byte	0x1
	.long	0x494b
	.long	0x4956
	.uleb128 0x2
	.long	0x5d38
	.uleb128 0x1
	.long	0x118
	.byte	0
	.uleb128 0x8
	.long	.LASF720
	.byte	0xd
	.value	0x45f
	.byte	0x7
	.long	.LASF721
	.long	0x5d51
	.byte	0x1
	.long	0x4970
	.long	0x4976
	.uleb128 0x2
	.long	0x5d38
	.byte	0
	.uleb128 0x8
	.long	.LASF720
	.byte	0xd
	.value	0x467
	.byte	0x7
	.long	.LASF722
	.long	0x485f
	.byte	0x1
	.long	0x4990
	.long	0x499b
	.uleb128 0x2
	.long	0x5d38
	.uleb128 0x1
	.long	0x118
	.byte	0
	.uleb128 0x8
	.long	.LASF306
	.byte	0xd
	.value	0x46d
	.byte	0x7
	.long	.LASF723
	.long	0x48b7
	.byte	0x1
	.long	0x49b5
	.long	0x49c0
	.uleb128 0x2
	.long	0x5d47
	.uleb128 0x1
	.long	0x49c0
	.byte	0
	.uleb128 0x1c
	.long	.LASF520
	.byte	0xd
	.value	0x424
	.byte	0x38
	.long	0x36cb
	.uleb128 0x8
	.long	.LASF724
	.byte	0xd
	.value	0x472
	.byte	0x7
	.long	.LASF725
	.long	0x5d51
	.byte	0x1
	.long	0x49e7
	.long	0x49f2
	.uleb128 0x2
	.long	0x5d38
	.uleb128 0x1
	.long	0x49c0
	.byte	0
	.uleb128 0x8
	.long	.LASF726
	.byte	0xd
	.value	0x477
	.byte	0x7
	.long	.LASF727
	.long	0x485f
	.byte	0x1
	.long	0x4a0c
	.long	0x4a17
	.uleb128 0x2
	.long	0x5d47
	.uleb128 0x1
	.long	0x49c0
	.byte	0
	.uleb128 0x8
	.long	.LASF728
	.byte	0xd
	.value	0x47c
	.byte	0x7
	.long	.LASF729
	.long	0x5d51
	.byte	0x1
	.long	0x4a31
	.long	0x4a3c
	.uleb128 0x2
	.long	0x5d38
	.uleb128 0x1
	.long	0x49c0
	.byte	0
	.uleb128 0x8
	.long	.LASF730
	.byte	0xd
	.value	0x481
	.byte	0x7
	.long	.LASF731
	.long	0x485f
	.byte	0x1
	.long	0x4a56
	.long	0x4a61
	.uleb128 0x2
	.long	0x5d47
	.uleb128 0x1
	.long	0x49c0
	.byte	0
	.uleb128 0x8
	.long	.LASF732
	.byte	0xd
	.value	0x486
	.byte	0x7
	.long	.LASF733
	.long	0x5d42
	.byte	0x1
	.long	0x4a7b
	.long	0x4a81
	.uleb128 0x2
	.long	0x5d47
	.byte	0
	.uleb128 0x4
	.long	.LASF548
	.long	0x59aa
	.uleb128 0x4
	.long	.LASF734
	.long	0x16a5
	.byte	0
	.uleb128 0x6
	.long	0x485f
	.uleb128 0x30
	.long	.LASF735
	.uleb128 0x16
	.long	.LASF736
	.byte	0x1
	.byte	0x30
	.byte	0x30
	.byte	0xa
	.long	0x4bad
	.uleb128 0x3
	.byte	0x30
	.byte	0x30
	.byte	0xa
	.long	0x263f
	.uleb128 0x3
	.byte	0x30
	.byte	0x30
	.byte	0xa
	.long	0x2600
	.uleb128 0x3
	.byte	0x30
	.byte	0x30
	.byte	0xa
	.long	0x2671
	.uleb128 0x3
	.byte	0x30
	.byte	0x30
	.byte	0xa
	.long	0x2692
	.uleb128 0x31
	.long	0x25e7
	.uleb128 0x1e
	.long	.LASF693
	.byte	0x30
	.byte	0x61
	.byte	0x1d
	.long	.LASF737
	.long	0x255b
	.long	0x4aea
	.uleb128 0x1
	.long	0x5c61
	.byte	0
	.uleb128 0x37
	.long	.LASF695
	.byte	0x30
	.byte	0x64
	.byte	0x26
	.long	.LASF738
	.long	0x4b05
	.uleb128 0x1
	.long	0x5c66
	.uleb128 0x1
	.long	0x5c66
	.byte	0
	.uleb128 0x2f
	.long	.LASF697
	.byte	0x67
	.long	.LASF739
	.long	0x4c58
	.uleb128 0x2f
	.long	.LASF699
	.byte	0x6a
	.long	.LASF740
	.long	0x4c58
	.uleb128 0x2f
	.long	.LASF701
	.byte	0x6d
	.long	.LASF741
	.long	0x4c58
	.uleb128 0x2f
	.long	.LASF703
	.byte	0x70
	.long	.LASF742
	.long	0x4c58
	.uleb128 0x2f
	.long	.LASF705
	.byte	0x73
	.long	.LASF743
	.long	0x4c58
	.uleb128 0x5
	.long	.LASF56
	.byte	0x30
	.byte	0x38
	.byte	0x35
	.long	0x26c8
	.uleb128 0x6
	.long	0x4b4b
	.uleb128 0x5
	.long	.LASF158
	.byte	0x30
	.byte	0x39
	.byte	0x35
	.long	0x25f3
	.uleb128 0x5
	.long	.LASF161
	.byte	0x30
	.byte	0x3e
	.byte	0x35
	.long	0x5c75
	.uleb128 0x5
	.long	.LASF164
	.byte	0x30
	.byte	0x3f
	.byte	0x35
	.long	0x5c7a
	.uleb128 0x16
	.long	.LASF744
	.byte	0x1
	.byte	0x30
	.byte	0x77
	.byte	0xe
	.long	0x4ba3
	.uleb128 0x5
	.long	.LASF708
	.byte	0x30
	.byte	0x78
	.byte	0x41
	.long	0x26d5
	.uleb128 0xa
	.string	"_Tp"
	.long	0x3f
	.byte	0
	.uleb128 0x4
	.long	.LASF236
	.long	0x255b
	.byte	0
	.uleb128 0x30
	.long	.LASF745
	.uleb128 0x30
	.long	.LASF746
	.uleb128 0x63
	.long	.LASF747
	.byte	0xd
	.value	0x4d5
	.byte	0x5
	.long	.LASF748
	.long	0x4c58
	.uleb128 0x4
	.long	.LASF548
	.long	0x59aa
	.uleb128 0x4
	.long	.LASF734
	.long	0x16a5
	.uleb128 0x1
	.long	0x7280
	.uleb128 0x1
	.long	0x7280
	.byte	0
	.byte	0
	.uleb128 0xb
	.long	.LASF749
	.byte	0x2d
	.value	0x181
	.byte	0x14
	.long	0x4b
	.long	0x4c02
	.uleb128 0x1
	.long	0x3f3e
	.uleb128 0x1
	.long	0x440a
	.byte	0
	.uleb128 0xb
	.long	.LASF750
	.byte	0x2d
	.value	0x1ba
	.byte	0x16
	.long	0x4c23
	.long	0x4c23
	.uleb128 0x1
	.long	0x3f3e
	.uleb128 0x1
	.long	0x440a
	.uleb128 0x1
	.long	0x118
	.byte	0
	.uleb128 0x1f
	.byte	0x8
	.byte	0x5
	.long	.LASF751
	.uleb128 0xb
	.long	.LASF752
	.byte	0x2d
	.value	0x1c1
	.byte	0x1f
	.long	0x4c4b
	.long	0x4c4b
	.uleb128 0x1
	.long	0x3f3e
	.uleb128 0x1
	.long	0x440a
	.uleb128 0x1
	.long	0x118
	.byte	0
	.uleb128 0x1f
	.byte	0x8
	.byte	0x7
	.long	.LASF753
	.uleb128 0x89
	.long	.LASF1055
	.uleb128 0x1f
	.byte	0x1
	.byte	0x2
	.long	.LASF754
	.uleb128 0x6
	.long	0x4c58
	.uleb128 0x9
	.long	0x5d4
	.uleb128 0x9
	.long	0x642
	.uleb128 0x1f
	.byte	0x1
	.byte	0x8
	.long	.LASF755
	.uleb128 0x1f
	.byte	0x1
	.byte	0x6
	.long	.LASF756
	.uleb128 0x1f
	.byte	0x2
	.byte	0x5
	.long	.LASF757
	.uleb128 0x1f
	.byte	0x2
	.byte	0x10
	.long	.LASF758
	.uleb128 0x1f
	.byte	0x4
	.byte	0x10
	.long	.LASF759
	.uleb128 0x9
	.long	0x66d
	.uleb128 0x9
	.long	0x830
	.uleb128 0xd
	.long	0x830
	.uleb128 0x28
	.long	0x66d
	.uleb128 0xd
	.long	0x66d
	.uleb128 0x9
	.long	0x86e
	.uleb128 0xd
	.long	0x89b
	.uleb128 0xd
	.long	0x8a8
	.uleb128 0x9
	.long	0x8a8
	.uleb128 0x9
	.long	0x89b
	.uleb128 0xd
	.long	0x9e3
	.uleb128 0x5
	.long	.LASF760
	.byte	0x31
	.byte	0x25
	.byte	0x15
	.long	0x4c75
	.uleb128 0x5
	.long	.LASF761
	.byte	0x31
	.byte	0x26
	.byte	0x17
	.long	0x4c6e
	.uleb128 0x5
	.long	.LASF762
	.byte	0x31
	.byte	0x27
	.byte	0x1a
	.long	0x4c7c
	.uleb128 0x5
	.long	.LASF763
	.byte	0x31
	.byte	0x28
	.byte	0x1c
	.long	0x2e0
	.uleb128 0x5
	.long	.LASF764
	.byte	0x31
	.byte	0x29
	.byte	0x14
	.long	0x118
	.uleb128 0x6
	.long	0x4cf8
	.uleb128 0x5
	.long	.LASF765
	.byte	0x31
	.byte	0x2a
	.byte	0x16
	.long	0x9f
	.uleb128 0x5
	.long	.LASF766
	.byte	0x31
	.byte	0x2c
	.byte	0x19
	.long	0x446c
	.uleb128 0x5
	.long	.LASF767
	.byte	0x31
	.byte	0x2d
	.byte	0x1b
	.long	0x5e
	.uleb128 0x5
	.long	.LASF768
	.byte	0x31
	.byte	0x34
	.byte	0x12
	.long	0x4cc8
	.uleb128 0x5
	.long	.LASF769
	.byte	0x31
	.byte	0x35
	.byte	0x13
	.long	0x4cd4
	.uleb128 0x5
	.long	.LASF770
	.byte	0x31
	.byte	0x36
	.byte	0x13
	.long	0x4ce0
	.uleb128 0x5
	.long	.LASF771
	.byte	0x31
	.byte	0x37
	.byte	0x14
	.long	0x4cec
	.uleb128 0x5
	.long	.LASF772
	.byte	0x31
	.byte	0x38
	.byte	0x13
	.long	0x4cf8
	.uleb128 0x5
	.long	.LASF773
	.byte	0x31
	.byte	0x39
	.byte	0x14
	.long	0x4d09
	.uleb128 0x5
	.long	.LASF774
	.byte	0x31
	.byte	0x3a
	.byte	0x13
	.long	0x4d15
	.uleb128 0x5
	.long	.LASF775
	.byte	0x31
	.byte	0x3b
	.byte	0x14
	.long	0x4d21
	.uleb128 0x5
	.long	.LASF776
	.byte	0x31
	.byte	0x48
	.byte	0x12
	.long	0x446c
	.uleb128 0x5
	.long	.LASF777
	.byte	0x31
	.byte	0x49
	.byte	0x1b
	.long	0x5e
	.uleb128 0x5
	.long	.LASF778
	.byte	0x31
	.byte	0x98
	.byte	0x19
	.long	0x446c
	.uleb128 0x5
	.long	.LASF779
	.byte	0x31
	.byte	0x99
	.byte	0x1b
	.long	0x446c
	.uleb128 0x5
	.long	.LASF780
	.byte	0x31
	.byte	0xc2
	.byte	0x1b
	.long	0x446c
	.uleb128 0x5
	.long	.LASF781
	.byte	0x32
	.byte	0x18
	.byte	0x12
	.long	0x4cc8
	.uleb128 0x5
	.long	.LASF782
	.byte	0x32
	.byte	0x19
	.byte	0x13
	.long	0x4ce0
	.uleb128 0x5
	.long	.LASF783
	.byte	0x32
	.byte	0x1a
	.byte	0x13
	.long	0x4cf8
	.uleb128 0x5
	.long	.LASF784
	.byte	0x32
	.byte	0x1b
	.byte	0x13
	.long	0x4d15
	.uleb128 0x5
	.long	.LASF785
	.byte	0x33
	.byte	0x18
	.byte	0x13
	.long	0x4cd4
	.uleb128 0x5
	.long	.LASF786
	.byte	0x33
	.byte	0x19
	.byte	0x14
	.long	0x4cec
	.uleb128 0x5
	.long	.LASF787
	.byte	0x33
	.byte	0x1a
	.byte	0x14
	.long	0x4d09
	.uleb128 0x5
	.long	.LASF788
	.byte	0x33
	.byte	0x1b
	.byte	0x14
	.long	0x4d21
	.uleb128 0x5
	.long	.LASF789
	.byte	0x34
	.byte	0x2b
	.byte	0x18
	.long	0x4d2d
	.uleb128 0x5
	.long	.LASF790
	.byte	0x34
	.byte	0x2c
	.byte	0x19
	.long	0x4d45
	.uleb128 0x5
	.long	.LASF791
	.byte	0x34
	.byte	0x2d
	.byte	0x19
	.long	0x4d5d
	.uleb128 0x5
	.long	.LASF792
	.byte	0x34
	.byte	0x2e
	.byte	0x19
	.long	0x4d75
	.uleb128 0x5
	.long	.LASF793
	.byte	0x34
	.byte	0x31
	.byte	0x19
	.long	0x4d39
	.uleb128 0x5
	.long	.LASF794
	.byte	0x34
	.byte	0x32
	.byte	0x1a
	.long	0x4d51
	.uleb128 0x5
	.long	.LASF795
	.byte	0x34
	.byte	0x33
	.byte	0x1a
	.long	0x4d69
	.uleb128 0x5
	.long	.LASF796
	.byte	0x34
	.byte	0x34
	.byte	0x1a
	.long	0x4d81
	.uleb128 0x5
	.long	.LASF797
	.byte	0x34
	.byte	0x3a
	.byte	0x16
	.long	0x4c75
	.uleb128 0x5
	.long	.LASF798
	.byte	0x34
	.byte	0x3c
	.byte	0x13
	.long	0x446c
	.uleb128 0x5
	.long	.LASF799
	.byte	0x34
	.byte	0x3d
	.byte	0x13
	.long	0x446c
	.uleb128 0x5
	.long	.LASF800
	.byte	0x34
	.byte	0x3e
	.byte	0x13
	.long	0x446c
	.uleb128 0x5
	.long	.LASF801
	.byte	0x34
	.byte	0x47
	.byte	0x18
	.long	0x4c6e
	.uleb128 0x5
	.long	.LASF802
	.byte	0x34
	.byte	0x49
	.byte	0x1b
	.long	0x5e
	.uleb128 0x5
	.long	.LASF803
	.byte	0x34
	.byte	0x4a
	.byte	0x1b
	.long	0x5e
	.uleb128 0x5
	.long	.LASF804
	.byte	0x34
	.byte	0x4b
	.byte	0x1b
	.long	0x5e
	.uleb128 0x5
	.long	.LASF805
	.byte	0x34
	.byte	0x57
	.byte	0x13
	.long	0x446c
	.uleb128 0x5
	.long	.LASF806
	.byte	0x34
	.byte	0x5a
	.byte	0x1b
	.long	0x5e
	.uleb128 0x5
	.long	.LASF807
	.byte	0x34
	.byte	0x65
	.byte	0x15
	.long	0x4d8d
	.uleb128 0x5
	.long	.LASF808
	.byte	0x34
	.byte	0x66
	.byte	0x16
	.long	0x4d99
	.uleb128 0x16
	.long	.LASF809
	.byte	0x60
	.byte	0x35
	.byte	0x33
	.byte	0x8
	.long	0x505f
	.uleb128 0x7
	.long	.LASF810
	.byte	0x35
	.byte	0x37
	.byte	0x9
	.long	0x41d9
	.byte	0
	.uleb128 0x7
	.long	.LASF811
	.byte	0x35
	.byte	0x38
	.byte	0x9
	.long	0x41d9
	.byte	0x8
	.uleb128 0x7
	.long	.LASF812
	.byte	0x35
	.byte	0x3e
	.byte	0x9
	.long	0x41d9
	.byte	0x10
	.uleb128 0x7
	.long	.LASF813
	.byte	0x35
	.byte	0x44
	.byte	0x9
	.long	0x41d9
	.byte	0x18
	.uleb128 0x7
	.long	.LASF814
	.byte	0x35
	.byte	0x45
	.byte	0x9
	.long	0x41d9
	.byte	0x20
	.uleb128 0x7
	.long	.LASF815
	.byte	0x35
	.byte	0x46
	.byte	0x9
	.long	0x41d9
	.byte	0x28
	.uleb128 0x7
	.long	.LASF816
	.byte	0x35
	.byte	0x47
	.byte	0x9
	.long	0x41d9
	.byte	0x30
	.uleb128 0x7
	.long	.LASF817
	.byte	0x35
	.byte	0x48
	.byte	0x9
	.long	0x41d9
	.byte	0x38
	.uleb128 0x7
	.long	.LASF818
	.byte	0x35
	.byte	0x49
	.byte	0x9
	.long	0x41d9
	.byte	0x40
	.uleb128 0x7
	.long	.LASF819
	.byte	0x35
	.byte	0x4a
	.byte	0x9
	.long	0x41d9
	.byte	0x48
	.uleb128 0x7
	.long	.LASF820
	.byte	0x35
	.byte	0x4b
	.byte	0x8
	.long	0x10c
	.byte	0x50
	.uleb128 0x7
	.long	.LASF821
	.byte	0x35
	.byte	0x4c
	.byte	0x8
	.long	0x10c
	.byte	0x51
	.uleb128 0x7
	.long	.LASF822
	.byte	0x35
	.byte	0x4e
	.byte	0x8
	.long	0x10c
	.byte	0x52
	.uleb128 0x7
	.long	.LASF823
	.byte	0x35
	.byte	0x50
	.byte	0x8
	.long	0x10c
	.byte	0x53
	.uleb128 0x7
	.long	.LASF824
	.byte	0x35
	.byte	0x52
	.byte	0x8
	.long	0x10c
	.byte	0x54
	.uleb128 0x7
	.long	.LASF825
	.byte	0x35
	.byte	0x54
	.byte	0x8
	.long	0x10c
	.byte	0x55
	.uleb128 0x7
	.long	.LASF826
	.byte	0x35
	.byte	0x5b
	.byte	0x8
	.long	0x10c
	.byte	0x56
	.uleb128 0x7
	.long	.LASF827
	.byte	0x35
	.byte	0x5c
	.byte	0x8
	.long	0x10c
	.byte	0x57
	.uleb128 0x7
	.long	.LASF828
	.byte	0x35
	.byte	0x5f
	.byte	0x8
	.long	0x10c
	.byte	0x58
	.uleb128 0x7
	.long	.LASF829
	.byte	0x35
	.byte	0x61
	.byte	0x8
	.long	0x10c
	.byte	0x59
	.uleb128 0x7
	.long	.LASF830
	.byte	0x35
	.byte	0x63
	.byte	0x8
	.long	0x10c
	.byte	0x5a
	.uleb128 0x7
	.long	.LASF831
	.byte	0x35
	.byte	0x65
	.byte	0x8
	.long	0x10c
	.byte	0x5b
	.uleb128 0x7
	.long	.LASF832
	.byte	0x35
	.byte	0x6c
	.byte	0x8
	.long	0x10c
	.byte	0x5c
	.uleb128 0x7
	.long	.LASF833
	.byte	0x35
	.byte	0x6d
	.byte	0x8
	.long	0x10c
	.byte	0x5d
	.byte	0
	.uleb128 0x13
	.long	.LASF834
	.byte	0x35
	.byte	0x7a
	.byte	0xe
	.long	0x41d9
	.long	0x507a
	.uleb128 0x1
	.long	0x118
	.uleb128 0x1
	.long	0x2e7
	.byte	0
	.uleb128 0x64
	.long	.LASF836
	.byte	0x35
	.byte	0x7d
	.byte	0x16
	.long	0x5086
	.uleb128 0x9
	.long	0x4f19
	.uleb128 0x8a
	.long	0x5097
	.uleb128 0x1
	.long	0xa6
	.byte	0
	.uleb128 0x9
	.long	0x508b
	.uleb128 0x9
	.long	0x50a1
	.uleb128 0x8b
	.uleb128 0x40
	.long	.LASF837
	.byte	0x24
	.byte	0x38
	.byte	0xb
	.long	0x50b8
	.uleb128 0x65
	.byte	0x24
	.byte	0x3a
	.byte	0x18
	.long	0xbb1
	.byte	0
	.uleb128 0x3f
	.byte	0x8
	.byte	0x36
	.byte	0x3c
	.byte	0x3
	.long	.LASF839
	.long	0x50df
	.uleb128 0x7
	.long	.LASF840
	.byte	0x36
	.byte	0x3d
	.byte	0x9
	.long	0x118
	.byte	0
	.uleb128 0x4b
	.string	"rem"
	.byte	0x3e
	.byte	0x9
	.long	0x118
	.byte	0x4
	.byte	0
	.uleb128 0x5
	.long	.LASF841
	.byte	0x36
	.byte	0x3f
	.byte	0x5
	.long	0x50b8
	.uleb128 0x3f
	.byte	0x10
	.byte	0x36
	.byte	0x44
	.byte	0x3
	.long	.LASF842
	.long	0x5112
	.uleb128 0x7
	.long	.LASF840
	.byte	0x36
	.byte	0x45
	.byte	0xe
	.long	0x446c
	.byte	0
	.uleb128 0x4b
	.string	"rem"
	.byte	0x46
	.byte	0xe
	.long	0x446c
	.byte	0x8
	.byte	0
	.uleb128 0x5
	.long	.LASF843
	.byte	0x36
	.byte	0x47
	.byte	0x5
	.long	0x50eb
	.uleb128 0x3f
	.byte	0x10
	.byte	0x36
	.byte	0x4e
	.byte	0x3
	.long	.LASF844
	.long	0x5145
	.uleb128 0x7
	.long	.LASF840
	.byte	0x36
	.byte	0x4f
	.byte	0x13
	.long	0x4c23
	.byte	0
	.uleb128 0x4b
	.string	"rem"
	.byte	0x50
	.byte	0x13
	.long	0x4c23
	.byte	0x8
	.byte	0
	.uleb128 0x5
	.long	.LASF845
	.byte	0x36
	.byte	0x51
	.byte	0x5
	.long	0x511e
	.uleb128 0x5
	.long	.LASF846
	.byte	0x37
	.byte	0x6c
	.byte	0x13
	.long	0x4dbd
	.uleb128 0x19
	.long	.LASF847
	.byte	0x36
	.value	0x330
	.byte	0xf
	.long	0x516a
	.uleb128 0x9
	.long	0x516f
	.uleb128 0x8c
	.long	0x118
	.long	0x5184
	.uleb128 0x1
	.long	0x509c
	.uleb128 0x1
	.long	0x509c
	.byte	0
	.uleb128 0xb
	.long	.LASF848
	.byte	0x36
	.value	0x25a
	.byte	0xc
	.long	0x118
	.long	0x519b
	.uleb128 0x1
	.long	0x519b
	.byte	0
	.uleb128 0x9
	.long	0x51a0
	.uleb128 0x8d
	.uleb128 0xe
	.long	.LASF849
	.byte	0x36
	.value	0x25f
	.byte	0x12
	.long	.LASF849
	.long	0x118
	.long	0x51bd
	.uleb128 0x1
	.long	0x519b
	.byte	0
	.uleb128 0x13
	.long	.LASF850
	.byte	0x36
	.byte	0x66
	.byte	0xf
	.long	0x3f
	.long	0x51d3
	.uleb128 0x1
	.long	0x2e7
	.byte	0
	.uleb128 0x13
	.long	.LASF851
	.byte	0x36
	.byte	0x69
	.byte	0xc
	.long	0x118
	.long	0x51e9
	.uleb128 0x1
	.long	0x2e7
	.byte	0
	.uleb128 0x13
	.long	.LASF852
	.byte	0x36
	.byte	0x6c
	.byte	0x11
	.long	0x446c
	.long	0x51ff
	.uleb128 0x1
	.long	0x2e7
	.byte	0
	.uleb128 0xb
	.long	.LASF853
	.byte	0x36
	.value	0x33c
	.byte	0xe
	.long	0xa6
	.long	0x522a
	.uleb128 0x1
	.long	0x509c
	.uleb128 0x1
	.long	0x509c
	.uleb128 0x1
	.long	0x52
	.uleb128 0x1
	.long	0x52
	.uleb128 0x1
	.long	0x515d
	.byte	0
	.uleb128 0x8e
	.string	"div"
	.byte	0x36
	.value	0x35c
	.byte	0xe
	.long	0x50df
	.long	0x5247
	.uleb128 0x1
	.long	0x118
	.uleb128 0x1
	.long	0x118
	.byte	0
	.uleb128 0xb
	.long	.LASF854
	.byte	0x36
	.value	0x281
	.byte	0xe
	.long	0x41d9
	.long	0x525e
	.uleb128 0x1
	.long	0x2e7
	.byte	0
	.uleb128 0xb
	.long	.LASF855
	.byte	0x36
	.value	0x35e
	.byte	0xf
	.long	0x5112
	.long	0x527a
	.uleb128 0x1
	.long	0x446c
	.uleb128 0x1
	.long	0x446c
	.byte	0
	.uleb128 0xb
	.long	.LASF856
	.byte	0x36
	.value	0x3a2
	.byte	0xc
	.long	0x118
	.long	0x5296
	.uleb128 0x1
	.long	0x2e7
	.uleb128 0x1
	.long	0x52
	.byte	0
	.uleb128 0xb
	.long	.LASF857
	.byte	0x36
	.value	0x3ad
	.byte	0xf
	.long	0x52
	.long	0x52b7
	.uleb128 0x1
	.long	0x3ef5
	.uleb128 0x1
	.long	0x2e7
	.uleb128 0x1
	.long	0x52
	.byte	0
	.uleb128 0xb
	.long	.LASF858
	.byte	0x36
	.value	0x3a5
	.byte	0xc
	.long	0x118
	.long	0x52d8
	.uleb128 0x1
	.long	0x3ef5
	.uleb128 0x1
	.long	0x2e7
	.uleb128 0x1
	.long	0x52
	.byte	0
	.uleb128 0x3a
	.long	.LASF860
	.byte	0x36
	.value	0x346
	.long	0x52f9
	.uleb128 0x1
	.long	0xa6
	.uleb128 0x1
	.long	0x52
	.uleb128 0x1
	.long	0x52
	.uleb128 0x1
	.long	0x515d
	.byte	0
	.uleb128 0x8f
	.long	.LASF861
	.byte	0x36
	.value	0x276
	.byte	0xd
	.long	0x530d
	.uleb128 0x1
	.long	0x118
	.byte	0
	.uleb128 0x4a
	.long	.LASF862
	.byte	0x36
	.value	0x1c6
	.byte	0xc
	.long	0x118
	.uleb128 0x3a
	.long	.LASF863
	.byte	0x36
	.value	0x1c8
	.long	0x532c
	.uleb128 0x1
	.long	0x9f
	.byte	0
	.uleb128 0x13
	.long	.LASF864
	.byte	0x36
	.byte	0x76
	.byte	0xf
	.long	0x3f
	.long	0x5347
	.uleb128 0x1
	.long	0x2e7
	.uleb128 0x1
	.long	0x5347
	.byte	0
	.uleb128 0x9
	.long	0x41d9
	.uleb128 0x13
	.long	.LASF865
	.byte	0x36
	.byte	0xb1
	.byte	0x11
	.long	0x446c
	.long	0x536c
	.uleb128 0x1
	.long	0x2e7
	.uleb128 0x1
	.long	0x5347
	.uleb128 0x1
	.long	0x118
	.byte	0
	.uleb128 0x13
	.long	.LASF866
	.byte	0x36
	.byte	0xb5
	.byte	0x1a
	.long	0x5e
	.long	0x538c
	.uleb128 0x1
	.long	0x2e7
	.uleb128 0x1
	.long	0x5347
	.uleb128 0x1
	.long	0x118
	.byte	0
	.uleb128 0xb
	.long	.LASF867
	.byte	0x36
	.value	0x317
	.byte	0xc
	.long	0x118
	.long	0x53a3
	.uleb128 0x1
	.long	0x2e7
	.byte	0
	.uleb128 0xb
	.long	.LASF868
	.byte	0x36
	.value	0x3b1
	.byte	0xf
	.long	0x52
	.long	0x53c4
	.uleb128 0x1
	.long	0x41d9
	.uleb128 0x1
	.long	0x3f3e
	.uleb128 0x1
	.long	0x52
	.byte	0
	.uleb128 0xb
	.long	.LASF869
	.byte	0x36
	.value	0x3a9
	.byte	0xc
	.long	0x118
	.long	0x53e0
	.uleb128 0x1
	.long	0x41d9
	.uleb128 0x1
	.long	0x3efa
	.byte	0
	.uleb128 0xb
	.long	.LASF870
	.byte	0x36
	.value	0x362
	.byte	0x1e
	.long	0x5145
	.long	0x53fc
	.uleb128 0x1
	.long	0x4c23
	.uleb128 0x1
	.long	0x4c23
	.byte	0
	.uleb128 0x13
	.long	.LASF871
	.byte	0x36
	.byte	0x71
	.byte	0x24
	.long	0x4c23
	.long	0x5412
	.uleb128 0x1
	.long	0x2e7
	.byte	0
	.uleb128 0x13
	.long	.LASF872
	.byte	0x36
	.byte	0xc9
	.byte	0x16
	.long	0x4c23
	.long	0x5432
	.uleb128 0x1
	.long	0x2e7
	.uleb128 0x1
	.long	0x5347
	.uleb128 0x1
	.long	0x118
	.byte	0
	.uleb128 0x13
	.long	.LASF873
	.byte	0x36
	.byte	0xce
	.byte	0x1f
	.long	0x4c4b
	.long	0x5452
	.uleb128 0x1
	.long	0x2e7
	.uleb128 0x1
	.long	0x5347
	.uleb128 0x1
	.long	0x118
	.byte	0
	.uleb128 0x13
	.long	.LASF874
	.byte	0x36
	.byte	0x7c
	.byte	0xe
	.long	0x38
	.long	0x546d
	.uleb128 0x1
	.long	0x2e7
	.uleb128 0x1
	.long	0x5347
	.byte	0
	.uleb128 0x13
	.long	.LASF875
	.byte	0x36
	.byte	0x7f
	.byte	0x14
	.long	0x4b
	.long	0x5488
	.uleb128 0x1
	.long	0x2e7
	.uleb128 0x1
	.long	0x5347
	.byte	0
	.uleb128 0x16
	.long	.LASF876
	.byte	0x10
	.byte	0x38
	.byte	0xa
	.byte	0x10
	.long	0x54b0
	.uleb128 0x7
	.long	.LASF877
	.byte	0x38
	.byte	0xc
	.byte	0xb
	.long	0x4da5
	.byte	0
	.uleb128 0x7
	.long	.LASF878
	.byte	0x38
	.byte	0xd
	.byte	0xf
	.long	0x124
	.byte	0x8
	.byte	0
	.uleb128 0x5
	.long	.LASF879
	.byte	0x38
	.byte	0xe
	.byte	0x3
	.long	0x5488
	.uleb128 0x90
	.long	.LASF1056
	.byte	0x1b
	.byte	0x2b
	.byte	0xe
	.uleb128 0x4c
	.long	.LASF880
	.uleb128 0x9
	.long	0x54c5
	.uleb128 0x9
	.long	0x14d
	.uleb128 0x46
	.long	0x10c
	.long	0x54e4
	.uleb128 0x47
	.long	0x5e
	.byte	0
	.byte	0
	.uleb128 0x9
	.long	0x54bc
	.uleb128 0x4c
	.long	.LASF881
	.uleb128 0x9
	.long	0x54e9
	.uleb128 0x4c
	.long	.LASF882
	.uleb128 0x9
	.long	0x54f3
	.uleb128 0x46
	.long	0x10c
	.long	0x550d
	.uleb128 0x47
	.long	0x5e
	.byte	0x13
	.byte	0
	.uleb128 0x5
	.long	.LASF883
	.byte	0x39
	.byte	0x54
	.byte	0x12
	.long	0x54b0
	.uleb128 0x6
	.long	0x550d
	.uleb128 0x9
	.long	0x2d4
	.uleb128 0x3a
	.long	.LASF884
	.byte	0x39
	.value	0x312
	.long	0x5535
	.uleb128 0x1
	.long	0x551e
	.byte	0
	.uleb128 0x13
	.long	.LASF885
	.byte	0x39
	.byte	0xb2
	.byte	0xc
	.long	0x118
	.long	0x554b
	.uleb128 0x1
	.long	0x551e
	.byte	0
	.uleb128 0xb
	.long	.LASF886
	.byte	0x39
	.value	0x314
	.byte	0xc
	.long	0x118
	.long	0x5562
	.uleb128 0x1
	.long	0x551e
	.byte	0
	.uleb128 0xb
	.long	.LASF887
	.byte	0x39
	.value	0x316
	.byte	0xc
	.long	0x118
	.long	0x5579
	.uleb128 0x1
	.long	0x551e
	.byte	0
	.uleb128 0x13
	.long	.LASF888
	.byte	0x39
	.byte	0xe6
	.byte	0xc
	.long	0x118
	.long	0x558f
	.uleb128 0x1
	.long	0x551e
	.byte	0
	.uleb128 0xb
	.long	.LASF889
	.byte	0x39
	.value	0x201
	.byte	0xc
	.long	0x118
	.long	0x55a6
	.uleb128 0x1
	.long	0x551e
	.byte	0
	.uleb128 0xb
	.long	.LASF890
	.byte	0x39
	.value	0x2f8
	.byte	0xc
	.long	0x118
	.long	0x55c2
	.uleb128 0x1
	.long	0x551e
	.uleb128 0x1
	.long	0x55c2
	.byte	0
	.uleb128 0x9
	.long	0x550d
	.uleb128 0xb
	.long	.LASF891
	.byte	0x39
	.value	0x250
	.byte	0xe
	.long	0x41d9
	.long	0x55e8
	.uleb128 0x1
	.long	0x41d9
	.uleb128 0x1
	.long	0x118
	.uleb128 0x1
	.long	0x551e
	.byte	0
	.uleb128 0xb
	.long	.LASF892
	.byte	0x39
	.value	0x102
	.byte	0xe
	.long	0x551e
	.long	0x5604
	.uleb128 0x1
	.long	0x2e7
	.uleb128 0x1
	.long	0x2e7
	.byte	0
	.uleb128 0xb
	.long	.LASF893
	.byte	0x39
	.value	0x2a3
	.byte	0xf
	.long	0x52
	.long	0x562a
	.uleb128 0x1
	.long	0xa6
	.uleb128 0x1
	.long	0x52
	.uleb128 0x1
	.long	0x52
	.uleb128 0x1
	.long	0x551e
	.byte	0
	.uleb128 0xb
	.long	.LASF894
	.byte	0x39
	.value	0x109
	.byte	0xe
	.long	0x551e
	.long	0x564b
	.uleb128 0x1
	.long	0x2e7
	.uleb128 0x1
	.long	0x2e7
	.uleb128 0x1
	.long	0x551e
	.byte	0
	.uleb128 0xb
	.long	.LASF895
	.byte	0x39
	.value	0x2c9
	.byte	0xc
	.long	0x118
	.long	0x566c
	.uleb128 0x1
	.long	0x551e
	.uleb128 0x1
	.long	0x446c
	.uleb128 0x1
	.long	0x118
	.byte	0
	.uleb128 0xb
	.long	.LASF896
	.byte	0x39
	.value	0x2fd
	.byte	0xc
	.long	0x118
	.long	0x5688
	.uleb128 0x1
	.long	0x551e
	.uleb128 0x1
	.long	0x5688
	.byte	0
	.uleb128 0x9
	.long	0x5519
	.uleb128 0xb
	.long	.LASF897
	.byte	0x39
	.value	0x2ce
	.byte	0x11
	.long	0x446c
	.long	0x56a4
	.uleb128 0x1
	.long	0x551e
	.byte	0
	.uleb128 0xb
	.long	.LASF898
	.byte	0x39
	.value	0x202
	.byte	0xc
	.long	0x118
	.long	0x56bb
	.uleb128 0x1
	.long	0x551e
	.byte	0
	.uleb128 0x4a
	.long	.LASF899
	.byte	0x39
	.value	0x208
	.byte	0xc
	.long	0x118
	.uleb128 0x3a
	.long	.LASF900
	.byte	0x39
	.value	0x324
	.long	0x56da
	.uleb128 0x1
	.long	0x2e7
	.byte	0
	.uleb128 0x13
	.long	.LASF901
	.byte	0x39
	.byte	0x98
	.byte	0xc
	.long	0x118
	.long	0x56f0
	.uleb128 0x1
	.long	0x2e7
	.byte	0
	.uleb128 0x13
	.long	.LASF902
	.byte	0x39
	.byte	0x9a
	.byte	0xc
	.long	0x118
	.long	0x570b
	.uleb128 0x1
	.long	0x2e7
	.uleb128 0x1
	.long	0x2e7
	.byte	0
	.uleb128 0x3a
	.long	.LASF903
	.byte	0x39
	.value	0x2d3
	.long	0x571d
	.uleb128 0x1
	.long	0x551e
	.byte	0
	.uleb128 0x3a
	.long	.LASF904
	.byte	0x39
	.value	0x148
	.long	0x5734
	.uleb128 0x1
	.long	0x551e
	.uleb128 0x1
	.long	0x41d9
	.byte	0
	.uleb128 0xb
	.long	.LASF905
	.byte	0x39
	.value	0x14c
	.byte	0xc
	.long	0x118
	.long	0x575a
	.uleb128 0x1
	.long	0x551e
	.uleb128 0x1
	.long	0x41d9
	.uleb128 0x1
	.long	0x118
	.uleb128 0x1
	.long	0x52
	.byte	0
	.uleb128 0x64
	.long	.LASF906
	.byte	0x39
	.byte	0xbc
	.byte	0xe
	.long	0x551e
	.uleb128 0x13
	.long	.LASF907
	.byte	0x39
	.byte	0xcd
	.byte	0xe
	.long	0x41d9
	.long	0x577c
	.uleb128 0x1
	.long	0x41d9
	.byte	0
	.uleb128 0xb
	.long	.LASF908
	.byte	0x39
	.value	0x29c
	.byte	0xc
	.long	0x118
	.long	0x5798
	.uleb128 0x1
	.long	0x118
	.uleb128 0x1
	.long	0x551e
	.byte	0
	.uleb128 0x9
	.long	0xdfd
	.uleb128 0x6
	.long	0x5798
	.uleb128 0xd
	.long	0xe85
	.uleb128 0xd
	.long	0xdfd
	.uleb128 0x5
	.long	.LASF909
	.byte	0x3a
	.byte	0x26
	.byte	0x1b
	.long	0x5e
	.uleb128 0x5
	.long	.LASF910
	.byte	0x3b
	.byte	0x30
	.byte	0x1a
	.long	0x57c4
	.uleb128 0x9
	.long	0x4d04
	.uleb128 0x13
	.long	.LASF911
	.byte	0x3a
	.byte	0x9f
	.byte	0xc
	.long	0x118
	.long	0x57e4
	.uleb128 0x1
	.long	0xa8
	.uleb128 0x1
	.long	0x57ac
	.byte	0
	.uleb128 0x13
	.long	.LASF912
	.byte	0x3b
	.byte	0x37
	.byte	0xf
	.long	0xa8
	.long	0x57ff
	.uleb128 0x1
	.long	0xa8
	.uleb128 0x1
	.long	0x57b8
	.byte	0
	.uleb128 0x13
	.long	.LASF913
	.byte	0x3b
	.byte	0x34
	.byte	0x12
	.long	0x57b8
	.long	0x5815
	.uleb128 0x1
	.long	0x2e7
	.byte	0
	.uleb128 0x13
	.long	.LASF914
	.byte	0x3a
	.byte	0x9b
	.byte	0x11
	.long	0x57ac
	.long	0x582b
	.uleb128 0x1
	.long	0x2e7
	.byte	0
	.uleb128 0xd
	.long	0xec3
	.uleb128 0x91
	.long	0xf2c
	.uleb128 0x9
	.byte	0x3
	.quad	_ZStL8__ioinit
	.uleb128 0x40
	.long	.LASF915
	.byte	0x3c
	.byte	0xf
	.byte	0xb
	.long	0x5987
	.uleb128 0x66
	.long	.LASF954
	.byte	0x3c
	.byte	0x11
	.byte	0xb
	.uleb128 0x92
	.string	"v1"
	.byte	0x3c
	.byte	0x13
	.byte	0x12
	.uleb128 0x2c
	.long	.LASF916
	.byte	0x1
	.byte	0x3c
	.byte	0x17
	.byte	0x7
	.long	0x5894
	.uleb128 0x2b
	.long	.LASF917
	.byte	0x1c
	.long	.LASF919
	.long	0x647
	.uleb128 0x2b
	.long	.LASF918
	.byte	0x21
	.long	.LASF920
	.long	0x647
	.uleb128 0x2b
	.long	.LASF921
	.byte	0x26
	.long	.LASF922
	.long	0x647
	.byte	0
	.uleb128 0x6
	.long	0x585c
	.uleb128 0x2c
	.long	.LASF923
	.byte	0x1
	.byte	0x3c
	.byte	0x2d
	.byte	0x7
	.long	0x58d1
	.uleb128 0x2b
	.long	.LASF917
	.byte	0x32
	.long	.LASF924
	.long	0x647
	.uleb128 0x2b
	.long	.LASF918
	.byte	0x37
	.long	.LASF925
	.long	0x647
	.uleb128 0x2b
	.long	.LASF921
	.byte	0x3c
	.long	.LASF926
	.long	0xb63
	.byte	0
	.uleb128 0x6
	.long	0x5899
	.uleb128 0x2c
	.long	.LASF927
	.byte	0x1
	.byte	0x3c
	.byte	0x43
	.byte	0x7
	.long	0x590e
	.uleb128 0x2b
	.long	.LASF917
	.byte	0x48
	.long	.LASF928
	.long	0xb63
	.uleb128 0x2b
	.long	.LASF918
	.byte	0x4d
	.long	.LASF929
	.long	0xb63
	.uleb128 0x2b
	.long	.LASF921
	.byte	0x52
	.long	.LASF930
	.long	0xb63
	.byte	0
	.uleb128 0x6
	.long	0x58d6
	.uleb128 0x2c
	.long	.LASF931
	.byte	0x1
	.byte	0x3c
	.byte	0x58
	.byte	0x7
	.long	0x594b
	.uleb128 0x2b
	.long	.LASF917
	.byte	0x5d
	.long	.LASF932
	.long	0xb63
	.uleb128 0x2b
	.long	.LASF918
	.byte	0x62
	.long	.LASF933
	.long	0xb63
	.uleb128 0x2b
	.long	.LASF921
	.byte	0x67
	.long	.LASF934
	.long	0x647
	.byte	0
	.uleb128 0x6
	.long	0x5913
	.uleb128 0x67
	.string	"seq"
	.byte	0x6e
	.byte	0x1c
	.long	0x5894
	.byte	0x1
	.byte	0
	.uleb128 0x67
	.string	"par"
	.byte	0x6f
	.byte	0x1b
	.long	0x58d1
	.byte	0x1
	.byte	0
	.uleb128 0x68
	.long	.LASF936
	.byte	0x70
	.byte	0x27
	.long	0x590e
	.byte	0x1
	.byte	0
	.uleb128 0x68
	.long	.LASF937
	.byte	0x71
	.byte	0x1e
	.long	0x594b
	.byte	0x1
	.byte	0
	.byte	0
	.byte	0
	.byte	0
	.uleb128 0x44
	.long	0x5950
	.uleb128 0x44
	.long	0x595d
	.uleb128 0x44
	.long	0x596a
	.uleb128 0x44
	.long	0x5977
	.uleb128 0x9
	.long	0xfd0
	.uleb128 0x6
	.long	0x599b
	.uleb128 0xd
	.long	0x114d
	.uleb128 0x9
	.long	0x446c
	.uleb128 0x6
	.long	0x59aa
	.uleb128 0x9
	.long	0x114d
	.uleb128 0x6
	.long	0x59b4
	.uleb128 0xd
	.long	0x446c
	.uleb128 0x9
	.long	0x4473
	.uleb128 0x6
	.long	0x59c3
	.uleb128 0xd
	.long	0x4473
	.uleb128 0x9
	.long	0x1152
	.uleb128 0x6
	.long	0x59d2
	.uleb128 0xd
	.long	0x11d9
	.uleb128 0xd
	.long	0x1152
	.uleb128 0xd
	.long	0x1217
	.uleb128 0xd
	.long	0x1224
	.uleb128 0xd
	.long	0x47fd
	.uleb128 0xd
	.long	0x4809
	.uleb128 0x9
	.long	0x12e7
	.uleb128 0x6
	.long	0x59fa
	.uleb128 0x28
	.long	0x12e7
	.uleb128 0xd
	.long	0x138d
	.uleb128 0xd
	.long	0x12e7
	.uleb128 0x9
	.long	0x139e
	.uleb128 0x6
	.long	0x5a13
	.uleb128 0xd
	.long	0x1475
	.uleb128 0x28
	.long	0x139e
	.uleb128 0x28
	.long	0x1469
	.uleb128 0xd
	.long	0x1469
	.uleb128 0x9
	.long	0x12da
	.uleb128 0x6
	.long	0x5a31
	.uleb128 0x9
	.long	0x167d
	.uleb128 0xd
	.long	0x14c1
	.uleb128 0x28
	.long	0x12da
	.uleb128 0xd
	.long	0x176d
	.uleb128 0x9
	.long	0x16a5
	.uleb128 0x6
	.long	0x5a4f
	.uleb128 0xd
	.long	0x181e
	.uleb128 0xd
	.long	0x1891
	.uleb128 0xd
	.long	0x22c4
	.uleb128 0x28
	.long	0x16a5
	.uleb128 0xd
	.long	0x22d5
	.uleb128 0xd
	.long	0x16a5
	.uleb128 0x9
	.long	0x22c4
	.uleb128 0x28
	.long	0x1884
	.uleb128 0xd
	.long	0x177a
	.uleb128 0x40
	.long	.LASF938
	.byte	0x3
	.byte	0x6
	.byte	0xb
	.long	0x5c1d
	.uleb128 0x2c
	.long	.LASF939
	.byte	0x30
	.byte	0x4
	.byte	0x50
	.byte	0xb
	.long	0x5be6
	.uleb128 0x93
	.long	.LASF940
	.byte	0x4
	.byte	0x53
	.byte	0x9
	.long	.LASF941
	.byte	0x1
	.byte	0x1
	.long	0x5ab6
	.long	0x5abc
	.uleb128 0x2
	.long	0x5d15
	.byte	0
	.uleb128 0x17
	.long	.LASF942
	.byte	0x4
	.byte	0x60
	.byte	0x13
	.long	.LASF943
	.long	0x5beb
	.byte	0x1
	.long	0x5ad5
	.long	0x5adb
	.uleb128 0x2
	.long	0x5d1f
	.byte	0
	.uleb128 0x17
	.long	.LASF292
	.byte	0x4
	.byte	0x65
	.byte	0x13
	.long	.LASF944
	.long	0x5beb
	.byte	0x1
	.long	0x5af4
	.long	0x5afa
	.uleb128 0x2
	.long	0x5d1f
	.byte	0
	.uleb128 0x17
	.long	.LASF945
	.byte	0x4
	.byte	0x6a
	.byte	0x20
	.long	.LASF946
	.long	0x16a5
	.byte	0x1
	.long	0x5b13
	.long	0x5b19
	.uleb128 0x2
	.long	0x5d1f
	.byte	0
	.uleb128 0x17
	.long	.LASF945
	.byte	0x4
	.byte	0x6f
	.byte	0x13
	.long	.LASF947
	.long	0x5beb
	.byte	0x1
	.long	0x5b32
	.long	0x5b3d
	.uleb128 0x2
	.long	0x5d1f
	.uleb128 0x1
	.long	0x5beb
	.byte	0
	.uleb128 0x7
	.long	.LASF948
	.byte	0x4
	.byte	0x8d
	.byte	0x20
	.long	0x2aae
	.byte	0
	.uleb128 0x7
	.long	.LASF949
	.byte	0x4
	.byte	0x8e
	.byte	0x20
	.long	0x16a5
	.byte	0x18
	.uleb128 0x1d
	.long	.LASF950
	.byte	0x4
	.byte	0x56
	.byte	0x9
	.long	.LASF951
	.long	0x5b91
	.long	0x5bb5
	.uleb128 0x4d
	.string	"T"
	.long	0x5b91
	.uleb128 0x24
	.long	0x118
	.uleb128 0x24
	.long	0x118
	.uleb128 0x24
	.long	0x118
	.uleb128 0x24
	.long	0x118
	.uleb128 0x24
	.long	0x118
	.uleb128 0x24
	.long	0x118
	.byte	0
	.uleb128 0x2
	.long	0x5d15
	.uleb128 0x1
	.long	0x118
	.uleb128 0x1
	.long	0x118
	.uleb128 0x1
	.long	0x118
	.uleb128 0x1
	.long	0x118
	.uleb128 0x1
	.long	0x118
	.uleb128 0x1
	.long	0x118
	.byte	0
	.uleb128 0x94
	.long	.LASF952
	.long	.LASF1024
	.byte	0x1
	.long	0x5bc8
	.long	0x5bd3
	.uleb128 0x2
	.long	0x5d15
	.uleb128 0x2
	.long	0x118
	.byte	0
	.uleb128 0x4
	.long	.LASF953
	.long	0x3f
	.uleb128 0x95
	.long	.LASF1057
	.byte	0x4
	.byte	0x10
	.byte	0x30
	.byte	0
	.uleb128 0x6
	.long	0x5a92
	.uleb128 0x5
	.long	.LASF167
	.byte	0x3
	.byte	0xb
	.byte	0x15
	.long	0x5151
	.uleb128 0x66
	.long	.LASF955
	.byte	0x3
	.byte	0xd
	.byte	0xf
	.uleb128 0x96
	.long	.LASF956
	.byte	0x3
	.byte	0x18
	.byte	0x13
	.long	.LASF957
	.long	0x5beb
	.uleb128 0x1
	.long	0x5beb
	.uleb128 0x1
	.long	0x5beb
	.byte	0
	.byte	0
	.byte	0
	.uleb128 0x65
	.byte	0x5
	.byte	0x6
	.byte	0x11
	.long	0x5a86
	.uleb128 0x9
	.long	0x23d9
	.uleb128 0x6
	.long	0x5c25
	.uleb128 0xd
	.long	0x2556
	.uleb128 0x9
	.long	0x3f
	.uleb128 0x6
	.long	0x5c34
	.uleb128 0x9
	.long	0x2556
	.uleb128 0x6
	.long	0x5c3e
	.uleb128 0xd
	.long	0x3f
	.uleb128 0x9
	.long	0x46
	.uleb128 0xd
	.long	0x46
	.uleb128 0x9
	.long	0x255b
	.uleb128 0x6
	.long	0x5c57
	.uleb128 0xd
	.long	0x25e2
	.uleb128 0xd
	.long	0x255b
	.uleb128 0xd
	.long	0x2620
	.uleb128 0xd
	.long	0x262d
	.uleb128 0xd
	.long	0x4b4b
	.uleb128 0xd
	.long	0x4b57
	.uleb128 0x9
	.long	0x26f0
	.uleb128 0x6
	.long	0x5c7f
	.uleb128 0x28
	.long	0x26f0
	.uleb128 0xd
	.long	0x2796
	.uleb128 0xd
	.long	0x26f0
	.uleb128 0x9
	.long	0x27a7
	.uleb128 0x6
	.long	0x5c98
	.uleb128 0xd
	.long	0x287e
	.uleb128 0x28
	.long	0x27a7
	.uleb128 0x28
	.long	0x2872
	.uleb128 0xd
	.long	0x2872
	.uleb128 0x9
	.long	0x26e3
	.uleb128 0x6
	.long	0x5cb6
	.uleb128 0x9
	.long	0x2a86
	.uleb128 0x6
	.long	0x5cc0
	.uleb128 0xd
	.long	0x28ca
	.uleb128 0x28
	.long	0x26e3
	.uleb128 0xd
	.long	0x2b76
	.uleb128 0x9
	.long	0x2aae
	.uleb128 0x6
	.long	0x5cd9
	.uleb128 0xd
	.long	0x2c27
	.uleb128 0xd
	.long	0x2c9a
	.uleb128 0xd
	.long	0x3699
	.uleb128 0x28
	.long	0x2aae
	.uleb128 0xd
	.long	0x36aa
	.uleb128 0xd
	.long	0x2aae
	.uleb128 0x9
	.long	0x3699
	.uleb128 0x6
	.long	0x5d01
	.uleb128 0x28
	.long	0x2c8d
	.uleb128 0xd
	.long	0x2b83
	.uleb128 0x9
	.long	0x5a92
	.uleb128 0x6
	.long	0x5d15
	.uleb128 0x9
	.long	0x5be6
	.uleb128 0x6
	.long	0x5d1f
	.uleb128 0x9
	.long	0x22da
	.uleb128 0x9
	.long	0x23ca
	.uleb128 0x6
	.long	0x5d2e
	.uleb128 0x9
	.long	0x485f
	.uleb128 0x6
	.long	0x5d38
	.uleb128 0xd
	.long	0x59af
	.uleb128 0x9
	.long	0x4a94
	.uleb128 0x6
	.long	0x5d47
	.uleb128 0xd
	.long	0x485f
	.uleb128 0x97
	.long	.LASF982
	.long	0xa6
	.uleb128 0x45
	.long	0xe25
	.long	.LASF958
	.long	0x5d71
	.long	0x5d7b
	.uleb128 0x10
	.long	.LASF960
	.long	0x579d
	.byte	0
	.uleb128 0x45
	.long	0xe0c
	.long	.LASF959
	.long	0x5d8c
	.long	0x5d96
	.uleb128 0x10
	.long	.LASF960
	.long	0x579d
	.byte	0
	.uleb128 0x98
	.long	.LASF1058
	.uleb128 0x99
	.long	.LASF1059
	.uleb128 0x69
	.long	.LASF961
	.long	0xa6
	.long	0x5db5
	.uleb128 0x1
	.long	0xa6
	.byte	0
	.uleb128 0x37
	.long	.LASF962
	.byte	0x1
	.byte	0x87
	.byte	0x6
	.long	.LASF963
	.long	0x5dd0
	.uleb128 0x1
	.long	0xa6
	.uleb128 0x1
	.long	0x559
	.byte	0
	.uleb128 0x1e
	.long	.LASF964
	.byte	0x1
	.byte	0x7e
	.byte	0x1a
	.long	.LASF965
	.long	0xa6
	.long	0x5dea
	.uleb128 0x1
	.long	0x559
	.byte	0
	.uleb128 0x9a
	.long	.LASF1060
	.long	0x5dfa
	.uleb128 0x1
	.long	0xa6
	.byte	0
	.uleb128 0x9
	.long	0x37e1
	.uleb128 0x6
	.long	0x5dfa
	.uleb128 0x45
	.long	0x37ea
	.long	.LASF966
	.long	0x5e15
	.long	0x5e1f
	.uleb128 0x10
	.long	.LASF960
	.long	0x5dff
	.byte	0
	.uleb128 0x9b
	.long	.LASF967
	.long	0x5e39
	.uleb128 0x1
	.long	0xa6
	.uleb128 0x1
	.long	0xa6
	.uleb128 0x1
	.long	0x5097
	.byte	0
	.uleb128 0x45
	.long	0x3811
	.long	.LASF968
	.long	0x5e4a
	.long	0x5e59
	.uleb128 0x10
	.long	.LASF960
	.long	0x5dff
	.uleb128 0x1
	.long	0x2e7
	.byte	0
	.uleb128 0x69
	.long	.LASF969
	.long	0xa6
	.long	0x5e6c
	.uleb128 0x1
	.long	0x5e
	.byte	0
	.uleb128 0x9c
	.long	.LASF1061
	.quad	.LFB3262
	.quad	.LFE3262-.LFB3262
	.uleb128 0x1
	.byte	0x9c
	.uleb128 0x9d
	.long	.LASF1062
	.quad	.LFB3261
	.quad	.LFE3261-.LFB3261
	.uleb128 0x1
	.byte	0x9c
	.long	0x5ebf
	.uleb128 0x20
	.long	.LASF970
	.byte	0x5
	.byte	0xf
	.byte	0x1
	.long	0x118
	.uleb128 0x2
	.byte	0x91
	.sleb128 -20
	.uleb128 0x20
	.long	.LASF971
	.byte	0x5
	.byte	0xf
	.byte	0x1
	.long	0x118
	.uleb128 0x2
	.byte	0x91
	.sleb128 -24
	.byte	0
	.uleb128 0x12
	.long	0x376b
	.quad	.LFB3260
	.quad	.LFE3260-.LFB3260
	.uleb128 0x1
	.byte	0x9c
	.long	0x5f24
	.uleb128 0xa
	.string	"_Tp"
	.long	0x446c
	.uleb128 0xc
	.long	.LASF972
	.byte	0x2
	.value	0x1a4
	.byte	0x16
	.long	0x59c3
	.uleb128 0x2
	.byte	0x91
	.sleb128 -40
	.uleb128 0xc
	.long	.LASF973
	.byte	0x2
	.value	0x1a4
	.byte	0x2a
	.long	0x59c3
	.uleb128 0x2
	.byte	0x91
	.sleb128 -48
	.uleb128 0xc
	.long	.LASF974
	.byte	0x2
	.value	0x1a4
	.byte	0x37
	.long	0x59aa
	.uleb128 0x2
	.byte	0x91
	.sleb128 -56
	.uleb128 0x29
	.long	.LASF976
	.byte	0x2
	.value	0x1ad
	.byte	0x14
	.long	0xb5e
	.uleb128 0x2
	.byte	0x91
	.sleb128 -24
	.byte	0
	.uleb128 0x26
	.long	0x3830
	.quad	.LFB3259
	.quad	.LFE3259-.LFB3259
	.uleb128 0x1
	.byte	0x9c
	.long	0x5f92
	.uleb128 0x4
	.long	.LASF128
	.long	0x5c34
	.uleb128 0xa
	.string	"_Tp"
	.long	0x3f
	.uleb128 0xc
	.long	.LASF972
	.byte	0x2
	.value	0x395
	.byte	0x20
	.long	0x5c34
	.uleb128 0x2
	.byte	0x91
	.sleb128 -40
	.uleb128 0xc
	.long	.LASF973
	.byte	0x2
	.value	0x395
	.byte	0x3a
	.long	0x5c34
	.uleb128 0x2
	.byte	0x91
	.sleb128 -48
	.uleb128 0xc
	.long	.LASF18
	.byte	0x2
	.value	0x396
	.byte	0x13
	.long	0x5c52
	.uleb128 0x2
	.byte	0x91
	.sleb128 -56
	.uleb128 0x29
	.long	.LASF977
	.byte	0x2
	.value	0x398
	.byte	0x11
	.long	0x46
	.uleb128 0x2
	.byte	0x91
	.sleb128 -24
	.byte	0
	.uleb128 0x12
	.long	0x3863
	.quad	.LFB3258
	.quad	.LFE3258-.LFB3258
	.uleb128 0x1
	.byte	0x9c
	.long	0x5ffa
	.uleb128 0x2e
	.long	.LASF528
	.long	0x4c58
	.byte	0
	.uleb128 0xa
	.string	"_II"
	.long	0x59c3
	.uleb128 0xa
	.string	"_OI"
	.long	0x59aa
	.uleb128 0xc
	.long	.LASF972
	.byte	0x2
	.value	0x1e6
	.byte	0x18
	.long	0x59c3
	.uleb128 0x2
	.byte	0x91
	.sleb128 -24
	.uleb128 0xc
	.long	.LASF973
	.byte	0x2
	.value	0x1e6
	.byte	0x25
	.long	0x59c3
	.uleb128 0x2
	.byte	0x91
	.sleb128 -32
	.uleb128 0xc
	.long	.LASF974
	.byte	0x2
	.value	0x1e6
	.byte	0x31
	.long	0x59aa
	.uleb128 0x2
	.byte	0x91
	.sleb128 -40
	.byte	0
	.uleb128 0x12
	.long	0x38a4
	.quad	.LFB3257
	.quad	.LFE3257-.LFB3257
	.uleb128 0x1
	.byte	0x9c
	.long	0x6058
	.uleb128 0x4
	.long	.LASF545
	.long	0x5c34
	.uleb128 0xa
	.string	"_Tp"
	.long	0x3f
	.uleb128 0xc
	.long	.LASF972
	.byte	0x2
	.value	0x3c7
	.byte	0x14
	.long	0x5c34
	.uleb128 0x2
	.byte	0x91
	.sleb128 -24
	.uleb128 0xc
	.long	.LASF973
	.byte	0x2
	.value	0x3c7
	.byte	0x23
	.long	0x5c34
	.uleb128 0x2
	.byte	0x91
	.sleb128 -32
	.uleb128 0xc
	.long	.LASF18
	.byte	0x2
	.value	0x3c7
	.byte	0x36
	.long	0x5c52
	.uleb128 0x2
	.byte	0x91
	.sleb128 -40
	.byte	0
	.uleb128 0x26
	.long	0x38d7
	.quad	.LFB3256
	.quad	.LFE3256-.LFB3256
	.uleb128 0x1
	.byte	0x9c
	.long	0x6095
	.uleb128 0x4
	.long	.LASF548
	.long	0x59aa
	.uleb128 0x25
	.long	0x5d42
	.uleb128 0x2
	.byte	0x91
	.sleb128 -24
	.uleb128 0xc
	.long	.LASF978
	.byte	0x2
	.value	0x14f
	.byte	0x2e
	.long	0x59aa
	.uleb128 0x2
	.byte	0x91
	.sleb128 -32
	.byte	0
	.uleb128 0x12
	.long	0x3900
	.quad	.LFB3255
	.quad	.LFE3255-.LFB3255
	.uleb128 0x1
	.byte	0x9c
	.long	0x60fd
	.uleb128 0x2e
	.long	.LASF528
	.long	0x4c58
	.byte	0
	.uleb128 0xa
	.string	"_II"
	.long	0x59c3
	.uleb128 0xa
	.string	"_OI"
	.long	0x59aa
	.uleb128 0xc
	.long	.LASF972
	.byte	0x2
	.value	0x209
	.byte	0x18
	.long	0x59c3
	.uleb128 0x2
	.byte	0x91
	.sleb128 -24
	.uleb128 0xc
	.long	.LASF973
	.byte	0x2
	.value	0x209
	.byte	0x25
	.long	0x59c3
	.uleb128 0x2
	.byte	0x91
	.sleb128 -32
	.uleb128 0xc
	.long	.LASF974
	.byte	0x2
	.value	0x209
	.byte	0x31
	.long	0x59aa
	.uleb128 0x2
	.byte	0x91
	.sleb128 -40
	.byte	0
	.uleb128 0x26
	.long	0x3941
	.quad	.LFB3254
	.quad	.LFE3254-.LFB3254
	.uleb128 0x1
	.byte	0x9c
	.long	0x6132
	.uleb128 0x4
	.long	.LASF548
	.long	0x59aa
	.uleb128 0xc
	.long	.LASF979
	.byte	0x2
	.value	0x139
	.byte	0x1c
	.long	0x59aa
	.uleb128 0x2
	.byte	0x91
	.sleb128 -24
	.byte	0
	.uleb128 0x26
	.long	0x3965
	.quad	.LFB3253
	.quad	.LFE3253-.LFB3253
	.uleb128 0x1
	.byte	0x9c
	.long	0x6167
	.uleb128 0x4
	.long	.LASF548
	.long	0x59c3
	.uleb128 0xc
	.long	.LASF979
	.byte	0x2
	.value	0x139
	.byte	0x1c
	.long	0x59c3
	.uleb128 0x2
	.byte	0x91
	.sleb128 -24
	.byte	0
	.uleb128 0x12
	.long	0x3989
	.quad	.LFB3252
	.quad	.LFE3252-.LFB3252
	.uleb128 0x1
	.byte	0x9c
	.long	0x61d6
	.uleb128 0x4
	.long	.LASF557
	.long	0x5c34
	.uleb128 0x4
	.long	.LASF149
	.long	0x5e
	.uleb128 0xa
	.string	"_Tp"
	.long	0x3f
	.uleb128 0xc
	.long	.LASF972
	.byte	0x2
	.value	0x454
	.byte	0x20
	.long	0x5c34
	.uleb128 0x2
	.byte	0x91
	.sleb128 -24
	.uleb128 0x14
	.string	"__n"
	.byte	0x2
	.value	0x454
	.byte	0x2f
	.long	0x5e
	.uleb128 0x2
	.byte	0x91
	.sleb128 -32
	.uleb128 0xc
	.long	.LASF18
	.byte	0x2
	.value	0x454
	.byte	0x3f
	.long	0x5c52
	.uleb128 0x2
	.byte	0x91
	.sleb128 -40
	.uleb128 0x25
	.long	0xb9e
	.uleb128 0x2
	.byte	0x91
	.sleb128 0
	.byte	0
	.uleb128 0xd
	.long	0x5c39
	.uleb128 0x26
	.long	0x39ce
	.quad	.LFB3251
	.quad	.LFE3251-.LFB3251
	.uleb128 0x1
	.byte	0x9c
	.long	0x6208
	.uleb128 0x4
	.long	.LASF560
	.long	0x5c34
	.uleb128 0x25
	.long	0x61d6
	.uleb128 0x2
	.byte	0x91
	.sleb128 -24
	.byte	0
	.uleb128 0x12
	.long	0x39f1
	.quad	.LFB3248
	.quad	.LFE3248-.LFB3248
	.uleb128 0x1
	.byte	0x9c
	.long	0x6270
	.uleb128 0x2e
	.long	.LASF528
	.long	0x4c58
	.byte	0
	.uleb128 0xa
	.string	"_II"
	.long	0x59c3
	.uleb128 0xa
	.string	"_OI"
	.long	0x59aa
	.uleb128 0xc
	.long	.LASF972
	.byte	0x2
	.value	0x20f
	.byte	0x17
	.long	0x59c3
	.uleb128 0x2
	.byte	0x91
	.sleb128 -40
	.uleb128 0xc
	.long	.LASF973
	.byte	0x2
	.value	0x20f
	.byte	0x24
	.long	0x59c3
	.uleb128 0x2
	.byte	0x91
	.sleb128 -48
	.uleb128 0xc
	.long	.LASF974
	.byte	0x2
	.value	0x20f
	.byte	0x30
	.long	0x59aa
	.uleb128 0x2
	.byte	0x91
	.sleb128 -56
	.byte	0
	.uleb128 0x26
	.long	0x3a32
	.quad	.LFB3247
	.quad	.LFE3247-.LFB3247
	.uleb128 0x1
	.byte	0x9c
	.long	0x62a5
	.uleb128 0x4
	.long	.LASF548
	.long	0x59c3
	.uleb128 0xc
	.long	.LASF979
	.byte	0x13
	.value	0x232
	.byte	0x1c
	.long	0x59c3
	.uleb128 0x2
	.byte	0x91
	.sleb128 -24
	.byte	0
	.uleb128 0x2d
	.long	0x252e
	.long	0x62c4
	.quad	.LFB3246
	.quad	.LFE3246-.LFB3246
	.uleb128 0x1
	.byte	0x9c
	.long	0x62d1
	.uleb128 0x15
	.long	.LASF960
	.long	0x5c43
	.uleb128 0x2
	.byte	0x91
	.sleb128 -24
	.byte	0
	.uleb128 0x12
	.long	0x3a56
	.quad	.LFB3245
	.quad	.LFE3245-.LFB3245
	.uleb128 0x1
	.byte	0x9c
	.long	0x6338
	.uleb128 0xa
	.string	"_OI"
	.long	0x5c34
	.uleb128 0x4
	.long	.LASF149
	.long	0x5e
	.uleb128 0xa
	.string	"_Tp"
	.long	0x3f
	.uleb128 0xc
	.long	.LASF972
	.byte	0x2
	.value	0x477
	.byte	0x10
	.long	0x5c34
	.uleb128 0x2
	.byte	0x91
	.sleb128 -24
	.uleb128 0x14
	.string	"__n"
	.byte	0x2
	.value	0x477
	.byte	0x1f
	.long	0x5e
	.uleb128 0x2
	.byte	0x91
	.sleb128 -32
	.uleb128 0xc
	.long	.LASF18
	.byte	0x2
	.value	0x477
	.byte	0x2f
	.long	0x5c52
	.uleb128 0x2
	.byte	0x91
	.sleb128 -40
	.byte	0
	.uleb128 0x12
	.long	0x3a96
	.quad	.LFB3244
	.quad	.LFE3244-.LFB3244
	.uleb128 0x1
	.byte	0x9c
	.long	0x6376
	.uleb128 0xa
	.string	"_Tp"
	.long	0x3f
	.uleb128 0x62
	.long	.LASF980
	.uleb128 0x2a
	.string	"__p"
	.byte	0xf
	.byte	0x6d
	.byte	0x15
	.long	0x5c34
	.uleb128 0x2
	.byte	0x91
	.sleb128 -24
	.uleb128 0x9e
	.byte	0xf
	.byte	0x6d
	.byte	0x21
	.byte	0
	.uleb128 0x26
	.long	0x3aba
	.quad	.LFB3243
	.quad	.LFE3243-.LFB3243
	.uleb128 0x1
	.byte	0x9c
	.long	0x63aa
	.uleb128 0xa
	.string	"_Tp"
	.long	0x3f
	.uleb128 0x2a
	.string	"__r"
	.byte	0x12
	.byte	0x31
	.byte	0x16
	.long	0x5c48
	.uleb128 0x2
	.byte	0x91
	.sleb128 -24
	.byte	0
	.uleb128 0x21
	.long	0x250f
	.long	0x63c9
	.quad	.LFB3242
	.quad	.LFE3242-.LFB3242
	.uleb128 0x1
	.byte	0x9c
	.long	0x63d6
	.uleb128 0x15
	.long	.LASF960
	.long	0x5c43
	.uleb128 0x2
	.byte	0x91
	.sleb128 -24
	.byte	0
	.uleb128 0x12
	.long	0x3add
	.quad	.LFB3241
	.quad	.LFE3241-.LFB3241
	.uleb128 0x1
	.byte	0x9c
	.long	0x6434
	.uleb128 0xa
	.string	"_II"
	.long	0x59c3
	.uleb128 0xa
	.string	"_OI"
	.long	0x59aa
	.uleb128 0xc
	.long	.LASF972
	.byte	0x2
	.value	0x263
	.byte	0xe
	.long	0x59c3
	.uleb128 0x2
	.byte	0x91
	.sleb128 -40
	.uleb128 0xc
	.long	.LASF973
	.byte	0x2
	.value	0x263
	.byte	0x1b
	.long	0x59c3
	.uleb128 0x2
	.byte	0x91
	.sleb128 -48
	.uleb128 0xc
	.long	.LASF974
	.byte	0x2
	.value	0x263
	.byte	0x27
	.long	0x59aa
	.uleb128 0x2
	.byte	0x91
	.sleb128 -56
	.byte	0
	.uleb128 0x2d
	.long	0x1125
	.long	0x6453
	.quad	.LFB3240
	.quad	.LFE3240-.LFB3240
	.uleb128 0x1
	.byte	0x9c
	.long	0x6460
	.uleb128 0x15
	.long	.LASF960
	.long	0x59b9
	.uleb128 0x2
	.byte	0x91
	.sleb128 -24
	.byte	0
	.uleb128 0x21
	.long	0x1106
	.long	0x647f
	.quad	.LFB3239
	.quad	.LFE3239-.LFB3239
	.uleb128 0x1
	.byte	0x9c
	.long	0x648c
	.uleb128 0x15
	.long	.LASF960
	.long	0x59b9
	.uleb128 0x2
	.byte	0x91
	.sleb128 -24
	.byte	0
	.uleb128 0x12
	.long	0x3b21
	.quad	.LFB3234
	.quad	.LFE3234-.LFB3234
	.uleb128 0x1
	.byte	0x9c
	.long	0x650a
	.uleb128 0xa
	.string	"_Tp"
	.long	0x3f
	.uleb128 0xa
	.string	"_Up"
	.long	0x3f
	.uleb128 0xc
	.long	.LASF972
	.byte	0x11
	.value	0x44c
	.byte	0x19
	.long	0x5c34
	.uleb128 0x2
	.byte	0x91
	.sleb128 -40
	.uleb128 0xc
	.long	.LASF973
	.byte	0x11
	.value	0x44c
	.byte	0x27
	.long	0x5c34
	.uleb128 0x2
	.byte	0x91
	.sleb128 -48
	.uleb128 0xc
	.long	.LASF974
	.byte	0x11
	.value	0x44d
	.byte	0xb
	.long	0x5c34
	.uleb128 0x2
	.byte	0x91
	.sleb128 -56
	.uleb128 0xc
	.long	.LASF981
	.byte	0x11
	.value	0x44e
	.byte	0x2b
	.long	0x5c66
	.uleb128 0x2
	.byte	0x91
	.sleb128 -64
	.uleb128 0x29
	.long	.LASF17
	.byte	0x11
	.value	0x450
	.byte	0x11
	.long	0xb51
	.uleb128 0x2
	.byte	0x91
	.sleb128 -24
	.byte	0
	.uleb128 0x26
	.long	0x3b5d
	.quad	.LFB3233
	.quad	.LFE3233-.LFB3233
	.uleb128 0x1
	.byte	0x9c
	.long	0x653f
	.uleb128 0x4
	.long	.LASF548
	.long	0x5c34
	.uleb128 0xc
	.long	.LASF979
	.byte	0x2
	.value	0x139
	.byte	0x1c
	.long	0x5c34
	.uleb128 0x2
	.byte	0x91
	.sleb128 -24
	.byte	0
	.uleb128 0x21
	.long	0x24b6
	.long	0x655e
	.quad	.LFB3232
	.quad	.LFE3232-.LFB3232
	.uleb128 0x1
	.byte	0x9c
	.long	0x658f
	.uleb128 0x15
	.long	.LASF960
	.long	0x5c2a
	.uleb128 0x2
	.byte	0x91
	.sleb128 -24
	.uleb128 0x2a
	.string	"__n"
	.byte	0xa
	.byte	0x70
	.byte	0x1a
	.long	0x24df
	.uleb128 0x2
	.byte	0x91
	.sleb128 -32
	.uleb128 0x25
	.long	0x509c
	.uleb128 0x2
	.byte	0x91
	.sleb128 -40
	.uleb128 0x4e
	.uleb128 0x4f
	.long	.LASF983
	.byte	0xa
	.byte	0x84
	.long	0x54b
	.byte	0
	.byte	0
	.uleb128 0x12
	.long	0xf93
	.quad	.LFB3231
	.quad	.LFE3231-.LFB3231
	.uleb128 0x1
	.byte	0x9c
	.long	0x65ff
	.uleb128 0x4
	.long	.LASF128
	.long	0x5c34
	.uleb128 0x4
	.long	.LASF149
	.long	0x5e
	.uleb128 0xc
	.long	.LASF972
	.byte	0x11
	.value	0x28f
	.byte	0x2d
	.long	0x5c34
	.uleb128 0x2
	.byte	0x91
	.sleb128 -40
	.uleb128 0x14
	.string	"__n"
	.byte	0x11
	.value	0x28f
	.byte	0x3c
	.long	0x5e
	.uleb128 0x2
	.byte	0x91
	.sleb128 -48
	.uleb128 0x6a
	.quad	.LBB40
	.quad	.LBE40-.LBB40
	.uleb128 0x29
	.long	.LASF984
	.byte	0x11
	.value	0x293
	.byte	0x40
	.long	0x65ff
	.uleb128 0x2
	.byte	0x91
	.sleb128 -24
	.byte	0
	.byte	0
	.uleb128 0x9
	.long	0x3752
	.uleb128 0x12
	.long	0x2692
	.quad	.LFB3230
	.quad	.LFE3230-.LFB3230
	.uleb128 0x1
	.byte	0x9c
	.long	0x6630
	.uleb128 0x14
	.string	"__a"
	.byte	0x9
	.value	0x223
	.byte	0x26
	.long	0x5c70
	.uleb128 0x2
	.byte	0x91
	.sleb128 -24
	.byte	0
	.uleb128 0x12
	.long	0xf46
	.quad	.LFB3229
	.quad	.LFE3229-.LFB3229
	.uleb128 0x1
	.byte	0x9c
	.long	0x668b
	.uleb128 0x4
	.long	.LASF144
	.long	0x59c3
	.uleb128 0x4
	.long	.LASF128
	.long	0x59aa
	.uleb128 0x20
	.long	.LASF972
	.byte	0x11
	.byte	0x91
	.byte	0x26
	.long	0x59c3
	.uleb128 0x2
	.byte	0x91
	.sleb128 -24
	.uleb128 0x20
	.long	.LASF973
	.byte	0x11
	.byte	0x91
	.byte	0x3e
	.long	0x59c3
	.uleb128 0x2
	.byte	0x91
	.sleb128 -32
	.uleb128 0x20
	.long	.LASF974
	.byte	0x11
	.byte	0x92
	.byte	0x1a
	.long	0x59aa
	.uleb128 0x2
	.byte	0x91
	.sleb128 -40
	.byte	0
	.uleb128 0x21
	.long	0x10ad
	.long	0x66aa
	.quad	.LFB3228
	.quad	.LFE3228-.LFB3228
	.uleb128 0x1
	.byte	0x9c
	.long	0x66db
	.uleb128 0x15
	.long	.LASF960
	.long	0x59a0
	.uleb128 0x2
	.byte	0x91
	.sleb128 -24
	.uleb128 0x2a
	.string	"__n"
	.byte	0xa
	.byte	0x70
	.byte	0x1a
	.long	0x10d6
	.uleb128 0x2
	.byte	0x91
	.sleb128 -32
	.uleb128 0x25
	.long	0x509c
	.uleb128 0x2
	.byte	0x91
	.sleb128 -40
	.uleb128 0x4e
	.uleb128 0x4f
	.long	.LASF983
	.byte	0xa
	.byte	0x84
	.long	0x54b
	.byte	0
	.byte	0
	.uleb128 0xd
	.long	0x65
	.uleb128 0x26
	.long	0x3b81
	.quad	.LFB3227
	.quad	.LFE3227-.LFB3227
	.uleb128 0x1
	.byte	0x9c
	.long	0x6723
	.uleb128 0xa
	.string	"_Tp"
	.long	0x5e
	.uleb128 0x2a
	.string	"__a"
	.byte	0x2
	.byte	0xe6
	.byte	0x14
	.long	0x66db
	.uleb128 0x2
	.byte	0x91
	.sleb128 -24
	.uleb128 0x2a
	.string	"__b"
	.byte	0x2
	.byte	0xe6
	.byte	0x24
	.long	0x66db
	.uleb128 0x2
	.byte	0x91
	.sleb128 -32
	.byte	0
	.uleb128 0x12
	.long	0x1289
	.quad	.LFB3226
	.quad	.LFE3226-.LFB3226
	.uleb128 0x1
	.byte	0x9c
	.long	0x674f
	.uleb128 0x14
	.string	"__a"
	.byte	0x9
	.value	0x223
	.byte	0x26
	.long	0x59eb
	.uleb128 0x2
	.byte	0x91
	.sleb128 -24
	.byte	0
	.uleb128 0x1b
	.long	0xff7
	.long	0x675c
	.long	0x676b
	.uleb128 0x10
	.long	.LASF960
	.long	0x59a0
	.uleb128 0x1
	.long	0x59a5
	.byte	0
	.uleb128 0x34
	.long	0x674f
	.long	.LASF989
	.long	0x678e
	.quad	.LFB3224
	.quad	.LFE3224-.LFB3224
	.uleb128 0x1
	.byte	0x9c
	.long	0x679f
	.uleb128 0x11
	.long	0x675c
	.uleb128 0x2
	.byte	0x91
	.sleb128 -24
	.uleb128 0x11
	.long	0x6765
	.uleb128 0x2
	.byte	0x91
	.sleb128 -32
	.byte	0
	.uleb128 0x21
	.long	0x10e2
	.long	0x67be
	.quad	.LFB3213
	.quad	.LFE3213-.LFB3213
	.uleb128 0x1
	.byte	0x9c
	.long	0x67e9
	.uleb128 0x15
	.long	.LASF960
	.long	0x59a0
	.uleb128 0x2
	.byte	0x91
	.sleb128 -24
	.uleb128 0x2a
	.string	"__p"
	.byte	0xa
	.byte	0x8e
	.byte	0x17
	.long	0x59aa
	.uleb128 0x2
	.byte	0x91
	.sleb128 -32
	.uleb128 0x2a
	.string	"__n"
	.byte	0xa
	.byte	0x8e
	.byte	0x26
	.long	0x10d6
	.uleb128 0x2
	.byte	0x91
	.sleb128 -40
	.byte	0
	.uleb128 0x12
	.long	0x3ba9
	.quad	.LFB3212
	.quad	.LFE3212-.LFB3212
	.uleb128 0x1
	.byte	0x9c
	.long	0x6860
	.uleb128 0x4
	.long	.LASF144
	.long	0x5c34
	.uleb128 0x4
	.long	.LASF128
	.long	0x5c34
	.uleb128 0x4
	.long	.LASF582
	.long	0x255b
	.uleb128 0xc
	.long	.LASF972
	.byte	0x11
	.value	0x467
	.byte	0x21
	.long	0x5c34
	.uleb128 0x2
	.byte	0x91
	.sleb128 -40
	.uleb128 0xc
	.long	.LASF973
	.byte	0x11
	.value	0x467
	.byte	0x39
	.long	0x5c34
	.uleb128 0x2
	.byte	0x91
	.sleb128 -48
	.uleb128 0xc
	.long	.LASF974
	.byte	0x11
	.value	0x468
	.byte	0x15
	.long	0x5c34
	.uleb128 0x2
	.byte	0x91
	.sleb128 -56
	.uleb128 0xc
	.long	.LASF981
	.byte	0x11
	.value	0x468
	.byte	0x2b
	.long	0x5c66
	.uleb128 0x2
	.byte	0x91
	.sleb128 -64
	.byte	0
	.uleb128 0x12
	.long	0x2600
	.quad	.LFB3211
	.quad	.LFE3211-.LFB3211
	.uleb128 0x1
	.byte	0x9c
	.long	0x689c
	.uleb128 0x14
	.string	"__a"
	.byte	0x9
	.value	0x1cf
	.byte	0x20
	.long	0x5c6b
	.uleb128 0x2
	.byte	0x91
	.sleb128 -24
	.uleb128 0x14
	.string	"__n"
	.byte	0x9
	.value	0x1cf
	.byte	0x2f
	.long	0x2632
	.uleb128 0x2
	.byte	0x91
	.sleb128 -32
	.byte	0
	.uleb128 0x26
	.long	0x3bee
	.quad	.LFB3210
	.quad	.LFE3210-.LFB3210
	.uleb128 0x1
	.byte	0x9c
	.long	0x68df
	.uleb128 0xa
	.string	"_Tp"
	.long	0x5e
	.uleb128 0x2a
	.string	"__a"
	.byte	0x2
	.byte	0xfe
	.byte	0x14
	.long	0x66db
	.uleb128 0x2
	.byte	0x91
	.sleb128 -24
	.uleb128 0x2a
	.string	"__b"
	.byte	0x2
	.byte	0xfe
	.byte	0x24
	.long	0x66db
	.uleb128 0x2
	.byte	0x91
	.sleb128 -32
	.byte	0
	.uleb128 0x12
	.long	0x3c16
	.quad	.LFB3209
	.quad	.LFE3209-.LFB3209
	.uleb128 0x1
	.byte	0x9c
	.long	0x693e
	.uleb128 0x4
	.long	.LASF128
	.long	0x5c34
	.uleb128 0x4
	.long	.LASF149
	.long	0x5e
	.uleb128 0xc
	.long	.LASF972
	.byte	0x11
	.value	0x2b3
	.byte	0x30
	.long	0x5c34
	.uleb128 0x2
	.byte	0x91
	.sleb128 -40
	.uleb128 0x14
	.string	"__n"
	.byte	0x11
	.value	0x2b3
	.byte	0x3f
	.long	0x5e
	.uleb128 0x2
	.byte	0x91
	.sleb128 -48
	.uleb128 0x9f
	.long	.LASF1063
	.byte	0x11
	.value	0x2b8
	.byte	0x16
	.long	0x4c5f
	.uleb128 0x2
	.byte	0x91
	.sleb128 -17
	.byte	0
	.uleb128 0x2d
	.long	0x28a0
	.long	0x695d
	.quad	.LFB3208
	.quad	.LFE3208-.LFB3208
	.uleb128 0x1
	.byte	0x9c
	.long	0x696a
	.uleb128 0x15
	.long	.LASF960
	.long	0x5cc5
	.uleb128 0x2
	.byte	0x91
	.sleb128 -24
	.byte	0
	.uleb128 0x12
	.long	0x35b9
	.quad	.LFB3207
	.quad	.LFE3207-.LFB3207
	.uleb128 0x1
	.byte	0x9c
	.long	0x69b6
	.uleb128 0x14
	.string	"__a"
	.byte	0x6
	.value	0x777
	.byte	0x29
	.long	0x5d10
	.uleb128 0x2
	.byte	0x91
	.sleb128 -40
	.uleb128 0x29
	.long	.LASF985
	.byte	0x6
	.value	0x77c
	.byte	0xf
	.long	0x566
	.uleb128 0x2
	.byte	0x91
	.sleb128 -24
	.uleb128 0x29
	.long	.LASF986
	.byte	0x6
	.value	0x77e
	.byte	0xf
	.long	0x566
	.uleb128 0x2
	.byte	0x91
	.sleb128 -32
	.byte	0
	.uleb128 0x12
	.long	0x3c48
	.quad	.LFB3205
	.quad	.LFE3205-.LFB3205
	.uleb128 0x1
	.byte	0x9c
	.long	0x6a2b
	.uleb128 0x4
	.long	.LASF144
	.long	0x59c3
	.uleb128 0x4
	.long	.LASF128
	.long	0x59aa
	.uleb128 0x20
	.long	.LASF972
	.byte	0x11
	.byte	0xa3
	.byte	0x27
	.long	0x59c3
	.uleb128 0x2
	.byte	0x91
	.sleb128 -40
	.uleb128 0x20
	.long	.LASF973
	.byte	0x11
	.byte	0xa3
	.byte	0x3f
	.long	0x59c3
	.uleb128 0x2
	.byte	0x91
	.sleb128 -48
	.uleb128 0x20
	.long	.LASF974
	.byte	0x11
	.byte	0xa4
	.byte	0x1b
	.long	0x59aa
	.uleb128 0x2
	.byte	0x91
	.sleb128 -56
	.uleb128 0x6b
	.long	.LASF987
	.byte	0xae
	.long	0x4c5f
	.uleb128 0x2
	.byte	0x91
	.sleb128 -17
	.uleb128 0x6b
	.long	.LASF988
	.byte	0xb5
	.long	0x4c5f
	.uleb128 0x2
	.byte	0x91
	.sleb128 -18
	.byte	0
	.uleb128 0x12
	.long	0x11f7
	.quad	.LFB3204
	.quad	.LFE3204-.LFB3204
	.uleb128 0x1
	.byte	0x9c
	.long	0x6a67
	.uleb128 0x14
	.string	"__a"
	.byte	0x9
	.value	0x1cf
	.byte	0x20
	.long	0x59e6
	.uleb128 0x2
	.byte	0x91
	.sleb128 -24
	.uleb128 0x14
	.string	"__n"
	.byte	0x9
	.value	0x1cf
	.byte	0x2f
	.long	0x1229
	.uleb128 0x2
	.byte	0x91
	.sleb128 -32
	.byte	0
	.uleb128 0x12
	.long	0x21b0
	.quad	.LFB3203
	.quad	.LFE3203-.LFB3203
	.uleb128 0x1
	.byte	0x9c
	.long	0x6ab3
	.uleb128 0x14
	.string	"__a"
	.byte	0x6
	.value	0x777
	.byte	0x29
	.long	0x5a81
	.uleb128 0x2
	.byte	0x91
	.sleb128 -40
	.uleb128 0x29
	.long	.LASF985
	.byte	0x6
	.value	0x77c
	.byte	0xf
	.long	0x566
	.uleb128 0x2
	.byte	0x91
	.sleb128 -24
	.uleb128 0x29
	.long	.LASF986
	.byte	0x6
	.value	0x77e
	.byte	0xf
	.long	0x566
	.uleb128 0x2
	.byte	0x91
	.sleb128 -32
	.byte	0
	.uleb128 0x1b
	.long	0x131b
	.long	0x6ac0
	.long	0x6aca
	.uleb128 0x10
	.long	.LASF960
	.long	0x59ff
	.byte	0
	.uleb128 0x34
	.long	0x6ab3
	.long	.LASF990
	.long	0x6aed
	.quad	.LFB3201
	.quad	.LFE3201-.LFB3201
	.uleb128 0x1
	.byte	0x9c
	.long	0x6af6
	.uleb128 0x11
	.long	0x6ac0
	.uleb128 0x2
	.byte	0x91
	.sleb128 -24
	.byte	0
	.uleb128 0x1b
	.long	0x117f
	.long	0x6b03
	.long	0x6b19
	.uleb128 0x10
	.long	.LASF960
	.long	0x59d7
	.uleb128 0x50
	.string	"__a"
	.byte	0x7
	.byte	0x9f
	.byte	0x22
	.long	0x59dc
	.byte	0
	.uleb128 0x23
	.long	0x6af6
	.long	.LASF991
	.long	0x6b3c
	.quad	.LFB3198
	.quad	.LFE3198-.LFB3198
	.uleb128 0x1
	.byte	0x9c
	.long	0x6b4d
	.uleb128 0x11
	.long	0x6b03
	.uleb128 0x2
	.byte	0x91
	.sleb128 -24
	.uleb128 0x11
	.long	0x6b0c
	.uleb128 0x2
	.byte	0x91
	.sleb128 -32
	.byte	0
	.uleb128 0x21
	.long	0x24eb
	.long	0x6b6c
	.quad	.LFB3196
	.quad	.LFE3196-.LFB3196
	.uleb128 0x1
	.byte	0x9c
	.long	0x6b97
	.uleb128 0x15
	.long	.LASF960
	.long	0x5c2a
	.uleb128 0x2
	.byte	0x91
	.sleb128 -24
	.uleb128 0x2a
	.string	"__p"
	.byte	0xa
	.byte	0x8e
	.byte	0x17
	.long	0x5c34
	.uleb128 0x2
	.byte	0x91
	.sleb128 -32
	.uleb128 0x2a
	.string	"__n"
	.byte	0xa
	.byte	0x8e
	.byte	0x26
	.long	0x24df
	.uleb128 0x2
	.byte	0x91
	.sleb128 -40
	.byte	0
	.uleb128 0x26
	.long	0xbc6
	.quad	.LFB3174
	.quad	.LFE3174-.LFB3174
	.uleb128 0x1
	.byte	0x9c
	.long	0x6bcc
	.uleb128 0x4
	.long	.LASF128
	.long	0x59aa
	.uleb128 0x25
	.long	0x59aa
	.uleb128 0x2
	.byte	0x91
	.sleb128 -24
	.uleb128 0x25
	.long	0x59aa
	.uleb128 0x2
	.byte	0x91
	.sleb128 -32
	.byte	0
	.uleb128 0x12
	.long	0x1268
	.quad	.LFB3173
	.quad	.LFE3173-.LFB3173
	.uleb128 0x1
	.byte	0x9c
	.long	0x6c18
	.uleb128 0x14
	.string	"__a"
	.byte	0x9
	.value	0x1ef
	.byte	0x22
	.long	0x59e6
	.uleb128 0x2
	.byte	0x91
	.sleb128 -24
	.uleb128 0x14
	.string	"__p"
	.byte	0x9
	.value	0x1ef
	.byte	0x2f
	.long	0x11ea
	.uleb128 0x2
	.byte	0x91
	.sleb128 -32
	.uleb128 0x14
	.string	"__n"
	.byte	0x9
	.value	0x1ef
	.byte	0x3e
	.long	0x1229
	.uleb128 0x2
	.byte	0x91
	.sleb128 -40
	.byte	0
	.uleb128 0x26
	.long	0xbea
	.quad	.LFB3172
	.quad	.LFE3172-.LFB3172
	.uleb128 0x1
	.byte	0x9c
	.long	0x6c4d
	.uleb128 0x4
	.long	.LASF128
	.long	0x5c34
	.uleb128 0x25
	.long	0x5c34
	.uleb128 0x2
	.byte	0x91
	.sleb128 -24
	.uleb128 0x25
	.long	0x5c34
	.uleb128 0x2
	.byte	0x91
	.sleb128 -32
	.byte	0
	.uleb128 0x12
	.long	0x2bb7
	.quad	.LFB3171
	.quad	.LFE3171-.LFB3171
	.uleb128 0x1
	.byte	0x9c
	.long	0x6ca9
	.uleb128 0xc
	.long	.LASF972
	.byte	0x6
	.value	0x1f3
	.byte	0x1b
	.long	0x2b3a
	.uleb128 0x2
	.byte	0x91
	.sleb128 -24
	.uleb128 0xc
	.long	.LASF973
	.byte	0x6
	.value	0x1f3
	.byte	0x2c
	.long	0x2b3a
	.uleb128 0x2
	.byte	0x91
	.sleb128 -32
	.uleb128 0xc
	.long	.LASF974
	.byte	0x6
	.value	0x1f3
	.byte	0x3c
	.long	0x2b3a
	.uleb128 0x2
	.byte	0x91
	.sleb128 -40
	.uleb128 0xc
	.long	.LASF981
	.byte	0x6
	.value	0x1f4
	.byte	0x15
	.long	0x5cd4
	.uleb128 0x2
	.byte	0x91
	.sleb128 -48
	.byte	0
	.uleb128 0x21
	.long	0x2a0d
	.long	0x6cc8
	.quad	.LFB3170
	.quad	.LFE3170-.LFB3170
	.uleb128 0x1
	.byte	0x9c
	.long	0x6ce5
	.uleb128 0x15
	.long	.LASF960
	.long	0x5cbb
	.uleb128 0x2
	.byte	0x91
	.sleb128 -24
	.uleb128 0x14
	.string	"__n"
	.byte	0x6
	.value	0x177
	.byte	0x1a
	.long	0x559
	.uleb128 0x2
	.byte	0x91
	.sleb128 -32
	.byte	0
	.uleb128 0x21
	.long	0x3571
	.long	0x6d04
	.quad	.LFB3169
	.quad	.LFE3169-.LFB3169
	.uleb128 0x1
	.byte	0x9c
	.long	0x6d42
	.uleb128 0x15
	.long	.LASF960
	.long	0x5d06
	.uleb128 0x2
	.byte	0x91
	.sleb128 -56
	.uleb128 0x14
	.string	"__n"
	.byte	0x6
	.value	0x763
	.byte	0x1e
	.long	0x2c50
	.uleb128 0x2
	.byte	0x91
	.sleb128 -64
	.uleb128 0x14
	.string	"__s"
	.byte	0x6
	.value	0x763
	.byte	0x2f
	.long	0x2e7
	.uleb128 0x3
	.byte	0x91
	.sleb128 -72
	.uleb128 0x29
	.long	.LASF992
	.byte	0x6
	.value	0x768
	.byte	0x12
	.long	0x2c5d
	.uleb128 0x2
	.byte	0x91
	.sleb128 -40
	.byte	0
	.uleb128 0x12
	.long	0x3c7e
	.quad	.LFB3168
	.quad	.LFE3168-.LFB3168
	.uleb128 0x1
	.byte	0x9c
	.long	0x6da1
	.uleb128 0x4
	.long	.LASF128
	.long	0x5c34
	.uleb128 0x4
	.long	.LASF149
	.long	0x5e
	.uleb128 0xa
	.string	"_Tp"
	.long	0x3f
	.uleb128 0xc
	.long	.LASF972
	.byte	0x11
	.value	0x2fc
	.byte	0x32
	.long	0x5c34
	.uleb128 0x2
	.byte	0x91
	.sleb128 -24
	.uleb128 0x14
	.string	"__n"
	.byte	0x11
	.value	0x2fc
	.byte	0x41
	.long	0x5e
	.uleb128 0x2
	.byte	0x91
	.sleb128 -32
	.uleb128 0x25
	.long	0x5c66
	.uleb128 0x2
	.byte	0x91
	.sleb128 -40
	.byte	0
	.uleb128 0x21
	.long	0x3045
	.long	0x6dc0
	.quad	.LFB3167
	.quad	.LFE3167-.LFB3167
	.uleb128 0x1
	.byte	0x9c
	.long	0x6dcd
	.uleb128 0x15
	.long	.LASF960
	.long	0x5d06
	.uleb128 0x2
	.byte	0x91
	.sleb128 -24
	.byte	0
	.uleb128 0x2d
	.long	0x4a61
	.long	0x6dec
	.quad	.LFB3166
	.quad	.LFE3166-.LFB3166
	.uleb128 0x1
	.byte	0x9c
	.long	0x6df9
	.uleb128 0x15
	.long	.LASF960
	.long	0x5d4c
	.uleb128 0x2
	.byte	0x91
	.sleb128 -24
	.byte	0
	.uleb128 0x12
	.long	0x3cbe
	.quad	.LFB3165
	.quad	.LFE3165-.LFB3165
	.uleb128 0x1
	.byte	0x9c
	.long	0x6e68
	.uleb128 0x4
	.long	.LASF144
	.long	0x59c3
	.uleb128 0x4
	.long	.LASF128
	.long	0x59aa
	.uleb128 0xa
	.string	"_Tp"
	.long	0x446c
	.uleb128 0xc
	.long	.LASF972
	.byte	0x11
	.value	0x16d
	.byte	0x2b
	.long	0x59c3
	.uleb128 0x2
	.byte	0x91
	.sleb128 -24
	.uleb128 0xc
	.long	.LASF973
	.byte	0x11
	.value	0x16d
	.byte	0x43
	.long	0x59c3
	.uleb128 0x2
	.byte	0x91
	.sleb128 -32
	.uleb128 0xc
	.long	.LASF974
	.byte	0x11
	.value	0x16e
	.byte	0x18
	.long	0x59aa
	.uleb128 0x2
	.byte	0x91
	.sleb128 -40
	.uleb128 0x25
	.long	0x59e1
	.uleb128 0x2
	.byte	0x91
	.sleb128 -48
	.byte	0
	.uleb128 0x21
	.long	0x1604
	.long	0x6e87
	.quad	.LFB3164
	.quad	.LFE3164-.LFB3164
	.uleb128 0x1
	.byte	0x9c
	.long	0x6ea4
	.uleb128 0x15
	.long	.LASF960
	.long	0x5a36
	.uleb128 0x2
	.byte	0x91
	.sleb128 -24
	.uleb128 0x14
	.string	"__n"
	.byte	0x6
	.value	0x177
	.byte	0x1a
	.long	0x559
	.uleb128 0x2
	.byte	0x91
	.sleb128 -32
	.byte	0
	.uleb128 0x12
	.long	0x2192
	.quad	.LFB3163
	.quad	.LFE3163-.LFB3163
	.uleb128 0x1
	.byte	0x9c
	.long	0x6ee0
	.uleb128 0x14
	.string	"__n"
	.byte	0x6
	.value	0x76e
	.byte	0x23
	.long	0x1847
	.uleb128 0x2
	.byte	0x91
	.sleb128 -56
	.uleb128 0x14
	.string	"__a"
	.byte	0x6
	.value	0x76e
	.byte	0x3e
	.long	0x5a59
	.uleb128 0x2
	.byte	0x91
	.sleb128 -64
	.byte	0
	.uleb128 0x26
	.long	0x3d03
	.quad	.LFB3162
	.quad	.LFE3162-.LFB3162
	.uleb128 0x1
	.byte	0x9c
	.long	0x6f2b
	.uleb128 0x4
	.long	.LASF595
	.long	0x59c3
	.uleb128 0x20
	.long	.LASF972
	.byte	0xc
	.byte	0x63
	.byte	0x26
	.long	0x59c3
	.uleb128 0x2
	.byte	0x91
	.sleb128 -24
	.uleb128 0x20
	.long	.LASF973
	.byte	0xc
	.byte	0x63
	.byte	0x45
	.long	0x59c3
	.uleb128 0x2
	.byte	0x91
	.sleb128 -32
	.uleb128 0x25
	.long	0xb9e
	.uleb128 0x2
	.byte	0x91
	.sleb128 0
	.byte	0
	.uleb128 0xd
	.long	0x59c8
	.uleb128 0x26
	.long	0x3d30
	.quad	.LFB3161
	.quad	.LFE3161-.LFB3161
	.uleb128 0x1
	.byte	0x9c
	.long	0x6f5d
	.uleb128 0x4
	.long	.LASF560
	.long	0x59c3
	.uleb128 0x25
	.long	0x6f2b
	.uleb128 0x2
	.byte	0x91
	.sleb128 -24
	.byte	0
	.uleb128 0x2d
	.long	0x2363
	.long	0x6f7c
	.quad	.LFB3160
	.quad	.LFE3160-.LFB3160
	.uleb128 0x1
	.byte	0x9c
	.long	0x6f89
	.uleb128 0x15
	.long	.LASF960
	.long	0x5d33
	.uleb128 0x2
	.byte	0x91
	.sleb128 -24
	.byte	0
	.uleb128 0x1b
	.long	0x13cf
	.long	0x6f96
	.long	0x6fac
	.uleb128 0x10
	.long	.LASF960
	.long	0x5a18
	.uleb128 0x50
	.string	"__a"
	.byte	0x6
	.byte	0x8f
	.byte	0x25
	.long	0x5a1d
	.byte	0
	.uleb128 0x23
	.long	0x6f89
	.long	.LASF993
	.long	0x6fcf
	.quad	.LFB3158
	.quad	.LFE3158-.LFB3158
	.uleb128 0x1
	.byte	0x9c
	.long	0x6fe0
	.uleb128 0x11
	.long	0x6f96
	.uleb128 0x2
	.byte	0x91
	.sleb128 -24
	.uleb128 0x11
	.long	0x6f9f
	.uleb128 0x2
	.byte	0x91
	.sleb128 -32
	.byte	0
	.uleb128 0x12
	.long	0x2671
	.quad	.LFB3156
	.quad	.LFE3156-.LFB3156
	.uleb128 0x1
	.byte	0x9c
	.long	0x702c
	.uleb128 0x14
	.string	"__a"
	.byte	0x9
	.value	0x1ef
	.byte	0x22
	.long	0x5c6b
	.uleb128 0x2
	.byte	0x91
	.sleb128 -24
	.uleb128 0x14
	.string	"__p"
	.byte	0x9
	.value	0x1ef
	.byte	0x2f
	.long	0x25f3
	.uleb128 0x2
	.byte	0x91
	.sleb128 -32
	.uleb128 0x14
	.string	"__n"
	.byte	0x9
	.value	0x1ef
	.byte	0x3e
	.long	0x2632
	.uleb128 0x2
	.byte	0x91
	.sleb128 -40
	.byte	0
	.uleb128 0x1b
	.long	0x23e6
	.long	0x7039
	.long	0x7043
	.uleb128 0x10
	.long	.LASF960
	.long	0x5c2a
	.byte	0
	.uleb128 0x34
	.long	0x702c
	.long	.LASF994
	.long	0x7066
	.quad	.LFB3154
	.quad	.LFE3154-.LFB3154
	.uleb128 0x1
	.byte	0x9c
	.long	0x706f
	.uleb128 0x11
	.long	0x7039
	.uleb128 0x2
	.byte	0x91
	.sleb128 -24
	.byte	0
	.uleb128 0x12
	.long	0x3d53
	.quad	.LFB3098
	.quad	.LFE3098-.LFB3098
	.uleb128 0x1
	.byte	0x9c
	.long	0x70b2
	.uleb128 0x4
	.long	.LASF128
	.long	0x59aa
	.uleb128 0x20
	.long	.LASF972
	.byte	0xf
	.byte	0xb6
	.byte	0x1f
	.long	0x59aa
	.uleb128 0x2
	.byte	0x91
	.sleb128 -24
	.uleb128 0x20
	.long	.LASF973
	.byte	0xf
	.byte	0xb6
	.byte	0x39
	.long	0x59aa
	.uleb128 0x2
	.byte	0x91
	.sleb128 -32
	.byte	0
	.uleb128 0x21
	.long	0x1626
	.long	0x70d1
	.quad	.LFB3097
	.quad	.LFE3097-.LFB3097
	.uleb128 0x1
	.byte	0x9c
	.long	0x70fe
	.uleb128 0x15
	.long	.LASF960
	.long	0x5a36
	.uleb128 0x2
	.byte	0x91
	.sleb128 -24
	.uleb128 0x14
	.string	"__p"
	.byte	0x6
	.value	0x17f
	.byte	0x1d
	.long	0x1392
	.uleb128 0x2
	.byte	0x91
	.sleb128 -32
	.uleb128 0x14
	.string	"__n"
	.byte	0x6
	.value	0x17f
	.byte	0x29
	.long	0x559
	.uleb128 0x2
	.byte	0x91
	.sleb128 -40
	.byte	0
	.uleb128 0x12
	.long	0x3d77
	.quad	.LFB3096
	.quad	.LFE3096-.LFB3096
	.uleb128 0x1
	.byte	0x9c
	.long	0x7141
	.uleb128 0x4
	.long	.LASF128
	.long	0x5c34
	.uleb128 0x20
	.long	.LASF972
	.byte	0xf
	.byte	0xb6
	.byte	0x1f
	.long	0x5c34
	.uleb128 0x2
	.byte	0x91
	.sleb128 -24
	.uleb128 0x20
	.long	.LASF973
	.byte	0xf
	.byte	0xb6
	.byte	0x39
	.long	0x5c34
	.uleb128 0x2
	.byte	0x91
	.sleb128 -32
	.byte	0
	.uleb128 0x21
	.long	0x35d2
	.long	0x7160
	.quad	.LFB3095
	.quad	.LFE3095-.LFB3095
	.uleb128 0x1
	.byte	0x9c
	.long	0x719e
	.uleb128 0x15
	.long	.LASF960
	.long	0x5cde
	.uleb128 0x2
	.byte	0x91
	.sleb128 -40
	.uleb128 0xc
	.long	.LASF877
	.byte	0x6
	.value	0x788
	.byte	0x1f
	.long	0x2b3a
	.uleb128 0x2
	.byte	0x91
	.sleb128 -48
	.uleb128 0x6a
	.quad	.LBB35
	.quad	.LBE35-.LBB35
	.uleb128 0x6c
	.string	"__n"
	.value	0x78a
	.byte	0x10
	.long	0x2c50
	.uleb128 0x2
	.byte	0x91
	.sleb128 -24
	.byte	0
	.byte	0
	.uleb128 0x21
	.long	0x34dc
	.long	0x71bd
	.quad	.LFB3090
	.quad	.LFE3090-.LFB3090
	.uleb128 0x1
	.byte	0x9c
	.long	0x7228
	.uleb128 0x15
	.long	.LASF960
	.long	0x5cde
	.uleb128 0x3
	.byte	0x91
	.sleb128 -72
	.uleb128 0x14
	.string	"__n"
	.byte	0xe
	.value	0x273
	.byte	0x21
	.long	0x2c50
	.uleb128 0x3
	.byte	0x91
	.sleb128 -80
	.uleb128 0x6d
	.long	.LLRL0
	.uleb128 0x29
	.long	.LASF995
	.byte	0xe
	.value	0x277
	.byte	0x14
	.long	0x2c5d
	.uleb128 0x2
	.byte	0x91
	.sleb128 -40
	.uleb128 0x29
	.long	.LASF996
	.byte	0xe
	.value	0x278
	.byte	0xe
	.long	0x2c50
	.uleb128 0x2
	.byte	0x91
	.sleb128 -48
	.uleb128 0x6d
	.long	.LLRL1
	.uleb128 0x29
	.long	.LASF992
	.byte	0xe
	.value	0x288
	.byte	0x18
	.long	0x2c5d
	.uleb128 0x2
	.byte	0x91
	.sleb128 -56
	.uleb128 0x29
	.long	.LASF997
	.byte	0xe
	.value	0x28a
	.byte	0x10
	.long	0x2b3a
	.uleb128 0x2
	.byte	0x91
	.sleb128 -64
	.byte	0
	.byte	0
	.byte	0
	.uleb128 0x2d
	.long	0x48c4
	.long	0x7247
	.quad	.LFB3089
	.quad	.LFE3089-.LFB3089
	.uleb128 0x1
	.byte	0x9c
	.long	0x7254
	.uleb128 0x15
	.long	.LASF960
	.long	0x5d4c
	.uleb128 0x2
	.byte	0x91
	.sleb128 -24
	.byte	0
	.uleb128 0x2d
	.long	0x4911
	.long	0x7273
	.quad	.LFB3088
	.quad	.LFE3088-.LFB3088
	.uleb128 0x1
	.byte	0x9c
	.long	0x7280
	.uleb128 0x15
	.long	.LASF960
	.long	0x5d3d
	.uleb128 0x2
	.byte	0x91
	.sleb128 -24
	.byte	0
	.uleb128 0xd
	.long	0x4a94
	.uleb128 0x12
	.long	0x4bb7
	.quad	.LFB3087
	.quad	.LFE3087-.LFB3087
	.uleb128 0x1
	.byte	0x9c
	.long	0x72d3
	.uleb128 0x4
	.long	.LASF548
	.long	0x59aa
	.uleb128 0x4
	.long	.LASF734
	.long	0x16a5
	.uleb128 0xc
	.long	.LASF998
	.byte	0xd
	.value	0x4d5
	.byte	0x40
	.long	0x7280
	.uleb128 0x2
	.byte	0x91
	.sleb128 -40
	.uleb128 0xc
	.long	.LASF999
	.byte	0xd
	.value	0x4d6
	.byte	0x39
	.long	0x7280
	.uleb128 0x2
	.byte	0x91
	.sleb128 -48
	.byte	0
	.uleb128 0x1b
	.long	0x4898
	.long	0x72e0
	.long	0x72f7
	.uleb128 0x10
	.long	.LASF960
	.long	0x5d3d
	.uleb128 0x3d
	.string	"__i"
	.byte	0xd
	.value	0x430
	.byte	0x2a
	.long	0x5d42
	.byte	0
	.uleb128 0x34
	.long	0x72d3
	.long	.LASF1000
	.long	0x731a
	.quad	.LFB3085
	.quad	.LFE3085-.LFB3085
	.uleb128 0x1
	.byte	0x9c
	.long	0x732b
	.uleb128 0x11
	.long	0x72e0
	.uleb128 0x2
	.byte	0x91
	.sleb128 -24
	.uleb128 0x11
	.long	0x72e9
	.uleb128 0x2
	.byte	0x91
	.sleb128 -32
	.byte	0
	.uleb128 0x21
	.long	0x227d
	.long	0x7353
	.quad	.LFB3082
	.quad	.LFE3082-.LFB3082
	.uleb128 0x1
	.byte	0x9c
	.long	0x7398
	.uleb128 0x4
	.long	.LASF128
	.long	0x59c3
	.uleb128 0x15
	.long	.LASF960
	.long	0x5a54
	.uleb128 0x2
	.byte	0x91
	.sleb128 -56
	.uleb128 0xc
	.long	.LASF972
	.byte	0x6
	.value	0x692
	.byte	0x27
	.long	0x59c3
	.uleb128 0x2
	.byte	0x91
	.sleb128 -64
	.uleb128 0xc
	.long	.LASF973
	.byte	0x6
	.value	0x692
	.byte	0x41
	.long	0x59c3
	.uleb128 0x3
	.byte	0x91
	.sleb128 -72
	.uleb128 0x25
	.long	0xb78
	.uleb128 0x2
	.byte	0x91
	.sleb128 0
	.uleb128 0x6c
	.string	"__n"
	.value	0x695
	.byte	0x14
	.long	0x1854
	.uleb128 0x2
	.byte	0x91
	.sleb128 -40
	.byte	0
	.uleb128 0x12
	.long	0x3d9b
	.quad	.LFB3083
	.quad	.LFE3083-.LFB3083
	.uleb128 0x1
	.byte	0x9c
	.long	0x73db
	.uleb128 0x4
	.long	.LASF144
	.long	0x59c3
	.uleb128 0x20
	.long	.LASF972
	.byte	0xc
	.byte	0x93
	.byte	0x1d
	.long	0x59c3
	.uleb128 0x2
	.byte	0x91
	.sleb128 -24
	.uleb128 0x20
	.long	.LASF973
	.byte	0xc
	.byte	0x93
	.byte	0x35
	.long	0x59c3
	.uleb128 0x2
	.byte	0x91
	.sleb128 -32
	.byte	0
	.uleb128 0x21
	.long	0x23a1
	.long	0x73fa
	.quad	.LFB3081
	.quad	.LFE3081-.LFB3081
	.uleb128 0x1
	.byte	0x9c
	.long	0x7407
	.uleb128 0x15
	.long	.LASF960
	.long	0x5d33
	.uleb128 0x2
	.byte	0x91
	.sleb128 -40
	.byte	0
	.uleb128 0x2d
	.long	0x2382
	.long	0x7426
	.quad	.LFB3080
	.quad	.LFE3080-.LFB3080
	.uleb128 0x1
	.byte	0x9c
	.long	0x7433
	.uleb128 0x15
	.long	.LASF960
	.long	0x5d33
	.uleb128 0x2
	.byte	0x91
	.sleb128 -24
	.byte	0
	.uleb128 0x1b
	.long	0x14fc
	.long	0x7440
	.long	0x7457
	.uleb128 0x10
	.long	.LASF960
	.long	0x5a36
	.uleb128 0x3d
	.string	"__a"
	.byte	0x6
	.value	0x13e
	.byte	0x2a
	.long	0x5a40
	.byte	0
	.uleb128 0x23
	.long	0x7433
	.long	.LASF1001
	.long	0x747a
	.quad	.LFB3078
	.quad	.LFE3078-.LFB3078
	.uleb128 0x1
	.byte	0x9c
	.long	0x748b
	.uleb128 0x11
	.long	0x7440
	.uleb128 0x2
	.byte	0x91
	.sleb128 -24
	.uleb128 0x11
	.long	0x7449
	.uleb128 0x2
	.byte	0x91
	.sleb128 -32
	.byte	0
	.uleb128 0x1b
	.long	0x1016
	.long	0x7498
	.long	0x74ab
	.uleb128 0x10
	.long	.LASF960
	.long	0x59a0
	.uleb128 0x10
	.long	.LASF1002
	.long	0x11f
	.byte	0
	.uleb128 0x34
	.long	0x748b
	.long	.LASF1003
	.long	0x74ce
	.quad	.LFB3075
	.quad	.LFE3075-.LFB3075
	.uleb128 0x1
	.byte	0x9c
	.long	0x74d7
	.uleb128 0x11
	.long	0x7498
	.uleb128 0x2
	.byte	0x91
	.sleb128 -24
	.byte	0
	.uleb128 0x1b
	.long	0xfdd
	.long	0x74e4
	.long	0x74ee
	.uleb128 0x10
	.long	.LASF960
	.long	0x59a0
	.byte	0
	.uleb128 0x34
	.long	0x74d7
	.long	.LASF1004
	.long	0x7511
	.quad	.LFB3072
	.quad	.LFE3072-.LFB3072
	.uleb128 0x1
	.byte	0x9c
	.long	0x751a
	.uleb128 0x11
	.long	0x74e4
	.uleb128 0x2
	.byte	0x91
	.sleb128 -24
	.byte	0
	.uleb128 0x21
	.long	0x2a2f
	.long	0x7539
	.quad	.LFB3070
	.quad	.LFE3070-.LFB3070
	.uleb128 0x1
	.byte	0x9c
	.long	0x7566
	.uleb128 0x15
	.long	.LASF960
	.long	0x5cbb
	.uleb128 0x2
	.byte	0x91
	.sleb128 -24
	.uleb128 0x14
	.string	"__p"
	.byte	0x6
	.value	0x17f
	.byte	0x1d
	.long	0x279b
	.uleb128 0x2
	.byte	0x91
	.sleb128 -32
	.uleb128 0x14
	.string	"__n"
	.byte	0x6
	.value	0x17f
	.byte	0x29
	.long	0x559
	.uleb128 0x2
	.byte	0x91
	.sleb128 -40
	.byte	0
	.uleb128 0x1b
	.long	0x241f
	.long	0x7573
	.long	0x7586
	.uleb128 0x10
	.long	.LASF960
	.long	0x5c2a
	.uleb128 0x10
	.long	.LASF1002
	.long	0x11f
	.byte	0
	.uleb128 0x34
	.long	0x7566
	.long	.LASF1005
	.long	0x75a9
	.quad	.LFB3068
	.quad	.LFE3068-.LFB3068
	.uleb128 0x1
	.byte	0x9c
	.long	0x75b2
	.uleb128 0x11
	.long	0x7573
	.uleb128 0x2
	.byte	0x91
	.sleb128 -24
	.byte	0
	.uleb128 0x1b
	.long	0x2724
	.long	0x75bf
	.long	0x75c9
	.uleb128 0x10
	.long	.LASF960
	.long	0x5c84
	.byte	0
	.uleb128 0x34
	.long	0x75b2
	.long	.LASF1006
	.long	0x75ec
	.quad	.LFB3065
	.quad	.LFE3065-.LFB3065
	.uleb128 0x1
	.byte	0x9c
	.long	0x75f5
	.uleb128 0x11
	.long	0x75bf
	.uleb128 0x2
	.byte	0x91
	.sleb128 -24
	.byte	0
	.uleb128 0x1b
	.long	0x256e
	.long	0x7602
	.long	0x760c
	.uleb128 0x10
	.long	.LASF960
	.long	0x5c5c
	.byte	0
	.uleb128 0x23
	.long	0x75f5
	.long	.LASF1007
	.long	0x762f
	.quad	.LFB3062
	.quad	.LFE3062-.LFB3062
	.uleb128 0x1
	.byte	0x9c
	.long	0x7638
	.uleb128 0x11
	.long	0x7602
	.uleb128 0x2
	.byte	0x91
	.sleb128 -24
	.byte	0
	.uleb128 0x2d
	.long	0x3025
	.long	0x7657
	.quad	.LFB2992
	.quad	.LFE2992-.LFB2992
	.uleb128 0x1
	.byte	0x9c
	.long	0x7664
	.uleb128 0x15
	.long	.LASF960
	.long	0x5d06
	.uleb128 0x2
	.byte	0x91
	.sleb128 -24
	.byte	0
	.uleb128 0x12
	.long	0x3dc3
	.quad	.LFB2991
	.quad	.LFE2991-.LFB2991
	.uleb128 0x1
	.byte	0x9c
	.long	0x76ba
	.uleb128 0x4
	.long	.LASF128
	.long	0x59aa
	.uleb128 0xa
	.string	"_Tp"
	.long	0x446c
	.uleb128 0xc
	.long	.LASF972
	.byte	0x9
	.value	0x34f
	.byte	0x1f
	.long	0x59aa
	.uleb128 0x2
	.byte	0x91
	.sleb128 -24
	.uleb128 0xc
	.long	.LASF973
	.byte	0x9
	.value	0x34f
	.byte	0x39
	.long	0x59aa
	.uleb128 0x2
	.byte	0x91
	.sleb128 -32
	.uleb128 0x25
	.long	0x59e1
	.uleb128 0x2
	.byte	0x91
	.sleb128 -40
	.byte	0
	.uleb128 0x2d
	.long	0x147a
	.long	0x76d9
	.quad	.LFB2990
	.quad	.LFE2990-.LFB2990
	.uleb128 0x1
	.byte	0x9c
	.long	0x76e6
	.uleb128 0x15
	.long	.LASF960
	.long	0x5a36
	.uleb128 0x2
	.byte	0x91
	.sleb128 -24
	.byte	0
	.uleb128 0x1b
	.long	0x15dd
	.long	0x76f3
	.long	0x7706
	.uleb128 0x10
	.long	.LASF960
	.long	0x5a36
	.uleb128 0x10
	.long	.LASF1002
	.long	0x11f
	.byte	0
	.uleb128 0x23
	.long	0x76e6
	.long	.LASF1008
	.long	0x7729
	.quad	.LFB2988
	.quad	.LFE2988-.LFB2988
	.uleb128 0x1
	.byte	0x9c
	.long	0x7732
	.uleb128 0x11
	.long	0x76f3
	.uleb128 0x2
	.byte	0x91
	.sleb128 -24
	.byte	0
	.uleb128 0x51
	.long	0x1450
	.byte	0x6
	.byte	0x85
	.byte	0xe
	.long	0x7742
	.long	0x7755
	.uleb128 0x10
	.long	.LASF960
	.long	0x5a18
	.uleb128 0x10
	.long	.LASF1002
	.long	0x11f
	.byte	0
	.uleb128 0x23
	.long	0x7732
	.long	.LASF1009
	.long	0x7778
	.quad	.LFB2986
	.quad	.LFE2986-.LFB2986
	.uleb128 0x1
	.byte	0x9c
	.long	0x7781
	.uleb128 0x11
	.long	0x7742
	.uleb128 0x2
	.byte	0x91
	.sleb128 -24
	.byte	0
	.uleb128 0x12
	.long	0x3df6
	.quad	.LFB2983
	.quad	.LFE2983-.LFB2983
	.uleb128 0x1
	.byte	0x9c
	.long	0x77d7
	.uleb128 0x4
	.long	.LASF128
	.long	0x5c34
	.uleb128 0xa
	.string	"_Tp"
	.long	0x3f
	.uleb128 0xc
	.long	.LASF972
	.byte	0x9
	.value	0x34f
	.byte	0x1f
	.long	0x5c34
	.uleb128 0x2
	.byte	0x91
	.sleb128 -24
	.uleb128 0xc
	.long	.LASF973
	.byte	0x9
	.value	0x34f
	.byte	0x39
	.long	0x5c34
	.uleb128 0x2
	.byte	0x91
	.sleb128 -32
	.uleb128 0x25
	.long	0x5c66
	.uleb128 0x2
	.byte	0x91
	.sleb128 -40
	.byte	0
	.uleb128 0x2d
	.long	0x2883
	.long	0x77f6
	.quad	.LFB2982
	.quad	.LFE2982-.LFB2982
	.uleb128 0x1
	.byte	0x9c
	.long	0x7803
	.uleb128 0x15
	.long	.LASF960
	.long	0x5cbb
	.uleb128 0x2
	.byte	0x91
	.sleb128 -24
	.byte	0
	.uleb128 0x21
	.long	0x3065
	.long	0x7822
	.quad	.LFB2981
	.quad	.LFE2981-.LFB2981
	.uleb128 0x1
	.byte	0x9c
	.long	0x783f
	.uleb128 0x15
	.long	.LASF960
	.long	0x5cde
	.uleb128 0x2
	.byte	0x91
	.sleb128 -24
	.uleb128 0xc
	.long	.LASF1010
	.byte	0x6
	.value	0x3f0
	.byte	0x18
	.long	0x2c50
	.uleb128 0x2
	.byte	0x91
	.sleb128 -32
	.byte	0
	.uleb128 0xd
	.long	0x5beb
	.uleb128 0x12
	.long	0x3e29
	.quad	.LFB2980
	.quad	.LFE2980-.LFB2980
	.uleb128 0x1
	.byte	0x9c
	.long	0x78a2
	.uleb128 0x4
	.long	.LASF610
	.long	0x485f
	.uleb128 0x4
	.long	.LASF611
	.long	0x7c65
	.uleb128 0xc
	.long	.LASF972
	.byte	0x8
	.value	0xec5
	.byte	0x1d
	.long	0x485f
	.uleb128 0x2
	.byte	0x91
	.sleb128 -24
	.uleb128 0xc
	.long	.LASF973
	.byte	0x8
	.value	0xec5
	.byte	0x35
	.long	0x485f
	.uleb128 0x2
	.byte	0x91
	.sleb128 -32
	.uleb128 0x14
	.string	"__f"
	.byte	0x8
	.value	0xec5
	.byte	0x47
	.long	0x7c65
	.uleb128 0x2
	.byte	0x91
	.sleb128 -40
	.byte	0
	.uleb128 0x21
	.long	0x1ac8
	.long	0x78c1
	.quad	.LFB2979
	.quad	.LFE2979-.LFB2979
	.uleb128 0x1
	.byte	0x9c
	.long	0x78ce
	.uleb128 0x15
	.long	.LASF960
	.long	0x5a54
	.uleb128 0x2
	.byte	0x91
	.sleb128 -40
	.byte	0
	.uleb128 0x21
	.long	0x1a7b
	.long	0x78ed
	.quad	.LFB2978
	.quad	.LFE2978-.LFB2978
	.uleb128 0x1
	.byte	0x9c
	.long	0x78fa
	.uleb128 0x15
	.long	.LASF960
	.long	0x5a54
	.uleb128 0x2
	.byte	0x91
	.sleb128 -40
	.byte	0
	.uleb128 0x1b
	.long	0x1972
	.long	0x7907
	.long	0x792b
	.uleb128 0x10
	.long	.LASF960
	.long	0x5a54
	.uleb128 0x3d
	.string	"__l"
	.byte	0x6
	.value	0x2a1
	.byte	0x2b
	.long	0x22da
	.uleb128 0x3d
	.string	"__a"
	.byte	0x6
	.value	0x2a2
	.byte	0x1d
	.long	0x5a59
	.byte	0
	.uleb128 0x23
	.long	0x78fa
	.long	.LASF1011
	.long	0x794e
	.quad	.LFB2976
	.quad	.LFE2976-.LFB2976
	.uleb128 0x1
	.byte	0x9c
	.long	0x7968
	.uleb128 0x11
	.long	0x7907
	.uleb128 0x2
	.byte	0x91
	.sleb128 -56
	.uleb128 0x11
	.long	0x7910
	.uleb128 0x3
	.byte	0x91
	.sleb128 -80
	.uleb128 0x11
	.long	0x791d
	.uleb128 0x2
	.byte	0x91
	.sleb128 -64
	.byte	0
	.uleb128 0x1b
	.long	0x11bf
	.long	0x7975
	.long	0x7988
	.uleb128 0x10
	.long	.LASF960
	.long	0x59d7
	.uleb128 0x10
	.long	.LASF1002
	.long	0x11f
	.byte	0
	.uleb128 0x23
	.long	0x7968
	.long	.LASF1012
	.long	0x79ab
	.quad	.LFB2973
	.quad	.LFE2973-.LFB2973
	.uleb128 0x1
	.byte	0x9c
	.long	0x79b4
	.uleb128 0x11
	.long	0x7975
	.uleb128 0x2
	.byte	0x91
	.sleb128 -24
	.byte	0
	.uleb128 0x1b
	.long	0x1165
	.long	0x79c1
	.long	0x79cb
	.uleb128 0x10
	.long	.LASF960
	.long	0x59d7
	.byte	0
	.uleb128 0x23
	.long	0x79b4
	.long	.LASF1013
	.long	0x79ee
	.quad	.LFB2970
	.quad	.LFE2970-.LFB2970
	.uleb128 0x1
	.byte	0x9c
	.long	0x79f7
	.uleb128 0x11
	.long	0x79c1
	.uleb128 0x2
	.byte	0x91
	.sleb128 -24
	.byte	0
	.uleb128 0x1b
	.long	0x29e6
	.long	0x7a04
	.long	0x7a17
	.uleb128 0x10
	.long	.LASF960
	.long	0x5cbb
	.uleb128 0x10
	.long	.LASF1002
	.long	0x11f
	.byte	0
	.uleb128 0x23
	.long	0x79f7
	.long	.LASF1014
	.long	0x7a3a
	.quad	.LFB2967
	.quad	.LFE2967-.LFB2967
	.uleb128 0x1
	.byte	0x9c
	.long	0x7a43
	.uleb128 0x11
	.long	0x7a04
	.uleb128 0x2
	.byte	0x91
	.sleb128 -24
	.byte	0
	.uleb128 0x1b
	.long	0x25c8
	.long	0x7a50
	.long	0x7a63
	.uleb128 0x10
	.long	.LASF960
	.long	0x5c5c
	.uleb128 0x10
	.long	.LASF1002
	.long	0x11f
	.byte	0
	.uleb128 0x23
	.long	0x7a43
	.long	.LASF1015
	.long	0x7a86
	.quad	.LFB2964
	.quad	.LFE2964-.LFB2964
	.uleb128 0x1
	.byte	0x9c
	.long	0x7a8f
	.uleb128 0x11
	.long	0x7a50
	.uleb128 0x2
	.byte	0x91
	.sleb128 -24
	.byte	0
	.uleb128 0x1b
	.long	0x27be
	.long	0x7a9c
	.long	0x7aa6
	.uleb128 0x10
	.long	.LASF960
	.long	0x5c9d
	.byte	0
	.uleb128 0x23
	.long	0x7a8f
	.long	.LASF1016
	.long	0x7ac9
	.quad	.LFB2961
	.quad	.LFE2961-.LFB2961
	.uleb128 0x1
	.byte	0x9c
	.long	0x7ad2
	.uleb128 0x11
	.long	0x7a9c
	.uleb128 0x2
	.byte	0x91
	.sleb128 -24
	.byte	0
	.uleb128 0xa0
	.long	0x3e60
	.long	0x7b01
	.uleb128 0x4
	.long	.LASF370
	.long	0x873
	.uleb128 0xa1
	.long	.LASF1017
	.byte	0x29
	.value	0x20b
	.byte	0x2e
	.long	0x582b
	.uleb128 0x3d
	.string	"__c"
	.byte	0x29
	.value	0x20b
	.byte	0x3a
	.long	0x10c
	.byte	0
	.uleb128 0xd
	.long	0xecc
	.uleb128 0x9
	.long	0xec3
	.uleb128 0x6
	.long	0x7b06
	.uleb128 0xa2
	.long	0xed8
	.long	0x7b1e
	.long	0x7b34
	.uleb128 0x10
	.long	.LASF960
	.long	0x7b0b
	.uleb128 0x50
	.string	"__n"
	.byte	0x29
	.byte	0xa6
	.byte	0x17
	.long	0x446c
	.byte	0
	.uleb128 0x21
	.long	0x5adb
	.long	0x7b53
	.quad	.LFB2853
	.quad	.LFE2853-.LFB2853
	.uleb128 0x1
	.byte	0x9c
	.long	0x7b60
	.uleb128 0x15
	.long	.LASF960
	.long	0x5d24
	.uleb128 0x2
	.byte	0x91
	.sleb128 -24
	.byte	0
	.uleb128 0x1b
	.long	0x1998
	.long	0x7b6d
	.long	0x7b80
	.uleb128 0x10
	.long	.LASF960
	.long	0x5a54
	.uleb128 0x10
	.long	.LASF1002
	.long	0x11f
	.byte	0
	.uleb128 0x23
	.long	0x7b60
	.long	.LASF1018
	.long	0x7ba3
	.quad	.LFB2851
	.quad	.LFE2851-.LFB2851
	.uleb128 0x1
	.byte	0x9c
	.long	0x7bac
	.uleb128 0x11
	.long	0x7b6d
	.uleb128 0x2
	.byte	0x91
	.sleb128 -24
	.byte	0
	.uleb128 0x1b
	.long	0x2da1
	.long	0x7bb9
	.long	0x7bcc
	.uleb128 0x10
	.long	.LASF960
	.long	0x5cde
	.uleb128 0x10
	.long	.LASF1002
	.long	0x11f
	.byte	0
	.uleb128 0x23
	.long	0x7bac
	.long	.LASF1019
	.long	0x7bef
	.quad	.LFB2848
	.quad	.LFE2848-.LFB2848
	.uleb128 0x1
	.byte	0x9c
	.long	0x7bf8
	.uleb128 0x11
	.long	0x7bb9
	.uleb128 0x2
	.byte	0x91
	.sleb128 -24
	.byte	0
	.uleb128 0x1b
	.long	0x5b57
	.long	0x7c2b
	.long	0x7d4f
	.uleb128 0x4d
	.string	"T"
	.long	0x7c2b
	.uleb128 0x24
	.long	0x118
	.uleb128 0x24
	.long	0x118
	.uleb128 0x24
	.long	0x118
	.uleb128 0x24
	.long	0x118
	.uleb128 0x24
	.long	0x118
	.uleb128 0x24
	.long	0x118
	.byte	0
	.uleb128 0x10
	.long	.LASF960
	.long	0x5d1a
	.uleb128 0x6e
	.byte	0x56
	.long	0x7c59
	.uleb128 0x1
	.long	0x118
	.uleb128 0x1
	.long	0x118
	.uleb128 0x1
	.long	0x118
	.uleb128 0x1
	.long	0x118
	.uleb128 0x1
	.long	0x118
	.uleb128 0x1
	.long	0x118
	.byte	0
	.uleb128 0x4e
	.uleb128 0x4f
	.long	.LASF1020
	.byte	0x4
	.byte	0x58
	.long	0x5beb
	.uleb128 0xa3
	.byte	0x8
	.byte	0x4
	.byte	0x59
	.byte	0x37
	.uleb128 0x52
	.long	.LASF1021
	.long	.LASF1022
	.long	0x7c7c
	.long	0x7c91
	.uleb128 0x2
	.long	0x7c81
	.uleb128 0x9
	.long	0x7c65
	.uleb128 0x1
	.long	0x7c8b
	.uleb128 0x28
	.long	0x7c65
	.byte	0
	.uleb128 0x52
	.long	.LASF1021
	.long	.LASF1023
	.long	0x7ca2
	.long	0x7cb7
	.uleb128 0x2
	.long	0x7c81
	.uleb128 0x1
	.long	0x7cac
	.uleb128 0xd
	.long	0x7cb1
	.uleb128 0x6
	.long	0x7c65
	.byte	0
	.uleb128 0xa4
	.long	.LASF1021
	.long	.LASF1025
	.long	0x7cc9
	.long	0x7ccf
	.uleb128 0x2
	.long	0x7c81
	.byte	0
	.uleb128 0x52
	.long	.LASF1026
	.long	.LASF1027
	.long	0x7ce0
	.long	0x7ceb
	.uleb128 0x2
	.long	0x7c81
	.uleb128 0x2
	.long	0x118
	.byte	0
	.uleb128 0x7
	.long	.LASF1028
	.byte	0x4
	.byte	0x5c
	.byte	0x21
	.long	0x783f
	.byte	0
	.uleb128 0xa5
	.long	.LASF58
	.long	.LASF1064
	.long	0x7d22
	.quad	.LFB2844
	.quad	.LFE2844-.LFB2844
	.uleb128 0x1
	.byte	0x9c
	.uleb128 0x9
	.long	0x7cb1
	.uleb128 0x6
	.long	0x7d18
	.uleb128 0x15
	.long	.LASF1029
	.long	0x7d1d
	.uleb128 0x2
	.byte	0x91
	.sleb128 -40
	.uleb128 0x20
	.long	.LASF292
	.byte	0x4
	.byte	0x59
	.byte	0x3f
	.long	0x118
	.uleb128 0x2
	.byte	0x91
	.sleb128 -44
	.uleb128 0xa6
	.long	.LASF1020
	.long	0x783f
	.uleb128 0x3
	.byte	0x91
	.sleb128 -40
	.byte	0x6
	.byte	0
	.byte	0
	.byte	0
	.byte	0
	.uleb128 0x23
	.long	0x7bf8
	.long	.LASF1030
	.long	0x7d98
	.quad	.LFB2845
	.quad	.LFE2845-.LFB2845
	.uleb128 0x1
	.byte	0x9c
	.long	0x7e10
	.uleb128 0x4d
	.string	"T"
	.long	0x7d98
	.uleb128 0x24
	.long	0x118
	.uleb128 0x24
	.long	0x118
	.uleb128 0x24
	.long	0x118
	.uleb128 0x24
	.long	0x118
	.uleb128 0x24
	.long	0x118
	.uleb128 0x24
	.long	0x118
	.byte	0
	.uleb128 0x11
	.long	0x7c2b
	.uleb128 0x3
	.byte	0x91
	.sleb128 -136
	.uleb128 0x6e
	.byte	0x56
	.long	0x7ddd
	.uleb128 0x11
	.long	0x7c3a
	.uleb128 0x3
	.byte	0x91
	.sleb128 -140
	.uleb128 0x11
	.long	0x7c3f
	.uleb128 0x3
	.byte	0x91
	.sleb128 -144
	.uleb128 0x11
	.long	0x7c44
	.uleb128 0x3
	.byte	0x91
	.sleb128 -148
	.uleb128 0x11
	.long	0x7c49
	.uleb128 0x3
	.byte	0x91
	.sleb128 -152
	.uleb128 0x11
	.long	0x7c4e
	.uleb128 0x3
	.byte	0x91
	.sleb128 -156
	.uleb128 0x11
	.long	0x7c53
	.uleb128 0x2
	.byte	0x91
	.sleb128 0
	.byte	0
	.uleb128 0xa7
	.long	0x7c59
	.long	0x7dee
	.uleb128 0xa8
	.long	0x7c5a
	.byte	0
	.uleb128 0xa9
	.long	0x7c59
	.quad	.LBB7
	.quad	.LBE7-.LBB7
	.uleb128 0xaa
	.long	0x7c5a
	.uleb128 0x3
	.byte	0x91
	.sleb128 -120
	.byte	0
	.byte	0
	.uleb128 0x1b
	.long	0x2be1
	.long	0x7e1d
	.long	0x7e27
	.uleb128 0x10
	.long	.LASF960
	.long	0x5cde
	.byte	0
	.uleb128 0x23
	.long	0x7e10
	.long	.LASF1031
	.long	0x7e4a
	.quad	.LFB2842
	.quad	.LFE2842-.LFB2842
	.uleb128 0x1
	.byte	0x9c
	.long	0x7e53
	.uleb128 0x11
	.long	0x7e1d
	.uleb128 0x2
	.byte	0x91
	.sleb128 -24
	.byte	0
	.uleb128 0x1b
	.long	0x28ec
	.long	0x7e60
	.long	0x7e6a
	.uleb128 0x10
	.long	.LASF960
	.long	0x5cbb
	.byte	0
	.uleb128 0x23
	.long	0x7e53
	.long	.LASF1032
	.long	0x7e8d
	.quad	.LFB2840
	.quad	.LFE2840-.LFB2840
	.uleb128 0x1
	.byte	0x9c
	.long	0x7e96
	.uleb128 0x11
	.long	0x7e60
	.uleb128 0x2
	.byte	0x91
	.sleb128 -24
	.byte	0
	.uleb128 0x51
	.long	0x2859
	.byte	0x6
	.byte	0x85
	.byte	0xe
	.long	0x7ea6
	.long	0x7eb9
	.uleb128 0x10
	.long	.LASF960
	.long	0x5c9d
	.uleb128 0x10
	.long	.LASF1002
	.long	0x11f
	.byte	0
	.uleb128 0x23
	.long	0x7e96
	.long	.LASF1033
	.long	0x7edc
	.quad	.LFB2838
	.quad	.LFE2838-.LFB2838
	.uleb128 0x1
	.byte	0x9c
	.long	0x7ee5
	.uleb128 0x11
	.long	0x7ea6
	.uleb128 0x2
	.byte	0x91
	.sleb128 -24
	.byte	0
	.uleb128 0xab
	.long	.LASF1034
	.byte	0x5
	.byte	0x8
	.byte	0x5
	.long	0x118
	.quad	.LFB2566
	.quad	.LFE2566-.LFB2566
	.uleb128 0x1
	.byte	0x9c
	.long	0x7f38
	.uleb128 0x20
	.long	.LASF1035
	.byte	0x5
	.byte	0x8
	.byte	0xe
	.long	0x118
	.uleb128 0x3
	.byte	0x91
	.sleb128 -84
	.uleb128 0x20
	.long	.LASF1036
	.byte	0x5
	.byte	0x8
	.byte	0x1b
	.long	0x5347
	.uleb128 0x3
	.byte	0x91
	.sleb128 -96
	.uleb128 0xac
	.string	"t"
	.byte	0x5
	.byte	0xa
	.byte	0x14
	.long	0x5a92
	.uleb128 0x3
	.byte	0x91
	.sleb128 -80
	.byte	0
	.uleb128 0x51
	.long	0x5bb5
	.byte	0x4
	.byte	0x50
	.byte	0xb
	.long	0x7f48
	.long	0x7f5b
	.uleb128 0x10
	.long	.LASF960
	.long	0x5d1a
	.uleb128 0x10
	.long	.LASF1002
	.long	0x11f
	.byte	0
	.uleb128 0x23
	.long	0x7f38
	.long	.LASF1037
	.long	0x7f7e
	.quad	.LFB2568
	.quad	.LFE2568-.LFB2568
	.uleb128 0x1
	.byte	0x9c
	.long	0x7f87
	.uleb128 0x11
	.long	0x7f48
	.uleb128 0x2
	.byte	0x91
	.sleb128 -24
	.byte	0
	.uleb128 0x12
	.long	0x5bff
	.quad	.LFB1754
	.quad	.LFE1754-.LFB1754
	.uleb128 0x1
	.byte	0x9c
	.long	0x7fc1
	.uleb128 0x20
	.long	.LASF1038
	.byte	0x3
	.byte	0x18
	.byte	0x29
	.long	0x5beb
	.uleb128 0x2
	.byte	0x91
	.sleb128 -40
	.uleb128 0x20
	.long	.LASF1039
	.byte	0x3
	.byte	0x19
	.byte	0x29
	.long	0x5beb
	.uleb128 0x2
	.byte	0x91
	.sleb128 -48
	.byte	0
	.uleb128 0x26
	.long	0x3e89
	.quad	.LFB652
	.quad	.LFE652-.LFB652
	.uleb128 0x1
	.byte	0x9c
	.long	0x7fed
	.uleb128 0x14
	.string	"__n"
	.byte	0x2
	.value	0x3f1
	.byte	0x23
	.long	0x5e
	.uleb128 0x2
	.byte	0x91
	.sleb128 -24
	.byte	0
	.uleb128 0xad
	.long	.LASF964
	.byte	0x1
	.byte	0xae
	.byte	0x21
	.long	.LASF1040
	.long	0xa6
	.quad	.LFB40
	.quad	.LFE40-.LFB40
	.uleb128 0x1
	.byte	0x9c
	.long	0x802c
	.uleb128 0x25
	.long	0x559
	.uleb128 0x2
	.byte	0x91
	.sleb128 -24
	.uleb128 0x2a
	.string	"__p"
	.byte	0x1
	.byte	0xae
	.byte	0x41
	.long	0xa6
	.uleb128 0x2
	.byte	0x91
	.sleb128 -32
	.byte	0
	.uleb128 0x1f
	.byte	0x10
	.byte	0x5
	.long	.LASF1041
	.uleb128 0x1f
	.byte	0x10
	.byte	0x7
	.long	.LASF1042
	.byte	0
	.section	.debug_abbrev,"",@progbits
.Ldebug_abbrev0:
	.uleb128 0x1
	.uleb128 0x5
	.byte	0
	.uleb128 0x49
	.uleb128 0x13
	.byte	0
	.byte	0
	.uleb128 0x2
	.uleb128 0x5
	.byte	0
	.uleb128 0x49
	.uleb128 0x13
	.uleb128 0x34
	.uleb128 0x19
	.byte	0
	.byte	0
	.uleb128 0x3
	.uleb128 0x8
	.byte	0
	.uleb128 0x3a
	.uleb128 0xb
	.uleb128 0x3b
	.uleb128 0xb
	.uleb128 0x39
	.uleb128 0xb
	.uleb128 0x18
	.uleb128 0x13
	.byte	0
	.byte	0
	.uleb128 0x4
	.uleb128 0x2f
	.byte	0
	.uleb128 0x3
	.uleb128 0xe
	.uleb128 0x49
	.uleb128 0x13
	.byte	0
	.byte	0
	.uleb128 0x5
	.uleb128 0x16
	.byte	0
	.uleb128 0x3
	.uleb128 0xe
	.uleb128 0x3a
	.uleb128 0xb
	.uleb128 0x3b
	.uleb128 0xb
	.uleb128 0x39
	.uleb128 0xb
	.uleb128 0x49
	.uleb128 0x13
	.byte	0
	.byte	0
	.uleb128 0x6
	.uleb128 0x26
	.byte	0
	.uleb128 0x49
	.uleb128 0x13
	.byte	0
	.byte	0
	.uleb128 0x7
	.uleb128 0xd
	.byte	0
	.uleb128 0x3
	.uleb128 0xe
	.uleb128 0x3a
	.uleb128 0xb
	.uleb128 0x3b
	.uleb128 0xb
	.uleb128 0x39
	.uleb128 0xb
	.uleb128 0x49
	.uleb128 0x13
	.uleb128 0x38
	.uleb128 0xb
	.byte	0
	.byte	0
	.uleb128 0x8
	.uleb128 0x2e
	.byte	0x1
	.uleb128 0x3f
	.uleb128 0x19
	.uleb128 0x3
	.uleb128 0xe
	.uleb128 0x3a
	.uleb128 0xb
	.uleb128 0x3b
	.uleb128 0x5
	.uleb128 0x39
	.uleb128 0xb
	.uleb128 0x6e
	.uleb128 0xe
	.uleb128 0x49
	.uleb128 0x13
	.uleb128 0x32
	.uleb128 0xb
	.uleb128 0x3c
	.uleb128 0x19
	.uleb128 0x64
	.uleb128 0x13
	.uleb128 0x1
	.uleb128 0x13
	.byte	0
	.byte	0
	.uleb128 0x9
	.uleb128 0xf
	.byte	0
	.uleb128 0xb
	.uleb128 0x21
	.sleb128 8
	.uleb128 0x49
	.uleb128 0x13
	.byte	0
	.byte	0
	.uleb128 0xa
	.uleb128 0x2f
	.byte	0
	.uleb128 0x3
	.uleb128 0x8
	.uleb128 0x49
	.uleb128 0x13
	.byte	0
	.byte	0
	.uleb128 0xb
	.uleb128 0x2e
	.byte	0x1
	.uleb128 0x3f
	.uleb128 0x19
	.uleb128 0x3
	.uleb128 0xe
	.uleb128 0x3a
	.uleb128 0xb
	.uleb128 0x3b
	.uleb128 0x5
	.uleb128 0x39
	.uleb128 0xb
	.uleb128 0x49
	.uleb128 0x13
	.uleb128 0x3c
	.uleb128 0x19
	.uleb128 0x1
	.uleb128 0x13
	.byte	0
	.byte	0
	.uleb128 0xc
	.uleb128 0x5
	.byte	0
	.uleb128 0x3
	.uleb128 0xe
	.uleb128 0x3a
	.uleb128 0xb
	.uleb128 0x3b
	.uleb128 0x5
	.uleb128 0x39
	.uleb128 0xb
	.uleb128 0x49
	.uleb128 0x13
	.uleb128 0x2
	.uleb128 0x18
	.byte	0
	.byte	0
	.uleb128 0xd
	.uleb128 0x10
	.byte	0
	.uleb128 0xb
	.uleb128 0x21
	.sleb128 8
	.uleb128 0x49
	.uleb128 0x13
	.byte	0
	.byte	0
	.uleb128 0xe
	.uleb128 0x2e
	.byte	0x1
	.uleb128 0x3f
	.uleb128 0x19
	.uleb128 0x3
	.uleb128 0xe
	.uleb128 0x3a
	.uleb128 0xb
	.uleb128 0x3b
	.uleb128 0x5
	.uleb128 0x39
	.uleb128 0xb
	.uleb128 0x6e
	.uleb128 0xe
	.uleb128 0x49
	.uleb128 0x13
	.uleb128 0x3c
	.uleb128 0x19
	.uleb128 0x1
	.uleb128 0x13
	.byte	0
	.byte	0
	.uleb128 0xf
	.uleb128 0x2e
	.byte	0x1
	.uleb128 0x3f
	.uleb128 0x19
	.uleb128 0x3
	.uleb128 0xe
	.uleb128 0x3a
	.uleb128 0xb
	.uleb128 0x3b
	.uleb128 0x5
	.uleb128 0x39
	.uleb128 0xb
	.uleb128 0x6e
	.uleb128 0xe
	.uleb128 0x32
	.uleb128 0xb
	.uleb128 0x3c
	.uleb128 0x19
	.uleb128 0x64
	.uleb128 0x13
	.uleb128 0x1
	.uleb128 0x13
	.byte	0
	.byte	0
	.uleb128 0x10
	.uleb128 0x5
	.byte	0
	.uleb128 0x3
	.uleb128 0xe
	.uleb128 0x49
	.uleb128 0x13
	.uleb128 0x34
	.uleb128 0x19
	.byte	0
	.byte	0
	.uleb128 0x11
	.uleb128 0x5
	.byte	0
	.uleb128 0x31
	.uleb128 0x13
	.uleb128 0x2
	.uleb128 0x18
	.byte	0
	.byte	0
	.uleb128 0x12
	.uleb128 0x2e
	.byte	0x1
	.uleb128 0x47
	.uleb128 0x13
	.uleb128 0x11
	.uleb128 0x1
	.uleb128 0x12
	.uleb128 0x7
	.uleb128 0x40
	.uleb128 0x18
	.uleb128 0x7c
	.uleb128 0x19
	.uleb128 0x1
	.uleb128 0x13
	.byte	0
	.byte	0
	.uleb128 0x13
	.uleb128 0x2e
	.byte	0x1
	.uleb128 0x3f
	.uleb128 0x19
	.uleb128 0x3
	.uleb128 0xe
	.uleb128 0x3a
	.uleb128 0xb
	.uleb128 0x3b
	.uleb128 0xb
	.uleb128 0x39
	.uleb128 0xb
	.uleb128 0x49
	.uleb128 0x13
	.uleb128 0x3c
	.uleb128 0x19
	.uleb128 0x1
	.uleb128 0x13
	.byte	0
	.byte	0
	.uleb128 0x14
	.uleb128 0x5
	.byte	0
	.uleb128 0x3
	.uleb128 0x8
	.uleb128 0x3a
	.uleb128 0xb
	.uleb128 0x3b
	.uleb128 0x5
	.uleb128 0x39
	.uleb128 0xb
	.uleb128 0x49
	.uleb128 0x13
	.uleb128 0x2
	.uleb128 0x18
	.byte	0
	.byte	0
	.uleb128 0x15
	.uleb128 0x5
	.byte	0
	.uleb128 0x3
	.uleb128 0xe
	.uleb128 0x49
	.uleb128 0x13
	.uleb128 0x34
	.uleb128 0x19
	.uleb128 0x2
	.uleb128 0x18
	.byte	0
	.byte	0
	.uleb128 0x16
	.uleb128 0x13
	.byte	0x1
	.uleb128 0x3
	.uleb128 0xe
	.uleb128 0xb
	.uleb128 0xb
	.uleb128 0x3a
	.uleb128 0xb
	.uleb128 0x3b
	.uleb128 0xb
	.uleb128 0x39
	.uleb128 0xb
	.uleb128 0x1
	.uleb128 0x13
	.byte	0
	.byte	0
	.uleb128 0x17
	.uleb128 0x2e
	.byte	0x1
	.uleb128 0x3f
	.uleb128 0x19
	.uleb128 0x3
	.uleb128 0xe
	.uleb128 0x3a
	.uleb128 0xb
	.uleb128 0x3b
	.uleb128 0xb
	.uleb128 0x39
	.uleb128 0xb
	.uleb128 0x6e
	.uleb128 0xe
	.uleb128 0x49
	.uleb128 0x13
	.uleb128 0x32
	.uleb128 0xb
	.uleb128 0x3c
	.uleb128 0x19
	.uleb128 0x64
	.uleb128 0x13
	.uleb128 0x1
	.uleb128 0x13
	.byte	0
	.byte	0
	.uleb128 0x18
	.uleb128 0x8
	.byte	0
	.uleb128 0x3a
	.uleb128 0xb
	.uleb128 0x3b
	.uleb128 0x5
	.uleb128 0x39
	.uleb128 0xb
	.uleb128 0x18
	.uleb128 0x13
	.byte	0
	.byte	0
	.uleb128 0x19
	.uleb128 0x16
	.byte	0
	.uleb128 0x3
	.uleb128 0xe
	.uleb128 0x3a
	.uleb128 0xb
	.uleb128 0x3b
	.uleb128 0x5
	.uleb128 0x39
	.uleb128 0xb
	.uleb128 0x49
	.uleb128 0x13
	.byte	0
	.byte	0
	.uleb128 0x1a
	.uleb128 0x2e
	.byte	0x1
	.uleb128 0x3f
	.uleb128 0x19
	.uleb128 0x3
	.uleb128 0xe
	.uleb128 0x3a
	.uleb128 0x21
	.sleb128 6
	.uleb128 0x3b
	.uleb128 0x5
	.uleb128 0x39
	.uleb128 0x21
	.sleb128 7
	.uleb128 0x6e
	.uleb128 0xe
	.uleb128 0x3c
	.uleb128 0x19
	.uleb128 0x64
	.uleb128 0x13
	.uleb128 0x1
	.uleb128 0x13
	.byte	0
	.byte	0
	.uleb128 0x1b
	.uleb128 0x2e
	.byte	0x1
	.uleb128 0x47
	.uleb128 0x13
	.uleb128 0x64
	.uleb128 0x13
	.uleb128 0x20
	.uleb128 0x21
	.sleb128 2
	.uleb128 0x1
	.uleb128 0x13
	.byte	0
	.byte	0
	.uleb128 0x1c
	.uleb128 0x16
	.byte	0
	.uleb128 0x3
	.uleb128 0xe
	.uleb128 0x3a
	.uleb128 0xb
	.uleb128 0x3b
	.uleb128 0x5
	.uleb128 0x39
	.uleb128 0xb
	.uleb128 0x49
	.uleb128 0x13
	.uleb128 0x32
	.uleb128 0x21
	.sleb128 1
	.byte	0
	.byte	0
	.uleb128 0x1d
	.uleb128 0x2e
	.byte	0x1
	.uleb128 0x3f
	.uleb128 0x19
	.uleb128 0x3
	.uleb128 0xe
	.uleb128 0x3a
	.uleb128 0xb
	.uleb128 0x3b
	.uleb128 0xb
	.uleb128 0x39
	.uleb128 0xb
	.uleb128 0x6e
	.uleb128 0xe
	.uleb128 0x32
	.uleb128 0x21
	.sleb128 1
	.uleb128 0x3c
	.uleb128 0x19
	.uleb128 0x64
	.uleb128 0x13
	.uleb128 0x1
	.uleb128 0x13
	.byte	0
	.byte	0
	.uleb128 0x1e
	.uleb128 0x2e
	.byte	0x1
	.uleb128 0x3f
	.uleb128 0x19
	.uleb128 0x3
	.uleb128 0xe
	.uleb128 0x3a
	.uleb128 0xb
	.uleb128 0x3b
	.uleb128 0xb
	.uleb128 0x39
	.uleb128 0xb
	.uleb128 0x6e
	.uleb128 0xe
	.uleb128 0x49
	.uleb128 0x13
	.uleb128 0x3c
	.uleb128 0x19
	.uleb128 0x1
	.uleb128 0x13
	.byte	0
	.byte	0
	.uleb128 0x1f
	.uleb128 0x24
	.byte	0
	.uleb128 0xb
	.uleb128 0xb
	.uleb128 0x3e
	.uleb128 0xb
	.uleb128 0x3
	.uleb128 0xe
	.byte	0
	.byte	0
	.uleb128 0x20
	.uleb128 0x5
	.byte	0
	.uleb128 0x3
	.uleb128 0xe
	.uleb128 0x3a
	.uleb128 0xb
	.uleb128 0x3b
	.uleb128 0xb
	.uleb128 0x39
	.uleb128 0xb
	.uleb128 0x49
	.uleb128 0x13
	.uleb128 0x2
	.uleb128 0x18
	.byte	0
	.byte	0
	.uleb128 0x21
	.uleb128 0x2e
	.byte	0x1
	.uleb128 0x47
	.uleb128 0x13
	.uleb128 0x64
	.uleb128 0x13
	.uleb128 0x11
	.uleb128 0x1
	.uleb128 0x12
	.uleb128 0x7
	.uleb128 0x40
	.uleb128 0x18
	.uleb128 0x7c
	.uleb128 0x19
	.uleb128 0x1
	.uleb128 0x13
	.byte	0
	.byte	0
	.uleb128 0x22
	.uleb128 0x2e
	.byte	0x1
	.uleb128 0x3f
	.uleb128 0x19
	.uleb128 0x3
	.uleb128 0xe
	.uleb128 0x3a
	.uleb128 0xb
	.uleb128 0x3b
	.uleb128 0xb
	.uleb128 0x39
	.uleb128 0xb
	.uleb128 0x6e
	.uleb128 0xe
	.uleb128 0x3c
	.uleb128 0x19
	.uleb128 0x64
	.uleb128 0x13
	.uleb128 0x1
	.uleb128 0x13
	.byte	0
	.byte	0
	.uleb128 0x23
	.uleb128 0x2e
	.byte	0x1
	.uleb128 0x31
	.uleb128 0x13
	.uleb128 0x6e
	.uleb128 0xe
	.uleb128 0x64
	.uleb128 0x13
	.uleb128 0x11
	.uleb128 0x1
	.uleb128 0x12
	.uleb128 0x7
	.uleb128 0x40
	.uleb128 0x18
	.uleb128 0x7c
	.uleb128 0x19
	.uleb128 0x1
	.uleb128 0x13
	.byte	0
	.byte	0
	.uleb128 0x24
	.uleb128 0x2f
	.byte	0
	.uleb128 0x49
	.uleb128 0x13
	.byte	0
	.byte	0
	.uleb128 0x25
	.uleb128 0x5
	.byte	0
	.uleb128 0x49
	.uleb128 0x13
	.uleb128 0x2
	.uleb128 0x18
	.byte	0
	.byte	0
	.uleb128 0x26
	.uleb128 0x2e
	.byte	0x1
	.uleb128 0x47
	.uleb128 0x13
	.uleb128 0x11
	.uleb128 0x1
	.uleb128 0x12
	.uleb128 0x7
	.uleb128 0x40
	.uleb128 0x18
	.uleb128 0x7a
	.uleb128 0x19
	.uleb128 0x1
	.uleb128 0x13
	.byte	0
	.byte	0
	.uleb128 0x27
	.uleb128 0x16
	.byte	0
	.uleb128 0x3
	.uleb128 0xe
	.uleb128 0x3a
	.uleb128 0xb
	.uleb128 0x3b
	.uleb128 0xb
	.uleb128 0x39
	.uleb128 0xb
	.uleb128 0x49
	.uleb128 0x13
	.uleb128 0x32
	.uleb128 0x21
	.sleb128 1
	.byte	0
	.byte	0
	.uleb128 0x28
	.uleb128 0x42
	.byte	0
	.uleb128 0xb
	.uleb128 0x21
	.sleb128 8
	.uleb128 0x49
	.uleb128 0x13
	.byte	0
	.byte	0
	.uleb128 0x29
	.uleb128 0x34
	.byte	0
	.uleb128 0x3
	.uleb128 0xe
	.uleb128 0x3a
	.uleb128 0xb
	.uleb128 0x3b
	.uleb128 0x5
	.uleb128 0x39
	.uleb128 0xb
	.uleb128 0x49
	.uleb128 0x13
	.uleb128 0x2
	.uleb128 0x18
	.byte	0
	.byte	0
	.uleb128 0x2a
	.uleb128 0x5
	.byte	0
	.uleb128 0x3
	.uleb128 0x8
	.uleb128 0x3a
	.uleb128 0xb
	.uleb128 0x3b
	.uleb128 0xb
	.uleb128 0x39
	.uleb128 0xb
	.uleb128 0x49
	.uleb128 0x13
	.uleb128 0x2
	.uleb128 0x18
	.byte	0
	.byte	0
	.uleb128 0x2b
	.uleb128 0x2e
	.byte	0
	.uleb128 0x3f
	.uleb128 0x19
	.uleb128 0x3
	.uleb128 0xe
	.uleb128 0x3a
	.uleb128 0x21
	.sleb128 60
	.uleb128 0x3b
	.uleb128 0xb
	.uleb128 0x39
	.uleb128 0x21
	.sleb128 5
	.uleb128 0x6e
	.uleb128 0xe
	.uleb128 0x49
	.uleb128 0x13
	.uleb128 0x32
	.uleb128 0x21
	.sleb128 1
	.uleb128 0x3c
	.uleb128 0x19
	.byte	0
	.byte	0
	.uleb128 0x2c
	.uleb128 0x2
	.byte	0x1
	.uleb128 0x3
	.uleb128 0xe
	.uleb128 0xb
	.uleb128 0xb
	.uleb128 0x3a
	.uleb128 0xb
	.uleb128 0x3b
	.uleb128 0xb
	.uleb128 0x39
	.uleb128 0xb
	.uleb128 0x1
	.uleb128 0x13
	.byte	0
	.byte	0
	.uleb128 0x2d
	.uleb128 0x2e
	.byte	0x1
	.uleb128 0x47
	.uleb128 0x13
	.uleb128 0x64
	.uleb128 0x13
	.uleb128 0x11
	.uleb128 0x1
	.uleb128 0x12
	.uleb128 0x7
	.uleb128 0x40
	.uleb128 0x18
	.uleb128 0x7a
	.uleb128 0x19
	.uleb128 0x1
	.uleb128 0x13
	.byte	0
	.byte	0
	.uleb128 0x2e
	.uleb128 0x30
	.byte	0
	.uleb128 0x3
	.uleb128 0xe
	.uleb128 0x49
	.uleb128 0x13
	.uleb128 0x1c
	.uleb128 0xb
	.byte	0
	.byte	0
	.uleb128 0x2f
	.uleb128 0x2e
	.byte	0
	.uleb128 0x3f
	.uleb128 0x19
	.uleb128 0x3
	.uleb128 0xe
	.uleb128 0x3a
	.uleb128 0x21
	.sleb128 48
	.uleb128 0x3b
	.uleb128 0xb
	.uleb128 0x39
	.uleb128 0x21
	.sleb128 27
	.uleb128 0x6e
	.uleb128 0xe
	.uleb128 0x49
	.uleb128 0x13
	.uleb128 0x3c
	.uleb128 0x19
	.byte	0
	.byte	0
	.uleb128 0x30
	.uleb128 0x2
	.byte	0
	.uleb128 0x3
	.uleb128 0xe
	.uleb128 0x3c
	.uleb128 0x19
	.byte	0
	.byte	0
	.uleb128 0x31
	.uleb128 0x1c
	.byte	0
	.uleb128 0x49
	.uleb128 0x13
	.uleb128 0x38
	.uleb128 0x21
	.sleb128 0
	.byte	0
	.byte	0
	.uleb128 0x32
	.uleb128 0x2e
	.byte	0x1
	.uleb128 0x3f
	.uleb128 0x19
	.uleb128 0x3
	.uleb128 0xe
	.uleb128 0x3a
	.uleb128 0x21
	.sleb128 6
	.uleb128 0x3b
	.uleb128 0x5
	.uleb128 0x39
	.uleb128 0x21
	.sleb128 7
	.uleb128 0x6e
	.uleb128 0xe
	.uleb128 0x49
	.uleb128 0x13
	.uleb128 0x3c
	.uleb128 0x19
	.uleb128 0x64
	.uleb128 0x13
	.uleb128 0x1
	.uleb128 0x13
	.byte	0
	.byte	0
	.uleb128 0x33
	.uleb128 0x2e
	.byte	0x1
	.uleb128 0x3f
	.uleb128 0x19
	.uleb128 0x3
	.uleb128 0x8
	.uleb128 0x3a
	.uleb128 0x21
	.sleb128 6
	.uleb128 0x3b
	.uleb128 0x5
	.uleb128 0x39
	.uleb128 0x21
	.sleb128 7
	.uleb128 0x6e
	.uleb128 0xe
	.uleb128 0x49
	.uleb128 0x13
	.uleb128 0x32
	.uleb128 0x21
	.sleb128 1
	.uleb128 0x3c
	.uleb128 0x19
	.uleb128 0x64
	.uleb128 0x13
	.uleb128 0x1
	.uleb128 0x13
	.byte	0
	.byte	0
	.uleb128 0x34
	.uleb128 0x2e
	.byte	0x1
	.uleb128 0x31
	.uleb128 0x13
	.uleb128 0x6e
	.uleb128 0xe
	.uleb128 0x64
	.uleb128 0x13
	.uleb128 0x11
	.uleb128 0x1
	.uleb128 0x12
	.uleb128 0x7
	.uleb128 0x40
	.uleb128 0x18
	.uleb128 0x7a
	.uleb128 0x19
	.uleb128 0x1
	.uleb128 0x13
	.byte	0
	.byte	0
	.uleb128 0x35
	.uleb128 0x2e
	.byte	0x1
	.uleb128 0x3f
	.uleb128 0x19
	.uleb128 0x3
	.uleb128 0xe
	.uleb128 0x3a
	.uleb128 0xb
	.uleb128 0x3b
	.uleb128 0xb
	.uleb128 0x39
	.uleb128 0xb
	.uleb128 0x6e
	.uleb128 0xe
	.uleb128 0x49
	.uleb128 0x13
	.uleb128 0x3c
	.uleb128 0x19
	.uleb128 0x64
	.uleb128 0x13
	.uleb128 0x1
	.uleb128 0x13
	.byte	0
	.byte	0
	.uleb128 0x36
	.uleb128 0x2e
	.byte	0x1
	.uleb128 0x3f
	.uleb128 0x19
	.uleb128 0x3
	.uleb128 0xe
	.uleb128 0x3a
	.uleb128 0xb
	.uleb128 0x3b
	.uleb128 0x5
	.uleb128 0x39
	.uleb128 0xb
	.uleb128 0x6e
	.uleb128 0xe
	.uleb128 0x3c
	.uleb128 0x19
	.uleb128 0x1
	.uleb128 0x13
	.byte	0
	.byte	0
	.uleb128 0x37
	.uleb128 0x2e
	.byte	0x1
	.uleb128 0x3f
	.uleb128 0x19
	.uleb128 0x3
	.uleb128 0xe
	.uleb128 0x3a
	.uleb128 0xb
	.uleb128 0x3b
	.uleb128 0xb
	.uleb128 0x39
	.uleb128 0xb
	.uleb128 0x6e
	.uleb128 0xe
	.uleb128 0x3c
	.uleb128 0x19
	.uleb128 0x1
	.uleb128 0x13
	.byte	0
	.byte	0
	.uleb128 0x38
	.uleb128 0x13
	.byte	0x1
	.uleb128 0x3
	.uleb128 0xe
	.uleb128 0xb
	.uleb128 0x21
	.sleb128 1
	.uleb128 0x3a
	.uleb128 0xb
	.uleb128 0x3b
	.uleb128 0x5
	.uleb128 0x39
	.uleb128 0x21
	.sleb128 12
	.uleb128 0x1
	.uleb128 0x13
	.byte	0
	.byte	0
	.uleb128 0x39
	.uleb128 0x18
	.byte	0
	.byte	0
	.byte	0
	.uleb128 0x3a
	.uleb128 0x2e
	.byte	0x1
	.uleb128 0x3f
	.uleb128 0x19
	.uleb128 0x3
	.uleb128 0xe
	.uleb128 0x3a
	.uleb128 0xb
	.uleb128 0x3b
	.uleb128 0x5
	.uleb128 0x39
	.uleb128 0x21
	.sleb128 13
	.uleb128 0x3c
	.uleb128 0x19
	.uleb128 0x1
	.uleb128 0x13
	.byte	0
	.byte	0
	.uleb128 0x3b
	.uleb128 0x2e
	.byte	0x1
	.uleb128 0x3f
	.uleb128 0x19
	.uleb128 0x3
	.uleb128 0xe
	.uleb128 0x3a
	.uleb128 0xb
	.uleb128 0x3b
	.uleb128 0x5
	.uleb128 0x39
	.uleb128 0x21
	.sleb128 7
	.uleb128 0x6e
	.uleb128 0xe
	.uleb128 0x32
	.uleb128 0x21
	.sleb128 1
	.uleb128 0x3c
	.uleb128 0x19
	.uleb128 0x8b
	.uleb128 0x21
	.sleb128 1
	.uleb128 0x64
	.uleb128 0x13
	.uleb128 0x1
	.uleb128 0x13
	.byte	0
	.byte	0
	.uleb128 0x3c
	.uleb128 0x2e
	.byte	0x1
	.uleb128 0x3f
	.uleb128 0x19
	.uleb128 0x3
	.uleb128 0xe
	.uleb128 0x3a
	.uleb128 0xb
	.uleb128 0x3b
	.uleb128 0x5
	.uleb128 0x39
	.uleb128 0x21
	.sleb128 7
	.uleb128 0x6e
	.uleb128 0xe
	.uleb128 0x32
	.uleb128 0x21
	.sleb128 1
	.uleb128 0x3c
	.uleb128 0x19
	.uleb128 0x63
	.uleb128 0x19
	.uleb128 0x64
	.uleb128 0x13
	.uleb128 0x1
	.uleb128 0x13
	.byte	0
	.byte	0
	.uleb128 0x3d
	.uleb128 0x5
	.byte	0
	.uleb128 0x3
	.uleb128 0x8
	.uleb128 0x3a
	.uleb128 0xb
	.uleb128 0x3b
	.uleb128 0x5
	.uleb128 0x39
	.uleb128 0xb
	.uleb128 0x49
	.uleb128 0x13
	.byte	0
	.byte	0
	.uleb128 0x3e
	.uleb128 0xd
	.byte	0
	.uleb128 0x3
	.uleb128 0xe
	.uleb128 0x3a
	.uleb128 0x21
	.sleb128 21
	.uleb128 0x3b
	.uleb128 0x21
	.sleb128 0
	.uleb128 0x49
	.uleb128 0x13
	.uleb128 0x38
	.uleb128 0xb
	.byte	0
	.byte	0
	.uleb128 0x3f
	.uleb128 0x13
	.byte	0x1
	.uleb128 0xb
	.uleb128 0xb
	.uleb128 0x3a
	.uleb128 0xb
	.uleb128 0x3b
	.uleb128 0xb
	.uleb128 0x39
	.uleb128 0xb
	.uleb128 0x6e
	.uleb128 0xe
	.uleb128 0x1
	.uleb128 0x13
	.byte	0
	.byte	0
	.uleb128 0x40
	.uleb128 0x39
	.byte	0x1
	.uleb128 0x3
	.uleb128 0xe
	.uleb128 0x3a
	.uleb128 0xb
	.uleb128 0x3b
	.uleb128 0xb
	.uleb128 0x39
	.uleb128 0xb
	.uleb128 0x1
	.uleb128 0x13
	.byte	0
	.byte	0
	.uleb128 0x41
	.uleb128 0x1c
	.byte	0
	.uleb128 0x49
	.uleb128 0x13
	.uleb128 0x38
	.uleb128 0x21
	.sleb128 0
	.uleb128 0x32
	.uleb128 0xb
	.byte	0
	.byte	0
	.uleb128 0x42
	.uleb128 0x2e
	.byte	0x1
	.uleb128 0x3f
	.uleb128 0x19
	.uleb128 0x3
	.uleb128 0xe
	.uleb128 0x3a
	.uleb128 0x21
	.sleb128 6
	.uleb128 0x3b
	.uleb128 0x5
	.uleb128 0x39
	.uleb128 0x21
	.sleb128 7
	.uleb128 0x6e
	.uleb128 0xe
	.uleb128 0x3c
	.uleb128 0x19
	.uleb128 0x8b
	.uleb128 0x21
	.sleb128 1
	.uleb128 0x64
	.uleb128 0x13
	.uleb128 0x1
	.uleb128 0x13
	.byte	0
	.byte	0
	.uleb128 0x43
	.uleb128 0x2e
	.byte	0x1
	.uleb128 0x3f
	.uleb128 0x19
	.uleb128 0x3
	.uleb128 0xe
	.uleb128 0x3a
	.uleb128 0x21
	.sleb128 6
	.uleb128 0x3b
	.uleb128 0x5
	.uleb128 0x39
	.uleb128 0x21
	.sleb128 7
	.uleb128 0x6e
	.uleb128 0xe
	.uleb128 0x49
	.uleb128 0x13
	.uleb128 0x32
	.uleb128 0x21
	.sleb128 2
	.uleb128 0x3c
	.uleb128 0x19
	.uleb128 0x1
	.uleb128 0x13
	.byte	0
	.byte	0
	.uleb128 0x44
	.uleb128 0x34
	.byte	0
	.uleb128 0x47
	.uleb128 0x13
	.byte	0
	.byte	0
	.uleb128 0x45
	.uleb128 0x2e
	.byte	0x1
	.uleb128 0x31
	.uleb128 0x13
	.uleb128 0x6e
	.uleb128 0xe
	.uleb128 0x64
	.uleb128 0x13
	.uleb128 0x1
	.uleb128 0x13
	.byte	0
	.byte	0
	.uleb128 0x46
	.uleb128 0x1
	.byte	0x1
	.uleb128 0x49
	.uleb128 0x13
	.uleb128 0x1
	.uleb128 0x13
	.byte	0
	.byte	0
	.uleb128 0x47
	.uleb128 0x21
	.byte	0
	.uleb128 0x49
	.uleb128 0x13
	.uleb128 0x2f
	.uleb128 0xb
	.byte	0
	.byte	0
	.uleb128 0x48
	.uleb128 0x2
	.byte	0x1
	.uleb128 0x3
	.uleb128 0xe
	.uleb128 0x3c
	.uleb128 0x19
	.uleb128 0x1
	.uleb128 0x13
	.byte	0
	.byte	0
	.uleb128 0x49
	.uleb128 0x2
	.byte	0x1
	.uleb128 0x3
	.uleb128 0xe
	.uleb128 0xb
	.uleb128 0xb
	.uleb128 0x3a
	.uleb128 0xb
	.uleb128 0x3b
	.uleb128 0x5
	.uleb128 0x39
	.uleb128 0x21
	.sleb128 11
	.uleb128 0x1
	.uleb128 0x13
	.byte	0
	.byte	0
	.uleb128 0x4a
	.uleb128 0x2e
	.byte	0
	.uleb128 0x3f
	.uleb128 0x19
	.uleb128 0x3
	.uleb128 0xe
	.uleb128 0x3a
	.uleb128 0xb
	.uleb128 0x3b
	.uleb128 0x5
	.uleb128 0x39
	.uleb128 0xb
	.uleb128 0x49
	.uleb128 0x13
	.uleb128 0x3c
	.uleb128 0x19
	.byte	0
	.byte	0
	.uleb128 0x4b
	.uleb128 0xd
	.byte	0
	.uleb128 0x3
	.uleb128 0x8
	.uleb128 0x3a
	.uleb128 0x21
	.sleb128 54
	.uleb128 0x3b
	.uleb128 0xb
	.uleb128 0x39
	.uleb128 0xb
	.uleb128 0x49
	.uleb128 0x13
	.uleb128 0x38
	.uleb128 0xb
	.byte	0
	.byte	0
	.uleb128 0x4c
	.uleb128 0x13
	.byte	0
	.uleb128 0x3
	.uleb128 0xe
	.uleb128 0x3c
	.uleb128 0x19
	.byte	0
	.byte	0
	.uleb128 0x4d
	.uleb128 0x4107
	.byte	0x1
	.uleb128 0x3
	.uleb128 0x8
	.uleb128 0x1
	.uleb128 0x13
	.byte	0
	.byte	0
	.uleb128 0x4e
	.uleb128 0xb
	.byte	0x1
	.byte	0
	.byte	0
	.uleb128 0x4f
	.uleb128 0x34
	.byte	0
	.uleb128 0x3
	.uleb128 0xe
	.uleb128 0x3a
	.uleb128 0xb
	.uleb128 0x3b
	.uleb128 0xb
	.uleb128 0x39
	.uleb128 0x21
	.sleb128 23
	.uleb128 0x49
	.uleb128 0x13
	.byte	0
	.byte	0
	.uleb128 0x50
	.uleb128 0x5
	.byte	0
	.uleb128 0x3
	.uleb128 0x8
	.uleb128 0x3a
	.uleb128 0xb
	.uleb128 0x3b
	.uleb128 0xb
	.uleb128 0x39
	.uleb128 0xb
	.uleb128 0x49
	.uleb128 0x13
	.byte	0
	.byte	0
	.uleb128 0x51
	.uleb128 0x2e
	.byte	0x1
	.uleb128 0x47
	.uleb128 0x13
	.uleb128 0x3a
	.uleb128 0xb
	.uleb128 0x3b
	.uleb128 0xb
	.uleb128 0x39
	.uleb128 0xb
	.uleb128 0x64
	.uleb128 0x13
	.uleb128 0x20
	.uleb128 0x21
	.sleb128 2
	.uleb128 0x1
	.uleb128 0x13
	.byte	0
	.byte	0
	.uleb128 0x52
	.uleb128 0x2e
	.byte	0x1
	.uleb128 0x3f
	.uleb128 0x19
	.uleb128 0x3
	.uleb128 0xe
	.uleb128 0x6e
	.uleb128 0xe
	.uleb128 0x34
	.uleb128 0x19
	.uleb128 0x3c
	.uleb128 0x19
	.uleb128 0x64
	.uleb128 0x13
	.uleb128 0x1
	.uleb128 0x13
	.byte	0
	.byte	0
	.uleb128 0x53
	.uleb128 0xd
	.byte	0
	.uleb128 0x3
	.uleb128 0xe
	.uleb128 0x3a
	.uleb128 0x21
	.sleb128 24
	.uleb128 0x3b
	.uleb128 0xb
	.uleb128 0x39
	.uleb128 0xb
	.uleb128 0x49
	.uleb128 0x13
	.byte	0
	.byte	0
	.uleb128 0x54
	.uleb128 0x30
	.byte	0
	.uleb128 0x3
	.uleb128 0x8
	.uleb128 0x49
	.uleb128 0x13
	.uleb128 0x1c
	.uleb128 0xb
	.byte	0
	.byte	0
	.uleb128 0x55
	.uleb128 0x39
	.byte	0
	.uleb128 0x3
	.uleb128 0xe
	.uleb128 0x3a
	.uleb128 0x21
	.sleb128 31
	.uleb128 0x3b
	.uleb128 0x5
	.uleb128 0x39
	.uleb128 0x21
	.sleb128 13
	.byte	0
	.byte	0
	.uleb128 0x56
	.uleb128 0x2e
	.byte	0x1
	.uleb128 0x3f
	.uleb128 0x19
	.uleb128 0x3
	.uleb128 0xe
	.uleb128 0x3a
	.uleb128 0xb
	.uleb128 0x3b
	.uleb128 0xb
	.uleb128 0x39
	.uleb128 0xb
	.uleb128 0x6e
	.uleb128 0xe
	.uleb128 0x87
	.uleb128 0x19
	.uleb128 0x3c
	.uleb128 0x19
	.uleb128 0x1
	.uleb128 0x13
	.byte	0
	.byte	0
	.uleb128 0x57
	.uleb128 0x2e
	.byte	0x1
	.uleb128 0x3f
	.uleb128 0x19
	.uleb128 0x3
	.uleb128 0x8
	.uleb128 0x3a
	.uleb128 0x21
	.sleb128 33
	.uleb128 0x3b
	.uleb128 0x5
	.uleb128 0x39
	.uleb128 0x21
	.sleb128 7
	.uleb128 0x6e
	.uleb128 0xe
	.uleb128 0x49
	.uleb128 0x13
	.uleb128 0x3c
	.uleb128 0x19
	.uleb128 0x1
	.uleb128 0x13
	.byte	0
	.byte	0
	.uleb128 0x58
	.uleb128 0x39
	.byte	0
	.uleb128 0x3
	.uleb128 0xe
	.uleb128 0x3a
	.uleb128 0xb
	.uleb128 0x3b
	.uleb128 0xb
	.uleb128 0x39
	.uleb128 0xb
	.byte	0
	.byte	0
	.uleb128 0x59
	.uleb128 0x2e
	.byte	0x1
	.uleb128 0x3f
	.uleb128 0x19
	.uleb128 0x3
	.uleb128 0xe
	.uleb128 0x3a
	.uleb128 0x21
	.sleb128 39
	.uleb128 0x3b
	.uleb128 0x5
	.uleb128 0x39
	.uleb128 0x21
	.sleb128 7
	.uleb128 0x6e
	.uleb128 0xe
	.uleb128 0x32
	.uleb128 0x21
	.sleb128 1
	.uleb128 0x3c
	.uleb128 0x19
	.uleb128 0x64
	.uleb128 0x13
	.uleb128 0x20
	.uleb128 0x21
	.sleb128 0
	.uleb128 0x1
	.uleb128 0x13
	.byte	0
	.byte	0
	.uleb128 0x5a
	.uleb128 0x2f
	.byte	0
	.uleb128 0x3
	.uleb128 0xe
	.uleb128 0x49
	.uleb128 0x13
	.uleb128 0x1e
	.uleb128 0x19
	.byte	0
	.byte	0
	.uleb128 0x5b
	.uleb128 0x2e
	.byte	0x1
	.uleb128 0x3f
	.uleb128 0x19
	.uleb128 0x3
	.uleb128 0xe
	.uleb128 0x3a
	.uleb128 0x21
	.sleb128 7
	.uleb128 0x3b
	.uleb128 0xb
	.uleb128 0x39
	.uleb128 0x21
	.sleb128 18
	.uleb128 0x6e
	.uleb128 0xe
	.uleb128 0x49
	.uleb128 0x13
	.uleb128 0x32
	.uleb128 0x21
	.sleb128 1
	.uleb128 0x3c
	.uleb128 0x19
	.uleb128 0x8b
	.uleb128 0x21
	.sleb128 1
	.uleb128 0x64
	.uleb128 0x13
	.uleb128 0x1
	.uleb128 0x13
	.byte	0
	.byte	0
	.uleb128 0x5c
	.uleb128 0x2e
	.byte	0x1
	.uleb128 0x3f
	.uleb128 0x19
	.uleb128 0x3
	.uleb128 0xe
	.uleb128 0x3a
	.uleb128 0x21
	.sleb128 7
	.uleb128 0x3b
	.uleb128 0xb
	.uleb128 0x39
	.uleb128 0x21
	.sleb128 7
	.uleb128 0x6e
	.uleb128 0xe
	.uleb128 0x32
	.uleb128 0x21
	.sleb128 1
	.uleb128 0x3c
	.uleb128 0x19
	.uleb128 0x64
	.uleb128 0x13
	.byte	0
	.byte	0
	.uleb128 0x5d
	.uleb128 0x2e
	.byte	0x1
	.uleb128 0x3f
	.uleb128 0x19
	.uleb128 0x3
	.uleb128 0xe
	.uleb128 0x3a
	.uleb128 0x21
	.sleb128 6
	.uleb128 0x3b
	.uleb128 0xb
	.uleb128 0x39
	.uleb128 0x21
	.sleb128 2
	.uleb128 0x6e
	.uleb128 0xe
	.uleb128 0x3c
	.uleb128 0x19
	.uleb128 0x64
	.uleb128 0x13
	.byte	0
	.byte	0
	.uleb128 0x5e
	.uleb128 0x2e
	.byte	0x1
	.uleb128 0x3f
	.uleb128 0x19
	.uleb128 0x3
	.uleb128 0xe
	.uleb128 0x6e
	.uleb128 0xe
	.uleb128 0x34
	.uleb128 0x19
	.uleb128 0x3c
	.uleb128 0x19
	.uleb128 0x64
	.uleb128 0x13
	.byte	0
	.byte	0
	.uleb128 0x5f
	.uleb128 0xd
	.byte	0
	.uleb128 0x3
	.uleb128 0xe
	.uleb128 0x3a
	.uleb128 0x21
	.sleb128 6
	.uleb128 0x3b
	.uleb128 0x21
	.sleb128 371
	.uleb128 0x39
	.uleb128 0x21
	.sleb128 20
	.uleb128 0x49
	.uleb128 0x13
	.uleb128 0x38
	.uleb128 0x21
	.sleb128 0
	.byte	0
	.byte	0
	.uleb128 0x60
	.uleb128 0x2e
	.byte	0
	.uleb128 0x3f
	.uleb128 0x19
	.uleb128 0x3
	.uleb128 0xe
	.uleb128 0x3a
	.uleb128 0x21
	.sleb128 6
	.uleb128 0x3b
	.uleb128 0x21
	.sleb128 478
	.uleb128 0x39
	.uleb128 0x21
	.sleb128 7
	.uleb128 0x6e
	.uleb128 0xe
	.uleb128 0x49
	.uleb128 0x13
	.uleb128 0x3c
	.uleb128 0x19
	.byte	0
	.byte	0
	.uleb128 0x61
	.uleb128 0x2e
	.byte	0
	.uleb128 0x3f
	.uleb128 0x19
	.uleb128 0x3
	.uleb128 0xe
	.uleb128 0x3a
	.uleb128 0x21
	.sleb128 43
	.uleb128 0x3b
	.uleb128 0xb
	.uleb128 0x39
	.uleb128 0x21
	.sleb128 3
	.uleb128 0x6e
	.uleb128 0xe
	.uleb128 0x87
	.uleb128 0x19
	.uleb128 0x3c
	.uleb128 0x19
	.byte	0
	.byte	0
	.uleb128 0x62
	.uleb128 0x4107
	.byte	0
	.uleb128 0x3
	.uleb128 0xe
	.byte	0
	.byte	0
	.uleb128 0x63
	.uleb128 0x2e
	.byte	0x1
	.uleb128 0x3f
	.uleb128 0x19
	.uleb128 0x3
	.uleb128 0xe
	.uleb128 0x3a
	.uleb128 0xb
	.uleb128 0x3b
	.uleb128 0x5
	.uleb128 0x39
	.uleb128 0xb
	.uleb128 0x6e
	.uleb128 0xe
	.uleb128 0x49
	.uleb128 0x13
	.uleb128 0x3c
	.uleb128 0x19
	.byte	0
	.byte	0
	.uleb128 0x64
	.uleb128 0x2e
	.byte	0
	.uleb128 0x3f
	.uleb128 0x19
	.uleb128 0x3
	.uleb128 0xe
	.uleb128 0x3a
	.uleb128 0xb
	.uleb128 0x3b
	.uleb128 0xb
	.uleb128 0x39
	.uleb128 0xb
	.uleb128 0x49
	.uleb128 0x13
	.uleb128 0x3c
	.uleb128 0x19
	.byte	0
	.byte	0
	.uleb128 0x65
	.uleb128 0x3a
	.byte	0
	.uleb128 0x3a
	.uleb128 0xb
	.uleb128 0x3b
	.uleb128 0xb
	.uleb128 0x39
	.uleb128 0xb
	.uleb128 0x18
	.uleb128 0x13
	.byte	0
	.byte	0
	.uleb128 0x66
	.uleb128 0x39
	.byte	0x1
	.uleb128 0x3
	.uleb128 0xe
	.uleb128 0x3a
	.uleb128 0xb
	.uleb128 0x3b
	.uleb128 0xb
	.uleb128 0x39
	.uleb128 0xb
	.byte	0
	.byte	0
	.uleb128 0x67
	.uleb128 0x34
	.byte	0
	.uleb128 0x3
	.uleb128 0x8
	.uleb128 0x3a
	.uleb128 0x21
	.sleb128 60
	.uleb128 0x3b
	.uleb128 0xb
	.uleb128 0x39
	.uleb128 0xb
	.uleb128 0x49
	.uleb128 0x13
	.uleb128 0x3c
	.uleb128 0x19
	.uleb128 0x1c
	.uleb128 0xa
	.uleb128 0x6c
	.uleb128 0x19
	.byte	0
	.byte	0
	.uleb128 0x68
	.uleb128 0x34
	.byte	0
	.uleb128 0x3
	.uleb128 0xe
	.uleb128 0x3a
	.uleb128 0x21
	.sleb128 60
	.uleb128 0x3b
	.uleb128 0xb
	.uleb128 0x39
	.uleb128 0xb
	.uleb128 0x49
	.uleb128 0x13
	.uleb128 0x3c
	.uleb128 0x19
	.uleb128 0x1c
	.uleb128 0xa
	.uleb128 0x6c
	.uleb128 0x19
	.byte	0
	.byte	0
	.uleb128 0x69
	.uleb128 0x2e
	.byte	0x1
	.uleb128 0x3f
	.uleb128 0x19
	.uleb128 0x3
	.uleb128 0xe
	.uleb128 0x49
	.uleb128 0x13
	.uleb128 0x34
	.uleb128 0x19
	.uleb128 0x3c
	.uleb128 0x19
	.uleb128 0x1
	.uleb128 0x13
	.byte	0
	.byte	0
	.uleb128 0x6a
	.uleb128 0xb
	.byte	0x1
	.uleb128 0x11
	.uleb128 0x1
	.uleb128 0x12
	.uleb128 0x7
	.byte	0
	.byte	0
	.uleb128 0x6b
	.uleb128 0x34
	.byte	0
	.uleb128 0x3
	.uleb128 0xe
	.uleb128 0x3a
	.uleb128 0x21
	.sleb128 17
	.uleb128 0x3b
	.uleb128 0xb
	.uleb128 0x39
	.uleb128 0x21
	.sleb128 18
	.uleb128 0x49
	.uleb128 0x13
	.uleb128 0x2
	.uleb128 0x18
	.byte	0
	.byte	0
	.uleb128 0x6c
	.uleb128 0x34
	.byte	0
	.uleb128 0x3
	.uleb128 0x8
	.uleb128 0x3a
	.uleb128 0x21
	.sleb128 6
	.uleb128 0x3b
	.uleb128 0x5
	.uleb128 0x39
	.uleb128 0xb
	.uleb128 0x49
	.uleb128 0x13
	.uleb128 0x2
	.uleb128 0x18
	.byte	0
	.byte	0
	.uleb128 0x6d
	.uleb128 0xb
	.byte	0x1
	.uleb128 0x55
	.uleb128 0x17
	.byte	0
	.byte	0
	.uleb128 0x6e
	.uleb128 0x4108
	.byte	0x1
	.uleb128 0x3a
	.uleb128 0x21
	.sleb128 4
	.uleb128 0x3b
	.uleb128 0xb
	.uleb128 0x39
	.uleb128 0x21
	.sleb128 17
	.uleb128 0x1
	.uleb128 0x13
	.byte	0
	.byte	0
	.uleb128 0x6f
	.uleb128 0x11
	.byte	0x1
	.uleb128 0x25
	.uleb128 0xe
	.uleb128 0x13
	.uleb128 0xb
	.uleb128 0x3
	.uleb128 0x1f
	.uleb128 0x1b
	.uleb128 0x1f
	.uleb128 0x55
	.uleb128 0x17
	.uleb128 0x11
	.uleb128 0x1
	.uleb128 0x10
	.uleb128 0x17
	.byte	0
	.byte	0
	.uleb128 0x70
	.uleb128 0x13
	.byte	0x1
	.uleb128 0x3
	.uleb128 0xe
	.uleb128 0xb
	.uleb128 0xb
	.uleb128 0x3a
	.uleb128 0xb
	.uleb128 0x3b
	.uleb128 0xb
	.uleb128 0x1
	.uleb128 0x13
	.byte	0
	.byte	0
	.uleb128 0x71
	.uleb128 0xf
	.byte	0
	.uleb128 0xb
	.uleb128 0xb
	.byte	0
	.byte	0
	.uleb128 0x72
	.uleb128 0x17
	.byte	0x1
	.uleb128 0xb
	.uleb128 0xb
	.uleb128 0x3a
	.uleb128 0xb
	.uleb128 0x3b
	.uleb128 0xb
	.uleb128 0x39
	.uleb128 0xb
	.uleb128 0x1
	.uleb128 0x13
	.byte	0
	.byte	0
	.uleb128 0x73
	.uleb128 0x24
	.byte	0
	.uleb128 0xb
	.uleb128 0xb
	.uleb128 0x3e
	.uleb128 0xb
	.uleb128 0x3
	.uleb128 0x8
	.byte	0
	.byte	0
	.uleb128 0x74
	.uleb128 0x39
	.byte	0x1
	.uleb128 0x3
	.uleb128 0x8
	.uleb128 0x3a
	.uleb128 0xb
	.uleb128 0x3b
	.uleb128 0x5
	.uleb128 0x39
	.uleb128 0xb
	.uleb128 0x1
	.uleb128 0x13
	.byte	0
	.byte	0
	.uleb128 0x75
	.uleb128 0x4
	.byte	0
	.uleb128 0x3
	.uleb128 0xe
	.uleb128 0x6d
	.uleb128 0x19
	.uleb128 0x3e
	.uleb128 0xb
	.uleb128 0xb
	.uleb128 0xb
	.uleb128 0x49
	.uleb128 0x13
	.uleb128 0x3a
	.uleb128 0xb
	.uleb128 0x3b
	.uleb128 0xb
	.uleb128 0x39
	.uleb128 0xb
	.byte	0
	.byte	0
	.uleb128 0x76
	.uleb128 0x2e
	.byte	0x1
	.uleb128 0x3f
	.uleb128 0x19
	.uleb128 0x3
	.uleb128 0xe
	.uleb128 0x3a
	.uleb128 0xb
	.uleb128 0x3b
	.uleb128 0xb
	.uleb128 0x39
	.uleb128 0xb
	.uleb128 0x6e
	.uleb128 0xe
	.uleb128 0x3c
	.uleb128 0x19
	.uleb128 0x63
	.uleb128 0x19
	.uleb128 0x64
	.uleb128 0x13
	.uleb128 0x1
	.uleb128 0x13
	.byte	0
	.byte	0
	.uleb128 0x77
	.uleb128 0x2e
	.byte	0x1
	.uleb128 0x3f
	.uleb128 0x19
	.uleb128 0x3
	.uleb128 0xe
	.uleb128 0x3a
	.uleb128 0xb
	.uleb128 0x3b
	.uleb128 0xb
	.uleb128 0x39
	.uleb128 0xb
	.uleb128 0x6e
	.uleb128 0xe
	.uleb128 0x49
	.uleb128 0x13
	.uleb128 0x32
	.uleb128 0xb
	.uleb128 0x3c
	.uleb128 0x19
	.uleb128 0x63
	.uleb128 0x19
	.uleb128 0x64
	.uleb128 0x13
	.uleb128 0x1
	.uleb128 0x13
	.byte	0
	.byte	0
	.uleb128 0x78
	.uleb128 0x2e
	.byte	0x1
	.uleb128 0x3f
	.uleb128 0x19
	.uleb128 0x3
	.uleb128 0xe
	.uleb128 0x3a
	.uleb128 0xb
	.uleb128 0x3b
	.uleb128 0xb
	.uleb128 0x39
	.uleb128 0xb
	.uleb128 0x6e
	.uleb128 0xe
	.uleb128 0x49
	.uleb128 0x13
	.uleb128 0x32
	.uleb128 0xb
	.uleb128 0x3c
	.uleb128 0x19
	.uleb128 0x64
	.uleb128 0x13
	.byte	0
	.byte	0
	.uleb128 0x79
	.uleb128 0x2e
	.byte	0
	.uleb128 0x3f
	.uleb128 0x19
	.uleb128 0x3
	.uleb128 0x8
	.uleb128 0x3a
	.uleb128 0xb
	.uleb128 0x3b
	.uleb128 0x5
	.uleb128 0x39
	.uleb128 0xb
	.uleb128 0x6e
	.uleb128 0xe
	.uleb128 0x49
	.uleb128 0x13
	.uleb128 0x3c
	.uleb128 0x19
	.byte	0
	.byte	0
	.uleb128 0x7a
	.uleb128 0x13
	.byte	0
	.uleb128 0x3
	.uleb128 0xe
	.uleb128 0xb
	.uleb128 0xb
	.uleb128 0x3a
	.uleb128 0xb
	.uleb128 0x3b
	.uleb128 0xb
	.uleb128 0x39
	.uleb128 0xb
	.byte	0
	.byte	0
	.uleb128 0x7b
	.uleb128 0x2e
	.byte	0x1
	.uleb128 0x3f
	.uleb128 0x19
	.uleb128 0x3
	.uleb128 0xe
	.uleb128 0x3a
	.uleb128 0xb
	.uleb128 0x3b
	.uleb128 0xb
	.uleb128 0x39
	.uleb128 0xb
	.uleb128 0x6e
	.uleb128 0xe
	.uleb128 0x3c
	.uleb128 0x19
	.byte	0
	.byte	0
	.uleb128 0x7c
	.uleb128 0x39
	.byte	0
	.uleb128 0x3
	.uleb128 0xe
	.uleb128 0x3a
	.uleb128 0xb
	.uleb128 0x3b
	.uleb128 0x5
	.uleb128 0x39
	.uleb128 0xb
	.uleb128 0x89
	.uleb128 0x19
	.byte	0
	.byte	0
	.uleb128 0x7d
	.uleb128 0x39
	.byte	0
	.uleb128 0x3
	.uleb128 0x8
	.uleb128 0x3a
	.uleb128 0xb
	.uleb128 0x3b
	.uleb128 0xb
	.uleb128 0x39
	.uleb128 0xb
	.uleb128 0x89
	.uleb128 0x19
	.byte	0
	.byte	0
	.uleb128 0x7e
	.uleb128 0x2
	.byte	0x1
	.uleb128 0x3
	.uleb128 0xe
	.uleb128 0xb
	.uleb128 0xb
	.uleb128 0x3a
	.uleb128 0xb
	.uleb128 0x3b
	.uleb128 0x5
	.uleb128 0x39
	.uleb128 0xb
	.uleb128 0x32
	.uleb128 0xb
	.uleb128 0x1
	.uleb128 0x13
	.byte	0
	.byte	0
	.uleb128 0x7f
	.uleb128 0x2e
	.byte	0x1
	.uleb128 0x3f
	.uleb128 0x19
	.uleb128 0x3
	.uleb128 0xe
	.uleb128 0x3a
	.uleb128 0xb
	.uleb128 0x3b
	.uleb128 0x5
	.uleb128 0x39
	.uleb128 0xb
	.uleb128 0x6e
	.uleb128 0xe
	.uleb128 0x49
	.uleb128 0x13
	.uleb128 0x32
	.uleb128 0xb
	.uleb128 0x3c
	.uleb128 0x19
	.uleb128 0x8b
	.uleb128 0xb
	.uleb128 0x64
	.uleb128 0x13
	.byte	0
	.byte	0
	.uleb128 0x80
	.uleb128 0x34
	.byte	0
	.uleb128 0x3
	.uleb128 0xe
	.uleb128 0x3a
	.uleb128 0xb
	.uleb128 0x3b
	.uleb128 0xb
	.uleb128 0x39
	.uleb128 0xb
	.uleb128 0x6e
	.uleb128 0xe
	.uleb128 0x49
	.uleb128 0x13
	.uleb128 0x3f
	.uleb128 0x19
	.uleb128 0x3c
	.uleb128 0x19
	.byte	0
	.byte	0
	.uleb128 0x81
	.uleb128 0x34
	.byte	0
	.uleb128 0x3
	.uleb128 0xe
	.uleb128 0x3a
	.uleb128 0xb
	.uleb128 0x3b
	.uleb128 0xb
	.uleb128 0x39
	.uleb128 0xb
	.uleb128 0x49
	.uleb128 0x13
	.uleb128 0x3c
	.uleb128 0x19
	.byte	0
	.byte	0
	.uleb128 0x82
	.uleb128 0x2e
	.byte	0x1
	.uleb128 0x3f
	.uleb128 0x19
	.uleb128 0x3
	.uleb128 0x8
	.uleb128 0x3a
	.uleb128 0xb
	.uleb128 0x3b
	.uleb128 0xb
	.uleb128 0x39
	.uleb128 0xb
	.uleb128 0x6e
	.uleb128 0xe
	.uleb128 0x49
	.uleb128 0x13
	.uleb128 0x32
	.uleb128 0xb
	.uleb128 0x3c
	.uleb128 0x19
	.uleb128 0x64
	.uleb128 0x13
	.uleb128 0x1
	.uleb128 0x13
	.byte	0
	.byte	0
	.uleb128 0x83
	.uleb128 0x2e
	.byte	0x1
	.uleb128 0x3f
	.uleb128 0x19
	.uleb128 0x3
	.uleb128 0xe
	.uleb128 0x3a
	.uleb128 0xb
	.uleb128 0x3b
	.uleb128 0xb
	.uleb128 0x39
	.uleb128 0xb
	.uleb128 0x6e
	.uleb128 0xe
	.uleb128 0x4c
	.uleb128 0xb
	.uleb128 0x1d
	.uleb128 0x13
	.uleb128 0x32
	.uleb128 0xb
	.uleb128 0x3c
	.uleb128 0x19
	.uleb128 0x64
	.uleb128 0x13
	.uleb128 0x20
	.uleb128 0xb
	.uleb128 0x1
	.uleb128 0x13
	.byte	0
	.byte	0
	.uleb128 0x84
	.uleb128 0x2e
	.byte	0x1
	.uleb128 0x3f
	.uleb128 0x19
	.uleb128 0x3
	.uleb128 0xe
	.uleb128 0x3a
	.uleb128 0xb
	.uleb128 0x3b
	.uleb128 0xb
	.uleb128 0x39
	.uleb128 0xb
	.uleb128 0x6e
	.uleb128 0xe
	.uleb128 0x32
	.uleb128 0xb
	.uleb128 0x3c
	.uleb128 0x19
	.uleb128 0x63
	.uleb128 0x19
	.uleb128 0x64
	.uleb128 0x13
	.uleb128 0x20
	.uleb128 0xb
	.byte	0
	.byte	0
	.uleb128 0x85
	.uleb128 0x13
	.byte	0x1
	.uleb128 0x3
	.uleb128 0x8
	.uleb128 0xb
	.uleb128 0xb
	.uleb128 0x3a
	.uleb128 0xb
	.uleb128 0x3b
	.uleb128 0xb
	.uleb128 0x39
	.uleb128 0xb
	.uleb128 0x1
	.uleb128 0x13
	.byte	0
	.byte	0
	.uleb128 0x86
	.uleb128 0x39
	.byte	0x1
	.uleb128 0x3
	.uleb128 0xe
	.uleb128 0x3a
	.uleb128 0xb
	.uleb128 0x3b
	.uleb128 0x5
	.uleb128 0x39
	.uleb128 0xb
	.uleb128 0x1
	.uleb128 0x13
	.byte	0
	.byte	0
	.uleb128 0x87
	.uleb128 0x2e
	.byte	0x1
	.uleb128 0x3f
	.uleb128 0x19
	.uleb128 0x3
	.uleb128 0x8
	.uleb128 0x3a
	.uleb128 0xb
	.uleb128 0x3b
	.uleb128 0xb
	.uleb128 0x39
	.uleb128 0xb
	.uleb128 0x6e
	.uleb128 0xe
	.uleb128 0x49
	.uleb128 0x13
	.uleb128 0x3c
	.uleb128 0x19
	.uleb128 0x1
	.uleb128 0x13
	.byte	0
	.byte	0
	.uleb128 0x88
	.uleb128 0xd
	.byte	0
	.uleb128 0x3
	.uleb128 0xe
	.uleb128 0x3a
	.uleb128 0xb
	.uleb128 0x3b
	.uleb128 0x5
	.uleb128 0x39
	.uleb128 0xb
	.uleb128 0x49
	.uleb128 0x13
	.uleb128 0x38
	.uleb128 0xb
	.uleb128 0x32
	.uleb128 0xb
	.byte	0
	.byte	0
	.uleb128 0x89
	.uleb128 0x3b
	.byte	0
	.uleb128 0x3
	.uleb128 0xe
	.byte	0
	.byte	0
	.uleb128 0x8a
	.uleb128 0x15
	.byte	0x1
	.uleb128 0x1
	.uleb128 0x13
	.byte	0
	.byte	0
	.uleb128 0x8b
	.uleb128 0x26
	.byte	0
	.byte	0
	.byte	0
	.uleb128 0x8c
	.uleb128 0x15
	.byte	0x1
	.uleb128 0x49
	.uleb128 0x13
	.uleb128 0x1
	.uleb128 0x13
	.byte	0
	.byte	0
	.uleb128 0x8d
	.uleb128 0x15
	.byte	0
	.byte	0
	.byte	0
	.uleb128 0x8e
	.uleb128 0x2e
	.byte	0x1
	.uleb128 0x3f
	.uleb128 0x19
	.uleb128 0x3
	.uleb128 0x8
	.uleb128 0x3a
	.uleb128 0xb
	.uleb128 0x3b
	.uleb128 0x5
	.uleb128 0x39
	.uleb128 0xb
	.uleb128 0x49
	.uleb128 0x13
	.uleb128 0x3c
	.uleb128 0x19
	.uleb128 0x1
	.uleb128 0x13
	.byte	0
	.byte	0
	.uleb128 0x8f
	.uleb128 0x2e
	.byte	0x1
	.uleb128 0x3f
	.uleb128 0x19
	.uleb128 0x3
	.uleb128 0xe
	.uleb128 0x3a
	.uleb128 0xb
	.uleb128 0x3b
	.uleb128 0x5
	.uleb128 0x39
	.uleb128 0xb
	.uleb128 0x87
	.uleb128 0x19
	.uleb128 0x3c
	.uleb128 0x19
	.uleb128 0x1
	.uleb128 0x13
	.byte	0
	.byte	0
	.uleb128 0x90
	.uleb128 0x16
	.byte	0
	.uleb128 0x3
	.uleb128 0xe
	.uleb128 0x3a
	.uleb128 0xb
	.uleb128 0x3b
	.uleb128 0xb
	.uleb128 0x39
	.uleb128 0xb
	.byte	0
	.byte	0
	.uleb128 0x91
	.uleb128 0x34
	.byte	0
	.uleb128 0x47
	.uleb128 0x13
	.uleb128 0x2
	.uleb128 0x18
	.byte	0
	.byte	0
	.uleb128 0x92
	.uleb128 0x39
	.byte	0x1
	.uleb128 0x3
	.uleb128 0x8
	.uleb128 0x3a
	.uleb128 0xb
	.uleb128 0x3b
	.uleb128 0xb
	.uleb128 0x39
	.uleb128 0xb
	.uleb128 0x89
	.uleb128 0x19
	.byte	0
	.byte	0
	.uleb128 0x93
	.uleb128 0x2e
	.byte	0x1
	.uleb128 0x3f
	.uleb128 0x19
	.uleb128 0x3
	.uleb128 0xe
	.uleb128 0x3a
	.uleb128 0xb
	.uleb128 0x3b
	.uleb128 0xb
	.uleb128 0x39
	.uleb128 0xb
	.uleb128 0x6e
	.uleb128 0xe
	.uleb128 0x32
	.uleb128 0xb
	.uleb128 0x3c
	.uleb128 0x19
	.uleb128 0x8b
	.uleb128 0xb
	.uleb128 0x64
	.uleb128 0x13
	.uleb128 0x1
	.uleb128 0x13
	.byte	0
	.byte	0
	.uleb128 0x94
	.uleb128 0x2e
	.byte	0x1
	.uleb128 0x3f
	.uleb128 0x19
	.uleb128 0x3
	.uleb128 0xe
	.uleb128 0x6e
	.uleb128 0xe
	.uleb128 0x34
	.uleb128 0x19
	.uleb128 0x32
	.uleb128 0xb
	.uleb128 0x3c
	.uleb128 0x19
	.uleb128 0x64
	.uleb128 0x13
	.uleb128 0x1
	.uleb128 0x13
	.byte	0
	.byte	0
	.uleb128 0x95
	.uleb128 0x4107
	.byte	0
	.uleb128 0x3
	.uleb128 0xe
	.uleb128 0x3a
	.uleb128 0xb
	.uleb128 0x3b
	.uleb128 0xb
	.uleb128 0x39
	.uleb128 0xb
	.byte	0
	.byte	0
	.uleb128 0x96
	.uleb128 0x2e
	.byte	0x1
	.uleb128 0x3f
	.uleb128 0x19
	.uleb128 0x3
	.uleb128 0xe
	.uleb128 0x3a
	.uleb128 0xb
	.uleb128 0x3b
	.uleb128 0xb
	.uleb128 0x39
	.uleb128 0xb
	.uleb128 0x6e
	.uleb128 0xe
	.uleb128 0x49
	.uleb128 0x13
	.uleb128 0x3c
	.uleb128 0x19
	.byte	0
	.byte	0
	.uleb128 0x97
	.uleb128 0x34
	.byte	0
	.uleb128 0x3
	.uleb128 0xe
	.uleb128 0x49
	.uleb128 0x13
	.uleb128 0x3f
	.uleb128 0x19
	.uleb128 0x34
	.uleb128 0x19
	.uleb128 0x3c
	.uleb128 0x19
	.byte	0
	.byte	0
	.uleb128 0x98
	.uleb128 0x2e
	.byte	0
	.uleb128 0x3f
	.uleb128 0x19
	.uleb128 0x3
	.uleb128 0xe
	.uleb128 0x34
	.uleb128 0x19
	.uleb128 0x3c
	.uleb128 0x19
	.byte	0
	.byte	0
	.uleb128 0x99
	.uleb128 0x2e
	.byte	0
	.uleb128 0x3f
	.uleb128 0x19
	.uleb128 0x3
	.uleb128 0xe
	.uleb128 0x34
	.uleb128 0x19
	.uleb128 0x87
	.uleb128 0x19
	.uleb128 0x3c
	.uleb128 0x19
	.byte	0
	.byte	0
	.uleb128 0x9a
	.uleb128 0x2e
	.byte	0x1
	.uleb128 0x3f
	.uleb128 0x19
	.uleb128 0x3
	.uleb128 0xe
	.uleb128 0x34
	.uleb128 0x19
	.uleb128 0x3c
	.uleb128 0x19
	.uleb128 0x1
	.uleb128 0x13
	.byte	0
	.byte	0
	.uleb128 0x9b
	.uleb128 0x2e
	.byte	0x1
	.uleb128 0x3f
	.uleb128 0x19
	.uleb128 0x3
	.uleb128 0xe
	.uleb128 0x34
	.uleb128 0x19
	.uleb128 0x87
	.uleb128 0x19
	.uleb128 0x3c
	.uleb128 0x19
	.uleb128 0x1
	.uleb128 0x13
	.byte	0
	.byte	0
	.uleb128 0x9c
	.uleb128 0x2e
	.byte	0
	.uleb128 0x3
	.uleb128 0xe
	.uleb128 0x34
	.uleb128 0x19
	.uleb128 0x11
	.uleb128 0x1
	.uleb128 0x12
	.uleb128 0x7
	.uleb128 0x40
	.uleb128 0x18
	.uleb128 0x7c
	.uleb128 0x19
	.byte	0
	.byte	0
	.uleb128 0x9d
	.uleb128 0x2e
	.byte	0x1
	.uleb128 0x3
	.uleb128 0xe
	.uleb128 0x34
	.uleb128 0x19
	.uleb128 0x11
	.uleb128 0x1
	.uleb128 0x12
	.uleb128 0x7
	.uleb128 0x40
	.uleb128 0x18
	.uleb128 0x7c
	.uleb128 0x19
	.uleb128 0x1
	.uleb128 0x13
	.byte	0
	.byte	0
	.uleb128 0x9e
	.uleb128 0x4108
	.byte	0
	.uleb128 0x3a
	.uleb128 0xb
	.uleb128 0x3b
	.uleb128 0xb
	.uleb128 0x39
	.uleb128 0xb
	.byte	0
	.byte	0
	.uleb128 0x9f
	.uleb128 0x34
	.byte	0
	.uleb128 0x3
	.uleb128 0xe
	.uleb128 0x3a
	.uleb128 0xb
	.uleb128 0x3b
	.uleb128 0x5
	.uleb128 0x39
	.uleb128 0xb
	.uleb128 0x49
	.uleb128 0x13
	.uleb128 0x6c
	.uleb128 0x19
	.uleb128 0x2
	.uleb128 0x18
	.byte	0
	.byte	0
	.uleb128 0xa0
	.uleb128 0x2e
	.byte	0x1
	.uleb128 0x47
	.uleb128 0x13
	.uleb128 0x1
	.uleb128 0x13
	.byte	0
	.byte	0
	.uleb128 0xa1
	.uleb128 0x5
	.byte	0
	.uleb128 0x3
	.uleb128 0xe
	.uleb128 0x3a
	.uleb128 0xb
	.uleb128 0x3b
	.uleb128 0x5
	.uleb128 0x39
	.uleb128 0xb
	.uleb128 0x49
	.uleb128 0x13
	.byte	0
	.byte	0
	.uleb128 0xa2
	.uleb128 0x2e
	.byte	0x1
	.uleb128 0x47
	.uleb128 0x13
	.uleb128 0x64
	.uleb128 0x13
	.uleb128 0x1
	.uleb128 0x13
	.byte	0
	.byte	0
	.uleb128 0xa3
	.uleb128 0x13
	.byte	0x1
	.uleb128 0xb
	.uleb128 0xb
	.uleb128 0x3a
	.uleb128 0xb
	.uleb128 0x3b
	.uleb128 0xb
	.uleb128 0x39
	.uleb128 0xb
	.byte	0
	.byte	0
	.uleb128 0xa4
	.uleb128 0x2e
	.byte	0x1
	.uleb128 0x3f
	.uleb128 0x19
	.uleb128 0x3
	.uleb128 0xe
	.uleb128 0x6e
	.uleb128 0xe
	.uleb128 0x34
	.uleb128 0x19
	.uleb128 0x3c
	.uleb128 0x19
	.uleb128 0x8a
	.uleb128 0x19
	.uleb128 0x64
	.uleb128 0x13
	.uleb128 0x1
	.uleb128 0x13
	.byte	0
	.byte	0
	.uleb128 0xa5
	.uleb128 0x2e
	.byte	0x1
	.uleb128 0x3f
	.uleb128 0x19
	.uleb128 0x3
	.uleb128 0xe
	.uleb128 0x6e
	.uleb128 0xe
	.uleb128 0x34
	.uleb128 0x19
	.uleb128 0x64
	.uleb128 0x13
	.uleb128 0x11
	.uleb128 0x1
	.uleb128 0x12
	.uleb128 0x7
	.uleb128 0x40
	.uleb128 0x18
	.uleb128 0x7c
	.uleb128 0x19
	.byte	0
	.byte	0
	.uleb128 0xa6
	.uleb128 0x34
	.byte	0
	.uleb128 0x3
	.uleb128 0xe
	.uleb128 0x49
	.uleb128 0x13
	.uleb128 0x34
	.uleb128 0x19
	.uleb128 0x2
	.uleb128 0x18
	.byte	0
	.byte	0
	.uleb128 0xa7
	.uleb128 0xb
	.byte	0x1
	.uleb128 0x31
	.uleb128 0x13
	.uleb128 0x1
	.uleb128 0x13
	.byte	0
	.byte	0
	.uleb128 0xa8
	.uleb128 0x34
	.byte	0
	.uleb128 0x31
	.uleb128 0x13
	.byte	0
	.byte	0
	.uleb128 0xa9
	.uleb128 0xb
	.byte	0x1
	.uleb128 0x31
	.uleb128 0x13
	.uleb128 0x11
	.uleb128 0x1
	.uleb128 0x12
	.uleb128 0x7
	.byte	0
	.byte	0
	.uleb128 0xaa
	.uleb128 0x34
	.byte	0
	.uleb128 0x31
	.uleb128 0x13
	.uleb128 0x2
	.uleb128 0x18
	.byte	0
	.byte	0
	.uleb128 0xab
	.uleb128 0x2e
	.byte	0x1
	.uleb128 0x3f
	.uleb128 0x19
	.uleb128 0x3
	.uleb128 0xe
	.uleb128 0x3a
	.uleb128 0xb
	.uleb128 0x3b
	.uleb128 0xb
	.uleb128 0x39
	.uleb128 0xb
	.uleb128 0x49
	.uleb128 0x13
	.uleb128 0x11
	.uleb128 0x1
	.uleb128 0x12
	.uleb128 0x7
	.uleb128 0x40
	.uleb128 0x18
	.uleb128 0x7c
	.uleb128 0x19
	.uleb128 0x1
	.uleb128 0x13
	.byte	0
	.byte	0
	.uleb128 0xac
	.uleb128 0x34
	.byte	0
	.uleb128 0x3
	.uleb128 0x8
	.uleb128 0x3a
	.uleb128 0xb
	.uleb128 0x3b
	.uleb128 0xb
	.uleb128 0x39
	.uleb128 0xb
	.uleb128 0x49
	.uleb128 0x13
	.uleb128 0x2
	.uleb128 0x18
	.byte	0
	.byte	0
	.uleb128 0xad
	.uleb128 0x2e
	.byte	0x1
	.uleb128 0x3f
	.uleb128 0x19
	.uleb128 0x3
	.uleb128 0xe
	.uleb128 0x3a
	.uleb128 0xb
	.uleb128 0x3b
	.uleb128 0xb
	.uleb128 0x39
	.uleb128 0xb
	.uleb128 0x6e
	.uleb128 0xe
	.uleb128 0x49
	.uleb128 0x13
	.uleb128 0x11
	.uleb128 0x1
	.uleb128 0x12
	.uleb128 0x7
	.uleb128 0x40
	.uleb128 0x18
	.uleb128 0x7a
	.uleb128 0x19
	.uleb128 0x1
	.uleb128 0x13
	.byte	0
	.byte	0
	.byte	0
	.section	.debug_aranges,"",@progbits
	.long	0x6fc
	.value	0x2
	.long	.Ldebug_info0
	.byte	0x8
	.byte	0
	.value	0
	.value	0
	.quad	.Ltext0
	.quad	.Letext0-.Ltext0
	.quad	.LFB40
	.quad	.LFE40-.LFB40
	.quad	.LFB652
	.quad	.LFE652-.LFB652
	.quad	.LFB2568
	.quad	.LFE2568-.LFB2568
	.quad	.LFB2838
	.quad	.LFE2838-.LFB2838
	.quad	.LFB2840
	.quad	.LFE2840-.LFB2840
	.quad	.LFB2842
	.quad	.LFE2842-.LFB2842
	.quad	.LFB2844
	.quad	.LFE2844-.LFB2844
	.quad	.LFB2845
	.quad	.LFE2845-.LFB2845
	.quad	.LFB2848
	.quad	.LFE2848-.LFB2848
	.quad	.LFB2851
	.quad	.LFE2851-.LFB2851
	.quad	.LFB2853
	.quad	.LFE2853-.LFB2853
	.quad	.LFB2961
	.quad	.LFE2961-.LFB2961
	.quad	.LFB2964
	.quad	.LFE2964-.LFB2964
	.quad	.LFB2967
	.quad	.LFE2967-.LFB2967
	.quad	.LFB2970
	.quad	.LFE2970-.LFB2970
	.quad	.LFB2973
	.quad	.LFE2973-.LFB2973
	.quad	.LFB2976
	.quad	.LFE2976-.LFB2976
	.quad	.LFB2978
	.quad	.LFE2978-.LFB2978
	.quad	.LFB2979
	.quad	.LFE2979-.LFB2979
	.quad	.LFB2980
	.quad	.LFE2980-.LFB2980
	.quad	.LFB2981
	.quad	.LFE2981-.LFB2981
	.quad	.LFB2982
	.quad	.LFE2982-.LFB2982
	.quad	.LFB2983
	.quad	.LFE2983-.LFB2983
	.quad	.LFB2986
	.quad	.LFE2986-.LFB2986
	.quad	.LFB2988
	.quad	.LFE2988-.LFB2988
	.quad	.LFB2990
	.quad	.LFE2990-.LFB2990
	.quad	.LFB2991
	.quad	.LFE2991-.LFB2991
	.quad	.LFB2992
	.quad	.LFE2992-.LFB2992
	.quad	.LFB3062
	.quad	.LFE3062-.LFB3062
	.quad	.LFB3065
	.quad	.LFE3065-.LFB3065
	.quad	.LFB3068
	.quad	.LFE3068-.LFB3068
	.quad	.LFB3070
	.quad	.LFE3070-.LFB3070
	.quad	.LFB3072
	.quad	.LFE3072-.LFB3072
	.quad	.LFB3075
	.quad	.LFE3075-.LFB3075
	.quad	.LFB3078
	.quad	.LFE3078-.LFB3078
	.quad	.LFB3080
	.quad	.LFE3080-.LFB3080
	.quad	.LFB3081
	.quad	.LFE3081-.LFB3081
	.quad	.LFB3083
	.quad	.LFE3083-.LFB3083
	.quad	.LFB3082
	.quad	.LFE3082-.LFB3082
	.quad	.LFB3085
	.quad	.LFE3085-.LFB3085
	.quad	.LFB3087
	.quad	.LFE3087-.LFB3087
	.quad	.LFB3088
	.quad	.LFE3088-.LFB3088
	.quad	.LFB3089
	.quad	.LFE3089-.LFB3089
	.quad	.LFB3090
	.quad	.LFE3090-.LFB3090
	.quad	.LFB3095
	.quad	.LFE3095-.LFB3095
	.quad	.LFB3096
	.quad	.LFE3096-.LFB3096
	.quad	.LFB3097
	.quad	.LFE3097-.LFB3097
	.quad	.LFB3098
	.quad	.LFE3098-.LFB3098
	.quad	.LFB3154
	.quad	.LFE3154-.LFB3154
	.quad	.LFB3156
	.quad	.LFE3156-.LFB3156
	.quad	.LFB3158
	.quad	.LFE3158-.LFB3158
	.quad	.LFB3160
	.quad	.LFE3160-.LFB3160
	.quad	.LFB3161
	.quad	.LFE3161-.LFB3161
	.quad	.LFB3162
	.quad	.LFE3162-.LFB3162
	.quad	.LFB3163
	.quad	.LFE3163-.LFB3163
	.quad	.LFB3164
	.quad	.LFE3164-.LFB3164
	.quad	.LFB3165
	.quad	.LFE3165-.LFB3165
	.quad	.LFB3166
	.quad	.LFE3166-.LFB3166
	.quad	.LFB3167
	.quad	.LFE3167-.LFB3167
	.quad	.LFB3168
	.quad	.LFE3168-.LFB3168
	.quad	.LFB3169
	.quad	.LFE3169-.LFB3169
	.quad	.LFB3170
	.quad	.LFE3170-.LFB3170
	.quad	.LFB3171
	.quad	.LFE3171-.LFB3171
	.quad	.LFB3172
	.quad	.LFE3172-.LFB3172
	.quad	.LFB3173
	.quad	.LFE3173-.LFB3173
	.quad	.LFB3174
	.quad	.LFE3174-.LFB3174
	.quad	.LFB3196
	.quad	.LFE3196-.LFB3196
	.quad	.LFB3198
	.quad	.LFE3198-.LFB3198
	.quad	.LFB3201
	.quad	.LFE3201-.LFB3201
	.quad	.LFB3203
	.quad	.LFE3203-.LFB3203
	.quad	.LFB3204
	.quad	.LFE3204-.LFB3204
	.quad	.LFB3205
	.quad	.LFE3205-.LFB3205
	.quad	.LFB3207
	.quad	.LFE3207-.LFB3207
	.quad	.LFB3208
	.quad	.LFE3208-.LFB3208
	.quad	.LFB3209
	.quad	.LFE3209-.LFB3209
	.quad	.LFB3210
	.quad	.LFE3210-.LFB3210
	.quad	.LFB3211
	.quad	.LFE3211-.LFB3211
	.quad	.LFB3212
	.quad	.LFE3212-.LFB3212
	.quad	.LFB3213
	.quad	.LFE3213-.LFB3213
	.quad	.LFB3224
	.quad	.LFE3224-.LFB3224
	.quad	.LFB3226
	.quad	.LFE3226-.LFB3226
	.quad	.LFB3227
	.quad	.LFE3227-.LFB3227
	.quad	.LFB3228
	.quad	.LFE3228-.LFB3228
	.quad	.LFB3229
	.quad	.LFE3229-.LFB3229
	.quad	.LFB3230
	.quad	.LFE3230-.LFB3230
	.quad	.LFB3231
	.quad	.LFE3231-.LFB3231
	.quad	.LFB3232
	.quad	.LFE3232-.LFB3232
	.quad	.LFB3233
	.quad	.LFE3233-.LFB3233
	.quad	.LFB3234
	.quad	.LFE3234-.LFB3234
	.quad	.LFB3239
	.quad	.LFE3239-.LFB3239
	.quad	.LFB3240
	.quad	.LFE3240-.LFB3240
	.quad	.LFB3241
	.quad	.LFE3241-.LFB3241
	.quad	.LFB3242
	.quad	.LFE3242-.LFB3242
	.quad	.LFB3243
	.quad	.LFE3243-.LFB3243
	.quad	.LFB3244
	.quad	.LFE3244-.LFB3244
	.quad	.LFB3245
	.quad	.LFE3245-.LFB3245
	.quad	.LFB3246
	.quad	.LFE3246-.LFB3246
	.quad	.LFB3247
	.quad	.LFE3247-.LFB3247
	.quad	.LFB3248
	.quad	.LFE3248-.LFB3248
	.quad	.LFB3251
	.quad	.LFE3251-.LFB3251
	.quad	.LFB3252
	.quad	.LFE3252-.LFB3252
	.quad	.LFB3253
	.quad	.LFE3253-.LFB3253
	.quad	.LFB3254
	.quad	.LFE3254-.LFB3254
	.quad	.LFB3255
	.quad	.LFE3255-.LFB3255
	.quad	.LFB3256
	.quad	.LFE3256-.LFB3256
	.quad	.LFB3257
	.quad	.LFE3257-.LFB3257
	.quad	.LFB3258
	.quad	.LFE3258-.LFB3258
	.quad	.LFB3259
	.quad	.LFE3259-.LFB3259
	.quad	.LFB3260
	.quad	.LFE3260-.LFB3260
	.quad	0
	.quad	0
	.section	.debug_rnglists,"",@progbits
.Ldebug_ranges0:
	.long	.Ldebug_ranges3-.Ldebug_ranges2
.Ldebug_ranges2:
	.value	0x5
	.byte	0x8
	.byte	0
	.long	0
.LLRL0:
	.byte	0x5
	.quad	.LBB25
	.byte	0x4
	.uleb128 .LBB25-.LBB25
	.uleb128 .LBE25-.LBB25
	.byte	0x4
	.uleb128 .LBB31-.LBB25
	.uleb128 .LBE31-.LBB25
	.byte	0x4
	.uleb128 .LBB32-.LBB25
	.uleb128 .LBE32-.LBB25
	.byte	0
.LLRL1:
	.byte	0x5
	.quad	.LBB27
	.byte	0x4
	.uleb128 .LBB27-.LBB27
	.uleb128 .LBE27-.LBB27
	.byte	0x4
	.uleb128 .LBB28-.LBB27
	.uleb128 .LBE28-.LBB27
	.byte	0
.LLRL2:
	.byte	0x7
	.quad	.Ltext0
	.uleb128 .Letext0-.Ltext0
	.byte	0x7
	.quad	.LFB40
	.uleb128 .LFE40-.LFB40
	.byte	0x7
	.quad	.LFB652
	.uleb128 .LFE652-.LFB652
	.byte	0x7
	.quad	.LFB2568
	.uleb128 .LFE2568-.LFB2568
	.byte	0x7
	.quad	.LFB2838
	.uleb128 .LFE2838-.LFB2838
	.byte	0x7
	.quad	.LFB2840
	.uleb128 .LFE2840-.LFB2840
	.byte	0x7
	.quad	.LFB2842
	.uleb128 .LFE2842-.LFB2842
	.byte	0x7
	.quad	.LFB2844
	.uleb128 .LFE2844-.LFB2844
	.byte	0x7
	.quad	.LFB2845
	.uleb128 .LFE2845-.LFB2845
	.byte	0x7
	.quad	.LFB2848
	.uleb128 .LFE2848-.LFB2848
	.byte	0x7
	.quad	.LFB2851
	.uleb128 .LFE2851-.LFB2851
	.byte	0x7
	.quad	.LFB2853
	.uleb128 .LFE2853-.LFB2853
	.byte	0x7
	.quad	.LFB2961
	.uleb128 .LFE2961-.LFB2961
	.byte	0x7
	.quad	.LFB2964
	.uleb128 .LFE2964-.LFB2964
	.byte	0x7
	.quad	.LFB2967
	.uleb128 .LFE2967-.LFB2967
	.byte	0x7
	.quad	.LFB2970
	.uleb128 .LFE2970-.LFB2970
	.byte	0x7
	.quad	.LFB2973
	.uleb128 .LFE2973-.LFB2973
	.byte	0x7
	.quad	.LFB2976
	.uleb128 .LFE2976-.LFB2976
	.byte	0x7
	.quad	.LFB2978
	.uleb128 .LFE2978-.LFB2978
	.byte	0x7
	.quad	.LFB2979
	.uleb128 .LFE2979-.LFB2979
	.byte	0x7
	.quad	.LFB2980
	.uleb128 .LFE2980-.LFB2980
	.byte	0x7
	.quad	.LFB2981
	.uleb128 .LFE2981-.LFB2981
	.byte	0x7
	.quad	.LFB2982
	.uleb128 .LFE2982-.LFB2982
	.byte	0x7
	.quad	.LFB2983
	.uleb128 .LFE2983-.LFB2983
	.byte	0x7
	.quad	.LFB2986
	.uleb128 .LFE2986-.LFB2986
	.byte	0x7
	.quad	.LFB2988
	.uleb128 .LFE2988-.LFB2988
	.byte	0x7
	.quad	.LFB2990
	.uleb128 .LFE2990-.LFB2990
	.byte	0x7
	.quad	.LFB2991
	.uleb128 .LFE2991-.LFB2991
	.byte	0x7
	.quad	.LFB2992
	.uleb128 .LFE2992-.LFB2992
	.byte	0x7
	.quad	.LFB3062
	.uleb128 .LFE3062-.LFB3062
	.byte	0x7
	.quad	.LFB3065
	.uleb128 .LFE3065-.LFB3065
	.byte	0x7
	.quad	.LFB3068
	.uleb128 .LFE3068-.LFB3068
	.byte	0x7
	.quad	.LFB3070
	.uleb128 .LFE3070-.LFB3070
	.byte	0x7
	.quad	.LFB3072
	.uleb128 .LFE3072-.LFB3072
	.byte	0x7
	.quad	.LFB3075
	.uleb128 .LFE3075-.LFB3075
	.byte	0x7
	.quad	.LFB3078
	.uleb128 .LFE3078-.LFB3078
	.byte	0x7
	.quad	.LFB3080
	.uleb128 .LFE3080-.LFB3080
	.byte	0x7
	.quad	.LFB3081
	.uleb128 .LFE3081-.LFB3081
	.byte	0x7
	.quad	.LFB3083
	.uleb128 .LFE3083-.LFB3083
	.byte	0x7
	.quad	.LFB3082
	.uleb128 .LFE3082-.LFB3082
	.byte	0x7
	.quad	.LFB3085
	.uleb128 .LFE3085-.LFB3085
	.byte	0x7
	.quad	.LFB3087
	.uleb128 .LFE3087-.LFB3087
	.byte	0x7
	.quad	.LFB3088
	.uleb128 .LFE3088-.LFB3088
	.byte	0x7
	.quad	.LFB3089
	.uleb128 .LFE3089-.LFB3089
	.byte	0x7
	.quad	.LFB3090
	.uleb128 .LFE3090-.LFB3090
	.byte	0x7
	.quad	.LFB3095
	.uleb128 .LFE3095-.LFB3095
	.byte	0x7
	.quad	.LFB3096
	.uleb128 .LFE3096-.LFB3096
	.byte	0x7
	.quad	.LFB3097
	.uleb128 .LFE3097-.LFB3097
	.byte	0x7
	.quad	.LFB3098
	.uleb128 .LFE3098-.LFB3098
	.byte	0x7
	.quad	.LFB3154
	.uleb128 .LFE3154-.LFB3154
	.byte	0x7
	.quad	.LFB3156
	.uleb128 .LFE3156-.LFB3156
	.byte	0x7
	.quad	.LFB3158
	.uleb128 .LFE3158-.LFB3158
	.byte	0x7
	.quad	.LFB3160
	.uleb128 .LFE3160-.LFB3160
	.byte	0x7
	.quad	.LFB3161
	.uleb128 .LFE3161-.LFB3161
	.byte	0x7
	.quad	.LFB3162
	.uleb128 .LFE3162-.LFB3162
	.byte	0x7
	.quad	.LFB3163
	.uleb128 .LFE3163-.LFB3163
	.byte	0x7
	.quad	.LFB3164
	.uleb128 .LFE3164-.LFB3164
	.byte	0x7
	.quad	.LFB3165
	.uleb128 .LFE3165-.LFB3165
	.byte	0x7
	.quad	.LFB3166
	.uleb128 .LFE3166-.LFB3166
	.byte	0x7
	.quad	.LFB3167
	.uleb128 .LFE3167-.LFB3167
	.byte	0x7
	.quad	.LFB3168
	.uleb128 .LFE3168-.LFB3168
	.byte	0x7
	.quad	.LFB3169
	.uleb128 .LFE3169-.LFB3169
	.byte	0x7
	.quad	.LFB3170
	.uleb128 .LFE3170-.LFB3170
	.byte	0x7
	.quad	.LFB3171
	.uleb128 .LFE3171-.LFB3171
	.byte	0x7
	.quad	.LFB3172
	.uleb128 .LFE3172-.LFB3172
	.byte	0x7
	.quad	.LFB3173
	.uleb128 .LFE3173-.LFB3173
	.byte	0x7
	.quad	.LFB3174
	.uleb128 .LFE3174-.LFB3174
	.byte	0x7
	.quad	.LFB3196
	.uleb128 .LFE3196-.LFB3196
	.byte	0x7
	.quad	.LFB3198
	.uleb128 .LFE3198-.LFB3198
	.byte	0x7
	.quad	.LFB3201
	.uleb128 .LFE3201-.LFB3201
	.byte	0x7
	.quad	.LFB3203
	.uleb128 .LFE3203-.LFB3203
	.byte	0x7
	.quad	.LFB3204
	.uleb128 .LFE3204-.LFB3204
	.byte	0x7
	.quad	.LFB3205
	.uleb128 .LFE3205-.LFB3205
	.byte	0x7
	.quad	.LFB3207
	.uleb128 .LFE3207-.LFB3207
	.byte	0x7
	.quad	.LFB3208
	.uleb128 .LFE3208-.LFB3208
	.byte	0x7
	.quad	.LFB3209
	.uleb128 .LFE3209-.LFB3209
	.byte	0x7
	.quad	.LFB3210
	.uleb128 .LFE3210-.LFB3210
	.byte	0x7
	.quad	.LFB3211
	.uleb128 .LFE3211-.LFB3211
	.byte	0x7
	.quad	.LFB3212
	.uleb128 .LFE3212-.LFB3212
	.byte	0x7
	.quad	.LFB3213
	.uleb128 .LFE3213-.LFB3213
	.byte	0x7
	.quad	.LFB3224
	.uleb128 .LFE3224-.LFB3224
	.byte	0x7
	.quad	.LFB3226
	.uleb128 .LFE3226-.LFB3226
	.byte	0x7
	.quad	.LFB3227
	.uleb128 .LFE3227-.LFB3227
	.byte	0x7
	.quad	.LFB3228
	.uleb128 .LFE3228-.LFB3228
	.byte	0x7
	.quad	.LFB3229
	.uleb128 .LFE3229-.LFB3229
	.byte	0x7
	.quad	.LFB3230
	.uleb128 .LFE3230-.LFB3230
	.byte	0x7
	.quad	.LFB3231
	.uleb128 .LFE3231-.LFB3231
	.byte	0x7
	.quad	.LFB3232
	.uleb128 .LFE3232-.LFB3232
	.byte	0x7
	.quad	.LFB3233
	.uleb128 .LFE3233-.LFB3233
	.byte	0x7
	.quad	.LFB3234
	.uleb128 .LFE3234-.LFB3234
	.byte	0x7
	.quad	.LFB3239
	.uleb128 .LFE3239-.LFB3239
	.byte	0x7
	.quad	.LFB3240
	.uleb128 .LFE3240-.LFB3240
	.byte	0x7
	.quad	.LFB3241
	.uleb128 .LFE3241-.LFB3241
	.byte	0x7
	.quad	.LFB3242
	.uleb128 .LFE3242-.LFB3242
	.byte	0x7
	.quad	.LFB3243
	.uleb128 .LFE3243-.LFB3243
	.byte	0x7
	.quad	.LFB3244
	.uleb128 .LFE3244-.LFB3244
	.byte	0x7
	.quad	.LFB3245
	.uleb128 .LFE3245-.LFB3245
	.byte	0x7
	.quad	.LFB3246
	.uleb128 .LFE3246-.LFB3246
	.byte	0x7
	.quad	.LFB3247
	.uleb128 .LFE3247-.LFB3247
	.byte	0x7
	.quad	.LFB3248
	.uleb128 .LFE3248-.LFB3248
	.byte	0x7
	.quad	.LFB3251
	.uleb128 .LFE3251-.LFB3251
	.byte	0x7
	.quad	.LFB3252
	.uleb128 .LFE3252-.LFB3252
	.byte	0x7
	.quad	.LFB3253
	.uleb128 .LFE3253-.LFB3253
	.byte	0x7
	.quad	.LFB3254
	.uleb128 .LFE3254-.LFB3254
	.byte	0x7
	.quad	.LFB3255
	.uleb128 .LFE3255-.LFB3255
	.byte	0x7
	.quad	.LFB3256
	.uleb128 .LFE3256-.LFB3256
	.byte	0x7
	.quad	.LFB3257
	.uleb128 .LFE3257-.LFB3257
	.byte	0x7
	.quad	.LFB3258
	.uleb128 .LFE3258-.LFB3258
	.byte	0x7
	.quad	.LFB3259
	.uleb128 .LFE3259-.LFB3259
	.byte	0x7
	.quad	.LFB3260
	.uleb128 .LFE3260-.LFB3260
	.byte	0
.Ldebug_ranges3:
	.section	.debug_line,"",@progbits
.Ldebug_line0:
	.section	.debug_str,"MS",@progbits,1
.LASF220:
	.string	"_ZNSt12_Vector_baseIlSaIlEEC4ERKS0_"
.LASF751:
	.string	"long long int"
.LASF818:
	.string	"positive_sign"
.LASF379:
	.string	"_ZNKSt16initializer_listIlE5beginEv"
.LASF857:
	.string	"mbstowcs"
.LASF845:
	.string	"lldiv_t"
.LASF49:
	.string	"__pad5"
.LASF866:
	.string	"strtoul"
.LASF497:
	.string	"_ZNSt6vectorIdSaIdEE5eraseEN9__gnu_cxx17__normal_iteratorIPKdS1_EES6_"
.LASF835:
	.string	"getwchar"
.LASF7:
	.string	"long unsigned int"
.LASF224:
	.string	"_ZNSt12_Vector_baseIlSaIlEEC4EOS0_"
.LASF711:
	.string	"_ZN9__gnu_cxx17__normal_iteratorIPlSt6vectorIlSaIlEEEC4Ev"
.LASF915:
	.string	"__pstl"
.LASF144:
	.string	"_InputIterator"
.LASF906:
	.string	"tmpfile"
.LASF547:
	.string	"_ZSt12__niter_wrapIPlET_RKS1_S1_"
.LASF438:
	.string	"_ZNSt6vectorIdSaIdEE14_S_do_relocateEPdS2_S2_RS0_St17integral_constantIbLb1EE"
.LASF207:
	.string	"_ZNSt12_Vector_baseIlSaIlEE12_Vector_implC4Ev"
.LASF375:
	.string	"initializer_list"
.LASF457:
	.string	"_ZNSt6vectorIdSaIdEE6assignESt16initializer_listIdE"
.LASF48:
	.string	"_freeres_buf"
.LASF298:
	.string	"shrink_to_fit"
.LASF940:
	.string	"tensor"
.LASF950:
	.string	"tensor<int, int, int, int, int, int>"
.LASF983:
	.string	"__al"
.LASF223:
	.string	"_ZNSt12_Vector_baseIlSaIlEEC4EOS1_"
.LASF502:
	.string	"_ZNSt6vectorIdSaIdEE14_M_fill_assignEmRKd"
.LASF304:
	.string	"reserve"
.LASF610:
	.string	"_IIter"
.LASF1038:
	.string	"index"
.LASF118:
	.string	"_ZNSt11char_traitsIcE7not_eofERKi"
.LASF349:
	.string	"_ZNSt6vectorIlSaIlEE16_M_shrink_to_fitEv"
.LASF614:
	.string	"__size_to_integer"
.LASF214:
	.string	"_ZNSt12_Vector_baseIlSaIlEE19_M_get_Tp_allocatorEv"
.LASF366:
	.string	"_ZNSt6vectorIlSaIlEE14_M_move_assignEOS1_St17integral_constantIbLb1EE"
.LASF460:
	.string	"_ZNSt6vectorIdSaIdEE3endEv"
.LASF282:
	.string	"_ZNSt6vectorIlSaIlEE4rendEv"
.LASF521:
	.string	"iterator_traits<long int const*>"
.LASF812:
	.string	"grouping"
.LASF288:
	.string	"crbegin"
.LASF806:
	.string	"uintptr_t"
.LASF710:
	.string	"__normal_iterator"
.LASF477:
	.string	"_ZNSt6vectorIdSaIdEE7reserveEm"
.LASF560:
	.string	"_Iter"
.LASF931:
	.string	"unsequenced_policy"
.LASF574:
	.string	"__relocate_a_1<double, double>"
.LASF306:
	.string	"operator[]"
.LASF315:
	.string	"_ZNKSt6vectorIlSaIlEE5frontEv"
.LASF810:
	.string	"decimal_point"
.LASF318:
	.string	"_ZNKSt6vectorIlSaIlEE4backEv"
.LASF455:
	.string	"_ZNSt6vectorIdSaIdEEaSESt16initializer_listIdE"
.LASF972:
	.string	"__first"
.LASF908:
	.string	"ungetc"
.LASF533:
	.string	"_ZSt17__throw_bad_allocv"
.LASF943:
	.string	"_ZNK9container6tensorIdJEE5orderEv"
.LASF458:
	.string	"_ZNSt6vectorIdSaIdEE5beginEv"
.LASF495:
	.string	"_ZNSt6vectorIdSaIdEE6insertEN9__gnu_cxx17__normal_iteratorIPKdS1_EEmRS4_"
.LASF776:
	.string	"__intmax_t"
.LASF809:
	.string	"lconv"
.LASF642:
	.string	"__isoc99_vswscanf"
.LASF830:
	.string	"int_n_cs_precedes"
.LASF399:
	.string	"_ZNSt16allocator_traitsISaIdEE8allocateERS0_m"
.LASF416:
	.string	"_ZNSt12_Vector_baseIdSaIdEE12_Vector_implD4Ev"
.LASF468:
	.string	"_ZNKSt6vectorIdSaIdEE7crbeginEv"
.LASF635:
	.string	"__isoc99_swscanf"
.LASF945:
	.string	"shape"
.LASF337:
	.string	"_ZNSt6vectorIlSaIlEE5clearEv"
.LASF596:
	.string	"__iterator_category<long int const*>"
.LASF880:
	.string	"_IO_marker"
.LASF374:
	.string	"_M_len"
.LASF954:
	.string	"execution"
.LASF572:
	.string	"_ZSt4copyIPKlPlET0_T_S4_S3_"
.LASF119:
	.string	"_CharT"
.LASF656:
	.string	"tm_mday"
.LASF747:
	.string	"operator!=<long int*, std::vector<long int> >"
.LASF1060:
	.string	"__cxa_free_exception"
.LASF442:
	.string	"_ZNSt6vectorIdSaIdEEC4ERKS0_"
.LASF77:
	.string	"_ZNKSt15__exception_ptr13exception_ptr6_M_getEv"
.LASF899:
	.string	"getchar"
.LASF206:
	.string	"_Vector_impl"
.LASF787:
	.string	"uint32_t"
.LASF161:
	.string	"reference"
.LASF994:
	.string	"_ZNSt15__new_allocatorIdEC2Ev"
.LASF104:
	.string	"move"
.LASF608:
	.string	"for_each<__gnu_cxx::__normal_iterator<long int*, std::vector<long int> >, container::tensor<double>::tensor<int, int, int, int, int, int>(int, int, int, int, int, int)::<lambda(int)> >"
.LASF244:
	.string	"_S_use_relocate"
.LASF663:
	.string	"tm_zone"
.LASF445:
	.string	"_ZNSt6vectorIdSaIdEEC4ERKS1_"
.LASF269:
	.string	"iterator"
.LASF6:
	.string	"long double"
.LASF516:
	.string	"initializer_list<double>"
.LASF413:
	.string	"_ZNSt12_Vector_baseIdSaIdEE12_Vector_implC4EOS0_OS2_"
.LASF607:
	.string	"_ZSt8_DestroyIPddEvT_S1_RSaIT0_E"
.LASF568:
	.string	"_ZSt10_ConstructIdJEEvPT_DpOT0_"
.LASF1046:
	.string	"_ZNSt11char_traitsIcE3eofEv"
.LASF882:
	.string	"_IO_wide_data"
.LASF617:
	.string	"fgetwc"
.LASF618:
	.string	"fgetws"
.LASF793:
	.string	"uint_least8_t"
.LASF129:
	.string	"__cxx11"
.LASF123:
	.string	"bidirectional_iterator_tag"
.LASF183:
	.string	"allocator_traits<std::allocator<long int> >"
.LASF552:
	.string	"_ZSt12__niter_baseIPlET_S1_"
.LASF205:
	.string	"_ZNSt12_Vector_baseIlSaIlEE17_Vector_impl_data12_M_swap_dataERS2_"
.LASF125:
	.string	"__debug"
.LASF164:
	.string	"const_reference"
.LASF556:
	.string	"_ZSt10__fill_n_aIPdmdET_S1_T0_RKT1_St26random_access_iterator_tag"
.LASF714:
	.string	"_ZNK9__gnu_cxx17__normal_iteratorIPlSt6vectorIlSaIlEEEdeEv"
.LASF211:
	.string	"_ZNSt12_Vector_baseIlSaIlEE12_Vector_implC4EOS0_OS2_"
.LASF80:
	.string	"_ZNSt15__exception_ptr13exception_ptrC4EDn"
.LASF965:
	.string	"_Znwm"
.LASF863:
	.string	"srand"
.LASF723:
	.string	"_ZNK9__gnu_cxx17__normal_iteratorIPlSt6vectorIlSaIlEEEixEl"
.LASF754:
	.string	"bool"
.LASF248:
	.string	"_S_relocate"
.LASF281:
	.string	"rend"
.LASF969:
	.string	"__cxa_allocate_exception"
.LASF230:
	.string	"_M_allocate"
.LASF575:
	.string	"_ZSt14__relocate_a_1IddENSt9enable_ifIXsrSt24__is_bitwise_relocatableIT_vE5valueEPS2_E4typeES4_S4_S4_RSaIT0_E"
.LASF773:
	.string	"__uint_least32_t"
.LASF485:
	.string	"_ZNSt6vectorIdSaIdEE4backEv"
.LASF292:
	.string	"size"
.LASF332:
	.string	"erase"
.LASF137:
	.string	"basic_ostream<char, std::char_traits<char> >"
.LASF583:
	.string	"max<long unsigned int>"
.LASF197:
	.string	"_M_finish"
.LASF182:
	.string	"_ZNSaIlED4Ev"
.LASF861:
	.string	"quick_exit"
.LASF654:
	.string	"tm_min"
.LASF814:
	.string	"currency_symbol"
.LASF622:
	.string	"fwide"
.LASF850:
	.string	"atof"
.LASF851:
	.string	"atoi"
.LASF200:
	.string	"_ZNSt12_Vector_baseIlSaIlEE17_Vector_impl_dataC4EOS2_"
.LASF938:
	.string	"container"
.LASF390:
	.string	"_ZNSt15__new_allocatorIdE10deallocateEPdm"
.LASF51:
	.string	"_unused2"
.LASF979:
	.string	"__it"
.LASF13:
	.string	"size_t"
.LASF343:
	.string	"_ZNSt6vectorIlSaIlEE14_M_fill_assignEmRKl"
.LASF353:
	.string	"_ZNSt6vectorIlSaIlEE14_M_emplace_auxEN9__gnu_cxx17__normal_iteratorIPKlS1_EEOl"
.LASF376:
	.string	"_ZNSt16initializer_listIlEC4EPKlm"
.LASF613:
	.string	"_ZStlsISt11char_traitsIcEERSt13basic_ostreamIcT_ES5_c"
.LASF147:
	.string	"__uninit_default_n<double*, long unsigned int>"
.LASF178:
	.string	"operator bool"
.LASF948:
	.string	"_data"
.LASF259:
	.string	"_ZNSt6vectorIlSaIlEEC4EOS1_RKS0_St17integral_constantIbLb0EE"
.LASF684:
	.string	"__isoc99_wscanf"
.LASF426:
	.string	"_ZNSt12_Vector_baseIdSaIdEEC4EOS1_RKS0_"
.LASF418:
	.string	"_ZNKSt12_Vector_baseIdSaIdEE19_M_get_Tp_allocatorEv"
.LASF93:
	.string	"nullptr_t"
.LASF325:
	.string	"pop_back"
.LASF634:
	.string	"swscanf"
.LASF284:
	.string	"cbegin"
.LASF795:
	.string	"uint_least32_t"
.LASF50:
	.string	"_mode"
.LASF960:
	.string	"this"
.LASF179:
	.string	"_ZNKSt15__exception_ptr13exception_ptrcvbEv"
.LASF377:
	.string	"_ZNSt16initializer_listIlEC4Ev"
.LASF59:
	.string	"_ZNKSt17integral_constantIbLb0EEcvbEv"
.LASF351:
	.string	"_ZNSt6vectorIlSaIlEE14_M_insert_rvalEN9__gnu_cxx17__normal_iteratorIPKlS1_EEOl"
.LASF639:
	.string	"__isoc99_vfwscanf"
.LASF959:
	.string	"_ZNSt8ios_base4InitC1Ev"
.LASF395:
	.string	"_ZNSaIdEC4ERKS_"
.LASF384:
	.string	"_ZNSt15__new_allocatorIdEC4Ev"
.LASF262:
	.string	"~vector"
.LASF839:
	.string	"5div_t"
.LASF694:
	.string	"_ZN9__gnu_cxx14__alloc_traitsISaIlElE17_S_select_on_copyERKS1_"
.LASF142:
	.string	"__uninit_copy<long int const*, long int*>"
.LASF735:
	.string	"__normal_iterator<long int const*, std::vector<long int, std::allocator<long int> > >"
.LASF625:
	.string	"__isoc99_fwscanf"
.LASF121:
	.string	"true_type"
.LASF709:
	.string	"__normal_iterator<long int*, std::vector<long int, std::allocator<long int> > >"
.LASF832:
	.string	"int_p_sign_posn"
.LASF840:
	.string	"quot"
.LASF16:
	.string	"__wchb"
.LASF107:
	.string	"_ZNSt11char_traitsIcE4copyEPcPKcm"
.LASF198:
	.string	"_M_end_of_storage"
.LASF1062:
	.string	"__static_initialization_and_destruction_0"
.LASF597:
	.string	"_ZSt19__iterator_categoryIPKlENSt15iterator_traitsIT_E17iterator_categoryERKS3_"
.LASF657:
	.string	"tm_mon"
.LASF868:
	.string	"wcstombs"
.LASF912:
	.string	"towctrans"
.LASF565:
	.string	"fill_n<double*, long unsigned int, double>"
.LASF576:
	.string	"__niter_base<double*>"
.LASF852:
	.string	"atol"
.LASF330:
	.string	"_ZNSt6vectorIlSaIlEE6insertEN9__gnu_cxx17__normal_iteratorIPKlS1_EESt16initializer_listIlE"
.LASF373:
	.string	"_M_array"
.LASF1041:
	.string	"__int128"
.LASF570:
	.string	"_ZSt11__addressofIdEPT_RS0_"
.LASF691:
	.string	"__ops"
.LASF942:
	.string	"order"
.LASF802:
	.string	"uint_fast16_t"
.LASF193:
	.string	"rebind_alloc"
.LASF761:
	.string	"__uint8_t"
.LASF655:
	.string	"tm_hour"
.LASF1052:
	.string	"_ZNSt13runtime_errorD4Ev"
.LASF105:
	.string	"_ZNSt11char_traitsIcE4moveEPcPKcm"
.LASF808:
	.string	"uintmax_t"
.LASF41:
	.string	"_vtable_offset"
.LASF980:
	.string	"_Args"
.LASF134:
	.string	"_ZNSt8ios_base4InitC4ERKS0_"
.LASF486:
	.string	"_ZNKSt6vectorIdSaIdEE4backEv"
.LASF321:
	.string	"_ZNKSt6vectorIlSaIlEE4dataEv"
.LASF154:
	.string	"_ZNSt15__new_allocatorIlEC4ERKS0_"
.LASF71:
	.string	"_ZNSt15__exception_ptr13exception_ptrC4EPv"
.LASF469:
	.string	"_ZNKSt6vectorIdSaIdEE5crendEv"
.LASF968:
	.string	"_ZNSt13runtime_errorC1EPKc"
.LASF273:
	.string	"_ZNKSt6vectorIlSaIlEE5beginEv"
.LASF535:
	.string	"__throw_length_error"
.LASF1021:
	.string	"<lambda>"
.LASF530:
	.string	"_Category"
.LASF241:
	.string	"_S_nothrow_relocate"
.LASF357:
	.string	"_ZNSt6vectorIlSaIlEE17_S_check_init_lenEmRKS0_"
.LASF858:
	.string	"mbtowc"
.LASF196:
	.string	"_M_start"
.LASF855:
	.string	"ldiv"
.LASF56:
	.string	"value_type"
.LASF660:
	.string	"tm_yday"
.LASF421:
	.string	"_ZNSt12_Vector_baseIdSaIdEEC4ERKS0_"
.LASF501:
	.string	"_ZNSt6vectorIdSaIdEE21_M_default_initializeEm"
.LASF892:
	.string	"fopen"
.LASF307:
	.string	"_ZNSt6vectorIlSaIlEEixEm"
.LASF305:
	.string	"_ZNSt6vectorIlSaIlEE7reserveEm"
.LASF73:
	.string	"_M_release"
.LASF500:
	.string	"_ZNSt6vectorIdSaIdEE18_M_fill_initializeEmRKd"
.LASF784:
	.string	"int64_t"
.LASF649:
	.string	"wcscoll"
.LASF527:
	.string	"_ZNSt11__copy_moveILb0ELb1ESt26random_access_iterator_tagE8__copy_mIlEEPT_PKS3_S6_S4_"
.LASF719:
	.string	"_ZN9__gnu_cxx17__normal_iteratorIPlSt6vectorIlSaIlEEEppEi"
.LASF257:
	.string	"_ZNSt6vectorIlSaIlEEC4ERKS1_RKS0_"
.LASF939:
	.string	"tensor<double>"
.LASF329:
	.string	"_ZNSt6vectorIlSaIlEE6insertEN9__gnu_cxx17__normal_iteratorIPKlS1_EEOl"
.LASF718:
	.string	"_ZN9__gnu_cxx17__normal_iteratorIPlSt6vectorIlSaIlEEEppEv"
.LASF706:
	.string	"_ZN9__gnu_cxx14__alloc_traitsISaIlElE15_S_nothrow_moveEv"
.LASF605:
	.string	"_ZSt8_DestroyIPllEvT_S1_RSaIT0_E"
.LASF534:
	.string	"_ZSt28__throw_bad_array_new_lengthv"
.LASF1016:
	.string	"_ZNSt12_Vector_baseIdSaIdEE12_Vector_implC2Ev"
.LASF294:
	.string	"_ZNKSt6vectorIlSaIlEE8max_sizeEv"
.LASF1025:
	.string	"_ZZN9container6tensorIdJEEC4IJiiiiiiEEEDpT_ENUliE_C4Ev"
.LASF23:
	.string	"_flags"
.LASF1057:
	.string	"dims"
.LASF821:
	.string	"frac_digits"
.LASF341:
	.string	"_ZNSt6vectorIlSaIlEE21_M_default_initializeEm"
.LASF669:
	.string	"wcsspn"
.LASF523:
	.string	"enable_if<true, double*>"
.LASF517:
	.string	"reverse_iterator<__gnu_cxx::__normal_iterator<double*, std::vector<double, std::allocator<double> > > >"
.LASF636:
	.string	"ungetwc"
.LASF5:
	.string	"double"
.LASF227:
	.string	"~_Vector_base"
.LASF914:
	.string	"wctype"
.LASF33:
	.string	"_IO_backup_base"
.LASF849:
	.string	"at_quick_exit"
.LASF20:
	.string	"__mbstate_t"
.LASF410:
	.string	"_ZNSt12_Vector_baseIdSaIdEE12_Vector_implC4ERKS0_"
.LASF253:
	.string	"_ZNSt6vectorIlSaIlEEC4EmRKS0_"
.LASF187:
	.string	"const_void_pointer"
.LASF484:
	.string	"_ZNKSt6vectorIdSaIdEE5frontEv"
.LASF838:
	.string	"11__mbstate_t"
.LASF551:
	.string	"__niter_base<long int*>"
.LASF584:
	.string	"_ZSt3maxImERKT_S2_S2_"
.LASF624:
	.string	"fwscanf"
.LASF986:
	.string	"__allocmax"
.LASF95:
	.string	"char_type"
.LASF898:
	.string	"getc"
.LASF973:
	.string	"__last"
.LASF141:
	.string	"__uninitialized_copy<true>"
.LASF391:
	.string	"_ZNKSt15__new_allocatorIdE8max_sizeEv"
.LASF831:
	.string	"int_n_sep_by_space"
.LASF64:
	.string	"_ZNKSt17integral_constantIbLb1EEclEv"
.LASF140:
	.string	"ostream"
.LASF369:
	.string	"_ZNSt6vectorIlSaIlEE19_M_range_initializeIPKlEEvT_S5_St20forward_iterator_tag"
.LASF225:
	.string	"_ZNSt12_Vector_baseIlSaIlEEC4EOS1_RKS0_"
.LASF1018:
	.string	"_ZNSt6vectorIlSaIlEED2Ev"
.LASF562:
	.string	"_ZSt13__copy_move_aILb0EPKlPlET1_T0_S4_S3_"
.LASF285:
	.string	"_ZNKSt6vectorIlSaIlEE6cbeginEv"
.LASF146:
	.string	"__uninitialized_default_n_1<true>"
.LASF666:
	.string	"wcsncmp"
.LASF396:
	.string	"_ZNSaIdEaSERKS_"
.LASF25:
	.string	"_IO_read_end"
.LASF322:
	.string	"push_back"
.LASF688:
	.string	"wcsstr"
.LASF250:
	.string	"vector"
.LASF389:
	.string	"_ZNSt15__new_allocatorIdE8allocateEmPKv"
.LASF843:
	.string	"ldiv_t"
.LASF163:
	.string	"_ZNKSt15__new_allocatorIlE7addressERKl"
.LASF1003:
	.string	"_ZNSt15__new_allocatorIlED2Ev"
.LASF32:
	.string	"_IO_save_base"
.LASF499:
	.string	"_ZNSt6vectorIdSaIdEE5clearEv"
.LASF108:
	.string	"assign"
.LASF511:
	.string	"_ZNSt6vectorIdSaIdEE15_M_erase_at_endEPd"
.LASF101:
	.string	"_ZNSt11char_traitsIcE6lengthEPKc"
.LASF136:
	.string	"ios_base"
.LASF816:
	.string	"mon_thousands_sep"
.LASF573:
	.string	"__enable_if_t"
.LASF29:
	.string	"_IO_write_end"
.LASF358:
	.string	"_S_max_size"
.LASF328:
	.string	"_ZNSt6vectorIlSaIlEE6insertEN9__gnu_cxx17__normal_iteratorIPKlS1_EERS4_"
.LASF208:
	.string	"_ZNSt12_Vector_baseIlSaIlEE12_Vector_implC4ERKS0_"
.LASF417:
	.string	"_ZNSt12_Vector_baseIdSaIdEE19_M_get_Tp_allocatorEv"
.LASF520:
	.string	"difference_type"
.LASF544:
	.string	"_ZSt8__fill_aIPddEvT_S1_RKT0_"
.LASF465:
	.string	"_ZNKSt6vectorIdSaIdEE4rendEv"
.LASF646:
	.string	"wcrtomb"
.LASF110:
	.string	"to_char_type"
.LASF155:
	.string	"~__new_allocator"
.LASF1008:
	.string	"_ZNSt12_Vector_baseIlSaIlEED2Ev"
.LASF30:
	.string	"_IO_buf_base"
.LASF387:
	.string	"_ZNKSt15__new_allocatorIdE7addressERd"
.LASF1013:
	.string	"_ZNSaIlEC2Ev"
.LASF44:
	.string	"_offset"
.LASF763:
	.string	"__uint16_t"
.LASF896:
	.string	"fsetpos"
.LASF443:
	.string	"_ZNSt6vectorIdSaIdEEC4EmRKS0_"
.LASF166:
	.string	"_ZNSt15__new_allocatorIlE8allocateEmPKv"
.LASF550:
	.string	"_ZSt14__copy_move_a1ILb0EPKlPlET1_T0_S4_S3_"
.LASF128:
	.string	"_ForwardIterator"
.LASF664:
	.string	"wcslen"
.LASF1039:
	.string	"oor_index"
.LASF893:
	.string	"fread"
.LASF185:
	.string	"allocator_type"
.LASF894:
	.string	"freopen"
.LASF76:
	.string	"_M_get"
.LASF788:
	.string	"uint64_t"
.LASF707:
	.string	"rebind<long int>"
.LASF381:
	.string	"reverse_iterator<__gnu_cxx::__normal_iterator<long int*, std::vector<long int, std::allocator<long int> > > >"
.LASF627:
	.string	"mbrlen"
.LASF403:
	.string	"_ZNSt16allocator_traitsISaIdEE37select_on_container_copy_constructionERKS0_"
.LASF842:
	.string	"6ldiv_t"
.LASF475:
	.string	"_ZNKSt6vectorIdSaIdEE8capacityEv"
.LASF997:
	.string	"__new_start"
.LASF975:
	.string	"__ioinit"
.LASF683:
	.string	"wscanf"
.LASF300:
	.string	"capacity"
.LASF466:
	.string	"_ZNKSt6vectorIdSaIdEE6cbeginEv"
.LASF1049:
	.string	"_ZSt4cout"
.LASF643:
	.string	"vwprintf"
.LASF525:
	.string	"__copy_move<false, true, std::random_access_iterator_tag>"
.LASF606:
	.string	"_Destroy<double*, double>"
.LASF91:
	.string	"rethrow_exception"
.LASF964:
	.string	"operator new"
.LASF409:
	.string	"_ZNSt12_Vector_baseIdSaIdEE12_Vector_implC4Ev"
.LASF190:
	.string	"_ZNSt16allocator_traitsISaIlEE8max_sizeERKS0_"
.LASF286:
	.string	"cend"
.LASF213:
	.string	"_M_get_Tp_allocator"
.LASF363:
	.string	"_ZNSt6vectorIlSaIlEE8_M_eraseEN9__gnu_cxx17__normal_iteratorIPlS1_EE"
.LASF344:
	.string	"_M_fill_insert"
.LASF955:
	.string	"details"
.LASF203:
	.string	"_M_swap_data"
.LASF279:
	.string	"const_reverse_iterator"
.LASF317:
	.string	"_ZNSt6vectorIlSaIlEE4backEv"
.LASF860:
	.string	"qsort"
.LASF591:
	.string	"__uninitialized_copy_a<long int const*, long int*, long int>"
.LASF61:
	.string	"integral_constant<bool, true>"
.LASF323:
	.string	"_ZNSt6vectorIlSaIlEE9push_backERKl"
.LASF231:
	.string	"_ZNSt12_Vector_baseIlSaIlEE11_M_allocateEm"
.LASF171:
	.string	"_ZNKSt15__new_allocatorIlE8max_sizeEv"
.LASF60:
	.string	"_ZNKSt17integral_constantIbLb0EEclEv"
.LASF165:
	.string	"allocate"
.LASF473:
	.string	"_ZNSt6vectorIdSaIdEE6resizeEmRKd"
.LASF647:
	.string	"wcscat"
.LASF1056:
	.string	"_IO_lock_t"
.LASF168:
	.string	"deallocate"
.LASF24:
	.string	"_IO_read_ptr"
.LASF3:
	.string	"__float128"
.LASF149:
	.string	"_Size"
.LASF927:
	.string	"parallel_unsequenced_policy"
.LASF38:
	.string	"_flags2"
.LASF388:
	.string	"_ZNKSt15__new_allocatorIdE7addressERKd"
.LASF186:
	.string	"_ZNSt16allocator_traitsISaIlEE8allocateERS0_mPKv"
.LASF903:
	.string	"rewind"
.LASF700:
	.string	"_ZN9__gnu_cxx14__alloc_traitsISaIlElE27_S_propagate_on_move_assignEv"
.LASF346:
	.string	"_M_default_append"
.LASF824:
	.string	"n_cs_precedes"
.LASF45:
	.string	"_codecvt"
.LASF263:
	.string	"_ZNSt6vectorIlSaIlEED4Ev"
.LASF448:
	.string	"_ZNSt6vectorIdSaIdEEC4EOS1_RKS0_St17integral_constantIbLb1EE"
.LASF274:
	.string	"_ZNSt6vectorIlSaIlEE3endEv"
.LASF775:
	.string	"__uint_least64_t"
.LASF89:
	.string	"__cxa_exception_type"
.LASF494:
	.string	"_ZNSt6vectorIdSaIdEE6insertEN9__gnu_cxx17__normal_iteratorIPKdS1_EESt16initializer_listIdE"
.LASF28:
	.string	"_IO_write_ptr"
.LASF83:
	.string	"_ZNSt15__exception_ptr13exception_ptraSERKS0_"
.LASF536:
	.string	"_ZSt20__throw_length_errorPKc"
.LASF124:
	.string	"random_access_iterator_tag"
.LASF156:
	.string	"_ZNSt15__new_allocatorIlED4Ev"
.LASF212:
	.string	"_Tp_alloc_type"
.LASF989:
	.string	"_ZNSt15__new_allocatorIlEC2ERKS0_"
.LASF653:
	.string	"tm_sec"
.LASF740:
	.string	"_ZN9__gnu_cxx14__alloc_traitsISaIdEdE27_S_propagate_on_move_assignEv"
.LASF745:
	.string	"__normal_iterator<double*, std::vector<double, std::allocator<double> > >"
.LASF504:
	.string	"_ZNSt6vectorIdSaIdEE17_M_default_appendEm"
.LASF368:
	.string	"_M_range_initialize<long int const*>"
.LASF280:
	.string	"_ZNKSt6vectorIlSaIlEE6rbeginEv"
.LASF929:
	.string	"_ZN6__pstl9execution2v127parallel_unsequenced_policy14__allow_vectorEv"
.LASF160:
	.string	"_ZNKSt15__new_allocatorIlE7addressERl"
.LASF805:
	.string	"intptr_t"
.LASF1055:
	.string	"decltype(nullptr)"
.LASF760:
	.string	"__int8_t"
.LASF470:
	.string	"_ZNKSt6vectorIdSaIdEE4sizeEv"
.LASF796:
	.string	"uint_least64_t"
.LASF228:
	.string	"_ZNSt12_Vector_baseIlSaIlEED4Ev"
.LASF825:
	.string	"n_sep_by_space"
.LASF435:
	.string	"_ZNSt6vectorIdSaIdEE19_S_nothrow_relocateESt17integral_constantIbLb0EE"
.LASF222:
	.string	"_ZNSt12_Vector_baseIlSaIlEEC4EmRKS0_"
.LASF176:
	.string	"_ZNSaIlEC4Ev"
.LASF615:
	.string	"_ZSt17__size_to_integerm"
.LASF811:
	.string	"thousands_sep"
.LASF246:
	.string	"_ZNSt6vectorIlSaIlEE14_S_do_relocateEPlS2_S2_RS0_St17integral_constantIbLb1EE"
.LASF685:
	.string	"wcschr"
.LASF540:
	.string	"_ZSt9__fill_a1IPddEN9__gnu_cxx11__enable_ifIXsrSt11__is_scalarIT0_E7__valueEvE6__typeET_S8_RKS4_"
.LASF532:
	.string	"__throw_bad_array_new_length"
.LASF364:
	.string	"_ZNSt6vectorIlSaIlEE8_M_eraseEN9__gnu_cxx17__normal_iteratorIPlS1_EES5_"
.LASF985:
	.string	"__diffmax"
.LASF631:
	.string	"putwc"
.LASF355:
	.string	"_ZNKSt6vectorIlSaIlEE12_M_check_lenEmPKc"
.LASF162:
	.string	"const_pointer"
.LASF490:
	.string	"_ZNSt6vectorIdSaIdEE9push_backEOd"
.LASF587:
	.string	"uninitialized_copy<long int const*, long int*>"
.LASF177:
	.string	"_ZNSaIlEC4ERKS_"
.LASF1028:
	.string	"__size_1d"
.LASF72:
	.string	"_M_addref"
.LASF459:
	.string	"_ZNKSt6vectorIdSaIdEE5beginEv"
.LASF801:
	.string	"uint_fast8_t"
.LASF43:
	.string	"_lock"
.LASF545:
	.string	"_FIte"
.LASF923:
	.string	"parallel_policy"
.LASF559:
	.string	"_ZSt19__iterator_categoryIPdENSt15iterator_traitsIT_E17iterator_categoryERKS2_"
.LASF789:
	.string	"int_least8_t"
.LASF481:
	.string	"_ZNSt6vectorIdSaIdEE2atEm"
.LASF864:
	.string	"strtod"
.LASF874:
	.string	"strtof"
.LASF579:
	.string	"_ZSt3minImERKT_S2_S2_"
.LASF722:
	.string	"_ZN9__gnu_cxx17__normal_iteratorIPlSt6vectorIlSaIlEEEmmEi"
.LASF237:
	.string	"__type_identity<std::allocator<long int> >"
.LASF865:
	.string	"strtol"
.LASF770:
	.string	"__int_least16_t"
.LASF100:
	.string	"_ZNSt11char_traitsIcE7compareEPKcS2_m"
.LASF721:
	.string	"_ZN9__gnu_cxx17__normal_iteratorIPlSt6vectorIlSaIlEEEmmEv"
.LASF386:
	.string	"_ZNSt15__new_allocatorIdED4Ev"
.LASF63:
	.string	"_ZNKSt17integral_constantIbLb1EEcvbEv"
.LASF803:
	.string	"uint_fast32_t"
.LASF68:
	.string	"__exception_ptr"
.LASF676:
	.string	"wcsxfrm"
.LASF1059:
	.string	"__cxa_rethrow"
.LASF738:
	.string	"_ZN9__gnu_cxx14__alloc_traitsISaIdEdE10_S_on_swapERS1_S3_"
.LASF31:
	.string	"_IO_buf_end"
.LASF53:
	.string	"short unsigned int"
.LASF749:
	.string	"wcstold"
.LASF790:
	.string	"int_least16_t"
.LASF67:
	.string	"__swappable_with_details"
.LASF264:
	.string	"_ZNSt6vectorIlSaIlEEaSERKS1_"
.LASF750:
	.string	"wcstoll"
.LASF925:
	.string	"_ZN6__pstl9execution2v115parallel_policy14__allow_vectorEv"
.LASF478:
	.string	"_ZNSt6vectorIdSaIdEEixEm"
.LASF463:
	.string	"_ZNKSt6vectorIdSaIdEE6rbeginEv"
.LASF529:
	.string	"_IsSimple"
.LASF668:
	.string	"wcsrtombs"
.LASF881:
	.string	"_IO_codecvt"
.LASF870:
	.string	"lldiv"
.LASF70:
	.string	"exception_ptr"
.LASF648:
	.string	"wcscmp"
.LASF762:
	.string	"__int16_t"
.LASF937:
	.string	"unseq"
.LASF651:
	.string	"wcscspn"
.LASF261:
	.string	"_ZNSt6vectorIlSaIlEEC4ESt16initializer_listIlERKS0_"
.LASF184:
	.string	"_ZNSt16allocator_traitsISaIlEE8allocateERS0_m"
.LASF26:
	.string	"_IO_read_base"
.LASF992:
	.string	"__len"
.LASF430:
	.string	"_ZNSt12_Vector_baseIdSaIdEE13_M_deallocateEPdm"
.LASF987:
	.string	"__can_memmove"
.LASF174:
	.string	"allocator<long int>"
.LASF423:
	.string	"_ZNSt12_Vector_baseIdSaIdEEC4EmRKS0_"
.LASF439:
	.string	"_ZNSt6vectorIdSaIdEE14_S_do_relocateEPdS2_S2_RS0_St17integral_constantIbLb0EE"
.LASF242:
	.string	"_ZNSt6vectorIlSaIlEE19_S_nothrow_relocateESt17integral_constantIbLb1EE"
.LASF993:
	.string	"_ZNSt12_Vector_baseIlSaIlEE12_Vector_implC2ERKS0_"
.LASF217:
	.string	"_ZNKSt12_Vector_baseIlSaIlEE13get_allocatorEv"
.LASF15:
	.string	"__wch"
.LASF354:
	.string	"_M_check_len"
.LASF665:
	.string	"wcsncat"
.LASF159:
	.string	"address"
.LASF826:
	.string	"p_sign_posn"
.LASF785:
	.string	"uint8_t"
.LASF949:
	.string	"_dims"
.LASF22:
	.string	"__FILE"
.LASF777:
	.string	"__uintmax_t"
.LASF98:
	.string	"compare"
.LASF1051:
	.string	"~runtime_error"
.LASF367:
	.string	"_ZNSt6vectorIlSaIlEE14_M_move_assignEOS1_St17integral_constantIbLb0EE"
.LASF491:
	.string	"_ZNSt6vectorIdSaIdEE8pop_backEv"
.LASF446:
	.string	"_ZNSt6vectorIdSaIdEEC4EOS1_"
.LASF650:
	.string	"wcscpy"
.LASF18:
	.string	"__value"
.LASF427:
	.string	"_ZNSt12_Vector_baseIdSaIdEEC4ERKS0_OS1_"
.LASF42:
	.string	"_shortbuf"
.LASF431:
	.string	"_ZNSt12_Vector_baseIdSaIdEE17_M_create_storageEm"
.LASF69:
	.string	"_M_exception_object"
.LASF704:
	.string	"_ZN9__gnu_cxx14__alloc_traitsISaIlElE15_S_always_equalEv"
.LASF677:
	.string	"wctob"
.LASF748:
	.string	"_ZN9__gnu_cxxneIPlSt6vectorIlSaIlEEEEbRKNS_17__normal_iteratorIT_T0_EESA_"
.LASF598:
	.string	"_Destroy<long int*>"
.LASF218:
	.string	"_Vector_base"
.LASF487:
	.string	"_ZNSt6vectorIdSaIdEE4dataEv"
.LASF888:
	.string	"fflush"
.LASF297:
	.string	"_ZNSt6vectorIlSaIlEE6resizeEmRKl"
.LASF92:
	.string	"_ZSt17rethrow_exceptionNSt15__exception_ptr13exception_ptrE"
.LASF296:
	.string	"_ZNSt6vectorIlSaIlEE6resizeEm"
.LASF4:
	.string	"float"
.LASF17:
	.string	"__count"
.LASF755:
	.string	"unsigned char"
.LASF1019:
	.string	"_ZNSt6vectorIdSaIdEED2Ev"
.LASF254:
	.string	"_ZNSt6vectorIlSaIlEEC4EmRKlRKS0_"
.LASF686:
	.string	"wcspbrk"
.LASF1012:
	.string	"_ZNSaIlED2Ev"
.LASF988:
	.string	"__assignable"
.LASF266:
	.string	"_ZNSt6vectorIlSaIlEEaSESt16initializer_listIlE"
.LASF971:
	.string	"__priority"
.LASF1001:
	.string	"_ZNSt12_Vector_baseIlSaIlEEC2ERKS0_"
.LASF829:
	.string	"int_p_sep_by_space"
.LASF380:
	.string	"type_info"
.LASF725:
	.string	"_ZN9__gnu_cxx17__normal_iteratorIPlSt6vectorIlSaIlEEEpLEl"
.LASF886:
	.string	"feof"
.LASF902:
	.string	"rename"
.LASF813:
	.string	"int_curr_symbol"
.LASF629:
	.string	"mbsinit"
.LASF633:
	.string	"swprintf"
.LASF371:
	.string	"__type_identity_t"
.LASF1026:
	.string	"~<lambda>"
.LASF913:
	.string	"wctrans"
.LASF681:
	.string	"wmemset"
.LASF652:
	.string	"wcsftime"
.LASF879:
	.string	"__fpos_t"
.LASF272:
	.string	"const_iterator"
.LASF603:
	.string	"_ZSt8distanceIPKlENSt15iterator_traitsIT_E15difference_typeES3_S3_"
.LASF834:
	.string	"setlocale"
.LASF347:
	.string	"_ZNSt6vectorIlSaIlEE17_M_default_appendEm"
.LASF489:
	.string	"_ZNSt6vectorIdSaIdEE9push_backERKd"
.LASF268:
	.string	"_ZNSt6vectorIlSaIlEE6assignESt16initializer_listIlE"
.LASF884:
	.string	"clearerr"
.LASF675:
	.string	"wcstoul"
.LASF340:
	.string	"_M_default_initialize"
.LASF270:
	.string	"begin"
.LASF705:
	.string	"_S_nothrow_move"
.LASF566:
	.string	"_ZSt6fill_nIPdmdET_S1_T0_RKT1_"
.LASF283:
	.string	"_ZNKSt6vectorIlSaIlEE4rendEv"
.LASF245:
	.string	"_S_do_relocate"
.LASF692:
	.string	"__alloc_traits<std::allocator<long int>, long int>"
.LASF238:
	.string	"type"
.LASF412:
	.string	"_ZNSt12_Vector_baseIdSaIdEE12_Vector_implC4EOS0_"
.LASF641:
	.string	"vswscanf"
.LASF778:
	.string	"__off_t"
.LASF133:
	.string	"_ZNSt8ios_base4InitD4Ev"
.LASF1014:
	.string	"_ZNSt12_Vector_baseIdSaIdEED2Ev"
.LASF626:
	.string	"getwc"
.LASF901:
	.string	"remove"
.LASF1015:
	.string	"_ZNSaIdED2Ev"
.LASF180:
	.string	"_ZNSaIlEaSERKS_"
.LASF451:
	.string	"_ZNSt6vectorIdSaIdEEC4ESt16initializer_listIdERKS0_"
.LASF311:
	.string	"_ZNSt6vectorIlSaIlEE2atEm"
.LASF926:
	.string	"_ZN6__pstl9execution2v115parallel_policy16__allow_parallelEv"
.LASF131:
	.string	"~Init"
.LASF514:
	.string	"_ZNSt6vectorIdSaIdEE14_M_move_assignEOS1_St17integral_constantIbLb1EE"
.LASF640:
	.string	"vswprintf"
.LASF743:
	.string	"_ZN9__gnu_cxx14__alloc_traitsISaIdEdE15_S_nothrow_moveEv"
.LASF563:
	.string	"__miter_base<long int const*>"
.LASF472:
	.string	"_ZNSt6vectorIdSaIdEE6resizeEm"
.LASF130:
	.string	"Init"
.LASF956:
	.string	"index_check"
.LASF336:
	.string	"clear"
.LASF569:
	.string	"__addressof<double>"
.LASF372:
	.string	"initializer_list<long int>"
.LASF493:
	.string	"_ZNSt6vectorIdSaIdEE6insertEN9__gnu_cxx17__normal_iteratorIPKdS1_EEOd"
.LASF693:
	.string	"_S_select_on_copy"
.LASF612:
	.string	"operator<< <std::char_traits<char> >"
.LASF990:
	.string	"_ZNSt12_Vector_baseIlSaIlEE17_Vector_impl_dataC2Ev"
.LASF833:
	.string	"int_n_sign_posn"
.LASF920:
	.string	"_ZN6__pstl9execution2v116sequenced_policy14__allow_vectorEv"
.LASF966:
	.string	"_ZNSt13runtime_errorD1Ev"
.LASF9:
	.string	"fp_offset"
.LASF541:
	.string	"__copy_move_a2<false, long int const*, long int*>"
.LASF1017:
	.string	"__out"
.LASF505:
	.string	"_ZNSt6vectorIdSaIdEE16_M_shrink_to_fitEv"
.LASF765:
	.string	"__uint32_t"
.LASF1053:
	.string	"_ZN9__gnu_cxx3divExx"
.LASF871:
	.string	"atoll"
.LASF117:
	.string	"not_eof"
.LASF890:
	.string	"fgetpos"
.LASF172:
	.string	"_M_max_size"
.LASF1004:
	.string	"_ZNSt15__new_allocatorIlEC2Ev"
.LASF727:
	.string	"_ZNK9__gnu_cxx17__normal_iteratorIPlSt6vectorIlSaIlEEEplEl"
.LASF1037:
	.string	"_ZN9container6tensorIdJEED2Ev"
.LASF46:
	.string	"_wide_data"
.LASF930:
	.string	"_ZN6__pstl9execution2v127parallel_unsequenced_policy16__allow_parallelEv"
.LASF492:
	.string	"_ZNSt6vectorIdSaIdEE6insertEN9__gnu_cxx17__normal_iteratorIPKdS1_EERS4_"
.LASF744:
	.string	"rebind<double>"
.LASF889:
	.string	"fgetc"
.LASF807:
	.string	"intmax_t"
.LASF891:
	.string	"fgets"
.LASF909:
	.string	"wctype_t"
.LASF88:
	.string	"_ZNSt15__exception_ptr13exception_ptr4swapERS0_"
.LASF561:
	.string	"__copy_move_a<false, long int const*, long int*>"
.LASF229:
	.string	"_M_impl"
.LASF432:
	.string	"__type_identity<std::allocator<double> >"
.LASF461:
	.string	"_ZNKSt6vectorIdSaIdEE3endEv"
.LASF819:
	.string	"negative_sign"
.LASF295:
	.string	"resize"
.LASF39:
	.string	"_old_offset"
.LASF854:
	.string	"getenv"
.LASF630:
	.string	"mbsrtowcs"
.LASF87:
	.string	"swap"
.LASF452:
	.string	"_ZNSt6vectorIdSaIdEED4Ev"
.LASF876:
	.string	"_G_fpos_t"
.LASF456:
	.string	"_ZNSt6vectorIdSaIdEE6assignEmRKd"
.LASF667:
	.string	"wcsncpy"
.LASF429:
	.string	"_ZNSt12_Vector_baseIdSaIdEE11_M_allocateEm"
.LASF737:
	.string	"_ZN9__gnu_cxx14__alloc_traitsISaIdEdE17_S_select_on_copyERKS1_"
.LASF350:
	.string	"_M_insert_rval"
.LASF957:
	.string	"_ZN9container7details11index_checkEll"
.LASF450:
	.string	"_ZNSt6vectorIdSaIdEEC4EOS1_RKS0_"
.LASF878:
	.string	"__state"
.LASF454:
	.string	"_ZNSt6vectorIdSaIdEEaSEOS1_"
.LASF917:
	.string	"__allow_unsequenced"
.LASF97:
	.string	"_ZNSt11char_traitsIcE2ltERKcS2_"
.LASF837:
	.string	"__gnu_debug"
.LASF235:
	.string	"_ZNSt12_Vector_baseIlSaIlEE17_M_create_storageEm"
.LASF558:
	.string	"__iterator_category<double*>"
.LASF169:
	.string	"_ZNSt15__new_allocatorIlE10deallocateEPlm"
.LASF702:
	.string	"_ZN9__gnu_cxx14__alloc_traitsISaIlElE20_S_propagate_on_swapEv"
.LASF758:
	.string	"char16_t"
.LASF226:
	.string	"_ZNSt12_Vector_baseIlSaIlEEC4ERKS0_OS1_"
.LASF34:
	.string	"_IO_save_end"
.LASF524:
	.string	"iterator_traits<double*>"
.LASF58:
	.string	"operator()"
.LASF316:
	.string	"back"
.LASF392:
	.string	"_ZNKSt15__new_allocatorIdE11_M_max_sizeEv"
.LASF1048:
	.string	"_ZNSt12_Destroy_auxILb1EE9__destroyIPdEEvT_S3_"
.LASF733:
	.string	"_ZNK9__gnu_cxx17__normal_iteratorIPlSt6vectorIlSaIlEEE4baseEv"
.LASF962:
	.string	"operator delete"
.LASF601:
	.string	"_ZSt8_DestroyIPdEvT_S1_"
.LASF848:
	.string	"atexit"
.LASF299:
	.string	"_ZNSt6vectorIlSaIlEE13shrink_to_fitEv"
.LASF158:
	.string	"pointer"
.LASF895:
	.string	"fseek"
.LASF467:
	.string	"_ZNKSt6vectorIdSaIdEE4cendEv"
.LASF293:
	.string	"_ZNKSt6vectorIlSaIlEE4sizeEv"
.LASF916:
	.string	"sequenced_policy"
.LASF998:
	.string	"__lhs"
.LASF961:
	.string	"__cxa_begin_catch"
.LASF632:
	.string	"putwchar"
.LASF428:
	.string	"_ZNSt12_Vector_baseIdSaIdEED4Ev"
.LASF528:
	.string	"_IsMove"
.LASF512:
	.string	"_ZNSt6vectorIdSaIdEE8_M_eraseEN9__gnu_cxx17__normal_iteratorIPdS1_EE"
.LASF397:
	.string	"_ZNSaIdED4Ev"
.LASF503:
	.string	"_ZNSt6vectorIdSaIdEE14_M_fill_insertEN9__gnu_cxx17__normal_iteratorIPdS1_EEmRKd"
.LASF181:
	.string	"~allocator"
.LASF66:
	.string	"__swappable_details"
.LASF717:
	.string	"operator++"
.LASF232:
	.string	"_M_deallocate"
.LASF362:
	.string	"_M_erase"
.LASF724:
	.string	"operator+="
.LASF127:
	.string	"__destroy<long int*>"
.LASF86:
	.string	"_ZNSt15__exception_ptr13exception_ptrD4Ev"
.LASF1009:
	.string	"_ZNSt12_Vector_baseIlSaIlEE12_Vector_implD2Ev"
.LASF619:
	.string	"wchar_t"
.LASF823:
	.string	"p_sep_by_space"
.LASF236:
	.string	"_Alloc"
.LASF703:
	.string	"_S_always_equal"
.LASF554:
	.string	"_ZSt12__niter_baseIPKlET_S2_"
.LASF546:
	.string	"__niter_wrap<long int*>"
.LASF638:
	.string	"vfwscanf"
.LASF804:
	.string	"uint_fast64_t"
.LASF981:
	.string	"__alloc"
.LASF974:
	.string	"__result"
.LASF400:
	.string	"_ZNSt16allocator_traitsISaIdEE8allocateERS0_mPKv"
.LASF752:
	.string	"wcstoull"
.LASF588:
	.string	"_ZSt18uninitialized_copyIPKlPlET0_T_S4_S3_"
.LASF661:
	.string	"tm_isdst"
.LASF301:
	.string	"_ZNKSt6vectorIlSaIlEE8capacityEv"
.LASF822:
	.string	"p_cs_precedes"
.LASF199:
	.string	"_ZNSt12_Vector_baseIlSaIlEE17_Vector_impl_dataC4Ev"
.LASF404:
	.string	"_Vector_base<double, std::allocator<double> >"
.LASF81:
	.string	"_ZNSt15__exception_ptr13exception_ptrC4EOS0_"
.LASF720:
	.string	"operator--"
.LASF251:
	.string	"_ZNSt6vectorIlSaIlEEC4Ev"
.LASF1045:
	.string	"align_val_t"
.LASF728:
	.string	"operator-="
.LASF715:
	.string	"operator->"
.LASF742:
	.string	"_ZN9__gnu_cxx14__alloc_traitsISaIdEdE15_S_always_equalEv"
.LASF289:
	.string	"_ZNKSt6vectorIlSaIlEE7crbeginEv"
.LASF519:
	.string	"iterator_traits<long int*>"
.LASF393:
	.string	"allocator<double>"
.LASF314:
	.string	"_ZNSt6vectorIlSaIlEE5frontEv"
.LASF1042:
	.string	"__int128 unsigned"
.LASF672:
	.string	"wcstok"
.LASF1000:
	.string	"_ZN9__gnu_cxx17__normal_iteratorIPlSt6vectorIlSaIlEEEC2ERKS1_"
.LASF757:
	.string	"short int"
.LASF518:
	.string	"reverse_iterator<__gnu_cxx::__normal_iterator<double const*, std::vector<double, std::allocator<double> > > >"
.LASF153:
	.string	"_ZNSt15__new_allocatorIlEC4Ev"
.LASF1024:
	.string	"_ZN9container6tensorIdJEED4Ev"
.LASF233:
	.string	"_ZNSt12_Vector_baseIlSaIlEE13_M_deallocateEPlm"
.LASF602:
	.string	"distance<long int const*>"
.LASF498:
	.string	"_ZNSt6vectorIdSaIdEE4swapERS1_"
.LASF538:
	.string	"_ZNSt13runtime_errorC4EPKc"
.LASF447:
	.string	"_ZNSt6vectorIdSaIdEEC4ERKS1_RKS0_"
.LASF1064:
	.string	"_ZZN9container6tensorIdJEEC4IJiiiiiiEEEDpT_ENKUliE_clEi"
.LASF582:
	.string	"_Allocator"
.LASF398:
	.string	"allocator_traits<std::allocator<double> >"
.LASF836:
	.string	"localeconv"
.LASF453:
	.string	"_ZNSt6vectorIdSaIdEEaSERKS1_"
.LASF1050:
	.string	"_ZNKSt16initializer_listIlE3endEv"
.LASF308:
	.string	"_ZNKSt6vectorIlSaIlEEixEm"
.LASF35:
	.string	"_markers"
.LASF482:
	.string	"_ZNKSt6vectorIdSaIdEE2atEm"
.LASF37:
	.string	"_fileno"
.LASF57:
	.string	"operator std::integral_constant<bool, false>::value_type"
.LASF772:
	.string	"__int_least32_t"
.LASF609:
	.string	"_ZSt8for_eachIN9__gnu_cxx17__normal_iteratorIPlSt6vectorIlSaIlEEEEZN9container6tensorIdJEEC4IJiiiiiiEEEDpT_EUliE_ET0_T_SF_SE_"
.LASF195:
	.string	"_Vector_impl_data"
.LASF378:
	.string	"_ZNKSt16initializer_listIlE4sizeEv"
.LASF221:
	.string	"_ZNSt12_Vector_baseIlSaIlEEC4Em"
.LASF219:
	.string	"_ZNSt12_Vector_baseIlSaIlEEC4Ev"
.LASF595:
	.string	"_RandomAccessIterator"
.LASF1029:
	.string	"__closure"
.LASF102:
	.string	"find"
.LASF921:
	.string	"__allow_parallel"
.LASF345:
	.string	"_ZNSt6vectorIlSaIlEE14_M_fill_insertEN9__gnu_cxx17__normal_iteratorIPlS1_EEmRKl"
.LASF780:
	.string	"__ssize_t"
.LASF791:
	.string	"int_least32_t"
.LASF508:
	.string	"_ZNKSt6vectorIdSaIdEE12_M_check_lenEmPKc"
.LASF970:
	.string	"__initialize_p"
.LASF258:
	.string	"_ZNSt6vectorIlSaIlEEC4EOS1_RKS0_St17integral_constantIbLb1EE"
.LASF674:
	.string	"long int"
.LASF256:
	.string	"_ZNSt6vectorIlSaIlEEC4EOS1_"
.LASF764:
	.string	"__int32_t"
.LASF680:
	.string	"wmemmove"
.LASF188:
	.string	"_ZNSt11char_traitsIcE6assignERcRKc"
.LASF729:
	.string	"_ZN9__gnu_cxx17__normal_iteratorIPlSt6vectorIlSaIlEEEmIEl"
.LASF1020:
	.string	"size_1d"
.LASF690:
	.string	"__gnu_cxx"
.LASF320:
	.string	"_ZNSt6vectorIlSaIlEE4dataEv"
.LASF798:
	.string	"int_fast16_t"
.LASF695:
	.string	"_S_on_swap"
.LASF918:
	.string	"__allow_vector"
.LASF201:
	.string	"_M_copy_data"
.LASF342:
	.string	"_M_fill_assign"
.LASF1002:
	.string	"__in_chrg"
.LASF249:
	.string	"_ZNSt6vectorIlSaIlEE11_S_relocateEPlS2_S2_RS0_"
.LASF1011:
	.string	"_ZNSt6vectorIlSaIlEEC2ESt16initializer_listIlERKS0_"
.LASF859:
	.string	"__destroy<double*>"
.LASF331:
	.string	"_ZNSt6vectorIlSaIlEE6insertEN9__gnu_cxx17__normal_iteratorIPKlS1_EEmRS4_"
.LASF27:
	.string	"_IO_write_base"
.LASF437:
	.string	"_ZNSt6vectorIdSaIdEE15_S_use_relocateEv"
.LASF963:
	.string	"_ZdlPvm"
.LASF260:
	.string	"_ZNSt6vectorIlSaIlEEC4EOS1_RKS0_"
.LASF103:
	.string	"_ZNSt11char_traitsIcE4findEPKcmRS1_"
.LASF173:
	.string	"_ZNKSt15__new_allocatorIlE11_M_max_sizeEv"
.LASF934:
	.string	"_ZN6__pstl9execution2v118unsequenced_policy16__allow_parallelEv"
.LASF267:
	.string	"_ZNSt6vectorIlSaIlEE6assignEmRKl"
.LASF55:
	.string	"integral_constant<bool, false>"
.LASF539:
	.string	"__fill_a1<double*, double>"
.LASF324:
	.string	"_ZNSt6vectorIlSaIlEE9push_backEOl"
.LASF115:
	.string	"eq_int_type"
.LASF513:
	.string	"_ZNSt6vectorIdSaIdEE8_M_eraseEN9__gnu_cxx17__normal_iteratorIPdS1_EES5_"
.LASF782:
	.string	"int16_t"
.LASF877:
	.string	"__pos"
.LASF157:
	.string	"__ostream_type"
.LASF415:
	.string	"_ZNSt12_Vector_baseIlSaIlEE12_Vector_implD4Ev"
.LASF581:
	.string	"_ZSt12__relocate_aIPdS0_SaIdEET0_T_S3_S2_RT1_"
.LASF995:
	.string	"__size"
.LASF210:
	.string	"_ZNSt12_Vector_baseIlSaIlEE12_Vector_implC4EOS0_"
.LASF240:
	.string	"vector<long int, std::allocator<long int> >"
.LASF885:
	.string	"fclose"
.LASF600:
	.string	"_Destroy<double*>"
.LASF333:
	.string	"_ZNSt6vectorIlSaIlEE5eraseEN9__gnu_cxx17__normal_iteratorIPKlS1_EE"
.LASF406:
	.string	"_ZNSt12_Vector_baseIdSaIdEE17_Vector_impl_dataC4EOS2_"
.LASF701:
	.string	"_S_propagate_on_swap"
.LASF411:
	.string	"_ZNSt12_Vector_baseIdSaIdEE12_Vector_implC4EOS2_"
.LASF904:
	.string	"setbuf"
.LASF800:
	.string	"int_fast64_t"
.LASF978:
	.string	"__res"
.LASF869:
	.string	"wctomb"
.LASF1040:
	.string	"_ZnwmPv"
.LASF365:
	.string	"_M_move_assign"
.LASF334:
	.string	"_ZNSt6vectorIlSaIlEE5eraseEN9__gnu_cxx17__normal_iteratorIPKlS1_EES6_"
.LASF234:
	.string	"_M_create_storage"
.LASF152:
	.string	"__new_allocator"
.LASF40:
	.string	"_cur_column"
.LASF510:
	.string	"_ZNSt6vectorIdSaIdEE11_S_max_sizeERKS0_"
.LASF112:
	.string	"int_type"
.LASF361:
	.string	"_ZNSt6vectorIlSaIlEE15_M_erase_at_endEPl"
.LASF84:
	.string	"_ZNSt15__exception_ptr13exception_ptraSEOS0_"
.LASF302:
	.string	"empty"
.LASF1023:
	.string	"_ZZN9container6tensorIdJEEC4IJiiiiiiEEEDpT_ENUliE_C4ERKS5_"
.LASF150:
	.string	"_TrivialValueType"
.LASF734:
	.string	"_Container"
.LASF746:
	.string	"__normal_iterator<double const*, std::vector<double, std::allocator<double> > >"
.LASF731:
	.string	"_ZNK9__gnu_cxx17__normal_iteratorIPlSt6vectorIlSaIlEEEmiEl"
.LASF817:
	.string	"mon_grouping"
.LASF239:
	.string	"_Type"
.LASF555:
	.string	"__fill_n_a<double*, long unsigned int, double>"
.LASF303:
	.string	"_ZNKSt6vectorIlSaIlEE5emptyEv"
.LASF689:
	.string	"wmemchr"
.LASF967:
	.string	"__cxa_throw"
.LASF1047:
	.string	"input_iterator_tag"
.LASF856:
	.string	"mblen"
.LASF658:
	.string	"tm_year"
.LASF999:
	.string	"__rhs"
.LASF844:
	.string	"7lldiv_t"
.LASF604:
	.string	"_Destroy<long int*, long int>"
.LASF113:
	.string	"to_int_type"
.LASF138:
	.string	"operator<<"
.LASF122:
	.string	"forward_iterator_tag"
.LASF1043:
	.string	"GNU C++17 12.2.0 -mtune=generic -march=x86-64 -g -std=c++17 -fasynchronous-unwind-tables"
.LASF1031:
	.string	"_ZNSt6vectorIdSaIdEEC2Ev"
.LASF401:
	.string	"_ZNSt16allocator_traitsISaIdEE10deallocateERS0_Pdm"
.LASF79:
	.string	"_ZNSt15__exception_ptr13exception_ptrC4ERKS0_"
.LASF577:
	.string	"_ZSt12__niter_baseIPdET_S1_"
.LASF873:
	.string	"strtoull"
.LASF370:
	.string	"_Traits"
.LASF549:
	.string	"__copy_move_a1<false, long int const*, long int*>"
.LASF425:
	.string	"_ZNSt12_Vector_baseIdSaIdEEC4EOS0_"
.LASF779:
	.string	"__off64_t"
.LASF670:
	.string	"wcstod"
.LASF65:
	.string	"false_type"
.LASF671:
	.string	"wcstof"
.LASF659:
	.string	"tm_wday"
.LASF673:
	.string	"wcstol"
.LASF278:
	.string	"_ZNSt6vectorIlSaIlEE6rbeginEv"
.LASF360:
	.string	"_M_erase_at_end"
.LASF143:
	.string	"_ZNSt20__uninitialized_copyILb1EE13__uninit_copyIPKlPlEET0_T_S6_S5_"
.LASF312:
	.string	"_ZNKSt6vectorIlSaIlEE2atEm"
.LASF1005:
	.string	"_ZNSt15__new_allocatorIdED2Ev"
.LASF75:
	.string	"_ZNSt15__exception_ptr13exception_ptr10_M_releaseEv"
.LASF585:
	.string	"__uninitialized_default_n<double*, long unsigned int>"
.LASF756:
	.string	"signed char"
.LASF592:
	.string	"_ZSt22__uninitialized_copy_aIPKlPllET0_T_S4_S3_RSaIT1_E"
.LASF932:
	.string	"_ZN6__pstl9execution2v118unsequenced_policy19__allow_unsequencedEv"
.LASF424:
	.string	"_ZNSt12_Vector_baseIdSaIdEEC4EOS1_"
.LASF900:
	.string	"perror"
.LASF382:
	.string	"reverse_iterator<__gnu_cxx::__normal_iterator<long int const*, std::vector<long int, std::allocator<long int> > > >"
.LASF991:
	.string	"_ZNSaIlEC2ERKS_"
.LASF383:
	.string	"__new_allocator<double>"
.LASF326:
	.string	"_ZNSt6vectorIlSaIlEE8pop_backEv"
.LASF593:
	.string	"__distance<long int const*>"
.LASF135:
	.string	"_ZNSt8ios_base4InitaSERKS0_"
.LASF464:
	.string	"_ZNSt6vectorIdSaIdEE4rendEv"
.LASF741:
	.string	"_ZN9__gnu_cxx14__alloc_traitsISaIdEdE20_S_propagate_on_swapEv"
.LASF924:
	.string	"_ZN6__pstl9execution2v115parallel_policy19__allow_unsequencedEv"
.LASF645:
	.string	"__isoc99_vwscanf"
.LASF616:
	.string	"btowc"
.LASF191:
	.string	"select_on_container_copy_construction"
.LASF433:
	.string	"vector<double, std::allocator<double> >"
.LASF74:
	.string	"_ZNSt15__exception_ptr13exception_ptr9_M_addrefEv"
.LASF678:
	.string	"wmemcmp"
.LASF697:
	.string	"_S_propagate_on_copy_assign"
.LASF767:
	.string	"__uint64_t"
.LASF170:
	.string	"max_size"
.LASF132:
	.string	"_ZNSt8ios_base4InitC4Ev"
.LASF1032:
	.string	"_ZNSt12_Vector_baseIdSaIdEEC2Ev"
.LASF139:
	.string	"_ZNSolsEl"
.LASF94:
	.string	"char_traits<char>"
.LASF309:
	.string	"_M_range_check"
.LASF586:
	.string	"_ZSt25__uninitialized_default_nIPdmET_S1_T0_"
.LASF189:
	.string	"_ZNSt16allocator_traitsISaIlEE10deallocateERS0_Plm"
.LASF265:
	.string	"_ZNSt6vectorIlSaIlEEaSEOS1_"
.LASF599:
	.string	"_ZSt8_DestroyIPlEvT_S1_"
.LASF1007:
	.string	"_ZNSaIdEC2Ev"
.LASF953:
	.string	"data_type"
.LASF202:
	.string	"_ZNSt12_Vector_baseIlSaIlEE17_Vector_impl_data12_M_copy_dataERKS2_"
.LASF408:
	.string	"_ZNSt12_Vector_baseIdSaIdEE17_Vector_impl_data12_M_swap_dataERS2_"
.LASF449:
	.string	"_ZNSt6vectorIdSaIdEEC4EOS1_RKS0_St17integral_constantIbLb0EE"
.LASF1006:
	.string	"_ZNSt12_Vector_baseIdSaIdEE17_Vector_impl_dataC2Ev"
.LASF271:
	.string	"_ZNSt6vectorIlSaIlEE5beginEv"
.LASF708:
	.string	"other"
.LASF542:
	.string	"_ZSt14__copy_move_a2ILb0EPKlPlET1_T0_S4_S3_"
.LASF1061:
	.string	"_GLOBAL__sub_I__ZN9container7details11index_checkEll"
.LASF786:
	.string	"uint16_t"
.LASF509:
	.string	"_ZNSt6vectorIdSaIdEE17_S_check_init_lenEmRKS0_"
.LASF907:
	.string	"tmpnam"
.LASF277:
	.string	"rbegin"
.LASF580:
	.string	"__relocate_a<double*, double*, std::allocator<double> >"
.LASF753:
	.string	"long long unsigned int"
.LASF699:
	.string	"_S_propagate_on_move_assign"
.LASF679:
	.string	"wmemcpy"
.LASF419:
	.string	"_ZNKSt12_Vector_baseIdSaIdEE13get_allocatorEv"
.LASF414:
	.string	"~_Vector_impl"
.LASF287:
	.string	"_ZNKSt6vectorIlSaIlEE4cendEv"
.LASF106:
	.string	"copy"
.LASF867:
	.string	"system"
.LASF526:
	.string	"__copy_m<long int>"
.LASF352:
	.string	"_M_emplace_aux"
.LASF148:
	.string	"_ZNSt27__uninitialized_default_n_1ILb1EE18__uninit_default_nIPdmEET_S3_T0_"
.LASF462:
	.string	"_ZNSt6vectorIdSaIdEE6rbeginEv"
.LASF109:
	.string	"_ZNSt11char_traitsIcE6assignEPcmc"
.LASF713:
	.string	"operator*"
.LASF726:
	.string	"operator+"
.LASF730:
	.string	"operator-"
.LASF310:
	.string	"_ZNKSt6vectorIlSaIlEE14_M_range_checkEm"
.LASF922:
	.string	"_ZN6__pstl9execution2v116sequenced_policy16__allow_parallelEv"
.LASF841:
	.string	"div_t"
.LASF82:
	.string	"operator="
.LASF897:
	.string	"ftell"
.LASF62:
	.string	"operator std::integral_constant<bool, true>::value_type"
.LASF252:
	.string	"_ZNSt6vectorIlSaIlEEC4ERKS0_"
.LASF759:
	.string	"char32_t"
.LASF862:
	.string	"rand"
.LASF192:
	.string	"_ZNSt16allocator_traitsISaIlEE37select_on_container_copy_constructionERKS0_"
.LASF255:
	.string	"_ZNSt6vectorIlSaIlEEC4ERKS1_"
.LASF436:
	.string	"_ZNSt6vectorIlSaIlEE15_S_use_relocateEv"
.LASF827:
	.string	"n_sign_posn"
.LASF440:
	.string	"_ZNSt6vectorIdSaIdEE11_S_relocateEPdS2_S2_RS0_"
.LASF247:
	.string	"_ZNSt6vectorIlSaIlEE14_S_do_relocateEPlS2_S2_RS0_St17integral_constantIbLb0EE"
.LASF933:
	.string	"_ZN6__pstl9execution2v118unsequenced_policy14__allow_vectorEv"
.LASF335:
	.string	"_ZNSt6vectorIlSaIlEE4swapERS1_"
.LASF356:
	.string	"_S_check_init_len"
.LASF209:
	.string	"_ZNSt12_Vector_baseIlSaIlEE12_Vector_implC4EOS2_"
.LASF167:
	.string	"size_type"
.LASF2:
	.string	"__unknown__"
.LASF407:
	.string	"_ZNSt12_Vector_baseIdSaIdEE17_Vector_impl_data12_M_copy_dataERKS2_"
.LASF1022:
	.string	"_ZZN9container6tensorIdJEEC4IJiiiiiiEEEDpT_ENUliE_C4EOS5_"
.LASF732:
	.string	"base"
.LASF52:
	.string	"FILE"
.LASF589:
	.string	"__uninitialized_default_n_a<double*, long unsigned int, double>"
.LASF441:
	.string	"_ZNSt6vectorIdSaIdEEC4Ev"
.LASF204:
	.string	"_ZNSt12_Destroy_auxILb1EE9__destroyIPlEEvT_S3_"
.LASF771:
	.string	"__uint_least16_t"
.LASF982:
	.string	"__dso_handle"
.LASF215:
	.string	"_ZNKSt12_Vector_baseIlSaIlEE19_M_get_Tp_allocatorEv"
.LASF611:
	.string	"_Funct"
.LASF444:
	.string	"_ZNSt6vectorIdSaIdEEC4EmRKdRKS0_"
.LASF567:
	.string	"_Construct<double>"
.LASF19:
	.string	"char"
.LASF935:
	.string	"cout"
.LASF483:
	.string	"_ZNSt6vectorIdSaIdEE5frontEv"
.LASF531:
	.string	"__throw_bad_alloc"
.LASF911:
	.string	"iswctype"
.LASF958:
	.string	"_ZNSt8ios_base4InitD1Ev"
.LASF175:
	.string	"allocator"
.LASF522:
	.string	"iterator_category"
.LASF339:
	.string	"_ZNSt6vectorIlSaIlEE18_M_fill_initializeEmRKl"
.LASF662:
	.string	"tm_gmtoff"
.LASF145:
	.string	"_TrivialValueTypes"
.LASF644:
	.string	"vwscanf"
.LASF116:
	.string	"_ZNSt11char_traitsIcE11eq_int_typeERKiS2_"
.LASF359:
	.string	"_ZNSt6vectorIlSaIlEE11_S_max_sizeERKS0_"
.LASF111:
	.string	"_ZNSt11char_traitsIcE12to_char_typeERKi"
.LASF194:
	.string	"_Vector_base<long int, std::allocator<long int> >"
.LASF216:
	.string	"get_allocator"
.LASF557:
	.string	"_OutputIterator"
.LASF479:
	.string	"_ZNKSt6vectorIdSaIdEEixEm"
.LASF799:
	.string	"int_fast32_t"
.LASF947:
	.string	"_ZNK9container6tensorIdJEE5shapeEl"
.LASF151:
	.string	"__new_allocator<long int>"
.LASF946:
	.string	"_ZNK9container6tensorIdJEE5shapeEv"
.LASF952:
	.string	"~tensor"
.LASF571:
	.string	"copy<long int const*, long int*>"
.LASF984:
	.string	"__val"
.LASF385:
	.string	"_ZNSt15__new_allocatorIdEC4ERKS0_"
.LASF794:
	.string	"uint_least16_t"
.LASF422:
	.string	"_ZNSt12_Vector_baseIdSaIdEEC4Em"
.LASF977:
	.string	"__tmp"
.LASF420:
	.string	"_ZNSt12_Vector_baseIdSaIdEEC4Ev"
.LASF1010:
	.string	"__new_size"
.LASF313:
	.string	"front"
.LASF327:
	.string	"insert"
.LASF696:
	.string	"_ZN9__gnu_cxx14__alloc_traitsISaIlElE10_S_on_swapERS1_S3_"
.LASF394:
	.string	"_ZNSaIdEC4Ev"
.LASF319:
	.string	"data"
.LASF90:
	.string	"_ZNKSt15__exception_ptr13exception_ptr20__cxa_exception_typeEv"
.LASF78:
	.string	"_ZNSt15__exception_ptr13exception_ptrC4Ev"
.LASF628:
	.string	"mbrtowc"
.LASF405:
	.string	"_ZNSt12_Vector_baseIdSaIdEE17_Vector_impl_dataC4Ev"
.LASF243:
	.string	"_ZNSt6vectorIlSaIlEE19_S_nothrow_relocateESt17integral_constantIbLb0EE"
.LASF976:
	.string	"_Num"
.LASF815:
	.string	"mon_decimal_point"
.LASF96:
	.string	"_ZNSt11char_traitsIcE2eqERKcS2_"
.LASF944:
	.string	"_ZNK9container6tensorIdJEE4sizeEv"
.LASF36:
	.string	"_chain"
.LASF1044:
	.string	"typedef __va_list_tag __va_list_tag"
.LASF338:
	.string	"_M_fill_initialize"
.LASF847:
	.string	"__compar_fn_t"
.LASF471:
	.string	"_ZNKSt6vectorIdSaIdEE8max_sizeEv"
.LASF698:
	.string	"_ZN9__gnu_cxx14__alloc_traitsISaIlElE27_S_propagate_on_copy_assignEv"
.LASF1058:
	.string	"__cxa_end_catch"
.LASF578:
	.string	"min<long unsigned int>"
.LASF883:
	.string	"fpos_t"
.LASF1054:
	.string	"_M_current"
.LASF1030:
	.string	"_ZN9container6tensorIdJEEC2IJiiiiiiEEEDpT_"
.LASF768:
	.string	"__int_least8_t"
.LASF275:
	.string	"_ZNKSt6vectorIlSaIlEE3endEv"
.LASF10:
	.string	"overflow_arg_area"
.LASF11:
	.string	"reg_save_area"
.LASF774:
	.string	"__int_least64_t"
.LASF951:
	.string	"_ZN9container6tensorIdJEEC4IJiiiiiiEEEDpT_"
.LASF875:
	.string	"strtold"
.LASF872:
	.string	"strtoll"
.LASF402:
	.string	"_ZNSt16allocator_traitsISaIdEE8max_sizeERKS0_"
.LASF623:
	.string	"fwprintf"
.LASF1034:
	.string	"main"
.LASF739:
	.string	"_ZN9__gnu_cxx14__alloc_traitsISaIdEdE27_S_propagate_on_copy_assignEv"
.LASF85:
	.string	"~exception_ptr"
.LASF941:
	.string	"_ZN9container6tensorIdJEEC4Ev"
.LASF792:
	.string	"int_least64_t"
.LASF820:
	.string	"int_frac_digits"
.LASF564:
	.string	"_ZSt12__miter_baseIPKlET_S2_"
.LASF905:
	.string	"setvbuf"
.LASF47:
	.string	"_freeres_list"
.LASF716:
	.string	"_ZNK9__gnu_cxx17__normal_iteratorIPlSt6vectorIlSaIlEEEptEv"
.LASF936:
	.string	"par_unseq"
.LASF766:
	.string	"__int64_t"
.LASF434:
	.string	"_ZNSt6vectorIdSaIdEE19_S_nothrow_relocateESt17integral_constantIbLb1EE"
.LASF480:
	.string	"_ZNKSt6vectorIdSaIdEE14_M_range_checkEm"
.LASF828:
	.string	"int_p_cs_precedes"
.LASF736:
	.string	"__alloc_traits<std::allocator<double>, double>"
.LASF996:
	.string	"__navail"
.LASF682:
	.string	"wprintf"
.LASF54:
	.string	"_IO_FILE"
.LASF1033:
	.string	"_ZNSt12_Vector_baseIdSaIdEE12_Vector_implD2Ev"
.LASF120:
	.string	"ptrdiff_t"
.LASF712:
	.string	"_ZN9__gnu_cxx17__normal_iteratorIPlSt6vectorIlSaIlEEEC4ERKS1_"
.LASF548:
	.string	"_Iterator"
.LASF1027:
	.string	"_ZZN9container6tensorIdJEEC4IJiiiiiiEEEDpT_ENUliE_D4Ev"
.LASF8:
	.string	"gp_offset"
.LASF290:
	.string	"crend"
.LASF769:
	.string	"__uint_least8_t"
.LASF1063:
	.string	"__can_fill"
.LASF543:
	.string	"__fill_a<double*, double>"
.LASF846:
	.string	"ssize_t"
.LASF1035:
	.string	"argc"
.LASF496:
	.string	"_ZNSt6vectorIdSaIdEE5eraseEN9__gnu_cxx17__normal_iteratorIPKdS1_EE"
.LASF887:
	.string	"ferror"
.LASF594:
	.string	"_ZSt10__distanceIPKlENSt15iterator_traitsIT_E15difference_typeES3_S3_St26random_access_iterator_tag"
.LASF348:
	.string	"_M_shrink_to_fit"
.LASF919:
	.string	"_ZN6__pstl9execution2v116sequenced_policy19__allow_unsequencedEv"
.LASF1036:
	.string	"argv"
.LASF114:
	.string	"_ZNSt11char_traitsIcE11to_int_typeERKc"
.LASF637:
	.string	"vfwprintf"
.LASF507:
	.string	"_ZNSt6vectorIdSaIdEE14_M_emplace_auxEN9__gnu_cxx17__normal_iteratorIPKdS1_EEOd"
.LASF553:
	.string	"__niter_base<long int const*>"
.LASF783:
	.string	"int32_t"
.LASF99:
	.string	"length"
.LASF797:
	.string	"int_fast8_t"
.LASF687:
	.string	"wcsrchr"
.LASF620:
	.string	"fputwc"
.LASF781:
	.string	"int8_t"
.LASF621:
	.string	"fputws"
.LASF590:
	.string	"_ZSt27__uninitialized_default_n_aIPdmdET_S1_T0_RSaIT1_E"
.LASF21:
	.string	"mbstate_t"
.LASF474:
	.string	"_ZNSt6vectorIdSaIdEE13shrink_to_fitEv"
.LASF14:
	.string	"wint_t"
.LASF910:
	.string	"wctrans_t"
.LASF537:
	.string	"runtime_error"
.LASF488:
	.string	"_ZNKSt6vectorIdSaIdEE4dataEv"
.LASF928:
	.string	"_ZN6__pstl9execution2v127parallel_unsequenced_policy19__allow_unsequencedEv"
.LASF291:
	.string	"_ZNKSt6vectorIlSaIlEE5crendEv"
.LASF506:
	.string	"_ZNSt6vectorIdSaIdEE14_M_insert_rvalEN9__gnu_cxx17__normal_iteratorIPKdS1_EEOd"
.LASF12:
	.string	"unsigned int"
.LASF515:
	.string	"_ZNSt6vectorIdSaIdEE14_M_move_assignEOS1_St17integral_constantIbLb0EE"
.LASF276:
	.string	"reverse_iterator"
.LASF476:
	.string	"_ZNKSt6vectorIdSaIdEE5emptyEv"
.LASF126:
	.string	"_Destroy_aux<true>"
.LASF853:
	.string	"bsearch"
	.section	.debug_line_str,"MS",@progbits,1
.LASF1:
	.string	"/home/xunililak/Code/Projects/10-Tensor"
.LASF0:
	.string	"Application.cpp"
	.hidden	DW.ref.__gxx_personality_v0
	.weak	DW.ref.__gxx_personality_v0
	.section	.data.rel.local.DW.ref.__gxx_personality_v0,"awG",@progbits,DW.ref.__gxx_personality_v0,comdat
	.align 8
	.type	DW.ref.__gxx_personality_v0, @object
	.size	DW.ref.__gxx_personality_v0, 8
DW.ref.__gxx_personality_v0:
	.quad	__gxx_personality_v0
	.hidden	__dso_handle
	.ident	"GCC: (Debian 12.2.0-3) 12.2.0"
	.section	.note.GNU-stack,"",@progbits
