	.file	"Application.cpp"
# GNU C++17 (Debian 12.2.0-3) version 12.2.0 (x86_64-linux-gnu)
#	compiled by GNU C version 12.2.0, GMP version 6.2.1, MPFR version 4.1.0, MPC version 1.2.1, isl version isl-0.25-GMP

# GGC heuristics: --param ggc-min-expand=100 --param ggc-min-heapsize=131072
# options passed: -mtune=generic -march=x86-64 -g -std=c++17 -fasynchronous-unwind-tables
	.text
.Ltext0:
	.file 0 "/home/xunililak/Code/Projects/10-Tensor" "Application.cpp"
	.section	.text._ZnwmPv,"axG",@progbits,_ZnwmPv,comdat
	.weak	_ZnwmPv
	.type	_ZnwmPv, @function
_ZnwmPv:
.LFB40:
	.file 1 "/usr/include/c++/12/new"
	.loc 1 175 1
	.cfi_startproc
	pushq	%rbp	#
	.cfi_def_cfa_offset 16
	.cfi_offset 6, -16
	movq	%rsp, %rbp	#,
	.cfi_def_cfa_register 6
	movq	%rdi, -8(%rbp)	# D.3371, D.3371
	movq	%rsi, -16(%rbp)	# __p, __p
# /usr/include/c++/12/new:175: { return __p; }
	.loc 1 175 10
	movq	-16(%rbp), %rax	# __p, _2
# /usr/include/c++/12/new:175: { return __p; }
	.loc 1 175 15
	popq	%rbp	#
	.cfi_def_cfa 7, 8
	ret	
	.cfi_endproc
.LFE40:
	.size	_ZnwmPv, .-_ZnwmPv
	.section	.text._ZSt17__size_to_integerm,"axG",@progbits,_ZSt17__size_to_integerm,comdat
	.weak	_ZSt17__size_to_integerm
	.type	_ZSt17__size_to_integerm, @function
_ZSt17__size_to_integerm:
.LFB652:
	.file 2 "/usr/include/c++/12/bits/stl_algobase.h"
	.loc 2 1009 40
	.cfi_startproc
	pushq	%rbp	#
	.cfi_def_cfa_offset 16
	.cfi_offset 6, -16
	movq	%rsp, %rbp	#,
	.cfi_def_cfa_register 6
	movq	%rdi, -8(%rbp)	# __n, __n
# /usr/include/c++/12/bits/stl_algobase.h:1009:   __size_to_integer(unsigned long __n) { return __n; }
	.loc 2 1009 49
	movq	-8(%rbp), %rax	# __n, _2
# /usr/include/c++/12/bits/stl_algobase.h:1009:   __size_to_integer(unsigned long __n) { return __n; }
	.loc 2 1009 54
	popq	%rbp	#
	.cfi_def_cfa 7, 8
	ret	
	.cfi_endproc
.LFE652:
	.size	_ZSt17__size_to_integerm, .-_ZSt17__size_to_integerm
	.local	_ZStL8__ioinit
	.comm	_ZStL8__ioinit,1,1
	.section	.rodata
	.type	_ZN6__pstl9execution2v1L3seqE, @object
	.size	_ZN6__pstl9execution2v1L3seqE, 1
_ZN6__pstl9execution2v1L3seqE:
	.zero	1
	.type	_ZN6__pstl9execution2v1L3parE, @object
	.size	_ZN6__pstl9execution2v1L3parE, 1
_ZN6__pstl9execution2v1L3parE:
	.zero	1
	.type	_ZN6__pstl9execution2v1L9par_unseqE, @object
	.size	_ZN6__pstl9execution2v1L9par_unseqE, 1
_ZN6__pstl9execution2v1L9par_unseqE:
	.zero	1
	.type	_ZN6__pstl9execution2v1L5unseqE, @object
	.size	_ZN6__pstl9execution2v1L5unseqE, 1
_ZN6__pstl9execution2v1L5unseqE:
	.zero	1
.LC0:
	.string	"Index out of range."
	.text
	.globl	_ZN9container7details11index_checkEll
	.type	_ZN9container7details11index_checkEll, @function
_ZN9container7details11index_checkEll:
.LFB2549:
	.file 3 "Tensor.hpp"
	.loc 3 31 9
	.cfi_startproc
	.cfi_personality 0x9b,DW.ref.__gxx_personality_v0
	.cfi_lsda 0x1b,.LLSDA2549
	pushq	%rbp	#
	.cfi_def_cfa_offset 16
	.cfi_offset 6, -16
	movq	%rsp, %rbp	#,
	.cfi_def_cfa_register 6
	pushq	%r12	#
	pushq	%rbx	#
	subq	$16, %rsp	#,
	.cfi_offset 12, -24
	.cfi_offset 3, -32
	movq	%rdi, -24(%rbp)	# index, index
	movq	%rsi, -32(%rbp)	# oor_index, oor_index
# Tensor.hpp:32:             if (index >= oor_index || index < -oor_index)
	.loc 3 32 13
	movq	-24(%rbp), %rax	# index, tmp87
	cmpq	-32(%rbp), %rax	# oor_index, tmp87
	jge	.L6	#,
# Tensor.hpp:32:             if (index >= oor_index || index < -oor_index)
	.loc 3 32 47 discriminator 1
	movq	-32(%rbp), %rax	# oor_index, tmp88
	negq	%rax	# _1
# Tensor.hpp:32:             if (index >= oor_index || index < -oor_index)
	.loc 3 32 36 discriminator 1
	cmpq	%rax, -24(%rbp)	# _1, index
	jge	.L7	#,
.L6:
# Tensor.hpp:33:                 throw std::runtime_error("Index out of range.");
	.loc 3 33 63
	movl	$16, %edi	#,
	call	__cxa_allocate_exception@PLT	#
	movq	%rax, %rbx	# tmp89, _10
# Tensor.hpp:33:                 throw std::runtime_error("Index out of range.");
	.loc 3 33 17
	leaq	.LC0(%rip), %rax	#, tmp90
	movq	%rax, %rsi	# tmp90,
	movq	%rbx, %rdi	# _10,
.LEHB0:
	call	_ZNSt13runtime_errorC1EPKc@PLT	#
.LEHE0:
# Tensor.hpp:33:                 throw std::runtime_error("Index out of range.");
	.loc 3 33 63 discriminator 2
	movq	_ZNSt13runtime_errorD1Ev@GOTPCREL(%rip), %rax	#, tmp92
	movq	%rax, %rdx	# tmp91,
	leaq	_ZTISt13runtime_error(%rip), %rax	#, tmp93
	movq	%rax, %rsi	# tmp93,
	movq	%rbx, %rdi	# _10,
.LEHB1:
	call	__cxa_throw@PLT	#
.L7:
# Tensor.hpp:34:             return index >= 0 ? index : oor_index + index;
	.loc 3 34 31
	cmpq	$0, -24(%rbp)	#, index
	jns	.L8	#,
# Tensor.hpp:34:             return index >= 0 ? index : oor_index + index;
	.loc 3 34 31 is_stmt 0 discriminator 1
	movq	-32(%rbp), %rdx	# oor_index, tmp94
	movq	-24(%rbp), %rax	# index, tmp95
	addq	%rdx, %rax	# tmp94, iftmp.0_2
# Tensor.hpp:34:             return index >= 0 ? index : oor_index + index;
	.loc 3 34 53 is_stmt 1 discriminator 1
	jmp	.L13	#
.L8:
# Tensor.hpp:34:             return index >= 0 ? index : oor_index + index;
	.loc 3 34 31 discriminator 2
	movq	-24(%rbp), %rax	# index, iftmp.0_2
# Tensor.hpp:34:             return index >= 0 ? index : oor_index + index;
	.loc 3 34 53 discriminator 2
	jmp	.L13	#
.L12:
# Tensor.hpp:33:                 throw std::runtime_error("Index out of range.");
	.loc 3 33 63
	movq	%rax, %r12	#, tmp97
	movq	%rbx, %rdi	# _10,
	call	__cxa_free_exception@PLT	#
	movq	%r12, %rax	# tmp97, D.66168
	movq	%rax, %rdi	# D.66168,
	call	_Unwind_Resume@PLT	#
.LEHE1:
.L13:
# Tensor.hpp:35:         }
	.loc 3 35 9
	addq	$16, %rsp	#,
	popq	%rbx	#
	popq	%r12	#
	popq	%rbp	#
	.cfi_def_cfa 7, 8
	ret	
	.cfi_endproc
.LFE2549:
	.globl	__gxx_personality_v0
	.section	.gcc_except_table,"a",@progbits
.LLSDA2549:
	.byte	0xff
	.byte	0xff
	.byte	0x1
	.uleb128 .LLSDACSE2549-.LLSDACSB2549
.LLSDACSB2549:
	.uleb128 .LEHB0-.LFB2549
	.uleb128 .LEHE0-.LEHB0
	.uleb128 .L12-.LFB2549
	.uleb128 0
	.uleb128 .LEHB1-.LFB2549
	.uleb128 .LEHE1-.LEHB1
	.uleb128 0
	.uleb128 0
.LLSDACSE2549:
	.text
	.size	_ZN9container7details11index_checkEll, .-_ZN9container7details11index_checkEll
	.section	.text._ZN9container7details18tensor_base_staticIiJLl2ELl3ELl4ELl5EEED2Ev,"axG",@progbits,_ZN9container7details18tensor_base_staticIiJLl2ELl3ELl4ELl5EEED5Ev,comdat
	.align 2
	.weak	_ZN9container7details18tensor_base_staticIiJLl2ELl3ELl4ELl5EEED2Ev
	.type	_ZN9container7details18tensor_base_staticIiJLl2ELl3ELl4ELl5EEED2Ev, @function
_ZN9container7details18tensor_base_staticIiJLl2ELl3ELl4ELl5EEED2Ev:
.LFB2560:
	.loc 3 39 15
	.cfi_startproc
	pushq	%rbp	#
	.cfi_def_cfa_offset 16
	.cfi_offset 6, -16
	movq	%rsp, %rbp	#,
	.cfi_def_cfa_register 6
	subq	$16, %rsp	#,
	movq	%rdi, -8(%rbp)	# this, this
.LBB2:
# Tensor.hpp:39:         class tensor_base_static
	.loc 3 39 15
	movq	-8(%rbp), %rax	# this, tmp84
	addq	$24, %rax	#, _1
	movq	%rax, %rdi	# _1,
	call	_ZNSt6vectorIlSaIlEED1Ev	#
	movq	-8(%rbp), %rax	# this, _2
	movq	%rax, %rdi	# _2,
	call	_ZNSt6vectorIiSaIiEED1Ev	#
.LBE2:
	nop	
	leave	
	.cfi_def_cfa 7, 8
	ret	
	.cfi_endproc
.LFE2560:
	.size	_ZN9container7details18tensor_base_staticIiJLl2ELl3ELl4ELl5EEED2Ev, .-_ZN9container7details18tensor_base_staticIiJLl2ELl3ELl4ELl5EEED2Ev
	.weak	_ZN9container7details18tensor_base_staticIiJLl2ELl3ELl4ELl5EEED1Ev
	.set	_ZN9container7details18tensor_base_staticIiJLl2ELl3ELl4ELl5EEED1Ev,_ZN9container7details18tensor_base_staticIiJLl2ELl3ELl4ELl5EEED2Ev
	.text
	.globl	main
	.type	main, @function
main:
.LFB2558:
	.file 4 "Application.cpp"
	.loc 4 10 1
	.cfi_startproc
	.cfi_personality 0x9b,DW.ref.__gxx_personality_v0
	.cfi_lsda 0x1b,.LLSDA2558
	pushq	%rbp	#
	.cfi_def_cfa_offset 16
	.cfi_offset 6, -16
	movq	%rsp, %rbp	#,
	.cfi_def_cfa_register 6
	pushq	%rbx	#
	subq	$72, %rsp	#,
	.cfi_offset 3, -24
	movl	%edi, -68(%rbp)	# argc, argc
	movq	%rsi, -80(%rbp)	# argv, argv
# Application.cpp:12:     tensor<int, 2, 3, 4, 5> t{};
	.loc 4 12 31
	leaq	-64(%rbp), %rax	#, tmp89
	movq	%rax, %rdi	# tmp89,
.LEHB2:
	call	_ZN9container7details18tensor_base_staticIiJLl2ELl3ELl4ELl5EEEC1Ev	#
.LEHE2:
# Application.cpp:14:     t._data[11] = 1111;
	.loc 4 14 15
	leaq	-64(%rbp), %rax	#, tmp90
	movl	$11, %esi	#,
	movq	%rax, %rdi	# tmp90,
	call	_ZNSt6vectorIiSaIiEEixEm	#
# Application.cpp:14:     t._data[11] = 1111;
	.loc 4 14 17
	movl	$1111, (%rax)	#, *_1
# Application.cpp:16:     std::cout << t(-2, 0, 2, 1) << '\n';
	.loc 4 16 19
	leaq	-64(%rbp), %rax	#, tmp91
	movl	$1, %r8d	#,
	movl	$2, %ecx	#,
	movl	$0, %edx	#,
	movl	$-2, %esi	#,
	movq	%rax, %rdi	# tmp91,
.LEHB3:
	call	_ZN9container7details18tensor_base_staticIiJLl2ELl3ELl4ELl5EEEclIJiiiiEEERiDpT_	#
# Application.cpp:16:     std::cout << t(-2, 0, 2, 1) << '\n';
	.loc 4 16 36
	movl	(%rax), %eax	# *_2, _3
	movl	%eax, %esi	# _3,
	leaq	_ZSt4cout(%rip), %rax	#, tmp92
	movq	%rax, %rdi	# tmp92,
	call	_ZNSolsEi@PLT	#
# Application.cpp:16:     std::cout << t(-2, 0, 2, 1) << '\n';
	.loc 4 16 36 is_stmt 0 discriminator 1
	movl	$10, %esi	#,
	movq	%rax, %rdi	# _4,
	call	_ZStlsISt11char_traitsIcEERSt13basic_ostreamIcT_ES5_c@PLT	#
.LEHE3:
# Application.cpp:18:     return 0;
	.loc 4 18 12 is_stmt 1
	movl	$0, %ebx	#, _16
# Application.cpp:19: }
	.loc 4 19 1
	leaq	-64(%rbp), %rax	#, tmp93
	movq	%rax, %rdi	# tmp93,
	call	_ZN9container7details18tensor_base_staticIiJLl2ELl3ELl4ELl5EEED1Ev	#
	movl	%ebx, %eax	# _16, <retval>
	jmp	.L19	#
.L18:
	movq	%rax, %rbx	#, tmp96
	leaq	-64(%rbp), %rax	#, tmp95
	movq	%rax, %rdi	# tmp95,
	call	_ZN9container7details18tensor_base_staticIiJLl2ELl3ELl4ELl5EEED1Ev	#
	movq	%rbx, %rax	# tmp96, D.66170
	movq	%rax, %rdi	# D.66170,
.LEHB4:
	call	_Unwind_Resume@PLT	#
.LEHE4:
.L19:
	movq	-8(%rbp), %rbx	#,
	leave	
	.cfi_def_cfa 7, 8
	ret	
	.cfi_endproc
.LFE2558:
	.section	.gcc_except_table
.LLSDA2558:
	.byte	0xff
	.byte	0xff
	.byte	0x1
	.uleb128 .LLSDACSE2558-.LLSDACSB2558
.LLSDACSB2558:
	.uleb128 .LEHB2-.LFB2558
	.uleb128 .LEHE2-.LEHB2
	.uleb128 0
	.uleb128 0
	.uleb128 .LEHB3-.LFB2558
	.uleb128 .LEHE3-.LEHB3
	.uleb128 .L18-.LFB2558
	.uleb128 0
	.uleb128 .LEHB4-.LFB2558
	.uleb128 .LEHE4-.LEHB4
	.uleb128 0
	.uleb128 0
.LLSDACSE2558:
	.text
	.size	main, .-main
	.section	.text._ZNSt12_Vector_baseIiSaIiEE12_Vector_implD2Ev,"axG",@progbits,_ZNSt12_Vector_baseIiSaIiEE12_Vector_implD5Ev,comdat
	.align 2
	.weak	_ZNSt12_Vector_baseIiSaIiEE12_Vector_implD2Ev
	.type	_ZNSt12_Vector_baseIiSaIiEE12_Vector_implD2Ev, @function
_ZNSt12_Vector_baseIiSaIiEE12_Vector_implD2Ev:
.LFB2830:
	.file 5 "/usr/include/c++/12/bits/stl_vector.h"
	.loc 5 133 14
	.cfi_startproc
	pushq	%rbp	#
	.cfi_def_cfa_offset 16
	.cfi_offset 6, -16
	movq	%rsp, %rbp	#,
	.cfi_def_cfa_register 6
	subq	$16, %rsp	#,
	movq	%rdi, -8(%rbp)	# this, this
.LBB3:
# /usr/include/c++/12/bits/stl_vector.h:133:       struct _Vector_impl
	.loc 5 133 14
	movq	-8(%rbp), %rax	# this, tmp82
	movq	%rax, %rdi	# tmp82,
	call	_ZNSaIiED2Ev	#
.LBE3:
	nop	
	leave	
	.cfi_def_cfa 7, 8
	ret	
	.cfi_endproc
.LFE2830:
	.size	_ZNSt12_Vector_baseIiSaIiEE12_Vector_implD2Ev, .-_ZNSt12_Vector_baseIiSaIiEE12_Vector_implD2Ev
	.weak	_ZNSt12_Vector_baseIiSaIiEE12_Vector_implD1Ev
	.set	_ZNSt12_Vector_baseIiSaIiEE12_Vector_implD1Ev,_ZNSt12_Vector_baseIiSaIiEE12_Vector_implD2Ev
	.section	.text._ZNSt12_Vector_baseIiSaIiEEC2Ev,"axG",@progbits,_ZNSt12_Vector_baseIiSaIiEEC5Ev,comdat
	.align 2
	.weak	_ZNSt12_Vector_baseIiSaIiEEC2Ev
	.type	_ZNSt12_Vector_baseIiSaIiEEC2Ev, @function
_ZNSt12_Vector_baseIiSaIiEEC2Ev:
.LFB2832:
	.loc 5 312 7
	.cfi_startproc
	pushq	%rbp	#
	.cfi_def_cfa_offset 16
	.cfi_offset 6, -16
	movq	%rsp, %rbp	#,
	.cfi_def_cfa_register 6
	subq	$16, %rsp	#,
	movq	%rdi, -8(%rbp)	# this, this
.LBB4:
# /usr/include/c++/12/bits/stl_vector.h:312:       _Vector_base() = default;
	.loc 5 312 7
	movq	-8(%rbp), %rax	# this, _1
	movq	%rax, %rdi	# _1,
	call	_ZNSt12_Vector_baseIiSaIiEE12_Vector_implC1Ev	#
.LBE4:
	nop	
	leave	
	.cfi_def_cfa 7, 8
	ret	
	.cfi_endproc
.LFE2832:
	.size	_ZNSt12_Vector_baseIiSaIiEEC2Ev, .-_ZNSt12_Vector_baseIiSaIiEEC2Ev
	.weak	_ZNSt12_Vector_baseIiSaIiEEC1Ev
	.set	_ZNSt12_Vector_baseIiSaIiEEC1Ev,_ZNSt12_Vector_baseIiSaIiEEC2Ev
	.section	.text._ZNSt6vectorIiSaIiEEC2Ev,"axG",@progbits,_ZNSt6vectorIiSaIiEEC5Ev,comdat
	.align 2
	.weak	_ZNSt6vectorIiSaIiEEC2Ev
	.type	_ZNSt6vectorIiSaIiEEC2Ev, @function
_ZNSt6vectorIiSaIiEEC2Ev:
.LFB2834:
	.loc 5 526 7
	.cfi_startproc
	pushq	%rbp	#
	.cfi_def_cfa_offset 16
	.cfi_offset 6, -16
	movq	%rsp, %rbp	#,
	.cfi_def_cfa_register 6
	subq	$16, %rsp	#,
	movq	%rdi, -8(%rbp)	# this, this
.LBB5:
# /usr/include/c++/12/bits/stl_vector.h:526:       vector() = default;
	.loc 5 526 7
	movq	-8(%rbp), %rax	# this, _1
	movq	%rax, %rdi	# _1,
	call	_ZNSt12_Vector_baseIiSaIiEEC2Ev	#
.LBE5:
	nop	
	leave	
	.cfi_def_cfa 7, 8
	ret	
	.cfi_endproc
.LFE2834:
	.size	_ZNSt6vectorIiSaIiEEC2Ev, .-_ZNSt6vectorIiSaIiEEC2Ev
	.weak	_ZNSt6vectorIiSaIiEEC1Ev
	.set	_ZNSt6vectorIiSaIiEEC1Ev,_ZNSt6vectorIiSaIiEEC2Ev
	.section	.text._ZZN9container7details18tensor_base_staticIiJLl2ELl3ELl4ELl5EEEC4EvENKUliE_clEi,"axG",@progbits,_ZZN9container7details18tensor_base_staticIiJLl2ELl3ELl4ELl5EEEC4EvENKUliE_clEi,comdat
	.align 2
	.weak	_ZZN9container7details18tensor_base_staticIiJLl2ELl3ELl4ELl5EEEC4EvENKUliE_clEi
	.type	_ZZN9container7details18tensor_base_staticIiJLl2ELl3ELl4ELl5EEEC4EvENKUliE_clEi, @function
_ZZN9container7details18tensor_base_staticIiJLl2ELl3ELl4ELl5EEEC4EvENKUliE_clEi:
.LFB2836:
	.loc 3 45 59
	.cfi_startproc
	pushq	%rbp	#
	.cfi_def_cfa_offset 16
	.cfi_offset 6, -16
	movq	%rsp, %rbp	#,
	.cfi_def_cfa_register 6
	movq	%rdi, -8(%rbp)	# __closure, __closure
	movl	%esi, -12(%rbp)	# size, size
# Tensor.hpp:45:                 std::for_each(_dims.begin(), _dims.end(), [&](int size)
	.loc 3 45 59
	movq	-8(%rbp), %rax	# __closure, tmp87
	movq	(%rax), %rax	# __closure_7(D)->__size_1d, _1
# Tensor.hpp:46:                               { size_1d *= size; }); // exception: dim <= 0
	.loc 3 46 41
	movq	(%rax), %rcx	# *_1, _2
# Tensor.hpp:46:                               { size_1d *= size; }); // exception: dim <= 0
	.loc 3 46 44
	movl	-12(%rbp), %eax	# size, tmp88
	movslq	%eax, %rdx	# tmp88, _3
# Tensor.hpp:45:                 std::for_each(_dims.begin(), _dims.end(), [&](int size)
	.loc 3 45 59
	movq	-8(%rbp), %rax	# __closure, tmp89
	movq	(%rax), %rax	# __closure_7(D)->__size_1d, _4
# Tensor.hpp:46:                               { size_1d *= size; }); // exception: dim <= 0
	.loc 3 46 41
	imulq	%rcx, %rdx	# _2, _5
	movq	%rdx, (%rax)	# _5, *_4
# Tensor.hpp:45:                 std::for_each(_dims.begin(), _dims.end(), [&](int size)
	.loc 3 45 59
	nop	
	popq	%rbp	#
	.cfi_def_cfa 7, 8
	ret	
	.cfi_endproc
.LFE2836:
	.size	_ZZN9container7details18tensor_base_staticIiJLl2ELl3ELl4ELl5EEEC4EvENKUliE_clEi, .-_ZZN9container7details18tensor_base_staticIiJLl2ELl3ELl4ELl5EEEC4EvENKUliE_clEi
	.section	.text._ZN9container7details18tensor_base_staticIiJLl2ELl3ELl4ELl5EEEC2Ev,"axG",@progbits,_ZN9container7details18tensor_base_staticIiJLl2ELl3ELl4ELl5EEEC5Ev,comdat
	.align 2
	.weak	_ZN9container7details18tensor_base_staticIiJLl2ELl3ELl4ELl5EEEC2Ev
	.type	_ZN9container7details18tensor_base_staticIiJLl2ELl3ELl4ELl5EEEC2Ev, @function
_ZN9container7details18tensor_base_staticIiJLl2ELl3ELl4ELl5EEEC2Ev:
.LFB2837:
	.loc 3 42 13
	.cfi_startproc
	.cfi_personality 0x9b,DW.ref.__gxx_personality_v0
	.cfi_lsda 0x1b,.LLSDA2837
	pushq	%rbp	#
	.cfi_def_cfa_offset 16
	.cfi_offset 6, -16
	movq	%rsp, %rbp	#,
	.cfi_def_cfa_register 6
	pushq	%r13	#
	pushq	%r12	#
	pushq	%rbx	#
	subq	$40, %rsp	#,
	.cfi_offset 13, -24
	.cfi_offset 12, -32
	.cfi_offset 3, -40
	movq	%rdi, -56(%rbp)	# this, this
.LBB6:
# Tensor.hpp:43:             {
	.loc 3 43 13
	movq	-56(%rbp), %rax	# this, _1
	movq	%rax, %rdi	# _1,
	call	_ZNSt6vectorIiSaIiEEC1Ev	#
	movq	-56(%rbp), %rax	# this, tmp97
	leaq	24(%rax), %rbx	#, _2
	leaq	C.1.0(%rip), %r12	#, D.61884
	movl	$4, %r13d	#, D.61884
	leaq	-33(%rbp), %rax	#, tmp98
	movq	%rax, %rdi	# tmp98,
	call	_ZNSaIlEC1Ev	#
	leaq	-33(%rbp), %rax	#, tmp99
	movq	%r12, %r8	# D.61884, tmp100
	movq	%r13, %r9	# D.61884,
	movq	%r12, %rsi	# D.61884, tmp101
	movq	%r13, %rdi	# D.61884,
	movq	%rdi, %rdx	#, tmp103
	movq	%rax, %rcx	# tmp99,
	movq	%r8, %rsi	# tmp102,
	movq	%rbx, %rdi	# _2,
.LEHB5:
	call	_ZNSt6vectorIlSaIlEEC1ESt16initializer_listIlERKS0_	#
.LEHE5:
# Tensor.hpp:43:             {
	.loc 3 43 13 is_stmt 0 discriminator 2
	leaq	-33(%rbp), %rax	#, tmp104
	movq	%rax, %rdi	# tmp104,
	call	_ZNSaIlED1Ev	#
.LBB7:
# Tensor.hpp:44:                 container_size_type size_1d = 1;
	.loc 3 44 37 is_stmt 1 discriminator 2
	movq	$1, -48(%rbp)	#, size_1d
# Tensor.hpp:45:                 std::for_each(_dims.begin(), _dims.end(), [&](int size)
	.loc 3 45 30 discriminator 2
	leaq	-48(%rbp), %rax	#, tmp105
	movq	%rax, %r12	# tmp105, D.65641
	movq	-56(%rbp), %rax	# this, tmp106
	addq	$24, %rax	#, _3
	movq	%rax, %rdi	# _3,
	call	_ZNSt6vectorIlSaIlEE3endEv	#
	movq	%rax, %rbx	#, D.65642
	movq	-56(%rbp), %rax	# this, tmp107
	addq	$24, %rax	#, _4
	movq	%rax, %rdi	# _4,
	call	_ZNSt6vectorIlSaIlEE5beginEv	#
	movq	%r12, %rdx	# D.65641,
	movq	%rbx, %rsi	# D.65642,
	movq	%rax, %rdi	# D.65643,
	call	_ZSt8for_eachIN9__gnu_cxx17__normal_iteratorIPlSt6vectorIlSaIlEEEEZN9container7details18tensor_base_staticIiJLl2ELl3ELl4ELl5EEEC4EvEUliE_ET0_T_SD_SC_	#
# Tensor.hpp:47:                 _data.resize(size_1d);               // exception: bad_alloc
	.loc 3 47 29 discriminator 2
	movq	-56(%rbp), %rax	# this, _5
	movq	-48(%rbp), %rdx	# size_1d, size_1d.2_6
	movq	%rdx, %rsi	# size_1d.3_7,
	movq	%rax, %rdi	# _5,
.LEHB6:
	call	_ZNSt6vectorIiSaIiEE6resizeEm	#
.LEHE6:
.LBE7:
.LBE6:
# Tensor.hpp:48:             }
	.loc 3 48 13
	jmp	.L30	#
.L28:
.LBB8:
# Tensor.hpp:43:             {
	.loc 3 43 13
	movq	%rax, %rbx	#, tmp110
	leaq	-33(%rbp), %rax	#, tmp108
	movq	%rax, %rdi	# tmp108,
	call	_ZNSaIlED1Ev	#
	jmp	.L26	#
.L29:
# Tensor.hpp:48:             }
	.loc 3 48 13
	movq	%rax, %rbx	#, tmp114
	movq	-56(%rbp), %rax	# this, tmp113
	addq	$24, %rax	#, _8
	movq	%rax, %rdi	# _8,
	call	_ZNSt6vectorIlSaIlEED1Ev	#
.L26:
	movq	-56(%rbp), %rax	# this, _9
	movq	%rax, %rdi	# _9,
	call	_ZNSt6vectorIiSaIiEED1Ev	#
	movq	%rbx, %rax	# tmp109, D.66171
	movq	%rax, %rdi	# D.66171,
.LEHB7:
	call	_Unwind_Resume@PLT	#
.LEHE7:
.L30:
.LBE8:
	addq	$40, %rsp	#,
	popq	%rbx	#
	popq	%r12	#
	popq	%r13	#
	popq	%rbp	#
	.cfi_def_cfa 7, 8
	ret	
	.cfi_endproc
.LFE2837:
	.section	.gcc_except_table
.LLSDA2837:
	.byte	0xff
	.byte	0xff
	.byte	0x1
	.uleb128 .LLSDACSE2837-.LLSDACSB2837
.LLSDACSB2837:
	.uleb128 .LEHB5-.LFB2837
	.uleb128 .LEHE5-.LEHB5
	.uleb128 .L28-.LFB2837
	.uleb128 0
	.uleb128 .LEHB6-.LFB2837
	.uleb128 .LEHE6-.LEHB6
	.uleb128 .L29-.LFB2837
	.uleb128 0
	.uleb128 .LEHB7-.LFB2837
	.uleb128 .LEHE7-.LEHB7
	.uleb128 0
	.uleb128 0
.LLSDACSE2837:
	.section	.text._ZN9container7details18tensor_base_staticIiJLl2ELl3ELl4ELl5EEEC2Ev,"axG",@progbits,_ZN9container7details18tensor_base_staticIiJLl2ELl3ELl4ELl5EEEC5Ev,comdat
	.size	_ZN9container7details18tensor_base_staticIiJLl2ELl3ELl4ELl5EEEC2Ev, .-_ZN9container7details18tensor_base_staticIiJLl2ELl3ELl4ELl5EEEC2Ev
	.weak	_ZN9container7details18tensor_base_staticIiJLl2ELl3ELl4ELl5EEEC1Ev
	.set	_ZN9container7details18tensor_base_staticIiJLl2ELl3ELl4ELl5EEEC1Ev,_ZN9container7details18tensor_base_staticIiJLl2ELl3ELl4ELl5EEEC2Ev
	.section	.text._ZNSt6vectorIiSaIiEED2Ev,"axG",@progbits,_ZNSt6vectorIiSaIiEED5Ev,comdat
	.align 2
	.weak	_ZNSt6vectorIiSaIiEED2Ev
	.type	_ZNSt6vectorIiSaIiEED2Ev, @function
_ZNSt6vectorIiSaIiEED2Ev:
.LFB2840:
	.loc 5 728 7
	.cfi_startproc
	.cfi_personality 0x9b,DW.ref.__gxx_personality_v0
	.cfi_lsda 0x1b,.LLSDA2840
	pushq	%rbp	#
	.cfi_def_cfa_offset 16
	.cfi_offset 6, -16
	movq	%rsp, %rbp	#,
	.cfi_def_cfa_register 6
	subq	$16, %rsp	#,
	movq	%rdi, -8(%rbp)	# this, this
.LBB9:
# /usr/include/c++/12/bits/stl_vector.h:731: 		      _M_get_Tp_allocator());
	.loc 5 731 28
	movq	-8(%rbp), %rax	# this, _1
	movq	%rax, %rdi	# _1,
	call	_ZNSt12_Vector_baseIiSaIiEE19_M_get_Tp_allocatorEv	#
	movq	%rax, %rdx	#, _2
# /usr/include/c++/12/bits/stl_vector.h:730: 	std::_Destroy(this->_M_impl._M_start, this->_M_impl._M_finish,
	.loc 5 730 15
	movq	-8(%rbp), %rax	# this, tmp87
	movq	8(%rax), %rcx	# this_6(D)->D.58502._M_impl.D.57841._M_finish, _3
	movq	-8(%rbp), %rax	# this, tmp88
	movq	(%rax), %rax	# this_6(D)->D.58502._M_impl.D.57841._M_start, _4
	movq	%rcx, %rsi	# _3,
	movq	%rax, %rdi	# _4,
	call	_ZSt8_DestroyIPiiEvT_S1_RSaIT0_E	#
# /usr/include/c++/12/bits/stl_vector.h:733:       }
	.loc 5 733 7
	movq	-8(%rbp), %rax	# this, _5
	movq	%rax, %rdi	# _5,
	call	_ZNSt12_Vector_baseIiSaIiEED2Ev	#
.LBE9:
	nop	
	leave	
	.cfi_def_cfa 7, 8
	ret	
	.cfi_endproc
.LFE2840:
	.section	.gcc_except_table
.LLSDA2840:
	.byte	0xff
	.byte	0xff
	.byte	0x1
	.uleb128 .LLSDACSE2840-.LLSDACSB2840
.LLSDACSB2840:
.LLSDACSE2840:
	.section	.text._ZNSt6vectorIiSaIiEED2Ev,"axG",@progbits,_ZNSt6vectorIiSaIiEED5Ev,comdat
	.size	_ZNSt6vectorIiSaIiEED2Ev, .-_ZNSt6vectorIiSaIiEED2Ev
	.weak	_ZNSt6vectorIiSaIiEED1Ev
	.set	_ZNSt6vectorIiSaIiEED1Ev,_ZNSt6vectorIiSaIiEED2Ev
	.section	.text._ZNSt6vectorIlSaIlEED2Ev,"axG",@progbits,_ZNSt6vectorIlSaIlEED5Ev,comdat
	.align 2
	.weak	_ZNSt6vectorIlSaIlEED2Ev
	.type	_ZNSt6vectorIlSaIlEED2Ev, @function
_ZNSt6vectorIlSaIlEED2Ev:
.LFB2843:
	.loc 5 728 7
	.cfi_startproc
	.cfi_personality 0x9b,DW.ref.__gxx_personality_v0
	.cfi_lsda 0x1b,.LLSDA2843
	pushq	%rbp	#
	.cfi_def_cfa_offset 16
	.cfi_offset 6, -16
	movq	%rsp, %rbp	#,
	.cfi_def_cfa_register 6
	subq	$16, %rsp	#,
	movq	%rdi, -8(%rbp)	# this, this
.LBB10:
# /usr/include/c++/12/bits/stl_vector.h:731: 		      _M_get_Tp_allocator());
	.loc 5 731 28
	movq	-8(%rbp), %rax	# this, _1
	movq	%rax, %rdi	# _1,
	call	_ZNSt12_Vector_baseIlSaIlEE19_M_get_Tp_allocatorEv	#
	movq	%rax, %rdx	#, _2
# /usr/include/c++/12/bits/stl_vector.h:730: 	std::_Destroy(this->_M_impl._M_start, this->_M_impl._M_finish,
	.loc 5 730 15
	movq	-8(%rbp), %rax	# this, tmp87
	movq	8(%rax), %rcx	# this_6(D)->D.57391._M_impl.D.56703._M_finish, _3
	movq	-8(%rbp), %rax	# this, tmp88
	movq	(%rax), %rax	# this_6(D)->D.57391._M_impl.D.56703._M_start, _4
	movq	%rcx, %rsi	# _3,
	movq	%rax, %rdi	# _4,
	call	_ZSt8_DestroyIPllEvT_S1_RSaIT0_E	#
# /usr/include/c++/12/bits/stl_vector.h:733:       }
	.loc 5 733 7
	movq	-8(%rbp), %rax	# this, _5
	movq	%rax, %rdi	# _5,
	call	_ZNSt12_Vector_baseIlSaIlEED2Ev	#
.LBE10:
	nop	
	leave	
	.cfi_def_cfa 7, 8
	ret	
	.cfi_endproc
.LFE2843:
	.section	.gcc_except_table
.LLSDA2843:
	.byte	0xff
	.byte	0xff
	.byte	0x1
	.uleb128 .LLSDACSE2843-.LLSDACSB2843
.LLSDACSB2843:
.LLSDACSE2843:
	.section	.text._ZNSt6vectorIlSaIlEED2Ev,"axG",@progbits,_ZNSt6vectorIlSaIlEED5Ev,comdat
	.size	_ZNSt6vectorIlSaIlEED2Ev, .-_ZNSt6vectorIlSaIlEED2Ev
	.weak	_ZNSt6vectorIlSaIlEED1Ev
	.set	_ZNSt6vectorIlSaIlEED1Ev,_ZNSt6vectorIlSaIlEED2Ev
	.section	.text._ZNSt6vectorIiSaIiEEixEm,"axG",@progbits,_ZNSt6vectorIiSaIiEEixEm,comdat
	.align 2
	.weak	_ZNSt6vectorIiSaIiEEixEm
	.type	_ZNSt6vectorIiSaIiEEixEm, @function
_ZNSt6vectorIiSaIiEEixEm:
.LFB2845:
	.loc 5 1121 7
	.cfi_startproc
	pushq	%rbp	#
	.cfi_def_cfa_offset 16
	.cfi_offset 6, -16
	movq	%rsp, %rbp	#,
	.cfi_def_cfa_register 6
	movq	%rdi, -8(%rbp)	# this, this
	movq	%rsi, -16(%rbp)	# __n, __n
# /usr/include/c++/12/bits/stl_vector.h:1124: 	return *(this->_M_impl._M_start + __n);
	.loc 5 1124 25
	movq	-8(%rbp), %rax	# this, tmp86
	movq	(%rax), %rax	# this_4(D)->D.58502._M_impl.D.57841._M_start, _1
# /usr/include/c++/12/bits/stl_vector.h:1124: 	return *(this->_M_impl._M_start + __n);
	.loc 5 1124 34
	movq	-16(%rbp), %rdx	# __n, tmp87
	salq	$2, %rdx	#, _2
# /usr/include/c++/12/bits/stl_vector.h:1124: 	return *(this->_M_impl._M_start + __n);
	.loc 5 1124 39
	addq	%rdx, %rax	# _2, _6
# /usr/include/c++/12/bits/stl_vector.h:1125:       }
	.loc 5 1125 7
	popq	%rbp	#
	.cfi_def_cfa 7, 8
	ret	
	.cfi_endproc
.LFE2845:
	.size	_ZNSt6vectorIiSaIiEEixEm, .-_ZNSt6vectorIiSaIiEEixEm
	.section	.rodata
.LC1:
	.string	"Too many arguments."
	.section	.text._ZN9container7details18tensor_base_staticIiJLl2ELl3ELl4ELl5EEEclIJiiiiEEERiDpT_,"axG",@progbits,_ZN9container7details18tensor_base_staticIiJLl2ELl3ELl4ELl5EEEclIJiiiiEEERiDpT_,comdat
	.align 2
	.weak	_ZN9container7details18tensor_base_staticIiJLl2ELl3ELl4ELl5EEEclIJiiiiEEERiDpT_
	.type	_ZN9container7details18tensor_base_staticIiJLl2ELl3ELl4ELl5EEEclIJiiiiEEERiDpT_, @function
_ZN9container7details18tensor_base_staticIiJLl2ELl3ELl4ELl5EEEclIJiiiiEEERiDpT_:
.LFB2846:
	.loc 3 71 24
	.cfi_startproc
	.cfi_personality 0x9b,DW.ref.__gxx_personality_v0
	.cfi_lsda 0x1b,.LLSDA2846
	pushq	%rbp	#
	.cfi_def_cfa_offset 16
	.cfi_offset 6, -16
	movq	%rsp, %rbp	#,
	.cfi_def_cfa_register 6
	pushq	%r13	#
	pushq	%r12	#
	pushq	%rbx	#
	subq	$152, %rsp	#,
	.cfi_offset 13, -24
	.cfi_offset 12, -32
	.cfi_offset 3, -40
	movq	%rdi, -152(%rbp)	# this, this
	movl	%esi, -156(%rbp)	# indices#0, indices#0
	movl	%edx, -160(%rbp)	# indices#1, indices#1
	movl	%ecx, -164(%rbp)	# indices#2, indices#2
	movl	%r8d, -168(%rbp)	# indices#3, indices#3
# Tensor.hpp:74:                 std::vector<container_size_type> index_list{indices...};
	.loc 3 74 61
	movl	-156(%rbp), %eax	# indices#0, tmp112
	cltq
# Tensor.hpp:74:                 std::vector<container_size_type> index_list{indices...};
	.loc 3 74 50
	movq	%rax, -112(%rbp)	# _1, D.61932[0]
# Tensor.hpp:74:                 std::vector<container_size_type> index_list{indices...};
	.loc 3 74 61
	movl	-160(%rbp), %eax	# indices#1, tmp113
	cltq
# Tensor.hpp:74:                 std::vector<container_size_type> index_list{indices...};
	.loc 3 74 50
	movq	%rax, -104(%rbp)	# _2, D.61932[1]
# Tensor.hpp:74:                 std::vector<container_size_type> index_list{indices...};
	.loc 3 74 61
	movl	-164(%rbp), %eax	# indices#2, tmp114
	cltq
# Tensor.hpp:74:                 std::vector<container_size_type> index_list{indices...};
	.loc 3 74 50
	movq	%rax, -96(%rbp)	# _3, D.61932[2]
# Tensor.hpp:74:                 std::vector<container_size_type> index_list{indices...};
	.loc 3 74 61
	movl	-168(%rbp), %eax	# indices#3, tmp115
	cltq
# Tensor.hpp:74:                 std::vector<container_size_type> index_list{indices...};
	.loc 3 74 50
	movq	%rax, -88(%rbp)	# _4, D.61932[3]
	leaq	-112(%rbp), %rax	#, tmp116
	movq	%rax, %r12	# tmp116, D.61933
	movl	$4, %r13d	#, D.61933
	leaq	-65(%rbp), %rax	#, tmp117
	movq	%rax, %rdi	# tmp117,
	call	_ZNSaIlEC1Ev	#
	leaq	-65(%rbp), %rdx	#, tmp118
	movq	%r12, %rsi	# D.61933, tmp119
	movq	%r13, %rdi	# D.61933,
	movq	%r12, %rcx	# D.61933, tmp120
	movq	%r13, %rbx	# D.61933,
	movq	%rbx, %rdi	#, tmp122
	leaq	-144(%rbp), %rax	#, tmp123
	movq	%rdx, %rcx	# tmp118,
	movq	%rdi, %rdx	# tmp122,
	movq	%rax, %rdi	# tmp123,
.LEHB8:
	call	_ZNSt6vectorIlSaIlEEC1ESt16initializer_listIlERKS0_	#
.LEHE8:
# Tensor.hpp:74:                 std::vector<container_size_type> index_list{indices...};
	.loc 3 74 50 is_stmt 0 discriminator 2
	leaq	-65(%rbp), %rax	#, tmp124
	movq	%rax, %rdi	# tmp124,
	call	_ZNSaIlED1Ev	#
# Tensor.hpp:75:                 container_size_type n_indices = index_list.size();
	.loc 3 75 64 is_stmt 1 discriminator 2
	leaq	-144(%rbp), %rax	#, tmp125
	movq	%rax, %rdi	# tmp125,
	call	_ZNKSt6vectorIlSaIlEE4sizeEv	#
# Tensor.hpp:75:                 container_size_type n_indices = index_list.size();
	.loc 3 75 37 discriminator 2
	movq	%rax, -64(%rbp)	# _5, n_indices
# Tensor.hpp:77:                 if (n_indices > this->order())
	.loc 3 77 44 discriminator 2
	movq	-152(%rbp), %rax	# this, tmp126
	movq	%rax, %rdi	# tmp126,
	call	_ZNK9container7details18tensor_base_staticIiJLl2ELl3ELl4ELl5EEE5orderEv	#
# Tensor.hpp:77:                 if (n_indices > this->order())
	.loc 3 77 31 discriminator 2
	cmpq	%rax, -64(%rbp)	# _6, n_indices
	setg	%al	#, retval.24_49
# Tensor.hpp:77:                 if (n_indices > this->order())
	.loc 3 77 17 discriminator 2
	testb	%al, %al	# retval.24_49
	je	.L36	#,
# Tensor.hpp:78:                     throw std::runtime_error("Too many arguments.");
	.loc 3 78 21
	movl	$16, %edi	#,
	call	__cxa_allocate_exception@PLT	#
	movq	%rax, %rbx	# tmp127, _71
	leaq	.LC1(%rip), %rax	#, tmp128
	movq	%rax, %rsi	# tmp128,
	movq	%rbx, %rdi	# _71,
.LEHB9:
	call	_ZNSt13runtime_errorC1EPKc@PLT	#
.LEHE9:
# Tensor.hpp:78:                     throw std::runtime_error("Too many arguments.");
	.loc 3 78 21 is_stmt 0 discriminator 2
	movq	_ZNSt13runtime_errorD1Ev@GOTPCREL(%rip), %rax	#, tmp130
	movq	%rax, %rdx	# tmp129,
	leaq	_ZTISt13runtime_error(%rip), %rax	#, tmp131
	movq	%rax, %rsi	# tmp131,
	movq	%rbx, %rdi	# _71,
.LEHB10:
	call	__cxa_throw@PLT	#
.L36:
# Tensor.hpp:80:                 container_size_type index_1d = 0;
	.loc 3 80 37 is_stmt 1
	movq	$0, -40(%rbp)	#, index_1d
# Tensor.hpp:81:                 container_size_type size_1d = this->size();
	.loc 3 81 57
	movq	-152(%rbp), %rax	# this, tmp132
	movq	%rax, %rdi	# tmp132,
	call	_ZNK9container7details18tensor_base_staticIiJLl2ELl3ELl4ELl5EEE4sizeEv	#
	movq	%rax, -48(%rbp)	# tmp133, size_1d
.LBB11:
# Tensor.hpp:83:                 if (n_indices == this->order())
	.loc 3 83 45
	movq	-152(%rbp), %rax	# this, tmp134
	movq	%rax, %rdi	# tmp134,
	call	_ZNK9container7details18tensor_base_staticIiJLl2ELl3ELl4ELl5EEE5orderEv	#
# Tensor.hpp:83:                 if (n_indices == this->order())
	.loc 3 83 31
	cmpq	%rax, -64(%rbp)	# _7, n_indices
	sete	%al	#, retval.25_54
# Tensor.hpp:83:                 if (n_indices == this->order())
	.loc 3 83 17
	testb	%al, %al	# retval.25_54
	je	.L37	#,
.LBB12:
.LBB13:
# Tensor.hpp:84:                     for (container_size_type i = 0; i < n_indices; ++i)
	.loc 3 84 46
	movq	$0, -56(%rbp)	#, i
# Tensor.hpp:84:                     for (container_size_type i = 0; i < n_indices; ++i)
	.loc 3 84 21
	jmp	.L38	#
.L39:
# Tensor.hpp:85:                         index_1d += index_check(index_list[i], _dims[i]) * (size_1d /= _dims[i]);
	.loc 3 85 48
	movq	-152(%rbp), %rax	# this, tmp135
	leaq	24(%rax), %rdx	#, _8
	movq	-56(%rbp), %rax	# i, i.26_9
	movq	%rax, %rsi	# i.26_9,
	movq	%rdx, %rdi	# _8,
	call	_ZNSt6vectorIlSaIlEEixEm	#
	movq	(%rax), %rbx	# *_10, _11
	movq	-56(%rbp), %rdx	# i, i.27_12
	leaq	-144(%rbp), %rax	#, tmp136
	movq	%rdx, %rsi	# i.27_12,
	movq	%rax, %rdi	# tmp136,
	call	_ZNSt6vectorIlSaIlEEixEm	#
	movq	(%rax), %rax	# *_13, _14
	movq	%rbx, %rsi	# _11,
	movq	%rax, %rdi	# _14,
	call	_ZN9container7details11index_checkEll	#
.LEHE10:
	movq	%rax, %rbx	#, _15
# Tensor.hpp:85:                         index_1d += index_check(index_list[i], _dims[i]) * (size_1d /= _dims[i]);
	.loc 3 85 85
	movq	-152(%rbp), %rax	# this, tmp137
	leaq	24(%rax), %rdx	#, _16
	movq	-56(%rbp), %rax	# i, i.28_17
	movq	%rax, %rsi	# i.28_17,
	movq	%rdx, %rdi	# _16,
	call	_ZNSt6vectorIlSaIlEEixEm	#
	movq	(%rax), %rcx	# *_18, _61
	movq	-48(%rbp), %rax	# size_1d, tmp140
	cqto
	idivq	%rcx	# _61
	movq	%rax, -48(%rbp)	# tmp138, size_1d
# Tensor.hpp:85:                         index_1d += index_check(index_list[i], _dims[i]) * (size_1d /= _dims[i]);
	.loc 3 85 74
	movq	%rbx, %rax	# _15, _15
	imulq	-48(%rbp), %rax	# size_1d, _15
# Tensor.hpp:85:                         index_1d += index_check(index_list[i], _dims[i]) * (size_1d /= _dims[i]);
	.loc 3 85 34
	addq	%rax, -40(%rbp)	# _63, index_1d
# Tensor.hpp:84:                     for (container_size_type i = 0; i < n_indices; ++i)
	.loc 3 84 21
	addq	$1, -56(%rbp)	#, i
.L38:
# Tensor.hpp:84:                     for (container_size_type i = 0; i < n_indices; ++i)
	.loc 3 84 55 discriminator 2
	movq	-56(%rbp), %rax	# i, tmp141
	cmpq	-64(%rbp), %rax	# n_indices, tmp141
	jl	.L39	#,
.L37:
.LBE13:
.LBE12:
.LBE11:
# Tensor.hpp:88:                 return _data[index_1d];
	.loc 3 88 29
	movq	-152(%rbp), %rax	# this, _19
	movq	-40(%rbp), %rdx	# index_1d, index_1d.29_20
	movq	%rdx, %rsi	# index_1d.29_20,
	movq	%rax, %rdi	# _19,
	call	_ZNSt6vectorIiSaIiEEixEm	#
	movq	%rax, %rbx	#, _67
# Tensor.hpp:88:                 return _data[index_1d];
	.loc 3 88 38
	nop	
# Tensor.hpp:89:             }
	.loc 3 89 13
	leaq	-144(%rbp), %rax	#, tmp142
	movq	%rax, %rdi	# tmp142,
	call	_ZNSt6vectorIlSaIlEED1Ev	#
# Tensor.hpp:88:                 return _data[index_1d];
	.loc 3 88 38
	movq	%rbx, %rax	# _67, <retval>
	jmp	.L47	#
.L44:
# Tensor.hpp:74:                 std::vector<container_size_type> index_list{indices...};
	.loc 3 74 50
	movq	%rax, %rbx	#, tmp145
	leaq	-65(%rbp), %rax	#, tmp144
	movq	%rax, %rdi	# tmp144,
	call	_ZNSaIlED1Ev	#
	movq	%rbx, %rax	# tmp145, D.66172
	movq	%rax, %rdi	# D.66172,
.LEHB11:
	call	_Unwind_Resume@PLT	#
.L45:
# Tensor.hpp:78:                     throw std::runtime_error("Too many arguments.");
	.loc 3 78 21
	movq	%rax, %r12	#, tmp147
	movq	%rbx, %rdi	# _71,
	call	__cxa_free_exception@PLT	#
	movq	%r12, %rbx	# tmp147, tmp146
	jmp	.L43	#
.L46:
# Tensor.hpp:89:             }
	.loc 3 89 13
	movq	%rax, %rbx	#, tmp146
.L43:
	leaq	-144(%rbp), %rax	#, tmp150
	movq	%rax, %rdi	# tmp150,
	call	_ZNSt6vectorIlSaIlEED1Ev	#
	movq	%rbx, %rax	# tmp146, D.66173
	movq	%rax, %rdi	# D.66173,
	call	_Unwind_Resume@PLT	#
.LEHE11:
.L47:
	addq	$152, %rsp	#,
	popq	%rbx	#
	popq	%r12	#
	popq	%r13	#
	popq	%rbp	#
	.cfi_def_cfa 7, 8
	ret	
	.cfi_endproc
.LFE2846:
	.section	.gcc_except_table
.LLSDA2846:
	.byte	0xff
	.byte	0xff
	.byte	0x1
	.uleb128 .LLSDACSE2846-.LLSDACSB2846
.LLSDACSB2846:
	.uleb128 .LEHB8-.LFB2846
	.uleb128 .LEHE8-.LEHB8
	.uleb128 .L44-.LFB2846
	.uleb128 0
	.uleb128 .LEHB9-.LFB2846
	.uleb128 .LEHE9-.LEHB9
	.uleb128 .L45-.LFB2846
	.uleb128 0
	.uleb128 .LEHB10-.LFB2846
	.uleb128 .LEHE10-.LEHB10
	.uleb128 .L46-.LFB2846
	.uleb128 0
	.uleb128 .LEHB11-.LFB2846
	.uleb128 .LEHE11-.LEHB11
	.uleb128 0
	.uleb128 0
.LLSDACSE2846:
	.section	.text._ZN9container7details18tensor_base_staticIiJLl2ELl3ELl4ELl5EEEclIJiiiiEEERiDpT_,"axG",@progbits,_ZN9container7details18tensor_base_staticIiJLl2ELl3ELl4ELl5EEEclIJiiiiEEERiDpT_,comdat
	.size	_ZN9container7details18tensor_base_staticIiJLl2ELl3ELl4ELl5EEEclIJiiiiEEERiDpT_, .-_ZN9container7details18tensor_base_staticIiJLl2ELl3ELl4ELl5EEEclIJiiiiEEERiDpT_
	.section	.text._ZNSt12_Vector_baseIiSaIiEE12_Vector_implC2Ev,"axG",@progbits,_ZNSt12_Vector_baseIiSaIiEE12_Vector_implC5Ev,comdat
	.align 2
	.weak	_ZNSt12_Vector_baseIiSaIiEE12_Vector_implC2Ev
	.type	_ZNSt12_Vector_baseIiSaIiEE12_Vector_implC2Ev, @function
_ZNSt12_Vector_baseIiSaIiEE12_Vector_implC2Ev:
.LFB2953:
	.loc 5 137 2
	.cfi_startproc
	pushq	%rbp	#
	.cfi_def_cfa_offset 16
	.cfi_offset 6, -16
	movq	%rsp, %rbp	#,
	.cfi_def_cfa_register 6
	subq	$16, %rsp	#,
	movq	%rdi, -8(%rbp)	# this, this
.LBB14:
# /usr/include/c++/12/bits/stl_vector.h:139: 	: _Tp_alloc_type()
	.loc 5 139 19
	movq	-8(%rbp), %rax	# this, tmp83
	movq	%rax, %rdi	# tmp83,
	call	_ZNSaIiEC2Ev	#
	movq	-8(%rbp), %rax	# this, _1
	movq	%rax, %rdi	# _1,
	call	_ZNSt12_Vector_baseIiSaIiEE17_Vector_impl_dataC2Ev	#
.LBE14:
# /usr/include/c++/12/bits/stl_vector.h:140: 	{ }
	.loc 5 140 4
	nop	
	leave	
	.cfi_def_cfa 7, 8
	ret	
	.cfi_endproc
.LFE2953:
	.size	_ZNSt12_Vector_baseIiSaIiEE12_Vector_implC2Ev, .-_ZNSt12_Vector_baseIiSaIiEE12_Vector_implC2Ev
	.weak	_ZNSt12_Vector_baseIiSaIiEE12_Vector_implC1Ev
	.set	_ZNSt12_Vector_baseIiSaIiEE12_Vector_implC1Ev,_ZNSt12_Vector_baseIiSaIiEE12_Vector_implC2Ev
	.section	.text._ZNSaIiED2Ev,"axG",@progbits,_ZNSaIiED5Ev,comdat
	.align 2
	.weak	_ZNSaIiED2Ev
	.type	_ZNSaIiED2Ev, @function
_ZNSaIiED2Ev:
.LFB2956:
	.file 6 "/usr/include/c++/12/bits/allocator.h"
	.loc 6 174 7
	.cfi_startproc
	pushq	%rbp	#
	.cfi_def_cfa_offset 16
	.cfi_offset 6, -16
	movq	%rsp, %rbp	#,
	.cfi_def_cfa_register 6
	subq	$16, %rsp	#,
	movq	%rdi, -8(%rbp)	# this, this
.LBB15:
# /usr/include/c++/12/bits/allocator.h:174:       ~allocator() _GLIBCXX_NOTHROW { }
	.loc 6 174 39
	movq	-8(%rbp), %rax	# this, tmp82
	movq	%rax, %rdi	# tmp82,
	call	_ZNSt15__new_allocatorIiED2Ev	#
.LBE15:
	nop	
	leave	
	.cfi_def_cfa 7, 8
	ret	
	.cfi_endproc
.LFE2956:
	.size	_ZNSaIiED2Ev, .-_ZNSaIiED2Ev
	.weak	_ZNSaIiED1Ev
	.set	_ZNSaIiED1Ev,_ZNSaIiED2Ev
	.section	.text._ZNSt12_Vector_baseIiSaIiEED2Ev,"axG",@progbits,_ZNSt12_Vector_baseIiSaIiEED5Ev,comdat
	.align 2
	.weak	_ZNSt12_Vector_baseIiSaIiEED2Ev
	.type	_ZNSt12_Vector_baseIiSaIiEED2Ev, @function
_ZNSt12_Vector_baseIiSaIiEED2Ev:
.LFB2959:
	.loc 5 364 7
	.cfi_startproc
	.cfi_personality 0x9b,DW.ref.__gxx_personality_v0
	.cfi_lsda 0x1b,.LLSDA2959
	pushq	%rbp	#
	.cfi_def_cfa_offset 16
	.cfi_offset 6, -16
	movq	%rsp, %rbp	#,
	.cfi_def_cfa_register 6
	subq	$16, %rsp	#,
	movq	%rdi, -8(%rbp)	# this, this
.LBB16:
# /usr/include/c++/12/bits/stl_vector.h:367: 		      _M_impl._M_end_of_storage - _M_impl._M_start);
	.loc 5 367 17
	movq	-8(%rbp), %rax	# this, tmp89
	movq	16(%rax), %rdx	# this_9(D)->_M_impl.D.57841._M_end_of_storage, _1
# /usr/include/c++/12/bits/stl_vector.h:367: 		      _M_impl._M_end_of_storage - _M_impl._M_start);
	.loc 5 367 45
	movq	-8(%rbp), %rax	# this, tmp90
	movq	(%rax), %rax	# this_9(D)->_M_impl.D.57841._M_start, _2
# /usr/include/c++/12/bits/stl_vector.h:367: 		      _M_impl._M_end_of_storage - _M_impl._M_start);
	.loc 5 367 35
	subq	%rax, %rdx	# _2, _3
	movq	%rdx, %rax	# _3, _3
	sarq	$2, %rax	#, _3
# /usr/include/c++/12/bits/stl_vector.h:366: 	_M_deallocate(_M_impl._M_start,
	.loc 5 366 15
	movq	%rax, %rdx	# _4, _5
	movq	-8(%rbp), %rax	# this, tmp92
	movq	(%rax), %rcx	# this_9(D)->_M_impl.D.57841._M_start, _6
	movq	-8(%rbp), %rax	# this, tmp93
	movq	%rcx, %rsi	# _6,
	movq	%rax, %rdi	# tmp93,
	call	_ZNSt12_Vector_baseIiSaIiEE13_M_deallocateEPim	#
# /usr/include/c++/12/bits/stl_vector.h:368:       }
	.loc 5 368 7
	movq	-8(%rbp), %rax	# this, _7
	movq	%rax, %rdi	# _7,
	call	_ZNSt12_Vector_baseIiSaIiEE12_Vector_implD1Ev	#
.LBE16:
	nop	
	leave	
	.cfi_def_cfa 7, 8
	ret	
	.cfi_endproc
.LFE2959:
	.section	.gcc_except_table
.LLSDA2959:
	.byte	0xff
	.byte	0xff
	.byte	0x1
	.uleb128 .LLSDACSE2959-.LLSDACSB2959
.LLSDACSB2959:
.LLSDACSE2959:
	.section	.text._ZNSt12_Vector_baseIiSaIiEED2Ev,"axG",@progbits,_ZNSt12_Vector_baseIiSaIiEED5Ev,comdat
	.size	_ZNSt12_Vector_baseIiSaIiEED2Ev, .-_ZNSt12_Vector_baseIiSaIiEED2Ev
	.weak	_ZNSt12_Vector_baseIiSaIiEED1Ev
	.set	_ZNSt12_Vector_baseIiSaIiEED1Ev,_ZNSt12_Vector_baseIiSaIiEED2Ev
	.section	.text._ZNSaIlEC2Ev,"axG",@progbits,_ZNSaIlEC5Ev,comdat
	.align 2
	.weak	_ZNSaIlEC2Ev
	.type	_ZNSaIlEC2Ev, @function
_ZNSaIlEC2Ev:
.LFB2962:
	.loc 6 156 7
	.cfi_startproc
	pushq	%rbp	#
	.cfi_def_cfa_offset 16
	.cfi_offset 6, -16
	movq	%rsp, %rbp	#,
	.cfi_def_cfa_register 6
	subq	$16, %rsp	#,
	movq	%rdi, -8(%rbp)	# this, this
.LBB17:
# /usr/include/c++/12/bits/allocator.h:156:       allocator() _GLIBCXX_NOTHROW { }
	.loc 6 156 36
	movq	-8(%rbp), %rax	# this, tmp82
	movq	%rax, %rdi	# tmp82,
	call	_ZNSt15__new_allocatorIlEC2Ev	#
.LBE17:
# /usr/include/c++/12/bits/allocator.h:156:       allocator() _GLIBCXX_NOTHROW { }
	.loc 6 156 38
	nop	
	leave	
	.cfi_def_cfa 7, 8
	ret	
	.cfi_endproc
.LFE2962:
	.size	_ZNSaIlEC2Ev, .-_ZNSaIlEC2Ev
	.weak	_ZNSaIlEC1Ev
	.set	_ZNSaIlEC1Ev,_ZNSaIlEC2Ev
	.section	.text._ZNSaIlED2Ev,"axG",@progbits,_ZNSaIlED5Ev,comdat
	.align 2
	.weak	_ZNSaIlED2Ev
	.type	_ZNSaIlED2Ev, @function
_ZNSaIlED2Ev:
.LFB2965:
	.loc 6 174 7
	.cfi_startproc
	pushq	%rbp	#
	.cfi_def_cfa_offset 16
	.cfi_offset 6, -16
	movq	%rsp, %rbp	#,
	.cfi_def_cfa_register 6
	subq	$16, %rsp	#,
	movq	%rdi, -8(%rbp)	# this, this
.LBB18:
# /usr/include/c++/12/bits/allocator.h:174:       ~allocator() _GLIBCXX_NOTHROW { }
	.loc 6 174 39
	movq	-8(%rbp), %rax	# this, tmp82
	movq	%rax, %rdi	# tmp82,
	call	_ZNSt15__new_allocatorIlED2Ev	#
.LBE18:
	nop	
	leave	
	.cfi_def_cfa 7, 8
	ret	
	.cfi_endproc
.LFE2965:
	.size	_ZNSaIlED2Ev, .-_ZNSaIlED2Ev
	.weak	_ZNSaIlED1Ev
	.set	_ZNSaIlED1Ev,_ZNSaIlED2Ev
	.section	.text._ZNSt6vectorIlSaIlEEC2ESt16initializer_listIlERKS0_,"axG",@progbits,_ZNSt6vectorIlSaIlEEC5ESt16initializer_listIlERKS0_,comdat
	.align 2
	.weak	_ZNSt6vectorIlSaIlEEC2ESt16initializer_listIlERKS0_
	.type	_ZNSt6vectorIlSaIlEEC2ESt16initializer_listIlERKS0_, @function
_ZNSt6vectorIlSaIlEEC2ESt16initializer_listIlERKS0_:
.LFB2968:
	.loc 5 673 7
	.cfi_startproc
	.cfi_personality 0x9b,DW.ref.__gxx_personality_v0
	.cfi_lsda 0x1b,.LLSDA2968
	pushq	%rbp	#
	.cfi_def_cfa_offset 16
	.cfi_offset 6, -16
	movq	%rsp, %rbp	#,
	.cfi_def_cfa_register 6
	pushq	%rbx	#
	subq	$56, %rsp	#,
	.cfi_offset 3, -24
	movq	%rdi, -40(%rbp)	# this, this
	movq	%rsi, %rax	# __l, tmp90
	movq	%rdx, %rsi	# __l, tmp91
	movq	%rsi, %rdx	# tmp91,
	movq	%rax, -64(%rbp)	# tmp89, __l
	movq	%rdx, -56(%rbp)	#, __l
	movq	%rcx, -48(%rbp)	# __a, __a
.LBB19:
# /usr/include/c++/12/bits/stl_vector.h:675:       : _Base(__a)
	.loc 5 675 18
	movq	-40(%rbp), %rax	# this, _1
	movq	-48(%rbp), %rdx	# __a, tmp92
	movq	%rdx, %rsi	# tmp92,
	movq	%rax, %rdi	# _1,
	call	_ZNSt12_Vector_baseIlSaIlEEC2ERKS0_	#
# /usr/include/c++/12/bits/stl_vector.h:677: 	_M_range_initialize(__l.begin(), __l.end(),
	.loc 5 677 21
	leaq	-64(%rbp), %rax	#, tmp93
	movq	%rax, %rdi	# tmp93,
	call	_ZNKSt16initializer_listIlE3endEv	#
	movq	%rax, %rbx	#, _3
	leaq	-64(%rbp), %rax	#, tmp94
	movq	%rax, %rdi	# tmp94,
	call	_ZNKSt16initializer_listIlE5beginEv	#
	movq	%rax, %rcx	#, _4
	movq	-40(%rbp), %rax	# this, tmp95
	movq	%rbx, %rdx	# _3,
	movq	%rcx, %rsi	# _4,
	movq	%rax, %rdi	# tmp95,
.LEHB12:
	call	_ZNSt6vectorIlSaIlEE19_M_range_initializeIPKlEEvT_S5_St20forward_iterator_tag	#
.LEHE12:
.LBE19:
# /usr/include/c++/12/bits/stl_vector.h:679:       }
	.loc 5 679 7
	jmp	.L56	#
.L55:
.LBB20:
	movq	%rax, %rbx	#, tmp96
	movq	-40(%rbp), %rax	# this, _5
	movq	%rax, %rdi	# _5,
	call	_ZNSt12_Vector_baseIlSaIlEED2Ev	#
	movq	%rbx, %rax	# tmp96, D.66176
	movq	%rax, %rdi	# D.66176,
.LEHB13:
	call	_Unwind_Resume@PLT	#
.LEHE13:
.L56:
.LBE20:
	movq	-8(%rbp), %rbx	#,
	leave	
	.cfi_def_cfa 7, 8
	ret	
	.cfi_endproc
.LFE2968:
	.section	.gcc_except_table
.LLSDA2968:
	.byte	0xff
	.byte	0xff
	.byte	0x1
	.uleb128 .LLSDACSE2968-.LLSDACSB2968
.LLSDACSB2968:
	.uleb128 .LEHB12-.LFB2968
	.uleb128 .LEHE12-.LEHB12
	.uleb128 .L55-.LFB2968
	.uleb128 0
	.uleb128 .LEHB13-.LFB2968
	.uleb128 .LEHE13-.LEHB13
	.uleb128 0
	.uleb128 0
.LLSDACSE2968:
	.section	.text._ZNSt6vectorIlSaIlEEC2ESt16initializer_listIlERKS0_,"axG",@progbits,_ZNSt6vectorIlSaIlEEC5ESt16initializer_listIlERKS0_,comdat
	.size	_ZNSt6vectorIlSaIlEEC2ESt16initializer_listIlERKS0_, .-_ZNSt6vectorIlSaIlEEC2ESt16initializer_listIlERKS0_
	.weak	_ZNSt6vectorIlSaIlEEC1ESt16initializer_listIlERKS0_
	.set	_ZNSt6vectorIlSaIlEEC1ESt16initializer_listIlERKS0_,_ZNSt6vectorIlSaIlEEC2ESt16initializer_listIlERKS0_
	.section	.text._ZNSt6vectorIlSaIlEE5beginEv,"axG",@progbits,_ZNSt6vectorIlSaIlEE5beginEv,comdat
	.align 2
	.weak	_ZNSt6vectorIlSaIlEE5beginEv
	.type	_ZNSt6vectorIlSaIlEE5beginEv, @function
_ZNSt6vectorIlSaIlEE5beginEv:
.LFB2970:
	.loc 5 868 7
	.cfi_startproc
	pushq	%rbp	#
	.cfi_def_cfa_offset 16
	.cfi_offset 6, -16
	movq	%rsp, %rbp	#,
	.cfi_def_cfa_register 6
	subq	$32, %rsp	#,
	movq	%rdi, -24(%rbp)	# this, this
# /usr/include/c++/12/bits/stl_vector.h:869:       { return iterator(this->_M_impl._M_start); }
	.loc 5 869 39
	movq	-24(%rbp), %rdx	# this, _1
# /usr/include/c++/12/bits/stl_vector.h:869:       { return iterator(this->_M_impl._M_start); }
	.loc 5 869 16
	leaq	-8(%rbp), %rax	#, tmp85
	movq	%rdx, %rsi	# _1,
	movq	%rax, %rdi	# tmp85,
	call	_ZN9__gnu_cxx17__normal_iteratorIPlSt6vectorIlSaIlEEEC1ERKS1_	#
# /usr/include/c++/12/bits/stl_vector.h:869:       { return iterator(this->_M_impl._M_start); }
	.loc 5 869 47
	movq	-8(%rbp), %rax	# D.63284, D.65753
# /usr/include/c++/12/bits/stl_vector.h:869:       { return iterator(this->_M_impl._M_start); }
	.loc 5 869 50
	leave	
	.cfi_def_cfa 7, 8
	ret	
	.cfi_endproc
.LFE2970:
	.size	_ZNSt6vectorIlSaIlEE5beginEv, .-_ZNSt6vectorIlSaIlEE5beginEv
	.section	.text._ZNSt6vectorIlSaIlEE3endEv,"axG",@progbits,_ZNSt6vectorIlSaIlEE3endEv,comdat
	.align 2
	.weak	_ZNSt6vectorIlSaIlEE3endEv
	.type	_ZNSt6vectorIlSaIlEE3endEv, @function
_ZNSt6vectorIlSaIlEE3endEv:
.LFB2971:
	.loc 5 888 7
	.cfi_startproc
	pushq	%rbp	#
	.cfi_def_cfa_offset 16
	.cfi_offset 6, -16
	movq	%rsp, %rbp	#,
	.cfi_def_cfa_register 6
	subq	$32, %rsp	#,
	movq	%rdi, -24(%rbp)	# this, this
# /usr/include/c++/12/bits/stl_vector.h:889:       { return iterator(this->_M_impl._M_finish); }
	.loc 5 889 39
	movq	-24(%rbp), %rax	# this, tmp85
	leaq	8(%rax), %rdx	#, _1
# /usr/include/c++/12/bits/stl_vector.h:889:       { return iterator(this->_M_impl._M_finish); }
	.loc 5 889 16
	leaq	-8(%rbp), %rax	#, tmp86
	movq	%rdx, %rsi	# _1,
	movq	%rax, %rdi	# tmp86,
	call	_ZN9__gnu_cxx17__normal_iteratorIPlSt6vectorIlSaIlEEEC1ERKS1_	#
# /usr/include/c++/12/bits/stl_vector.h:889:       { return iterator(this->_M_impl._M_finish); }
	.loc 5 889 48
	movq	-8(%rbp), %rax	# D.63286, D.65750
# /usr/include/c++/12/bits/stl_vector.h:889:       { return iterator(this->_M_impl._M_finish); }
	.loc 5 889 51
	leave	
	.cfi_def_cfa 7, 8
	ret	
	.cfi_endproc
.LFE2971:
	.size	_ZNSt6vectorIlSaIlEE3endEv, .-_ZNSt6vectorIlSaIlEE3endEv
	.section	.text._ZSt8for_eachIN9__gnu_cxx17__normal_iteratorIPlSt6vectorIlSaIlEEEEZN9container7details18tensor_base_staticIiJLl2ELl3ELl4ELl5EEEC4EvEUliE_ET0_T_SD_SC_,"axG",@progbits,_ZSt8for_eachIN9__gnu_cxx17__normal_iteratorIPlSt6vectorIlSaIlEEEEZN9container7details18tensor_base_staticIiJLl2ELl3ELl4ELl5EEEC4EvEUliE_ET0_T_SD_SC_,comdat
	.weak	_ZSt8for_eachIN9__gnu_cxx17__normal_iteratorIPlSt6vectorIlSaIlEEEEZN9container7details18tensor_base_staticIiJLl2ELl3ELl4ELl5EEEC4EvEUliE_ET0_T_SD_SC_
	.type	_ZSt8for_eachIN9__gnu_cxx17__normal_iteratorIPlSt6vectorIlSaIlEEEEZN9container7details18tensor_base_staticIiJLl2ELl3ELl4ELl5EEEC4EvEUliE_ET0_T_SD_SC_, @function
_ZSt8for_eachIN9__gnu_cxx17__normal_iteratorIPlSt6vectorIlSaIlEEEEZN9container7details18tensor_base_staticIiJLl2ELl3ELl4ELl5EEEC4EvEUliE_ET0_T_SD_SC_:
.LFB2972:
	.file 7 "/usr/include/c++/12/bits/stl_algo.h"
	.loc 7 3781 5
	.cfi_startproc
	pushq	%rbp	#
	.cfi_def_cfa_offset 16
	.cfi_offset 6, -16
	movq	%rsp, %rbp	#,
	.cfi_def_cfa_register 6
	subq	$32, %rsp	#,
	movq	%rdi, -8(%rbp)	# __first, __first
	movq	%rsi, -16(%rbp)	# __last, __last
	movq	%rdx, -24(%rbp)	# __f, __f
# /usr/include/c++/12/bits/stl_algo.h:3786:       for (; __first != __last; ++__first)
	.loc 7 3786 7
	jmp	.L62	#
.L63:
# /usr/include/c++/12/bits/stl_algo.h:3787: 	__f(*__first);
	.loc 7 3787 6 discriminator 2
	leaq	-8(%rbp), %rax	#, tmp88
	movq	%rax, %rdi	# tmp88,
	call	_ZNK9__gnu_cxx17__normal_iteratorIPlSt6vectorIlSaIlEEEdeEv	#
# /usr/include/c++/12/bits/stl_algo.h:3787: 	__f(*__first);
	.loc 7 3787 5 discriminator 2
	movq	(%rax), %rax	# *_1, _2
	movl	%eax, %edx	# _2, _3
	leaq	-24(%rbp), %rax	#, tmp89
	movl	%edx, %esi	# _3,
	movq	%rax, %rdi	# tmp89,
	call	_ZZN9container7details18tensor_base_staticIiJLl2ELl3ELl4ELl5EEEC4EvENKUliE_clEi	#
# /usr/include/c++/12/bits/stl_algo.h:3786:       for (; __first != __last; ++__first)
	.loc 7 3786 33 discriminator 2
	leaq	-8(%rbp), %rax	#, tmp90
	movq	%rax, %rdi	# tmp90,
	call	_ZN9__gnu_cxx17__normal_iteratorIPlSt6vectorIlSaIlEEEppEv	#
.L62:
# /usr/include/c++/12/bits/stl_algo.h:3786:       for (; __first != __last; ++__first)
	.loc 7 3786 22 discriminator 1
	leaq	-16(%rbp), %rdx	#, tmp91
	leaq	-8(%rbp), %rax	#, tmp92
	movq	%rdx, %rsi	# tmp91,
	movq	%rax, %rdi	# tmp92,
	call	_ZN9__gnu_cxxneIPlSt6vectorIlSaIlEEEEbRKNS_17__normal_iteratorIT_T0_EESA_	#
	testb	%al, %al	# retval.11_7
	jne	.L63	#,
# /usr/include/c++/12/bits/stl_algo.h:3788:       return __f; // N.B. [alg.foreach] says std::move(f) but it's redundant.
	.loc 7 3788 14
	movq	-24(%rbp), %rax	# __f, D.65757
# /usr/include/c++/12/bits/stl_algo.h:3789:     }
	.loc 7 3789 5
	leave	
	.cfi_def_cfa 7, 8
	ret	
	.cfi_endproc
.LFE2972:
	.size	_ZSt8for_eachIN9__gnu_cxx17__normal_iteratorIPlSt6vectorIlSaIlEEEEZN9container7details18tensor_base_staticIiJLl2ELl3ELl4ELl5EEEC4EvEUliE_ET0_T_SD_SC_, .-_ZSt8for_eachIN9__gnu_cxx17__normal_iteratorIPlSt6vectorIlSaIlEEEEZN9container7details18tensor_base_staticIiJLl2ELl3ELl4ELl5EEEC4EvEUliE_ET0_T_SD_SC_
	.section	.text._ZNSt6vectorIiSaIiEE6resizeEm,"axG",@progbits,_ZNSt6vectorIiSaIiEE6resizeEm,comdat
	.align 2
	.weak	_ZNSt6vectorIiSaIiEE6resizeEm
	.type	_ZNSt6vectorIiSaIiEE6resizeEm, @function
_ZNSt6vectorIiSaIiEE6resizeEm:
.LFB2973:
	.loc 5 1008 7
	.cfi_startproc
	pushq	%rbp	#
	.cfi_def_cfa_offset 16
	.cfi_offset 6, -16
	movq	%rsp, %rbp	#,
	.cfi_def_cfa_register 6
	subq	$16, %rsp	#,
	movq	%rdi, -8(%rbp)	# this, this
	movq	%rsi, -16(%rbp)	# __new_size, __new_size
# /usr/include/c++/12/bits/stl_vector.h:1010: 	if (__new_size > size())
	.loc 5 1010 23
	movq	-8(%rbp), %rax	# this, tmp91
	movq	%rax, %rdi	# tmp91,
	call	_ZNKSt6vectorIiSaIiEE4sizeEv	#
# /usr/include/c++/12/bits/stl_vector.h:1010: 	if (__new_size > size())
	.loc 5 1010 17
	cmpq	-16(%rbp), %rax	# __new_size, _1
	setb	%al	#, retval.12_13
# /usr/include/c++/12/bits/stl_vector.h:1010: 	if (__new_size > size())
	.loc 5 1010 2
	testb	%al, %al	# retval.12_13
	je	.L66	#,
# /usr/include/c++/12/bits/stl_vector.h:1011: 	  _M_default_append(__new_size - size());
	.loc 5 1011 39
	movq	-8(%rbp), %rax	# this, tmp92
	movq	%rax, %rdi	# tmp92,
	call	_ZNKSt6vectorIiSaIiEE4sizeEv	#
# /usr/include/c++/12/bits/stl_vector.h:1011: 	  _M_default_append(__new_size - size());
	.loc 5 1011 21
	movq	-16(%rbp), %rdx	# __new_size, tmp93
	subq	%rax, %rdx	# _2, _3
	movq	-8(%rbp), %rax	# this, tmp94
	movq	%rdx, %rsi	# _3,
	movq	%rax, %rdi	# tmp94,
	call	_ZNSt6vectorIiSaIiEE17_M_default_appendEm	#
# /usr/include/c++/12/bits/stl_vector.h:1014:       }
	.loc 5 1014 7
	jmp	.L68	#
.L66:
# /usr/include/c++/12/bits/stl_vector.h:1012: 	else if (__new_size < size())
	.loc 5 1012 28
	movq	-8(%rbp), %rax	# this, tmp95
	movq	%rax, %rdi	# tmp95,
	call	_ZNKSt6vectorIiSaIiEE4sizeEv	#
# /usr/include/c++/12/bits/stl_vector.h:1012: 	else if (__new_size < size())
	.loc 5 1012 22
	cmpq	%rax, -16(%rbp)	# _4, __new_size
	setb	%al	#, retval.13_15
# /usr/include/c++/12/bits/stl_vector.h:1012: 	else if (__new_size < size())
	.loc 5 1012 7
	testb	%al, %al	# retval.13_15
	je	.L68	#,
# /usr/include/c++/12/bits/stl_vector.h:1013: 	  _M_erase_at_end(this->_M_impl._M_start + __new_size);
	.loc 5 1013 34
	movq	-8(%rbp), %rax	# this, tmp96
	movq	(%rax), %rax	# this_10(D)->D.58502._M_impl.D.57841._M_start, _5
# /usr/include/c++/12/bits/stl_vector.h:1013: 	  _M_erase_at_end(this->_M_impl._M_start + __new_size);
	.loc 5 1013 43
	movq	-16(%rbp), %rdx	# __new_size, tmp97
	salq	$2, %rdx	#, _6
# /usr/include/c++/12/bits/stl_vector.h:1013: 	  _M_erase_at_end(this->_M_impl._M_start + __new_size);
	.loc 5 1013 19
	addq	%rax, %rdx	# _5, _7
	movq	-8(%rbp), %rax	# this, tmp98
	movq	%rdx, %rsi	# _7,
	movq	%rax, %rdi	# tmp98,
	call	_ZNSt6vectorIiSaIiEE15_M_erase_at_endEPi	#
.L68:
# /usr/include/c++/12/bits/stl_vector.h:1014:       }
	.loc 5 1014 7
	nop	
	leave	
	.cfi_def_cfa 7, 8
	ret	
	.cfi_endproc
.LFE2973:
	.size	_ZNSt6vectorIiSaIiEE6resizeEm, .-_ZNSt6vectorIiSaIiEE6resizeEm
	.section	.text._ZNSt12_Vector_baseIiSaIiEE19_M_get_Tp_allocatorEv,"axG",@progbits,_ZNSt12_Vector_baseIiSaIiEE19_M_get_Tp_allocatorEv,comdat
	.align 2
	.weak	_ZNSt12_Vector_baseIiSaIiEE19_M_get_Tp_allocatorEv
	.type	_ZNSt12_Vector_baseIiSaIiEE19_M_get_Tp_allocatorEv, @function
_ZNSt12_Vector_baseIiSaIiEE19_M_get_Tp_allocatorEv:
.LFB2974:
	.loc 5 298 7
	.cfi_startproc
	pushq	%rbp	#
	.cfi_def_cfa_offset 16
	.cfi_offset 6, -16
	movq	%rsp, %rbp	#,
	.cfi_def_cfa_register 6
	movq	%rdi, -8(%rbp)	# this, this
# /usr/include/c++/12/bits/stl_vector.h:299:       { return this->_M_impl; }
	.loc 5 299 22
	movq	-8(%rbp), %rax	# this, _2
# /usr/include/c++/12/bits/stl_vector.h:299:       { return this->_M_impl; }
	.loc 5 299 31
	popq	%rbp	#
	.cfi_def_cfa 7, 8
	ret	
	.cfi_endproc
.LFE2974:
	.size	_ZNSt12_Vector_baseIiSaIiEE19_M_get_Tp_allocatorEv, .-_ZNSt12_Vector_baseIiSaIiEE19_M_get_Tp_allocatorEv
	.section	.text._ZSt8_DestroyIPiiEvT_S1_RSaIT0_E,"axG",@progbits,_ZSt8_DestroyIPiiEvT_S1_RSaIT0_E,comdat
	.weak	_ZSt8_DestroyIPiiEvT_S1_RSaIT0_E
	.type	_ZSt8_DestroyIPiiEvT_S1_RSaIT0_E, @function
_ZSt8_DestroyIPiiEvT_S1_RSaIT0_E:
.LFB2975:
	.file 8 "/usr/include/c++/12/bits/alloc_traits.h"
	.loc 8 847 5
	.cfi_startproc
	pushq	%rbp	#
	.cfi_def_cfa_offset 16
	.cfi_offset 6, -16
	movq	%rsp, %rbp	#,
	.cfi_def_cfa_register 6
	subq	$32, %rsp	#,
	movq	%rdi, -8(%rbp)	# __first, __first
	movq	%rsi, -16(%rbp)	# __last, __last
	movq	%rdx, -24(%rbp)	# D.63341, D.63341
# /usr/include/c++/12/bits/alloc_traits.h:850:       _Destroy(__first, __last);
	.loc 8 850 15
	movq	-16(%rbp), %rdx	# __last, tmp82
	movq	-8(%rbp), %rax	# __first, tmp83
	movq	%rdx, %rsi	# tmp82,
	movq	%rax, %rdi	# tmp83,
	call	_ZSt8_DestroyIPiEvT_S1_	#
# /usr/include/c++/12/bits/alloc_traits.h:851:     }
	.loc 8 851 5
	nop	
	leave	
	.cfi_def_cfa 7, 8
	ret	
	.cfi_endproc
.LFE2975:
	.size	_ZSt8_DestroyIPiiEvT_S1_RSaIT0_E, .-_ZSt8_DestroyIPiiEvT_S1_RSaIT0_E
	.section	.text._ZNSt12_Vector_baseIlSaIlEE12_Vector_implD2Ev,"axG",@progbits,_ZNSt12_Vector_baseIlSaIlEE12_Vector_implD5Ev,comdat
	.align 2
	.weak	_ZNSt12_Vector_baseIlSaIlEE12_Vector_implD2Ev
	.type	_ZNSt12_Vector_baseIlSaIlEE12_Vector_implD2Ev, @function
_ZNSt12_Vector_baseIlSaIlEE12_Vector_implD2Ev:
.LFB2978:
	.loc 5 133 14
	.cfi_startproc
	pushq	%rbp	#
	.cfi_def_cfa_offset 16
	.cfi_offset 6, -16
	movq	%rsp, %rbp	#,
	.cfi_def_cfa_register 6
	subq	$16, %rsp	#,
	movq	%rdi, -8(%rbp)	# this, this
.LBB21:
# /usr/include/c++/12/bits/stl_vector.h:133:       struct _Vector_impl
	.loc 5 133 14
	movq	-8(%rbp), %rax	# this, tmp82
	movq	%rax, %rdi	# tmp82,
	call	_ZNSaIlED2Ev	#
.LBE21:
	nop	
	leave	
	.cfi_def_cfa 7, 8
	ret	
	.cfi_endproc
.LFE2978:
	.size	_ZNSt12_Vector_baseIlSaIlEE12_Vector_implD2Ev, .-_ZNSt12_Vector_baseIlSaIlEE12_Vector_implD2Ev
	.weak	_ZNSt12_Vector_baseIlSaIlEE12_Vector_implD1Ev
	.set	_ZNSt12_Vector_baseIlSaIlEE12_Vector_implD1Ev,_ZNSt12_Vector_baseIlSaIlEE12_Vector_implD2Ev
	.section	.text._ZNSt12_Vector_baseIlSaIlEED2Ev,"axG",@progbits,_ZNSt12_Vector_baseIlSaIlEED5Ev,comdat
	.align 2
	.weak	_ZNSt12_Vector_baseIlSaIlEED2Ev
	.type	_ZNSt12_Vector_baseIlSaIlEED2Ev, @function
_ZNSt12_Vector_baseIlSaIlEED2Ev:
.LFB2980:
	.loc 5 364 7
	.cfi_startproc
	.cfi_personality 0x9b,DW.ref.__gxx_personality_v0
	.cfi_lsda 0x1b,.LLSDA2980
	pushq	%rbp	#
	.cfi_def_cfa_offset 16
	.cfi_offset 6, -16
	movq	%rsp, %rbp	#,
	.cfi_def_cfa_register 6
	subq	$16, %rsp	#,
	movq	%rdi, -8(%rbp)	# this, this
.LBB22:
# /usr/include/c++/12/bits/stl_vector.h:367: 		      _M_impl._M_end_of_storage - _M_impl._M_start);
	.loc 5 367 17
	movq	-8(%rbp), %rax	# this, tmp89
	movq	16(%rax), %rdx	# this_9(D)->_M_impl.D.56703._M_end_of_storage, _1
# /usr/include/c++/12/bits/stl_vector.h:367: 		      _M_impl._M_end_of_storage - _M_impl._M_start);
	.loc 5 367 45
	movq	-8(%rbp), %rax	# this, tmp90
	movq	(%rax), %rax	# this_9(D)->_M_impl.D.56703._M_start, _2
# /usr/include/c++/12/bits/stl_vector.h:367: 		      _M_impl._M_end_of_storage - _M_impl._M_start);
	.loc 5 367 35
	subq	%rax, %rdx	# _2, _3
	movq	%rdx, %rax	# _3, _3
	sarq	$3, %rax	#, _3
# /usr/include/c++/12/bits/stl_vector.h:366: 	_M_deallocate(_M_impl._M_start,
	.loc 5 366 15
	movq	%rax, %rdx	# _4, _5
	movq	-8(%rbp), %rax	# this, tmp92
	movq	(%rax), %rcx	# this_9(D)->_M_impl.D.56703._M_start, _6
	movq	-8(%rbp), %rax	# this, tmp93
	movq	%rcx, %rsi	# _6,
	movq	%rax, %rdi	# tmp93,
	call	_ZNSt12_Vector_baseIlSaIlEE13_M_deallocateEPlm	#
# /usr/include/c++/12/bits/stl_vector.h:368:       }
	.loc 5 368 7
	movq	-8(%rbp), %rax	# this, _7
	movq	%rax, %rdi	# _7,
	call	_ZNSt12_Vector_baseIlSaIlEE12_Vector_implD1Ev	#
.LBE22:
	nop	
	leave	
	.cfi_def_cfa 7, 8
	ret	
	.cfi_endproc
.LFE2980:
	.section	.gcc_except_table
.LLSDA2980:
	.byte	0xff
	.byte	0xff
	.byte	0x1
	.uleb128 .LLSDACSE2980-.LLSDACSB2980
.LLSDACSB2980:
.LLSDACSE2980:
	.section	.text._ZNSt12_Vector_baseIlSaIlEED2Ev,"axG",@progbits,_ZNSt12_Vector_baseIlSaIlEED5Ev,comdat
	.size	_ZNSt12_Vector_baseIlSaIlEED2Ev, .-_ZNSt12_Vector_baseIlSaIlEED2Ev
	.weak	_ZNSt12_Vector_baseIlSaIlEED1Ev
	.set	_ZNSt12_Vector_baseIlSaIlEED1Ev,_ZNSt12_Vector_baseIlSaIlEED2Ev
	.section	.text._ZNSt12_Vector_baseIlSaIlEE19_M_get_Tp_allocatorEv,"axG",@progbits,_ZNSt12_Vector_baseIlSaIlEE19_M_get_Tp_allocatorEv,comdat
	.align 2
	.weak	_ZNSt12_Vector_baseIlSaIlEE19_M_get_Tp_allocatorEv
	.type	_ZNSt12_Vector_baseIlSaIlEE19_M_get_Tp_allocatorEv, @function
_ZNSt12_Vector_baseIlSaIlEE19_M_get_Tp_allocatorEv:
.LFB2982:
	.loc 5 298 7
	.cfi_startproc
	pushq	%rbp	#
	.cfi_def_cfa_offset 16
	.cfi_offset 6, -16
	movq	%rsp, %rbp	#,
	.cfi_def_cfa_register 6
	movq	%rdi, -8(%rbp)	# this, this
# /usr/include/c++/12/bits/stl_vector.h:299:       { return this->_M_impl; }
	.loc 5 299 22
	movq	-8(%rbp), %rax	# this, _2
# /usr/include/c++/12/bits/stl_vector.h:299:       { return this->_M_impl; }
	.loc 5 299 31
	popq	%rbp	#
	.cfi_def_cfa 7, 8
	ret	
	.cfi_endproc
.LFE2982:
	.size	_ZNSt12_Vector_baseIlSaIlEE19_M_get_Tp_allocatorEv, .-_ZNSt12_Vector_baseIlSaIlEE19_M_get_Tp_allocatorEv
	.section	.text._ZSt8_DestroyIPllEvT_S1_RSaIT0_E,"axG",@progbits,_ZSt8_DestroyIPllEvT_S1_RSaIT0_E,comdat
	.weak	_ZSt8_DestroyIPllEvT_S1_RSaIT0_E
	.type	_ZSt8_DestroyIPllEvT_S1_RSaIT0_E, @function
_ZSt8_DestroyIPllEvT_S1_RSaIT0_E:
.LFB2983:
	.loc 8 847 5
	.cfi_startproc
	pushq	%rbp	#
	.cfi_def_cfa_offset 16
	.cfi_offset 6, -16
	movq	%rsp, %rbp	#,
	.cfi_def_cfa_register 6
	subq	$32, %rsp	#,
	movq	%rdi, -8(%rbp)	# __first, __first
	movq	%rsi, -16(%rbp)	# __last, __last
	movq	%rdx, -24(%rbp)	# D.63363, D.63363
# /usr/include/c++/12/bits/alloc_traits.h:850:       _Destroy(__first, __last);
	.loc 8 850 15
	movq	-16(%rbp), %rdx	# __last, tmp82
	movq	-8(%rbp), %rax	# __first, tmp83
	movq	%rdx, %rsi	# tmp82,
	movq	%rax, %rdi	# tmp83,
	call	_ZSt8_DestroyIPlEvT_S1_	#
# /usr/include/c++/12/bits/alloc_traits.h:851:     }
	.loc 8 851 5
	nop	
	leave	
	.cfi_def_cfa 7, 8
	ret	
	.cfi_endproc
.LFE2983:
	.size	_ZSt8_DestroyIPllEvT_S1_RSaIT0_E, .-_ZSt8_DestroyIPllEvT_S1_RSaIT0_E
	.section	.text._ZNKSt6vectorIlSaIlEE4sizeEv,"axG",@progbits,_ZNKSt6vectorIlSaIlEE4sizeEv,comdat
	.align 2
	.weak	_ZNKSt6vectorIlSaIlEE4sizeEv
	.type	_ZNKSt6vectorIlSaIlEE4sizeEv, @function
_ZNKSt6vectorIlSaIlEE4sizeEv:
.LFB2984:
	.loc 5 987 7
	.cfi_startproc
	pushq	%rbp	#
	.cfi_def_cfa_offset 16
	.cfi_offset 6, -16
	movq	%rsp, %rbp	#,
	.cfi_def_cfa_register 6
	movq	%rdi, -8(%rbp)	# this, this
# /usr/include/c++/12/bits/stl_vector.h:988:       { return size_type(this->_M_impl._M_finish - this->_M_impl._M_start); }
	.loc 5 988 40
	movq	-8(%rbp), %rax	# this, tmp88
	movq	8(%rax), %rdx	# this_6(D)->D.57391._M_impl.D.56703._M_finish, _1
# /usr/include/c++/12/bits/stl_vector.h:988:       { return size_type(this->_M_impl._M_finish - this->_M_impl._M_start); }
	.loc 5 988 66
	movq	-8(%rbp), %rax	# this, tmp89
	movq	(%rax), %rax	# this_6(D)->D.57391._M_impl.D.56703._M_start, _2
# /usr/include/c++/12/bits/stl_vector.h:988:       { return size_type(this->_M_impl._M_finish - this->_M_impl._M_start); }
	.loc 5 988 50
	subq	%rax, %rdx	# _2, _3
	movq	%rdx, %rax	# _3, _3
	sarq	$3, %rax	#, _3
# /usr/include/c++/12/bits/stl_vector.h:988:       { return size_type(this->_M_impl._M_finish - this->_M_impl._M_start); }
	.loc 5 988 77
	popq	%rbp	#
	.cfi_def_cfa 7, 8
	ret	
	.cfi_endproc
.LFE2984:
	.size	_ZNKSt6vectorIlSaIlEE4sizeEv, .-_ZNKSt6vectorIlSaIlEE4sizeEv
	.section	.text._ZNK9container7details18tensor_base_staticIiJLl2ELl3ELl4ELl5EEE5orderEv,"axG",@progbits,_ZNK9container7details18tensor_base_staticIiJLl2ELl3ELl4ELl5EEE5orderEv,comdat
	.align 2
	.weak	_ZNK9container7details18tensor_base_staticIiJLl2ELl3ELl4ELl5EEE5orderEv
	.type	_ZNK9container7details18tensor_base_staticIiJLl2ELl3ELl4ELl5EEE5orderEv, @function
_ZNK9container7details18tensor_base_staticIiJLl2ELl3ELl4ELl5EEE5orderEv:
.LFB2985:
	.loc 3 50 33
	.cfi_startproc
	pushq	%rbp	#
	.cfi_def_cfa_offset 16
	.cfi_offset 6, -16
	movq	%rsp, %rbp	#,
	.cfi_def_cfa_register 6
	subq	$16, %rsp	#,
	movq	%rdi, -8(%rbp)	# this, this
# Tensor.hpp:52:                 return _dims.size();
	.loc 3 52 34
	movq	-8(%rbp), %rax	# this, tmp86
	addq	$24, %rax	#, _1
	movq	%rax, %rdi	# _1,
	call	_ZNKSt6vectorIlSaIlEE4sizeEv	#
# Tensor.hpp:53:             }
	.loc 3 53 13
	leave	
	.cfi_def_cfa 7, 8
	ret	
	.cfi_endproc
.LFE2985:
	.size	_ZNK9container7details18tensor_base_staticIiJLl2ELl3ELl4ELl5EEE5orderEv, .-_ZNK9container7details18tensor_base_staticIiJLl2ELl3ELl4ELl5EEE5orderEv
	.section	.text._ZNK9container7details18tensor_base_staticIiJLl2ELl3ELl4ELl5EEE4sizeEv,"axG",@progbits,_ZNK9container7details18tensor_base_staticIiJLl2ELl3ELl4ELl5EEE4sizeEv,comdat
	.align 2
	.weak	_ZNK9container7details18tensor_base_staticIiJLl2ELl3ELl4ELl5EEE4sizeEv
	.type	_ZNK9container7details18tensor_base_staticIiJLl2ELl3ELl4ELl5EEE4sizeEv, @function
_ZNK9container7details18tensor_base_staticIiJLl2ELl3ELl4ELl5EEE4sizeEv:
.LFB2986:
	.loc 3 55 33
	.cfi_startproc
	pushq	%rbp	#
	.cfi_def_cfa_offset 16
	.cfi_offset 6, -16
	movq	%rsp, %rbp	#,
	.cfi_def_cfa_register 6
	subq	$16, %rsp	#,
	movq	%rdi, -8(%rbp)	# this, this
# Tensor.hpp:57:                 return _data.size();
	.loc 3 57 34
	movq	-8(%rbp), %rax	# this, _1
	movq	%rax, %rdi	# _1,
	call	_ZNKSt6vectorIiSaIiEE4sizeEv	#
# Tensor.hpp:58:             }
	.loc 3 58 13
	leave	
	.cfi_def_cfa 7, 8
	ret	
	.cfi_endproc
.LFE2986:
	.size	_ZNK9container7details18tensor_base_staticIiJLl2ELl3ELl4ELl5EEE4sizeEv, .-_ZNK9container7details18tensor_base_staticIiJLl2ELl3ELl4ELl5EEE4sizeEv
	.section	.text._ZNSt6vectorIlSaIlEEixEm,"axG",@progbits,_ZNSt6vectorIlSaIlEEixEm,comdat
	.align 2
	.weak	_ZNSt6vectorIlSaIlEEixEm
	.type	_ZNSt6vectorIlSaIlEEixEm, @function
_ZNSt6vectorIlSaIlEEixEm:
.LFB2987:
	.loc 5 1121 7
	.cfi_startproc
	pushq	%rbp	#
	.cfi_def_cfa_offset 16
	.cfi_offset 6, -16
	movq	%rsp, %rbp	#,
	.cfi_def_cfa_register 6
	movq	%rdi, -8(%rbp)	# this, this
	movq	%rsi, -16(%rbp)	# __n, __n
# /usr/include/c++/12/bits/stl_vector.h:1124: 	return *(this->_M_impl._M_start + __n);
	.loc 5 1124 25
	movq	-8(%rbp), %rax	# this, tmp86
	movq	(%rax), %rax	# this_4(D)->D.57391._M_impl.D.56703._M_start, _1
# /usr/include/c++/12/bits/stl_vector.h:1124: 	return *(this->_M_impl._M_start + __n);
	.loc 5 1124 34
	movq	-16(%rbp), %rdx	# __n, tmp87
	salq	$3, %rdx	#, _2
# /usr/include/c++/12/bits/stl_vector.h:1124: 	return *(this->_M_impl._M_start + __n);
	.loc 5 1124 39
	addq	%rdx, %rax	# _2, _6
# /usr/include/c++/12/bits/stl_vector.h:1125:       }
	.loc 5 1125 7
	popq	%rbp	#
	.cfi_def_cfa 7, 8
	ret	
	.cfi_endproc
.LFE2987:
	.size	_ZNSt6vectorIlSaIlEEixEm, .-_ZNSt6vectorIlSaIlEEixEm
	.section	.text._ZNSaIiEC2Ev,"axG",@progbits,_ZNSaIiEC5Ev,comdat
	.align 2
	.weak	_ZNSaIiEC2Ev
	.type	_ZNSaIiEC2Ev, @function
_ZNSaIiEC2Ev:
.LFB3057:
	.loc 6 156 7
	.cfi_startproc
	pushq	%rbp	#
	.cfi_def_cfa_offset 16
	.cfi_offset 6, -16
	movq	%rsp, %rbp	#,
	.cfi_def_cfa_register 6
	subq	$16, %rsp	#,
	movq	%rdi, -8(%rbp)	# this, this
.LBB23:
# /usr/include/c++/12/bits/allocator.h:156:       allocator() _GLIBCXX_NOTHROW { }
	.loc 6 156 36
	movq	-8(%rbp), %rax	# this, tmp82
	movq	%rax, %rdi	# tmp82,
	call	_ZNSt15__new_allocatorIiEC2Ev	#
.LBE23:
# /usr/include/c++/12/bits/allocator.h:156:       allocator() _GLIBCXX_NOTHROW { }
	.loc 6 156 38
	nop	
	leave	
	.cfi_def_cfa 7, 8
	ret	
	.cfi_endproc
.LFE3057:
	.size	_ZNSaIiEC2Ev, .-_ZNSaIiEC2Ev
	.weak	_ZNSaIiEC1Ev
	.set	_ZNSaIiEC1Ev,_ZNSaIiEC2Ev
	.section	.text._ZNSt12_Vector_baseIiSaIiEE17_Vector_impl_dataC2Ev,"axG",@progbits,_ZNSt12_Vector_baseIiSaIiEE17_Vector_impl_dataC5Ev,comdat
	.align 2
	.weak	_ZNSt12_Vector_baseIiSaIiEE17_Vector_impl_dataC2Ev
	.type	_ZNSt12_Vector_baseIiSaIiEE17_Vector_impl_dataC2Ev, @function
_ZNSt12_Vector_baseIiSaIiEE17_Vector_impl_dataC2Ev:
.LFB3060:
	.loc 5 99 2
	.cfi_startproc
	pushq	%rbp	#
	.cfi_def_cfa_offset 16
	.cfi_offset 6, -16
	movq	%rsp, %rbp	#,
	.cfi_def_cfa_register 6
	movq	%rdi, -8(%rbp)	# this, this
.LBB24:
# /usr/include/c++/12/bits/stl_vector.h:100: 	: _M_start(), _M_finish(), _M_end_of_storage()
	.loc 5 100 4
	movq	-8(%rbp), %rax	# this, tmp82
	movq	$0, (%rax)	#, this_2(D)->_M_start
# /usr/include/c++/12/bits/stl_vector.h:100: 	: _M_start(), _M_finish(), _M_end_of_storage()
	.loc 5 100 16
	movq	-8(%rbp), %rax	# this, tmp83
	movq	$0, 8(%rax)	#, this_2(D)->_M_finish
# /usr/include/c++/12/bits/stl_vector.h:100: 	: _M_start(), _M_finish(), _M_end_of_storage()
	.loc 5 100 29
	movq	-8(%rbp), %rax	# this, tmp84
	movq	$0, 16(%rax)	#, this_2(D)->_M_end_of_storage
.LBE24:
# /usr/include/c++/12/bits/stl_vector.h:101: 	{ }
	.loc 5 101 4
	nop	
	popq	%rbp	#
	.cfi_def_cfa 7, 8
	ret	
	.cfi_endproc
.LFE3060:
	.size	_ZNSt12_Vector_baseIiSaIiEE17_Vector_impl_dataC2Ev, .-_ZNSt12_Vector_baseIiSaIiEE17_Vector_impl_dataC2Ev
	.weak	_ZNSt12_Vector_baseIiSaIiEE17_Vector_impl_dataC1Ev
	.set	_ZNSt12_Vector_baseIiSaIiEE17_Vector_impl_dataC1Ev,_ZNSt12_Vector_baseIiSaIiEE17_Vector_impl_dataC2Ev
	.section	.text._ZNSt15__new_allocatorIiED2Ev,"axG",@progbits,_ZNSt15__new_allocatorIiED5Ev,comdat
	.align 2
	.weak	_ZNSt15__new_allocatorIiED2Ev
	.type	_ZNSt15__new_allocatorIiED2Ev, @function
_ZNSt15__new_allocatorIiED2Ev:
.LFB3063:
	.file 9 "/usr/include/c++/12/bits/new_allocator.h"
	.loc 9 90 7
	.cfi_startproc
	pushq	%rbp	#
	.cfi_def_cfa_offset 16
	.cfi_offset 6, -16
	movq	%rsp, %rbp	#,
	.cfi_def_cfa_register 6
	movq	%rdi, -8(%rbp)	# this, this
# /usr/include/c++/12/bits/new_allocator.h:90:       ~__new_allocator() _GLIBCXX_USE_NOEXCEPT { }
	.loc 9 90 50
	nop	
	popq	%rbp	#
	.cfi_def_cfa 7, 8
	ret	
	.cfi_endproc
.LFE3063:
	.size	_ZNSt15__new_allocatorIiED2Ev, .-_ZNSt15__new_allocatorIiED2Ev
	.weak	_ZNSt15__new_allocatorIiED1Ev
	.set	_ZNSt15__new_allocatorIiED1Ev,_ZNSt15__new_allocatorIiED2Ev
	.section	.text._ZNSt12_Vector_baseIiSaIiEE13_M_deallocateEPim,"axG",@progbits,_ZNSt12_Vector_baseIiSaIiEE13_M_deallocateEPim,comdat
	.align 2
	.weak	_ZNSt12_Vector_baseIiSaIiEE13_M_deallocateEPim
	.type	_ZNSt12_Vector_baseIiSaIiEE13_M_deallocateEPim, @function
_ZNSt12_Vector_baseIiSaIiEE13_M_deallocateEPim:
.LFB3065:
	.loc 5 383 7
	.cfi_startproc
	pushq	%rbp	#
	.cfi_def_cfa_offset 16
	.cfi_offset 6, -16
	movq	%rsp, %rbp	#,
	.cfi_def_cfa_register 6
	subq	$32, %rsp	#,
	movq	%rdi, -8(%rbp)	# this, this
	movq	%rsi, -16(%rbp)	# __p, __p
	movq	%rdx, -24(%rbp)	# __n, __n
# /usr/include/c++/12/bits/stl_vector.h:386: 	if (__p)
	.loc 5 386 2
	cmpq	$0, -16(%rbp)	#, __p
	je	.L90	#,
# /usr/include/c++/12/bits/stl_vector.h:387: 	  _Tr::deallocate(_M_impl, __p, __n);
	.loc 5 387 20
	movq	-8(%rbp), %rax	# this, _1
# /usr/include/c++/12/bits/stl_vector.h:387: 	  _Tr::deallocate(_M_impl, __p, __n);
	.loc 5 387 19
	movq	-24(%rbp), %rdx	# __n, tmp83
	movq	-16(%rbp), %rcx	# __p, tmp84
	movq	%rcx, %rsi	# tmp84,
	movq	%rax, %rdi	# _1,
	call	_ZNSt16allocator_traitsISaIiEE10deallocateERS0_Pim	#
.L90:
# /usr/include/c++/12/bits/stl_vector.h:388:       }
	.loc 5 388 7
	nop	
	leave	
	.cfi_def_cfa 7, 8
	ret	
	.cfi_endproc
.LFE3065:
	.size	_ZNSt12_Vector_baseIiSaIiEE13_M_deallocateEPim, .-_ZNSt12_Vector_baseIiSaIiEE13_M_deallocateEPim
	.section	.text._ZNSt15__new_allocatorIlEC2Ev,"axG",@progbits,_ZNSt15__new_allocatorIlEC5Ev,comdat
	.align 2
	.weak	_ZNSt15__new_allocatorIlEC2Ev
	.type	_ZNSt15__new_allocatorIlEC2Ev, @function
_ZNSt15__new_allocatorIlEC2Ev:
.LFB3067:
	.loc 9 80 7
	.cfi_startproc
	pushq	%rbp	#
	.cfi_def_cfa_offset 16
	.cfi_offset 6, -16
	movq	%rsp, %rbp	#,
	.cfi_def_cfa_register 6
	movq	%rdi, -8(%rbp)	# this, this
# /usr/include/c++/12/bits/new_allocator.h:80:       __new_allocator() _GLIBCXX_USE_NOEXCEPT { }
	.loc 9 80 49
	nop	
	popq	%rbp	#
	.cfi_def_cfa 7, 8
	ret	
	.cfi_endproc
.LFE3067:
	.size	_ZNSt15__new_allocatorIlEC2Ev, .-_ZNSt15__new_allocatorIlEC2Ev
	.weak	_ZNSt15__new_allocatorIlEC1Ev
	.set	_ZNSt15__new_allocatorIlEC1Ev,_ZNSt15__new_allocatorIlEC2Ev
	.section	.text._ZNSt15__new_allocatorIlED2Ev,"axG",@progbits,_ZNSt15__new_allocatorIlED5Ev,comdat
	.align 2
	.weak	_ZNSt15__new_allocatorIlED2Ev
	.type	_ZNSt15__new_allocatorIlED2Ev, @function
_ZNSt15__new_allocatorIlED2Ev:
.LFB3070:
	.loc 9 90 7
	.cfi_startproc
	pushq	%rbp	#
	.cfi_def_cfa_offset 16
	.cfi_offset 6, -16
	movq	%rsp, %rbp	#,
	.cfi_def_cfa_register 6
	movq	%rdi, -8(%rbp)	# this, this
# /usr/include/c++/12/bits/new_allocator.h:90:       ~__new_allocator() _GLIBCXX_USE_NOEXCEPT { }
	.loc 9 90 50
	nop	
	popq	%rbp	#
	.cfi_def_cfa 7, 8
	ret	
	.cfi_endproc
.LFE3070:
	.size	_ZNSt15__new_allocatorIlED2Ev, .-_ZNSt15__new_allocatorIlED2Ev
	.weak	_ZNSt15__new_allocatorIlED1Ev
	.set	_ZNSt15__new_allocatorIlED1Ev,_ZNSt15__new_allocatorIlED2Ev
	.section	.text._ZNSt12_Vector_baseIlSaIlEEC2ERKS0_,"axG",@progbits,_ZNSt12_Vector_baseIlSaIlEEC5ERKS0_,comdat
	.align 2
	.weak	_ZNSt12_Vector_baseIlSaIlEEC2ERKS0_
	.type	_ZNSt12_Vector_baseIlSaIlEEC2ERKS0_, @function
_ZNSt12_Vector_baseIlSaIlEEC2ERKS0_:
.LFB3073:
	.loc 5 318 7
	.cfi_startproc
	pushq	%rbp	#
	.cfi_def_cfa_offset 16
	.cfi_offset 6, -16
	movq	%rsp, %rbp	#,
	.cfi_def_cfa_register 6
	subq	$16, %rsp	#,
	movq	%rdi, -8(%rbp)	# this, this
	movq	%rsi, -16(%rbp)	# __a, __a
.LBB25:
# /usr/include/c++/12/bits/stl_vector.h:319:       : _M_impl(__a) { }
	.loc 5 319 9
	movq	-8(%rbp), %rax	# this, _1
	movq	-16(%rbp), %rdx	# __a, tmp84
	movq	%rdx, %rsi	# tmp84,
	movq	%rax, %rdi	# _1,
	call	_ZNSt12_Vector_baseIlSaIlEE12_Vector_implC1ERKS0_	#
.LBE25:
# /usr/include/c++/12/bits/stl_vector.h:319:       : _M_impl(__a) { }
	.loc 5 319 24
	nop	
	leave	
	.cfi_def_cfa 7, 8
	ret	
	.cfi_endproc
.LFE3073:
	.size	_ZNSt12_Vector_baseIlSaIlEEC2ERKS0_, .-_ZNSt12_Vector_baseIlSaIlEEC2ERKS0_
	.weak	_ZNSt12_Vector_baseIlSaIlEEC1ERKS0_
	.set	_ZNSt12_Vector_baseIlSaIlEEC1ERKS0_,_ZNSt12_Vector_baseIlSaIlEEC2ERKS0_
	.section	.text._ZNKSt16initializer_listIlE5beginEv,"axG",@progbits,_ZNKSt16initializer_listIlE5beginEv,comdat
	.align 2
	.weak	_ZNKSt16initializer_listIlE5beginEv
	.type	_ZNKSt16initializer_listIlE5beginEv, @function
_ZNKSt16initializer_listIlE5beginEv:
.LFB3075:
	.file 10 "/usr/include/c++/12/initializer_list"
	.loc 10 75 7
	.cfi_startproc
	pushq	%rbp	#
	.cfi_def_cfa_offset 16
	.cfi_offset 6, -16
	movq	%rsp, %rbp	#,
	.cfi_def_cfa_register 6
	movq	%rdi, -8(%rbp)	# this, this
# /usr/include/c++/12/initializer_list:75:       begin() const noexcept { return _M_array; }
	.loc 10 75 39
	movq	-8(%rbp), %rax	# this, tmp84
	movq	(%rax), %rax	# this_2(D)->_M_array, _3
# /usr/include/c++/12/initializer_list:75:       begin() const noexcept { return _M_array; }
	.loc 10 75 49
	popq	%rbp	#
	.cfi_def_cfa 7, 8
	ret	
	.cfi_endproc
.LFE3075:
	.size	_ZNKSt16initializer_listIlE5beginEv, .-_ZNKSt16initializer_listIlE5beginEv
	.section	.text._ZNKSt16initializer_listIlE3endEv,"axG",@progbits,_ZNKSt16initializer_listIlE3endEv,comdat
	.align 2
	.weak	_ZNKSt16initializer_listIlE3endEv
	.type	_ZNKSt16initializer_listIlE3endEv, @function
_ZNKSt16initializer_listIlE3endEv:
.LFB3076:
	.loc 10 79 7
	.cfi_startproc
	pushq	%rbp	#
	.cfi_def_cfa_offset 16
	.cfi_offset 6, -16
	movq	%rsp, %rbp	#,
	.cfi_def_cfa_register 6
	pushq	%rbx	#
	subq	$24, %rsp	#,
	.cfi_offset 3, -24
	movq	%rdi, -24(%rbp)	# this, this
# /usr/include/c++/12/initializer_list:79:       end() const noexcept { return begin() + size(); }
	.loc 10 79 42
	movq	-24(%rbp), %rax	# this, tmp87
	movq	%rax, %rdi	# tmp87,
	call	_ZNKSt16initializer_listIlE5beginEv	#
	movq	%rax, %rbx	#, _1
# /usr/include/c++/12/initializer_list:79:       end() const noexcept { return begin() + size(); }
	.loc 10 79 51
	movq	-24(%rbp), %rax	# this, tmp88
	movq	%rax, %rdi	# tmp88,
	call	_ZNKSt16initializer_listIlE4sizeEv	#
# /usr/include/c++/12/initializer_list:79:       end() const noexcept { return begin() + size(); }
	.loc 10 79 45
	salq	$3, %rax	#, _3
# /usr/include/c++/12/initializer_list:79:       end() const noexcept { return begin() + size(); }
	.loc 10 79 52
	addq	%rbx, %rax	# _1, _8
# /usr/include/c++/12/initializer_list:79:       end() const noexcept { return begin() + size(); }
	.loc 10 79 55
	movq	-8(%rbp), %rbx	#,
	leave	
	.cfi_def_cfa 7, 8
	ret	
	.cfi_endproc
.LFE3076:
	.size	_ZNKSt16initializer_listIlE3endEv, .-_ZNKSt16initializer_listIlE3endEv
	.section	.text._ZSt8distanceIPKlENSt15iterator_traitsIT_E15difference_typeES3_S3_,"axG",@progbits,_ZSt8distanceIPKlENSt15iterator_traitsIT_E15difference_typeES3_S3_,comdat
	.weak	_ZSt8distanceIPKlENSt15iterator_traitsIT_E15difference_typeES3_S3_
	.type	_ZSt8distanceIPKlENSt15iterator_traitsIT_E15difference_typeES3_S3_, @function
_ZSt8distanceIPKlENSt15iterator_traitsIT_E15difference_typeES3_S3_:
.LFB3078:
	.file 11 "/usr/include/c++/12/bits/stl_iterator_base_funcs.h"
	.loc 11 147 5
	.cfi_startproc
	pushq	%rbp	#
	.cfi_def_cfa_offset 16
	.cfi_offset 6, -16
	movq	%rsp, %rbp	#,
	.cfi_def_cfa_register 6
	subq	$16, %rsp	#,
	movq	%rdi, -8(%rbp)	# __first, __first
	movq	%rsi, -16(%rbp)	# __last, __last
# /usr/include/c++/12/bits/stl_iterator_base_funcs.h:151: 			     std::__iterator_category(__first));
	.loc 11 151 33
	leaq	-8(%rbp), %rax	#, tmp86
	movq	%rax, %rdi	# tmp86,
	call	_ZSt19__iterator_categoryIPKlENSt15iterator_traitsIT_E17iterator_categoryERKS3_	#
# /usr/include/c++/12/bits/stl_iterator_base_funcs.h:150:       return std::__distance(__first, __last,
	.loc 11 150 29
	movq	-8(%rbp), %rax	# __first, __first.4_1
	movq	-16(%rbp), %rdx	# __last, tmp87
	movq	%rdx, %rsi	# tmp87,
	movq	%rax, %rdi	# __first.4_1,
	call	_ZSt10__distanceIPKlENSt15iterator_traitsIT_E15difference_typeES3_S3_St26random_access_iterator_tag	#
# /usr/include/c++/12/bits/stl_iterator_base_funcs.h:152:     }
	.loc 11 152 5
	leave	
	.cfi_def_cfa 7, 8
	ret	
	.cfi_endproc
.LFE3078:
	.size	_ZSt8distanceIPKlENSt15iterator_traitsIT_E15difference_typeES3_S3_, .-_ZSt8distanceIPKlENSt15iterator_traitsIT_E15difference_typeES3_S3_
	.section	.text._ZNSt6vectorIlSaIlEE19_M_range_initializeIPKlEEvT_S5_St20forward_iterator_tag,"axG",@progbits,_ZNSt6vectorIlSaIlEE19_M_range_initializeIPKlEEvT_S5_St20forward_iterator_tag,comdat
	.align 2
	.weak	_ZNSt6vectorIlSaIlEE19_M_range_initializeIPKlEEvT_S5_St20forward_iterator_tag
	.type	_ZNSt6vectorIlSaIlEE19_M_range_initializeIPKlEEvT_S5_St20forward_iterator_tag, @function
_ZNSt6vectorIlSaIlEE19_M_range_initializeIPKlEEvT_S5_St20forward_iterator_tag:
.LFB3077:
	.loc 5 1682 2
	.cfi_startproc
	pushq	%rbp	#
	.cfi_def_cfa_offset 16
	.cfi_offset 6, -16
	movq	%rsp, %rbp	#,
	.cfi_def_cfa_register 6
	pushq	%rbx	#
	subq	$56, %rsp	#,
	.cfi_offset 3, -24
	movq	%rdi, -40(%rbp)	# this, this
	movq	%rsi, -48(%rbp)	# __first, __first
	movq	%rdx, -56(%rbp)	# __last, __last
# /usr/include/c++/12/bits/stl_vector.h:1685: 	  const size_type __n = std::distance(__first, __last);
	.loc 5 1685 39
	movq	-56(%rbp), %rdx	# __last, tmp95
	movq	-48(%rbp), %rax	# __first, tmp96
	movq	%rdx, %rsi	# tmp95,
	movq	%rax, %rdi	# tmp96,
	call	_ZSt8distanceIPKlENSt15iterator_traitsIT_E15difference_typeES3_S3_	#
# /usr/include/c++/12/bits/stl_vector.h:1685: 	  const size_type __n = std::distance(__first, __last);
	.loc 5 1685 20
	movq	%rax, -24(%rbp)	# _1, __n
# /usr/include/c++/12/bits/stl_vector.h:1687: 	    = this->_M_allocate(_S_check_init_len(__n, _M_get_Tp_allocator()));
	.loc 5 1687 25
	movq	-40(%rbp), %rbx	# this, _2
# /usr/include/c++/12/bits/stl_vector.h:1687: 	    = this->_M_allocate(_S_check_init_len(__n, _M_get_Tp_allocator()));
	.loc 5 1687 68
	movq	-40(%rbp), %rax	# this, _3
	movq	%rax, %rdi	# _3,
	call	_ZNSt12_Vector_baseIlSaIlEE19_M_get_Tp_allocatorEv	#
	movq	%rax, %rdx	#, _4
# /usr/include/c++/12/bits/stl_vector.h:1687: 	    = this->_M_allocate(_S_check_init_len(__n, _M_get_Tp_allocator()));
	.loc 5 1687 25
	movq	-24(%rbp), %rax	# __n, tmp97
	movq	%rdx, %rsi	# _4,
	movq	%rax, %rdi	# tmp97,
	call	_ZNSt6vectorIlSaIlEE17_S_check_init_lenEmRKS0_	#
	movq	%rax, %rsi	# _5,
	movq	%rbx, %rdi	# _2,
	call	_ZNSt12_Vector_baseIlSaIlEE11_M_allocateEm	#
# /usr/include/c++/12/bits/stl_vector.h:1687: 	    = this->_M_allocate(_S_check_init_len(__n, _M_get_Tp_allocator()));
	.loc 5 1687 6
	movq	-40(%rbp), %rdx	# this, tmp98
	movq	%rax, (%rdx)	# _6, this_20(D)->D.57391._M_impl.D.56703._M_start
# /usr/include/c++/12/bits/stl_vector.h:1688: 	  this->_M_impl._M_end_of_storage = this->_M_impl._M_start + __n;
	.loc 5 1688 52
	movq	-40(%rbp), %rax	# this, tmp99
	movq	(%rax), %rax	# this_20(D)->D.57391._M_impl.D.56703._M_start, _7
# /usr/include/c++/12/bits/stl_vector.h:1688: 	  this->_M_impl._M_end_of_storage = this->_M_impl._M_start + __n;
	.loc 5 1688 61
	movq	-24(%rbp), %rdx	# __n, tmp100
	salq	$3, %rdx	#, _8
	addq	%rax, %rdx	# _7, _9
# /usr/include/c++/12/bits/stl_vector.h:1688: 	  this->_M_impl._M_end_of_storage = this->_M_impl._M_start + __n;
	.loc 5 1688 36
	movq	-40(%rbp), %rax	# this, tmp101
	movq	%rdx, 16(%rax)	# _9, this_20(D)->D.57391._M_impl.D.56703._M_end_of_storage
# /usr/include/c++/12/bits/stl_vector.h:1692: 					_M_get_Tp_allocator());
	.loc 5 1692 25
	movq	-40(%rbp), %rax	# this, _10
	movq	%rax, %rdi	# _10,
	call	_ZNSt12_Vector_baseIlSaIlEE19_M_get_Tp_allocatorEv	#
	movq	%rax, %rcx	#, _11
# /usr/include/c++/12/bits/stl_vector.h:1690: 	    std::__uninitialized_copy_a(__first, __last,
	.loc 5 1690 33
	movq	-40(%rbp), %rax	# this, tmp102
	movq	(%rax), %rdx	# this_20(D)->D.57391._M_impl.D.56703._M_start, _12
	movq	-56(%rbp), %rsi	# __last, tmp103
	movq	-48(%rbp), %rax	# __first, tmp104
	movq	%rax, %rdi	# tmp104,
	call	_ZSt22__uninitialized_copy_aIPKlPllET0_T_S4_S3_RSaIT1_E	#
# /usr/include/c++/12/bits/stl_vector.h:1689: 	  this->_M_impl._M_finish =
	.loc 5 1689 28
	movq	-40(%rbp), %rdx	# this, tmp105
	movq	%rax, 8(%rdx)	# _13, this_20(D)->D.57391._M_impl.D.56703._M_finish
# /usr/include/c++/12/bits/stl_vector.h:1693: 	}
	.loc 5 1693 2
	nop	
	movq	-8(%rbp), %rbx	#,
	leave	
	.cfi_def_cfa 7, 8
	ret	
	.cfi_endproc
.LFE3077:
	.size	_ZNSt6vectorIlSaIlEE19_M_range_initializeIPKlEEvT_S5_St20forward_iterator_tag, .-_ZNSt6vectorIlSaIlEE19_M_range_initializeIPKlEEvT_S5_St20forward_iterator_tag
	.section	.text._ZN9__gnu_cxx17__normal_iteratorIPlSt6vectorIlSaIlEEEC2ERKS1_,"axG",@progbits,_ZN9__gnu_cxx17__normal_iteratorIPlSt6vectorIlSaIlEEEC5ERKS1_,comdat
	.align 2
	.weak	_ZN9__gnu_cxx17__normal_iteratorIPlSt6vectorIlSaIlEEEC2ERKS1_
	.type	_ZN9__gnu_cxx17__normal_iteratorIPlSt6vectorIlSaIlEEEC2ERKS1_, @function
_ZN9__gnu_cxx17__normal_iteratorIPlSt6vectorIlSaIlEEEC2ERKS1_:
.LFB3080:
	.file 12 "/usr/include/c++/12/bits/stl_iterator.h"
	.loc 12 1072 7
	.cfi_startproc
	pushq	%rbp	#
	.cfi_def_cfa_offset 16
	.cfi_offset 6, -16
	movq	%rsp, %rbp	#,
	.cfi_def_cfa_register 6
	movq	%rdi, -8(%rbp)	# this, this
	movq	%rsi, -16(%rbp)	# __i, __i
.LBB26:
# /usr/include/c++/12/bits/stl_iterator.h:1073:       : _M_current(__i) { }
	.loc 12 1073 9
	movq	-16(%rbp), %rax	# __i, tmp83
	movq	(%rax), %rdx	# *__i_5(D), _1
	movq	-8(%rbp), %rax	# this, tmp84
	movq	%rdx, (%rax)	# _1, this_3(D)->_M_current
.LBE26:
# /usr/include/c++/12/bits/stl_iterator.h:1073:       : _M_current(__i) { }
	.loc 12 1073 27
	nop	
	popq	%rbp	#
	.cfi_def_cfa 7, 8
	ret	
	.cfi_endproc
.LFE3080:
	.size	_ZN9__gnu_cxx17__normal_iteratorIPlSt6vectorIlSaIlEEEC2ERKS1_, .-_ZN9__gnu_cxx17__normal_iteratorIPlSt6vectorIlSaIlEEEC2ERKS1_
	.weak	_ZN9__gnu_cxx17__normal_iteratorIPlSt6vectorIlSaIlEEEC1ERKS1_
	.set	_ZN9__gnu_cxx17__normal_iteratorIPlSt6vectorIlSaIlEEEC1ERKS1_,_ZN9__gnu_cxx17__normal_iteratorIPlSt6vectorIlSaIlEEEC2ERKS1_
	.section	.text._ZN9__gnu_cxxneIPlSt6vectorIlSaIlEEEEbRKNS_17__normal_iteratorIT_T0_EESA_,"axG",@progbits,_ZN9__gnu_cxxneIPlSt6vectorIlSaIlEEEEbRKNS_17__normal_iteratorIT_T0_EESA_,comdat
	.weak	_ZN9__gnu_cxxneIPlSt6vectorIlSaIlEEEEbRKNS_17__normal_iteratorIT_T0_EESA_
	.type	_ZN9__gnu_cxxneIPlSt6vectorIlSaIlEEEEbRKNS_17__normal_iteratorIT_T0_EESA_, @function
_ZN9__gnu_cxxneIPlSt6vectorIlSaIlEEEEbRKNS_17__normal_iteratorIT_T0_EESA_:
.LFB3082:
	.loc 12 1237 5
	.cfi_startproc
	pushq	%rbp	#
	.cfi_def_cfa_offset 16
	.cfi_offset 6, -16
	movq	%rsp, %rbp	#,
	.cfi_def_cfa_register 6
	pushq	%rbx	#
	subq	$24, %rsp	#,
	.cfi_offset 3, -24
	movq	%rdi, -24(%rbp)	# __lhs, __lhs
	movq	%rsi, -32(%rbp)	# __rhs, __rhs
# /usr/include/c++/12/bits/stl_iterator.h:1240:     { return __lhs.base() != __rhs.base(); }
	.loc 12 1240 24
	movq	-24(%rbp), %rax	# __lhs, tmp88
	movq	%rax, %rdi	# tmp88,
	call	_ZNK9__gnu_cxx17__normal_iteratorIPlSt6vectorIlSaIlEEE4baseEv	#
# /usr/include/c++/12/bits/stl_iterator.h:1240:     { return __lhs.base() != __rhs.base(); }
	.loc 12 1240 27
	movq	(%rax), %rbx	# *_1, _2
# /usr/include/c++/12/bits/stl_iterator.h:1240:     { return __lhs.base() != __rhs.base(); }
	.loc 12 1240 40
	movq	-32(%rbp), %rax	# __rhs, tmp89
	movq	%rax, %rdi	# tmp89,
	call	_ZNK9__gnu_cxx17__normal_iteratorIPlSt6vectorIlSaIlEEE4baseEv	#
# /usr/include/c++/12/bits/stl_iterator.h:1240:     { return __lhs.base() != __rhs.base(); }
	.loc 12 1240 27
	movq	(%rax), %rax	# *_3, _4
# /usr/include/c++/12/bits/stl_iterator.h:1240:     { return __lhs.base() != __rhs.base(); }
	.loc 12 1240 41
	cmpq	%rax, %rbx	# _4, _2
	setne	%al	#, _10
# /usr/include/c++/12/bits/stl_iterator.h:1240:     { return __lhs.base() != __rhs.base(); }
	.loc 12 1240 44
	movq	-8(%rbp), %rbx	#,
	leave	
	.cfi_def_cfa 7, 8
	ret	
	.cfi_endproc
.LFE3082:
	.size	_ZN9__gnu_cxxneIPlSt6vectorIlSaIlEEEEbRKNS_17__normal_iteratorIT_T0_EESA_, .-_ZN9__gnu_cxxneIPlSt6vectorIlSaIlEEEEbRKNS_17__normal_iteratorIT_T0_EESA_
	.section	.text._ZN9__gnu_cxx17__normal_iteratorIPlSt6vectorIlSaIlEEEppEv,"axG",@progbits,_ZN9__gnu_cxx17__normal_iteratorIPlSt6vectorIlSaIlEEEppEv,comdat
	.align 2
	.weak	_ZN9__gnu_cxx17__normal_iteratorIPlSt6vectorIlSaIlEEEppEv
	.type	_ZN9__gnu_cxx17__normal_iteratorIPlSt6vectorIlSaIlEEEppEv, @function
_ZN9__gnu_cxx17__normal_iteratorIPlSt6vectorIlSaIlEEEppEv:
.LFB3083:
	.loc 12 1105 7
	.cfi_startproc
	pushq	%rbp	#
	.cfi_def_cfa_offset 16
	.cfi_offset 6, -16
	movq	%rsp, %rbp	#,
	.cfi_def_cfa_register 6
	movq	%rdi, -8(%rbp)	# this, this
# /usr/include/c++/12/bits/stl_iterator.h:1107: 	++_M_current;
	.loc 12 1107 4
	movq	-8(%rbp), %rax	# this, tmp86
	movq	(%rax), %rax	# this_4(D)->_M_current, _1
# /usr/include/c++/12/bits/stl_iterator.h:1107: 	++_M_current;
	.loc 12 1107 2
	leaq	8(%rax), %rdx	#, _2
	movq	-8(%rbp), %rax	# this, tmp87
	movq	%rdx, (%rax)	# _2, this_4(D)->_M_current
# /usr/include/c++/12/bits/stl_iterator.h:1108: 	return *this;
	.loc 12 1108 10
	movq	-8(%rbp), %rax	# this, _6
# /usr/include/c++/12/bits/stl_iterator.h:1109:       }
	.loc 12 1109 7
	popq	%rbp	#
	.cfi_def_cfa 7, 8
	ret	
	.cfi_endproc
.LFE3083:
	.size	_ZN9__gnu_cxx17__normal_iteratorIPlSt6vectorIlSaIlEEEppEv, .-_ZN9__gnu_cxx17__normal_iteratorIPlSt6vectorIlSaIlEEEppEv
	.section	.text._ZNK9__gnu_cxx17__normal_iteratorIPlSt6vectorIlSaIlEEEdeEv,"axG",@progbits,_ZNK9__gnu_cxx17__normal_iteratorIPlSt6vectorIlSaIlEEEdeEv,comdat
	.align 2
	.weak	_ZNK9__gnu_cxx17__normal_iteratorIPlSt6vectorIlSaIlEEEdeEv
	.type	_ZNK9__gnu_cxx17__normal_iteratorIPlSt6vectorIlSaIlEEEdeEv, @function
_ZNK9__gnu_cxx17__normal_iteratorIPlSt6vectorIlSaIlEEEdeEv:
.LFB3084:
	.loc 12 1095 7
	.cfi_startproc
	pushq	%rbp	#
	.cfi_def_cfa_offset 16
	.cfi_offset 6, -16
	movq	%rsp, %rbp	#,
	.cfi_def_cfa_register 6
	movq	%rdi, -8(%rbp)	# this, this
# /usr/include/c++/12/bits/stl_iterator.h:1096:       { return *_M_current; }
	.loc 12 1096 17
	movq	-8(%rbp), %rax	# this, tmp84
	movq	(%rax), %rax	# this_2(D)->_M_current, _3
# /usr/include/c++/12/bits/stl_iterator.h:1096:       { return *_M_current; }
	.loc 12 1096 29
	popq	%rbp	#
	.cfi_def_cfa 7, 8
	ret	
	.cfi_endproc
.LFE3084:
	.size	_ZNK9__gnu_cxx17__normal_iteratorIPlSt6vectorIlSaIlEEEdeEv, .-_ZNK9__gnu_cxx17__normal_iteratorIPlSt6vectorIlSaIlEEEdeEv
	.section	.text._ZNKSt6vectorIiSaIiEE4sizeEv,"axG",@progbits,_ZNKSt6vectorIiSaIiEE4sizeEv,comdat
	.align 2
	.weak	_ZNKSt6vectorIiSaIiEE4sizeEv
	.type	_ZNKSt6vectorIiSaIiEE4sizeEv, @function
_ZNKSt6vectorIiSaIiEE4sizeEv:
.LFB3085:
	.loc 5 987 7
	.cfi_startproc
	pushq	%rbp	#
	.cfi_def_cfa_offset 16
	.cfi_offset 6, -16
	movq	%rsp, %rbp	#,
	.cfi_def_cfa_register 6
	movq	%rdi, -8(%rbp)	# this, this
# /usr/include/c++/12/bits/stl_vector.h:988:       { return size_type(this->_M_impl._M_finish - this->_M_impl._M_start); }
	.loc 5 988 40
	movq	-8(%rbp), %rax	# this, tmp88
	movq	8(%rax), %rdx	# this_6(D)->D.58502._M_impl.D.57841._M_finish, _1
# /usr/include/c++/12/bits/stl_vector.h:988:       { return size_type(this->_M_impl._M_finish - this->_M_impl._M_start); }
	.loc 5 988 66
	movq	-8(%rbp), %rax	# this, tmp89
	movq	(%rax), %rax	# this_6(D)->D.58502._M_impl.D.57841._M_start, _2
# /usr/include/c++/12/bits/stl_vector.h:988:       { return size_type(this->_M_impl._M_finish - this->_M_impl._M_start); }
	.loc 5 988 50
	subq	%rax, %rdx	# _2, _3
	movq	%rdx, %rax	# _3, _3
	sarq	$2, %rax	#, _3
# /usr/include/c++/12/bits/stl_vector.h:988:       { return size_type(this->_M_impl._M_finish - this->_M_impl._M_start); }
	.loc 5 988 77
	popq	%rbp	#
	.cfi_def_cfa 7, 8
	ret	
	.cfi_endproc
.LFE3085:
	.size	_ZNKSt6vectorIiSaIiEE4sizeEv, .-_ZNKSt6vectorIiSaIiEE4sizeEv
	.section	.rodata
.LC2:
	.string	"vector::_M_default_append"
	.section	.text._ZNSt6vectorIiSaIiEE17_M_default_appendEm,"axG",@progbits,_ZNSt6vectorIiSaIiEE17_M_default_appendEm,comdat
	.align 2
	.weak	_ZNSt6vectorIiSaIiEE17_M_default_appendEm
	.type	_ZNSt6vectorIiSaIiEE17_M_default_appendEm, @function
_ZNSt6vectorIiSaIiEE17_M_default_appendEm:
.LFB3086:
	.file 13 "/usr/include/c++/12/bits/vector.tcc"
	.loc 13 626 5
	.cfi_startproc
	.cfi_personality 0x9b,DW.ref.__gxx_personality_v0
	.cfi_lsda 0x1b,.LLSDA3086
	pushq	%rbp	#
	.cfi_def_cfa_offset 16
	.cfi_offset 6, -16
	movq	%rsp, %rbp	#,
	.cfi_def_cfa_register 6
	pushq	%rbx	#
	subq	$56, %rsp	#,
	.cfi_offset 3, -24
	movq	%rdi, -56(%rbp)	# this, this
	movq	%rsi, -64(%rbp)	# __n, __n
.LBB27:
# /usr/include/c++/12/bits/vector.tcc:629:       if (__n != 0)
	.loc 13 629 7
	cmpq	$0, -64(%rbp)	#, __n
	je	.L121	#,
.LBB28:
# /usr/include/c++/12/bits/vector.tcc:631: 	  const size_type __size = size();
	.loc 13 631 33
	movq	-56(%rbp), %rax	# this, tmp120
	movq	%rax, %rdi	# tmp120,
	call	_ZNKSt6vectorIiSaIiEE4sizeEv	#
	movq	%rax, -24(%rbp)	# tmp121, __size
# /usr/include/c++/12/bits/vector.tcc:632: 	  size_type __navail = size_type(this->_M_impl._M_end_of_storage
	.loc 13 632 49
	movq	-56(%rbp), %rax	# this, tmp122
	movq	16(%rax), %rdx	# this_42(D)->D.58502._M_impl.D.57841._M_end_of_storage, _1
# /usr/include/c++/12/bits/vector.tcc:633: 					 - this->_M_impl._M_finish);
	.loc 13 633 23
	movq	-56(%rbp), %rax	# this, tmp123
	movq	8(%rax), %rax	# this_42(D)->D.58502._M_impl.D.57841._M_finish, _2
# /usr/include/c++/12/bits/vector.tcc:633: 					 - this->_M_impl._M_finish);
	.loc 13 633 7
	subq	%rax, %rdx	# _2, _3
	movq	%rdx, %rax	# _3, _3
	sarq	$2, %rax	#, _3
# /usr/include/c++/12/bits/vector.tcc:632: 	  size_type __navail = size_type(this->_M_impl._M_end_of_storage
	.loc 13 632 14
	movq	%rax, -32(%rbp)	# _4, __navail
# /usr/include/c++/12/bits/vector.tcc:635: 	  if (__size > max_size() || __navail > max_size() - __size)
	.loc 13 635 25
	movq	-56(%rbp), %rax	# this, tmp125
	movq	%rax, %rdi	# tmp125,
	call	_ZNKSt6vectorIiSaIiEE8max_sizeEv	#
# /usr/include/c++/12/bits/vector.tcc:635: 	  if (__size > max_size() || __navail > max_size() - __size)
	.loc 13 635 28
	cmpq	-24(%rbp), %rax	# __size, _5
	jb	.L112	#,
# /usr/include/c++/12/bits/vector.tcc:635: 	  if (__size > max_size() || __navail > max_size() - __size)
	.loc 13 635 50 discriminator 2
	movq	-56(%rbp), %rax	# this, tmp126
	movq	%rax, %rdi	# tmp126,
	call	_ZNKSt6vectorIiSaIiEE8max_sizeEv	#
# /usr/include/c++/12/bits/vector.tcc:635: 	  if (__size > max_size() || __navail > max_size() - __size)
	.loc 13 635 53 discriminator 2
	subq	-24(%rbp), %rax	# __size, _7
# /usr/include/c++/12/bits/vector.tcc:635: 	  if (__size > max_size() || __navail > max_size() - __size)
	.loc 13 635 28 discriminator 2
	cmpq	-32(%rbp), %rax	# __navail, _7
	jnb	.L113	#,
.L112:
# /usr/include/c++/12/bits/vector.tcc:635: 	  if (__size > max_size() || __navail > max_size() - __size)
	.loc 13 635 28 is_stmt 0 discriminator 3
	movl	$1, %eax	#, iftmp.15_35
	jmp	.L114	#
.L113:
# /usr/include/c++/12/bits/vector.tcc:635: 	  if (__size > max_size() || __navail > max_size() - __size)
	.loc 13 635 28 discriminator 4
	movl	$0, %eax	#, iftmp.15_35
.L114:
# /usr/include/c++/12/bits/vector.tcc:635: 	  if (__size > max_size() || __navail > max_size() - __size)
	.loc 13 635 4 is_stmt 1 discriminator 6
	testb	%al, %al	# iftmp.15_35
.LBB29:
# /usr/include/c++/12/bits/vector.tcc:638: 	  if (__navail >= __n)
	.loc 13 638 4 discriminator 6
	movq	-32(%rbp), %rax	# __navail, tmp127
	cmpq	-64(%rbp), %rax	# __n, tmp127
	jb	.L116	#,
# /usr/include/c++/12/bits/vector.tcc:643: 						 __n, _M_get_Tp_allocator());
	.loc 13 643 32
	movq	-56(%rbp), %rax	# this, _8
	movq	%rax, %rdi	# _8,
	call	_ZNSt12_Vector_baseIiSaIiEE19_M_get_Tp_allocatorEv	#
	movq	%rax, %rdx	#, _9
# /usr/include/c++/12/bits/vector.tcc:642: 		std::__uninitialized_default_n_a(this->_M_impl._M_finish,
	.loc 13 642 35
	movq	-56(%rbp), %rax	# this, tmp128
	movq	8(%rax), %rax	# this_42(D)->D.58502._M_impl.D.57841._M_finish, _10
	movq	-64(%rbp), %rcx	# __n, tmp129
	movq	%rcx, %rsi	# tmp129,
	movq	%rax, %rdi	# _10,
.LEHB14:
	call	_ZSt27__uninitialized_default_n_aIPimiET_S1_T0_RSaIT1_E	#
# /usr/include/c++/12/bits/vector.tcc:641: 	      this->_M_impl._M_finish =
	.loc 13 641 32
	movq	-56(%rbp), %rdx	# this, tmp130
	movq	%rax, 8(%rdx)	# _11, this_42(D)->D.58502._M_impl.D.57841._M_finish
.LBE29:
.LBE28:
.LBE27:
# /usr/include/c++/12/bits/vector.tcc:698:     }
	.loc 13 698 5
	jmp	.L121	#
.L116:
.LBB36:
.LBB34:
.LBB32:
.LBB30:
# /usr/include/c++/12/bits/vector.tcc:649: 		_M_check_len(__n, "vector::_M_default_append");
	.loc 13 649 15
	movq	-64(%rbp), %rcx	# __n, tmp131
	movq	-56(%rbp), %rax	# this, tmp132
	leaq	.LC2(%rip), %rdx	#, tmp133
	movq	%rcx, %rsi	# tmp131,
	movq	%rax, %rdi	# tmp132,
	call	_ZNKSt6vectorIiSaIiEE12_M_check_lenEmPKc	#
	movq	%rax, -40(%rbp)	# _52, __len
# /usr/include/c++/12/bits/vector.tcc:650: 	      pointer __new_start(this->_M_allocate(__len));
	.loc 13 650 45
	movq	-56(%rbp), %rax	# this, _12
	movq	-40(%rbp), %rdx	# __len, tmp134
	movq	%rdx, %rsi	# tmp134,
	movq	%rax, %rdi	# _12,
	call	_ZNSt12_Vector_baseIiSaIiEE11_M_allocateEm	#
.LEHE14:
	movq	%rax, -48(%rbp)	# _55, __new_start
# /usr/include/c++/12/bits/vector.tcc:656: 			      __n, _M_get_Tp_allocator());
	.loc 13 656 34
	movq	-56(%rbp), %rax	# this, _13
	movq	%rax, %rdi	# _13,
	call	_ZNSt12_Vector_baseIiSaIiEE19_M_get_Tp_allocatorEv	#
	movq	%rax, %rdx	#, _14
# /usr/include/c++/12/bits/vector.tcc:655: 		      std::__uninitialized_default_n_a(__new_start + __size,
	.loc 13 655 54
	movq	-24(%rbp), %rax	# __size, tmp135
	leaq	0(,%rax,4), %rcx	#, _15
# /usr/include/c++/12/bits/vector.tcc:655: 		      std::__uninitialized_default_n_a(__new_start + __size,
	.loc 13 655 41
	movq	-48(%rbp), %rax	# __new_start, tmp136
	addq	%rax, %rcx	# tmp136, _16
	movq	-64(%rbp), %rax	# __n, tmp137
	movq	%rax, %rsi	# tmp137,
	movq	%rcx, %rdi	# _16,
.LEHB15:
	call	_ZSt27__uninitialized_default_n_aIPimiET_S1_T0_RSaIT1_E	#
.LEHE15:
# /usr/include/c++/12/bits/vector.tcc:664: 			      __new_start, _M_get_Tp_allocator());
	.loc 13 664 42
	movq	-56(%rbp), %rax	# this, _19
	movq	%rax, %rdi	# _19,
	call	_ZNSt12_Vector_baseIiSaIiEE19_M_get_Tp_allocatorEv	#
	movq	%rax, %rcx	#, _20
# /usr/include/c++/12/bits/vector.tcc:663: 		  _S_relocate(this->_M_impl._M_start, this->_M_impl._M_finish,
	.loc 13 663 16
	movq	-56(%rbp), %rax	# this, tmp138
	movq	8(%rax), %rsi	# this_42(D)->D.58502._M_impl.D.57841._M_finish, _21
	movq	-56(%rbp), %rax	# this, tmp139
	movq	(%rax), %rax	# this_42(D)->D.58502._M_impl.D.57841._M_start, _22
	movq	-48(%rbp), %rdx	# __new_start, tmp140
	movq	%rax, %rdi	# _22,
	call	_ZNSt6vectorIiSaIiEE11_S_relocateEPiS2_S2_RS0_	#
# /usr/include/c++/12/bits/vector.tcc:690: 	      _M_deallocate(this->_M_impl._M_start,
	.loc 13 690 21
	movq	-56(%rbp), %rax	# this, _23
# /usr/include/c++/12/bits/vector.tcc:691: 			    this->_M_impl._M_end_of_storage
	.loc 13 691 22
	movq	-56(%rbp), %rdx	# this, tmp141
	movq	16(%rdx), %rcx	# this_42(D)->D.58502._M_impl.D.57841._M_end_of_storage, _24
# /usr/include/c++/12/bits/vector.tcc:692: 			    - this->_M_impl._M_start);
	.loc 13 692 24
	movq	-56(%rbp), %rdx	# this, tmp142
	movq	(%rdx), %rdx	# this_42(D)->D.58502._M_impl.D.57841._M_start, _25
# /usr/include/c++/12/bits/vector.tcc:692: 			    - this->_M_impl._M_start);
	.loc 13 692 8
	subq	%rdx, %rcx	# _25, _26
	sarq	$2, %rcx	#, _26
	movq	%rcx, %rdx	# _26, tmp143
# /usr/include/c++/12/bits/vector.tcc:690: 	      _M_deallocate(this->_M_impl._M_start,
	.loc 13 690 21
	movq	%rdx, %rsi	# _27, _28
	movq	-56(%rbp), %rdx	# this, tmp144
	movq	(%rdx), %rcx	# this_42(D)->D.58502._M_impl.D.57841._M_start, _29
	movq	%rsi, %rdx	# _28,
	movq	%rcx, %rsi	# _29,
	movq	%rax, %rdi	# _23,
.LEHB16:
	call	_ZNSt12_Vector_baseIiSaIiEE13_M_deallocateEPim	#
.LEHE16:
# /usr/include/c++/12/bits/vector.tcc:693: 	      this->_M_impl._M_start = __new_start;
	.loc 13 693 31
	movq	-56(%rbp), %rax	# this, tmp145
	movq	-48(%rbp), %rdx	# __new_start, tmp146
	movq	%rdx, (%rax)	# tmp146, this_42(D)->D.58502._M_impl.D.57841._M_start
# /usr/include/c++/12/bits/vector.tcc:694: 	      this->_M_impl._M_finish = __new_start + __size + __n;
	.loc 13 694 55
	movq	-24(%rbp), %rdx	# __size, tmp147
	movq	-64(%rbp), %rax	# __n, tmp148
	addq	%rdx, %rax	# tmp147, _30
	leaq	0(,%rax,4), %rdx	#, _31
	movq	-48(%rbp), %rax	# __new_start, tmp149
	addq	%rax, %rdx	# tmp149, _32
# /usr/include/c++/12/bits/vector.tcc:694: 	      this->_M_impl._M_finish = __new_start + __size + __n;
	.loc 13 694 32
	movq	-56(%rbp), %rax	# this, tmp150
	movq	%rdx, 8(%rax)	# _32, this_42(D)->D.58502._M_impl.D.57841._M_finish
# /usr/include/c++/12/bits/vector.tcc:695: 	      this->_M_impl._M_end_of_storage = __new_start + __len;
	.loc 13 695 54
	movq	-40(%rbp), %rax	# __len, tmp151
	leaq	0(,%rax,4), %rdx	#, _33
	movq	-48(%rbp), %rax	# __new_start, tmp152
	addq	%rax, %rdx	# tmp152, _34
# /usr/include/c++/12/bits/vector.tcc:695: 	      this->_M_impl._M_end_of_storage = __new_start + __len;
	.loc 13 695 40
	movq	-56(%rbp), %rax	# this, tmp153
	movq	%rdx, 16(%rax)	# _34, this_42(D)->D.58502._M_impl.D.57841._M_end_of_storage
.LBE30:
.LBE32:
.LBE34:
.LBE36:
# /usr/include/c++/12/bits/vector.tcc:698:     }
	.loc 13 698 5
	jmp	.L121	#
.L119:
.LBB37:
.LBB35:
.LBB33:
.LBB31:
# /usr/include/c++/12/bits/vector.tcc:658: 		  __catch(...)
	.loc 13 658 5
	movq	%rax, %rdi	# _17,
	call	__cxa_begin_catch@PLT	#
# /usr/include/c++/12/bits/vector.tcc:660: 		      _M_deallocate(__new_start, __len);
	.loc 13 660 22
	movq	-56(%rbp), %rax	# this, _18
	movq	-40(%rbp), %rdx	# __len, tmp155
	movq	-48(%rbp), %rcx	# __new_start, tmp156
	movq	%rcx, %rsi	# tmp156,
	movq	%rax, %rdi	# _18,
.LEHB17:
	call	_ZNSt12_Vector_baseIiSaIiEE13_M_deallocateEPim	#
# /usr/include/c++/12/bits/vector.tcc:661: 		      __throw_exception_again;
	.loc 13 661 9
	call	__cxa_rethrow@PLT	#
.LEHE17:
.L120:
# /usr/include/c++/12/bits/vector.tcc:658: 		  __catch(...)
	.loc 13 658 5
	movq	%rax, %rbx	#, tmp157
	call	__cxa_end_catch@PLT	#
	movq	%rbx, %rax	# tmp157, D.66177
	movq	%rax, %rdi	# D.66177,
.LEHB18:
	call	_Unwind_Resume@PLT	#
.LEHE18:
.L121:
.LBE31:
.LBE33:
.LBE35:
.LBE37:
# /usr/include/c++/12/bits/vector.tcc:698:     }
	.loc 13 698 5
	nop	
	movq	-8(%rbp), %rbx	#,
	leave	
	.cfi_def_cfa 7, 8
	ret	
	.cfi_endproc
.LFE3086:
	.section	.gcc_except_table
	.align 4
.LLSDA3086:
	.byte	0xff
	.byte	0x9b
	.uleb128 .LLSDATT3086-.LLSDATTD3086
.LLSDATTD3086:
	.byte	0x1
	.uleb128 .LLSDACSE3086-.LLSDACSB3086
.LLSDACSB3086:
	.uleb128 .LEHB14-.LFB3086
	.uleb128 .LEHE14-.LEHB14
	.uleb128 0
	.uleb128 0
	.uleb128 .LEHB15-.LFB3086
	.uleb128 .LEHE15-.LEHB15
	.uleb128 .L119-.LFB3086
	.uleb128 0x1
	.uleb128 .LEHB16-.LFB3086
	.uleb128 .LEHE16-.LEHB16
	.uleb128 0
	.uleb128 0
	.uleb128 .LEHB17-.LFB3086
	.uleb128 .LEHE17-.LEHB17
	.uleb128 .L120-.LFB3086
	.uleb128 0
	.uleb128 .LEHB18-.LFB3086
	.uleb128 .LEHE18-.LEHB18
	.uleb128 0
	.uleb128 0
.LLSDACSE3086:
	.byte	0x1
	.byte	0
	.align 4
	.long	0

.LLSDATT3086:
	.section	.text._ZNSt6vectorIiSaIiEE17_M_default_appendEm,"axG",@progbits,_ZNSt6vectorIiSaIiEE17_M_default_appendEm,comdat
	.size	_ZNSt6vectorIiSaIiEE17_M_default_appendEm, .-_ZNSt6vectorIiSaIiEE17_M_default_appendEm
	.section	.text._ZNSt6vectorIiSaIiEE15_M_erase_at_endEPi,"axG",@progbits,_ZNSt6vectorIiSaIiEE15_M_erase_at_endEPi,comdat
	.align 2
	.weak	_ZNSt6vectorIiSaIiEE15_M_erase_at_endEPi
	.type	_ZNSt6vectorIiSaIiEE15_M_erase_at_endEPi, @function
_ZNSt6vectorIiSaIiEE15_M_erase_at_endEPi:
.LFB3091:
	.loc 5 1928 7
	.cfi_startproc
	.cfi_personality 0x9b,DW.ref.__gxx_personality_v0
	.cfi_lsda 0x1b,.LLSDA3091
	pushq	%rbp	#
	.cfi_def_cfa_offset 16
	.cfi_offset 6, -16
	movq	%rsp, %rbp	#,
	.cfi_def_cfa_register 6
	subq	$32, %rsp	#,
	movq	%rdi, -24(%rbp)	# this, this
	movq	%rsi, -32(%rbp)	# __pos, __pos
.LBB38:
# /usr/include/c++/12/bits/stl_vector.h:1930: 	if (size_type __n = this->_M_impl._M_finish - __pos)
	.loc 5 1930 36
	movq	-24(%rbp), %rax	# this, tmp88
	movq	8(%rax), %rax	# this_9(D)->D.58502._M_impl.D.57841._M_finish, _1
# /usr/include/c++/12/bits/stl_vector.h:1930: 	if (size_type __n = this->_M_impl._M_finish - __pos)
	.loc 5 1930 46
	subq	-32(%rbp), %rax	# __pos, _2
	sarq	$2, %rax	#, tmp89
# /usr/include/c++/12/bits/stl_vector.h:1930: 	if (size_type __n = this->_M_impl._M_finish - __pos)
	.loc 5 1930 16
	movq	%rax, -8(%rbp)	# _3, __n
# /usr/include/c++/12/bits/stl_vector.h:1930: 	if (size_type __n = this->_M_impl._M_finish - __pos)
	.loc 5 1930 2
	cmpq	$0, -8(%rbp)	#, __n
	je	.L124	#,
# /usr/include/c++/12/bits/stl_vector.h:1933: 			  _M_get_Tp_allocator());
	.loc 5 1933 25
	movq	-24(%rbp), %rax	# this, _4
	movq	%rax, %rdi	# _4,
	call	_ZNSt12_Vector_baseIiSaIiEE19_M_get_Tp_allocatorEv	#
	movq	%rax, %rdx	#, _5
# /usr/include/c++/12/bits/stl_vector.h:1932: 	    std::_Destroy(__pos, this->_M_impl._M_finish,
	.loc 5 1932 19
	movq	-24(%rbp), %rax	# this, tmp90
	movq	8(%rax), %rcx	# this_9(D)->D.58502._M_impl.D.57841._M_finish, _6
	movq	-32(%rbp), %rax	# __pos, tmp91
	movq	%rcx, %rsi	# _6,
	movq	%rax, %rdi	# tmp91,
	call	_ZSt8_DestroyIPiiEvT_S1_RSaIT0_E	#
# /usr/include/c++/12/bits/stl_vector.h:1934: 	    this->_M_impl._M_finish = __pos;
	.loc 5 1934 30
	movq	-24(%rbp), %rax	# this, tmp92
	movq	-32(%rbp), %rdx	# __pos, tmp93
	movq	%rdx, 8(%rax)	# tmp93, this_9(D)->D.58502._M_impl.D.57841._M_finish
.L124:
.LBE38:
# /usr/include/c++/12/bits/stl_vector.h:1937:       }
	.loc 5 1937 7
	nop	
	leave	
	.cfi_def_cfa 7, 8
	ret	
	.cfi_endproc
.LFE3091:
	.section	.gcc_except_table
.LLSDA3091:
	.byte	0xff
	.byte	0xff
	.byte	0x1
	.uleb128 .LLSDACSE3091-.LLSDACSB3091
.LLSDACSB3091:
.LLSDACSE3091:
	.section	.text._ZNSt6vectorIiSaIiEE15_M_erase_at_endEPi,"axG",@progbits,_ZNSt6vectorIiSaIiEE15_M_erase_at_endEPi,comdat
	.size	_ZNSt6vectorIiSaIiEE15_M_erase_at_endEPi, .-_ZNSt6vectorIiSaIiEE15_M_erase_at_endEPi
	.section	.text._ZSt8_DestroyIPiEvT_S1_,"axG",@progbits,_ZSt8_DestroyIPiEvT_S1_,comdat
	.weak	_ZSt8_DestroyIPiEvT_S1_
	.type	_ZSt8_DestroyIPiEvT_S1_, @function
_ZSt8_DestroyIPiEvT_S1_:
.LFB3092:
	.file 14 "/usr/include/c++/12/bits/stl_construct.h"
	.loc 14 182 5
	.cfi_startproc
	pushq	%rbp	#
	.cfi_def_cfa_offset 16
	.cfi_offset 6, -16
	movq	%rsp, %rbp	#,
	.cfi_def_cfa_register 6
	subq	$16, %rsp	#,
	movq	%rdi, -8(%rbp)	# __first, __first
	movq	%rsi, -16(%rbp)	# __last, __last
# /usr/include/c++/12/bits/stl_construct.h:196: 	__destroy(__first, __last);
	.loc 14 196 11
	movq	-16(%rbp), %rdx	# __last, tmp82
	movq	-8(%rbp), %rax	# __first, tmp83
	movq	%rdx, %rsi	# tmp82,
	movq	%rax, %rdi	# tmp83,
	call	_ZNSt12_Destroy_auxILb1EE9__destroyIPiEEvT_S3_	#
# /usr/include/c++/12/bits/stl_construct.h:197:     }
	.loc 14 197 5
	nop	
	leave	
	.cfi_def_cfa 7, 8
	ret	
	.cfi_endproc
.LFE3092:
	.size	_ZSt8_DestroyIPiEvT_S1_, .-_ZSt8_DestroyIPiEvT_S1_
	.section	.text._ZNSt12_Vector_baseIlSaIlEE13_M_deallocateEPlm,"axG",@progbits,_ZNSt12_Vector_baseIlSaIlEE13_M_deallocateEPlm,comdat
	.align 2
	.weak	_ZNSt12_Vector_baseIlSaIlEE13_M_deallocateEPlm
	.type	_ZNSt12_Vector_baseIlSaIlEE13_M_deallocateEPlm, @function
_ZNSt12_Vector_baseIlSaIlEE13_M_deallocateEPlm:
.LFB3093:
	.loc 5 383 7
	.cfi_startproc
	pushq	%rbp	#
	.cfi_def_cfa_offset 16
	.cfi_offset 6, -16
	movq	%rsp, %rbp	#,
	.cfi_def_cfa_register 6
	subq	$32, %rsp	#,
	movq	%rdi, -8(%rbp)	# this, this
	movq	%rsi, -16(%rbp)	# __p, __p
	movq	%rdx, -24(%rbp)	# __n, __n
# /usr/include/c++/12/bits/stl_vector.h:386: 	if (__p)
	.loc 5 386 2
	cmpq	$0, -16(%rbp)	#, __p
	je	.L128	#,
# /usr/include/c++/12/bits/stl_vector.h:387: 	  _Tr::deallocate(_M_impl, __p, __n);
	.loc 5 387 20
	movq	-8(%rbp), %rax	# this, _1
# /usr/include/c++/12/bits/stl_vector.h:387: 	  _Tr::deallocate(_M_impl, __p, __n);
	.loc 5 387 19
	movq	-24(%rbp), %rdx	# __n, tmp83
	movq	-16(%rbp), %rcx	# __p, tmp84
	movq	%rcx, %rsi	# tmp84,
	movq	%rax, %rdi	# _1,
	call	_ZNSt16allocator_traitsISaIlEE10deallocateERS0_Plm	#
.L128:
# /usr/include/c++/12/bits/stl_vector.h:388:       }
	.loc 5 388 7
	nop	
	leave	
	.cfi_def_cfa 7, 8
	ret	
	.cfi_endproc
.LFE3093:
	.size	_ZNSt12_Vector_baseIlSaIlEE13_M_deallocateEPlm, .-_ZNSt12_Vector_baseIlSaIlEE13_M_deallocateEPlm
	.section	.text._ZSt8_DestroyIPlEvT_S1_,"axG",@progbits,_ZSt8_DestroyIPlEvT_S1_,comdat
	.weak	_ZSt8_DestroyIPlEvT_S1_
	.type	_ZSt8_DestroyIPlEvT_S1_, @function
_ZSt8_DestroyIPlEvT_S1_:
.LFB3094:
	.loc 14 182 5
	.cfi_startproc
	pushq	%rbp	#
	.cfi_def_cfa_offset 16
	.cfi_offset 6, -16
	movq	%rsp, %rbp	#,
	.cfi_def_cfa_register 6
	subq	$16, %rsp	#,
	movq	%rdi, -8(%rbp)	# __first, __first
	movq	%rsi, -16(%rbp)	# __last, __last
# /usr/include/c++/12/bits/stl_construct.h:196: 	__destroy(__first, __last);
	.loc 14 196 11
	movq	-16(%rbp), %rdx	# __last, tmp82
	movq	-8(%rbp), %rax	# __first, tmp83
	movq	%rdx, %rsi	# tmp82,
	movq	%rax, %rdi	# tmp83,
	call	_ZNSt12_Destroy_auxILb1EE9__destroyIPlEEvT_S3_	#
# /usr/include/c++/12/bits/stl_construct.h:197:     }
	.loc 14 197 5
	nop	
	leave	
	.cfi_def_cfa 7, 8
	ret	
	.cfi_endproc
.LFE3094:
	.size	_ZSt8_DestroyIPlEvT_S1_, .-_ZSt8_DestroyIPlEvT_S1_
	.section	.text._ZNSt15__new_allocatorIiEC2Ev,"axG",@progbits,_ZNSt15__new_allocatorIiEC5Ev,comdat
	.align 2
	.weak	_ZNSt15__new_allocatorIiEC2Ev
	.type	_ZNSt15__new_allocatorIiEC2Ev, @function
_ZNSt15__new_allocatorIiEC2Ev:
.LFB3150:
	.loc 9 80 7
	.cfi_startproc
	pushq	%rbp	#
	.cfi_def_cfa_offset 16
	.cfi_offset 6, -16
	movq	%rsp, %rbp	#,
	.cfi_def_cfa_register 6
	movq	%rdi, -8(%rbp)	# this, this
# /usr/include/c++/12/bits/new_allocator.h:80:       __new_allocator() _GLIBCXX_USE_NOEXCEPT { }
	.loc 9 80 49
	nop	
	popq	%rbp	#
	.cfi_def_cfa 7, 8
	ret	
	.cfi_endproc
.LFE3150:
	.size	_ZNSt15__new_allocatorIiEC2Ev, .-_ZNSt15__new_allocatorIiEC2Ev
	.weak	_ZNSt15__new_allocatorIiEC1Ev
	.set	_ZNSt15__new_allocatorIiEC1Ev,_ZNSt15__new_allocatorIiEC2Ev
	.section	.text._ZNSt16allocator_traitsISaIiEE10deallocateERS0_Pim,"axG",@progbits,_ZNSt16allocator_traitsISaIiEE10deallocateERS0_Pim,comdat
	.weak	_ZNSt16allocator_traitsISaIiEE10deallocateERS0_Pim
	.type	_ZNSt16allocator_traitsISaIiEE10deallocateERS0_Pim, @function
_ZNSt16allocator_traitsISaIiEE10deallocateERS0_Pim:
.LFB3152:
	.loc 8 495 7
	.cfi_startproc
	pushq	%rbp	#
	.cfi_def_cfa_offset 16
	.cfi_offset 6, -16
	movq	%rsp, %rbp	#,
	.cfi_def_cfa_register 6
	subq	$32, %rsp	#,
	movq	%rdi, -8(%rbp)	# __a, __a
	movq	%rsi, -16(%rbp)	# __p, __p
	movq	%rdx, -24(%rbp)	# __n, __n
# /usr/include/c++/12/bits/alloc_traits.h:496:       { __a.deallocate(__p, __n); }
	.loc 8 496 23
	movq	-24(%rbp), %rdx	# __n, tmp82
	movq	-16(%rbp), %rcx	# __p, tmp83
	movq	-8(%rbp), %rax	# __a, tmp84
	movq	%rcx, %rsi	# tmp83,
	movq	%rax, %rdi	# tmp84,
	call	_ZNSt15__new_allocatorIiE10deallocateEPim	#
# /usr/include/c++/12/bits/alloc_traits.h:496:       { __a.deallocate(__p, __n); }
	.loc 8 496 35
	nop	
	leave	
	.cfi_def_cfa 7, 8
	ret	
	.cfi_endproc
.LFE3152:
	.size	_ZNSt16allocator_traitsISaIiEE10deallocateERS0_Pim, .-_ZNSt16allocator_traitsISaIiEE10deallocateERS0_Pim
	.section	.text._ZNSt12_Vector_baseIlSaIlEE12_Vector_implC2ERKS0_,"axG",@progbits,_ZNSt12_Vector_baseIlSaIlEE12_Vector_implC5ERKS0_,comdat
	.align 2
	.weak	_ZNSt12_Vector_baseIlSaIlEE12_Vector_implC2ERKS0_
	.type	_ZNSt12_Vector_baseIlSaIlEE12_Vector_implC2ERKS0_, @function
_ZNSt12_Vector_baseIlSaIlEE12_Vector_implC2ERKS0_:
.LFB3154:
	.loc 5 143 2
	.cfi_startproc
	pushq	%rbp	#
	.cfi_def_cfa_offset 16
	.cfi_offset 6, -16
	movq	%rsp, %rbp	#,
	.cfi_def_cfa_register 6
	subq	$16, %rsp	#,
	movq	%rdi, -8(%rbp)	# this, this
	movq	%rsi, -16(%rbp)	# __a, __a
.LBB39:
# /usr/include/c++/12/bits/stl_vector.h:144: 	: _Tp_alloc_type(__a)
	.loc 5 144 22
	movq	-16(%rbp), %rdx	# __a, tmp83
	movq	-8(%rbp), %rax	# this, tmp84
	movq	%rdx, %rsi	# tmp83,
	movq	%rax, %rdi	# tmp84,
	call	_ZNSaIlEC2ERKS_	#
	movq	-8(%rbp), %rax	# this, _1
	movq	%rax, %rdi	# _1,
	call	_ZNSt12_Vector_baseIlSaIlEE17_Vector_impl_dataC2Ev	#
.LBE39:
# /usr/include/c++/12/bits/stl_vector.h:145: 	{ }
	.loc 5 145 4
	nop	
	leave	
	.cfi_def_cfa 7, 8
	ret	
	.cfi_endproc
.LFE3154:
	.size	_ZNSt12_Vector_baseIlSaIlEE12_Vector_implC2ERKS0_, .-_ZNSt12_Vector_baseIlSaIlEE12_Vector_implC2ERKS0_
	.weak	_ZNSt12_Vector_baseIlSaIlEE12_Vector_implC1ERKS0_
	.set	_ZNSt12_Vector_baseIlSaIlEE12_Vector_implC1ERKS0_,_ZNSt12_Vector_baseIlSaIlEE12_Vector_implC2ERKS0_
	.section	.text._ZNKSt16initializer_listIlE4sizeEv,"axG",@progbits,_ZNKSt16initializer_listIlE4sizeEv,comdat
	.align 2
	.weak	_ZNKSt16initializer_listIlE4sizeEv
	.type	_ZNKSt16initializer_listIlE4sizeEv, @function
_ZNKSt16initializer_listIlE4sizeEv:
.LFB3156:
	.loc 10 71 7
	.cfi_startproc
	pushq	%rbp	#
	.cfi_def_cfa_offset 16
	.cfi_offset 6, -16
	movq	%rsp, %rbp	#,
	.cfi_def_cfa_register 6
	movq	%rdi, -8(%rbp)	# this, this
# /usr/include/c++/12/initializer_list:71:       size() const noexcept { return _M_len; }
	.loc 10 71 38
	movq	-8(%rbp), %rax	# this, tmp84
	movq	8(%rax), %rax	# this_2(D)->_M_len, _3
# /usr/include/c++/12/initializer_list:71:       size() const noexcept { return _M_len; }
	.loc 10 71 46
	popq	%rbp	#
	.cfi_def_cfa 7, 8
	ret	
	.cfi_endproc
.LFE3156:
	.size	_ZNKSt16initializer_listIlE4sizeEv, .-_ZNKSt16initializer_listIlE4sizeEv
	.section	.text._ZSt19__iterator_categoryIPKlENSt15iterator_traitsIT_E17iterator_categoryERKS3_,"axG",@progbits,_ZSt19__iterator_categoryIPKlENSt15iterator_traitsIT_E17iterator_categoryERKS3_,comdat
	.weak	_ZSt19__iterator_categoryIPKlENSt15iterator_traitsIT_E17iterator_categoryERKS3_
	.type	_ZSt19__iterator_categoryIPKlENSt15iterator_traitsIT_E17iterator_categoryERKS3_, @function
_ZSt19__iterator_categoryIPKlENSt15iterator_traitsIT_E17iterator_categoryERKS3_:
.LFB3157:
	.file 15 "/usr/include/c++/12/bits/stl_iterator_base_types.h"
	.loc 15 238 5
	.cfi_startproc
	pushq	%rbp	#
	.cfi_def_cfa_offset 16
	.cfi_offset 6, -16
	movq	%rsp, %rbp	#,
	.cfi_def_cfa_register 6
	movq	%rdi, -8(%rbp)	# D.64778, D.64778
# /usr/include/c++/12/bits/stl_iterator_base_types.h:239:     { return typename iterator_traits<_Iter>::iterator_category(); }
	.loc 15 239 65
	nop	
# /usr/include/c++/12/bits/stl_iterator_base_types.h:239:     { return typename iterator_traits<_Iter>::iterator_category(); }
	.loc 15 239 68
	popq	%rbp	#
	.cfi_def_cfa 7, 8
	ret	
	.cfi_endproc
.LFE3157:
	.size	_ZSt19__iterator_categoryIPKlENSt15iterator_traitsIT_E17iterator_categoryERKS3_, .-_ZSt19__iterator_categoryIPKlENSt15iterator_traitsIT_E17iterator_categoryERKS3_
	.section	.text._ZSt10__distanceIPKlENSt15iterator_traitsIT_E15difference_typeES3_S3_St26random_access_iterator_tag,"axG",@progbits,_ZSt10__distanceIPKlENSt15iterator_traitsIT_E15difference_typeES3_S3_St26random_access_iterator_tag,comdat
	.weak	_ZSt10__distanceIPKlENSt15iterator_traitsIT_E15difference_typeES3_S3_St26random_access_iterator_tag
	.type	_ZSt10__distanceIPKlENSt15iterator_traitsIT_E15difference_typeES3_S3_St26random_access_iterator_tag, @function
_ZSt10__distanceIPKlENSt15iterator_traitsIT_E15difference_typeES3_S3_St26random_access_iterator_tag:
.LFB3158:
	.loc 11 99 5
	.cfi_startproc
	pushq	%rbp	#
	.cfi_def_cfa_offset 16
	.cfi_offset 6, -16
	movq	%rsp, %rbp	#,
	.cfi_def_cfa_register 6
	movq	%rdi, -8(%rbp)	# __first, __first
	movq	%rsi, -16(%rbp)	# __last, __last
# /usr/include/c++/12/bits/stl_iterator_base_funcs.h:105:       return __last - __first;
	.loc 11 105 21
	movq	-16(%rbp), %rax	# __last, tmp85
	subq	-8(%rbp), %rax	# __first, _1
# /usr/include/c++/12/bits/stl_iterator_base_funcs.h:105:       return __last - __first;
	.loc 11 105 23
	sarq	$3, %rax	#, tmp86
# /usr/include/c++/12/bits/stl_iterator_base_funcs.h:106:     }
	.loc 11 106 5
	popq	%rbp	#
	.cfi_def_cfa 7, 8
	ret	
	.cfi_endproc
.LFE3158:
	.size	_ZSt10__distanceIPKlENSt15iterator_traitsIT_E15difference_typeES3_S3_St26random_access_iterator_tag, .-_ZSt10__distanceIPKlENSt15iterator_traitsIT_E15difference_typeES3_S3_St26random_access_iterator_tag
	.section	.rodata
	.align 8
.LC3:
	.string	"cannot create std::vector larger than max_size()"
	.section	.text._ZNSt6vectorIlSaIlEE17_S_check_init_lenEmRKS0_,"axG",@progbits,_ZNSt6vectorIlSaIlEE17_S_check_init_lenEmRKS0_,comdat
	.weak	_ZNSt6vectorIlSaIlEE17_S_check_init_lenEmRKS0_
	.type	_ZNSt6vectorIlSaIlEE17_S_check_init_lenEmRKS0_, @function
_ZNSt6vectorIlSaIlEE17_S_check_init_lenEmRKS0_:
.LFB3159:
	.loc 5 1902 7
	.cfi_startproc
	pushq	%rbp	#
	.cfi_def_cfa_offset 16
	.cfi_offset 6, -16
	movq	%rsp, %rbp	#,
	.cfi_def_cfa_register 6
	pushq	%rbx	#
	subq	$40, %rsp	#,
	.cfi_offset 3, -24
	movq	%rdi, -40(%rbp)	# __n, __n
	movq	%rsi, -48(%rbp)	# __a, __a
# /usr/include/c++/12/bits/stl_vector.h:1904: 	if (__n > _S_max_size(_Tp_alloc_type(__a)))
	.loc 5 1904 24
	movq	-48(%rbp), %rdx	# __a, tmp86
	leaq	-17(%rbp), %rax	#, tmp87
	movq	%rdx, %rsi	# tmp86,
	movq	%rax, %rdi	# tmp87,
	call	_ZNSaIlEC1ERKS_	#
# /usr/include/c++/12/bits/stl_vector.h:1904: 	if (__n > _S_max_size(_Tp_alloc_type(__a)))
	.loc 5 1904 23
	leaq	-17(%rbp), %rax	#, tmp88
	movq	%rax, %rdi	# tmp88,
	call	_ZNSt6vectorIlSaIlEE11_S_max_sizeERKS0_	#
# /usr/include/c++/12/bits/stl_vector.h:1904: 	if (__n > _S_max_size(_Tp_alloc_type(__a)))
	.loc 5 1904 10
	cmpq	-40(%rbp), %rax	# __n, _1
	setb	%bl	#, retval.5_7
# /usr/include/c++/12/bits/stl_vector.h:1904: 	if (__n > _S_max_size(_Tp_alloc_type(__a)))
	.loc 5 1904 24
	leaq	-17(%rbp), %rax	#, tmp89
	movq	%rax, %rdi	# tmp89,
	call	_ZNSaIlED1Ev	#
# /usr/include/c++/12/bits/stl_vector.h:1904: 	if (__n > _S_max_size(_Tp_alloc_type(__a)))
	.loc 5 1904 2
	testb	%bl, %bl	# retval.5_7
	je	.L140	#,
# /usr/include/c++/12/bits/stl_vector.h:1905: 	  __throw_length_error(
	.loc 5 1905 24
	leaq	.LC3(%rip), %rax	#, tmp90
	movq	%rax, %rdi	# tmp90,
	call	_ZSt20__throw_length_errorPKc@PLT	#
.L140:
# /usr/include/c++/12/bits/stl_vector.h:1907: 	return __n;
	.loc 5 1907 9
	movq	-40(%rbp), %rax	# __n, _10
# /usr/include/c++/12/bits/stl_vector.h:1908:       }
	.loc 5 1908 7
	movq	-8(%rbp), %rbx	#,
	leave	
	.cfi_def_cfa 7, 8
	ret	
	.cfi_endproc
.LFE3159:
	.size	_ZNSt6vectorIlSaIlEE17_S_check_init_lenEmRKS0_, .-_ZNSt6vectorIlSaIlEE17_S_check_init_lenEmRKS0_
	.section	.text._ZNSt12_Vector_baseIlSaIlEE11_M_allocateEm,"axG",@progbits,_ZNSt12_Vector_baseIlSaIlEE11_M_allocateEm,comdat
	.align 2
	.weak	_ZNSt12_Vector_baseIlSaIlEE11_M_allocateEm
	.type	_ZNSt12_Vector_baseIlSaIlEE11_M_allocateEm, @function
_ZNSt12_Vector_baseIlSaIlEE11_M_allocateEm:
.LFB3160:
	.loc 5 375 7
	.cfi_startproc
	pushq	%rbp	#
	.cfi_def_cfa_offset 16
	.cfi_offset 6, -16
	movq	%rsp, %rbp	#,
	.cfi_def_cfa_register 6
	subq	$16, %rsp	#,
	movq	%rdi, -8(%rbp)	# this, this
	movq	%rsi, -16(%rbp)	# __n, __n
# /usr/include/c++/12/bits/stl_vector.h:378: 	return __n != 0 ? _Tr::allocate(_M_impl, __n) : pointer();
	.loc 5 378 18
	cmpq	$0, -16(%rbp)	#, __n
	je	.L143	#,
# /usr/include/c++/12/bits/stl_vector.h:378: 	return __n != 0 ? _Tr::allocate(_M_impl, __n) : pointer();
	.loc 5 378 34 discriminator 1
	movq	-8(%rbp), %rax	# this, _1
# /usr/include/c++/12/bits/stl_vector.h:378: 	return __n != 0 ? _Tr::allocate(_M_impl, __n) : pointer();
	.loc 5 378 33 discriminator 1
	movq	-16(%rbp), %rdx	# __n, tmp85
	movq	%rdx, %rsi	# tmp85,
	movq	%rax, %rdi	# _1,
	call	_ZNSt16allocator_traitsISaIlEE8allocateERS0_m	#
# /usr/include/c++/12/bits/stl_vector.h:378: 	return __n != 0 ? _Tr::allocate(_M_impl, __n) : pointer();
	.loc 5 378 58 discriminator 1
	jmp	.L145	#
.L143:
# /usr/include/c++/12/bits/stl_vector.h:378: 	return __n != 0 ? _Tr::allocate(_M_impl, __n) : pointer();
	.loc 5 378 18 discriminator 2
	movl	$0, %eax	#, _9
.L145:
# /usr/include/c++/12/bits/stl_vector.h:379:       }
	.loc 5 379 7 discriminator 5
	leave	
	.cfi_def_cfa 7, 8
	ret	
	.cfi_endproc
.LFE3160:
	.size	_ZNSt12_Vector_baseIlSaIlEE11_M_allocateEm, .-_ZNSt12_Vector_baseIlSaIlEE11_M_allocateEm
	.section	.text._ZSt22__uninitialized_copy_aIPKlPllET0_T_S4_S3_RSaIT1_E,"axG",@progbits,_ZSt22__uninitialized_copy_aIPKlPllET0_T_S4_S3_RSaIT1_E,comdat
	.weak	_ZSt22__uninitialized_copy_aIPKlPllET0_T_S4_S3_RSaIT1_E
	.type	_ZSt22__uninitialized_copy_aIPKlPllET0_T_S4_S3_RSaIT1_E, @function
_ZSt22__uninitialized_copy_aIPKlPllET0_T_S4_S3_RSaIT1_E:
.LFB3161:
	.file 16 "/usr/include/c++/12/bits/stl_uninitialized.h"
	.loc 16 365 5
	.cfi_startproc
	pushq	%rbp	#
	.cfi_def_cfa_offset 16
	.cfi_offset 6, -16
	movq	%rsp, %rbp	#,
	.cfi_def_cfa_register 6
	subq	$32, %rsp	#,
	movq	%rdi, -8(%rbp)	# __first, __first
	movq	%rsi, -16(%rbp)	# __last, __last
	movq	%rdx, -24(%rbp)	# __result, __result
	movq	%rcx, -32(%rbp)	# D.64803, D.64803
# /usr/include/c++/12/bits/stl_uninitialized.h:372:       return std::uninitialized_copy(__first, __last, __result);
	.loc 16 372 37
	movq	-24(%rbp), %rdx	# __result, tmp84
	movq	-16(%rbp), %rcx	# __last, tmp85
	movq	-8(%rbp), %rax	# __first, tmp86
	movq	%rcx, %rsi	# tmp85,
	movq	%rax, %rdi	# tmp86,
	call	_ZSt18uninitialized_copyIPKlPlET0_T_S4_S3_	#
# /usr/include/c++/12/bits/stl_uninitialized.h:373:     }
	.loc 16 373 5
	leave	
	.cfi_def_cfa 7, 8
	ret	
	.cfi_endproc
.LFE3161:
	.size	_ZSt22__uninitialized_copy_aIPKlPllET0_T_S4_S3_RSaIT1_E, .-_ZSt22__uninitialized_copy_aIPKlPllET0_T_S4_S3_RSaIT1_E
	.section	.text._ZNK9__gnu_cxx17__normal_iteratorIPlSt6vectorIlSaIlEEE4baseEv,"axG",@progbits,_ZNK9__gnu_cxx17__normal_iteratorIPlSt6vectorIlSaIlEEE4baseEv,comdat
	.align 2
	.weak	_ZNK9__gnu_cxx17__normal_iteratorIPlSt6vectorIlSaIlEEE4baseEv
	.type	_ZNK9__gnu_cxx17__normal_iteratorIPlSt6vectorIlSaIlEEE4baseEv, @function
_ZNK9__gnu_cxx17__normal_iteratorIPlSt6vectorIlSaIlEEE4baseEv:
.LFB3162:
	.loc 12 1158 7
	.cfi_startproc
	pushq	%rbp	#
	.cfi_def_cfa_offset 16
	.cfi_offset 6, -16
	movq	%rsp, %rbp	#,
	.cfi_def_cfa_register 6
	movq	%rdi, -8(%rbp)	# this, this
# /usr/include/c++/12/bits/stl_iterator.h:1159:       { return _M_current; }
	.loc 12 1159 16
	movq	-8(%rbp), %rax	# this, _2
# /usr/include/c++/12/bits/stl_iterator.h:1159:       { return _M_current; }
	.loc 12 1159 28
	popq	%rbp	#
	.cfi_def_cfa 7, 8
	ret	
	.cfi_endproc
.LFE3162:
	.size	_ZNK9__gnu_cxx17__normal_iteratorIPlSt6vectorIlSaIlEEE4baseEv, .-_ZNK9__gnu_cxx17__normal_iteratorIPlSt6vectorIlSaIlEEE4baseEv
	.section	.text._ZNKSt6vectorIiSaIiEE8max_sizeEv,"axG",@progbits,_ZNKSt6vectorIiSaIiEE8max_sizeEv,comdat
	.align 2
	.weak	_ZNKSt6vectorIiSaIiEE8max_sizeEv
	.type	_ZNKSt6vectorIiSaIiEE8max_sizeEv, @function
_ZNKSt6vectorIiSaIiEE8max_sizeEv:
.LFB3163:
	.loc 5 993 7
	.cfi_startproc
	pushq	%rbp	#
	.cfi_def_cfa_offset 16
	.cfi_offset 6, -16
	movq	%rsp, %rbp	#,
	.cfi_def_cfa_register 6
	subq	$16, %rsp	#,
	movq	%rdi, -8(%rbp)	# this, this
# /usr/include/c++/12/bits/stl_vector.h:994:       { return _S_max_size(_M_get_Tp_allocator()); }
	.loc 5 994 47
	movq	-8(%rbp), %rax	# this, _1
	movq	%rax, %rdi	# _1,
	call	_ZNKSt12_Vector_baseIiSaIiEE19_M_get_Tp_allocatorEv	#
# /usr/include/c++/12/bits/stl_vector.h:994:       { return _S_max_size(_M_get_Tp_allocator()); }
	.loc 5 994 27
	movq	%rax, %rdi	# _2,
	call	_ZNSt6vectorIiSaIiEE11_S_max_sizeERKS0_	#
# /usr/include/c++/12/bits/stl_vector.h:994:       { return _S_max_size(_M_get_Tp_allocator()); }
	.loc 5 994 52
	leave	
	.cfi_def_cfa 7, 8
	ret	
	.cfi_endproc
.LFE3163:
	.size	_ZNKSt6vectorIiSaIiEE8max_sizeEv, .-_ZNKSt6vectorIiSaIiEE8max_sizeEv
	.section	.text._ZSt27__uninitialized_default_n_aIPimiET_S1_T0_RSaIT1_E,"axG",@progbits,_ZSt27__uninitialized_default_n_aIPimiET_S1_T0_RSaIT1_E,comdat
	.weak	_ZSt27__uninitialized_default_n_aIPimiET_S1_T0_RSaIT1_E
	.type	_ZSt27__uninitialized_default_n_aIPimiET_S1_T0_RSaIT1_E, @function
_ZSt27__uninitialized_default_n_aIPimiET_S1_T0_RSaIT1_E:
.LFB3164:
	.loc 16 764 5
	.cfi_startproc
	pushq	%rbp	#
	.cfi_def_cfa_offset 16
	.cfi_offset 6, -16
	movq	%rsp, %rbp	#,
	.cfi_def_cfa_register 6
	subq	$32, %rsp	#,
	movq	%rdi, -8(%rbp)	# __first, __first
	movq	%rsi, -16(%rbp)	# __n, __n
	movq	%rdx, -24(%rbp)	# D.64813, D.64813
# /usr/include/c++/12/bits/stl_uninitialized.h:766:     { return std::__uninitialized_default_n(__first, __n); }
	.loc 16 766 44
	movq	-16(%rbp), %rdx	# __n, tmp84
	movq	-8(%rbp), %rax	# __first, tmp85
	movq	%rdx, %rsi	# tmp84,
	movq	%rax, %rdi	# tmp85,
	call	_ZSt25__uninitialized_default_nIPimET_S1_T0_	#
# /usr/include/c++/12/bits/stl_uninitialized.h:766:     { return std::__uninitialized_default_n(__first, __n); }
	.loc 16 766 60
	leave	
	.cfi_def_cfa 7, 8
	ret	
	.cfi_endproc
.LFE3164:
	.size	_ZSt27__uninitialized_default_n_aIPimiET_S1_T0_RSaIT1_E, .-_ZSt27__uninitialized_default_n_aIPimiET_S1_T0_RSaIT1_E
	.section	.text._ZNKSt6vectorIiSaIiEE12_M_check_lenEmPKc,"axG",@progbits,_ZNKSt6vectorIiSaIiEE12_M_check_lenEmPKc,comdat
	.align 2
	.weak	_ZNKSt6vectorIiSaIiEE12_M_check_lenEmPKc
	.type	_ZNKSt6vectorIiSaIiEE12_M_check_lenEmPKc, @function
_ZNKSt6vectorIiSaIiEE12_M_check_lenEmPKc:
.LFB3165:
	.loc 5 1891 7
	.cfi_startproc
	pushq	%rbp	#
	.cfi_def_cfa_offset 16
	.cfi_offset 6, -16
	movq	%rsp, %rbp	#,
	.cfi_def_cfa_register 6
	pushq	%rbx	#
	subq	$56, %rsp	#,
	.cfi_offset 3, -24
	movq	%rdi, -40(%rbp)	# this, this
	movq	%rsi, -48(%rbp)	# __n, __n
	movq	%rdx, -56(%rbp)	# __s, __s
# /usr/include/c++/12/bits/stl_vector.h:1893: 	if (max_size() - size() < __n)
	.loc 5 1893 14
	movq	-40(%rbp), %rax	# this, tmp95
	movq	%rax, %rdi	# tmp95,
	call	_ZNKSt6vectorIiSaIiEE8max_sizeEv	#
	movq	%rax, %rbx	#, _1
# /usr/include/c++/12/bits/stl_vector.h:1893: 	if (max_size() - size() < __n)
	.loc 5 1893 23
	movq	-40(%rbp), %rax	# this, tmp96
	movq	%rax, %rdi	# tmp96,
	call	_ZNKSt6vectorIiSaIiEE4sizeEv	#
# /usr/include/c++/12/bits/stl_vector.h:1893: 	if (max_size() - size() < __n)
	.loc 5 1893 17
	subq	%rax, %rbx	# _2, _1
	movq	%rbx, %rdx	# _1, _3
# /usr/include/c++/12/bits/stl_vector.h:1893: 	if (max_size() - size() < __n)
	.loc 5 1893 26
	movq	-48(%rbp), %rax	# __n, __n.17_4
	cmpq	%rax, %rdx	# __n.17_4, _3
	setb	%al	#, retval.16_18
# /usr/include/c++/12/bits/stl_vector.h:1893: 	if (max_size() - size() < __n)
	.loc 5 1893 2
	testb	%al, %al	# retval.16_18
	je	.L155	#,
# /usr/include/c++/12/bits/stl_vector.h:1894: 	  __throw_length_error(__N(__s));
	.loc 5 1894 24
	movq	-56(%rbp), %rax	# __s, tmp97
	movq	%rax, %rdi	# tmp97,
	call	_ZSt20__throw_length_errorPKc@PLT	#
.L155:
# /usr/include/c++/12/bits/stl_vector.h:1896: 	const size_type __len = size() + (std::max)(size(), __n);
	.loc 5 1896 30
	movq	-40(%rbp), %rax	# this, tmp98
	movq	%rax, %rdi	# tmp98,
	call	_ZNKSt6vectorIiSaIiEE4sizeEv	#
	movq	%rax, %rbx	#, _5
# /usr/include/c++/12/bits/stl_vector.h:1896: 	const size_type __len = size() + (std::max)(size(), __n);
	.loc 5 1896 50
	movq	-40(%rbp), %rax	# this, tmp99
	movq	%rax, %rdi	# tmp99,
	call	_ZNKSt6vectorIiSaIiEE4sizeEv	#
	movq	%rax, -32(%rbp)	# _6, D.64825
# /usr/include/c++/12/bits/stl_vector.h:1896: 	const size_type __len = size() + (std::max)(size(), __n);
	.loc 5 1896 45
	leaq	-48(%rbp), %rdx	#, tmp100
	leaq	-32(%rbp), %rax	#, tmp101
	movq	%rdx, %rsi	# tmp100,
	movq	%rax, %rdi	# tmp101,
	call	_ZSt3maxImERKT_S2_S2_	#
# /usr/include/c++/12/bits/stl_vector.h:1896: 	const size_type __len = size() + (std::max)(size(), __n);
	.loc 5 1896 33
	movq	(%rax), %rax	# *_7, _8
# /usr/include/c++/12/bits/stl_vector.h:1896: 	const size_type __len = size() + (std::max)(size(), __n);
	.loc 5 1896 18
	addq	%rbx, %rax	# _5, tmp102
	movq	%rax, -24(%rbp)	# tmp102, __len
# /usr/include/c++/12/bits/stl_vector.h:1897: 	return (__len < size() || __len > max_size()) ? max_size() : __len;
	.loc 5 1897 22
	movq	-40(%rbp), %rax	# this, tmp103
	movq	%rax, %rdi	# tmp103,
	call	_ZNKSt6vectorIiSaIiEE4sizeEv	#
# /usr/include/c++/12/bits/stl_vector.h:1897: 	return (__len < size() || __len > max_size()) ? max_size() : __len;
	.loc 5 1897 48
	cmpq	%rax, -24(%rbp)	# _9, __len
	jb	.L156	#,
# /usr/include/c++/12/bits/stl_vector.h:1897: 	return (__len < size() || __len > max_size()) ? max_size() : __len;
	.loc 5 1897 44 discriminator 2
	movq	-40(%rbp), %rax	# this, tmp104
	movq	%rax, %rdi	# tmp104,
	call	_ZNKSt6vectorIiSaIiEE8max_sizeEv	#
# /usr/include/c++/12/bits/stl_vector.h:1897: 	return (__len < size() || __len > max_size()) ? max_size() : __len;
	.loc 5 1897 25 discriminator 2
	cmpq	-24(%rbp), %rax	# __len, _10
	jnb	.L157	#,
.L156:
# /usr/include/c++/12/bits/stl_vector.h:1897: 	return (__len < size() || __len > max_size()) ? max_size() : __len;
	.loc 5 1897 58 discriminator 3
	movq	-40(%rbp), %rax	# this, tmp105
	movq	%rax, %rdi	# tmp105,
	call	_ZNKSt6vectorIiSaIiEE8max_sizeEv	#
# /usr/include/c++/12/bits/stl_vector.h:1897: 	return (__len < size() || __len > max_size()) ? max_size() : __len;
	.loc 5 1897 48 discriminator 3
	jmp	.L158	#
.L157:
# /usr/include/c++/12/bits/stl_vector.h:1897: 	return (__len < size() || __len > max_size()) ? max_size() : __len;
	.loc 5 1897 48 is_stmt 0 discriminator 4
	movq	-24(%rbp), %rax	# __len, iftmp.18_11
.L158:
# /usr/include/c++/12/bits/stl_vector.h:1898:       }
	.loc 5 1898 7 is_stmt 1 discriminator 6
	movq	-8(%rbp), %rbx	#,
	leave	
	.cfi_def_cfa 7, 8
	ret	
	.cfi_endproc
.LFE3165:
	.size	_ZNKSt6vectorIiSaIiEE12_M_check_lenEmPKc, .-_ZNKSt6vectorIiSaIiEE12_M_check_lenEmPKc
	.section	.text._ZNSt12_Vector_baseIiSaIiEE11_M_allocateEm,"axG",@progbits,_ZNSt12_Vector_baseIiSaIiEE11_M_allocateEm,comdat
	.align 2
	.weak	_ZNSt12_Vector_baseIiSaIiEE11_M_allocateEm
	.type	_ZNSt12_Vector_baseIiSaIiEE11_M_allocateEm, @function
_ZNSt12_Vector_baseIiSaIiEE11_M_allocateEm:
.LFB3166:
	.loc 5 375 7
	.cfi_startproc
	pushq	%rbp	#
	.cfi_def_cfa_offset 16
	.cfi_offset 6, -16
	movq	%rsp, %rbp	#,
	.cfi_def_cfa_register 6
	subq	$16, %rsp	#,
	movq	%rdi, -8(%rbp)	# this, this
	movq	%rsi, -16(%rbp)	# __n, __n
# /usr/include/c++/12/bits/stl_vector.h:378: 	return __n != 0 ? _Tr::allocate(_M_impl, __n) : pointer();
	.loc 5 378 18
	cmpq	$0, -16(%rbp)	#, __n
	je	.L161	#,
# /usr/include/c++/12/bits/stl_vector.h:378: 	return __n != 0 ? _Tr::allocate(_M_impl, __n) : pointer();
	.loc 5 378 34 discriminator 1
	movq	-8(%rbp), %rax	# this, _1
# /usr/include/c++/12/bits/stl_vector.h:378: 	return __n != 0 ? _Tr::allocate(_M_impl, __n) : pointer();
	.loc 5 378 33 discriminator 1
	movq	-16(%rbp), %rdx	# __n, tmp85
	movq	%rdx, %rsi	# tmp85,
	movq	%rax, %rdi	# _1,
	call	_ZNSt16allocator_traitsISaIiEE8allocateERS0_m	#
# /usr/include/c++/12/bits/stl_vector.h:378: 	return __n != 0 ? _Tr::allocate(_M_impl, __n) : pointer();
	.loc 5 378 58 discriminator 1
	jmp	.L163	#
.L161:
# /usr/include/c++/12/bits/stl_vector.h:378: 	return __n != 0 ? _Tr::allocate(_M_impl, __n) : pointer();
	.loc 5 378 18 discriminator 2
	movl	$0, %eax	#, _9
.L163:
# /usr/include/c++/12/bits/stl_vector.h:379:       }
	.loc 5 379 7 discriminator 5
	leave	
	.cfi_def_cfa 7, 8
	ret	
	.cfi_endproc
.LFE3166:
	.size	_ZNSt12_Vector_baseIiSaIiEE11_M_allocateEm, .-_ZNSt12_Vector_baseIiSaIiEE11_M_allocateEm
	.section	.text._ZNSt6vectorIiSaIiEE11_S_relocateEPiS2_S2_RS0_,"axG",@progbits,_ZNSt6vectorIiSaIiEE11_S_relocateEPiS2_S2_RS0_,comdat
	.weak	_ZNSt6vectorIiSaIiEE11_S_relocateEPiS2_S2_RS0_
	.type	_ZNSt6vectorIiSaIiEE11_S_relocateEPiS2_S2_RS0_, @function
_ZNSt6vectorIiSaIiEE11_S_relocateEPiS2_S2_RS0_:
.LFB3167:
	.loc 5 499 7
	.cfi_startproc
	pushq	%rbp	#
	.cfi_def_cfa_offset 16
	.cfi_offset 6, -16
	movq	%rsp, %rbp	#,
	.cfi_def_cfa_register 6
	subq	$32, %rsp	#,
	movq	%rdi, -8(%rbp)	# __first, __first
	movq	%rsi, -16(%rbp)	# __last, __last
	movq	%rdx, -24(%rbp)	# __result, __result
	movq	%rcx, -32(%rbp)	# __alloc, __alloc
# /usr/include/c++/12/bits/stl_vector.h:504: 	return std::__relocate_a(__first, __last, __result, __alloc);
	.loc 5 504 26
	movq	-32(%rbp), %rcx	# __alloc, tmp84
	movq	-24(%rbp), %rdx	# __result, tmp85
	movq	-16(%rbp), %rsi	# __last, tmp86
	movq	-8(%rbp), %rax	# __first, tmp87
	movq	%rax, %rdi	# tmp87,
	call	_ZSt12__relocate_aIPiS0_SaIiEET0_T_S3_S2_RT1_	#
# /usr/include/c++/12/bits/stl_vector.h:509:       }
	.loc 5 509 7
	leave	
	.cfi_def_cfa 7, 8
	ret	
	.cfi_endproc
.LFE3167:
	.size	_ZNSt6vectorIiSaIiEE11_S_relocateEPiS2_S2_RS0_, .-_ZNSt6vectorIiSaIiEE11_S_relocateEPiS2_S2_RS0_
	.section	.text._ZNSt12_Destroy_auxILb1EE9__destroyIPiEEvT_S3_,"axG",@progbits,_ZNSt12_Destroy_auxILb1EE9__destroyIPiEEvT_S3_,comdat
	.weak	_ZNSt12_Destroy_auxILb1EE9__destroyIPiEEvT_S3_
	.type	_ZNSt12_Destroy_auxILb1EE9__destroyIPiEEvT_S3_, @function
_ZNSt12_Destroy_auxILb1EE9__destroyIPiEEvT_S3_:
.LFB3168:
	.loc 14 172 9
	.cfi_startproc
	pushq	%rbp	#
	.cfi_def_cfa_offset 16
	.cfi_offset 6, -16
	movq	%rsp, %rbp	#,
	.cfi_def_cfa_register 6
	movq	%rdi, -8(%rbp)	# D.64834, D.64834
	movq	%rsi, -16(%rbp)	# D.64835, D.64835
# /usr/include/c++/12/bits/stl_construct.h:172:         __destroy(_ForwardIterator, _ForwardIterator) { }
	.loc 14 172 57
	nop	
	popq	%rbp	#
	.cfi_def_cfa 7, 8
	ret	
	.cfi_endproc
.LFE3168:
	.size	_ZNSt12_Destroy_auxILb1EE9__destroyIPiEEvT_S3_, .-_ZNSt12_Destroy_auxILb1EE9__destroyIPiEEvT_S3_
	.section	.text._ZNSt16allocator_traitsISaIlEE10deallocateERS0_Plm,"axG",@progbits,_ZNSt16allocator_traitsISaIlEE10deallocateERS0_Plm,comdat
	.weak	_ZNSt16allocator_traitsISaIlEE10deallocateERS0_Plm
	.type	_ZNSt16allocator_traitsISaIlEE10deallocateERS0_Plm, @function
_ZNSt16allocator_traitsISaIlEE10deallocateERS0_Plm:
.LFB3169:
	.loc 8 495 7
	.cfi_startproc
	pushq	%rbp	#
	.cfi_def_cfa_offset 16
	.cfi_offset 6, -16
	movq	%rsp, %rbp	#,
	.cfi_def_cfa_register 6
	subq	$32, %rsp	#,
	movq	%rdi, -8(%rbp)	# __a, __a
	movq	%rsi, -16(%rbp)	# __p, __p
	movq	%rdx, -24(%rbp)	# __n, __n
# /usr/include/c++/12/bits/alloc_traits.h:496:       { __a.deallocate(__p, __n); }
	.loc 8 496 23
	movq	-24(%rbp), %rdx	# __n, tmp82
	movq	-16(%rbp), %rcx	# __p, tmp83
	movq	-8(%rbp), %rax	# __a, tmp84
	movq	%rcx, %rsi	# tmp83,
	movq	%rax, %rdi	# tmp84,
	call	_ZNSt15__new_allocatorIlE10deallocateEPlm	#
# /usr/include/c++/12/bits/alloc_traits.h:496:       { __a.deallocate(__p, __n); }
	.loc 8 496 35
	nop	
	leave	
	.cfi_def_cfa 7, 8
	ret	
	.cfi_endproc
.LFE3169:
	.size	_ZNSt16allocator_traitsISaIlEE10deallocateERS0_Plm, .-_ZNSt16allocator_traitsISaIlEE10deallocateERS0_Plm
	.section	.text._ZNSt12_Destroy_auxILb1EE9__destroyIPlEEvT_S3_,"axG",@progbits,_ZNSt12_Destroy_auxILb1EE9__destroyIPlEEvT_S3_,comdat
	.weak	_ZNSt12_Destroy_auxILb1EE9__destroyIPlEEvT_S3_
	.type	_ZNSt12_Destroy_auxILb1EE9__destroyIPlEEvT_S3_, @function
_ZNSt12_Destroy_auxILb1EE9__destroyIPlEEvT_S3_:
.LFB3170:
	.loc 14 172 9
	.cfi_startproc
	pushq	%rbp	#
	.cfi_def_cfa_offset 16
	.cfi_offset 6, -16
	movq	%rsp, %rbp	#,
	.cfi_def_cfa_register 6
	movq	%rdi, -8(%rbp)	# D.64841, D.64841
	movq	%rsi, -16(%rbp)	# D.64842, D.64842
# /usr/include/c++/12/bits/stl_construct.h:172:         __destroy(_ForwardIterator, _ForwardIterator) { }
	.loc 14 172 57
	nop	
	popq	%rbp	#
	.cfi_def_cfa 7, 8
	ret	
	.cfi_endproc
.LFE3170:
	.size	_ZNSt12_Destroy_auxILb1EE9__destroyIPlEEvT_S3_, .-_ZNSt12_Destroy_auxILb1EE9__destroyIPlEEvT_S3_
	.section	.text._ZNSt15__new_allocatorIiE10deallocateEPim,"axG",@progbits,_ZNSt15__new_allocatorIiE10deallocateEPim,comdat
	.align 2
	.weak	_ZNSt15__new_allocatorIiE10deallocateEPim
	.type	_ZNSt15__new_allocatorIiE10deallocateEPim, @function
_ZNSt15__new_allocatorIiE10deallocateEPim:
.LFB3192:
	.loc 9 142 7
	.cfi_startproc
	pushq	%rbp	#
	.cfi_def_cfa_offset 16
	.cfi_offset 6, -16
	movq	%rsp, %rbp	#,
	.cfi_def_cfa_register 6
	subq	$32, %rsp	#,
	movq	%rdi, -8(%rbp)	# this, this
	movq	%rsi, -16(%rbp)	# __p, __p
	movq	%rdx, -24(%rbp)	# __n, __n
# /usr/include/c++/12/bits/new_allocator.h:158: 	_GLIBCXX_OPERATOR_DELETE(_GLIBCXX_SIZED_DEALLOC(__p, __n));
	.loc 9 158 26
	movq	-24(%rbp), %rax	# __n, tmp83
	leaq	0(,%rax,4), %rdx	#, _2
	movq	-16(%rbp), %rax	# __p, tmp84
	movq	%rdx, %rsi	# _2,
	movq	%rax, %rdi	# tmp84,
	call	_ZdlPvm@PLT	#
# /usr/include/c++/12/bits/new_allocator.h:159:       }
	.loc 9 159 7
	leave	
	.cfi_def_cfa 7, 8
	ret	
	.cfi_endproc
.LFE3192:
	.size	_ZNSt15__new_allocatorIiE10deallocateEPim, .-_ZNSt15__new_allocatorIiE10deallocateEPim
	.section	.text._ZNSaIlEC2ERKS_,"axG",@progbits,_ZNSaIlEC5ERKS_,comdat
	.align 2
	.weak	_ZNSaIlEC2ERKS_
	.type	_ZNSaIlEC2ERKS_, @function
_ZNSaIlEC2ERKS_:
.LFB3194:
	.loc 6 159 7
	.cfi_startproc
	pushq	%rbp	#
	.cfi_def_cfa_offset 16
	.cfi_offset 6, -16
	movq	%rsp, %rbp	#,
	.cfi_def_cfa_register 6
	subq	$16, %rsp	#,
	movq	%rdi, -8(%rbp)	# this, this
	movq	%rsi, -16(%rbp)	# __a, __a
.LBB40:
# /usr/include/c++/12/bits/allocator.h:160:       : __allocator_base<_Tp>(__a) { }
	.loc 6 160 34
	movq	-16(%rbp), %rdx	# __a, tmp82
	movq	-8(%rbp), %rax	# this, tmp83
	movq	%rdx, %rsi	# tmp82,
	movq	%rax, %rdi	# tmp83,
	call	_ZNSt15__new_allocatorIlEC2ERKS0_	#
.LBE40:
# /usr/include/c++/12/bits/allocator.h:160:       : __allocator_base<_Tp>(__a) { }
	.loc 6 160 38
	nop	
	leave	
	.cfi_def_cfa 7, 8
	ret	
	.cfi_endproc
.LFE3194:
	.size	_ZNSaIlEC2ERKS_, .-_ZNSaIlEC2ERKS_
	.weak	_ZNSaIlEC1ERKS_
	.set	_ZNSaIlEC1ERKS_,_ZNSaIlEC2ERKS_
	.section	.text._ZNSt12_Vector_baseIlSaIlEE17_Vector_impl_dataC2Ev,"axG",@progbits,_ZNSt12_Vector_baseIlSaIlEE17_Vector_impl_dataC5Ev,comdat
	.align 2
	.weak	_ZNSt12_Vector_baseIlSaIlEE17_Vector_impl_dataC2Ev
	.type	_ZNSt12_Vector_baseIlSaIlEE17_Vector_impl_dataC2Ev, @function
_ZNSt12_Vector_baseIlSaIlEE17_Vector_impl_dataC2Ev:
.LFB3197:
	.loc 5 99 2
	.cfi_startproc
	pushq	%rbp	#
	.cfi_def_cfa_offset 16
	.cfi_offset 6, -16
	movq	%rsp, %rbp	#,
	.cfi_def_cfa_register 6
	movq	%rdi, -8(%rbp)	# this, this
.LBB41:
# /usr/include/c++/12/bits/stl_vector.h:100: 	: _M_start(), _M_finish(), _M_end_of_storage()
	.loc 5 100 4
	movq	-8(%rbp), %rax	# this, tmp82
	movq	$0, (%rax)	#, this_2(D)->_M_start
# /usr/include/c++/12/bits/stl_vector.h:100: 	: _M_start(), _M_finish(), _M_end_of_storage()
	.loc 5 100 16
	movq	-8(%rbp), %rax	# this, tmp83
	movq	$0, 8(%rax)	#, this_2(D)->_M_finish
# /usr/include/c++/12/bits/stl_vector.h:100: 	: _M_start(), _M_finish(), _M_end_of_storage()
	.loc 5 100 29
	movq	-8(%rbp), %rax	# this, tmp84
	movq	$0, 16(%rax)	#, this_2(D)->_M_end_of_storage
.LBE41:
# /usr/include/c++/12/bits/stl_vector.h:101: 	{ }
	.loc 5 101 4
	nop	
	popq	%rbp	#
	.cfi_def_cfa 7, 8
	ret	
	.cfi_endproc
.LFE3197:
	.size	_ZNSt12_Vector_baseIlSaIlEE17_Vector_impl_dataC2Ev, .-_ZNSt12_Vector_baseIlSaIlEE17_Vector_impl_dataC2Ev
	.weak	_ZNSt12_Vector_baseIlSaIlEE17_Vector_impl_dataC1Ev
	.set	_ZNSt12_Vector_baseIlSaIlEE17_Vector_impl_dataC1Ev,_ZNSt12_Vector_baseIlSaIlEE17_Vector_impl_dataC2Ev
	.section	.text._ZNSt6vectorIlSaIlEE11_S_max_sizeERKS0_,"axG",@progbits,_ZNSt6vectorIlSaIlEE11_S_max_sizeERKS0_,comdat
	.weak	_ZNSt6vectorIlSaIlEE11_S_max_sizeERKS0_
	.type	_ZNSt6vectorIlSaIlEE11_S_max_sizeERKS0_, @function
_ZNSt6vectorIlSaIlEE11_S_max_sizeERKS0_:
.LFB3199:
	.loc 5 1911 7
	.cfi_startproc
	pushq	%rbp	#
	.cfi_def_cfa_offset 16
	.cfi_offset 6, -16
	movq	%rsp, %rbp	#,
	.cfi_def_cfa_register 6
	subq	$32, %rsp	#,
	movq	%rdi, -24(%rbp)	# __a, __a
# /usr/include/c++/12/bits/stl_vector.h:1916: 	const size_t __diffmax
	.loc 5 1916 15
	movabsq	$1152921504606846975, %rax	#, tmp91
	movq	%rax, -8(%rbp)	# tmp91, __diffmax
# /usr/include/c++/12/bits/stl_vector.h:1918: 	const size_t __allocmax = _Alloc_traits::max_size(__a);
	.loc 5 1918 51
	movq	-24(%rbp), %rax	# __a, tmp86
	movq	%rax, %rdi	# tmp86,
	call	_ZNSt16allocator_traitsISaIlEE8max_sizeERKS0_	#
# /usr/include/c++/12/bits/stl_vector.h:1918: 	const size_t __allocmax = _Alloc_traits::max_size(__a);
	.loc 5 1918 15
	movq	%rax, -16(%rbp)	# _1, __allocmax
# /usr/include/c++/12/bits/stl_vector.h:1919: 	return (std::min)(__diffmax, __allocmax);
	.loc 5 1919 19
	leaq	-16(%rbp), %rdx	#, tmp87
	leaq	-8(%rbp), %rax	#, tmp88
	movq	%rdx, %rsi	# tmp87,
	movq	%rax, %rdi	# tmp88,
	call	_ZSt3minImERKT_S2_S2_	#
# /usr/include/c++/12/bits/stl_vector.h:1919: 	return (std::min)(__diffmax, __allocmax);
	.loc 5 1919 41
	movq	(%rax), %rax	# *_2, _9
# /usr/include/c++/12/bits/stl_vector.h:1920:       }
	.loc 5 1920 7
	leave	
	.cfi_def_cfa 7, 8
	ret	
	.cfi_endproc
.LFE3199:
	.size	_ZNSt6vectorIlSaIlEE11_S_max_sizeERKS0_, .-_ZNSt6vectorIlSaIlEE11_S_max_sizeERKS0_
	.section	.text._ZNSt16allocator_traitsISaIlEE8allocateERS0_m,"axG",@progbits,_ZNSt16allocator_traitsISaIlEE8allocateERS0_m,comdat
	.weak	_ZNSt16allocator_traitsISaIlEE8allocateERS0_m
	.type	_ZNSt16allocator_traitsISaIlEE8allocateERS0_m, @function
_ZNSt16allocator_traitsISaIlEE8allocateERS0_m:
.LFB3200:
	.loc 8 463 7
	.cfi_startproc
	pushq	%rbp	#
	.cfi_def_cfa_offset 16
	.cfi_offset 6, -16
	movq	%rsp, %rbp	#,
	.cfi_def_cfa_register 6
	subq	$16, %rsp	#,
	movq	%rdi, -8(%rbp)	# __a, __a
	movq	%rsi, -16(%rbp)	# __n, __n
# /usr/include/c++/12/bits/alloc_traits.h:464:       { return __a.allocate(__n); }
	.loc 8 464 28
	movq	-16(%rbp), %rcx	# __n, tmp84
	movq	-8(%rbp), %rax	# __a, tmp85
	movl	$0, %edx	#,
	movq	%rcx, %rsi	# tmp84,
	movq	%rax, %rdi	# tmp85,
	call	_ZNSt15__new_allocatorIlE8allocateEmPKv	#
# /usr/include/c++/12/bits/alloc_traits.h:464:       { return __a.allocate(__n); }
	.loc 8 464 35
	leave	
	.cfi_def_cfa 7, 8
	ret	
	.cfi_endproc
.LFE3200:
	.size	_ZNSt16allocator_traitsISaIlEE8allocateERS0_m, .-_ZNSt16allocator_traitsISaIlEE8allocateERS0_m
	.section	.text._ZSt18uninitialized_copyIPKlPlET0_T_S4_S3_,"axG",@progbits,_ZSt18uninitialized_copyIPKlPlET0_T_S4_S3_,comdat
	.weak	_ZSt18uninitialized_copyIPKlPlET0_T_S4_S3_
	.type	_ZSt18uninitialized_copyIPKlPlET0_T_S4_S3_, @function
_ZSt18uninitialized_copyIPKlPlET0_T_S4_S3_:
.LFB3201:
	.loc 16 163 5
	.cfi_startproc
	pushq	%rbp	#
	.cfi_def_cfa_offset 16
	.cfi_offset 6, -16
	movq	%rsp, %rbp	#,
	.cfi_def_cfa_register 6
	subq	$48, %rsp	#,
	movq	%rdi, -24(%rbp)	# __first, __first
	movq	%rsi, -32(%rbp)	# __last, __last
	movq	%rdx, -40(%rbp)	# __result, __result
# /usr/include/c++/12/bits/stl_uninitialized.h:174:       const bool __can_memmove = __is_trivial(_ValueType1);
	.loc 16 174 18
	movb	$1, -1(%rbp)	#, __can_memmove
# /usr/include/c++/12/bits/stl_uninitialized.h:181:       const bool __assignable
	.loc 16 181 18
	movb	$1, -2(%rbp)	#, __assignable
# /usr/include/c++/12/bits/stl_uninitialized.h:185: 	__uninit_copy(__first, __last, __result);
	.loc 16 185 15
	movq	-40(%rbp), %rdx	# __result, tmp84
	movq	-32(%rbp), %rcx	# __last, tmp85
	movq	-24(%rbp), %rax	# __first, tmp86
	movq	%rcx, %rsi	# tmp85,
	movq	%rax, %rdi	# tmp86,
	call	_ZNSt20__uninitialized_copyILb1EE13__uninit_copyIPKlPlEET0_T_S6_S5_	#
# /usr/include/c++/12/bits/stl_uninitialized.h:186:     }
	.loc 16 186 5
	leave	
	.cfi_def_cfa 7, 8
	ret	
	.cfi_endproc
.LFE3201:
	.size	_ZSt18uninitialized_copyIPKlPlET0_T_S4_S3_, .-_ZSt18uninitialized_copyIPKlPlET0_T_S4_S3_
	.section	.text._ZNSt6vectorIiSaIiEE11_S_max_sizeERKS0_,"axG",@progbits,_ZNSt6vectorIiSaIiEE11_S_max_sizeERKS0_,comdat
	.weak	_ZNSt6vectorIiSaIiEE11_S_max_sizeERKS0_
	.type	_ZNSt6vectorIiSaIiEE11_S_max_sizeERKS0_, @function
_ZNSt6vectorIiSaIiEE11_S_max_sizeERKS0_:
.LFB3203:
	.loc 5 1911 7
	.cfi_startproc
	pushq	%rbp	#
	.cfi_def_cfa_offset 16
	.cfi_offset 6, -16
	movq	%rsp, %rbp	#,
	.cfi_def_cfa_register 6
	subq	$32, %rsp	#,
	movq	%rdi, -24(%rbp)	# __a, __a
# /usr/include/c++/12/bits/stl_vector.h:1916: 	const size_t __diffmax
	.loc 5 1916 15
	movabsq	$2305843009213693951, %rax	#, tmp91
	movq	%rax, -8(%rbp)	# tmp91, __diffmax
# /usr/include/c++/12/bits/stl_vector.h:1918: 	const size_t __allocmax = _Alloc_traits::max_size(__a);
	.loc 5 1918 51
	movq	-24(%rbp), %rax	# __a, tmp86
	movq	%rax, %rdi	# tmp86,
	call	_ZNSt16allocator_traitsISaIiEE8max_sizeERKS0_	#
# /usr/include/c++/12/bits/stl_vector.h:1918: 	const size_t __allocmax = _Alloc_traits::max_size(__a);
	.loc 5 1918 15
	movq	%rax, -16(%rbp)	# _1, __allocmax
# /usr/include/c++/12/bits/stl_vector.h:1919: 	return (std::min)(__diffmax, __allocmax);
	.loc 5 1919 19
	leaq	-16(%rbp), %rdx	#, tmp87
	leaq	-8(%rbp), %rax	#, tmp88
	movq	%rdx, %rsi	# tmp87,
	movq	%rax, %rdi	# tmp88,
	call	_ZSt3minImERKT_S2_S2_	#
# /usr/include/c++/12/bits/stl_vector.h:1919: 	return (std::min)(__diffmax, __allocmax);
	.loc 5 1919 41
	movq	(%rax), %rax	# *_2, _9
# /usr/include/c++/12/bits/stl_vector.h:1920:       }
	.loc 5 1920 7
	leave	
	.cfi_def_cfa 7, 8
	ret	
	.cfi_endproc
.LFE3203:
	.size	_ZNSt6vectorIiSaIiEE11_S_max_sizeERKS0_, .-_ZNSt6vectorIiSaIiEE11_S_max_sizeERKS0_
	.section	.text._ZNKSt12_Vector_baseIiSaIiEE19_M_get_Tp_allocatorEv,"axG",@progbits,_ZNKSt12_Vector_baseIiSaIiEE19_M_get_Tp_allocatorEv,comdat
	.align 2
	.weak	_ZNKSt12_Vector_baseIiSaIiEE19_M_get_Tp_allocatorEv
	.type	_ZNKSt12_Vector_baseIiSaIiEE19_M_get_Tp_allocatorEv, @function
_ZNKSt12_Vector_baseIiSaIiEE19_M_get_Tp_allocatorEv:
.LFB3204:
	.loc 5 303 7
	.cfi_startproc
	pushq	%rbp	#
	.cfi_def_cfa_offset 16
	.cfi_offset 6, -16
	movq	%rsp, %rbp	#,
	.cfi_def_cfa_register 6
	movq	%rdi, -8(%rbp)	# this, this
# /usr/include/c++/12/bits/stl_vector.h:304:       { return this->_M_impl; }
	.loc 5 304 22
	movq	-8(%rbp), %rax	# this, _2
# /usr/include/c++/12/bits/stl_vector.h:304:       { return this->_M_impl; }
	.loc 5 304 31
	popq	%rbp	#
	.cfi_def_cfa 7, 8
	ret	
	.cfi_endproc
.LFE3204:
	.size	_ZNKSt12_Vector_baseIiSaIiEE19_M_get_Tp_allocatorEv, .-_ZNKSt12_Vector_baseIiSaIiEE19_M_get_Tp_allocatorEv
	.section	.text._ZSt25__uninitialized_default_nIPimET_S1_T0_,"axG",@progbits,_ZSt25__uninitialized_default_nIPimET_S1_T0_,comdat
	.weak	_ZSt25__uninitialized_default_nIPimET_S1_T0_
	.type	_ZSt25__uninitialized_default_nIPimET_S1_T0_, @function
_ZSt25__uninitialized_default_nIPimET_S1_T0_:
.LFB3205:
	.loc 16 691 5
	.cfi_startproc
	pushq	%rbp	#
	.cfi_def_cfa_offset 16
	.cfi_offset 6, -16
	movq	%rsp, %rbp	#,
	.cfi_def_cfa_register 6
	subq	$32, %rsp	#,
	movq	%rdi, -24(%rbp)	# __first, __first
	movq	%rsi, -32(%rbp)	# __n, __n
# /usr/include/c++/12/bits/stl_uninitialized.h:696:       constexpr bool __can_fill
	.loc 16 696 22
	movb	$1, -1(%rbp)	#, __can_fill
# /usr/include/c++/12/bits/stl_uninitialized.h:701: 	__uninit_default_n(__first, __n);
	.loc 16 701 20
	movq	-32(%rbp), %rdx	# __n, tmp84
	movq	-24(%rbp), %rax	# __first, tmp85
	movq	%rdx, %rsi	# tmp84,
	movq	%rax, %rdi	# tmp85,
	call	_ZNSt27__uninitialized_default_n_1ILb1EE18__uninit_default_nIPimEET_S3_T0_	#
# /usr/include/c++/12/bits/stl_uninitialized.h:702:     }
	.loc 16 702 5
	leave	
	.cfi_def_cfa 7, 8
	ret	
	.cfi_endproc
.LFE3205:
	.size	_ZSt25__uninitialized_default_nIPimET_S1_T0_, .-_ZSt25__uninitialized_default_nIPimET_S1_T0_
	.section	.text._ZSt3maxImERKT_S2_S2_,"axG",@progbits,_ZSt3maxImERKT_S2_S2_,comdat
	.weak	_ZSt3maxImERKT_S2_S2_
	.type	_ZSt3maxImERKT_S2_S2_, @function
_ZSt3maxImERKT_S2_S2_:
.LFB3206:
	.loc 2 254 5
	.cfi_startproc
	pushq	%rbp	#
	.cfi_def_cfa_offset 16
	.cfi_offset 6, -16
	movq	%rsp, %rbp	#,
	.cfi_def_cfa_register 6
	movq	%rdi, -8(%rbp)	# __a, __a
	movq	%rsi, -16(%rbp)	# __b, __b
# /usr/include/c++/12/bits/stl_algobase.h:259:       if (__a < __b)
	.loc 2 259 15
	movq	-8(%rbp), %rax	# __a, tmp86
	movq	(%rax), %rdx	# *__a_5(D), _1
	movq	-16(%rbp), %rax	# __b, tmp87
	movq	(%rax), %rax	# *__b_6(D), _2
# /usr/include/c++/12/bits/stl_algobase.h:259:       if (__a < __b)
	.loc 2 259 7
	cmpq	%rax, %rdx	# _2, _1
	jnb	.L186	#,
# /usr/include/c++/12/bits/stl_algobase.h:260: 	return __b;
	.loc 2 260 9
	movq	-16(%rbp), %rax	# __b, _3
	jmp	.L187	#
.L186:
# /usr/include/c++/12/bits/stl_algobase.h:261:       return __a;
	.loc 2 261 14
	movq	-8(%rbp), %rax	# __a, _3
.L187:
# /usr/include/c++/12/bits/stl_algobase.h:262:     }
	.loc 2 262 5
	popq	%rbp	#
	.cfi_def_cfa 7, 8
	ret	
	.cfi_endproc
.LFE3206:
	.size	_ZSt3maxImERKT_S2_S2_, .-_ZSt3maxImERKT_S2_S2_
	.section	.text._ZNSt16allocator_traitsISaIiEE8allocateERS0_m,"axG",@progbits,_ZNSt16allocator_traitsISaIiEE8allocateERS0_m,comdat
	.weak	_ZNSt16allocator_traitsISaIiEE8allocateERS0_m
	.type	_ZNSt16allocator_traitsISaIiEE8allocateERS0_m, @function
_ZNSt16allocator_traitsISaIiEE8allocateERS0_m:
.LFB3207:
	.loc 8 463 7
	.cfi_startproc
	pushq	%rbp	#
	.cfi_def_cfa_offset 16
	.cfi_offset 6, -16
	movq	%rsp, %rbp	#,
	.cfi_def_cfa_register 6
	subq	$16, %rsp	#,
	movq	%rdi, -8(%rbp)	# __a, __a
	movq	%rsi, -16(%rbp)	# __n, __n
# /usr/include/c++/12/bits/alloc_traits.h:464:       { return __a.allocate(__n); }
	.loc 8 464 28
	movq	-16(%rbp), %rcx	# __n, tmp84
	movq	-8(%rbp), %rax	# __a, tmp85
	movl	$0, %edx	#,
	movq	%rcx, %rsi	# tmp84,
	movq	%rax, %rdi	# tmp85,
	call	_ZNSt15__new_allocatorIiE8allocateEmPKv	#
# /usr/include/c++/12/bits/alloc_traits.h:464:       { return __a.allocate(__n); }
	.loc 8 464 35
	leave	
	.cfi_def_cfa 7, 8
	ret	
	.cfi_endproc
.LFE3207:
	.size	_ZNSt16allocator_traitsISaIiEE8allocateERS0_m, .-_ZNSt16allocator_traitsISaIiEE8allocateERS0_m
	.section	.text._ZSt12__relocate_aIPiS0_SaIiEET0_T_S3_S2_RT1_,"axG",@progbits,_ZSt12__relocate_aIPiS0_SaIiEET0_T_S3_S2_RT1_,comdat
	.weak	_ZSt12__relocate_aIPiS0_SaIiEET0_T_S3_S2_RT1_
	.type	_ZSt12__relocate_aIPiS0_SaIiEET0_T_S3_S2_RT1_, @function
_ZSt12__relocate_aIPiS0_SaIiEET0_T_S3_S2_RT1_:
.LFB3208:
	.loc 16 1127 5
	.cfi_startproc
	pushq	%rbp	#
	.cfi_def_cfa_offset 16
	.cfi_offset 6, -16
	movq	%rsp, %rbp	#,
	.cfi_def_cfa_register 6
	pushq	%r12	#
	pushq	%rbx	#
	subq	$32, %rsp	#,
	.cfi_offset 12, -24
	.cfi_offset 3, -32
	movq	%rdi, -24(%rbp)	# __first, __first
	movq	%rsi, -32(%rbp)	# __last, __last
	movq	%rdx, -40(%rbp)	# __result, __result
	movq	%rcx, -48(%rbp)	# __alloc, __alloc
# /usr/include/c++/12/bits/stl_uninitialized.h:1133:       return std::__relocate_a_1(std::__niter_base(__first),
	.loc 16 1133 33
	movq	-40(%rbp), %rax	# __result, tmp87
	movq	%rax, %rdi	# tmp87,
	call	_ZSt12__niter_baseIPiET_S1_	#
	movq	%rax, %r12	#, _1
	movq	-32(%rbp), %rax	# __last, tmp88
	movq	%rax, %rdi	# tmp88,
	call	_ZSt12__niter_baseIPiET_S1_	#
	movq	%rax, %rbx	#, _2
	movq	-24(%rbp), %rax	# __first, tmp89
	movq	%rax, %rdi	# tmp89,
	call	_ZSt12__niter_baseIPiET_S1_	#
	movq	%rax, %rdi	#, _3
	movq	-48(%rbp), %rax	# __alloc, tmp90
	movq	%rax, %rcx	# tmp90,
	movq	%r12, %rdx	# _1,
	movq	%rbx, %rsi	# _2,
	call	_ZSt14__relocate_a_1IiiENSt9enable_ifIXsrSt24__is_bitwise_relocatableIT_vE5valueEPS2_E4typeES4_S4_S4_RSaIT0_E	#
# /usr/include/c++/12/bits/stl_uninitialized.h:1136:     }
	.loc 16 1136 5
	addq	$32, %rsp	#,
	popq	%rbx	#
	popq	%r12	#
	popq	%rbp	#
	.cfi_def_cfa 7, 8
	ret	
	.cfi_endproc
.LFE3208:
	.size	_ZSt12__relocate_aIPiS0_SaIiEET0_T_S3_S2_RT1_, .-_ZSt12__relocate_aIPiS0_SaIiEET0_T_S3_S2_RT1_
	.section	.text._ZNSt15__new_allocatorIlE10deallocateEPlm,"axG",@progbits,_ZNSt15__new_allocatorIlE10deallocateEPlm,comdat
	.align 2
	.weak	_ZNSt15__new_allocatorIlE10deallocateEPlm
	.type	_ZNSt15__new_allocatorIlE10deallocateEPlm, @function
_ZNSt15__new_allocatorIlE10deallocateEPlm:
.LFB3209:
	.loc 9 142 7
	.cfi_startproc
	pushq	%rbp	#
	.cfi_def_cfa_offset 16
	.cfi_offset 6, -16
	movq	%rsp, %rbp	#,
	.cfi_def_cfa_register 6
	subq	$32, %rsp	#,
	movq	%rdi, -8(%rbp)	# this, this
	movq	%rsi, -16(%rbp)	# __p, __p
	movq	%rdx, -24(%rbp)	# __n, __n
# /usr/include/c++/12/bits/new_allocator.h:158: 	_GLIBCXX_OPERATOR_DELETE(_GLIBCXX_SIZED_DEALLOC(__p, __n));
	.loc 9 158 26
	movq	-24(%rbp), %rax	# __n, tmp83
	leaq	0(,%rax,8), %rdx	#, _2
	movq	-16(%rbp), %rax	# __p, tmp84
	movq	%rdx, %rsi	# _2,
	movq	%rax, %rdi	# tmp84,
	call	_ZdlPvm@PLT	#
# /usr/include/c++/12/bits/new_allocator.h:159:       }
	.loc 9 159 7
	leave	
	.cfi_def_cfa 7, 8
	ret	
	.cfi_endproc
.LFE3209:
	.size	_ZNSt15__new_allocatorIlE10deallocateEPlm, .-_ZNSt15__new_allocatorIlE10deallocateEPlm
	.section	.text._ZNSt15__new_allocatorIlEC2ERKS0_,"axG",@progbits,_ZNSt15__new_allocatorIlEC5ERKS0_,comdat
	.align 2
	.weak	_ZNSt15__new_allocatorIlEC2ERKS0_
	.type	_ZNSt15__new_allocatorIlEC2ERKS0_, @function
_ZNSt15__new_allocatorIlEC2ERKS0_:
.LFB3220:
	.loc 9 83 7
	.cfi_startproc
	pushq	%rbp	#
	.cfi_def_cfa_offset 16
	.cfi_offset 6, -16
	movq	%rsp, %rbp	#,
	.cfi_def_cfa_register 6
	movq	%rdi, -8(%rbp)	# this, this
	movq	%rsi, -16(%rbp)	# D.56404, D.56404
# /usr/include/c++/12/bits/new_allocator.h:83:       __new_allocator(const __new_allocator&) _GLIBCXX_USE_NOEXCEPT { }
	.loc 9 83 71
	nop	
	popq	%rbp	#
	.cfi_def_cfa 7, 8
	ret	
	.cfi_endproc
.LFE3220:
	.size	_ZNSt15__new_allocatorIlEC2ERKS0_, .-_ZNSt15__new_allocatorIlEC2ERKS0_
	.weak	_ZNSt15__new_allocatorIlEC1ERKS0_
	.set	_ZNSt15__new_allocatorIlEC1ERKS0_,_ZNSt15__new_allocatorIlEC2ERKS0_
	.section	.text._ZNSt16allocator_traitsISaIlEE8max_sizeERKS0_,"axG",@progbits,_ZNSt16allocator_traitsISaIlEE8max_sizeERKS0_,comdat
	.weak	_ZNSt16allocator_traitsISaIlEE8max_sizeERKS0_
	.type	_ZNSt16allocator_traitsISaIlEE8max_sizeERKS0_, @function
_ZNSt16allocator_traitsISaIlEE8max_sizeERKS0_:
.LFB3222:
	.loc 8 547 7
	.cfi_startproc
	pushq	%rbp	#
	.cfi_def_cfa_offset 16
	.cfi_offset 6, -16
	movq	%rsp, %rbp	#,
	.cfi_def_cfa_register 6
	subq	$16, %rsp	#,
	movq	%rdi, -8(%rbp)	# __a, __a
# /usr/include/c++/12/bits/alloc_traits.h:550: 	return __a.max_size();
	.loc 8 550 21
	movq	-8(%rbp), %rax	# __a, tmp84
	movq	%rax, %rdi	# tmp84,
	call	_ZNKSt15__new_allocatorIlE8max_sizeEv	#
# /usr/include/c++/12/bits/alloc_traits.h:554:       }
	.loc 8 554 7
	leave	
	.cfi_def_cfa 7, 8
	ret	
	.cfi_endproc
.LFE3222:
	.size	_ZNSt16allocator_traitsISaIlEE8max_sizeERKS0_, .-_ZNSt16allocator_traitsISaIlEE8max_sizeERKS0_
	.section	.text._ZSt3minImERKT_S2_S2_,"axG",@progbits,_ZSt3minImERKT_S2_S2_,comdat
	.weak	_ZSt3minImERKT_S2_S2_
	.type	_ZSt3minImERKT_S2_S2_, @function
_ZSt3minImERKT_S2_S2_:
.LFB3223:
	.loc 2 230 5
	.cfi_startproc
	pushq	%rbp	#
	.cfi_def_cfa_offset 16
	.cfi_offset 6, -16
	movq	%rsp, %rbp	#,
	.cfi_def_cfa_register 6
	movq	%rdi, -8(%rbp)	# __a, __a
	movq	%rsi, -16(%rbp)	# __b, __b
# /usr/include/c++/12/bits/stl_algobase.h:235:       if (__b < __a)
	.loc 2 235 15
	movq	-16(%rbp), %rax	# __b, tmp86
	movq	(%rax), %rdx	# *__b_5(D), _1
	movq	-8(%rbp), %rax	# __a, tmp87
	movq	(%rax), %rax	# *__a_6(D), _2
# /usr/include/c++/12/bits/stl_algobase.h:235:       if (__b < __a)
	.loc 2 235 7
	cmpq	%rax, %rdx	# _2, _1
	jnb	.L198	#,
# /usr/include/c++/12/bits/stl_algobase.h:236: 	return __b;
	.loc 2 236 9
	movq	-16(%rbp), %rax	# __b, _3
	jmp	.L199	#
.L198:
# /usr/include/c++/12/bits/stl_algobase.h:237:       return __a;
	.loc 2 237 14
	movq	-8(%rbp), %rax	# __a, _3
.L199:
# /usr/include/c++/12/bits/stl_algobase.h:238:     }
	.loc 2 238 5
	popq	%rbp	#
	.cfi_def_cfa 7, 8
	ret	
	.cfi_endproc
.LFE3223:
	.size	_ZSt3minImERKT_S2_S2_, .-_ZSt3minImERKT_S2_S2_
	.section	.text._ZNSt15__new_allocatorIlE8allocateEmPKv,"axG",@progbits,_ZNSt15__new_allocatorIlE8allocateEmPKv,comdat
	.align 2
	.weak	_ZNSt15__new_allocatorIlE8allocateEmPKv
	.type	_ZNSt15__new_allocatorIlE8allocateEmPKv, @function
_ZNSt15__new_allocatorIlE8allocateEmPKv:
.LFB3224:
	.loc 9 112 7
	.cfi_startproc
	pushq	%rbp	#
	.cfi_def_cfa_offset 16
	.cfi_offset 6, -16
	movq	%rsp, %rbp	#,
	.cfi_def_cfa_register 6
	subq	$32, %rsp	#,
	movq	%rdi, -8(%rbp)	# this, this
	movq	%rsi, -16(%rbp)	# __n, __n
	movq	%rdx, -24(%rbp)	# D.65069, D.65069
# /usr/include/c++/12/bits/new_allocator.h:120: 	if (__builtin_expect(__n > this->_M_max_size(), false))
	.loc 9 120 46
	movq	-8(%rbp), %rax	# this, tmp90
	movq	%rax, %rdi	# tmp90,
	call	_ZNKSt15__new_allocatorIlE11_M_max_sizeEv	#
# /usr/include/c++/12/bits/new_allocator.h:120: 	if (__builtin_expect(__n > this->_M_max_size(), false))
	.loc 9 120 27
	cmpq	-16(%rbp), %rax	# __n, _1
	setb	%al	#, _2
# /usr/include/c++/12/bits/new_allocator.h:120: 	if (__builtin_expect(__n > this->_M_max_size(), false))
	.loc 9 120 22
	movzbl	%al, %eax	# _2, _3
	testq	%rax, %rax	# _4
	setne	%al	#, retval.7_10
# /usr/include/c++/12/bits/new_allocator.h:120: 	if (__builtin_expect(__n > this->_M_max_size(), false))
	.loc 9 120 2
	testb	%al, %al	# retval.7_10
	je	.L201	#,
# /usr/include/c++/12/bits/new_allocator.h:124: 	    if (__n > (std::size_t(-1) / sizeof(_Tp)))
	.loc 9 124 6
	movabsq	$2305843009213693951, %rax	#, tmp91
	cmpq	-16(%rbp), %rax	# __n, tmp91
	jnb	.L202	#,
# /usr/include/c++/12/bits/new_allocator.h:125: 	      std::__throw_bad_array_new_length();
	.loc 9 125 41
	call	_ZSt28__throw_bad_array_new_lengthv@PLT	#
.L202:
# /usr/include/c++/12/bits/new_allocator.h:126: 	    std::__throw_bad_alloc();
	.loc 9 126 28
	call	_ZSt17__throw_bad_allocv@PLT	#
.L201:
# /usr/include/c++/12/bits/new_allocator.h:137: 	return static_cast<_Tp*>(_GLIBCXX_OPERATOR_NEW(__n * sizeof(_Tp)));
	.loc 9 137 48
	movq	-16(%rbp), %rax	# __n, tmp92
	salq	$3, %rax	#, _6
	movq	%rax, %rdi	# _6,
	call	_Znwm@PLT	#
# /usr/include/c++/12/bits/new_allocator.h:137: 	return static_cast<_Tp*>(_GLIBCXX_OPERATOR_NEW(__n * sizeof(_Tp)));
	.loc 9 137 67
	nop	
# /usr/include/c++/12/bits/new_allocator.h:138:       }
	.loc 9 138 7
	leave	
	.cfi_def_cfa 7, 8
	ret	
	.cfi_endproc
.LFE3224:
	.size	_ZNSt15__new_allocatorIlE8allocateEmPKv, .-_ZNSt15__new_allocatorIlE8allocateEmPKv
	.section	.text._ZNSt20__uninitialized_copyILb1EE13__uninit_copyIPKlPlEET0_T_S6_S5_,"axG",@progbits,_ZNSt20__uninitialized_copyILb1EE13__uninit_copyIPKlPlEET0_T_S6_S5_,comdat
	.weak	_ZNSt20__uninitialized_copyILb1EE13__uninit_copyIPKlPlEET0_T_S6_S5_
	.type	_ZNSt20__uninitialized_copyILb1EE13__uninit_copyIPKlPlEET0_T_S6_S5_, @function
_ZNSt20__uninitialized_copyILb1EE13__uninit_copyIPKlPlEET0_T_S6_S5_:
.LFB3225:
	.loc 16 145 9
	.cfi_startproc
	pushq	%rbp	#
	.cfi_def_cfa_offset 16
	.cfi_offset 6, -16
	movq	%rsp, %rbp	#,
	.cfi_def_cfa_register 6
	subq	$32, %rsp	#,
	movq	%rdi, -8(%rbp)	# __first, __first
	movq	%rsi, -16(%rbp)	# __last, __last
	movq	%rdx, -24(%rbp)	# __result, __result
# /usr/include/c++/12/bits/stl_uninitialized.h:147:         { return std::copy(__first, __last, __result); }
	.loc 16 147 27
	movq	-24(%rbp), %rdx	# __result, tmp84
	movq	-16(%rbp), %rcx	# __last, tmp85
	movq	-8(%rbp), %rax	# __first, tmp86
	movq	%rcx, %rsi	# tmp85,
	movq	%rax, %rdi	# tmp86,
	call	_ZSt4copyIPKlPlET0_T_S4_S3_	#
# /usr/include/c++/12/bits/stl_uninitialized.h:147:         { return std::copy(__first, __last, __result); }
	.loc 16 147 56
	leave	
	.cfi_def_cfa 7, 8
	ret	
	.cfi_endproc
.LFE3225:
	.size	_ZNSt20__uninitialized_copyILb1EE13__uninit_copyIPKlPlEET0_T_S6_S5_, .-_ZNSt20__uninitialized_copyILb1EE13__uninit_copyIPKlPlEET0_T_S6_S5_
	.section	.text._ZNSt16allocator_traitsISaIiEE8max_sizeERKS0_,"axG",@progbits,_ZNSt16allocator_traitsISaIiEE8max_sizeERKS0_,comdat
	.weak	_ZNSt16allocator_traitsISaIiEE8max_sizeERKS0_
	.type	_ZNSt16allocator_traitsISaIiEE8max_sizeERKS0_, @function
_ZNSt16allocator_traitsISaIiEE8max_sizeERKS0_:
.LFB3226:
	.loc 8 547 7
	.cfi_startproc
	pushq	%rbp	#
	.cfi_def_cfa_offset 16
	.cfi_offset 6, -16
	movq	%rsp, %rbp	#,
	.cfi_def_cfa_register 6
	subq	$16, %rsp	#,
	movq	%rdi, -8(%rbp)	# __a, __a
# /usr/include/c++/12/bits/alloc_traits.h:550: 	return __a.max_size();
	.loc 8 550 21
	movq	-8(%rbp), %rax	# __a, tmp84
	movq	%rax, %rdi	# tmp84,
	call	_ZNKSt15__new_allocatorIiE8max_sizeEv	#
# /usr/include/c++/12/bits/alloc_traits.h:554:       }
	.loc 8 554 7
	leave	
	.cfi_def_cfa 7, 8
	ret	
	.cfi_endproc
.LFE3226:
	.size	_ZNSt16allocator_traitsISaIiEE8max_sizeERKS0_, .-_ZNSt16allocator_traitsISaIiEE8max_sizeERKS0_
	.section	.text._ZNSt27__uninitialized_default_n_1ILb1EE18__uninit_default_nIPimEET_S3_T0_,"axG",@progbits,_ZNSt27__uninitialized_default_n_1ILb1EE18__uninit_default_nIPimEET_S3_T0_,comdat
	.weak	_ZNSt27__uninitialized_default_n_1ILb1EE18__uninit_default_nIPimEET_S3_T0_
	.type	_ZNSt27__uninitialized_default_n_1ILb1EE18__uninit_default_nIPimEET_S3_T0_, @function
_ZNSt27__uninitialized_default_n_1ILb1EE18__uninit_default_nIPimEET_S3_T0_:
.LFB3227:
	.loc 16 655 9
	.cfi_startproc
	pushq	%rbp	#
	.cfi_def_cfa_offset 16
	.cfi_offset 6, -16
	movq	%rsp, %rbp	#,
	.cfi_def_cfa_register 6
	subq	$32, %rsp	#,
	movq	%rdi, -24(%rbp)	# __first, __first
	movq	%rsi, -32(%rbp)	# __n, __n
.LBB42:
# /usr/include/c++/12/bits/stl_uninitialized.h:657: 	  if (__n > 0)
	.loc 16 657 4
	cmpq	$0, -32(%rbp)	#, __n
	je	.L209	#,
.LBB43:
# /usr/include/c++/12/bits/stl_uninitialized.h:660: 		= std::__addressof(*__first);
	.loc 16 660 21
	movq	-24(%rbp), %rax	# __first, tmp86
	movq	%rax, %rdi	# tmp86,
	call	_ZSt11__addressofIiEPT_RS0_	#
	movq	%rax, -8(%rbp)	# tmp87, __val
# /usr/include/c++/12/bits/stl_uninitialized.h:661: 	      std::_Construct(__val);
	.loc 16 661 23
	movq	-8(%rbp), %rax	# __val, tmp88
	movq	%rax, %rdi	# tmp88,
	call	_ZSt10_ConstructIiJEEvPT_DpOT0_	#
# /usr/include/c++/12/bits/stl_uninitialized.h:662: 	      ++__first;
	.loc 16 662 8
	addq	$4, -24(%rbp)	#, __first
# /usr/include/c++/12/bits/stl_uninitialized.h:663: 	      __first = std::fill_n(__first, __n - 1, *__val);
	.loc 16 663 29
	movq	-32(%rbp), %rax	# __n, tmp89
	leaq	-1(%rax), %rcx	#, _1
	movq	-8(%rbp), %rdx	# __val, tmp90
	movq	-24(%rbp), %rax	# __first, tmp91
	movq	%rcx, %rsi	# _1,
	movq	%rax, %rdi	# tmp91,
	call	_ZSt6fill_nIPimiET_S1_T0_RKT1_	#
	movq	%rax, -24(%rbp)	# _12, __first
.L209:
.LBE43:
.LBE42:
# /usr/include/c++/12/bits/stl_uninitialized.h:665: 	  return __first;
	.loc 16 665 11
	movq	-24(%rbp), %rax	# __first, _14
# /usr/include/c++/12/bits/stl_uninitialized.h:666: 	}
	.loc 16 666 2
	leave	
	.cfi_def_cfa 7, 8
	ret	
	.cfi_endproc
.LFE3227:
	.size	_ZNSt27__uninitialized_default_n_1ILb1EE18__uninit_default_nIPimEET_S3_T0_, .-_ZNSt27__uninitialized_default_n_1ILb1EE18__uninit_default_nIPimEET_S3_T0_
	.section	.text._ZNSt15__new_allocatorIiE8allocateEmPKv,"axG",@progbits,_ZNSt15__new_allocatorIiE8allocateEmPKv,comdat
	.align 2
	.weak	_ZNSt15__new_allocatorIiE8allocateEmPKv
	.type	_ZNSt15__new_allocatorIiE8allocateEmPKv, @function
_ZNSt15__new_allocatorIiE8allocateEmPKv:
.LFB3228:
	.loc 9 112 7
	.cfi_startproc
	pushq	%rbp	#
	.cfi_def_cfa_offset 16
	.cfi_offset 6, -16
	movq	%rsp, %rbp	#,
	.cfi_def_cfa_register 6
	subq	$32, %rsp	#,
	movq	%rdi, -8(%rbp)	# this, this
	movq	%rsi, -16(%rbp)	# __n, __n
	movq	%rdx, -24(%rbp)	# D.65095, D.65095
# /usr/include/c++/12/bits/new_allocator.h:120: 	if (__builtin_expect(__n > this->_M_max_size(), false))
	.loc 9 120 46
	movq	-8(%rbp), %rax	# this, tmp90
	movq	%rax, %rdi	# tmp90,
	call	_ZNKSt15__new_allocatorIiE11_M_max_sizeEv	#
# /usr/include/c++/12/bits/new_allocator.h:120: 	if (__builtin_expect(__n > this->_M_max_size(), false))
	.loc 9 120 27
	cmpq	-16(%rbp), %rax	# __n, _1
	setb	%al	#, _2
# /usr/include/c++/12/bits/new_allocator.h:120: 	if (__builtin_expect(__n > this->_M_max_size(), false))
	.loc 9 120 22
	movzbl	%al, %eax	# _2, _3
	testq	%rax, %rax	# _4
	setne	%al	#, retval.20_10
# /usr/include/c++/12/bits/new_allocator.h:120: 	if (__builtin_expect(__n > this->_M_max_size(), false))
	.loc 9 120 2
	testb	%al, %al	# retval.20_10
	je	.L212	#,
# /usr/include/c++/12/bits/new_allocator.h:124: 	    if (__n > (std::size_t(-1) / sizeof(_Tp)))
	.loc 9 124 6
	movabsq	$4611686018427387903, %rax	#, tmp91
	cmpq	-16(%rbp), %rax	# __n, tmp91
	jnb	.L213	#,
# /usr/include/c++/12/bits/new_allocator.h:125: 	      std::__throw_bad_array_new_length();
	.loc 9 125 41
	call	_ZSt28__throw_bad_array_new_lengthv@PLT	#
.L213:
# /usr/include/c++/12/bits/new_allocator.h:126: 	    std::__throw_bad_alloc();
	.loc 9 126 28
	call	_ZSt17__throw_bad_allocv@PLT	#
.L212:
# /usr/include/c++/12/bits/new_allocator.h:137: 	return static_cast<_Tp*>(_GLIBCXX_OPERATOR_NEW(__n * sizeof(_Tp)));
	.loc 9 137 48
	movq	-16(%rbp), %rax	# __n, tmp92
	salq	$2, %rax	#, _6
	movq	%rax, %rdi	# _6,
	call	_Znwm@PLT	#
# /usr/include/c++/12/bits/new_allocator.h:137: 	return static_cast<_Tp*>(_GLIBCXX_OPERATOR_NEW(__n * sizeof(_Tp)));
	.loc 9 137 67
	nop	
# /usr/include/c++/12/bits/new_allocator.h:138:       }
	.loc 9 138 7
	leave	
	.cfi_def_cfa 7, 8
	ret	
	.cfi_endproc
.LFE3228:
	.size	_ZNSt15__new_allocatorIiE8allocateEmPKv, .-_ZNSt15__new_allocatorIiE8allocateEmPKv
	.section	.text._ZSt12__niter_baseIPiET_S1_,"axG",@progbits,_ZSt12__niter_baseIPiET_S1_,comdat
	.weak	_ZSt12__niter_baseIPiET_S1_
	.type	_ZSt12__niter_baseIPiET_S1_, @function
_ZSt12__niter_baseIPiET_S1_:
.LFB3229:
	.loc 2 313 5
	.cfi_startproc
	pushq	%rbp	#
	.cfi_def_cfa_offset 16
	.cfi_offset 6, -16
	movq	%rsp, %rbp	#,
	.cfi_def_cfa_register 6
	movq	%rdi, -8(%rbp)	# __it, __it
# /usr/include/c++/12/bits/stl_algobase.h:315:     { return __it; }
	.loc 2 315 14
	movq	-8(%rbp), %rax	# __it, _2
# /usr/include/c++/12/bits/stl_algobase.h:315:     { return __it; }
	.loc 2 315 20
	popq	%rbp	#
	.cfi_def_cfa 7, 8
	ret	
	.cfi_endproc
.LFE3229:
	.size	_ZSt12__niter_baseIPiET_S1_, .-_ZSt12__niter_baseIPiET_S1_
	.section	.text._ZSt14__relocate_a_1IiiENSt9enable_ifIXsrSt24__is_bitwise_relocatableIT_vE5valueEPS2_E4typeES4_S4_S4_RSaIT0_E,"axG",@progbits,_ZSt14__relocate_a_1IiiENSt9enable_ifIXsrSt24__is_bitwise_relocatableIT_vE5valueEPS2_E4typeES4_S4_S4_RSaIT0_E,comdat
	.weak	_ZSt14__relocate_a_1IiiENSt9enable_ifIXsrSt24__is_bitwise_relocatableIT_vE5valueEPS2_E4typeES4_S4_S4_RSaIT0_E
	.type	_ZSt14__relocate_a_1IiiENSt9enable_ifIXsrSt24__is_bitwise_relocatableIT_vE5valueEPS2_E4typeES4_S4_S4_RSaIT0_E, @function
_ZSt14__relocate_a_1IiiENSt9enable_ifIXsrSt24__is_bitwise_relocatableIT_vE5valueEPS2_E4typeES4_S4_S4_RSaIT0_E:
.LFB3230:
	.loc 16 1100 5
	.cfi_startproc
	pushq	%rbp	#
	.cfi_def_cfa_offset 16
	.cfi_offset 6, -16
	movq	%rsp, %rbp	#,
	.cfi_def_cfa_register 6
	subq	$48, %rsp	#,
	movq	%rdi, -24(%rbp)	# __first, __first
	movq	%rsi, -32(%rbp)	# __last, __last
	movq	%rdx, -40(%rbp)	# __result, __result
	movq	%rcx, -48(%rbp)	# __alloc, __alloc
# /usr/include/c++/12/bits/stl_uninitialized.h:1104:       ptrdiff_t __count = __last - __first;
	.loc 16 1104 34
	movq	-32(%rbp), %rax	# __last, tmp89
	subq	-24(%rbp), %rax	# __first, _1
# /usr/include/c++/12/bits/stl_uninitialized.h:1104:       ptrdiff_t __count = __last - __first;
	.loc 16 1104 17
	sarq	$2, %rax	#, tmp90
	movq	%rax, -8(%rbp)	# tmp90, __count
# /usr/include/c++/12/bits/stl_uninitialized.h:1105:       if (__count > 0)
	.loc 16 1105 7
	cmpq	$0, -8(%rbp)	#, __count
	jle	.L218	#,
# /usr/include/c++/12/bits/stl_uninitialized.h:1117: 	  __builtin_memmove(__result, __first, __count * sizeof(_Tp));
	.loc 16 1117 41
	movq	-8(%rbp), %rax	# __count, __count.22_2
# /usr/include/c++/12/bits/stl_uninitialized.h:1117: 	  __builtin_memmove(__result, __first, __count * sizeof(_Tp));
	.loc 16 1117 21
	leaq	0(,%rax,4), %rdx	#, _3
	movq	-24(%rbp), %rcx	# __first, tmp93
	movq	-40(%rbp), %rax	# __result, tmp94
	movq	%rcx, %rsi	# tmp93,
	movq	%rax, %rdi	# tmp94,
	call	memmove@PLT	#
.L218:
# /usr/include/c++/12/bits/stl_uninitialized.h:1119:       return __result + __count;
	.loc 16 1119 25
	movq	-8(%rbp), %rax	# __count, __count.23_4
# /usr/include/c++/12/bits/stl_uninitialized.h:1119:       return __result + __count;
	.loc 16 1119 23
	leaq	0(,%rax,4), %rdx	#, _5
# /usr/include/c++/12/bits/stl_uninitialized.h:1119:       return __result + __count;
	.loc 16 1119 25
	movq	-40(%rbp), %rax	# __result, tmp95
	addq	%rdx, %rax	# _5, _13
# /usr/include/c++/12/bits/stl_uninitialized.h:1120:     }
	.loc 16 1120 5
	leave	
	.cfi_def_cfa 7, 8
	ret	
	.cfi_endproc
.LFE3230:
	.size	_ZSt14__relocate_a_1IiiENSt9enable_ifIXsrSt24__is_bitwise_relocatableIT_vE5valueEPS2_E4typeES4_S4_S4_RSaIT0_E, .-_ZSt14__relocate_a_1IiiENSt9enable_ifIXsrSt24__is_bitwise_relocatableIT_vE5valueEPS2_E4typeES4_S4_S4_RSaIT0_E
	.section	.text._ZNKSt15__new_allocatorIlE8max_sizeEv,"axG",@progbits,_ZNKSt15__new_allocatorIlE8max_sizeEv,comdat
	.align 2
	.weak	_ZNKSt15__new_allocatorIlE8max_sizeEv
	.type	_ZNKSt15__new_allocatorIlE8max_sizeEv, @function
_ZNKSt15__new_allocatorIlE8max_sizeEv:
.LFB3235:
	.loc 9 167 7
	.cfi_startproc
	pushq	%rbp	#
	.cfi_def_cfa_offset 16
	.cfi_offset 6, -16
	movq	%rsp, %rbp	#,
	.cfi_def_cfa_register 6
	subq	$16, %rsp	#,
	movq	%rdi, -8(%rbp)	# this, this
# /usr/include/c++/12/bits/new_allocator.h:168:       { return _M_max_size(); }
	.loc 9 168 27
	movq	-8(%rbp), %rax	# this, tmp84
	movq	%rax, %rdi	# tmp84,
	call	_ZNKSt15__new_allocatorIlE11_M_max_sizeEv	#
# /usr/include/c++/12/bits/new_allocator.h:168:       { return _M_max_size(); }
	.loc 9 168 31
	leave	
	.cfi_def_cfa 7, 8
	ret	
	.cfi_endproc
.LFE3235:
	.size	_ZNKSt15__new_allocatorIlE8max_sizeEv, .-_ZNKSt15__new_allocatorIlE8max_sizeEv
	.section	.text._ZNKSt15__new_allocatorIlE11_M_max_sizeEv,"axG",@progbits,_ZNKSt15__new_allocatorIlE11_M_max_sizeEv,comdat
	.align 2
	.weak	_ZNKSt15__new_allocatorIlE11_M_max_sizeEv
	.type	_ZNKSt15__new_allocatorIlE11_M_max_sizeEv, @function
_ZNKSt15__new_allocatorIlE11_M_max_sizeEv:
.LFB3236:
	.loc 9 210 7
	.cfi_startproc
	pushq	%rbp	#
	.cfi_def_cfa_offset 16
	.cfi_offset 6, -16
	movq	%rsp, %rbp	#,
	.cfi_def_cfa_register 6
	movq	%rdi, -8(%rbp)	# this, this
# /usr/include/c++/12/bits/new_allocator.h:213: 	return std::size_t(__PTRDIFF_MAX__) / sizeof(_Tp);
	.loc 9 213 50
	movabsq	$1152921504606846975, %rax	#, _1
# /usr/include/c++/12/bits/new_allocator.h:217:       }
	.loc 9 217 7
	popq	%rbp	#
	.cfi_def_cfa 7, 8
	ret	
	.cfi_endproc
.LFE3236:
	.size	_ZNKSt15__new_allocatorIlE11_M_max_sizeEv, .-_ZNKSt15__new_allocatorIlE11_M_max_sizeEv
	.section	.text._ZSt4copyIPKlPlET0_T_S4_S3_,"axG",@progbits,_ZSt4copyIPKlPlET0_T_S4_S3_,comdat
	.weak	_ZSt4copyIPKlPlET0_T_S4_S3_
	.type	_ZSt4copyIPKlPlET0_T_S4_S3_, @function
_ZSt4copyIPKlPlET0_T_S4_S3_:
.LFB3237:
	.loc 2 611 5
	.cfi_startproc
	pushq	%rbp	#
	.cfi_def_cfa_offset 16
	.cfi_offset 6, -16
	movq	%rsp, %rbp	#,
	.cfi_def_cfa_register 6
	pushq	%rbx	#
	subq	$40, %rsp	#,
	.cfi_offset 3, -24
	movq	%rdi, -24(%rbp)	# __first, __first
	movq	%rsi, -32(%rbp)	# __last, __last
	movq	%rdx, -40(%rbp)	# __result, __result
# /usr/include/c++/12/bits/stl_algobase.h:620: 	     (std::__miter_base(__first), std::__miter_base(__last), __result);
	.loc 2 620 7
	movq	-32(%rbp), %rax	# __last, tmp86
	movq	%rax, %rdi	# tmp86,
	call	_ZSt12__miter_baseIPKlET_S2_	#
	movq	%rax, %rbx	#, _1
	movq	-24(%rbp), %rax	# __first, tmp87
	movq	%rax, %rdi	# tmp87,
	call	_ZSt12__miter_baseIPKlET_S2_	#
	movq	%rax, %rcx	#, _2
	movq	-40(%rbp), %rax	# __result, tmp88
	movq	%rax, %rdx	# tmp88,
	movq	%rbx, %rsi	# _1,
	movq	%rcx, %rdi	# _2,
	call	_ZSt13__copy_move_aILb0EPKlPlET1_T0_S4_S3_	#
# /usr/include/c++/12/bits/stl_algobase.h:621:     }
	.loc 2 621 5
	movq	-8(%rbp), %rbx	#,
	leave	
	.cfi_def_cfa 7, 8
	ret	
	.cfi_endproc
.LFE3237:
	.size	_ZSt4copyIPKlPlET0_T_S4_S3_, .-_ZSt4copyIPKlPlET0_T_S4_S3_
	.section	.text._ZNKSt15__new_allocatorIiE8max_sizeEv,"axG",@progbits,_ZNKSt15__new_allocatorIiE8max_sizeEv,comdat
	.align 2
	.weak	_ZNKSt15__new_allocatorIiE8max_sizeEv
	.type	_ZNKSt15__new_allocatorIiE8max_sizeEv, @function
_ZNKSt15__new_allocatorIiE8max_sizeEv:
.LFB3238:
	.loc 9 167 7
	.cfi_startproc
	pushq	%rbp	#
	.cfi_def_cfa_offset 16
	.cfi_offset 6, -16
	movq	%rsp, %rbp	#,
	.cfi_def_cfa_register 6
	subq	$16, %rsp	#,
	movq	%rdi, -8(%rbp)	# this, this
# /usr/include/c++/12/bits/new_allocator.h:168:       { return _M_max_size(); }
	.loc 9 168 27
	movq	-8(%rbp), %rax	# this, tmp84
	movq	%rax, %rdi	# tmp84,
	call	_ZNKSt15__new_allocatorIiE11_M_max_sizeEv	#
# /usr/include/c++/12/bits/new_allocator.h:168:       { return _M_max_size(); }
	.loc 9 168 31
	leave	
	.cfi_def_cfa 7, 8
	ret	
	.cfi_endproc
.LFE3238:
	.size	_ZNKSt15__new_allocatorIiE8max_sizeEv, .-_ZNKSt15__new_allocatorIiE8max_sizeEv
	.section	.text._ZSt11__addressofIiEPT_RS0_,"axG",@progbits,_ZSt11__addressofIiEPT_RS0_,comdat
	.weak	_ZSt11__addressofIiEPT_RS0_
	.type	_ZSt11__addressofIiEPT_RS0_, @function
_ZSt11__addressofIiEPT_RS0_:
.LFB3239:
	.file 17 "/usr/include/c++/12/bits/move.h"
	.loc 17 49 5
	.cfi_startproc
	pushq	%rbp	#
	.cfi_def_cfa_offset 16
	.cfi_offset 6, -16
	movq	%rsp, %rbp	#,
	.cfi_def_cfa_register 6
	movq	%rdi, -8(%rbp)	# __r, __r
# /usr/include/c++/12/bits/move.h:50:     { return __builtin_addressof(__r); }
	.loc 17 50 37
	movq	-8(%rbp), %rax	# __r, _2
# /usr/include/c++/12/bits/move.h:50:     { return __builtin_addressof(__r); }
	.loc 17 50 40
	popq	%rbp	#
	.cfi_def_cfa 7, 8
	ret	
	.cfi_endproc
.LFE3239:
	.size	_ZSt11__addressofIiEPT_RS0_, .-_ZSt11__addressofIiEPT_RS0_
	.section	.text._ZSt10_ConstructIiJEEvPT_DpOT0_,"axG",@progbits,_ZSt10_ConstructIiJEEvPT_DpOT0_,comdat
	.weak	_ZSt10_ConstructIiJEEvPT_DpOT0_
	.type	_ZSt10_ConstructIiJEEvPT_DpOT0_, @function
_ZSt10_ConstructIiJEEvPT_DpOT0_:
.LFB3240:
	.loc 14 109 5
	.cfi_startproc
	pushq	%rbp	#
	.cfi_def_cfa_offset 16
	.cfi_offset 6, -16
	movq	%rsp, %rbp	#,
	.cfi_def_cfa_register 6
	subq	$16, %rsp	#,
	movq	%rdi, -8(%rbp)	# __p, __p
# /usr/include/c++/12/bits/stl_construct.h:119:       ::new((void*)__p) _Tp(std::forward<_Args>(__args)...);
	.loc 14 119 13
	movq	-8(%rbp), %rax	# __p, _2
# /usr/include/c++/12/bits/stl_construct.h:119:       ::new((void*)__p) _Tp(std::forward<_Args>(__args)...);
	.loc 14 119 7
	movq	%rax, %rsi	# _2,
	movl	$4, %edi	#,
	call	_ZnwmPv	#
	movl	$0, (%rax)	#, MEM[(int *)_5]
# /usr/include/c++/12/bits/stl_construct.h:120:     }
	.loc 14 120 5
	nop	
	leave	
	.cfi_def_cfa 7, 8
	ret	
	.cfi_endproc
.LFE3240:
	.size	_ZSt10_ConstructIiJEEvPT_DpOT0_, .-_ZSt10_ConstructIiJEEvPT_DpOT0_
	.section	.text._ZSt6fill_nIPimiET_S1_T0_RKT1_,"axG",@progbits,_ZSt6fill_nIPimiET_S1_T0_RKT1_,comdat
	.weak	_ZSt6fill_nIPimiET_S1_T0_RKT1_
	.type	_ZSt6fill_nIPimiET_S1_T0_RKT1_, @function
_ZSt6fill_nIPimiET_S1_T0_RKT1_:
.LFB3241:
	.loc 2 1143 5
	.cfi_startproc
	pushq	%rbp	#
	.cfi_def_cfa_offset 16
	.cfi_offset 6, -16
	movq	%rsp, %rbp	#,
	.cfi_def_cfa_register 6
	subq	$32, %rsp	#,
	movq	%rdi, -8(%rbp)	# __first, __first
	movq	%rsi, -16(%rbp)	# __n, __n
	movq	%rdx, -24(%rbp)	# __value, __value
# /usr/include/c++/12/bits/stl_algobase.h:1149: 			       std::__iterator_category(__first));
	.loc 2 1149 35
	leaq	-8(%rbp), %rax	#, tmp87
	movq	%rax, %rdi	# tmp87,
	call	_ZSt19__iterator_categoryIPiENSt15iterator_traitsIT_E17iterator_categoryERKS2_	#
# /usr/include/c++/12/bits/stl_algobase.h:1148:       return std::__fill_n_a(__first, std::__size_to_integer(__n), __value,
	.loc 2 1148 29
	movq	-16(%rbp), %rax	# __n, tmp88
	movq	%rax, %rdi	# tmp88,
	call	_ZSt17__size_to_integerm	#
	movq	%rax, %rcx	#, _1
	movq	-8(%rbp), %rax	# __first, __first.21_2
	movq	-24(%rbp), %rdx	# __value, tmp89
	movq	%rcx, %rsi	# _1,
	movq	%rax, %rdi	# __first.21_2,
	call	_ZSt10__fill_n_aIPimiET_S1_T0_RKT1_St26random_access_iterator_tag	#
# /usr/include/c++/12/bits/stl_algobase.h:1150:     }
	.loc 2 1150 5
	leave	
	.cfi_def_cfa 7, 8
	ret	
	.cfi_endproc
.LFE3241:
	.size	_ZSt6fill_nIPimiET_S1_T0_RKT1_, .-_ZSt6fill_nIPimiET_S1_T0_RKT1_
	.section	.text._ZNKSt15__new_allocatorIiE11_M_max_sizeEv,"axG",@progbits,_ZNKSt15__new_allocatorIiE11_M_max_sizeEv,comdat
	.align 2
	.weak	_ZNKSt15__new_allocatorIiE11_M_max_sizeEv
	.type	_ZNKSt15__new_allocatorIiE11_M_max_sizeEv, @function
_ZNKSt15__new_allocatorIiE11_M_max_sizeEv:
.LFB3242:
	.loc 9 210 7
	.cfi_startproc
	pushq	%rbp	#
	.cfi_def_cfa_offset 16
	.cfi_offset 6, -16
	movq	%rsp, %rbp	#,
	.cfi_def_cfa_register 6
	movq	%rdi, -8(%rbp)	# this, this
# /usr/include/c++/12/bits/new_allocator.h:213: 	return std::size_t(__PTRDIFF_MAX__) / sizeof(_Tp);
	.loc 9 213 50
	movabsq	$2305843009213693951, %rax	#, _1
# /usr/include/c++/12/bits/new_allocator.h:217:       }
	.loc 9 217 7
	popq	%rbp	#
	.cfi_def_cfa 7, 8
	ret	
	.cfi_endproc
.LFE3242:
	.size	_ZNKSt15__new_allocatorIiE11_M_max_sizeEv, .-_ZNKSt15__new_allocatorIiE11_M_max_sizeEv
	.section	.text._ZSt12__miter_baseIPKlET_S2_,"axG",@progbits,_ZSt12__miter_baseIPKlET_S2_,comdat
	.weak	_ZSt12__miter_baseIPKlET_S2_
	.type	_ZSt12__miter_baseIPKlET_S2_, @function
_ZSt12__miter_baseIPKlET_S2_:
.LFB3243:
	.file 18 "/usr/include/c++/12/bits/cpp_type_traits.h"
	.loc 18 562 5
	.cfi_startproc
	pushq	%rbp	#
	.cfi_def_cfa_offset 16
	.cfi_offset 6, -16
	movq	%rsp, %rbp	#,
	.cfi_def_cfa_register 6
	movq	%rdi, -8(%rbp)	# __it, __it
# /usr/include/c++/12/bits/cpp_type_traits.h:563:     { return __it; }
	.loc 18 563 14
	movq	-8(%rbp), %rax	# __it, _2
# /usr/include/c++/12/bits/cpp_type_traits.h:563:     { return __it; }
	.loc 18 563 20
	popq	%rbp	#
	.cfi_def_cfa 7, 8
	ret	
	.cfi_endproc
.LFE3243:
	.size	_ZSt12__miter_baseIPKlET_S2_, .-_ZSt12__miter_baseIPKlET_S2_
	.section	.text._ZSt13__copy_move_aILb0EPKlPlET1_T0_S4_S3_,"axG",@progbits,_ZSt13__copy_move_aILb0EPKlPlET1_T0_S4_S3_,comdat
	.weak	_ZSt13__copy_move_aILb0EPKlPlET1_T0_S4_S3_
	.type	_ZSt13__copy_move_aILb0EPKlPlET1_T0_S4_S3_, @function
_ZSt13__copy_move_aILb0EPKlPlET1_T0_S4_S3_:
.LFB3244:
	.loc 2 527 5
	.cfi_startproc
	pushq	%rbp	#
	.cfi_def_cfa_offset 16
	.cfi_offset 6, -16
	movq	%rsp, %rbp	#,
	.cfi_def_cfa_register 6
	pushq	%r12	#
	pushq	%rbx	#
	subq	$32, %rsp	#,
	.cfi_offset 12, -24
	.cfi_offset 3, -32
	movq	%rdi, -24(%rbp)	# __first, __first
	movq	%rsi, -32(%rbp)	# __last, __last
	movq	%rdx, -40(%rbp)	# __result, __result
# /usr/include/c++/12/bits/stl_algobase.h:529:       return std::__niter_wrap(__result,
	.loc 2 529 31
	movq	-40(%rbp), %rax	# __result, __result.8_1
	movq	%rax, %rdi	# __result.8_1,
	call	_ZSt12__niter_baseIPlET_S1_	#
	movq	%rax, %r12	#, _2
	movq	-32(%rbp), %rax	# __last, tmp89
	movq	%rax, %rdi	# tmp89,
	call	_ZSt12__niter_baseIPKlET_S2_	#
	movq	%rax, %rbx	#, _3
	movq	-24(%rbp), %rax	# __first, tmp90
	movq	%rax, %rdi	# tmp90,
	call	_ZSt12__niter_baseIPKlET_S2_	#
	movq	%r12, %rdx	# _2,
	movq	%rbx, %rsi	# _3,
	movq	%rax, %rdi	# _4,
	call	_ZSt14__copy_move_a1ILb0EPKlPlET1_T0_S4_S3_	#
	movq	%rax, %rdx	#, _5
	leaq	-40(%rbp), %rax	#, tmp91
	movq	%rdx, %rsi	# _5,
	movq	%rax, %rdi	# tmp91,
	call	_ZSt12__niter_wrapIPlET_RKS1_S1_	#
# /usr/include/c++/12/bits/stl_algobase.h:533:     }
	.loc 2 533 5
	addq	$32, %rsp	#,
	popq	%rbx	#
	popq	%r12	#
	popq	%rbp	#
	.cfi_def_cfa 7, 8
	ret	
	.cfi_endproc
.LFE3244:
	.size	_ZSt13__copy_move_aILb0EPKlPlET1_T0_S4_S3_, .-_ZSt13__copy_move_aILb0EPKlPlET1_T0_S4_S3_
	.section	.text._ZSt19__iterator_categoryIPiENSt15iterator_traitsIT_E17iterator_categoryERKS2_,"axG",@progbits,_ZSt19__iterator_categoryIPiENSt15iterator_traitsIT_E17iterator_categoryERKS2_,comdat
	.weak	_ZSt19__iterator_categoryIPiENSt15iterator_traitsIT_E17iterator_categoryERKS2_
	.type	_ZSt19__iterator_categoryIPiENSt15iterator_traitsIT_E17iterator_categoryERKS2_, @function
_ZSt19__iterator_categoryIPiENSt15iterator_traitsIT_E17iterator_categoryERKS2_:
.LFB3247:
	.loc 15 238 5
	.cfi_startproc
	pushq	%rbp	#
	.cfi_def_cfa_offset 16
	.cfi_offset 6, -16
	movq	%rsp, %rbp	#,
	.cfi_def_cfa_register 6
	movq	%rdi, -8(%rbp)	# D.65452, D.65452
# /usr/include/c++/12/bits/stl_iterator_base_types.h:239:     { return typename iterator_traits<_Iter>::iterator_category(); }
	.loc 15 239 65
	nop	
# /usr/include/c++/12/bits/stl_iterator_base_types.h:239:     { return typename iterator_traits<_Iter>::iterator_category(); }
	.loc 15 239 68
	popq	%rbp	#
	.cfi_def_cfa 7, 8
	ret	
	.cfi_endproc
.LFE3247:
	.size	_ZSt19__iterator_categoryIPiENSt15iterator_traitsIT_E17iterator_categoryERKS2_, .-_ZSt19__iterator_categoryIPiENSt15iterator_traitsIT_E17iterator_categoryERKS2_
	.section	.text._ZSt10__fill_n_aIPimiET_S1_T0_RKT1_St26random_access_iterator_tag,"axG",@progbits,_ZSt10__fill_n_aIPimiET_S1_T0_RKT1_St26random_access_iterator_tag,comdat
	.weak	_ZSt10__fill_n_aIPimiET_S1_T0_RKT1_St26random_access_iterator_tag
	.type	_ZSt10__fill_n_aIPimiET_S1_T0_RKT1_St26random_access_iterator_tag, @function
_ZSt10__fill_n_aIPimiET_S1_T0_RKT1_St26random_access_iterator_tag:
.LFB3248:
	.loc 2 1108 5
	.cfi_startproc
	pushq	%rbp	#
	.cfi_def_cfa_offset 16
	.cfi_offset 6, -16
	movq	%rsp, %rbp	#,
	.cfi_def_cfa_register 6
	subq	$32, %rsp	#,
	movq	%rdi, -8(%rbp)	# __first, __first
	movq	%rsi, -16(%rbp)	# __n, __n
	movq	%rdx, -24(%rbp)	# __value, __value
# /usr/include/c++/12/bits/stl_algobase.h:1114:       if (__n <= 0)
	.loc 2 1114 7
	cmpq	$0, -16(%rbp)	#, __n
	jne	.L242	#,
# /usr/include/c++/12/bits/stl_algobase.h:1115: 	return __first;
	.loc 2 1115 9
	movq	-8(%rbp), %rax	# __first, _4
	jmp	.L243	#
.L242:
# /usr/include/c++/12/bits/stl_algobase.h:1119:       std::__fill_a(__first, __first + __n, __value);
	.loc 2 1119 38
	movq	-16(%rbp), %rax	# __n, tmp87
	leaq	0(,%rax,4), %rdx	#, _1
# /usr/include/c++/12/bits/stl_algobase.h:1119:       std::__fill_a(__first, __first + __n, __value);
	.loc 2 1119 20
	movq	-8(%rbp), %rax	# __first, tmp88
	leaq	(%rdx,%rax), %rcx	#, _2
	movq	-24(%rbp), %rdx	# __value, tmp89
	movq	-8(%rbp), %rax	# __first, tmp90
	movq	%rcx, %rsi	# _2,
	movq	%rax, %rdi	# tmp90,
	call	_ZSt8__fill_aIPiiEvT_S1_RKT0_	#
# /usr/include/c++/12/bits/stl_algobase.h:1120:       return __first + __n;
	.loc 2 1120 22
	movq	-16(%rbp), %rax	# __n, tmp91
	leaq	0(,%rax,4), %rdx	#, _3
# /usr/include/c++/12/bits/stl_algobase.h:1120:       return __first + __n;
	.loc 2 1120 24
	movq	-8(%rbp), %rax	# __first, tmp92
	addq	%rdx, %rax	# _3, _4
.L243:
# /usr/include/c++/12/bits/stl_algobase.h:1121:     }
	.loc 2 1121 5
	leave	
	.cfi_def_cfa 7, 8
	ret	
	.cfi_endproc
.LFE3248:
	.size	_ZSt10__fill_n_aIPimiET_S1_T0_RKT1_St26random_access_iterator_tag, .-_ZSt10__fill_n_aIPimiET_S1_T0_RKT1_St26random_access_iterator_tag
	.section	.text._ZSt12__niter_baseIPKlET_S2_,"axG",@progbits,_ZSt12__niter_baseIPKlET_S2_,comdat
	.weak	_ZSt12__niter_baseIPKlET_S2_
	.type	_ZSt12__niter_baseIPKlET_S2_, @function
_ZSt12__niter_baseIPKlET_S2_:
.LFB3249:
	.loc 2 313 5
	.cfi_startproc
	pushq	%rbp	#
	.cfi_def_cfa_offset 16
	.cfi_offset 6, -16
	movq	%rsp, %rbp	#,
	.cfi_def_cfa_register 6
	movq	%rdi, -8(%rbp)	# __it, __it
# /usr/include/c++/12/bits/stl_algobase.h:315:     { return __it; }
	.loc 2 315 14
	movq	-8(%rbp), %rax	# __it, _2
# /usr/include/c++/12/bits/stl_algobase.h:315:     { return __it; }
	.loc 2 315 20
	popq	%rbp	#
	.cfi_def_cfa 7, 8
	ret	
	.cfi_endproc
.LFE3249:
	.size	_ZSt12__niter_baseIPKlET_S2_, .-_ZSt12__niter_baseIPKlET_S2_
	.section	.text._ZSt12__niter_baseIPlET_S1_,"axG",@progbits,_ZSt12__niter_baseIPlET_S1_,comdat
	.weak	_ZSt12__niter_baseIPlET_S1_
	.type	_ZSt12__niter_baseIPlET_S1_, @function
_ZSt12__niter_baseIPlET_S1_:
.LFB3250:
	.loc 2 313 5
	.cfi_startproc
	pushq	%rbp	#
	.cfi_def_cfa_offset 16
	.cfi_offset 6, -16
	movq	%rsp, %rbp	#,
	.cfi_def_cfa_register 6
	movq	%rdi, -8(%rbp)	# __it, __it
# /usr/include/c++/12/bits/stl_algobase.h:315:     { return __it; }
	.loc 2 315 14
	movq	-8(%rbp), %rax	# __it, _2
# /usr/include/c++/12/bits/stl_algobase.h:315:     { return __it; }
	.loc 2 315 20
	popq	%rbp	#
	.cfi_def_cfa 7, 8
	ret	
	.cfi_endproc
.LFE3250:
	.size	_ZSt12__niter_baseIPlET_S1_, .-_ZSt12__niter_baseIPlET_S1_
	.section	.text._ZSt14__copy_move_a1ILb0EPKlPlET1_T0_S4_S3_,"axG",@progbits,_ZSt14__copy_move_a1ILb0EPKlPlET1_T0_S4_S3_,comdat
	.weak	_ZSt14__copy_move_a1ILb0EPKlPlET1_T0_S4_S3_
	.type	_ZSt14__copy_move_a1ILb0EPKlPlET1_T0_S4_S3_, @function
_ZSt14__copy_move_a1ILb0EPKlPlET1_T0_S4_S3_:
.LFB3251:
	.loc 2 521 5
	.cfi_startproc
	pushq	%rbp	#
	.cfi_def_cfa_offset 16
	.cfi_offset 6, -16
	movq	%rsp, %rbp	#,
	.cfi_def_cfa_register 6
	subq	$32, %rsp	#,
	movq	%rdi, -8(%rbp)	# __first, __first
	movq	%rsi, -16(%rbp)	# __last, __last
	movq	%rdx, -24(%rbp)	# __result, __result
# /usr/include/c++/12/bits/stl_algobase.h:522:     { return std::__copy_move_a2<_IsMove>(__first, __last, __result); }
	.loc 2 522 42
	movq	-24(%rbp), %rdx	# __result, tmp84
	movq	-16(%rbp), %rcx	# __last, tmp85
	movq	-8(%rbp), %rax	# __first, tmp86
	movq	%rcx, %rsi	# tmp85,
	movq	%rax, %rdi	# tmp86,
	call	_ZSt14__copy_move_a2ILb0EPKlPlET1_T0_S4_S3_	#
# /usr/include/c++/12/bits/stl_algobase.h:522:     { return std::__copy_move_a2<_IsMove>(__first, __last, __result); }
	.loc 2 522 71
	leave	
	.cfi_def_cfa 7, 8
	ret	
	.cfi_endproc
.LFE3251:
	.size	_ZSt14__copy_move_a1ILb0EPKlPlET1_T0_S4_S3_, .-_ZSt14__copy_move_a1ILb0EPKlPlET1_T0_S4_S3_
	.section	.text._ZSt12__niter_wrapIPlET_RKS1_S1_,"axG",@progbits,_ZSt12__niter_wrapIPlET_RKS1_S1_,comdat
	.weak	_ZSt12__niter_wrapIPlET_RKS1_S1_
	.type	_ZSt12__niter_wrapIPlET_RKS1_S1_, @function
_ZSt12__niter_wrapIPlET_RKS1_S1_:
.LFB3252:
	.loc 2 335 5
	.cfi_startproc
	pushq	%rbp	#
	.cfi_def_cfa_offset 16
	.cfi_offset 6, -16
	movq	%rsp, %rbp	#,
	.cfi_def_cfa_register 6
	movq	%rdi, -8(%rbp)	# D.65490, D.65490
	movq	%rsi, -16(%rbp)	# __res, __res
# /usr/include/c++/12/bits/stl_algobase.h:336:     { return __res; }
	.loc 2 336 14
	movq	-16(%rbp), %rax	# __res, _2
# /usr/include/c++/12/bits/stl_algobase.h:336:     { return __res; }
	.loc 2 336 21
	popq	%rbp	#
	.cfi_def_cfa 7, 8
	ret	
	.cfi_endproc
.LFE3252:
	.size	_ZSt12__niter_wrapIPlET_RKS1_S1_, .-_ZSt12__niter_wrapIPlET_RKS1_S1_
	.section	.text._ZSt8__fill_aIPiiEvT_S1_RKT0_,"axG",@progbits,_ZSt8__fill_aIPiiEvT_S1_RKT0_,comdat
	.weak	_ZSt8__fill_aIPiiEvT_S1_RKT0_
	.type	_ZSt8__fill_aIPiiEvT_S1_RKT0_, @function
_ZSt8__fill_aIPiiEvT_S1_RKT0_:
.LFB3253:
	.loc 2 967 5
	.cfi_startproc
	pushq	%rbp	#
	.cfi_def_cfa_offset 16
	.cfi_offset 6, -16
	movq	%rsp, %rbp	#,
	.cfi_def_cfa_register 6
	subq	$32, %rsp	#,
	movq	%rdi, -8(%rbp)	# __first, __first
	movq	%rsi, -16(%rbp)	# __last, __last
	movq	%rdx, -24(%rbp)	# __value, __value
# /usr/include/c++/12/bits/stl_algobase.h:968:     { std::__fill_a1(__first, __last, __value); }
	.loc 2 968 21
	movq	-24(%rbp), %rdx	# __value, tmp82
	movq	-16(%rbp), %rcx	# __last, tmp83
	movq	-8(%rbp), %rax	# __first, tmp84
	movq	%rcx, %rsi	# tmp83,
	movq	%rax, %rdi	# tmp84,
	call	_ZSt9__fill_a1IPiiEN9__gnu_cxx11__enable_ifIXsrSt11__is_scalarIT0_E7__valueEvE6__typeET_S8_RKS4_	#
# /usr/include/c++/12/bits/stl_algobase.h:968:     { std::__fill_a1(__first, __last, __value); }
	.loc 2 968 49
	nop	
	leave	
	.cfi_def_cfa 7, 8
	ret	
	.cfi_endproc
.LFE3253:
	.size	_ZSt8__fill_aIPiiEvT_S1_RKT0_, .-_ZSt8__fill_aIPiiEvT_S1_RKT0_
	.section	.text._ZSt14__copy_move_a2ILb0EPKlPlET1_T0_S4_S3_,"axG",@progbits,_ZSt14__copy_move_a2ILb0EPKlPlET1_T0_S4_S3_,comdat
	.weak	_ZSt14__copy_move_a2ILb0EPKlPlET1_T0_S4_S3_
	.type	_ZSt14__copy_move_a2ILb0EPKlPlET1_T0_S4_S3_, @function
_ZSt14__copy_move_a2ILb0EPKlPlET1_T0_S4_S3_:
.LFB3254:
	.loc 2 486 5
	.cfi_startproc
	pushq	%rbp	#
	.cfi_def_cfa_offset 16
	.cfi_offset 6, -16
	movq	%rsp, %rbp	#,
	.cfi_def_cfa_register 6
	subq	$32, %rsp	#,
	movq	%rdi, -8(%rbp)	# __first, __first
	movq	%rsi, -16(%rbp)	# __last, __last
	movq	%rdx, -24(%rbp)	# __result, __result
# /usr/include/c++/12/bits/stl_algobase.h:495: 			      _Category>::__copy_m(__first, __last, __result);
	.loc 2 495 30
	movq	-24(%rbp), %rdx	# __result, tmp84
	movq	-16(%rbp), %rcx	# __last, tmp85
	movq	-8(%rbp), %rax	# __first, tmp86
	movq	%rcx, %rsi	# tmp85,
	movq	%rax, %rdi	# tmp86,
	call	_ZNSt11__copy_moveILb0ELb1ESt26random_access_iterator_tagE8__copy_mIlEEPT_PKS3_S6_S4_	#
# /usr/include/c++/12/bits/stl_algobase.h:496:     }
	.loc 2 496 5
	leave	
	.cfi_def_cfa 7, 8
	ret	
	.cfi_endproc
.LFE3254:
	.size	_ZSt14__copy_move_a2ILb0EPKlPlET1_T0_S4_S3_, .-_ZSt14__copy_move_a2ILb0EPKlPlET1_T0_S4_S3_
	.section	.text._ZSt9__fill_a1IPiiEN9__gnu_cxx11__enable_ifIXsrSt11__is_scalarIT0_E7__valueEvE6__typeET_S8_RKS4_,"axG",@progbits,_ZSt9__fill_a1IPiiEN9__gnu_cxx11__enable_ifIXsrSt11__is_scalarIT0_E7__valueEvE6__typeET_S8_RKS4_,comdat
	.weak	_ZSt9__fill_a1IPiiEN9__gnu_cxx11__enable_ifIXsrSt11__is_scalarIT0_E7__valueEvE6__typeET_S8_RKS4_
	.type	_ZSt9__fill_a1IPiiEN9__gnu_cxx11__enable_ifIXsrSt11__is_scalarIT0_E7__valueEvE6__typeET_S8_RKS4_, @function
_ZSt9__fill_a1IPiiEN9__gnu_cxx11__enable_ifIXsrSt11__is_scalarIT0_E7__valueEvE6__typeET_S8_RKS4_:
.LFB3255:
	.loc 2 917 5
	.cfi_startproc
	pushq	%rbp	#
	.cfi_def_cfa_offset 16
	.cfi_offset 6, -16
	movq	%rsp, %rbp	#,
	.cfi_def_cfa_register 6
	movq	%rdi, -24(%rbp)	# __first, __first
	movq	%rsi, -32(%rbp)	# __last, __last
	movq	%rdx, -40(%rbp)	# __value, __value
# /usr/include/c++/12/bits/stl_algobase.h:920:       const _Tp __tmp = __value;
	.loc 2 920 17
	movq	-40(%rbp), %rax	# __value, tmp82
	movl	(%rax), %eax	# *__value_4(D), tmp83
	movl	%eax, -4(%rbp)	# tmp83, __tmp
# /usr/include/c++/12/bits/stl_algobase.h:921:       for (; __first != __last; ++__first)
	.loc 2 921 7
	jmp	.L256	#
.L257:
# /usr/include/c++/12/bits/stl_algobase.h:922: 	*__first = __tmp;
	.loc 2 922 11 discriminator 2
	movq	-24(%rbp), %rax	# __first, tmp84
	movl	-4(%rbp), %edx	# __tmp, tmp85
	movl	%edx, (%rax)	# tmp85, *__first_1
# /usr/include/c++/12/bits/stl_algobase.h:921:       for (; __first != __last; ++__first)
	.loc 2 921 7 discriminator 2
	addq	$4, -24(%rbp)	#, __first
.L256:
# /usr/include/c++/12/bits/stl_algobase.h:921:       for (; __first != __last; ++__first)
	.loc 2 921 22 discriminator 1
	movq	-24(%rbp), %rax	# __first, tmp86
	cmpq	-32(%rbp), %rax	# __last, tmp86
	jne	.L257	#,
# /usr/include/c++/12/bits/stl_algobase.h:923:     }
	.loc 2 923 5
	nop	
	nop	
	popq	%rbp	#
	.cfi_def_cfa 7, 8
	ret	
	.cfi_endproc
.LFE3255:
	.size	_ZSt9__fill_a1IPiiEN9__gnu_cxx11__enable_ifIXsrSt11__is_scalarIT0_E7__valueEvE6__typeET_S8_RKS4_, .-_ZSt9__fill_a1IPiiEN9__gnu_cxx11__enable_ifIXsrSt11__is_scalarIT0_E7__valueEvE6__typeET_S8_RKS4_
	.section	.text._ZNSt11__copy_moveILb0ELb1ESt26random_access_iterator_tagE8__copy_mIlEEPT_PKS3_S6_S4_,"axG",@progbits,_ZNSt11__copy_moveILb0ELb1ESt26random_access_iterator_tagE8__copy_mIlEEPT_PKS3_S6_S4_,comdat
	.weak	_ZNSt11__copy_moveILb0ELb1ESt26random_access_iterator_tagE8__copy_mIlEEPT_PKS3_S6_S4_
	.type	_ZNSt11__copy_moveILb0ELb1ESt26random_access_iterator_tagE8__copy_mIlEEPT_PKS3_S6_S4_, @function
_ZNSt11__copy_moveILb0ELb1ESt26random_access_iterator_tagE8__copy_mIlEEPT_PKS3_S6_S4_:
.LFB3256:
	.loc 2 420 2
	.cfi_startproc
	pushq	%rbp	#
	.cfi_def_cfa_offset 16
	.cfi_offset 6, -16
	movq	%rsp, %rbp	#,
	.cfi_def_cfa_register 6
	subq	$48, %rsp	#,
	movq	%rdi, -24(%rbp)	# __first, __first
	movq	%rsi, -32(%rbp)	# __last, __last
	movq	%rdx, -40(%rbp)	# __result, __result
# /usr/include/c++/12/bits/stl_algobase.h:429: 	  const ptrdiff_t _Num = __last - __first;
	.loc 2 429 34
	movq	-32(%rbp), %rax	# __last, tmp89
	subq	-24(%rbp), %rax	# __first, _1
# /usr/include/c++/12/bits/stl_algobase.h:429: 	  const ptrdiff_t _Num = __last - __first;
	.loc 2 429 20
	sarq	$3, %rax	#, tmp90
	movq	%rax, -8(%rbp)	# tmp90, _Num
# /usr/include/c++/12/bits/stl_algobase.h:430: 	  if (_Num)
	.loc 2 430 4
	cmpq	$0, -8(%rbp)	#, _Num
	je	.L259	#,
# /usr/include/c++/12/bits/stl_algobase.h:431: 	    __builtin_memmove(__result, __first, sizeof(_Tp) * _Num);
	.loc 2 431 57
	movq	-8(%rbp), %rax	# _Num, _Num.9_2
# /usr/include/c++/12/bits/stl_algobase.h:431: 	    __builtin_memmove(__result, __first, sizeof(_Tp) * _Num);
	.loc 2 431 23
	leaq	0(,%rax,8), %rdx	#, _3
	movq	-24(%rbp), %rcx	# __first, tmp93
	movq	-40(%rbp), %rax	# __result, tmp94
	movq	%rcx, %rsi	# tmp93,
	movq	%rax, %rdi	# tmp94,
	call	memmove@PLT	#
.L259:
# /usr/include/c++/12/bits/stl_algobase.h:432: 	  return __result + _Num;
	.loc 2 432 22
	movq	-8(%rbp), %rax	# _Num, _Num.10_4
# /usr/include/c++/12/bits/stl_algobase.h:432: 	  return __result + _Num;
	.loc 2 432 20
	leaq	0(,%rax,8), %rdx	#, _5
# /usr/include/c++/12/bits/stl_algobase.h:432: 	  return __result + _Num;
	.loc 2 432 22
	movq	-40(%rbp), %rax	# __result, tmp95
	addq	%rdx, %rax	# _5, _13
# /usr/include/c++/12/bits/stl_algobase.h:433: 	}
	.loc 2 433 2
	leave	
	.cfi_def_cfa 7, 8
	ret	
	.cfi_endproc
.LFE3256:
	.size	_ZNSt11__copy_moveILb0ELb1ESt26random_access_iterator_tagE8__copy_mIlEEPT_PKS3_S6_S4_, .-_ZNSt11__copy_moveILb0ELb1ESt26random_access_iterator_tagE8__copy_mIlEEPT_PKS3_S6_S4_
	.text
	.type	_Z41__static_initialization_and_destruction_0ii, @function
_Z41__static_initialization_and_destruction_0ii:
.LFB3257:
	.loc 4 19 1
	.cfi_startproc
	pushq	%rbp	#
	.cfi_def_cfa_offset 16
	.cfi_offset 6, -16
	movq	%rsp, %rbp	#,
	.cfi_def_cfa_register 6
	subq	$16, %rsp	#,
	movl	%edi, -4(%rbp)	# __initialize_p, __initialize_p
	movl	%esi, -8(%rbp)	# __priority, __priority
# Application.cpp:19: }
	.loc 4 19 1
	cmpl	$1, -4(%rbp)	#, __initialize_p
	jne	.L263	#,
# Application.cpp:19: }
	.loc 4 19 1 is_stmt 0 discriminator 1
	cmpl	$65535, -8(%rbp)	#, __priority
	jne	.L263	#,
# /usr/include/c++/12/iostream:74:   static ios_base::Init __ioinit;
	.file 19 "/usr/include/c++/12/iostream"
	.loc 19 74 25 is_stmt 1
	leaq	_ZStL8__ioinit(%rip), %rax	#, tmp82
	movq	%rax, %rdi	# tmp82,
	call	_ZNSt8ios_base4InitC1Ev@PLT	#
	leaq	__dso_handle(%rip), %rax	#, tmp83
	movq	%rax, %rdx	# tmp83,
	leaq	_ZStL8__ioinit(%rip), %rax	#, tmp84
	movq	%rax, %rsi	# tmp84,
	movq	_ZNSt8ios_base4InitD1Ev@GOTPCREL(%rip), %rax	#, tmp86
	movq	%rax, %rdi	# tmp85,
	call	__cxa_atexit@PLT	#
.L263:
# Application.cpp:19: }
	.loc 4 19 1
	nop	
	leave	
	.cfi_def_cfa 7, 8
	ret	
	.cfi_endproc
.LFE3257:
	.size	_Z41__static_initialization_and_destruction_0ii, .-_Z41__static_initialization_and_destruction_0ii
	.type	_GLOBAL__sub_I__ZN9container7details11index_checkEll, @function
_GLOBAL__sub_I__ZN9container7details11index_checkEll:
.LFB3258:
	.loc 4 19 1
	.cfi_startproc
	pushq	%rbp	#
	.cfi_def_cfa_offset 16
	.cfi_offset 6, -16
	movq	%rsp, %rbp	#,
	.cfi_def_cfa_register 6
# Application.cpp:19: }
	.loc 4 19 1
	movl	$65535, %esi	#,
	movl	$1, %edi	#,
	call	_Z41__static_initialization_and_destruction_0ii	#
	popq	%rbp	#
	.cfi_def_cfa 7, 8
	ret	
	.cfi_endproc
.LFE3258:
	.size	_GLOBAL__sub_I__ZN9container7details11index_checkEll, .-_GLOBAL__sub_I__ZN9container7details11index_checkEll
	.section	.init_array,"aw"
	.align 8
	.quad	_GLOBAL__sub_I__ZN9container7details11index_checkEll
	.section	.rodata
	.align 32
	.type	C.1.0, @object
	.size	C.1.0, 32
C.1.0:
	.quad	2
	.quad	3
	.quad	4
	.quad	5
	.text
.Letext0:
	.file 20 "<built-in>"
	.file 21 "/usr/lib/gcc/x86_64-linux-gnu/12/include/stddef.h"
	.file 22 "/usr/include/x86_64-linux-gnu/bits/types/wint_t.h"
	.file 23 "/usr/include/x86_64-linux-gnu/bits/types/__mbstate_t.h"
	.file 24 "/usr/include/x86_64-linux-gnu/bits/types/mbstate_t.h"
	.file 25 "/usr/include/x86_64-linux-gnu/bits/types/__FILE.h"
	.file 26 "/usr/include/x86_64-linux-gnu/bits/types/struct_FILE.h"
	.file 27 "/usr/include/x86_64-linux-gnu/bits/types/FILE.h"
	.file 28 "/usr/include/c++/12/cwchar"
	.file 29 "/usr/include/x86_64-linux-gnu/c++/12/bits/c++config.h"
	.file 30 "/usr/include/c++/12/type_traits"
	.file 31 "/usr/include/c++/12/bits/exception_ptr.h"
	.file 32 "/usr/include/c++/12/bits/char_traits.h"
	.file 33 "/usr/include/c++/12/cstdint"
	.file 34 "/usr/include/c++/12/clocale"
	.file 35 "/usr/include/c++/12/debug/debug.h"
	.file 36 "/usr/include/c++/12/cstdlib"
	.file 37 "/usr/include/c++/12/cstdio"
	.file 38 "/usr/include/c++/12/bits/ios_base.h"
	.file 39 "/usr/include/c++/12/cwctype"
	.file 40 "/usr/include/c++/12/bits/ostream.tcc"
	.file 41 "/usr/include/c++/12/iosfwd"
	.file 42 "/usr/include/c++/12/bits/functexcept.h"
	.file 43 "/usr/include/c++/12/stdexcept"
	.file 44 "/usr/include/c++/12/ostream"
	.file 45 "/usr/include/wchar.h"
	.file 46 "/usr/include/x86_64-linux-gnu/bits/types/struct_tm.h"
	.file 47 "/usr/include/c++/12/bits/predefined_ops.h"
	.file 48 "/usr/include/c++/12/ext/alloc_traits.h"
	.file 49 "/usr/include/x86_64-linux-gnu/bits/types.h"
	.file 50 "/usr/include/x86_64-linux-gnu/bits/stdint-intn.h"
	.file 51 "/usr/include/x86_64-linux-gnu/bits/stdint-uintn.h"
	.file 52 "/usr/include/stdint.h"
	.file 53 "/usr/include/locale.h"
	.file 54 "/usr/include/stdlib.h"
	.file 55 "/usr/include/x86_64-linux-gnu/sys/types.h"
	.file 56 "/usr/include/x86_64-linux-gnu/bits/types/__fpos_t.h"
	.file 57 "/usr/include/stdio.h"
	.file 58 "/usr/include/x86_64-linux-gnu/bits/wctype-wchar.h"
	.file 59 "/usr/include/wctype.h"
	.file 60 "/usr/include/c++/12/pstl/execution_defs.h"
	.file 61 "/usr/include/c++/12/system_error"
	.section	.debug_info,"",@progbits
.Ldebug_info0:
	.long	0x8107
	.value	0x5
	.byte	0x1
	.byte	0x8
	.long	.Ldebug_abbrev0
	.uleb128 0x70
	.long	.LASF1048
	.byte	0x21
	.long	.LASF0
	.long	.LASF1
	.long	.LLRL2
	.quad	0
	.long	.Ldebug_line0
	.uleb128 0x20
	.byte	0x20
	.byte	0x3
	.long	.LASF2
	.uleb128 0x20
	.byte	0x10
	.byte	0x4
	.long	.LASF3
	.uleb128 0x20
	.byte	0x4
	.byte	0x4
	.long	.LASF4
	.uleb128 0x20
	.byte	0x8
	.byte	0x4
	.long	.LASF5
	.uleb128 0x20
	.byte	0x10
	.byte	0x4
	.long	.LASF6
	.uleb128 0x4
	.long	.LASF13
	.byte	0x15
	.byte	0xd6
	.byte	0x17
	.long	0x59
	.uleb128 0x20
	.byte	0x8
	.byte	0x7
	.long	.LASF7
	.uleb128 0x6
	.long	0x59
	.uleb128 0x71
	.long	.LASF1049
	.byte	0x18
	.byte	0x14
	.byte	0
	.long	0x9a
	.uleb128 0x3f
	.long	.LASF8
	.long	0x9a
	.byte	0
	.uleb128 0x3f
	.long	.LASF9
	.long	0x9a
	.byte	0x4
	.uleb128 0x3f
	.long	.LASF10
	.long	0xa1
	.byte	0x8
	.uleb128 0x3f
	.long	.LASF11
	.long	0xa1
	.byte	0x10
	.byte	0
	.uleb128 0x20
	.byte	0x4
	.byte	0x7
	.long	.LASF12
	.uleb128 0x72
	.byte	0x8
	.uleb128 0x4
	.long	.LASF14
	.byte	0x16
	.byte	0x14
	.byte	0x17
	.long	0x9a
	.uleb128 0x40
	.byte	0x8
	.byte	0x17
	.byte	0xe
	.byte	0x1
	.long	.LASF837
	.long	0xf7
	.uleb128 0x73
	.byte	0x4
	.byte	0x17
	.byte	0x11
	.byte	0x3
	.long	0xdc
	.uleb128 0x54
	.long	.LASF15
	.byte	0x12
	.byte	0x13
	.long	0x9a
	.uleb128 0x54
	.long	.LASF16
	.byte	0x13
	.byte	0xa
	.long	0xf7
	.byte	0
	.uleb128 0x7
	.long	.LASF17
	.byte	0x17
	.byte	0xf
	.byte	0x7
	.long	0x113
	.byte	0
	.uleb128 0x7
	.long	.LASF18
	.byte	0x17
	.byte	0x14
	.byte	0x5
	.long	0xbc
	.byte	0x4
	.byte	0
	.uleb128 0x48
	.long	0x107
	.long	0x107
	.uleb128 0x49
	.long	0x59
	.byte	0x3
	.byte	0
	.uleb128 0x20
	.byte	0x1
	.byte	0x6
	.long	.LASF19
	.uleb128 0x6
	.long	0x107
	.uleb128 0x74
	.byte	0x4
	.byte	0x5
	.string	"int"
	.uleb128 0x6
	.long	0x113
	.uleb128 0x4
	.long	.LASF20
	.byte	0x17
	.byte	0x15
	.byte	0x3
	.long	0xaf
	.uleb128 0x4
	.long	.LASF21
	.byte	0x18
	.byte	0x6
	.byte	0x15
	.long	0x11f
	.uleb128 0x6
	.long	0x12b
	.uleb128 0x4
	.long	.LASF22
	.byte	0x19
	.byte	0x5
	.byte	0x19
	.long	0x148
	.uleb128 0x17
	.long	.LASF54
	.byte	0xd8
	.byte	0x1a
	.byte	0x31
	.byte	0x8
	.long	0x2cf
	.uleb128 0x7
	.long	.LASF23
	.byte	0x1a
	.byte	0x33
	.byte	0x7
	.long	0x113
	.byte	0
	.uleb128 0x7
	.long	.LASF24
	.byte	0x1a
	.byte	0x36
	.byte	0x9
	.long	0x41ce
	.byte	0x8
	.uleb128 0x7
	.long	.LASF25
	.byte	0x1a
	.byte	0x37
	.byte	0x9
	.long	0x41ce
	.byte	0x10
	.uleb128 0x7
	.long	.LASF26
	.byte	0x1a
	.byte	0x38
	.byte	0x9
	.long	0x41ce
	.byte	0x18
	.uleb128 0x7
	.long	.LASF27
	.byte	0x1a
	.byte	0x39
	.byte	0x9
	.long	0x41ce
	.byte	0x20
	.uleb128 0x7
	.long	.LASF28
	.byte	0x1a
	.byte	0x3a
	.byte	0x9
	.long	0x41ce
	.byte	0x28
	.uleb128 0x7
	.long	.LASF29
	.byte	0x1a
	.byte	0x3b
	.byte	0x9
	.long	0x41ce
	.byte	0x30
	.uleb128 0x7
	.long	.LASF30
	.byte	0x1a
	.byte	0x3c
	.byte	0x9
	.long	0x41ce
	.byte	0x38
	.uleb128 0x7
	.long	.LASF31
	.byte	0x1a
	.byte	0x3d
	.byte	0x9
	.long	0x41ce
	.byte	0x40
	.uleb128 0x7
	.long	.LASF32
	.byte	0x1a
	.byte	0x40
	.byte	0x9
	.long	0x41ce
	.byte	0x48
	.uleb128 0x7
	.long	.LASF33
	.byte	0x1a
	.byte	0x41
	.byte	0x9
	.long	0x41ce
	.byte	0x50
	.uleb128 0x7
	.long	.LASF34
	.byte	0x1a
	.byte	0x42
	.byte	0x9
	.long	0x41ce
	.byte	0x58
	.uleb128 0x7
	.long	.LASF35
	.byte	0x1a
	.byte	0x44
	.byte	0x16
	.long	0x54c0
	.byte	0x60
	.uleb128 0x7
	.long	.LASF36
	.byte	0x1a
	.byte	0x46
	.byte	0x14
	.long	0x54c5
	.byte	0x68
	.uleb128 0x7
	.long	.LASF37
	.byte	0x1a
	.byte	0x48
	.byte	0x7
	.long	0x113
	.byte	0x70
	.uleb128 0x7
	.long	.LASF38
	.byte	0x1a
	.byte	0x49
	.byte	0x7
	.long	0x113
	.byte	0x74
	.uleb128 0x7
	.long	.LASF39
	.byte	0x1a
	.byte	0x4a
	.byte	0xb
	.long	0x4d9a
	.byte	0x78
	.uleb128 0x7
	.long	.LASF40
	.byte	0x1a
	.byte	0x4d
	.byte	0x12
	.long	0x2db
	.byte	0x80
	.uleb128 0x7
	.long	.LASF41
	.byte	0x1a
	.byte	0x4e
	.byte	0xf
	.long	0x4c6a
	.byte	0x82
	.uleb128 0x7
	.long	.LASF42
	.byte	0x1a
	.byte	0x4f
	.byte	0x8
	.long	0x54ca
	.byte	0x83
	.uleb128 0x7
	.long	.LASF43
	.byte	0x1a
	.byte	0x51
	.byte	0xf
	.long	0x54da
	.byte	0x88
	.uleb128 0x7
	.long	.LASF44
	.byte	0x1a
	.byte	0x59
	.byte	0xd
	.long	0x4da6
	.byte	0x90
	.uleb128 0x7
	.long	.LASF45
	.byte	0x1a
	.byte	0x5b
	.byte	0x17
	.long	0x54e4
	.byte	0x98
	.uleb128 0x7
	.long	.LASF46
	.byte	0x1a
	.byte	0x5c
	.byte	0x19
	.long	0x54ee
	.byte	0xa0
	.uleb128 0x7
	.long	.LASF47
	.byte	0x1a
	.byte	0x5d
	.byte	0x14
	.long	0x54c5
	.byte	0xa8
	.uleb128 0x7
	.long	.LASF48
	.byte	0x1a
	.byte	0x5e
	.byte	0x9
	.long	0xa1
	.byte	0xb0
	.uleb128 0x7
	.long	.LASF49
	.byte	0x1a
	.byte	0x5f
	.byte	0xa
	.long	0x4d
	.byte	0xb8
	.uleb128 0x7
	.long	.LASF50
	.byte	0x1a
	.byte	0x60
	.byte	0x7
	.long	0x113
	.byte	0xc0
	.uleb128 0x7
	.long	.LASF51
	.byte	0x1a
	.byte	0x62
	.byte	0x8
	.long	0x54f3
	.byte	0xc4
	.byte	0
	.uleb128 0x4
	.long	.LASF52
	.byte	0x1b
	.byte	0x7
	.byte	0x19
	.long	0x148
	.uleb128 0x20
	.byte	0x2
	.byte	0x7
	.long	.LASF53
	.uleb128 0x9
	.long	0x11a
	.uleb128 0x9
	.long	0x10e
	.uleb128 0x75
	.string	"std"
	.byte	0x1d
	.value	0x128
	.byte	0xb
	.long	0x3e96
	.uleb128 0x3
	.byte	0x1c
	.byte	0x40
	.byte	0xb
	.long	0x12b
	.uleb128 0x3
	.byte	0x1c
	.byte	0x8d
	.byte	0xb
	.long	0xa3
	.uleb128 0x3
	.byte	0x1c
	.byte	0x8f
	.byte	0xb
	.long	0x3e96
	.uleb128 0x3
	.byte	0x1c
	.byte	0x90
	.byte	0xb
	.long	0x3ead
	.uleb128 0x3
	.byte	0x1c
	.byte	0x91
	.byte	0xb
	.long	0x3ec9
	.uleb128 0x3
	.byte	0x1c
	.byte	0x92
	.byte	0xb
	.long	0x3efb
	.uleb128 0x3
	.byte	0x1c
	.byte	0x93
	.byte	0xb
	.long	0x3f17
	.uleb128 0x3
	.byte	0x1c
	.byte	0x94
	.byte	0xb
	.long	0x3f38
	.uleb128 0x3
	.byte	0x1c
	.byte	0x95
	.byte	0xb
	.long	0x3f54
	.uleb128 0x3
	.byte	0x1c
	.byte	0x96
	.byte	0xb
	.long	0x3f71
	.uleb128 0x3
	.byte	0x1c
	.byte	0x97
	.byte	0xb
	.long	0x3f92
	.uleb128 0x3
	.byte	0x1c
	.byte	0x98
	.byte	0xb
	.long	0x3fa9
	.uleb128 0x3
	.byte	0x1c
	.byte	0x99
	.byte	0xb
	.long	0x3fb6
	.uleb128 0x3
	.byte	0x1c
	.byte	0x9a
	.byte	0xb
	.long	0x3fdc
	.uleb128 0x3
	.byte	0x1c
	.byte	0x9b
	.byte	0xb
	.long	0x4002
	.uleb128 0x3
	.byte	0x1c
	.byte	0x9c
	.byte	0xb
	.long	0x401e
	.uleb128 0x3
	.byte	0x1c
	.byte	0x9d
	.byte	0xb
	.long	0x4049
	.uleb128 0x3
	.byte	0x1c
	.byte	0x9e
	.byte	0xb
	.long	0x4065
	.uleb128 0x3
	.byte	0x1c
	.byte	0xa0
	.byte	0xb
	.long	0x407c
	.uleb128 0x3
	.byte	0x1c
	.byte	0xa2
	.byte	0xb
	.long	0x409e
	.uleb128 0x3
	.byte	0x1c
	.byte	0xa3
	.byte	0xb
	.long	0x40bf
	.uleb128 0x3
	.byte	0x1c
	.byte	0xa4
	.byte	0xb
	.long	0x40db
	.uleb128 0x3
	.byte	0x1c
	.byte	0xa6
	.byte	0xb
	.long	0x4101
	.uleb128 0x3
	.byte	0x1c
	.byte	0xa9
	.byte	0xb
	.long	0x4126
	.uleb128 0x3
	.byte	0x1c
	.byte	0xac
	.byte	0xb
	.long	0x414c
	.uleb128 0x3
	.byte	0x1c
	.byte	0xae
	.byte	0xb
	.long	0x4171
	.uleb128 0x3
	.byte	0x1c
	.byte	0xb0
	.byte	0xb
	.long	0x418d
	.uleb128 0x3
	.byte	0x1c
	.byte	0xb2
	.byte	0xb
	.long	0x41ad
	.uleb128 0x3
	.byte	0x1c
	.byte	0xb3
	.byte	0xb
	.long	0x41d3
	.uleb128 0x3
	.byte	0x1c
	.byte	0xb4
	.byte	0xb
	.long	0x41ee
	.uleb128 0x3
	.byte	0x1c
	.byte	0xb5
	.byte	0xb
	.long	0x4209
	.uleb128 0x3
	.byte	0x1c
	.byte	0xb6
	.byte	0xb
	.long	0x4224
	.uleb128 0x3
	.byte	0x1c
	.byte	0xb7
	.byte	0xb
	.long	0x423f
	.uleb128 0x3
	.byte	0x1c
	.byte	0xb8
	.byte	0xb
	.long	0x425a
	.uleb128 0x3
	.byte	0x1c
	.byte	0xb9
	.byte	0xb
	.long	0x4327
	.uleb128 0x3
	.byte	0x1c
	.byte	0xba
	.byte	0xb
	.long	0x433d
	.uleb128 0x3
	.byte	0x1c
	.byte	0xbb
	.byte	0xb
	.long	0x435d
	.uleb128 0x3
	.byte	0x1c
	.byte	0xbc
	.byte	0xb
	.long	0x437d
	.uleb128 0x3
	.byte	0x1c
	.byte	0xbd
	.byte	0xb
	.long	0x439d
	.uleb128 0x3
	.byte	0x1c
	.byte	0xbe
	.byte	0xb
	.long	0x43c8
	.uleb128 0x3
	.byte	0x1c
	.byte	0xbf
	.byte	0xb
	.long	0x43e3
	.uleb128 0x3
	.byte	0x1c
	.byte	0xc1
	.byte	0xb
	.long	0x4404
	.uleb128 0x3
	.byte	0x1c
	.byte	0xc3
	.byte	0xb
	.long	0x4420
	.uleb128 0x3
	.byte	0x1c
	.byte	0xc4
	.byte	0xb
	.long	0x4440
	.uleb128 0x3
	.byte	0x1c
	.byte	0xc5
	.byte	0xb
	.long	0x446d
	.uleb128 0x3
	.byte	0x1c
	.byte	0xc6
	.byte	0xb
	.long	0x448e
	.uleb128 0x3
	.byte	0x1c
	.byte	0xc7
	.byte	0xb
	.long	0x44ae
	.uleb128 0x3
	.byte	0x1c
	.byte	0xc8
	.byte	0xb
	.long	0x44c5
	.uleb128 0x3
	.byte	0x1c
	.byte	0xc9
	.byte	0xb
	.long	0x44e6
	.uleb128 0x3
	.byte	0x1c
	.byte	0xca
	.byte	0xb
	.long	0x4507
	.uleb128 0x3
	.byte	0x1c
	.byte	0xcb
	.byte	0xb
	.long	0x4528
	.uleb128 0x3
	.byte	0x1c
	.byte	0xcc
	.byte	0xb
	.long	0x4549
	.uleb128 0x3
	.byte	0x1c
	.byte	0xcd
	.byte	0xb
	.long	0x4561
	.uleb128 0x3
	.byte	0x1c
	.byte	0xce
	.byte	0xb
	.long	0x457d
	.uleb128 0x3
	.byte	0x1c
	.byte	0xce
	.byte	0xb
	.long	0x459c
	.uleb128 0x3
	.byte	0x1c
	.byte	0xcf
	.byte	0xb
	.long	0x45bb
	.uleb128 0x3
	.byte	0x1c
	.byte	0xcf
	.byte	0xb
	.long	0x45da
	.uleb128 0x3
	.byte	0x1c
	.byte	0xd0
	.byte	0xb
	.long	0x45f9
	.uleb128 0x3
	.byte	0x1c
	.byte	0xd0
	.byte	0xb
	.long	0x4618
	.uleb128 0x3
	.byte	0x1c
	.byte	0xd1
	.byte	0xb
	.long	0x4637
	.uleb128 0x3
	.byte	0x1c
	.byte	0xd1
	.byte	0xb
	.long	0x4656
	.uleb128 0x3
	.byte	0x1c
	.byte	0xd2
	.byte	0xb
	.long	0x4675
	.uleb128 0x3
	.byte	0x1c
	.byte	0xd2
	.byte	0xb
	.long	0x4699
	.uleb128 0x18
	.byte	0x1c
	.value	0x10b
	.byte	0x16
	.long	0x4bdb
	.uleb128 0x18
	.byte	0x1c
	.value	0x10c
	.byte	0x16
	.long	0x4bf7
	.uleb128 0x18
	.byte	0x1c
	.value	0x10d
	.byte	0x16
	.long	0x4c1f
	.uleb128 0x18
	.byte	0x1c
	.value	0x11b
	.byte	0xe
	.long	0x4404
	.uleb128 0x18
	.byte	0x1c
	.value	0x11e
	.byte	0xe
	.long	0x4101
	.uleb128 0x18
	.byte	0x1c
	.value	0x121
	.byte	0xe
	.long	0x414c
	.uleb128 0x18
	.byte	0x1c
	.value	0x124
	.byte	0xe
	.long	0x418d
	.uleb128 0x18
	.byte	0x1c
	.value	0x128
	.byte	0xe
	.long	0x4bdb
	.uleb128 0x18
	.byte	0x1c
	.value	0x129
	.byte	0xe
	.long	0x4bf7
	.uleb128 0x18
	.byte	0x1c
	.value	0x12a
	.byte	0xe
	.long	0x4c1f
	.uleb128 0x76
	.long	.LASF1050
	.byte	0x7
	.byte	0x8
	.long	0x59
	.byte	0x1
	.byte	0x59
	.byte	0xe
	.uleb128 0x19
	.long	.LASF13
	.byte	0x1d
	.value	0x12a
	.byte	0x1a
	.long	0x59
	.uleb128 0x6
	.long	0x559
	.uleb128 0x17
	.long	.LASF55
	.byte	0x1
	.byte	0x1e
	.byte	0x3e
	.byte	0xc
	.long	0x5d4
	.uleb128 0x4
	.long	.LASF56
	.byte	0x1e
	.byte	0x41
	.byte	0x2d
	.long	0x4c4d
	.uleb128 0x35
	.long	.LASF57
	.byte	0x1e
	.byte	0x43
	.byte	0x11
	.long	.LASF59
	.long	0x578
	.long	0x59c
	.long	0x5a2
	.uleb128 0x2
	.long	0x4c59
	.byte	0
	.uleb128 0x35
	.long	.LASF58
	.byte	0x1e
	.byte	0x48
	.byte	0x1c
	.long	.LASF60
	.long	0x578
	.long	0x5ba
	.long	0x5c0
	.uleb128 0x2
	.long	0x4c59
	.byte	0
	.uleb128 0xa
	.string	"_Tp"
	.long	0x4c4d
	.uleb128 0x55
	.string	"__v"
	.long	0x4c4d
	.byte	0
	.byte	0
	.uleb128 0x6
	.long	0x56b
	.uleb128 0x17
	.long	.LASF61
	.byte	0x1
	.byte	0x1e
	.byte	0x3e
	.byte	0xc
	.long	0x642
	.uleb128 0x4
	.long	.LASF56
	.byte	0x1e
	.byte	0x41
	.byte	0x2d
	.long	0x4c4d
	.uleb128 0x35
	.long	.LASF62
	.byte	0x1e
	.byte	0x43
	.byte	0x11
	.long	.LASF63
	.long	0x5e6
	.long	0x60a
	.long	0x610
	.uleb128 0x2
	.long	0x4c5e
	.byte	0
	.uleb128 0x35
	.long	.LASF58
	.byte	0x1e
	.byte	0x48
	.byte	0x1c
	.long	.LASF64
	.long	0x5e6
	.long	0x628
	.long	0x62e
	.uleb128 0x2
	.long	0x4c5e
	.byte	0
	.uleb128 0xa
	.string	"_Tp"
	.long	0x4c4d
	.uleb128 0x55
	.string	"__v"
	.long	0x4c4d
	.byte	0x1
	.byte	0
	.uleb128 0x6
	.long	0x5d9
	.uleb128 0x4
	.long	.LASF65
	.byte	0x1e
	.byte	0x55
	.byte	0x9
	.long	0x56b
	.uleb128 0x56
	.long	.LASF66
	.value	0xa9f
	.uleb128 0x56
	.long	.LASF67
	.value	0xaf5
	.uleb128 0x41
	.long	.LASF68
	.byte	0x1f
	.byte	0x3f
	.byte	0xd
	.long	0x83e
	.uleb128 0x2c
	.long	.LASF70
	.byte	0x8
	.byte	0x1f
	.byte	0x5a
	.byte	0xb
	.long	0x830
	.uleb128 0x7
	.long	.LASF69
	.byte	0x1f
	.byte	0x5c
	.byte	0xd
	.long	0xa1
	.byte	0
	.uleb128 0x77
	.long	.LASF70
	.byte	0x1f
	.byte	0x5e
	.byte	0x10
	.long	.LASF71
	.long	0x69b
	.long	0x6a6
	.uleb128 0x2
	.long	0x4c86
	.uleb128 0x1
	.long	0xa1
	.byte	0
	.uleb128 0x23
	.long	.LASF72
	.byte	0x1f
	.byte	0x60
	.byte	0xc
	.long	.LASF74
	.long	0x6ba
	.long	0x6c0
	.uleb128 0x2
	.long	0x4c86
	.byte	0
	.uleb128 0x23
	.long	.LASF73
	.byte	0x1f
	.byte	0x61
	.byte	0xc
	.long	.LASF75
	.long	0x6d4
	.long	0x6da
	.uleb128 0x2
	.long	0x4c86
	.byte	0
	.uleb128 0x35
	.long	.LASF76
	.byte	0x1f
	.byte	0x63
	.byte	0xd
	.long	.LASF77
	.long	0xa1
	.long	0x6f2
	.long	0x6f8
	.uleb128 0x2
	.long	0x4c8b
	.byte	0
	.uleb128 0x1d
	.long	.LASF70
	.byte	0x1f
	.byte	0x6b
	.byte	0x7
	.long	.LASF78
	.long	0x70c
	.long	0x712
	.uleb128 0x2
	.long	0x4c86
	.byte	0
	.uleb128 0x1d
	.long	.LASF70
	.byte	0x1f
	.byte	0x6d
	.byte	0x7
	.long	.LASF79
	.long	0x726
	.long	0x731
	.uleb128 0x2
	.long	0x4c86
	.uleb128 0x1
	.long	0x4c90
	.byte	0
	.uleb128 0x1d
	.long	.LASF70
	.byte	0x1f
	.byte	0x70
	.byte	0x7
	.long	.LASF80
	.long	0x745
	.long	0x750
	.uleb128 0x2
	.long	0x4c86
	.uleb128 0x1
	.long	0x85c
	.byte	0
	.uleb128 0x1d
	.long	.LASF70
	.byte	0x1f
	.byte	0x74
	.byte	0x7
	.long	.LASF81
	.long	0x764
	.long	0x76f
	.uleb128 0x2
	.long	0x4c86
	.uleb128 0x1
	.long	0x4c95
	.byte	0
	.uleb128 0x16
	.long	.LASF82
	.byte	0x1f
	.byte	0x81
	.byte	0x7
	.long	.LASF83
	.long	0x4c9a
	.byte	0x1
	.long	0x788
	.long	0x793
	.uleb128 0x2
	.long	0x4c86
	.uleb128 0x1
	.long	0x4c90
	.byte	0
	.uleb128 0x16
	.long	.LASF82
	.byte	0x1f
	.byte	0x85
	.byte	0x7
	.long	.LASF84
	.long	0x4c9a
	.byte	0x1
	.long	0x7ac
	.long	0x7b7
	.uleb128 0x2
	.long	0x4c86
	.uleb128 0x1
	.long	0x4c95
	.byte	0
	.uleb128 0x1d
	.long	.LASF85
	.byte	0x1f
	.byte	0x8c
	.byte	0x7
	.long	.LASF86
	.long	0x7cb
	.long	0x7d6
	.uleb128 0x2
	.long	0x4c86
	.uleb128 0x2
	.long	0x113
	.byte	0
	.uleb128 0x1d
	.long	.LASF87
	.byte	0x1f
	.byte	0x8f
	.byte	0x7
	.long	.LASF88
	.long	0x7ea
	.long	0x7f5
	.uleb128 0x2
	.long	0x4c86
	.uleb128 0x1
	.long	0x4c9a
	.byte	0
	.uleb128 0x78
	.long	.LASF177
	.byte	0x1f
	.byte	0x9b
	.byte	0x10
	.long	.LASF178
	.long	0x4c4d
	.byte	0x1
	.long	0x80e
	.long	0x814
	.uleb128 0x2
	.long	0x4c8b
	.byte	0
	.uleb128 0x79
	.long	.LASF89
	.byte	0x1f
	.byte	0xb0
	.byte	0x7
	.long	.LASF90
	.long	0x4c9f
	.byte	0x1
	.long	0x829
	.uleb128 0x2
	.long	0x4c8b
	.byte	0
	.byte	0
	.uleb128 0x6
	.long	0x66d
	.uleb128 0x3
	.byte	0x1f
	.byte	0x54
	.byte	0x10
	.long	0x846
	.byte	0
	.uleb128 0x3
	.byte	0x1f
	.byte	0x44
	.byte	0x1a
	.long	0x66d
	.uleb128 0x57
	.long	.LASF91
	.byte	0x1f
	.byte	0x50
	.byte	0x8
	.long	.LASF92
	.long	0x85c
	.uleb128 0x1
	.long	0x66d
	.byte	0
	.uleb128 0x19
	.long	.LASF93
	.byte	0x1d
	.value	0x12e
	.byte	0x1d
	.long	0x4c47
	.uleb128 0x2f
	.long	.LASF379
	.uleb128 0x6
	.long	0x869
	.uleb128 0x38
	.long	.LASF94
	.byte	0x20
	.value	0x14f
	.long	0xa59
	.uleb128 0x36
	.long	.LASF108
	.byte	0x20
	.value	0x15b
	.byte	0x7
	.long	.LASF187
	.long	0x89b
	.uleb128 0x1
	.long	0x4ca4
	.uleb128 0x1
	.long	0x4ca9
	.byte	0
	.uleb128 0x19
	.long	.LASF95
	.byte	0x20
	.value	0x151
	.byte	0x21
	.long	0x107
	.uleb128 0x6
	.long	0x89b
	.uleb128 0x58
	.string	"eq"
	.value	0x166
	.long	.LASF96
	.long	0x4c4d
	.long	0x8ca
	.uleb128 0x1
	.long	0x4ca9
	.uleb128 0x1
	.long	0x4ca9
	.byte	0
	.uleb128 0x58
	.string	"lt"
	.value	0x16a
	.long	.LASF97
	.long	0x4c4d
	.long	0x8e7
	.uleb128 0x1
	.long	0x4ca9
	.uleb128 0x1
	.long	0x4ca9
	.byte	0
	.uleb128 0xe
	.long	.LASF98
	.byte	0x20
	.value	0x172
	.byte	0x7
	.long	.LASF100
	.long	0x113
	.long	0x90c
	.uleb128 0x1
	.long	0x4cae
	.uleb128 0x1
	.long	0x4cae
	.uleb128 0x1
	.long	0x559
	.byte	0
	.uleb128 0xe
	.long	.LASF99
	.byte	0x20
	.value	0x185
	.byte	0x7
	.long	.LASF101
	.long	0x559
	.long	0x927
	.uleb128 0x1
	.long	0x4cae
	.byte	0
	.uleb128 0xe
	.long	.LASF102
	.byte	0x20
	.value	0x18f
	.byte	0x7
	.long	.LASF103
	.long	0x4cae
	.long	0x94c
	.uleb128 0x1
	.long	0x4cae
	.uleb128 0x1
	.long	0x559
	.uleb128 0x1
	.long	0x4ca9
	.byte	0
	.uleb128 0xe
	.long	.LASF104
	.byte	0x20
	.value	0x19b
	.byte	0x7
	.long	.LASF105
	.long	0x4cb3
	.long	0x971
	.uleb128 0x1
	.long	0x4cb3
	.uleb128 0x1
	.long	0x4cae
	.uleb128 0x1
	.long	0x559
	.byte	0
	.uleb128 0xe
	.long	.LASF106
	.byte	0x20
	.value	0x1a7
	.byte	0x7
	.long	.LASF107
	.long	0x4cb3
	.long	0x996
	.uleb128 0x1
	.long	0x4cb3
	.uleb128 0x1
	.long	0x4cae
	.uleb128 0x1
	.long	0x559
	.byte	0
	.uleb128 0xe
	.long	.LASF108
	.byte	0x20
	.value	0x1b3
	.byte	0x7
	.long	.LASF109
	.long	0x4cb3
	.long	0x9bb
	.uleb128 0x1
	.long	0x4cb3
	.uleb128 0x1
	.long	0x559
	.uleb128 0x1
	.long	0x89b
	.byte	0
	.uleb128 0xe
	.long	.LASF110
	.byte	0x20
	.value	0x1bf
	.byte	0x7
	.long	.LASF111
	.long	0x89b
	.long	0x9d6
	.uleb128 0x1
	.long	0x4cb8
	.byte	0
	.uleb128 0x19
	.long	.LASF112
	.byte	0x20
	.value	0x152
	.byte	0x21
	.long	0x113
	.uleb128 0x6
	.long	0x9d6
	.uleb128 0xe
	.long	.LASF113
	.byte	0x20
	.value	0x1c5
	.byte	0x7
	.long	.LASF114
	.long	0x9d6
	.long	0xa03
	.uleb128 0x1
	.long	0x4ca9
	.byte	0
	.uleb128 0xe
	.long	.LASF115
	.byte	0x20
	.value	0x1c9
	.byte	0x7
	.long	.LASF116
	.long	0x4c4d
	.long	0xa23
	.uleb128 0x1
	.long	0x4cb8
	.uleb128 0x1
	.long	0x4cb8
	.byte	0
	.uleb128 0x7a
	.string	"eof"
	.byte	0x20
	.value	0x1cd
	.byte	0x7
	.long	.LASF1051
	.long	0x9d6
	.uleb128 0xe
	.long	.LASF117
	.byte	0x20
	.value	0x1d1
	.byte	0x7
	.long	.LASF118
	.long	0x9d6
	.long	0xa4f
	.uleb128 0x1
	.long	0x4cb8
	.byte	0
	.uleb128 0x5
	.long	.LASF119
	.long	0x107
	.byte	0
	.uleb128 0x3
	.byte	0x21
	.byte	0x2f
	.byte	0xb
	.long	0x4dbe
	.uleb128 0x3
	.byte	0x21
	.byte	0x30
	.byte	0xb
	.long	0x4dca
	.uleb128 0x3
	.byte	0x21
	.byte	0x31
	.byte	0xb
	.long	0x4dd6
	.uleb128 0x3
	.byte	0x21
	.byte	0x32
	.byte	0xb
	.long	0x4de2
	.uleb128 0x3
	.byte	0x21
	.byte	0x34
	.byte	0xb
	.long	0x4e7e
	.uleb128 0x3
	.byte	0x21
	.byte	0x35
	.byte	0xb
	.long	0x4e8a
	.uleb128 0x3
	.byte	0x21
	.byte	0x36
	.byte	0xb
	.long	0x4e96
	.uleb128 0x3
	.byte	0x21
	.byte	0x37
	.byte	0xb
	.long	0x4ea2
	.uleb128 0x3
	.byte	0x21
	.byte	0x39
	.byte	0xb
	.long	0x4e1e
	.uleb128 0x3
	.byte	0x21
	.byte	0x3a
	.byte	0xb
	.long	0x4e2a
	.uleb128 0x3
	.byte	0x21
	.byte	0x3b
	.byte	0xb
	.long	0x4e36
	.uleb128 0x3
	.byte	0x21
	.byte	0x3c
	.byte	0xb
	.long	0x4e42
	.uleb128 0x3
	.byte	0x21
	.byte	0x3e
	.byte	0xb
	.long	0x4ef6
	.uleb128 0x3
	.byte	0x21
	.byte	0x3f
	.byte	0xb
	.long	0x4ede
	.uleb128 0x3
	.byte	0x21
	.byte	0x41
	.byte	0xb
	.long	0x4dee
	.uleb128 0x3
	.byte	0x21
	.byte	0x42
	.byte	0xb
	.long	0x4dfa
	.uleb128 0x3
	.byte	0x21
	.byte	0x43
	.byte	0xb
	.long	0x4e06
	.uleb128 0x3
	.byte	0x21
	.byte	0x44
	.byte	0xb
	.long	0x4e12
	.uleb128 0x3
	.byte	0x21
	.byte	0x46
	.byte	0xb
	.long	0x4eae
	.uleb128 0x3
	.byte	0x21
	.byte	0x47
	.byte	0xb
	.long	0x4eba
	.uleb128 0x3
	.byte	0x21
	.byte	0x48
	.byte	0xb
	.long	0x4ec6
	.uleb128 0x3
	.byte	0x21
	.byte	0x49
	.byte	0xb
	.long	0x4ed2
	.uleb128 0x3
	.byte	0x21
	.byte	0x4b
	.byte	0xb
	.long	0x4e4e
	.uleb128 0x3
	.byte	0x21
	.byte	0x4c
	.byte	0xb
	.long	0x4e5a
	.uleb128 0x3
	.byte	0x21
	.byte	0x4d
	.byte	0xb
	.long	0x4e66
	.uleb128 0x3
	.byte	0x21
	.byte	0x4e
	.byte	0xb
	.long	0x4e72
	.uleb128 0x3
	.byte	0x21
	.byte	0x50
	.byte	0xb
	.long	0x4f02
	.uleb128 0x3
	.byte	0x21
	.byte	0x51
	.byte	0xb
	.long	0x4eea
	.uleb128 0x3
	.byte	0x22
	.byte	0x35
	.byte	0xb
	.long	0x4f0e
	.uleb128 0x3
	.byte	0x22
	.byte	0x36
	.byte	0xb
	.long	0x5054
	.uleb128 0x3
	.byte	0x22
	.byte	0x37
	.byte	0xb
	.long	0x506f
	.uleb128 0x19
	.long	.LASF120
	.byte	0x1d
	.value	0x12b
	.byte	0x1c
	.long	0x4461
	.uleb128 0x6
	.long	0xb51
	.uleb128 0x4
	.long	.LASF121
	.byte	0x1e
	.byte	0x52
	.byte	0x9
	.long	0x5d9
	.uleb128 0x7b
	.long	.LASF1052
	.byte	0x1
	.byte	0xf
	.byte	0x5d
	.byte	0xa
	.uleb128 0x17
	.long	.LASF122
	.byte	0x1
	.byte	0xf
	.byte	0x63
	.byte	0xa
	.long	0xb8b
	.uleb128 0x30
	.long	0xb6f
	.byte	0
	.uleb128 0x17
	.long	.LASF123
	.byte	0x1
	.byte	0xf
	.byte	0x67
	.byte	0xa
	.long	0xb9e
	.uleb128 0x30
	.long	0xb78
	.byte	0
	.uleb128 0x17
	.long	.LASF124
	.byte	0x1
	.byte	0xf
	.byte	0x6b
	.byte	0xa
	.long	0xbb1
	.uleb128 0x30
	.long	0xb8b
	.byte	0
	.uleb128 0x59
	.long	.LASF125
	.byte	0x23
	.byte	0x32
	.byte	0xd
	.uleb128 0x17
	.long	.LASF126
	.byte	0x1
	.byte	0xe
	.byte	0xa8
	.byte	0xc
	.long	0xc0b
	.uleb128 0x37
	.long	.LASF127
	.byte	0xe
	.byte	0xac
	.byte	0x9
	.long	.LASF203
	.long	0xbea
	.uleb128 0x5
	.long	.LASF128
	.long	0x59a5
	.uleb128 0x1
	.long	0x59a5
	.uleb128 0x1
	.long	0x59a5
	.byte	0
	.uleb128 0x7c
	.long	.LASF858
	.byte	0xe
	.byte	0xac
	.byte	0x9
	.long	.LASF1053
	.uleb128 0x5
	.long	.LASF128
	.long	0x5a95
	.uleb128 0x1
	.long	0x5a95
	.uleb128 0x1
	.long	0x5a95
	.byte	0
	.byte	0
	.uleb128 0x3
	.byte	0x24
	.byte	0x7f
	.byte	0xb
	.long	0x50d5
	.uleb128 0x3
	.byte	0x24
	.byte	0x80
	.byte	0xb
	.long	0x5108
	.uleb128 0x3
	.byte	0x24
	.byte	0x86
	.byte	0xb
	.long	0x517a
	.uleb128 0x3
	.byte	0x24
	.byte	0x89
	.byte	0xb
	.long	0x5198
	.uleb128 0x3
	.byte	0x24
	.byte	0x8c
	.byte	0xb
	.long	0x51b3
	.uleb128 0x3
	.byte	0x24
	.byte	0x8d
	.byte	0xb
	.long	0x51c9
	.uleb128 0x3
	.byte	0x24
	.byte	0x8e
	.byte	0xb
	.long	0x51df
	.uleb128 0x3
	.byte	0x24
	.byte	0x8f
	.byte	0xb
	.long	0x51f5
	.uleb128 0x3
	.byte	0x24
	.byte	0x91
	.byte	0xb
	.long	0x5220
	.uleb128 0x3
	.byte	0x24
	.byte	0x94
	.byte	0xb
	.long	0x523d
	.uleb128 0x3
	.byte	0x24
	.byte	0x96
	.byte	0xb
	.long	0x5254
	.uleb128 0x3
	.byte	0x24
	.byte	0x99
	.byte	0xb
	.long	0x5270
	.uleb128 0x3
	.byte	0x24
	.byte	0x9a
	.byte	0xb
	.long	0x528c
	.uleb128 0x3
	.byte	0x24
	.byte	0x9b
	.byte	0xb
	.long	0x52ad
	.uleb128 0x3
	.byte	0x24
	.byte	0x9d
	.byte	0xb
	.long	0x52ce
	.uleb128 0x3
	.byte	0x24
	.byte	0xa0
	.byte	0xb
	.long	0x52ef
	.uleb128 0x3
	.byte	0x24
	.byte	0xa3
	.byte	0xb
	.long	0x5303
	.uleb128 0x3
	.byte	0x24
	.byte	0xa5
	.byte	0xb
	.long	0x5310
	.uleb128 0x3
	.byte	0x24
	.byte	0xa6
	.byte	0xb
	.long	0x5322
	.uleb128 0x3
	.byte	0x24
	.byte	0xa7
	.byte	0xb
	.long	0x5342
	.uleb128 0x3
	.byte	0x24
	.byte	0xa8
	.byte	0xb
	.long	0x5362
	.uleb128 0x3
	.byte	0x24
	.byte	0xa9
	.byte	0xb
	.long	0x5382
	.uleb128 0x3
	.byte	0x24
	.byte	0xab
	.byte	0xb
	.long	0x5399
	.uleb128 0x3
	.byte	0x24
	.byte	0xac
	.byte	0xb
	.long	0x53ba
	.uleb128 0x3
	.byte	0x24
	.byte	0xf0
	.byte	0x16
	.long	0x513b
	.uleb128 0x3
	.byte	0x24
	.byte	0xf5
	.byte	0x16
	.long	0x4725
	.uleb128 0x3
	.byte	0x24
	.byte	0xf6
	.byte	0x16
	.long	0x53d6
	.uleb128 0x3
	.byte	0x24
	.byte	0xf8
	.byte	0x16
	.long	0x53f2
	.uleb128 0x3
	.byte	0x24
	.byte	0xf9
	.byte	0x16
	.long	0x5448
	.uleb128 0x3
	.byte	0x24
	.byte	0xfa
	.byte	0x16
	.long	0x5408
	.uleb128 0x3
	.byte	0x24
	.byte	0xfb
	.byte	0x16
	.long	0x5428
	.uleb128 0x3
	.byte	0x24
	.byte	0xfc
	.byte	0x16
	.long	0x5463
	.uleb128 0x3
	.byte	0x25
	.byte	0x62
	.byte	0xb
	.long	0x2cf
	.uleb128 0x3
	.byte	0x25
	.byte	0x63
	.byte	0xb
	.long	0x5503
	.uleb128 0x3
	.byte	0x25
	.byte	0x65
	.byte	0xb
	.long	0x5519
	.uleb128 0x3
	.byte	0x25
	.byte	0x66
	.byte	0xb
	.long	0x552b
	.uleb128 0x3
	.byte	0x25
	.byte	0x67
	.byte	0xb
	.long	0x5541
	.uleb128 0x3
	.byte	0x25
	.byte	0x68
	.byte	0xb
	.long	0x5558
	.uleb128 0x3
	.byte	0x25
	.byte	0x69
	.byte	0xb
	.long	0x556f
	.uleb128 0x3
	.byte	0x25
	.byte	0x6a
	.byte	0xb
	.long	0x5585
	.uleb128 0x3
	.byte	0x25
	.byte	0x6b
	.byte	0xb
	.long	0x559c
	.uleb128 0x3
	.byte	0x25
	.byte	0x6c
	.byte	0xb
	.long	0x55bd
	.uleb128 0x3
	.byte	0x25
	.byte	0x6d
	.byte	0xb
	.long	0x55de
	.uleb128 0x3
	.byte	0x25
	.byte	0x71
	.byte	0xb
	.long	0x55fa
	.uleb128 0x3
	.byte	0x25
	.byte	0x72
	.byte	0xb
	.long	0x5620
	.uleb128 0x3
	.byte	0x25
	.byte	0x74
	.byte	0xb
	.long	0x5641
	.uleb128 0x3
	.byte	0x25
	.byte	0x75
	.byte	0xb
	.long	0x5662
	.uleb128 0x3
	.byte	0x25
	.byte	0x76
	.byte	0xb
	.long	0x5683
	.uleb128 0x3
	.byte	0x25
	.byte	0x78
	.byte	0xb
	.long	0x569a
	.uleb128 0x3
	.byte	0x25
	.byte	0x79
	.byte	0xb
	.long	0x56b1
	.uleb128 0x3
	.byte	0x25
	.byte	0x7e
	.byte	0xb
	.long	0x56be
	.uleb128 0x3
	.byte	0x25
	.byte	0x83
	.byte	0xb
	.long	0x56d0
	.uleb128 0x3
	.byte	0x25
	.byte	0x84
	.byte	0xb
	.long	0x56e6
	.uleb128 0x3
	.byte	0x25
	.byte	0x85
	.byte	0xb
	.long	0x5701
	.uleb128 0x3
	.byte	0x25
	.byte	0x87
	.byte	0xb
	.long	0x5713
	.uleb128 0x3
	.byte	0x25
	.byte	0x88
	.byte	0xb
	.long	0x572a
	.uleb128 0x3
	.byte	0x25
	.byte	0x8b
	.byte	0xb
	.long	0x5750
	.uleb128 0x3
	.byte	0x25
	.byte	0x8d
	.byte	0xb
	.long	0x575c
	.uleb128 0x3
	.byte	0x25
	.byte	0x8f
	.byte	0xb
	.long	0x5772
	.uleb128 0x7d
	.long	.LASF129
	.byte	0x1d
	.value	0x14b
	.byte	0x41
	.uleb128 0x7e
	.string	"_V2"
	.byte	0x3d
	.byte	0x50
	.byte	0x14
	.uleb128 0x4a
	.long	.LASF136
	.long	0xe8c
	.uleb128 0x7f
	.long	.LASF130
	.byte	0x1
	.byte	0x26
	.value	0x27b
	.byte	0xb
	.byte	0x1
	.long	0xe86
	.uleb128 0x5a
	.long	.LASF130
	.value	0x27f
	.long	.LASF132
	.long	0xe1f
	.long	0xe25
	.uleb128 0x2
	.long	0x578e
	.byte	0
	.uleb128 0x5a
	.long	.LASF131
	.value	0x280
	.long	.LASF133
	.long	0xe38
	.long	0xe43
	.uleb128 0x2
	.long	0x578e
	.uleb128 0x2
	.long	0x113
	.byte	0
	.uleb128 0x3c
	.long	.LASF130
	.byte	0x26
	.value	0x283
	.long	.LASF134
	.long	0xe57
	.long	0xe62
	.uleb128 0x2
	.long	0x578e
	.uleb128 0x1
	.long	0x5798
	.byte	0
	.uleb128 0x80
	.long	.LASF82
	.byte	0x26
	.value	0x284
	.byte	0xd
	.long	.LASF135
	.long	0x579d
	.byte	0x1
	.byte	0x1
	.long	0xe7a
	.uleb128 0x2
	.long	0x578e
	.uleb128 0x1
	.long	0x5798
	.byte	0
	.byte	0
	.uleb128 0x6
	.long	0xdfd
	.byte	0
	.uleb128 0x3
	.byte	0x27
	.byte	0x52
	.byte	0xb
	.long	0x57ae
	.uleb128 0x3
	.byte	0x27
	.byte	0x53
	.byte	0xb
	.long	0x57a2
	.uleb128 0x3
	.byte	0x27
	.byte	0x54
	.byte	0xb
	.long	0xa3
	.uleb128 0x3
	.byte	0x27
	.byte	0x5c
	.byte	0xb
	.long	0x57bf
	.uleb128 0x3
	.byte	0x27
	.byte	0x65
	.byte	0xb
	.long	0x57da
	.uleb128 0x3
	.byte	0x27
	.byte	0x68
	.byte	0xb
	.long	0x57f5
	.uleb128 0x3
	.byte	0x27
	.byte	0x69
	.byte	0xb
	.long	0x580b
	.uleb128 0x4a
	.long	.LASF137
	.long	0xf04
	.uleb128 0x16
	.long	.LASF138
	.byte	0x28
	.byte	0x69
	.byte	0x5
	.long	.LASF139
	.long	0x5826
	.byte	0x1
	.long	0xee6
	.long	0xef1
	.uleb128 0x2
	.long	0x5ddf
	.uleb128 0x1
	.long	0x113
	.byte	0
	.uleb128 0x5
	.long	.LASF119
	.long	0x107
	.uleb128 0x5b
	.long	.LASF369
	.long	0x873
	.byte	0
	.uleb128 0x4
	.long	.LASF140
	.byte	0x29
	.byte	0x8d
	.byte	0x21
	.long	0xec4
	.uleb128 0x81
	.long	.LASF934
	.byte	0x13
	.byte	0x3d
	.byte	0x12
	.long	.LASF1054
	.long	0xf04
	.uleb128 0x82
	.long	.LASF976
	.byte	0x13
	.byte	0x4a
	.byte	0x19
	.long	0xdfd
	.uleb128 0x17
	.long	.LASF141
	.byte	0x1
	.byte	0x10
	.byte	0x8d
	.byte	0xc
	.long	0xf7c
	.uleb128 0x1e
	.long	.LASF142
	.byte	0x10
	.byte	0x91
	.byte	0x9
	.long	.LASF143
	.long	0x59a5
	.long	0xf71
	.uleb128 0x5
	.long	.LASF144
	.long	0x59be
	.uleb128 0x5
	.long	.LASF128
	.long	0x59a5
	.uleb128 0x1
	.long	0x59be
	.uleb128 0x1
	.long	0x59be
	.uleb128 0x1
	.long	0x59a5
	.byte	0
	.uleb128 0x2d
	.long	.LASF145
	.long	0x4c4d
	.byte	0x1
	.byte	0
	.uleb128 0x38
	.long	.LASF146
	.byte	0x10
	.value	0x28a
	.long	0xfc5
	.uleb128 0xe
	.long	.LASF147
	.byte	0x10
	.value	0x28f
	.byte	0x9
	.long	.LASF148
	.long	0x5a95
	.long	0xfba
	.uleb128 0x5
	.long	.LASF128
	.long	0x5a95
	.uleb128 0x5
	.long	.LASF149
	.long	0x59
	.uleb128 0x1
	.long	0x5a95
	.uleb128 0x1
	.long	0x59
	.byte	0
	.uleb128 0x2d
	.long	.LASF150
	.long	0x4c4d
	.byte	0x1
	.byte	0
	.uleb128 0x2c
	.long	.LASF151
	.byte	0x1
	.byte	0x9
	.byte	0x38
	.byte	0xb
	.long	0x1142
	.uleb128 0x1d
	.long	.LASF152
	.byte	0x9
	.byte	0x50
	.byte	0x7
	.long	.LASF153
	.long	0xfe6
	.long	0xfec
	.uleb128 0x2
	.long	0x5996
	.byte	0
	.uleb128 0x1d
	.long	.LASF152
	.byte	0x9
	.byte	0x53
	.byte	0x7
	.long	.LASF154
	.long	0x1000
	.long	0x100b
	.uleb128 0x2
	.long	0x5996
	.uleb128 0x1
	.long	0x59a0
	.byte	0
	.uleb128 0x1d
	.long	.LASF155
	.byte	0x9
	.byte	0x5a
	.byte	0x7
	.long	.LASF156
	.long	0x101f
	.long	0x102a
	.uleb128 0x2
	.long	0x5996
	.uleb128 0x2
	.long	0x113
	.byte	0
	.uleb128 0x28
	.long	.LASF159
	.byte	0x9
	.byte	0x3f
	.byte	0x1a
	.long	0x59a5
	.uleb128 0x16
	.long	.LASF157
	.byte	0x9
	.byte	0x5d
	.byte	0x7
	.long	.LASF158
	.long	0x102a
	.byte	0x1
	.long	0x104f
	.long	0x105a
	.uleb128 0x2
	.long	0x59af
	.uleb128 0x1
	.long	0x105a
	.byte	0
	.uleb128 0x28
	.long	.LASF160
	.byte	0x9
	.byte	0x41
	.byte	0x1a
	.long	0x59b9
	.uleb128 0x28
	.long	.LASF161
	.byte	0x9
	.byte	0x40
	.byte	0x1a
	.long	0x59be
	.uleb128 0x16
	.long	.LASF157
	.byte	0x9
	.byte	0x61
	.byte	0x7
	.long	.LASF162
	.long	0x1066
	.byte	0x1
	.long	0x108b
	.long	0x1096
	.uleb128 0x2
	.long	0x59af
	.uleb128 0x1
	.long	0x1096
	.byte	0
	.uleb128 0x28
	.long	.LASF163
	.byte	0x9
	.byte	0x42
	.byte	0x1a
	.long	0x59c8
	.uleb128 0x16
	.long	.LASF164
	.byte	0x9
	.byte	0x70
	.byte	0x7
	.long	.LASF165
	.long	0x59a5
	.byte	0x1
	.long	0x10bb
	.long	0x10cb
	.uleb128 0x2
	.long	0x5996
	.uleb128 0x1
	.long	0x10cb
	.uleb128 0x1
	.long	0x5091
	.byte	0
	.uleb128 0x28
	.long	.LASF166
	.byte	0x9
	.byte	0x3c
	.byte	0x1f
	.long	0x559
	.uleb128 0x1d
	.long	.LASF167
	.byte	0x9
	.byte	0x8e
	.byte	0x7
	.long	.LASF168
	.long	0x10eb
	.long	0x10fb
	.uleb128 0x2
	.long	0x5996
	.uleb128 0x1
	.long	0x59a5
	.uleb128 0x1
	.long	0x10cb
	.byte	0
	.uleb128 0x16
	.long	.LASF169
	.byte	0x9
	.byte	0xa7
	.byte	0x7
	.long	.LASF170
	.long	0x10cb
	.byte	0x1
	.long	0x1114
	.long	0x111a
	.uleb128 0x2
	.long	0x59af
	.byte	0
	.uleb128 0x35
	.long	.LASF171
	.byte	0x9
	.byte	0xd2
	.byte	0x7
	.long	.LASF172
	.long	0x10cb
	.long	0x1132
	.long	0x1138
	.uleb128 0x2
	.long	0x59af
	.byte	0
	.uleb128 0xa
	.string	"_Tp"
	.long	0x4461
	.byte	0
	.uleb128 0x6
	.long	0xfc5
	.uleb128 0x2c
	.long	.LASF173
	.byte	0x1
	.byte	0x6
	.byte	0x7c
	.byte	0xb
	.long	0x11ce
	.uleb128 0x42
	.long	0xfc5
	.byte	0x1
	.uleb128 0x1d
	.long	.LASF174
	.byte	0x6
	.byte	0x9c
	.byte	0x7
	.long	.LASF175
	.long	0x116e
	.long	0x1174
	.uleb128 0x2
	.long	0x59cd
	.byte	0
	.uleb128 0x1d
	.long	.LASF174
	.byte	0x6
	.byte	0x9f
	.byte	0x7
	.long	.LASF176
	.long	0x1188
	.long	0x1193
	.uleb128 0x2
	.long	0x59cd
	.uleb128 0x1
	.long	0x59d7
	.byte	0
	.uleb128 0x5c
	.long	.LASF82
	.byte	0xa4
	.long	.LASF179
	.long	0x59dc
	.long	0x11a9
	.long	0x11b4
	.uleb128 0x2
	.long	0x59cd
	.uleb128 0x1
	.long	0x59d7
	.byte	0
	.uleb128 0x5d
	.long	.LASF180
	.byte	0xae
	.long	.LASF181
	.long	0x11c2
	.uleb128 0x2
	.long	0x59cd
	.uleb128 0x2
	.long	0x113
	.byte	0
	.byte	0
	.uleb128 0x6
	.long	0x1147
	.uleb128 0x38
	.long	.LASF182
	.byte	0x8
	.value	0x19b
	.long	0x12cf
	.uleb128 0x19
	.long	.LASF159
	.byte	0x8
	.value	0x1a4
	.byte	0xd
	.long	0x59a5
	.uleb128 0xe
	.long	.LASF164
	.byte	0x8
	.value	0x1cf
	.byte	0x7
	.long	.LASF183
	.long	0x11df
	.long	0x120c
	.uleb128 0x1
	.long	0x59e1
	.uleb128 0x1
	.long	0x121e
	.byte	0
	.uleb128 0x19
	.long	.LASF184
	.byte	0x8
	.value	0x19e
	.byte	0xd
	.long	0x1147
	.uleb128 0x6
	.long	0x120c
	.uleb128 0x19
	.long	.LASF166
	.byte	0x8
	.value	0x1b3
	.byte	0xd
	.long	0x559
	.uleb128 0xe
	.long	.LASF164
	.byte	0x8
	.value	0x1dd
	.byte	0x7
	.long	.LASF185
	.long	0x11df
	.long	0x1250
	.uleb128 0x1
	.long	0x59e1
	.uleb128 0x1
	.long	0x121e
	.uleb128 0x1
	.long	0x1250
	.byte	0
	.uleb128 0x19
	.long	.LASF186
	.byte	0x8
	.value	0x1ad
	.byte	0xd
	.long	0x5091
	.uleb128 0x36
	.long	.LASF167
	.byte	0x8
	.value	0x1ef
	.byte	0x7
	.long	.LASF188
	.long	0x127e
	.uleb128 0x1
	.long	0x59e1
	.uleb128 0x1
	.long	0x11df
	.uleb128 0x1
	.long	0x121e
	.byte	0
	.uleb128 0xe
	.long	.LASF169
	.byte	0x8
	.value	0x223
	.byte	0x7
	.long	.LASF189
	.long	0x121e
	.long	0x1299
	.uleb128 0x1
	.long	0x59e6
	.byte	0
	.uleb128 0xe
	.long	.LASF190
	.byte	0x8
	.value	0x232
	.byte	0x7
	.long	.LASF191
	.long	0x120c
	.long	0x12b4
	.uleb128 0x1
	.long	0x59e6
	.byte	0
	.uleb128 0x19
	.long	.LASF56
	.byte	0x8
	.value	0x1a1
	.byte	0xd
	.long	0x4461
	.uleb128 0x19
	.long	.LASF192
	.byte	0x8
	.value	0x1c2
	.byte	0x8
	.long	0x1147
	.byte	0
	.uleb128 0x17
	.long	.LASF193
	.byte	0x18
	.byte	0x5
	.byte	0x55
	.byte	0xc
	.long	0x1672
	.uleb128 0x17
	.long	.LASF194
	.byte	0x18
	.byte	0x5
	.byte	0x5c
	.byte	0xe
	.long	0x1382
	.uleb128 0x7
	.long	.LASF195
	.byte	0x5
	.byte	0x5e
	.byte	0xa
	.long	0x1387
	.byte	0
	.uleb128 0x7
	.long	.LASF196
	.byte	0x5
	.byte	0x5f
	.byte	0xa
	.long	0x1387
	.byte	0x8
	.uleb128 0x7
	.long	.LASF197
	.byte	0x5
	.byte	0x60
	.byte	0xa
	.long	0x1387
	.byte	0x10
	.uleb128 0x23
	.long	.LASF194
	.byte	0x5
	.byte	0x63
	.byte	0x2
	.long	.LASF198
	.long	0x1324
	.long	0x132a
	.uleb128 0x2
	.long	0x59f5
	.byte	0
	.uleb128 0x23
	.long	.LASF194
	.byte	0x5
	.byte	0x69
	.byte	0x2
	.long	.LASF199
	.long	0x133e
	.long	0x1349
	.uleb128 0x2
	.long	0x59f5
	.uleb128 0x1
	.long	0x59ff
	.byte	0
	.uleb128 0x23
	.long	.LASF200
	.byte	0x5
	.byte	0x71
	.byte	0x2
	.long	.LASF201
	.long	0x135d
	.long	0x1368
	.uleb128 0x2
	.long	0x59f5
	.uleb128 0x1
	.long	0x5a04
	.byte	0
	.uleb128 0x5e
	.long	.LASF202
	.byte	0x7a
	.long	.LASF204
	.long	0x1376
	.uleb128 0x2
	.long	0x59f5
	.uleb128 0x1
	.long	0x5a09
	.byte	0
	.byte	0
	.uleb128 0x6
	.long	0x12dc
	.uleb128 0x4
	.long	.LASF159
	.byte	0x5
	.byte	0x5a
	.byte	0x9
	.long	0x4803
	.uleb128 0x17
	.long	.LASF205
	.byte	0x18
	.byte	0x5
	.byte	0x85
	.byte	0xe
	.long	0x145e
	.uleb128 0x30
	.long	0x1147
	.uleb128 0x30
	.long	0x12dc
	.uleb128 0x23
	.long	.LASF205
	.byte	0x5
	.byte	0x89
	.byte	0x2
	.long	.LASF206
	.long	0x13be
	.long	0x13c4
	.uleb128 0x2
	.long	0x5a0e
	.byte	0
	.uleb128 0x23
	.long	.LASF205
	.byte	0x5
	.byte	0x8f
	.byte	0x2
	.long	.LASF207
	.long	0x13d8
	.long	0x13e3
	.uleb128 0x2
	.long	0x5a0e
	.uleb128 0x1
	.long	0x5a18
	.byte	0
	.uleb128 0x23
	.long	.LASF205
	.byte	0x5
	.byte	0x97
	.byte	0x2
	.long	.LASF208
	.long	0x13f7
	.long	0x1402
	.uleb128 0x2
	.long	0x5a0e
	.uleb128 0x1
	.long	0x5a1d
	.byte	0
	.uleb128 0x23
	.long	.LASF205
	.byte	0x5
	.byte	0x9c
	.byte	0x2
	.long	.LASF209
	.long	0x1416
	.long	0x1421
	.uleb128 0x2
	.long	0x5a0e
	.uleb128 0x1
	.long	0x5a22
	.byte	0
	.uleb128 0x23
	.long	.LASF205
	.byte	0x5
	.byte	0xa1
	.byte	0x2
	.long	.LASF210
	.long	0x1435
	.long	0x1445
	.uleb128 0x2
	.long	0x5a0e
	.uleb128 0x1
	.long	0x5a22
	.uleb128 0x1
	.long	0x5a1d
	.byte	0
	.uleb128 0x5f
	.long	.LASF413
	.long	.LASF414
	.long	0x1452
	.uleb128 0x2
	.long	0x5a0e
	.uleb128 0x2
	.long	0x113
	.byte	0
	.byte	0
	.uleb128 0x4
	.long	.LASF211
	.byte	0x5
	.byte	0x58
	.byte	0x15
	.long	0x4834
	.uleb128 0x6
	.long	0x145e
	.uleb128 0x31
	.long	.LASF212
	.value	0x12a
	.long	.LASF213
	.long	0x5a27
	.long	0x1486
	.long	0x148c
	.uleb128 0x2
	.long	0x5a2c
	.byte	0
	.uleb128 0x31
	.long	.LASF212
	.value	0x12f
	.long	.LASF214
	.long	0x5a18
	.long	0x14a3
	.long	0x14a9
	.uleb128 0x2
	.long	0x5a36
	.byte	0
	.uleb128 0x19
	.long	.LASF184
	.byte	0x5
	.value	0x126
	.byte	0x16
	.long	0x1147
	.uleb128 0x6
	.long	0x14a9
	.uleb128 0x31
	.long	.LASF215
	.value	0x134
	.long	.LASF216
	.long	0x14a9
	.long	0x14d2
	.long	0x14d8
	.uleb128 0x2
	.long	0x5a36
	.byte	0
	.uleb128 0x43
	.long	.LASF217
	.value	0x138
	.long	.LASF218
	.long	0x14eb
	.long	0x14f1
	.uleb128 0x2
	.long	0x5a2c
	.byte	0
	.uleb128 0x1a
	.long	.LASF217
	.value	0x13e
	.long	.LASF219
	.long	0x1504
	.long	0x150f
	.uleb128 0x2
	.long	0x5a2c
	.uleb128 0x1
	.long	0x5a3b
	.byte	0
	.uleb128 0x1a
	.long	.LASF217
	.value	0x144
	.long	.LASF220
	.long	0x1522
	.long	0x152d
	.uleb128 0x2
	.long	0x5a2c
	.uleb128 0x1
	.long	0x559
	.byte	0
	.uleb128 0x1a
	.long	.LASF217
	.value	0x14a
	.long	.LASF221
	.long	0x1540
	.long	0x1550
	.uleb128 0x2
	.long	0x5a2c
	.uleb128 0x1
	.long	0x559
	.uleb128 0x1
	.long	0x5a3b
	.byte	0
	.uleb128 0x43
	.long	.LASF217
	.value	0x14f
	.long	.LASF222
	.long	0x1563
	.long	0x156e
	.uleb128 0x2
	.long	0x5a2c
	.uleb128 0x1
	.long	0x5a40
	.byte	0
	.uleb128 0x1a
	.long	.LASF217
	.value	0x154
	.long	.LASF223
	.long	0x1581
	.long	0x158c
	.uleb128 0x2
	.long	0x5a2c
	.uleb128 0x1
	.long	0x5a22
	.byte	0
	.uleb128 0x1a
	.long	.LASF217
	.value	0x158
	.long	.LASF224
	.long	0x159f
	.long	0x15af
	.uleb128 0x2
	.long	0x5a2c
	.uleb128 0x1
	.long	0x5a40
	.uleb128 0x1
	.long	0x5a3b
	.byte	0
	.uleb128 0x1a
	.long	.LASF217
	.value	0x166
	.long	.LASF225
	.long	0x15c2
	.long	0x15d2
	.uleb128 0x2
	.long	0x5a2c
	.uleb128 0x1
	.long	0x5a3b
	.uleb128 0x1
	.long	0x5a40
	.byte	0
	.uleb128 0x1a
	.long	.LASF226
	.value	0x16c
	.long	.LASF227
	.long	0x15e5
	.long	0x15f0
	.uleb128 0x2
	.long	0x5a2c
	.uleb128 0x2
	.long	0x113
	.byte	0
	.uleb128 0x60
	.long	.LASF228
	.long	0x1393
	.uleb128 0x31
	.long	.LASF229
	.value	0x177
	.long	.LASF230
	.long	0x1387
	.long	0x1610
	.long	0x161b
	.uleb128 0x2
	.long	0x5a2c
	.uleb128 0x1
	.long	0x559
	.byte	0
	.uleb128 0x1a
	.long	.LASF231
	.value	0x17f
	.long	.LASF232
	.long	0x162e
	.long	0x163e
	.uleb128 0x2
	.long	0x5a2c
	.uleb128 0x1
	.long	0x1387
	.uleb128 0x1
	.long	0x559
	.byte	0
	.uleb128 0xf
	.long	.LASF233
	.byte	0x5
	.value	0x189
	.byte	0x7
	.long	.LASF234
	.byte	0x2
	.long	0x1654
	.long	0x165f
	.uleb128 0x2
	.long	0x5a2c
	.uleb128 0x1
	.long	0x559
	.byte	0
	.uleb128 0xa
	.string	"_Tp"
	.long	0x4461
	.uleb128 0x5
	.long	.LASF235
	.long	0x1147
	.byte	0
	.uleb128 0x6
	.long	0x12cf
	.uleb128 0x17
	.long	.LASF236
	.byte	0x1
	.byte	0x1e
	.byte	0x7c
	.byte	0xc
	.long	0x169a
	.uleb128 0x4
	.long	.LASF237
	.byte	0x1e
	.byte	0x7d
	.byte	0xd
	.long	0x1147
	.uleb128 0x5
	.long	.LASF238
	.long	0x1147
	.byte	0
	.uleb128 0x4b
	.long	.LASF239
	.byte	0x18
	.byte	0x5
	.value	0x1a7
	.long	0x22b9
	.uleb128 0x18
	.byte	0x5
	.value	0x1a7
	.byte	0xb
	.long	0x15f9
	.uleb128 0x18
	.byte	0x5
	.value	0x1a7
	.byte	0xb
	.long	0x161b
	.uleb128 0x18
	.byte	0x5
	.value	0x1a7
	.byte	0xb
	.long	0x15f0
	.uleb128 0x18
	.byte	0x5
	.value	0x1a7
	.byte	0xb
	.long	0x148c
	.uleb128 0x18
	.byte	0x5
	.value	0x1a7
	.byte	0xb
	.long	0x146f
	.uleb128 0x18
	.byte	0x5
	.value	0x1a7
	.byte	0xb
	.long	0x14bb
	.uleb128 0x42
	.long	0x12cf
	.byte	0x2
	.uleb128 0xe
	.long	.LASF240
	.byte	0x5
	.value	0x1d1
	.byte	0x7
	.long	.LASF241
	.long	0x4c4d
	.long	0x16fe
	.uleb128 0x1
	.long	0xb63
	.byte	0
	.uleb128 0xe
	.long	.LASF240
	.byte	0x5
	.value	0x1da
	.byte	0x7
	.long	.LASF242
	.long	0x4c4d
	.long	0x1719
	.uleb128 0x1
	.long	0x647
	.byte	0
	.uleb128 0x61
	.long	.LASF243
	.long	.LASF435
	.long	0x4c4d
	.uleb128 0x1c
	.long	.LASF159
	.byte	0x5
	.value	0x1c1
	.byte	0x29
	.long	0x1387
	.uleb128 0xe
	.long	.LASF244
	.byte	0x5
	.value	0x1e7
	.byte	0x7
	.long	.LASF245
	.long	0x1726
	.long	0x1762
	.uleb128 0x1
	.long	0x1726
	.uleb128 0x1
	.long	0x1726
	.uleb128 0x1
	.long	0x1726
	.uleb128 0x1
	.long	0x5a45
	.uleb128 0x1
	.long	0xb63
	.byte	0
	.uleb128 0x19
	.long	.LASF211
	.byte	0x5
	.value	0x1bc
	.byte	0x2f
	.long	0x145e
	.uleb128 0x6
	.long	0x1762
	.uleb128 0xe
	.long	.LASF244
	.byte	0x5
	.value	0x1ee
	.byte	0x7
	.long	.LASF246
	.long	0x1726
	.long	0x17a3
	.uleb128 0x1
	.long	0x1726
	.uleb128 0x1
	.long	0x1726
	.uleb128 0x1
	.long	0x1726
	.uleb128 0x1
	.long	0x5a45
	.uleb128 0x1
	.long	0x647
	.byte	0
	.uleb128 0xe
	.long	.LASF247
	.byte	0x5
	.value	0x1f3
	.byte	0x7
	.long	.LASF248
	.long	0x1726
	.long	0x17cd
	.uleb128 0x1
	.long	0x1726
	.uleb128 0x1
	.long	0x1726
	.uleb128 0x1
	.long	0x1726
	.uleb128 0x1
	.long	0x5a45
	.byte	0
	.uleb128 0x3c
	.long	.LASF249
	.byte	0x5
	.value	0x20e
	.long	.LASF250
	.long	0x17e1
	.long	0x17e7
	.uleb128 0x2
	.long	0x5a4a
	.byte	0
	.uleb128 0x3d
	.long	.LASF249
	.byte	0x5
	.value	0x219
	.long	.LASF251
	.long	0x17fb
	.long	0x1806
	.uleb128 0x2
	.long	0x5a4a
	.uleb128 0x1
	.long	0x5a54
	.byte	0
	.uleb128 0x1c
	.long	.LASF184
	.byte	0x5
	.value	0x1cc
	.byte	0x1a
	.long	0x1147
	.uleb128 0x6
	.long	0x1806
	.uleb128 0x3d
	.long	.LASF249
	.byte	0x5
	.value	0x227
	.long	.LASF252
	.long	0x182c
	.long	0x183c
	.uleb128 0x2
	.long	0x5a4a
	.uleb128 0x1
	.long	0x183c
	.uleb128 0x1
	.long	0x5a54
	.byte	0
	.uleb128 0x1c
	.long	.LASF166
	.byte	0x5
	.value	0x1ca
	.byte	0x1a
	.long	0x559
	.uleb128 0x6
	.long	0x183c
	.uleb128 0xf
	.long	.LASF249
	.byte	0x5
	.value	0x234
	.byte	0x7
	.long	.LASF253
	.byte	0x1
	.long	0x1864
	.long	0x1879
	.uleb128 0x2
	.long	0x5a4a
	.uleb128 0x1
	.long	0x183c
	.uleb128 0x1
	.long	0x5a59
	.uleb128 0x1
	.long	0x5a54
	.byte	0
	.uleb128 0x1c
	.long	.LASF56
	.byte	0x5
	.value	0x1c0
	.byte	0x17
	.long	0x4461
	.uleb128 0x6
	.long	0x1879
	.uleb128 0xf
	.long	.LASF249
	.byte	0x5
	.value	0x254
	.byte	0x7
	.long	.LASF254
	.byte	0x1
	.long	0x18a1
	.long	0x18ac
	.uleb128 0x2
	.long	0x5a4a
	.uleb128 0x1
	.long	0x5a5e
	.byte	0
	.uleb128 0x3c
	.long	.LASF249
	.byte	0x5
	.value	0x267
	.long	.LASF255
	.long	0x18c0
	.long	0x18cb
	.uleb128 0x2
	.long	0x5a4a
	.uleb128 0x1
	.long	0x5a63
	.byte	0
	.uleb128 0xf
	.long	.LASF249
	.byte	0x5
	.value	0x26b
	.byte	0x7
	.long	.LASF256
	.byte	0x1
	.long	0x18e1
	.long	0x18f1
	.uleb128 0x2
	.long	0x5a4a
	.uleb128 0x1
	.long	0x5a5e
	.uleb128 0x1
	.long	0x5a68
	.byte	0
	.uleb128 0x1a
	.long	.LASF249
	.value	0x276
	.long	.LASF257
	.long	0x1904
	.long	0x1919
	.uleb128 0x2
	.long	0x5a4a
	.uleb128 0x1
	.long	0x5a63
	.uleb128 0x1
	.long	0x5a54
	.uleb128 0x1
	.long	0xb63
	.byte	0
	.uleb128 0x1a
	.long	.LASF249
	.value	0x27b
	.long	.LASF258
	.long	0x192c
	.long	0x1941
	.uleb128 0x2
	.long	0x5a4a
	.uleb128 0x1
	.long	0x5a63
	.uleb128 0x1
	.long	0x5a54
	.uleb128 0x1
	.long	0x647
	.byte	0
	.uleb128 0xf
	.long	.LASF249
	.byte	0x5
	.value	0x28e
	.byte	0x7
	.long	.LASF259
	.byte	0x1
	.long	0x1957
	.long	0x1967
	.uleb128 0x2
	.long	0x5a4a
	.uleb128 0x1
	.long	0x5a63
	.uleb128 0x1
	.long	0x5a68
	.byte	0
	.uleb128 0xf
	.long	.LASF249
	.byte	0x5
	.value	0x2a1
	.byte	0x7
	.long	.LASF260
	.byte	0x1
	.long	0x197d
	.long	0x198d
	.uleb128 0x2
	.long	0x5a4a
	.uleb128 0x1
	.long	0x22cf
	.uleb128 0x1
	.long	0x5a54
	.byte	0
	.uleb128 0xf
	.long	.LASF261
	.byte	0x5
	.value	0x2d8
	.byte	0x7
	.long	.LASF262
	.byte	0x1
	.long	0x19a3
	.long	0x19ae
	.uleb128 0x2
	.long	0x5a4a
	.uleb128 0x2
	.long	0x113
	.byte	0
	.uleb128 0x16
	.long	.LASF82
	.byte	0xd
	.byte	0xcc
	.byte	0x5
	.long	.LASF263
	.long	0x5a6d
	.byte	0x1
	.long	0x19c7
	.long	0x19d2
	.uleb128 0x2
	.long	0x5a4a
	.uleb128 0x1
	.long	0x5a5e
	.byte	0
	.uleb128 0x8
	.long	.LASF82
	.byte	0x5
	.value	0x2f9
	.byte	0x7
	.long	.LASF264
	.long	0x5a6d
	.byte	0x1
	.long	0x19ec
	.long	0x19f7
	.uleb128 0x2
	.long	0x5a4a
	.uleb128 0x1
	.long	0x5a63
	.byte	0
	.uleb128 0x8
	.long	.LASF82
	.byte	0x5
	.value	0x30f
	.byte	0x7
	.long	.LASF265
	.long	0x5a6d
	.byte	0x1
	.long	0x1a11
	.long	0x1a1c
	.uleb128 0x2
	.long	0x5a4a
	.uleb128 0x1
	.long	0x22cf
	.byte	0
	.uleb128 0xf
	.long	.LASF108
	.byte	0x5
	.value	0x323
	.byte	0x7
	.long	.LASF266
	.byte	0x1
	.long	0x1a32
	.long	0x1a42
	.uleb128 0x2
	.long	0x5a4a
	.uleb128 0x1
	.long	0x183c
	.uleb128 0x1
	.long	0x5a59
	.byte	0
	.uleb128 0xf
	.long	.LASF108
	.byte	0x5
	.value	0x352
	.byte	0x7
	.long	.LASF267
	.byte	0x1
	.long	0x1a58
	.long	0x1a63
	.uleb128 0x2
	.long	0x5a4a
	.uleb128 0x1
	.long	0x22cf
	.byte	0
	.uleb128 0x1c
	.long	.LASF268
	.byte	0x5
	.value	0x1c5
	.byte	0x3d
	.long	0x4854
	.uleb128 0x8
	.long	.LASF269
	.byte	0x5
	.value	0x364
	.byte	0x7
	.long	.LASF270
	.long	0x1a63
	.byte	0x1
	.long	0x1a8a
	.long	0x1a90
	.uleb128 0x2
	.long	0x5a4a
	.byte	0
	.uleb128 0x1c
	.long	.LASF271
	.byte	0x5
	.value	0x1c7
	.byte	0x7
	.long	0x4a8e
	.uleb128 0x8
	.long	.LASF269
	.byte	0x5
	.value	0x36e
	.byte	0x7
	.long	.LASF272
	.long	0x1a90
	.byte	0x1
	.long	0x1ab7
	.long	0x1abd
	.uleb128 0x2
	.long	0x5a72
	.byte	0
	.uleb128 0x32
	.string	"end"
	.value	0x378
	.long	.LASF273
	.long	0x1a63
	.long	0x1ad4
	.long	0x1ada
	.uleb128 0x2
	.long	0x5a4a
	.byte	0
	.uleb128 0x32
	.string	"end"
	.value	0x382
	.long	.LASF274
	.long	0x1a90
	.long	0x1af1
	.long	0x1af7
	.uleb128 0x2
	.long	0x5a72
	.byte	0
	.uleb128 0x1c
	.long	.LASF275
	.byte	0x5
	.value	0x1c9
	.byte	0x30
	.long	0x23c4
	.uleb128 0x8
	.long	.LASF276
	.byte	0x5
	.value	0x38c
	.byte	0x7
	.long	.LASF277
	.long	0x1af7
	.byte	0x1
	.long	0x1b1e
	.long	0x1b24
	.uleb128 0x2
	.long	0x5a4a
	.byte	0
	.uleb128 0x1c
	.long	.LASF278
	.byte	0x5
	.value	0x1c8
	.byte	0x35
	.long	0x23c9
	.uleb128 0x8
	.long	.LASF276
	.byte	0x5
	.value	0x396
	.byte	0x7
	.long	.LASF279
	.long	0x1b24
	.byte	0x1
	.long	0x1b4b
	.long	0x1b51
	.uleb128 0x2
	.long	0x5a72
	.byte	0
	.uleb128 0x8
	.long	.LASF280
	.byte	0x5
	.value	0x3a0
	.byte	0x7
	.long	.LASF281
	.long	0x1af7
	.byte	0x1
	.long	0x1b6b
	.long	0x1b71
	.uleb128 0x2
	.long	0x5a4a
	.byte	0
	.uleb128 0x8
	.long	.LASF280
	.byte	0x5
	.value	0x3aa
	.byte	0x7
	.long	.LASF282
	.long	0x1b24
	.byte	0x1
	.long	0x1b8b
	.long	0x1b91
	.uleb128 0x2
	.long	0x5a72
	.byte	0
	.uleb128 0x8
	.long	.LASF283
	.byte	0x5
	.value	0x3b5
	.byte	0x7
	.long	.LASF284
	.long	0x1a90
	.byte	0x1
	.long	0x1bab
	.long	0x1bb1
	.uleb128 0x2
	.long	0x5a72
	.byte	0
	.uleb128 0x8
	.long	.LASF285
	.byte	0x5
	.value	0x3bf
	.byte	0x7
	.long	.LASF286
	.long	0x1a90
	.byte	0x1
	.long	0x1bcb
	.long	0x1bd1
	.uleb128 0x2
	.long	0x5a72
	.byte	0
	.uleb128 0x8
	.long	.LASF287
	.byte	0x5
	.value	0x3c9
	.byte	0x7
	.long	.LASF288
	.long	0x1b24
	.byte	0x1
	.long	0x1beb
	.long	0x1bf1
	.uleb128 0x2
	.long	0x5a72
	.byte	0
	.uleb128 0x8
	.long	.LASF289
	.byte	0x5
	.value	0x3d3
	.byte	0x7
	.long	.LASF290
	.long	0x1b24
	.byte	0x1
	.long	0x1c0b
	.long	0x1c11
	.uleb128 0x2
	.long	0x5a72
	.byte	0
	.uleb128 0x8
	.long	.LASF291
	.byte	0x5
	.value	0x3db
	.byte	0x7
	.long	.LASF292
	.long	0x183c
	.byte	0x1
	.long	0x1c2b
	.long	0x1c31
	.uleb128 0x2
	.long	0x5a72
	.byte	0
	.uleb128 0x8
	.long	.LASF169
	.byte	0x5
	.value	0x3e1
	.byte	0x7
	.long	.LASF293
	.long	0x183c
	.byte	0x1
	.long	0x1c4b
	.long	0x1c51
	.uleb128 0x2
	.long	0x5a72
	.byte	0
	.uleb128 0xf
	.long	.LASF294
	.byte	0x5
	.value	0x3f0
	.byte	0x7
	.long	.LASF295
	.byte	0x1
	.long	0x1c67
	.long	0x1c72
	.uleb128 0x2
	.long	0x5a4a
	.uleb128 0x1
	.long	0x183c
	.byte	0
	.uleb128 0xf
	.long	.LASF294
	.byte	0x5
	.value	0x405
	.byte	0x7
	.long	.LASF296
	.byte	0x1
	.long	0x1c88
	.long	0x1c98
	.uleb128 0x2
	.long	0x5a4a
	.uleb128 0x1
	.long	0x183c
	.uleb128 0x1
	.long	0x5a59
	.byte	0
	.uleb128 0xf
	.long	.LASF297
	.byte	0x5
	.value	0x427
	.byte	0x7
	.long	.LASF298
	.byte	0x1
	.long	0x1cae
	.long	0x1cb4
	.uleb128 0x2
	.long	0x5a4a
	.byte	0
	.uleb128 0x8
	.long	.LASF299
	.byte	0x5
	.value	0x431
	.byte	0x7
	.long	.LASF300
	.long	0x183c
	.byte	0x1
	.long	0x1cce
	.long	0x1cd4
	.uleb128 0x2
	.long	0x5a72
	.byte	0
	.uleb128 0x8
	.long	.LASF301
	.byte	0x5
	.value	0x43b
	.byte	0x7
	.long	.LASF302
	.long	0x4c4d
	.byte	0x1
	.long	0x1cee
	.long	0x1cf4
	.uleb128 0x2
	.long	0x5a72
	.byte	0
	.uleb128 0x1d
	.long	.LASF303
	.byte	0xd
	.byte	0x43
	.byte	0x5
	.long	.LASF304
	.long	0x1d08
	.long	0x1d13
	.uleb128 0x2
	.long	0x5a4a
	.uleb128 0x1
	.long	0x183c
	.byte	0
	.uleb128 0x1c
	.long	.LASF160
	.byte	0x5
	.value	0x1c3
	.byte	0x32
	.long	0x480f
	.uleb128 0x8
	.long	.LASF305
	.byte	0x5
	.value	0x461
	.byte	0x7
	.long	.LASF306
	.long	0x1d13
	.byte	0x1
	.long	0x1d3a
	.long	0x1d45
	.uleb128 0x2
	.long	0x5a4a
	.uleb128 0x1
	.long	0x183c
	.byte	0
	.uleb128 0x1c
	.long	.LASF163
	.byte	0x5
	.value	0x1c4
	.byte	0x37
	.long	0x481b
	.uleb128 0x8
	.long	.LASF305
	.byte	0x5
	.value	0x474
	.byte	0x7
	.long	.LASF307
	.long	0x1d45
	.byte	0x1
	.long	0x1d6c
	.long	0x1d77
	.uleb128 0x2
	.long	0x5a72
	.uleb128 0x1
	.long	0x183c
	.byte	0
	.uleb128 0xf
	.long	.LASF308
	.byte	0x5
	.value	0x47e
	.byte	0x7
	.long	.LASF309
	.byte	0x2
	.long	0x1d8d
	.long	0x1d98
	.uleb128 0x2
	.long	0x5a72
	.uleb128 0x1
	.long	0x183c
	.byte	0
	.uleb128 0x32
	.string	"at"
	.value	0x495
	.long	.LASF310
	.long	0x1d13
	.long	0x1dae
	.long	0x1db9
	.uleb128 0x2
	.long	0x5a4a
	.uleb128 0x1
	.long	0x183c
	.byte	0
	.uleb128 0x32
	.string	"at"
	.value	0x4a8
	.long	.LASF311
	.long	0x1d45
	.long	0x1dcf
	.long	0x1dda
	.uleb128 0x2
	.long	0x5a72
	.uleb128 0x1
	.long	0x183c
	.byte	0
	.uleb128 0x8
	.long	.LASF312
	.byte	0x5
	.value	0x4b4
	.byte	0x7
	.long	.LASF313
	.long	0x1d13
	.byte	0x1
	.long	0x1df4
	.long	0x1dfa
	.uleb128 0x2
	.long	0x5a4a
	.byte	0
	.uleb128 0x8
	.long	.LASF312
	.byte	0x5
	.value	0x4c0
	.byte	0x7
	.long	.LASF314
	.long	0x1d45
	.byte	0x1
	.long	0x1e14
	.long	0x1e1a
	.uleb128 0x2
	.long	0x5a72
	.byte	0
	.uleb128 0x8
	.long	.LASF315
	.byte	0x5
	.value	0x4cc
	.byte	0x7
	.long	.LASF316
	.long	0x1d13
	.byte	0x1
	.long	0x1e34
	.long	0x1e3a
	.uleb128 0x2
	.long	0x5a4a
	.byte	0
	.uleb128 0x8
	.long	.LASF315
	.byte	0x5
	.value	0x4d8
	.byte	0x7
	.long	.LASF317
	.long	0x1d45
	.byte	0x1
	.long	0x1e54
	.long	0x1e5a
	.uleb128 0x2
	.long	0x5a72
	.byte	0
	.uleb128 0x8
	.long	.LASF318
	.byte	0x5
	.value	0x4e7
	.byte	0x7
	.long	.LASF319
	.long	0x59a5
	.byte	0x1
	.long	0x1e74
	.long	0x1e7a
	.uleb128 0x2
	.long	0x5a4a
	.byte	0
	.uleb128 0x8
	.long	.LASF318
	.byte	0x5
	.value	0x4ec
	.byte	0x7
	.long	.LASF320
	.long	0x59be
	.byte	0x1
	.long	0x1e94
	.long	0x1e9a
	.uleb128 0x2
	.long	0x5a72
	.byte	0
	.uleb128 0xf
	.long	.LASF321
	.byte	0x5
	.value	0x4fc
	.byte	0x7
	.long	.LASF322
	.byte	0x1
	.long	0x1eb0
	.long	0x1ebb
	.uleb128 0x2
	.long	0x5a4a
	.uleb128 0x1
	.long	0x5a59
	.byte	0
	.uleb128 0xf
	.long	.LASF321
	.byte	0x5
	.value	0x50d
	.byte	0x7
	.long	.LASF323
	.byte	0x1
	.long	0x1ed1
	.long	0x1edc
	.uleb128 0x2
	.long	0x5a4a
	.uleb128 0x1
	.long	0x5a7c
	.byte	0
	.uleb128 0xf
	.long	.LASF324
	.byte	0x5
	.value	0x525
	.byte	0x7
	.long	.LASF325
	.byte	0x1
	.long	0x1ef2
	.long	0x1ef8
	.uleb128 0x2
	.long	0x5a4a
	.byte	0
	.uleb128 0x16
	.long	.LASF326
	.byte	0xd
	.byte	0x85
	.byte	0x5
	.long	.LASF327
	.long	0x1a63
	.byte	0x1
	.long	0x1f11
	.long	0x1f21
	.uleb128 0x2
	.long	0x5a4a
	.uleb128 0x1
	.long	0x1a90
	.uleb128 0x1
	.long	0x5a59
	.byte	0
	.uleb128 0x8
	.long	.LASF326
	.byte	0x5
	.value	0x56c
	.byte	0x7
	.long	.LASF328
	.long	0x1a63
	.byte	0x1
	.long	0x1f3b
	.long	0x1f4b
	.uleb128 0x2
	.long	0x5a4a
	.uleb128 0x1
	.long	0x1a90
	.uleb128 0x1
	.long	0x5a7c
	.byte	0
	.uleb128 0x8
	.long	.LASF326
	.byte	0x5
	.value	0x57e
	.byte	0x7
	.long	.LASF329
	.long	0x1a63
	.byte	0x1
	.long	0x1f65
	.long	0x1f75
	.uleb128 0x2
	.long	0x5a4a
	.uleb128 0x1
	.long	0x1a90
	.uleb128 0x1
	.long	0x22cf
	.byte	0
	.uleb128 0x8
	.long	.LASF326
	.byte	0x5
	.value	0x598
	.byte	0x7
	.long	.LASF330
	.long	0x1a63
	.byte	0x1
	.long	0x1f8f
	.long	0x1fa4
	.uleb128 0x2
	.long	0x5a4a
	.uleb128 0x1
	.long	0x1a90
	.uleb128 0x1
	.long	0x183c
	.uleb128 0x1
	.long	0x5a59
	.byte	0
	.uleb128 0x8
	.long	.LASF331
	.byte	0x5
	.value	0x5f9
	.byte	0x7
	.long	.LASF332
	.long	0x1a63
	.byte	0x1
	.long	0x1fbe
	.long	0x1fc9
	.uleb128 0x2
	.long	0x5a4a
	.uleb128 0x1
	.long	0x1a90
	.byte	0
	.uleb128 0x8
	.long	.LASF331
	.byte	0x5
	.value	0x615
	.byte	0x7
	.long	.LASF333
	.long	0x1a63
	.byte	0x1
	.long	0x1fe3
	.long	0x1ff3
	.uleb128 0x2
	.long	0x5a4a
	.uleb128 0x1
	.long	0x1a90
	.uleb128 0x1
	.long	0x1a90
	.byte	0
	.uleb128 0xf
	.long	.LASF87
	.byte	0x5
	.value	0x62d
	.byte	0x7
	.long	.LASF334
	.byte	0x1
	.long	0x2009
	.long	0x2014
	.uleb128 0x2
	.long	0x5a4a
	.uleb128 0x1
	.long	0x5a6d
	.byte	0
	.uleb128 0xf
	.long	.LASF335
	.byte	0x5
	.value	0x640
	.byte	0x7
	.long	.LASF336
	.byte	0x1
	.long	0x202a
	.long	0x2030
	.uleb128 0x2
	.long	0x5a4a
	.byte	0
	.uleb128 0xf
	.long	.LASF337
	.byte	0x5
	.value	0x6a3
	.byte	0x7
	.long	.LASF338
	.byte	0x2
	.long	0x2046
	.long	0x2056
	.uleb128 0x2
	.long	0x5a4a
	.uleb128 0x1
	.long	0x183c
	.uleb128 0x1
	.long	0x5a59
	.byte	0
	.uleb128 0xf
	.long	.LASF339
	.byte	0x5
	.value	0x6ae
	.byte	0x7
	.long	.LASF340
	.byte	0x2
	.long	0x206c
	.long	0x2077
	.uleb128 0x2
	.long	0x5a4a
	.uleb128 0x1
	.long	0x183c
	.byte	0
	.uleb128 0xf
	.long	.LASF341
	.byte	0xd
	.value	0x108
	.byte	0x5
	.long	.LASF342
	.byte	0x2
	.long	0x208d
	.long	0x209d
	.uleb128 0x2
	.long	0x5a4a
	.uleb128 0x1
	.long	0x559
	.uleb128 0x1
	.long	0x5a59
	.byte	0
	.uleb128 0xf
	.long	.LASF343
	.byte	0xd
	.value	0x20b
	.byte	0x5
	.long	.LASF344
	.byte	0x2
	.long	0x20b3
	.long	0x20c8
	.uleb128 0x2
	.long	0x5a4a
	.uleb128 0x1
	.long	0x1a63
	.uleb128 0x1
	.long	0x183c
	.uleb128 0x1
	.long	0x5a59
	.byte	0
	.uleb128 0xf
	.long	.LASF345
	.byte	0xd
	.value	0x272
	.byte	0x5
	.long	.LASF346
	.byte	0x2
	.long	0x20de
	.long	0x20e9
	.uleb128 0x2
	.long	0x5a4a
	.uleb128 0x1
	.long	0x183c
	.byte	0
	.uleb128 0x8
	.long	.LASF347
	.byte	0xd
	.value	0x2bf
	.byte	0x5
	.long	.LASF348
	.long	0x4c4d
	.byte	0x2
	.long	0x2103
	.long	0x2109
	.uleb128 0x2
	.long	0x5a4a
	.byte	0
	.uleb128 0x8
	.long	.LASF349
	.byte	0xd
	.value	0x15e
	.byte	0x5
	.long	.LASF350
	.long	0x1a63
	.byte	0x2
	.long	0x2123
	.long	0x2133
	.uleb128 0x2
	.long	0x5a4a
	.uleb128 0x1
	.long	0x1a90
	.uleb128 0x1
	.long	0x5a7c
	.byte	0
	.uleb128 0x8
	.long	.LASF351
	.byte	0x5
	.value	0x75c
	.byte	0x7
	.long	.LASF352
	.long	0x1a63
	.byte	0x2
	.long	0x214d
	.long	0x215d
	.uleb128 0x2
	.long	0x5a4a
	.uleb128 0x1
	.long	0x1a90
	.uleb128 0x1
	.long	0x5a7c
	.byte	0
	.uleb128 0x8
	.long	.LASF353
	.byte	0x5
	.value	0x763
	.byte	0x7
	.long	.LASF354
	.long	0x183c
	.byte	0x2
	.long	0x2177
	.long	0x2187
	.uleb128 0x2
	.long	0x5a72
	.uleb128 0x1
	.long	0x183c
	.uleb128 0x1
	.long	0x2e7
	.byte	0
	.uleb128 0x44
	.long	.LASF355
	.value	0x76e
	.long	.LASF356
	.long	0x183c
	.long	0x21a5
	.uleb128 0x1
	.long	0x183c
	.uleb128 0x1
	.long	0x5a54
	.byte	0
	.uleb128 0x44
	.long	.LASF357
	.value	0x777
	.long	.LASF358
	.long	0x183c
	.long	0x21be
	.uleb128 0x1
	.long	0x5a81
	.byte	0
	.uleb128 0xf
	.long	.LASF359
	.byte	0x5
	.value	0x788
	.byte	0x7
	.long	.LASF360
	.byte	0x2
	.long	0x21d4
	.long	0x21df
	.uleb128 0x2
	.long	0x5a4a
	.uleb128 0x1
	.long	0x1726
	.byte	0
	.uleb128 0x16
	.long	.LASF361
	.byte	0xd
	.byte	0xaf
	.byte	0x5
	.long	.LASF362
	.long	0x1a63
	.byte	0x2
	.long	0x21f8
	.long	0x2203
	.uleb128 0x2
	.long	0x5a4a
	.uleb128 0x1
	.long	0x1a63
	.byte	0
	.uleb128 0x16
	.long	.LASF361
	.byte	0xd
	.byte	0xbd
	.byte	0x5
	.long	.LASF363
	.long	0x1a63
	.byte	0x2
	.long	0x221c
	.long	0x222c
	.uleb128 0x2
	.long	0x5a4a
	.uleb128 0x1
	.long	0x1a63
	.uleb128 0x1
	.long	0x1a63
	.byte	0
	.uleb128 0x1a
	.long	.LASF364
	.value	0x7a2
	.long	.LASF365
	.long	0x223f
	.long	0x224f
	.uleb128 0x2
	.long	0x5a4a
	.uleb128 0x1
	.long	0x5a63
	.uleb128 0x1
	.long	0xb63
	.byte	0
	.uleb128 0x1a
	.long	.LASF364
	.value	0x7ae
	.long	.LASF366
	.long	0x2262
	.long	0x2272
	.uleb128 0x2
	.long	0x5a4a
	.uleb128 0x1
	.long	0x5a63
	.uleb128 0x1
	.long	0x647
	.byte	0
	.uleb128 0xf
	.long	.LASF367
	.byte	0x5
	.value	0x692
	.byte	0x2
	.long	.LASF368
	.byte	0x2
	.long	0x2291
	.long	0x22a6
	.uleb128 0x5
	.long	.LASF128
	.long	0x59be
	.uleb128 0x2
	.long	0x5a4a
	.uleb128 0x1
	.long	0x59be
	.uleb128 0x1
	.long	0x59be
	.uleb128 0x1
	.long	0xb78
	.byte	0
	.uleb128 0xa
	.string	"_Tp"
	.long	0x4461
	.uleb128 0x5b
	.long	.LASF235
	.long	0x1147
	.byte	0
	.uleb128 0x6
	.long	0x169a
	.uleb128 0x4
	.long	.LASF370
	.byte	0x1e
	.byte	0x80
	.byte	0xb
	.long	0x1684
	.uleb128 0x6
	.long	0x22be
	.uleb128 0x2c
	.long	.LASF371
	.byte	0x10
	.byte	0xa
	.byte	0x2f
	.byte	0xb
	.long	0x23bf
	.uleb128 0x28
	.long	.LASF268
	.byte	0xa
	.byte	0x36
	.byte	0x1a
	.long	0x59be
	.uleb128 0x7
	.long	.LASF372
	.byte	0xa
	.byte	0x3a
	.byte	0x12
	.long	0x22dc
	.byte	0
	.uleb128 0x28
	.long	.LASF166
	.byte	0xa
	.byte	0x35
	.byte	0x18
	.long	0x559
	.uleb128 0x7
	.long	.LASF373
	.byte	0xa
	.byte	0x3b
	.byte	0x13
	.long	0x22f5
	.byte	0x8
	.uleb128 0x23
	.long	.LASF374
	.byte	0xa
	.byte	0x3e
	.byte	0x11
	.long	.LASF375
	.long	0x2322
	.long	0x2332
	.uleb128 0x2
	.long	0x5d1e
	.uleb128 0x1
	.long	0x2332
	.uleb128 0x1
	.long	0x22f5
	.byte	0
	.uleb128 0x28
	.long	.LASF271
	.byte	0xa
	.byte	0x37
	.byte	0x1a
	.long	0x59be
	.uleb128 0x1d
	.long	.LASF374
	.byte	0xa
	.byte	0x42
	.byte	0x11
	.long	.LASF376
	.long	0x2352
	.long	0x2358
	.uleb128 0x2
	.long	0x5d1e
	.byte	0
	.uleb128 0x16
	.long	.LASF291
	.byte	0xa
	.byte	0x47
	.byte	0x7
	.long	.LASF377
	.long	0x22f5
	.byte	0x1
	.long	0x2371
	.long	0x2377
	.uleb128 0x2
	.long	0x5d23
	.byte	0
	.uleb128 0x16
	.long	.LASF269
	.byte	0xa
	.byte	0x4b
	.byte	0x7
	.long	.LASF378
	.long	0x2332
	.byte	0x1
	.long	0x2390
	.long	0x2396
	.uleb128 0x2
	.long	0x5d23
	.byte	0
	.uleb128 0x83
	.string	"end"
	.byte	0xa
	.byte	0x4f
	.byte	0x7
	.long	.LASF1055
	.long	0x2332
	.byte	0x1
	.long	0x23b0
	.long	0x23b6
	.uleb128 0x2
	.long	0x5d23
	.byte	0
	.uleb128 0xa
	.string	"_E"
	.long	0x4461
	.byte	0
	.uleb128 0x6
	.long	0x22cf
	.uleb128 0x2f
	.long	.LASF380
	.uleb128 0x2f
	.long	.LASF381
	.uleb128 0x2c
	.long	.LASF382
	.byte	0x1
	.byte	0x9
	.byte	0x38
	.byte	0xb
	.long	0x254b
	.uleb128 0x1d
	.long	.LASF152
	.byte	0x9
	.byte	0x50
	.byte	0x7
	.long	.LASF383
	.long	0x23ef
	.long	0x23f5
	.uleb128 0x2
	.long	0x5a86
	.byte	0
	.uleb128 0x1d
	.long	.LASF152
	.byte	0x9
	.byte	0x53
	.byte	0x7
	.long	.LASF384
	.long	0x2409
	.long	0x2414
	.uleb128 0x2
	.long	0x5a86
	.uleb128 0x1
	.long	0x5a90
	.byte	0
	.uleb128 0x1d
	.long	.LASF155
	.byte	0x9
	.byte	0x5a
	.byte	0x7
	.long	.LASF385
	.long	0x2428
	.long	0x2433
	.uleb128 0x2
	.long	0x5a86
	.uleb128 0x2
	.long	0x113
	.byte	0
	.uleb128 0x28
	.long	.LASF159
	.byte	0x9
	.byte	0x3f
	.byte	0x1a
	.long	0x5a95
	.uleb128 0x16
	.long	.LASF157
	.byte	0x9
	.byte	0x5d
	.byte	0x7
	.long	.LASF386
	.long	0x2433
	.byte	0x1
	.long	0x2458
	.long	0x2463
	.uleb128 0x2
	.long	0x5a9f
	.uleb128 0x1
	.long	0x2463
	.byte	0
	.uleb128 0x28
	.long	.LASF160
	.byte	0x9
	.byte	0x41
	.byte	0x1a
	.long	0x5aa9
	.uleb128 0x28
	.long	.LASF161
	.byte	0x9
	.byte	0x40
	.byte	0x1a
	.long	0x2e2
	.uleb128 0x16
	.long	.LASF157
	.byte	0x9
	.byte	0x61
	.byte	0x7
	.long	.LASF387
	.long	0x246f
	.byte	0x1
	.long	0x2494
	.long	0x249f
	.uleb128 0x2
	.long	0x5a9f
	.uleb128 0x1
	.long	0x249f
	.byte	0
	.uleb128 0x28
	.long	.LASF163
	.byte	0x9
	.byte	0x42
	.byte	0x1a
	.long	0x5821
	.uleb128 0x16
	.long	.LASF164
	.byte	0x9
	.byte	0x70
	.byte	0x7
	.long	.LASF388
	.long	0x5a95
	.byte	0x1
	.long	0x24c4
	.long	0x24d4
	.uleb128 0x2
	.long	0x5a86
	.uleb128 0x1
	.long	0x24d4
	.uleb128 0x1
	.long	0x5091
	.byte	0
	.uleb128 0x28
	.long	.LASF166
	.byte	0x9
	.byte	0x3c
	.byte	0x1f
	.long	0x559
	.uleb128 0x1d
	.long	.LASF167
	.byte	0x9
	.byte	0x8e
	.byte	0x7
	.long	.LASF389
	.long	0x24f4
	.long	0x2504
	.uleb128 0x2
	.long	0x5a86
	.uleb128 0x1
	.long	0x5a95
	.uleb128 0x1
	.long	0x24d4
	.byte	0
	.uleb128 0x16
	.long	.LASF169
	.byte	0x9
	.byte	0xa7
	.byte	0x7
	.long	.LASF390
	.long	0x24d4
	.byte	0x1
	.long	0x251d
	.long	0x2523
	.uleb128 0x2
	.long	0x5a9f
	.byte	0
	.uleb128 0x35
	.long	.LASF171
	.byte	0x9
	.byte	0xd2
	.byte	0x7
	.long	.LASF391
	.long	0x24d4
	.long	0x253b
	.long	0x2541
	.uleb128 0x2
	.long	0x5a9f
	.byte	0
	.uleb128 0xa
	.string	"_Tp"
	.long	0x113
	.byte	0
	.uleb128 0x6
	.long	0x23ce
	.uleb128 0x2c
	.long	.LASF392
	.byte	0x1
	.byte	0x6
	.byte	0x7c
	.byte	0xb
	.long	0x25d7
	.uleb128 0x42
	.long	0x23ce
	.byte	0x1
	.uleb128 0x1d
	.long	.LASF174
	.byte	0x6
	.byte	0x9c
	.byte	0x7
	.long	.LASF393
	.long	0x2577
	.long	0x257d
	.uleb128 0x2
	.long	0x5aae
	.byte	0
	.uleb128 0x1d
	.long	.LASF174
	.byte	0x6
	.byte	0x9f
	.byte	0x7
	.long	.LASF394
	.long	0x2591
	.long	0x259c
	.uleb128 0x2
	.long	0x5aae
	.uleb128 0x1
	.long	0x5ab8
	.byte	0
	.uleb128 0x5c
	.long	.LASF82
	.byte	0xa4
	.long	.LASF395
	.long	0x5abd
	.long	0x25b2
	.long	0x25bd
	.uleb128 0x2
	.long	0x5aae
	.uleb128 0x1
	.long	0x5ab8
	.byte	0
	.uleb128 0x5d
	.long	.LASF180
	.byte	0xae
	.long	.LASF396
	.long	0x25cb
	.uleb128 0x2
	.long	0x5aae
	.uleb128 0x2
	.long	0x113
	.byte	0
	.byte	0
	.uleb128 0x6
	.long	0x2550
	.uleb128 0x38
	.long	.LASF397
	.byte	0x8
	.value	0x19b
	.long	0x26d8
	.uleb128 0x19
	.long	.LASF159
	.byte	0x8
	.value	0x1a4
	.byte	0xd
	.long	0x5a95
	.uleb128 0xe
	.long	.LASF164
	.byte	0x8
	.value	0x1cf
	.byte	0x7
	.long	.LASF398
	.long	0x25e8
	.long	0x2615
	.uleb128 0x1
	.long	0x5ac2
	.uleb128 0x1
	.long	0x2627
	.byte	0
	.uleb128 0x19
	.long	.LASF184
	.byte	0x8
	.value	0x19e
	.byte	0xd
	.long	0x2550
	.uleb128 0x6
	.long	0x2615
	.uleb128 0x19
	.long	.LASF166
	.byte	0x8
	.value	0x1b3
	.byte	0xd
	.long	0x559
	.uleb128 0xe
	.long	.LASF164
	.byte	0x8
	.value	0x1dd
	.byte	0x7
	.long	.LASF399
	.long	0x25e8
	.long	0x2659
	.uleb128 0x1
	.long	0x5ac2
	.uleb128 0x1
	.long	0x2627
	.uleb128 0x1
	.long	0x2659
	.byte	0
	.uleb128 0x19
	.long	.LASF186
	.byte	0x8
	.value	0x1ad
	.byte	0xd
	.long	0x5091
	.uleb128 0x36
	.long	.LASF167
	.byte	0x8
	.value	0x1ef
	.byte	0x7
	.long	.LASF400
	.long	0x2687
	.uleb128 0x1
	.long	0x5ac2
	.uleb128 0x1
	.long	0x25e8
	.uleb128 0x1
	.long	0x2627
	.byte	0
	.uleb128 0xe
	.long	.LASF169
	.byte	0x8
	.value	0x223
	.byte	0x7
	.long	.LASF401
	.long	0x2627
	.long	0x26a2
	.uleb128 0x1
	.long	0x5ac7
	.byte	0
	.uleb128 0xe
	.long	.LASF190
	.byte	0x8
	.value	0x232
	.byte	0x7
	.long	.LASF402
	.long	0x2615
	.long	0x26bd
	.uleb128 0x1
	.long	0x5ac7
	.byte	0
	.uleb128 0x19
	.long	.LASF56
	.byte	0x8
	.value	0x1a1
	.byte	0xd
	.long	0x113
	.uleb128 0x19
	.long	.LASF192
	.byte	0x8
	.value	0x1c2
	.byte	0x8
	.long	0x2550
	.byte	0
	.uleb128 0x17
	.long	.LASF403
	.byte	0x18
	.byte	0x5
	.byte	0x55
	.byte	0xc
	.long	0x2a7b
	.uleb128 0x17
	.long	.LASF194
	.byte	0x18
	.byte	0x5
	.byte	0x5c
	.byte	0xe
	.long	0x278b
	.uleb128 0x7
	.long	.LASF195
	.byte	0x5
	.byte	0x5e
	.byte	0xa
	.long	0x2790
	.byte	0
	.uleb128 0x7
	.long	.LASF196
	.byte	0x5
	.byte	0x5f
	.byte	0xa
	.long	0x2790
	.byte	0x8
	.uleb128 0x7
	.long	.LASF197
	.byte	0x5
	.byte	0x60
	.byte	0xa
	.long	0x2790
	.byte	0x10
	.uleb128 0x23
	.long	.LASF194
	.byte	0x5
	.byte	0x63
	.byte	0x2
	.long	.LASF404
	.long	0x272d
	.long	0x2733
	.uleb128 0x2
	.long	0x5ad6
	.byte	0
	.uleb128 0x23
	.long	.LASF194
	.byte	0x5
	.byte	0x69
	.byte	0x2
	.long	.LASF405
	.long	0x2747
	.long	0x2752
	.uleb128 0x2
	.long	0x5ad6
	.uleb128 0x1
	.long	0x5ae0
	.byte	0
	.uleb128 0x23
	.long	.LASF200
	.byte	0x5
	.byte	0x71
	.byte	0x2
	.long	.LASF406
	.long	0x2766
	.long	0x2771
	.uleb128 0x2
	.long	0x5ad6
	.uleb128 0x1
	.long	0x5ae5
	.byte	0
	.uleb128 0x5e
	.long	.LASF202
	.byte	0x7a
	.long	.LASF407
	.long	0x277f
	.uleb128 0x2
	.long	0x5ad6
	.uleb128 0x1
	.long	0x5aea
	.byte	0
	.byte	0
	.uleb128 0x6
	.long	0x26e5
	.uleb128 0x4
	.long	.LASF159
	.byte	0x5
	.byte	0x5a
	.byte	0x9
	.long	0x4b51
	.uleb128 0x17
	.long	.LASF205
	.byte	0x18
	.byte	0x5
	.byte	0x85
	.byte	0xe
	.long	0x2867
	.uleb128 0x30
	.long	0x2550
	.uleb128 0x30
	.long	0x26e5
	.uleb128 0x23
	.long	.LASF205
	.byte	0x5
	.byte	0x89
	.byte	0x2
	.long	.LASF408
	.long	0x27c7
	.long	0x27cd
	.uleb128 0x2
	.long	0x5aef
	.byte	0
	.uleb128 0x23
	.long	.LASF205
	.byte	0x5
	.byte	0x8f
	.byte	0x2
	.long	.LASF409
	.long	0x27e1
	.long	0x27ec
	.uleb128 0x2
	.long	0x5aef
	.uleb128 0x1
	.long	0x5af9
	.byte	0
	.uleb128 0x23
	.long	.LASF205
	.byte	0x5
	.byte	0x97
	.byte	0x2
	.long	.LASF410
	.long	0x2800
	.long	0x280b
	.uleb128 0x2
	.long	0x5aef
	.uleb128 0x1
	.long	0x5afe
	.byte	0
	.uleb128 0x23
	.long	.LASF205
	.byte	0x5
	.byte	0x9c
	.byte	0x2
	.long	.LASF411
	.long	0x281f
	.long	0x282a
	.uleb128 0x2
	.long	0x5aef
	.uleb128 0x1
	.long	0x5b03
	.byte	0
	.uleb128 0x23
	.long	.LASF205
	.byte	0x5
	.byte	0xa1
	.byte	0x2
	.long	.LASF412
	.long	0x283e
	.long	0x284e
	.uleb128 0x2
	.long	0x5aef
	.uleb128 0x1
	.long	0x5b03
	.uleb128 0x1
	.long	0x5afe
	.byte	0
	.uleb128 0x5f
	.long	.LASF413
	.long	.LASF415
	.long	0x285b
	.uleb128 0x2
	.long	0x5aef
	.uleb128 0x2
	.long	0x113
	.byte	0
	.byte	0
	.uleb128 0x4
	.long	.LASF211
	.byte	0x5
	.byte	0x58
	.byte	0x15
	.long	0x4b82
	.uleb128 0x6
	.long	0x2867
	.uleb128 0x31
	.long	.LASF212
	.value	0x12a
	.long	.LASF416
	.long	0x5b08
	.long	0x288f
	.long	0x2895
	.uleb128 0x2
	.long	0x5b0d
	.byte	0
	.uleb128 0x31
	.long	.LASF212
	.value	0x12f
	.long	.LASF417
	.long	0x5af9
	.long	0x28ac
	.long	0x28b2
	.uleb128 0x2
	.long	0x5b17
	.byte	0
	.uleb128 0x19
	.long	.LASF184
	.byte	0x5
	.value	0x126
	.byte	0x16
	.long	0x2550
	.uleb128 0x6
	.long	0x28b2
	.uleb128 0x31
	.long	.LASF215
	.value	0x134
	.long	.LASF418
	.long	0x28b2
	.long	0x28db
	.long	0x28e1
	.uleb128 0x2
	.long	0x5b17
	.byte	0
	.uleb128 0x43
	.long	.LASF217
	.value	0x138
	.long	.LASF419
	.long	0x28f4
	.long	0x28fa
	.uleb128 0x2
	.long	0x5b0d
	.byte	0
	.uleb128 0x1a
	.long	.LASF217
	.value	0x13e
	.long	.LASF420
	.long	0x290d
	.long	0x2918
	.uleb128 0x2
	.long	0x5b0d
	.uleb128 0x1
	.long	0x5b21
	.byte	0
	.uleb128 0x1a
	.long	.LASF217
	.value	0x144
	.long	.LASF421
	.long	0x292b
	.long	0x2936
	.uleb128 0x2
	.long	0x5b0d
	.uleb128 0x1
	.long	0x559
	.byte	0
	.uleb128 0x1a
	.long	.LASF217
	.value	0x14a
	.long	.LASF422
	.long	0x2949
	.long	0x2959
	.uleb128 0x2
	.long	0x5b0d
	.uleb128 0x1
	.long	0x559
	.uleb128 0x1
	.long	0x5b21
	.byte	0
	.uleb128 0x43
	.long	.LASF217
	.value	0x14f
	.long	.LASF423
	.long	0x296c
	.long	0x2977
	.uleb128 0x2
	.long	0x5b0d
	.uleb128 0x1
	.long	0x5b26
	.byte	0
	.uleb128 0x1a
	.long	.LASF217
	.value	0x154
	.long	.LASF424
	.long	0x298a
	.long	0x2995
	.uleb128 0x2
	.long	0x5b0d
	.uleb128 0x1
	.long	0x5b03
	.byte	0
	.uleb128 0x1a
	.long	.LASF217
	.value	0x158
	.long	.LASF425
	.long	0x29a8
	.long	0x29b8
	.uleb128 0x2
	.long	0x5b0d
	.uleb128 0x1
	.long	0x5b26
	.uleb128 0x1
	.long	0x5b21
	.byte	0
	.uleb128 0x1a
	.long	.LASF217
	.value	0x166
	.long	.LASF426
	.long	0x29cb
	.long	0x29db
	.uleb128 0x2
	.long	0x5b0d
	.uleb128 0x1
	.long	0x5b21
	.uleb128 0x1
	.long	0x5b26
	.byte	0
	.uleb128 0x1a
	.long	.LASF226
	.value	0x16c
	.long	.LASF427
	.long	0x29ee
	.long	0x29f9
	.uleb128 0x2
	.long	0x5b0d
	.uleb128 0x2
	.long	0x113
	.byte	0
	.uleb128 0x60
	.long	.LASF228
	.long	0x279c
	.uleb128 0x31
	.long	.LASF229
	.value	0x177
	.long	.LASF428
	.long	0x2790
	.long	0x2a19
	.long	0x2a24
	.uleb128 0x2
	.long	0x5b0d
	.uleb128 0x1
	.long	0x559
	.byte	0
	.uleb128 0x1a
	.long	.LASF231
	.value	0x17f
	.long	.LASF429
	.long	0x2a37
	.long	0x2a47
	.uleb128 0x2
	.long	0x5b0d
	.uleb128 0x1
	.long	0x2790
	.uleb128 0x1
	.long	0x559
	.byte	0
	.uleb128 0xf
	.long	.LASF233
	.byte	0x5
	.value	0x189
	.byte	0x7
	.long	.LASF430
	.byte	0x2
	.long	0x2a5d
	.long	0x2a68
	.uleb128 0x2
	.long	0x5b0d
	.uleb128 0x1
	.long	0x559
	.byte	0
	.uleb128 0xa
	.string	"_Tp"
	.long	0x113
	.uleb128 0x5
	.long	.LASF235
	.long	0x2550
	.byte	0
	.uleb128 0x6
	.long	0x26d8
	.uleb128 0x17
	.long	.LASF431
	.byte	0x1
	.byte	0x1e
	.byte	0x7c
	.byte	0xc
	.long	0x2aa3
	.uleb128 0x4
	.long	.LASF237
	.byte	0x1e
	.byte	0x7d
	.byte	0xd
	.long	0x2550
	.uleb128 0x5
	.long	.LASF238
	.long	0x2550
	.byte	0
	.uleb128 0x4b
	.long	.LASF432
	.byte	0x18
	.byte	0x5
	.value	0x1a7
	.long	0x368e
	.uleb128 0x18
	.byte	0x5
	.value	0x1a7
	.byte	0xb
	.long	0x2a02
	.uleb128 0x18
	.byte	0x5
	.value	0x1a7
	.byte	0xb
	.long	0x2a24
	.uleb128 0x18
	.byte	0x5
	.value	0x1a7
	.byte	0xb
	.long	0x29f9
	.uleb128 0x18
	.byte	0x5
	.value	0x1a7
	.byte	0xb
	.long	0x2895
	.uleb128 0x18
	.byte	0x5
	.value	0x1a7
	.byte	0xb
	.long	0x2878
	.uleb128 0x18
	.byte	0x5
	.value	0x1a7
	.byte	0xb
	.long	0x28c4
	.uleb128 0x42
	.long	0x26d8
	.byte	0x2
	.uleb128 0xe
	.long	.LASF240
	.byte	0x5
	.value	0x1d1
	.byte	0x7
	.long	.LASF433
	.long	0x4c4d
	.long	0x2b07
	.uleb128 0x1
	.long	0xb63
	.byte	0
	.uleb128 0xe
	.long	.LASF240
	.byte	0x5
	.value	0x1da
	.byte	0x7
	.long	.LASF434
	.long	0x4c4d
	.long	0x2b22
	.uleb128 0x1
	.long	0x647
	.byte	0
	.uleb128 0x61
	.long	.LASF243
	.long	.LASF436
	.long	0x4c4d
	.uleb128 0x1c
	.long	.LASF159
	.byte	0x5
	.value	0x1c1
	.byte	0x29
	.long	0x2790
	.uleb128 0xe
	.long	.LASF244
	.byte	0x5
	.value	0x1e7
	.byte	0x7
	.long	.LASF437
	.long	0x2b2f
	.long	0x2b6b
	.uleb128 0x1
	.long	0x2b2f
	.uleb128 0x1
	.long	0x2b2f
	.uleb128 0x1
	.long	0x2b2f
	.uleb128 0x1
	.long	0x5b2b
	.uleb128 0x1
	.long	0xb63
	.byte	0
	.uleb128 0x19
	.long	.LASF211
	.byte	0x5
	.value	0x1bc
	.byte	0x2f
	.long	0x2867
	.uleb128 0x6
	.long	0x2b6b
	.uleb128 0xe
	.long	.LASF244
	.byte	0x5
	.value	0x1ee
	.byte	0x7
	.long	.LASF438
	.long	0x2b2f
	.long	0x2bac
	.uleb128 0x1
	.long	0x2b2f
	.uleb128 0x1
	.long	0x2b2f
	.uleb128 0x1
	.long	0x2b2f
	.uleb128 0x1
	.long	0x5b2b
	.uleb128 0x1
	.long	0x647
	.byte	0
	.uleb128 0xe
	.long	.LASF247
	.byte	0x5
	.value	0x1f3
	.byte	0x7
	.long	.LASF439
	.long	0x2b2f
	.long	0x2bd6
	.uleb128 0x1
	.long	0x2b2f
	.uleb128 0x1
	.long	0x2b2f
	.uleb128 0x1
	.long	0x2b2f
	.uleb128 0x1
	.long	0x5b2b
	.byte	0
	.uleb128 0x3c
	.long	.LASF249
	.byte	0x5
	.value	0x20e
	.long	.LASF440
	.long	0x2bea
	.long	0x2bf0
	.uleb128 0x2
	.long	0x5b30
	.byte	0
	.uleb128 0x3d
	.long	.LASF249
	.byte	0x5
	.value	0x219
	.long	.LASF441
	.long	0x2c04
	.long	0x2c0f
	.uleb128 0x2
	.long	0x5b30
	.uleb128 0x1
	.long	0x5b3a
	.byte	0
	.uleb128 0x1c
	.long	.LASF184
	.byte	0x5
	.value	0x1cc
	.byte	0x1a
	.long	0x2550
	.uleb128 0x6
	.long	0x2c0f
	.uleb128 0x3d
	.long	.LASF249
	.byte	0x5
	.value	0x227
	.long	.LASF442
	.long	0x2c35
	.long	0x2c45
	.uleb128 0x2
	.long	0x5b30
	.uleb128 0x1
	.long	0x2c45
	.uleb128 0x1
	.long	0x5b3a
	.byte	0
	.uleb128 0x1c
	.long	.LASF166
	.byte	0x5
	.value	0x1ca
	.byte	0x1a
	.long	0x559
	.uleb128 0x6
	.long	0x2c45
	.uleb128 0xf
	.long	.LASF249
	.byte	0x5
	.value	0x234
	.byte	0x7
	.long	.LASF443
	.byte	0x1
	.long	0x2c6d
	.long	0x2c82
	.uleb128 0x2
	.long	0x5b30
	.uleb128 0x1
	.long	0x2c45
	.uleb128 0x1
	.long	0x5b3f
	.uleb128 0x1
	.long	0x5b3a
	.byte	0
	.uleb128 0x1c
	.long	.LASF56
	.byte	0x5
	.value	0x1c0
	.byte	0x17
	.long	0x113
	.uleb128 0x6
	.long	0x2c82
	.uleb128 0xf
	.long	.LASF249
	.byte	0x5
	.value	0x254
	.byte	0x7
	.long	.LASF444
	.byte	0x1
	.long	0x2caa
	.long	0x2cb5
	.uleb128 0x2
	.long	0x5b30
	.uleb128 0x1
	.long	0x5b44
	.byte	0
	.uleb128 0x3c
	.long	.LASF249
	.byte	0x5
	.value	0x267
	.long	.LASF445
	.long	0x2cc9
	.long	0x2cd4
	.uleb128 0x2
	.long	0x5b30
	.uleb128 0x1
	.long	0x5b49
	.byte	0
	.uleb128 0xf
	.long	.LASF249
	.byte	0x5
	.value	0x26b
	.byte	0x7
	.long	.LASF446
	.byte	0x1
	.long	0x2cea
	.long	0x2cfa
	.uleb128 0x2
	.long	0x5b30
	.uleb128 0x1
	.long	0x5b44
	.uleb128 0x1
	.long	0x5b4e
	.byte	0
	.uleb128 0x1a
	.long	.LASF249
	.value	0x276
	.long	.LASF447
	.long	0x2d0d
	.long	0x2d22
	.uleb128 0x2
	.long	0x5b30
	.uleb128 0x1
	.long	0x5b49
	.uleb128 0x1
	.long	0x5b3a
	.uleb128 0x1
	.long	0xb63
	.byte	0
	.uleb128 0x1a
	.long	.LASF249
	.value	0x27b
	.long	.LASF448
	.long	0x2d35
	.long	0x2d4a
	.uleb128 0x2
	.long	0x5b30
	.uleb128 0x1
	.long	0x5b49
	.uleb128 0x1
	.long	0x5b3a
	.uleb128 0x1
	.long	0x647
	.byte	0
	.uleb128 0xf
	.long	.LASF249
	.byte	0x5
	.value	0x28e
	.byte	0x7
	.long	.LASF449
	.byte	0x1
	.long	0x2d60
	.long	0x2d70
	.uleb128 0x2
	.long	0x5b30
	.uleb128 0x1
	.long	0x5b49
	.uleb128 0x1
	.long	0x5b4e
	.byte	0
	.uleb128 0xf
	.long	.LASF249
	.byte	0x5
	.value	0x2a1
	.byte	0x7
	.long	.LASF450
	.byte	0x1
	.long	0x2d86
	.long	0x2d96
	.uleb128 0x2
	.long	0x5b30
	.uleb128 0x1
	.long	0x36a4
	.uleb128 0x1
	.long	0x5b3a
	.byte	0
	.uleb128 0xf
	.long	.LASF261
	.byte	0x5
	.value	0x2d8
	.byte	0x7
	.long	.LASF451
	.byte	0x1
	.long	0x2dac
	.long	0x2db7
	.uleb128 0x2
	.long	0x5b30
	.uleb128 0x2
	.long	0x113
	.byte	0
	.uleb128 0x16
	.long	.LASF82
	.byte	0xd
	.byte	0xcc
	.byte	0x5
	.long	.LASF452
	.long	0x5b53
	.byte	0x1
	.long	0x2dd0
	.long	0x2ddb
	.uleb128 0x2
	.long	0x5b30
	.uleb128 0x1
	.long	0x5b44
	.byte	0
	.uleb128 0x8
	.long	.LASF82
	.byte	0x5
	.value	0x2f9
	.byte	0x7
	.long	.LASF453
	.long	0x5b53
	.byte	0x1
	.long	0x2df5
	.long	0x2e00
	.uleb128 0x2
	.long	0x5b30
	.uleb128 0x1
	.long	0x5b49
	.byte	0
	.uleb128 0x8
	.long	.LASF82
	.byte	0x5
	.value	0x30f
	.byte	0x7
	.long	.LASF454
	.long	0x5b53
	.byte	0x1
	.long	0x2e1a
	.long	0x2e25
	.uleb128 0x2
	.long	0x5b30
	.uleb128 0x1
	.long	0x36a4
	.byte	0
	.uleb128 0xf
	.long	.LASF108
	.byte	0x5
	.value	0x323
	.byte	0x7
	.long	.LASF455
	.byte	0x1
	.long	0x2e3b
	.long	0x2e4b
	.uleb128 0x2
	.long	0x5b30
	.uleb128 0x1
	.long	0x2c45
	.uleb128 0x1
	.long	0x5b3f
	.byte	0
	.uleb128 0xf
	.long	.LASF108
	.byte	0x5
	.value	0x352
	.byte	0x7
	.long	.LASF456
	.byte	0x1
	.long	0x2e61
	.long	0x2e6c
	.uleb128 0x2
	.long	0x5b30
	.uleb128 0x1
	.long	0x36a4
	.byte	0
	.uleb128 0x1c
	.long	.LASF268
	.byte	0x5
	.value	0x1c5
	.byte	0x3d
	.long	0x4ba2
	.uleb128 0x8
	.long	.LASF269
	.byte	0x5
	.value	0x364
	.byte	0x7
	.long	.LASF457
	.long	0x2e6c
	.byte	0x1
	.long	0x2e93
	.long	0x2e99
	.uleb128 0x2
	.long	0x5b30
	.byte	0
	.uleb128 0x1c
	.long	.LASF271
	.byte	0x5
	.value	0x1c7
	.byte	0x7
	.long	0x4ba7
	.uleb128 0x8
	.long	.LASF269
	.byte	0x5
	.value	0x36e
	.byte	0x7
	.long	.LASF458
	.long	0x2e99
	.byte	0x1
	.long	0x2ec0
	.long	0x2ec6
	.uleb128 0x2
	.long	0x5b58
	.byte	0
	.uleb128 0x32
	.string	"end"
	.value	0x378
	.long	.LASF459
	.long	0x2e6c
	.long	0x2edd
	.long	0x2ee3
	.uleb128 0x2
	.long	0x5b30
	.byte	0
	.uleb128 0x32
	.string	"end"
	.value	0x382
	.long	.LASF460
	.long	0x2e99
	.long	0x2efa
	.long	0x2f00
	.uleb128 0x2
	.long	0x5b58
	.byte	0
	.uleb128 0x1c
	.long	.LASF275
	.byte	0x5
	.value	0x1c9
	.byte	0x30
	.long	0x36a9
	.uleb128 0x8
	.long	.LASF276
	.byte	0x5
	.value	0x38c
	.byte	0x7
	.long	.LASF461
	.long	0x2f00
	.byte	0x1
	.long	0x2f27
	.long	0x2f2d
	.uleb128 0x2
	.long	0x5b30
	.byte	0
	.uleb128 0x1c
	.long	.LASF278
	.byte	0x5
	.value	0x1c8
	.byte	0x35
	.long	0x36ae
	.uleb128 0x8
	.long	.LASF276
	.byte	0x5
	.value	0x396
	.byte	0x7
	.long	.LASF462
	.long	0x2f2d
	.byte	0x1
	.long	0x2f54
	.long	0x2f5a
	.uleb128 0x2
	.long	0x5b58
	.byte	0
	.uleb128 0x8
	.long	.LASF280
	.byte	0x5
	.value	0x3a0
	.byte	0x7
	.long	.LASF463
	.long	0x2f00
	.byte	0x1
	.long	0x2f74
	.long	0x2f7a
	.uleb128 0x2
	.long	0x5b30
	.byte	0
	.uleb128 0x8
	.long	.LASF280
	.byte	0x5
	.value	0x3aa
	.byte	0x7
	.long	.LASF464
	.long	0x2f2d
	.byte	0x1
	.long	0x2f94
	.long	0x2f9a
	.uleb128 0x2
	.long	0x5b58
	.byte	0
	.uleb128 0x8
	.long	.LASF283
	.byte	0x5
	.value	0x3b5
	.byte	0x7
	.long	.LASF465
	.long	0x2e99
	.byte	0x1
	.long	0x2fb4
	.long	0x2fba
	.uleb128 0x2
	.long	0x5b58
	.byte	0
	.uleb128 0x8
	.long	.LASF285
	.byte	0x5
	.value	0x3bf
	.byte	0x7
	.long	.LASF466
	.long	0x2e99
	.byte	0x1
	.long	0x2fd4
	.long	0x2fda
	.uleb128 0x2
	.long	0x5b58
	.byte	0
	.uleb128 0x8
	.long	.LASF287
	.byte	0x5
	.value	0x3c9
	.byte	0x7
	.long	.LASF467
	.long	0x2f2d
	.byte	0x1
	.long	0x2ff4
	.long	0x2ffa
	.uleb128 0x2
	.long	0x5b58
	.byte	0
	.uleb128 0x8
	.long	.LASF289
	.byte	0x5
	.value	0x3d3
	.byte	0x7
	.long	.LASF468
	.long	0x2f2d
	.byte	0x1
	.long	0x3014
	.long	0x301a
	.uleb128 0x2
	.long	0x5b58
	.byte	0
	.uleb128 0x8
	.long	.LASF291
	.byte	0x5
	.value	0x3db
	.byte	0x7
	.long	.LASF469
	.long	0x2c45
	.byte	0x1
	.long	0x3034
	.long	0x303a
	.uleb128 0x2
	.long	0x5b58
	.byte	0
	.uleb128 0x8
	.long	.LASF169
	.byte	0x5
	.value	0x3e1
	.byte	0x7
	.long	.LASF470
	.long	0x2c45
	.byte	0x1
	.long	0x3054
	.long	0x305a
	.uleb128 0x2
	.long	0x5b58
	.byte	0
	.uleb128 0xf
	.long	.LASF294
	.byte	0x5
	.value	0x3f0
	.byte	0x7
	.long	.LASF471
	.byte	0x1
	.long	0x3070
	.long	0x307b
	.uleb128 0x2
	.long	0x5b30
	.uleb128 0x1
	.long	0x2c45
	.byte	0
	.uleb128 0xf
	.long	.LASF294
	.byte	0x5
	.value	0x405
	.byte	0x7
	.long	.LASF472
	.byte	0x1
	.long	0x3091
	.long	0x30a1
	.uleb128 0x2
	.long	0x5b30
	.uleb128 0x1
	.long	0x2c45
	.uleb128 0x1
	.long	0x5b3f
	.byte	0
	.uleb128 0xf
	.long	.LASF297
	.byte	0x5
	.value	0x427
	.byte	0x7
	.long	.LASF473
	.byte	0x1
	.long	0x30b7
	.long	0x30bd
	.uleb128 0x2
	.long	0x5b30
	.byte	0
	.uleb128 0x8
	.long	.LASF299
	.byte	0x5
	.value	0x431
	.byte	0x7
	.long	.LASF474
	.long	0x2c45
	.byte	0x1
	.long	0x30d7
	.long	0x30dd
	.uleb128 0x2
	.long	0x5b58
	.byte	0
	.uleb128 0x8
	.long	.LASF301
	.byte	0x5
	.value	0x43b
	.byte	0x7
	.long	.LASF475
	.long	0x4c4d
	.byte	0x1
	.long	0x30f7
	.long	0x30fd
	.uleb128 0x2
	.long	0x5b58
	.byte	0
	.uleb128 0x1d
	.long	.LASF303
	.byte	0xd
	.byte	0x43
	.byte	0x5
	.long	.LASF476
	.long	0x3111
	.long	0x311c
	.uleb128 0x2
	.long	0x5b30
	.uleb128 0x1
	.long	0x2c45
	.byte	0
	.uleb128 0x1c
	.long	.LASF160
	.byte	0x5
	.value	0x1c3
	.byte	0x32
	.long	0x4b5d
	.uleb128 0x8
	.long	.LASF305
	.byte	0x5
	.value	0x461
	.byte	0x7
	.long	.LASF477
	.long	0x311c
	.byte	0x1
	.long	0x3143
	.long	0x314e
	.uleb128 0x2
	.long	0x5b30
	.uleb128 0x1
	.long	0x2c45
	.byte	0
	.uleb128 0x1c
	.long	.LASF163
	.byte	0x5
	.value	0x1c4
	.byte	0x37
	.long	0x4b69
	.uleb128 0x8
	.long	.LASF305
	.byte	0x5
	.value	0x474
	.byte	0x7
	.long	.LASF478
	.long	0x314e
	.byte	0x1
	.long	0x3175
	.long	0x3180
	.uleb128 0x2
	.long	0x5b58
	.uleb128 0x1
	.long	0x2c45
	.byte	0
	.uleb128 0xf
	.long	.LASF308
	.byte	0x5
	.value	0x47e
	.byte	0x7
	.long	.LASF479
	.byte	0x2
	.long	0x3196
	.long	0x31a1
	.uleb128 0x2
	.long	0x5b58
	.uleb128 0x1
	.long	0x2c45
	.byte	0
	.uleb128 0x32
	.string	"at"
	.value	0x495
	.long	.LASF480
	.long	0x311c
	.long	0x31b7
	.long	0x31c2
	.uleb128 0x2
	.long	0x5b30
	.uleb128 0x1
	.long	0x2c45
	.byte	0
	.uleb128 0x32
	.string	"at"
	.value	0x4a8
	.long	.LASF481
	.long	0x314e
	.long	0x31d8
	.long	0x31e3
	.uleb128 0x2
	.long	0x5b58
	.uleb128 0x1
	.long	0x2c45
	.byte	0
	.uleb128 0x8
	.long	.LASF312
	.byte	0x5
	.value	0x4b4
	.byte	0x7
	.long	.LASF482
	.long	0x311c
	.byte	0x1
	.long	0x31fd
	.long	0x3203
	.uleb128 0x2
	.long	0x5b30
	.byte	0
	.uleb128 0x8
	.long	.LASF312
	.byte	0x5
	.value	0x4c0
	.byte	0x7
	.long	.LASF483
	.long	0x314e
	.byte	0x1
	.long	0x321d
	.long	0x3223
	.uleb128 0x2
	.long	0x5b58
	.byte	0
	.uleb128 0x8
	.long	.LASF315
	.byte	0x5
	.value	0x4cc
	.byte	0x7
	.long	.LASF484
	.long	0x311c
	.byte	0x1
	.long	0x323d
	.long	0x3243
	.uleb128 0x2
	.long	0x5b30
	.byte	0
	.uleb128 0x8
	.long	.LASF315
	.byte	0x5
	.value	0x4d8
	.byte	0x7
	.long	.LASF485
	.long	0x314e
	.byte	0x1
	.long	0x325d
	.long	0x3263
	.uleb128 0x2
	.long	0x5b58
	.byte	0
	.uleb128 0x8
	.long	.LASF318
	.byte	0x5
	.value	0x4e7
	.byte	0x7
	.long	.LASF486
	.long	0x5a95
	.byte	0x1
	.long	0x327d
	.long	0x3283
	.uleb128 0x2
	.long	0x5b30
	.byte	0
	.uleb128 0x8
	.long	.LASF318
	.byte	0x5
	.value	0x4ec
	.byte	0x7
	.long	.LASF487
	.long	0x2e2
	.byte	0x1
	.long	0x329d
	.long	0x32a3
	.uleb128 0x2
	.long	0x5b58
	.byte	0
	.uleb128 0xf
	.long	.LASF321
	.byte	0x5
	.value	0x4fc
	.byte	0x7
	.long	.LASF488
	.byte	0x1
	.long	0x32b9
	.long	0x32c4
	.uleb128 0x2
	.long	0x5b30
	.uleb128 0x1
	.long	0x5b3f
	.byte	0
	.uleb128 0xf
	.long	.LASF321
	.byte	0x5
	.value	0x50d
	.byte	0x7
	.long	.LASF489
	.byte	0x1
	.long	0x32da
	.long	0x32e5
	.uleb128 0x2
	.long	0x5b30
	.uleb128 0x1
	.long	0x5b62
	.byte	0
	.uleb128 0xf
	.long	.LASF324
	.byte	0x5
	.value	0x525
	.byte	0x7
	.long	.LASF490
	.byte	0x1
	.long	0x32fb
	.long	0x3301
	.uleb128 0x2
	.long	0x5b30
	.byte	0
	.uleb128 0x16
	.long	.LASF326
	.byte	0xd
	.byte	0x85
	.byte	0x5
	.long	.LASF491
	.long	0x2e6c
	.byte	0x1
	.long	0x331a
	.long	0x332a
	.uleb128 0x2
	.long	0x5b30
	.uleb128 0x1
	.long	0x2e99
	.uleb128 0x1
	.long	0x5b3f
	.byte	0
	.uleb128 0x8
	.long	.LASF326
	.byte	0x5
	.value	0x56c
	.byte	0x7
	.long	.LASF492
	.long	0x2e6c
	.byte	0x1
	.long	0x3344
	.long	0x3354
	.uleb128 0x2
	.long	0x5b30
	.uleb128 0x1
	.long	0x2e99
	.uleb128 0x1
	.long	0x5b62
	.byte	0
	.uleb128 0x8
	.long	.LASF326
	.byte	0x5
	.value	0x57e
	.byte	0x7
	.long	.LASF493
	.long	0x2e6c
	.byte	0x1
	.long	0x336e
	.long	0x337e
	.uleb128 0x2
	.long	0x5b30
	.uleb128 0x1
	.long	0x2e99
	.uleb128 0x1
	.long	0x36a4
	.byte	0
	.uleb128 0x8
	.long	.LASF326
	.byte	0x5
	.value	0x598
	.byte	0x7
	.long	.LASF494
	.long	0x2e6c
	.byte	0x1
	.long	0x3398
	.long	0x33ad
	.uleb128 0x2
	.long	0x5b30
	.uleb128 0x1
	.long	0x2e99
	.uleb128 0x1
	.long	0x2c45
	.uleb128 0x1
	.long	0x5b3f
	.byte	0
	.uleb128 0x8
	.long	.LASF331
	.byte	0x5
	.value	0x5f9
	.byte	0x7
	.long	.LASF495
	.long	0x2e6c
	.byte	0x1
	.long	0x33c7
	.long	0x33d2
	.uleb128 0x2
	.long	0x5b30
	.uleb128 0x1
	.long	0x2e99
	.byte	0
	.uleb128 0x8
	.long	.LASF331
	.byte	0x5
	.value	0x615
	.byte	0x7
	.long	.LASF496
	.long	0x2e6c
	.byte	0x1
	.long	0x33ec
	.long	0x33fc
	.uleb128 0x2
	.long	0x5b30
	.uleb128 0x1
	.long	0x2e99
	.uleb128 0x1
	.long	0x2e99
	.byte	0
	.uleb128 0xf
	.long	.LASF87
	.byte	0x5
	.value	0x62d
	.byte	0x7
	.long	.LASF497
	.byte	0x1
	.long	0x3412
	.long	0x341d
	.uleb128 0x2
	.long	0x5b30
	.uleb128 0x1
	.long	0x5b53
	.byte	0
	.uleb128 0xf
	.long	.LASF335
	.byte	0x5
	.value	0x640
	.byte	0x7
	.long	.LASF498
	.byte	0x1
	.long	0x3433
	.long	0x3439
	.uleb128 0x2
	.long	0x5b30
	.byte	0
	.uleb128 0xf
	.long	.LASF337
	.byte	0x5
	.value	0x6a3
	.byte	0x7
	.long	.LASF499
	.byte	0x2
	.long	0x344f
	.long	0x345f
	.uleb128 0x2
	.long	0x5b30
	.uleb128 0x1
	.long	0x2c45
	.uleb128 0x1
	.long	0x5b3f
	.byte	0
	.uleb128 0xf
	.long	.LASF339
	.byte	0x5
	.value	0x6ae
	.byte	0x7
	.long	.LASF500
	.byte	0x2
	.long	0x3475
	.long	0x3480
	.uleb128 0x2
	.long	0x5b30
	.uleb128 0x1
	.long	0x2c45
	.byte	0
	.uleb128 0xf
	.long	.LASF341
	.byte	0xd
	.value	0x108
	.byte	0x5
	.long	.LASF501
	.byte	0x2
	.long	0x3496
	.long	0x34a6
	.uleb128 0x2
	.long	0x5b30
	.uleb128 0x1
	.long	0x559
	.uleb128 0x1
	.long	0x5b3f
	.byte	0
	.uleb128 0xf
	.long	.LASF343
	.byte	0xd
	.value	0x20b
	.byte	0x5
	.long	.LASF502
	.byte	0x2
	.long	0x34bc
	.long	0x34d1
	.uleb128 0x2
	.long	0x5b30
	.uleb128 0x1
	.long	0x2e6c
	.uleb128 0x1
	.long	0x2c45
	.uleb128 0x1
	.long	0x5b3f
	.byte	0
	.uleb128 0xf
	.long	.LASF345
	.byte	0xd
	.value	0x272
	.byte	0x5
	.long	.LASF503
	.byte	0x2
	.long	0x34e7
	.long	0x34f2
	.uleb128 0x2
	.long	0x5b30
	.uleb128 0x1
	.long	0x2c45
	.byte	0
	.uleb128 0x8
	.long	.LASF347
	.byte	0xd
	.value	0x2bf
	.byte	0x5
	.long	.LASF504
	.long	0x4c4d
	.byte	0x2
	.long	0x350c
	.long	0x3512
	.uleb128 0x2
	.long	0x5b30
	.byte	0
	.uleb128 0x8
	.long	.LASF349
	.byte	0xd
	.value	0x15e
	.byte	0x5
	.long	.LASF505
	.long	0x2e6c
	.byte	0x2
	.long	0x352c
	.long	0x353c
	.uleb128 0x2
	.long	0x5b30
	.uleb128 0x1
	.long	0x2e99
	.uleb128 0x1
	.long	0x5b62
	.byte	0
	.uleb128 0x8
	.long	.LASF351
	.byte	0x5
	.value	0x75c
	.byte	0x7
	.long	.LASF506
	.long	0x2e6c
	.byte	0x2
	.long	0x3556
	.long	0x3566
	.uleb128 0x2
	.long	0x5b30
	.uleb128 0x1
	.long	0x2e99
	.uleb128 0x1
	.long	0x5b62
	.byte	0
	.uleb128 0x8
	.long	.LASF353
	.byte	0x5
	.value	0x763
	.byte	0x7
	.long	.LASF507
	.long	0x2c45
	.byte	0x2
	.long	0x3580
	.long	0x3590
	.uleb128 0x2
	.long	0x5b58
	.uleb128 0x1
	.long	0x2c45
	.uleb128 0x1
	.long	0x2e7
	.byte	0
	.uleb128 0x44
	.long	.LASF355
	.value	0x76e
	.long	.LASF508
	.long	0x2c45
	.long	0x35ae
	.uleb128 0x1
	.long	0x2c45
	.uleb128 0x1
	.long	0x5b3a
	.byte	0
	.uleb128 0x44
	.long	.LASF357
	.value	0x777
	.long	.LASF509
	.long	0x2c45
	.long	0x35c7
	.uleb128 0x1
	.long	0x5b67
	.byte	0
	.uleb128 0xf
	.long	.LASF359
	.byte	0x5
	.value	0x788
	.byte	0x7
	.long	.LASF510
	.byte	0x2
	.long	0x35dd
	.long	0x35e8
	.uleb128 0x2
	.long	0x5b30
	.uleb128 0x1
	.long	0x2b2f
	.byte	0
	.uleb128 0x16
	.long	.LASF361
	.byte	0xd
	.byte	0xaf
	.byte	0x5
	.long	.LASF511
	.long	0x2e6c
	.byte	0x2
	.long	0x3601
	.long	0x360c
	.uleb128 0x2
	.long	0x5b30
	.uleb128 0x1
	.long	0x2e6c
	.byte	0
	.uleb128 0x16
	.long	.LASF361
	.byte	0xd
	.byte	0xbd
	.byte	0x5
	.long	.LASF512
	.long	0x2e6c
	.byte	0x2
	.long	0x3625
	.long	0x3635
	.uleb128 0x2
	.long	0x5b30
	.uleb128 0x1
	.long	0x2e6c
	.uleb128 0x1
	.long	0x2e6c
	.byte	0
	.uleb128 0x1a
	.long	.LASF364
	.value	0x7a2
	.long	.LASF513
	.long	0x3648
	.long	0x3658
	.uleb128 0x2
	.long	0x5b30
	.uleb128 0x1
	.long	0x5b49
	.uleb128 0x1
	.long	0xb63
	.byte	0
	.uleb128 0x1a
	.long	.LASF364
	.value	0x7ae
	.long	.LASF514
	.long	0x366b
	.long	0x367b
	.uleb128 0x2
	.long	0x5b30
	.uleb128 0x1
	.long	0x5b49
	.uleb128 0x1
	.long	0x647
	.byte	0
	.uleb128 0xa
	.string	"_Tp"
	.long	0x113
	.uleb128 0x5
	.long	.LASF235
	.long	0x2550
	.byte	0
	.uleb128 0x6
	.long	0x2aa3
	.uleb128 0x4
	.long	.LASF370
	.byte	0x1e
	.byte	0x80
	.byte	0xb
	.long	0x2a8d
	.uleb128 0x6
	.long	0x3693
	.uleb128 0x2f
	.long	.LASF515
	.uleb128 0x2f
	.long	.LASF516
	.uleb128 0x2f
	.long	.LASF517
	.uleb128 0x17
	.long	.LASF518
	.byte	0x1
	.byte	0xf
	.byte	0xd2
	.byte	0xc
	.long	0x36e5
	.uleb128 0x4
	.long	.LASF519
	.byte	0xf
	.byte	0xd6
	.byte	0x2b
	.long	0xb51
	.uleb128 0x4
	.long	.LASF159
	.byte	0xf
	.byte	0xd7
	.byte	0x2b
	.long	0x59a5
	.uleb128 0x4
	.long	.LASF160
	.byte	0xf
	.byte	0xd8
	.byte	0x2b
	.long	0x59b9
	.byte	0
	.uleb128 0x17
	.long	.LASF520
	.byte	0x1
	.byte	0xf
	.byte	0xdd
	.byte	0xc
	.long	0x370b
	.uleb128 0x4
	.long	.LASF521
	.byte	0xf
	.byte	0xdf
	.byte	0x2a
	.long	0xb9e
	.uleb128 0x4
	.long	.LASF519
	.byte	0xf
	.byte	0xe1
	.byte	0x2b
	.long	0xb51
	.byte	0
	.uleb128 0x38
	.long	.LASF522
	.byte	0x1e
	.value	0x8b9
	.long	0x372e
	.uleb128 0x19
	.long	.LASF237
	.byte	0x1e
	.value	0x8ba
	.byte	0x13
	.long	0x5a95
	.uleb128 0xa
	.string	"_Tp"
	.long	0x5a95
	.byte	0
	.uleb128 0x17
	.long	.LASF523
	.byte	0x1
	.byte	0xf
	.byte	0xd2
	.byte	0xc
	.long	0x3754
	.uleb128 0x4
	.long	.LASF521
	.byte	0xf
	.byte	0xd4
	.byte	0x2a
	.long	0xb9e
	.uleb128 0x4
	.long	.LASF56
	.byte	0xf
	.byte	0xd5
	.byte	0x2b
	.long	0x113
	.byte	0
	.uleb128 0x38
	.long	.LASF524
	.byte	0x2
	.value	0x19f
	.long	0x37ac
	.uleb128 0xe
	.long	.LASF525
	.byte	0x2
	.value	0x1a4
	.byte	0x2
	.long	.LASF526
	.long	0x59a5
	.long	0x378e
	.uleb128 0xa
	.string	"_Tp"
	.long	0x4461
	.uleb128 0x1
	.long	0x59be
	.uleb128 0x1
	.long	0x59be
	.uleb128 0x1
	.long	0x59a5
	.byte	0
	.uleb128 0x2d
	.long	.LASF527
	.long	0x4c4d
	.byte	0
	.uleb128 0x2d
	.long	.LASF528
	.long	0x4c4d
	.byte	0x1
	.uleb128 0x5
	.long	.LASF529
	.long	0xb9e
	.byte	0
	.uleb128 0x62
	.long	.LASF530
	.byte	0x34
	.long	.LASF532
	.uleb128 0x62
	.long	.LASF531
	.byte	0x37
	.long	.LASF533
	.uleb128 0x57
	.long	.LASF534
	.byte	0x2a
	.byte	0x4b
	.byte	0x3
	.long	.LASF535
	.long	0x37d6
	.uleb128 0x1
	.long	0x2e7
	.byte	0
	.uleb128 0x4a
	.long	.LASF536
	.long	0x3825
	.uleb128 0x84
	.long	.LASF1056
	.byte	0x2b
	.byte	0xf4
	.byte	0xd
	.long	.LASF1057
	.byte	0x1
	.long	0x37d6
	.byte	0x1
	.long	0x37fb
	.byte	0
	.long	0x3806
	.uleb128 0x2
	.long	0x5df4
	.uleb128 0x2
	.long	0x113
	.byte	0
	.uleb128 0x85
	.long	.LASF536
	.byte	0x2b
	.byte	0xe6
	.byte	0x5
	.long	.LASF537
	.byte	0x1
	.long	0x3819
	.byte	0
	.uleb128 0x2
	.long	0x5df4
	.uleb128 0x1
	.long	0x2e7
	.byte	0
	.byte	0
	.uleb128 0x36
	.long	.LASF538
	.byte	0x2
	.value	0x395
	.byte	0x5
	.long	.LASF539
	.long	0x3858
	.uleb128 0x5
	.long	.LASF128
	.long	0x5a95
	.uleb128 0xa
	.string	"_Tp"
	.long	0x113
	.uleb128 0x1
	.long	0x5a95
	.uleb128 0x1
	.long	0x5a95
	.uleb128 0x1
	.long	0x5821
	.byte	0
	.uleb128 0xe
	.long	.LASF540
	.byte	0x2
	.value	0x1e6
	.byte	0x5
	.long	.LASF541
	.long	0x59a5
	.long	0x3899
	.uleb128 0x2d
	.long	.LASF527
	.long	0x4c4d
	.byte	0
	.uleb128 0xa
	.string	"_II"
	.long	0x59be
	.uleb128 0xa
	.string	"_OI"
	.long	0x59a5
	.uleb128 0x1
	.long	0x59be
	.uleb128 0x1
	.long	0x59be
	.uleb128 0x1
	.long	0x59a5
	.byte	0
	.uleb128 0x36
	.long	.LASF542
	.byte	0x2
	.value	0x3c7
	.byte	0x5
	.long	.LASF543
	.long	0x38cc
	.uleb128 0x5
	.long	.LASF544
	.long	0x5a95
	.uleb128 0xa
	.string	"_Tp"
	.long	0x113
	.uleb128 0x1
	.long	0x5a95
	.uleb128 0x1
	.long	0x5a95
	.uleb128 0x1
	.long	0x5821
	.byte	0
	.uleb128 0xe
	.long	.LASF545
	.byte	0x2
	.value	0x14f
	.byte	0x5
	.long	.LASF546
	.long	0x59a5
	.long	0x38f5
	.uleb128 0x5
	.long	.LASF547
	.long	0x59a5
	.uleb128 0x1
	.long	0x5d37
	.uleb128 0x1
	.long	0x59a5
	.byte	0
	.uleb128 0xe
	.long	.LASF548
	.byte	0x2
	.value	0x209
	.byte	0x5
	.long	.LASF549
	.long	0x59a5
	.long	0x3936
	.uleb128 0x2d
	.long	.LASF527
	.long	0x4c4d
	.byte	0
	.uleb128 0xa
	.string	"_II"
	.long	0x59be
	.uleb128 0xa
	.string	"_OI"
	.long	0x59a5
	.uleb128 0x1
	.long	0x59be
	.uleb128 0x1
	.long	0x59be
	.uleb128 0x1
	.long	0x59a5
	.byte	0
	.uleb128 0xe
	.long	.LASF550
	.byte	0x2
	.value	0x139
	.byte	0x5
	.long	.LASF551
	.long	0x59a5
	.long	0x395a
	.uleb128 0x5
	.long	.LASF547
	.long	0x59a5
	.uleb128 0x1
	.long	0x59a5
	.byte	0
	.uleb128 0xe
	.long	.LASF552
	.byte	0x2
	.value	0x139
	.byte	0x5
	.long	.LASF553
	.long	0x59be
	.long	0x397e
	.uleb128 0x5
	.long	.LASF547
	.long	0x59be
	.uleb128 0x1
	.long	0x59be
	.byte	0
	.uleb128 0xe
	.long	.LASF554
	.byte	0x2
	.value	0x454
	.byte	0x5
	.long	.LASF555
	.long	0x5a95
	.long	0x39c3
	.uleb128 0x5
	.long	.LASF556
	.long	0x5a95
	.uleb128 0x5
	.long	.LASF149
	.long	0x59
	.uleb128 0xa
	.string	"_Tp"
	.long	0x113
	.uleb128 0x1
	.long	0x5a95
	.uleb128 0x1
	.long	0x59
	.uleb128 0x1
	.long	0x5821
	.uleb128 0x1
	.long	0xb9e
	.byte	0
	.uleb128 0x1e
	.long	.LASF557
	.byte	0xf
	.byte	0xee
	.byte	0x5
	.long	.LASF558
	.long	0x373b
	.long	0x39e6
	.uleb128 0x5
	.long	.LASF559
	.long	0x5a95
	.uleb128 0x1
	.long	0x61d0
	.byte	0
	.uleb128 0xe
	.long	.LASF560
	.byte	0x2
	.value	0x20f
	.byte	0x5
	.long	.LASF561
	.long	0x59a5
	.long	0x3a27
	.uleb128 0x2d
	.long	.LASF527
	.long	0x4c4d
	.byte	0
	.uleb128 0xa
	.string	"_II"
	.long	0x59be
	.uleb128 0xa
	.string	"_OI"
	.long	0x59a5
	.uleb128 0x1
	.long	0x59be
	.uleb128 0x1
	.long	0x59be
	.uleb128 0x1
	.long	0x59a5
	.byte	0
	.uleb128 0xe
	.long	.LASF562
	.byte	0x12
	.value	0x232
	.byte	0x5
	.long	.LASF563
	.long	0x59be
	.long	0x3a4b
	.uleb128 0x5
	.long	.LASF547
	.long	0x59be
	.uleb128 0x1
	.long	0x59be
	.byte	0
	.uleb128 0xe
	.long	.LASF564
	.byte	0x2
	.value	0x477
	.byte	0x5
	.long	.LASF565
	.long	0x5a95
	.long	0x3a8b
	.uleb128 0xa
	.string	"_OI"
	.long	0x5a95
	.uleb128 0x5
	.long	.LASF149
	.long	0x59
	.uleb128 0xa
	.string	"_Tp"
	.long	0x113
	.uleb128 0x1
	.long	0x5a95
	.uleb128 0x1
	.long	0x59
	.uleb128 0x1
	.long	0x5821
	.byte	0
	.uleb128 0x37
	.long	.LASF566
	.byte	0xe
	.byte	0x6d
	.byte	0x5
	.long	.LASF567
	.long	0x3aaf
	.uleb128 0xa
	.string	"_Tp"
	.long	0x113
	.uleb128 0x63
	.long	.LASF981
	.uleb128 0x1
	.long	0x5a95
	.byte	0
	.uleb128 0x1e
	.long	.LASF568
	.byte	0x11
	.byte	0x31
	.byte	0x5
	.long	.LASF569
	.long	0x5a95
	.long	0x3ad2
	.uleb128 0xa
	.string	"_Tp"
	.long	0x113
	.uleb128 0x1
	.long	0x5aa9
	.byte	0
	.uleb128 0xe
	.long	.LASF570
	.byte	0x2
	.value	0x263
	.byte	0x5
	.long	.LASF571
	.long	0x59a5
	.long	0x3b09
	.uleb128 0xa
	.string	"_II"
	.long	0x59be
	.uleb128 0xa
	.string	"_OI"
	.long	0x59a5
	.uleb128 0x1
	.long	0x59be
	.uleb128 0x1
	.long	0x59be
	.uleb128 0x1
	.long	0x59a5
	.byte	0
	.uleb128 0x19
	.long	.LASF572
	.byte	0x1e
	.value	0x8c0
	.byte	0xb
	.long	0x3717
	.uleb128 0xe
	.long	.LASF573
	.byte	0x10
	.value	0x44c
	.byte	0x5
	.long	.LASF574
	.long	0x3b09
	.long	0x3b52
	.uleb128 0xa
	.string	"_Tp"
	.long	0x113
	.uleb128 0xa
	.string	"_Up"
	.long	0x113
	.uleb128 0x1
	.long	0x5a95
	.uleb128 0x1
	.long	0x5a95
	.uleb128 0x1
	.long	0x5a95
	.uleb128 0x1
	.long	0x5abd
	.byte	0
	.uleb128 0xe
	.long	.LASF575
	.byte	0x2
	.value	0x139
	.byte	0x5
	.long	.LASF576
	.long	0x5a95
	.long	0x3b76
	.uleb128 0x5
	.long	.LASF547
	.long	0x5a95
	.uleb128 0x1
	.long	0x5a95
	.byte	0
	.uleb128 0x1e
	.long	.LASF577
	.byte	0x2
	.byte	0xe6
	.byte	0x5
	.long	.LASF578
	.long	0x66d7
	.long	0x3b9e
	.uleb128 0xa
	.string	"_Tp"
	.long	0x59
	.uleb128 0x1
	.long	0x66d7
	.uleb128 0x1
	.long	0x66d7
	.byte	0
	.uleb128 0xe
	.long	.LASF579
	.byte	0x10
	.value	0x467
	.byte	0x5
	.long	.LASF580
	.long	0x5a95
	.long	0x3be3
	.uleb128 0x5
	.long	.LASF144
	.long	0x5a95
	.uleb128 0x5
	.long	.LASF128
	.long	0x5a95
	.uleb128 0x5
	.long	.LASF581
	.long	0x2550
	.uleb128 0x1
	.long	0x5a95
	.uleb128 0x1
	.long	0x5a95
	.uleb128 0x1
	.long	0x5a95
	.uleb128 0x1
	.long	0x5abd
	.byte	0
	.uleb128 0x1e
	.long	.LASF582
	.byte	0x2
	.byte	0xfe
	.byte	0x5
	.long	.LASF583
	.long	0x66d7
	.long	0x3c0b
	.uleb128 0xa
	.string	"_Tp"
	.long	0x59
	.uleb128 0x1
	.long	0x66d7
	.uleb128 0x1
	.long	0x66d7
	.byte	0
	.uleb128 0xe
	.long	.LASF584
	.byte	0x10
	.value	0x2b3
	.byte	0x5
	.long	.LASF585
	.long	0x5a95
	.long	0x3c3d
	.uleb128 0x5
	.long	.LASF128
	.long	0x5a95
	.uleb128 0x5
	.long	.LASF149
	.long	0x59
	.uleb128 0x1
	.long	0x5a95
	.uleb128 0x1
	.long	0x59
	.byte	0
	.uleb128 0x1e
	.long	.LASF586
	.byte	0x10
	.byte	0xa3
	.byte	0x5
	.long	.LASF587
	.long	0x59a5
	.long	0x3c73
	.uleb128 0x5
	.long	.LASF144
	.long	0x59be
	.uleb128 0x5
	.long	.LASF128
	.long	0x59a5
	.uleb128 0x1
	.long	0x59be
	.uleb128 0x1
	.long	0x59be
	.uleb128 0x1
	.long	0x59a5
	.byte	0
	.uleb128 0xe
	.long	.LASF588
	.byte	0x10
	.value	0x2fc
	.byte	0x5
	.long	.LASF589
	.long	0x5a95
	.long	0x3cb3
	.uleb128 0x5
	.long	.LASF128
	.long	0x5a95
	.uleb128 0x5
	.long	.LASF149
	.long	0x59
	.uleb128 0xa
	.string	"_Tp"
	.long	0x113
	.uleb128 0x1
	.long	0x5a95
	.uleb128 0x1
	.long	0x59
	.uleb128 0x1
	.long	0x5abd
	.byte	0
	.uleb128 0xe
	.long	.LASF590
	.byte	0x10
	.value	0x16d
	.byte	0x5
	.long	.LASF591
	.long	0x59a5
	.long	0x3cf8
	.uleb128 0x5
	.long	.LASF144
	.long	0x59be
	.uleb128 0x5
	.long	.LASF128
	.long	0x59a5
	.uleb128 0xa
	.string	"_Tp"
	.long	0x4461
	.uleb128 0x1
	.long	0x59be
	.uleb128 0x1
	.long	0x59be
	.uleb128 0x1
	.long	0x59a5
	.uleb128 0x1
	.long	0x59dc
	.byte	0
	.uleb128 0x1e
	.long	.LASF592
	.byte	0xb
	.byte	0x63
	.byte	0x5
	.long	.LASF593
	.long	0x36fe
	.long	0x3d25
	.uleb128 0x5
	.long	.LASF594
	.long	0x59be
	.uleb128 0x1
	.long	0x59be
	.uleb128 0x1
	.long	0x59be
	.uleb128 0x1
	.long	0xb9e
	.byte	0
	.uleb128 0x1e
	.long	.LASF595
	.byte	0xf
	.byte	0xee
	.byte	0x5
	.long	.LASF596
	.long	0x36f2
	.long	0x3d48
	.uleb128 0x5
	.long	.LASF559
	.long	0x59be
	.uleb128 0x1
	.long	0x6f2b
	.byte	0
	.uleb128 0x37
	.long	.LASF597
	.byte	0xe
	.byte	0xb6
	.byte	0x5
	.long	.LASF598
	.long	0x3d6c
	.uleb128 0x5
	.long	.LASF128
	.long	0x59a5
	.uleb128 0x1
	.long	0x59a5
	.uleb128 0x1
	.long	0x59a5
	.byte	0
	.uleb128 0x37
	.long	.LASF599
	.byte	0xe
	.byte	0xb6
	.byte	0x5
	.long	.LASF600
	.long	0x3d90
	.uleb128 0x5
	.long	.LASF128
	.long	0x5a95
	.uleb128 0x1
	.long	0x5a95
	.uleb128 0x1
	.long	0x5a95
	.byte	0
	.uleb128 0x1e
	.long	.LASF601
	.byte	0xb
	.byte	0x93
	.byte	0x5
	.long	.LASF602
	.long	0x36fe
	.long	0x3db8
	.uleb128 0x5
	.long	.LASF144
	.long	0x59be
	.uleb128 0x1
	.long	0x59be
	.uleb128 0x1
	.long	0x59be
	.byte	0
	.uleb128 0x36
	.long	.LASF603
	.byte	0x8
	.value	0x34f
	.byte	0x5
	.long	.LASF604
	.long	0x3deb
	.uleb128 0x5
	.long	.LASF128
	.long	0x59a5
	.uleb128 0xa
	.string	"_Tp"
	.long	0x4461
	.uleb128 0x1
	.long	0x59a5
	.uleb128 0x1
	.long	0x59a5
	.uleb128 0x1
	.long	0x59dc
	.byte	0
	.uleb128 0x36
	.long	.LASF605
	.byte	0x8
	.value	0x34f
	.byte	0x5
	.long	.LASF606
	.long	0x3e1e
	.uleb128 0x5
	.long	.LASF128
	.long	0x5a95
	.uleb128 0xa
	.string	"_Tp"
	.long	0x113
	.uleb128 0x1
	.long	0x5a95
	.uleb128 0x1
	.long	0x5a95
	.uleb128 0x1
	.long	0x5abd
	.byte	0
	.uleb128 0xe
	.long	.LASF607
	.byte	0x7
	.value	0xec5
	.byte	0x5
	.long	.LASF608
	.long	0x7d8d
	.long	0x3e55
	.uleb128 0x5
	.long	.LASF609
	.long	0x4854
	.uleb128 0x5
	.long	.LASF610
	.long	0x7d8d
	.uleb128 0x1
	.long	0x4854
	.uleb128 0x1
	.long	0x4854
	.uleb128 0x1
	.long	0x7d8d
	.byte	0
	.uleb128 0xe
	.long	.LASF611
	.byte	0x2c
	.value	0x20b
	.byte	0x5
	.long	.LASF612
	.long	0x5826
	.long	0x3e7e
	.uleb128 0x5
	.long	.LASF369
	.long	0x873
	.uleb128 0x1
	.long	0x5826
	.uleb128 0x1
	.long	0x107
	.byte	0
	.uleb128 0x64
	.long	.LASF613
	.byte	0x2
	.value	0x3f1
	.byte	0x3
	.long	.LASF614
	.long	0x59
	.uleb128 0x1
	.long	0x59
	.byte	0
	.byte	0
	.uleb128 0xb
	.long	.LASF615
	.byte	0x2d
	.value	0x11d
	.byte	0xf
	.long	0xa3
	.long	0x3ead
	.uleb128 0x1
	.long	0x113
	.byte	0
	.uleb128 0xb
	.long	.LASF616
	.byte	0x2d
	.value	0x2e8
	.byte	0xf
	.long	0xa3
	.long	0x3ec4
	.uleb128 0x1
	.long	0x3ec4
	.byte	0
	.uleb128 0x9
	.long	0x13c
	.uleb128 0xb
	.long	.LASF617
	.byte	0x2d
	.value	0x305
	.byte	0x11
	.long	0x3eea
	.long	0x3eea
	.uleb128 0x1
	.long	0x3eea
	.uleb128 0x1
	.long	0x113
	.uleb128 0x1
	.long	0x3ec4
	.byte	0
	.uleb128 0x9
	.long	0x3eef
	.uleb128 0x20
	.byte	0x4
	.byte	0x5
	.long	.LASF618
	.uleb128 0x6
	.long	0x3eef
	.uleb128 0xb
	.long	.LASF619
	.byte	0x2d
	.value	0x2f6
	.byte	0xf
	.long	0xa3
	.long	0x3f17
	.uleb128 0x1
	.long	0x3eef
	.uleb128 0x1
	.long	0x3ec4
	.byte	0
	.uleb128 0xb
	.long	.LASF620
	.byte	0x2d
	.value	0x30c
	.byte	0xc
	.long	0x113
	.long	0x3f33
	.uleb128 0x1
	.long	0x3f33
	.uleb128 0x1
	.long	0x3ec4
	.byte	0
	.uleb128 0x9
	.long	0x3ef6
	.uleb128 0xb
	.long	.LASF621
	.byte	0x2d
	.value	0x24c
	.byte	0xc
	.long	0x113
	.long	0x3f54
	.uleb128 0x1
	.long	0x3ec4
	.uleb128 0x1
	.long	0x113
	.byte	0
	.uleb128 0xb
	.long	.LASF622
	.byte	0x2d
	.value	0x253
	.byte	0xc
	.long	0x113
	.long	0x3f71
	.uleb128 0x1
	.long	0x3ec4
	.uleb128 0x1
	.long	0x3f33
	.uleb128 0x39
	.byte	0
	.uleb128 0xe
	.long	.LASF623
	.byte	0x2d
	.value	0x291
	.byte	0xc
	.long	.LASF624
	.long	0x113
	.long	0x3f92
	.uleb128 0x1
	.long	0x3ec4
	.uleb128 0x1
	.long	0x3f33
	.uleb128 0x39
	.byte	0
	.uleb128 0xb
	.long	.LASF625
	.byte	0x2d
	.value	0x2e9
	.byte	0xf
	.long	0xa3
	.long	0x3fa9
	.uleb128 0x1
	.long	0x3ec4
	.byte	0
	.uleb128 0x4c
	.long	.LASF834
	.byte	0x2d
	.value	0x2ef
	.byte	0xf
	.long	0xa3
	.uleb128 0xb
	.long	.LASF626
	.byte	0x2d
	.value	0x134
	.byte	0xf
	.long	0x4d
	.long	0x3fd7
	.uleb128 0x1
	.long	0x2e7
	.uleb128 0x1
	.long	0x4d
	.uleb128 0x1
	.long	0x3fd7
	.byte	0
	.uleb128 0x9
	.long	0x12b
	.uleb128 0xb
	.long	.LASF627
	.byte	0x2d
	.value	0x129
	.byte	0xf
	.long	0x4d
	.long	0x4002
	.uleb128 0x1
	.long	0x3eea
	.uleb128 0x1
	.long	0x2e7
	.uleb128 0x1
	.long	0x4d
	.uleb128 0x1
	.long	0x3fd7
	.byte	0
	.uleb128 0xb
	.long	.LASF628
	.byte	0x2d
	.value	0x125
	.byte	0xc
	.long	0x113
	.long	0x4019
	.uleb128 0x1
	.long	0x4019
	.byte	0
	.uleb128 0x9
	.long	0x137
	.uleb128 0xb
	.long	.LASF629
	.byte	0x2d
	.value	0x152
	.byte	0xf
	.long	0x4d
	.long	0x4044
	.uleb128 0x1
	.long	0x3eea
	.uleb128 0x1
	.long	0x4044
	.uleb128 0x1
	.long	0x4d
	.uleb128 0x1
	.long	0x3fd7
	.byte	0
	.uleb128 0x9
	.long	0x2e7
	.uleb128 0xb
	.long	.LASF630
	.byte	0x2d
	.value	0x2f7
	.byte	0xf
	.long	0xa3
	.long	0x4065
	.uleb128 0x1
	.long	0x3eef
	.uleb128 0x1
	.long	0x3ec4
	.byte	0
	.uleb128 0xb
	.long	.LASF631
	.byte	0x2d
	.value	0x2fd
	.byte	0xf
	.long	0xa3
	.long	0x407c
	.uleb128 0x1
	.long	0x3eef
	.byte	0
	.uleb128 0xb
	.long	.LASF632
	.byte	0x2d
	.value	0x25d
	.byte	0xc
	.long	0x113
	.long	0x409e
	.uleb128 0x1
	.long	0x3eea
	.uleb128 0x1
	.long	0x4d
	.uleb128 0x1
	.long	0x3f33
	.uleb128 0x39
	.byte	0
	.uleb128 0xe
	.long	.LASF633
	.byte	0x2d
	.value	0x298
	.byte	0xc
	.long	.LASF634
	.long	0x113
	.long	0x40bf
	.uleb128 0x1
	.long	0x3f33
	.uleb128 0x1
	.long	0x3f33
	.uleb128 0x39
	.byte	0
	.uleb128 0xb
	.long	.LASF635
	.byte	0x2d
	.value	0x314
	.byte	0xf
	.long	0xa3
	.long	0x40db
	.uleb128 0x1
	.long	0xa3
	.uleb128 0x1
	.long	0x3ec4
	.byte	0
	.uleb128 0xb
	.long	.LASF636
	.byte	0x2d
	.value	0x265
	.byte	0xc
	.long	0x113
	.long	0x40fc
	.uleb128 0x1
	.long	0x3ec4
	.uleb128 0x1
	.long	0x3f33
	.uleb128 0x1
	.long	0x40fc
	.byte	0
	.uleb128 0x9
	.long	0x65
	.uleb128 0xe
	.long	.LASF637
	.byte	0x2d
	.value	0x2c7
	.byte	0xc
	.long	.LASF638
	.long	0x113
	.long	0x4126
	.uleb128 0x1
	.long	0x3ec4
	.uleb128 0x1
	.long	0x3f33
	.uleb128 0x1
	.long	0x40fc
	.byte	0
	.uleb128 0xb
	.long	.LASF639
	.byte	0x2d
	.value	0x272
	.byte	0xc
	.long	0x113
	.long	0x414c
	.uleb128 0x1
	.long	0x3eea
	.uleb128 0x1
	.long	0x4d
	.uleb128 0x1
	.long	0x3f33
	.uleb128 0x1
	.long	0x40fc
	.byte	0
	.uleb128 0xe
	.long	.LASF640
	.byte	0x2d
	.value	0x2ce
	.byte	0xc
	.long	.LASF641
	.long	0x113
	.long	0x4171
	.uleb128 0x1
	.long	0x3f33
	.uleb128 0x1
	.long	0x3f33
	.uleb128 0x1
	.long	0x40fc
	.byte	0
	.uleb128 0xb
	.long	.LASF642
	.byte	0x2d
	.value	0x26d
	.byte	0xc
	.long	0x113
	.long	0x418d
	.uleb128 0x1
	.long	0x3f33
	.uleb128 0x1
	.long	0x40fc
	.byte	0
	.uleb128 0xe
	.long	.LASF643
	.byte	0x2d
	.value	0x2cb
	.byte	0xc
	.long	.LASF644
	.long	0x113
	.long	0x41ad
	.uleb128 0x1
	.long	0x3f33
	.uleb128 0x1
	.long	0x40fc
	.byte	0
	.uleb128 0xb
	.long	.LASF645
	.byte	0x2d
	.value	0x12e
	.byte	0xf
	.long	0x4d
	.long	0x41ce
	.uleb128 0x1
	.long	0x41ce
	.uleb128 0x1
	.long	0x3eef
	.uleb128 0x1
	.long	0x3fd7
	.byte	0
	.uleb128 0x9
	.long	0x107
	.uleb128 0x15
	.long	.LASF646
	.byte	0x2d
	.byte	0x61
	.byte	0x11
	.long	0x3eea
	.long	0x41ee
	.uleb128 0x1
	.long	0x3eea
	.uleb128 0x1
	.long	0x3f33
	.byte	0
	.uleb128 0x15
	.long	.LASF647
	.byte	0x2d
	.byte	0x6a
	.byte	0xc
	.long	0x113
	.long	0x4209
	.uleb128 0x1
	.long	0x3f33
	.uleb128 0x1
	.long	0x3f33
	.byte	0
	.uleb128 0x15
	.long	.LASF648
	.byte	0x2d
	.byte	0x83
	.byte	0xc
	.long	0x113
	.long	0x4224
	.uleb128 0x1
	.long	0x3f33
	.uleb128 0x1
	.long	0x3f33
	.byte	0
	.uleb128 0x15
	.long	.LASF649
	.byte	0x2d
	.byte	0x57
	.byte	0x11
	.long	0x3eea
	.long	0x423f
	.uleb128 0x1
	.long	0x3eea
	.uleb128 0x1
	.long	0x3f33
	.byte	0
	.uleb128 0x15
	.long	.LASF650
	.byte	0x2d
	.byte	0xbc
	.byte	0xf
	.long	0x4d
	.long	0x425a
	.uleb128 0x1
	.long	0x3f33
	.uleb128 0x1
	.long	0x3f33
	.byte	0
	.uleb128 0xb
	.long	.LASF651
	.byte	0x2d
	.value	0x354
	.byte	0xf
	.long	0x4d
	.long	0x4280
	.uleb128 0x1
	.long	0x3eea
	.uleb128 0x1
	.long	0x4d
	.uleb128 0x1
	.long	0x3f33
	.uleb128 0x1
	.long	0x4280
	.byte	0
	.uleb128 0x9
	.long	0x4322
	.uleb128 0x86
	.string	"tm"
	.byte	0x38
	.byte	0x2e
	.byte	0x7
	.byte	0x8
	.long	0x4322
	.uleb128 0x7
	.long	.LASF652
	.byte	0x2e
	.byte	0x9
	.byte	0x7
	.long	0x113
	.byte	0
	.uleb128 0x7
	.long	.LASF653
	.byte	0x2e
	.byte	0xa
	.byte	0x7
	.long	0x113
	.byte	0x4
	.uleb128 0x7
	.long	.LASF654
	.byte	0x2e
	.byte	0xb
	.byte	0x7
	.long	0x113
	.byte	0x8
	.uleb128 0x7
	.long	.LASF655
	.byte	0x2e
	.byte	0xc
	.byte	0x7
	.long	0x113
	.byte	0xc
	.uleb128 0x7
	.long	.LASF656
	.byte	0x2e
	.byte	0xd
	.byte	0x7
	.long	0x113
	.byte	0x10
	.uleb128 0x7
	.long	.LASF657
	.byte	0x2e
	.byte	0xe
	.byte	0x7
	.long	0x113
	.byte	0x14
	.uleb128 0x7
	.long	.LASF658
	.byte	0x2e
	.byte	0xf
	.byte	0x7
	.long	0x113
	.byte	0x18
	.uleb128 0x7
	.long	.LASF659
	.byte	0x2e
	.byte	0x10
	.byte	0x7
	.long	0x113
	.byte	0x1c
	.uleb128 0x7
	.long	.LASF660
	.byte	0x2e
	.byte	0x11
	.byte	0x7
	.long	0x113
	.byte	0x20
	.uleb128 0x7
	.long	.LASF661
	.byte	0x2e
	.byte	0x14
	.byte	0xc
	.long	0x4461
	.byte	0x28
	.uleb128 0x7
	.long	.LASF662
	.byte	0x2e
	.byte	0x15
	.byte	0xf
	.long	0x2e7
	.byte	0x30
	.byte	0
	.uleb128 0x6
	.long	0x4285
	.uleb128 0x15
	.long	.LASF663
	.byte	0x2d
	.byte	0xdf
	.byte	0xf
	.long	0x4d
	.long	0x433d
	.uleb128 0x1
	.long	0x3f33
	.byte	0
	.uleb128 0x15
	.long	.LASF664
	.byte	0x2d
	.byte	0x65
	.byte	0x11
	.long	0x3eea
	.long	0x435d
	.uleb128 0x1
	.long	0x3eea
	.uleb128 0x1
	.long	0x3f33
	.uleb128 0x1
	.long	0x4d
	.byte	0
	.uleb128 0x15
	.long	.LASF665
	.byte	0x2d
	.byte	0x6d
	.byte	0xc
	.long	0x113
	.long	0x437d
	.uleb128 0x1
	.long	0x3f33
	.uleb128 0x1
	.long	0x3f33
	.uleb128 0x1
	.long	0x4d
	.byte	0
	.uleb128 0x15
	.long	.LASF666
	.byte	0x2d
	.byte	0x5c
	.byte	0x11
	.long	0x3eea
	.long	0x439d
	.uleb128 0x1
	.long	0x3eea
	.uleb128 0x1
	.long	0x3f33
	.uleb128 0x1
	.long	0x4d
	.byte	0
	.uleb128 0xb
	.long	.LASF667
	.byte	0x2d
	.value	0x158
	.byte	0xf
	.long	0x4d
	.long	0x43c3
	.uleb128 0x1
	.long	0x41ce
	.uleb128 0x1
	.long	0x43c3
	.uleb128 0x1
	.long	0x4d
	.uleb128 0x1
	.long	0x3fd7
	.byte	0
	.uleb128 0x9
	.long	0x3f33
	.uleb128 0x15
	.long	.LASF668
	.byte	0x2d
	.byte	0xc0
	.byte	0xf
	.long	0x4d
	.long	0x43e3
	.uleb128 0x1
	.long	0x3f33
	.uleb128 0x1
	.long	0x3f33
	.byte	0
	.uleb128 0xb
	.long	.LASF669
	.byte	0x2d
	.value	0x17a
	.byte	0xf
	.long	0x3f
	.long	0x43ff
	.uleb128 0x1
	.long	0x3f33
	.uleb128 0x1
	.long	0x43ff
	.byte	0
	.uleb128 0x9
	.long	0x3eea
	.uleb128 0xb
	.long	.LASF670
	.byte	0x2d
	.value	0x17f
	.byte	0xe
	.long	0x38
	.long	0x4420
	.uleb128 0x1
	.long	0x3f33
	.uleb128 0x1
	.long	0x43ff
	.byte	0
	.uleb128 0x15
	.long	.LASF671
	.byte	0x2d
	.byte	0xda
	.byte	0x11
	.long	0x3eea
	.long	0x4440
	.uleb128 0x1
	.long	0x3eea
	.uleb128 0x1
	.long	0x3f33
	.uleb128 0x1
	.long	0x43ff
	.byte	0
	.uleb128 0xb
	.long	.LASF672
	.byte	0x2d
	.value	0x1ad
	.byte	0x11
	.long	0x4461
	.long	0x4461
	.uleb128 0x1
	.long	0x3f33
	.uleb128 0x1
	.long	0x43ff
	.uleb128 0x1
	.long	0x113
	.byte	0
	.uleb128 0x20
	.byte	0x8
	.byte	0x5
	.long	.LASF673
	.uleb128 0x6
	.long	0x4461
	.uleb128 0xb
	.long	.LASF674
	.byte	0x2d
	.value	0x1b2
	.byte	0x1a
	.long	0x59
	.long	0x448e
	.uleb128 0x1
	.long	0x3f33
	.uleb128 0x1
	.long	0x43ff
	.uleb128 0x1
	.long	0x113
	.byte	0
	.uleb128 0x15
	.long	.LASF675
	.byte	0x2d
	.byte	0x87
	.byte	0xf
	.long	0x4d
	.long	0x44ae
	.uleb128 0x1
	.long	0x3eea
	.uleb128 0x1
	.long	0x3f33
	.uleb128 0x1
	.long	0x4d
	.byte	0
	.uleb128 0xb
	.long	.LASF676
	.byte	0x2d
	.value	0x121
	.byte	0xc
	.long	0x113
	.long	0x44c5
	.uleb128 0x1
	.long	0xa3
	.byte	0
	.uleb128 0xb
	.long	.LASF677
	.byte	0x2d
	.value	0x103
	.byte	0xc
	.long	0x113
	.long	0x44e6
	.uleb128 0x1
	.long	0x3f33
	.uleb128 0x1
	.long	0x3f33
	.uleb128 0x1
	.long	0x4d
	.byte	0
	.uleb128 0xb
	.long	.LASF678
	.byte	0x2d
	.value	0x107
	.byte	0x11
	.long	0x3eea
	.long	0x4507
	.uleb128 0x1
	.long	0x3eea
	.uleb128 0x1
	.long	0x3f33
	.uleb128 0x1
	.long	0x4d
	.byte	0
	.uleb128 0xb
	.long	.LASF679
	.byte	0x2d
	.value	0x10c
	.byte	0x11
	.long	0x3eea
	.long	0x4528
	.uleb128 0x1
	.long	0x3eea
	.uleb128 0x1
	.long	0x3f33
	.uleb128 0x1
	.long	0x4d
	.byte	0
	.uleb128 0xb
	.long	.LASF680
	.byte	0x2d
	.value	0x110
	.byte	0x11
	.long	0x3eea
	.long	0x4549
	.uleb128 0x1
	.long	0x3eea
	.uleb128 0x1
	.long	0x3eef
	.uleb128 0x1
	.long	0x4d
	.byte	0
	.uleb128 0xb
	.long	.LASF681
	.byte	0x2d
	.value	0x25a
	.byte	0xc
	.long	0x113
	.long	0x4561
	.uleb128 0x1
	.long	0x3f33
	.uleb128 0x39
	.byte	0
	.uleb128 0xe
	.long	.LASF682
	.byte	0x2d
	.value	0x295
	.byte	0xc
	.long	.LASF683
	.long	0x113
	.long	0x457d
	.uleb128 0x1
	.long	0x3f33
	.uleb128 0x39
	.byte	0
	.uleb128 0x1e
	.long	.LASF684
	.byte	0x2d
	.byte	0xa2
	.byte	0x1d
	.long	.LASF684
	.long	0x3f33
	.long	0x459c
	.uleb128 0x1
	.long	0x3f33
	.uleb128 0x1
	.long	0x3eef
	.byte	0
	.uleb128 0x1e
	.long	.LASF684
	.byte	0x2d
	.byte	0xa0
	.byte	0x17
	.long	.LASF684
	.long	0x3eea
	.long	0x45bb
	.uleb128 0x1
	.long	0x3eea
	.uleb128 0x1
	.long	0x3eef
	.byte	0
	.uleb128 0x1e
	.long	.LASF685
	.byte	0x2d
	.byte	0xc6
	.byte	0x1d
	.long	.LASF685
	.long	0x3f33
	.long	0x45da
	.uleb128 0x1
	.long	0x3f33
	.uleb128 0x1
	.long	0x3f33
	.byte	0
	.uleb128 0x1e
	.long	.LASF685
	.byte	0x2d
	.byte	0xc4
	.byte	0x17
	.long	.LASF685
	.long	0x3eea
	.long	0x45f9
	.uleb128 0x1
	.long	0x3eea
	.uleb128 0x1
	.long	0x3f33
	.byte	0
	.uleb128 0x1e
	.long	.LASF686
	.byte	0x2d
	.byte	0xac
	.byte	0x1d
	.long	.LASF686
	.long	0x3f33
	.long	0x4618
	.uleb128 0x1
	.long	0x3f33
	.uleb128 0x1
	.long	0x3eef
	.byte	0
	.uleb128 0x1e
	.long	.LASF686
	.byte	0x2d
	.byte	0xaa
	.byte	0x17
	.long	.LASF686
	.long	0x3eea
	.long	0x4637
	.uleb128 0x1
	.long	0x3eea
	.uleb128 0x1
	.long	0x3eef
	.byte	0
	.uleb128 0x1e
	.long	.LASF687
	.byte	0x2d
	.byte	0xd1
	.byte	0x1d
	.long	.LASF687
	.long	0x3f33
	.long	0x4656
	.uleb128 0x1
	.long	0x3f33
	.uleb128 0x1
	.long	0x3f33
	.byte	0
	.uleb128 0x1e
	.long	.LASF687
	.byte	0x2d
	.byte	0xcf
	.byte	0x17
	.long	.LASF687
	.long	0x3eea
	.long	0x4675
	.uleb128 0x1
	.long	0x3eea
	.uleb128 0x1
	.long	0x3f33
	.byte	0
	.uleb128 0x1e
	.long	.LASF688
	.byte	0x2d
	.byte	0xfa
	.byte	0x1d
	.long	.LASF688
	.long	0x3f33
	.long	0x4699
	.uleb128 0x1
	.long	0x3f33
	.uleb128 0x1
	.long	0x3eef
	.uleb128 0x1
	.long	0x4d
	.byte	0
	.uleb128 0x1e
	.long	.LASF688
	.byte	0x2d
	.byte	0xf8
	.byte	0x17
	.long	.LASF688
	.long	0x3eea
	.long	0x46bd
	.uleb128 0x1
	.long	0x3eea
	.uleb128 0x1
	.long	0x3eef
	.uleb128 0x1
	.long	0x4d
	.byte	0
	.uleb128 0x87
	.long	.LASF689
	.byte	0x1d
	.value	0x14d
	.byte	0xb
	.long	0x4bdb
	.uleb128 0x3
	.byte	0x1c
	.byte	0xfb
	.byte	0xb
	.long	0x4bdb
	.uleb128 0x18
	.byte	0x1c
	.value	0x104
	.byte	0xb
	.long	0x4bf7
	.uleb128 0x18
	.byte	0x1c
	.value	0x105
	.byte	0xb
	.long	0x4c1f
	.uleb128 0x59
	.long	.LASF690
	.byte	0x2f
	.byte	0x25
	.byte	0xb
	.uleb128 0x3
	.byte	0x24
	.byte	0xc8
	.byte	0xb
	.long	0x513b
	.uleb128 0x3
	.byte	0x24
	.byte	0xd8
	.byte	0xb
	.long	0x53d6
	.uleb128 0x3
	.byte	0x24
	.byte	0xe3
	.byte	0xb
	.long	0x53f2
	.uleb128 0x3
	.byte	0x24
	.byte	0xe4
	.byte	0xb
	.long	0x5408
	.uleb128 0x3
	.byte	0x24
	.byte	0xe5
	.byte	0xb
	.long	0x5428
	.uleb128 0x3
	.byte	0x24
	.byte	0xe7
	.byte	0xb
	.long	0x5448
	.uleb128 0x3
	.byte	0x24
	.byte	0xe8
	.byte	0xb
	.long	0x5463
	.uleb128 0x88
	.string	"div"
	.byte	0x24
	.byte	0xd5
	.byte	0x3
	.long	.LASF1058
	.long	0x513b
	.long	0x4745
	.uleb128 0x1
	.long	0x4c18
	.uleb128 0x1
	.long	0x4c18
	.byte	0
	.uleb128 0x17
	.long	.LASF691
	.byte	0x1
	.byte	0x30
	.byte	0x30
	.byte	0xa
	.long	0x4854
	.uleb128 0x3
	.byte	0x30
	.byte	0x30
	.byte	0xa
	.long	0x122b
	.uleb128 0x3
	.byte	0x30
	.byte	0x30
	.byte	0xa
	.long	0x11ec
	.uleb128 0x3
	.byte	0x30
	.byte	0x30
	.byte	0xa
	.long	0x125d
	.uleb128 0x3
	.byte	0x30
	.byte	0x30
	.byte	0xa
	.long	0x127e
	.uleb128 0x30
	.long	0x11d3
	.uleb128 0x1e
	.long	.LASF692
	.byte	0x30
	.byte	0x61
	.byte	0x1d
	.long	.LASF693
	.long	0x1147
	.long	0x4791
	.uleb128 0x1
	.long	0x59d7
	.byte	0
	.uleb128 0x37
	.long	.LASF694
	.byte	0x30
	.byte	0x64
	.byte	0x26
	.long	.LASF695
	.long	0x47ac
	.uleb128 0x1
	.long	0x59dc
	.uleb128 0x1
	.long	0x59dc
	.byte	0
	.uleb128 0x2e
	.long	.LASF696
	.byte	0x67
	.long	.LASF697
	.long	0x4c4d
	.uleb128 0x2e
	.long	.LASF698
	.byte	0x6a
	.long	.LASF699
	.long	0x4c4d
	.uleb128 0x2e
	.long	.LASF700
	.byte	0x6d
	.long	.LASF701
	.long	0x4c4d
	.uleb128 0x2e
	.long	.LASF702
	.byte	0x70
	.long	.LASF703
	.long	0x4c4d
	.uleb128 0x2e
	.long	.LASF704
	.byte	0x73
	.long	.LASF705
	.long	0x4c4d
	.uleb128 0x4
	.long	.LASF56
	.byte	0x30
	.byte	0x38
	.byte	0x35
	.long	0x12b4
	.uleb128 0x6
	.long	0x47f2
	.uleb128 0x4
	.long	.LASF159
	.byte	0x30
	.byte	0x39
	.byte	0x35
	.long	0x11df
	.uleb128 0x4
	.long	.LASF160
	.byte	0x30
	.byte	0x3e
	.byte	0x35
	.long	0x59eb
	.uleb128 0x4
	.long	.LASF163
	.byte	0x30
	.byte	0x3f
	.byte	0x35
	.long	0x59f0
	.uleb128 0x17
	.long	.LASF706
	.byte	0x1
	.byte	0x30
	.byte	0x77
	.byte	0xe
	.long	0x484a
	.uleb128 0x4
	.long	.LASF707
	.byte	0x30
	.byte	0x78
	.byte	0x41
	.long	0x12c1
	.uleb128 0xa
	.string	"_Tp"
	.long	0x4461
	.byte	0
	.uleb128 0x5
	.long	.LASF235
	.long	0x1147
	.byte	0
	.uleb128 0x4b
	.long	.LASF708
	.byte	0x8
	.byte	0xc
	.value	0x413
	.long	0x4a89
	.uleb128 0x89
	.long	.LASF949
	.byte	0xc
	.value	0x416
	.byte	0x11
	.long	0x59a5
	.byte	0
	.byte	0x2
	.uleb128 0xf
	.long	.LASF709
	.byte	0xc
	.value	0x42c
	.byte	0x1a
	.long	.LASF710
	.byte	0x1
	.long	0x4887
	.long	0x488d
	.uleb128 0x2
	.long	0x5d2d
	.byte	0
	.uleb128 0x3d
	.long	.LASF709
	.byte	0xc
	.value	0x430
	.long	.LASF711
	.long	0x48a1
	.long	0x48ac
	.uleb128 0x2
	.long	0x5d2d
	.uleb128 0x1
	.long	0x5d37
	.byte	0
	.uleb128 0x1c
	.long	.LASF160
	.byte	0xc
	.value	0x425
	.byte	0x32
	.long	0x36d8
	.uleb128 0x8
	.long	.LASF712
	.byte	0xc
	.value	0x447
	.byte	0x7
	.long	.LASF713
	.long	0x48ac
	.byte	0x1
	.long	0x48d3
	.long	0x48d9
	.uleb128 0x2
	.long	0x5d3c
	.byte	0
	.uleb128 0x1c
	.long	.LASF159
	.byte	0xc
	.value	0x426
	.byte	0x32
	.long	0x36cc
	.uleb128 0x8
	.long	.LASF714
	.byte	0xc
	.value	0x44c
	.byte	0x7
	.long	.LASF715
	.long	0x48d9
	.byte	0x1
	.long	0x4900
	.long	0x4906
	.uleb128 0x2
	.long	0x5d3c
	.byte	0
	.uleb128 0x8
	.long	.LASF716
	.byte	0xc
	.value	0x451
	.byte	0x7
	.long	.LASF717
	.long	0x5d46
	.byte	0x1
	.long	0x4920
	.long	0x4926
	.uleb128 0x2
	.long	0x5d2d
	.byte	0
	.uleb128 0x8
	.long	.LASF716
	.byte	0xc
	.value	0x459
	.byte	0x7
	.long	.LASF718
	.long	0x4854
	.byte	0x1
	.long	0x4940
	.long	0x494b
	.uleb128 0x2
	.long	0x5d2d
	.uleb128 0x1
	.long	0x113
	.byte	0
	.uleb128 0x8
	.long	.LASF719
	.byte	0xc
	.value	0x45f
	.byte	0x7
	.long	.LASF720
	.long	0x5d46
	.byte	0x1
	.long	0x4965
	.long	0x496b
	.uleb128 0x2
	.long	0x5d2d
	.byte	0
	.uleb128 0x8
	.long	.LASF719
	.byte	0xc
	.value	0x467
	.byte	0x7
	.long	.LASF721
	.long	0x4854
	.byte	0x1
	.long	0x4985
	.long	0x4990
	.uleb128 0x2
	.long	0x5d2d
	.uleb128 0x1
	.long	0x113
	.byte	0
	.uleb128 0x8
	.long	.LASF305
	.byte	0xc
	.value	0x46d
	.byte	0x7
	.long	.LASF722
	.long	0x48ac
	.byte	0x1
	.long	0x49aa
	.long	0x49b5
	.uleb128 0x2
	.long	0x5d3c
	.uleb128 0x1
	.long	0x49b5
	.byte	0
	.uleb128 0x1c
	.long	.LASF519
	.byte	0xc
	.value	0x424
	.byte	0x38
	.long	0x36c0
	.uleb128 0x8
	.long	.LASF723
	.byte	0xc
	.value	0x472
	.byte	0x7
	.long	.LASF724
	.long	0x5d46
	.byte	0x1
	.long	0x49dc
	.long	0x49e7
	.uleb128 0x2
	.long	0x5d2d
	.uleb128 0x1
	.long	0x49b5
	.byte	0
	.uleb128 0x8
	.long	.LASF725
	.byte	0xc
	.value	0x477
	.byte	0x7
	.long	.LASF726
	.long	0x4854
	.byte	0x1
	.long	0x4a01
	.long	0x4a0c
	.uleb128 0x2
	.long	0x5d3c
	.uleb128 0x1
	.long	0x49b5
	.byte	0
	.uleb128 0x8
	.long	.LASF727
	.byte	0xc
	.value	0x47c
	.byte	0x7
	.long	.LASF728
	.long	0x5d46
	.byte	0x1
	.long	0x4a26
	.long	0x4a31
	.uleb128 0x2
	.long	0x5d2d
	.uleb128 0x1
	.long	0x49b5
	.byte	0
	.uleb128 0x8
	.long	.LASF729
	.byte	0xc
	.value	0x481
	.byte	0x7
	.long	.LASF730
	.long	0x4854
	.byte	0x1
	.long	0x4a4b
	.long	0x4a56
	.uleb128 0x2
	.long	0x5d3c
	.uleb128 0x1
	.long	0x49b5
	.byte	0
	.uleb128 0x8
	.long	.LASF731
	.byte	0xc
	.value	0x486
	.byte	0x7
	.long	.LASF732
	.long	0x5d37
	.byte	0x1
	.long	0x4a70
	.long	0x4a76
	.uleb128 0x2
	.long	0x5d3c
	.byte	0
	.uleb128 0x5
	.long	.LASF547
	.long	0x59a5
	.uleb128 0x5
	.long	.LASF733
	.long	0x169a
	.byte	0
	.uleb128 0x6
	.long	0x4854
	.uleb128 0x2f
	.long	.LASF734
	.uleb128 0x17
	.long	.LASF735
	.byte	0x1
	.byte	0x30
	.byte	0x30
	.byte	0xa
	.long	0x4ba2
	.uleb128 0x3
	.byte	0x30
	.byte	0x30
	.byte	0xa
	.long	0x2634
	.uleb128 0x3
	.byte	0x30
	.byte	0x30
	.byte	0xa
	.long	0x25f5
	.uleb128 0x3
	.byte	0x30
	.byte	0x30
	.byte	0xa
	.long	0x2666
	.uleb128 0x3
	.byte	0x30
	.byte	0x30
	.byte	0xa
	.long	0x2687
	.uleb128 0x30
	.long	0x25dc
	.uleb128 0x1e
	.long	.LASF692
	.byte	0x30
	.byte	0x61
	.byte	0x1d
	.long	.LASF736
	.long	0x2550
	.long	0x4adf
	.uleb128 0x1
	.long	0x5ab8
	.byte	0
	.uleb128 0x37
	.long	.LASF694
	.byte	0x30
	.byte	0x64
	.byte	0x26
	.long	.LASF737
	.long	0x4afa
	.uleb128 0x1
	.long	0x5abd
	.uleb128 0x1
	.long	0x5abd
	.byte	0
	.uleb128 0x2e
	.long	.LASF696
	.byte	0x67
	.long	.LASF738
	.long	0x4c4d
	.uleb128 0x2e
	.long	.LASF698
	.byte	0x6a
	.long	.LASF739
	.long	0x4c4d
	.uleb128 0x2e
	.long	.LASF700
	.byte	0x6d
	.long	.LASF740
	.long	0x4c4d
	.uleb128 0x2e
	.long	.LASF702
	.byte	0x70
	.long	.LASF741
	.long	0x4c4d
	.uleb128 0x2e
	.long	.LASF704
	.byte	0x73
	.long	.LASF742
	.long	0x4c4d
	.uleb128 0x4
	.long	.LASF56
	.byte	0x30
	.byte	0x38
	.byte	0x35
	.long	0x26bd
	.uleb128 0x6
	.long	0x4b40
	.uleb128 0x4
	.long	.LASF159
	.byte	0x30
	.byte	0x39
	.byte	0x35
	.long	0x25e8
	.uleb128 0x4
	.long	.LASF160
	.byte	0x30
	.byte	0x3e
	.byte	0x35
	.long	0x5acc
	.uleb128 0x4
	.long	.LASF163
	.byte	0x30
	.byte	0x3f
	.byte	0x35
	.long	0x5ad1
	.uleb128 0x17
	.long	.LASF743
	.byte	0x1
	.byte	0x30
	.byte	0x77
	.byte	0xe
	.long	0x4b98
	.uleb128 0x4
	.long	.LASF707
	.byte	0x30
	.byte	0x78
	.byte	0x41
	.long	0x26ca
	.uleb128 0xa
	.string	"_Tp"
	.long	0x113
	.byte	0
	.uleb128 0x5
	.long	.LASF235
	.long	0x2550
	.byte	0
	.uleb128 0x2f
	.long	.LASF744
	.uleb128 0x2f
	.long	.LASF745
	.uleb128 0x64
	.long	.LASF746
	.byte	0xc
	.value	0x4d5
	.byte	0x5
	.long	.LASF747
	.long	0x4c4d
	.uleb128 0x5
	.long	.LASF547
	.long	0x59a5
	.uleb128 0x5
	.long	.LASF733
	.long	0x169a
	.uleb128 0x1
	.long	0x72ac
	.uleb128 0x1
	.long	0x72ac
	.byte	0
	.byte	0
	.uleb128 0xb
	.long	.LASF748
	.byte	0x2d
	.value	0x181
	.byte	0x14
	.long	0x46
	.long	0x4bf7
	.uleb128 0x1
	.long	0x3f33
	.uleb128 0x1
	.long	0x43ff
	.byte	0
	.uleb128 0xb
	.long	.LASF749
	.byte	0x2d
	.value	0x1ba
	.byte	0x16
	.long	0x4c18
	.long	0x4c18
	.uleb128 0x1
	.long	0x3f33
	.uleb128 0x1
	.long	0x43ff
	.uleb128 0x1
	.long	0x113
	.byte	0
	.uleb128 0x20
	.byte	0x8
	.byte	0x5
	.long	.LASF750
	.uleb128 0xb
	.long	.LASF751
	.byte	0x2d
	.value	0x1c1
	.byte	0x1f
	.long	0x4c40
	.long	0x4c40
	.uleb128 0x1
	.long	0x3f33
	.uleb128 0x1
	.long	0x43ff
	.uleb128 0x1
	.long	0x113
	.byte	0
	.uleb128 0x20
	.byte	0x8
	.byte	0x7
	.long	.LASF752
	.uleb128 0x8a
	.long	.LASF1059
	.uleb128 0x20
	.byte	0x1
	.byte	0x2
	.long	.LASF753
	.uleb128 0x6
	.long	0x4c4d
	.uleb128 0x9
	.long	0x5d4
	.uleb128 0x9
	.long	0x642
	.uleb128 0x20
	.byte	0x1
	.byte	0x8
	.long	.LASF754
	.uleb128 0x20
	.byte	0x1
	.byte	0x6
	.long	.LASF755
	.uleb128 0x20
	.byte	0x2
	.byte	0x5
	.long	.LASF756
	.uleb128 0x20
	.byte	0x2
	.byte	0x10
	.long	.LASF757
	.uleb128 0x20
	.byte	0x4
	.byte	0x10
	.long	.LASF758
	.uleb128 0x9
	.long	0x66d
	.uleb128 0x9
	.long	0x830
	.uleb128 0xd
	.long	0x830
	.uleb128 0x26
	.long	0x66d
	.uleb128 0xd
	.long	0x66d
	.uleb128 0x9
	.long	0x86e
	.uleb128 0xd
	.long	0x89b
	.uleb128 0xd
	.long	0x8a8
	.uleb128 0x9
	.long	0x8a8
	.uleb128 0x9
	.long	0x89b
	.uleb128 0xd
	.long	0x9e3
	.uleb128 0x4
	.long	.LASF759
	.byte	0x31
	.byte	0x25
	.byte	0x15
	.long	0x4c6a
	.uleb128 0x4
	.long	.LASF760
	.byte	0x31
	.byte	0x26
	.byte	0x17
	.long	0x4c63
	.uleb128 0x4
	.long	.LASF761
	.byte	0x31
	.byte	0x27
	.byte	0x1a
	.long	0x4c71
	.uleb128 0x4
	.long	.LASF762
	.byte	0x31
	.byte	0x28
	.byte	0x1c
	.long	0x2db
	.uleb128 0x4
	.long	.LASF763
	.byte	0x31
	.byte	0x29
	.byte	0x14
	.long	0x113
	.uleb128 0x6
	.long	0x4ced
	.uleb128 0x4
	.long	.LASF764
	.byte	0x31
	.byte	0x2a
	.byte	0x16
	.long	0x9a
	.uleb128 0x4
	.long	.LASF765
	.byte	0x31
	.byte	0x2c
	.byte	0x19
	.long	0x4461
	.uleb128 0x4
	.long	.LASF766
	.byte	0x31
	.byte	0x2d
	.byte	0x1b
	.long	0x59
	.uleb128 0x4
	.long	.LASF767
	.byte	0x31
	.byte	0x34
	.byte	0x12
	.long	0x4cbd
	.uleb128 0x4
	.long	.LASF768
	.byte	0x31
	.byte	0x35
	.byte	0x13
	.long	0x4cc9
	.uleb128 0x4
	.long	.LASF769
	.byte	0x31
	.byte	0x36
	.byte	0x13
	.long	0x4cd5
	.uleb128 0x4
	.long	.LASF770
	.byte	0x31
	.byte	0x37
	.byte	0x14
	.long	0x4ce1
	.uleb128 0x4
	.long	.LASF771
	.byte	0x31
	.byte	0x38
	.byte	0x13
	.long	0x4ced
	.uleb128 0x4
	.long	.LASF772
	.byte	0x31
	.byte	0x39
	.byte	0x14
	.long	0x4cfe
	.uleb128 0x4
	.long	.LASF773
	.byte	0x31
	.byte	0x3a
	.byte	0x13
	.long	0x4d0a
	.uleb128 0x4
	.long	.LASF774
	.byte	0x31
	.byte	0x3b
	.byte	0x14
	.long	0x4d16
	.uleb128 0x4
	.long	.LASF775
	.byte	0x31
	.byte	0x48
	.byte	0x12
	.long	0x4461
	.uleb128 0x4
	.long	.LASF776
	.byte	0x31
	.byte	0x49
	.byte	0x1b
	.long	0x59
	.uleb128 0x4
	.long	.LASF777
	.byte	0x31
	.byte	0x98
	.byte	0x19
	.long	0x4461
	.uleb128 0x4
	.long	.LASF778
	.byte	0x31
	.byte	0x99
	.byte	0x1b
	.long	0x4461
	.uleb128 0x4
	.long	.LASF779
	.byte	0x31
	.byte	0xc2
	.byte	0x1b
	.long	0x4461
	.uleb128 0x4
	.long	.LASF780
	.byte	0x32
	.byte	0x18
	.byte	0x12
	.long	0x4cbd
	.uleb128 0x4
	.long	.LASF781
	.byte	0x32
	.byte	0x19
	.byte	0x13
	.long	0x4cd5
	.uleb128 0x4
	.long	.LASF782
	.byte	0x32
	.byte	0x1a
	.byte	0x13
	.long	0x4ced
	.uleb128 0x4
	.long	.LASF783
	.byte	0x32
	.byte	0x1b
	.byte	0x13
	.long	0x4d0a
	.uleb128 0x4
	.long	.LASF784
	.byte	0x33
	.byte	0x18
	.byte	0x13
	.long	0x4cc9
	.uleb128 0x4
	.long	.LASF785
	.byte	0x33
	.byte	0x19
	.byte	0x14
	.long	0x4ce1
	.uleb128 0x4
	.long	.LASF786
	.byte	0x33
	.byte	0x1a
	.byte	0x14
	.long	0x4cfe
	.uleb128 0x4
	.long	.LASF787
	.byte	0x33
	.byte	0x1b
	.byte	0x14
	.long	0x4d16
	.uleb128 0x4
	.long	.LASF788
	.byte	0x34
	.byte	0x2b
	.byte	0x18
	.long	0x4d22
	.uleb128 0x4
	.long	.LASF789
	.byte	0x34
	.byte	0x2c
	.byte	0x19
	.long	0x4d3a
	.uleb128 0x4
	.long	.LASF790
	.byte	0x34
	.byte	0x2d
	.byte	0x19
	.long	0x4d52
	.uleb128 0x4
	.long	.LASF791
	.byte	0x34
	.byte	0x2e
	.byte	0x19
	.long	0x4d6a
	.uleb128 0x4
	.long	.LASF792
	.byte	0x34
	.byte	0x31
	.byte	0x19
	.long	0x4d2e
	.uleb128 0x4
	.long	.LASF793
	.byte	0x34
	.byte	0x32
	.byte	0x1a
	.long	0x4d46
	.uleb128 0x4
	.long	.LASF794
	.byte	0x34
	.byte	0x33
	.byte	0x1a
	.long	0x4d5e
	.uleb128 0x4
	.long	.LASF795
	.byte	0x34
	.byte	0x34
	.byte	0x1a
	.long	0x4d76
	.uleb128 0x4
	.long	.LASF796
	.byte	0x34
	.byte	0x3a
	.byte	0x16
	.long	0x4c6a
	.uleb128 0x4
	.long	.LASF797
	.byte	0x34
	.byte	0x3c
	.byte	0x13
	.long	0x4461
	.uleb128 0x4
	.long	.LASF798
	.byte	0x34
	.byte	0x3d
	.byte	0x13
	.long	0x4461
	.uleb128 0x4
	.long	.LASF799
	.byte	0x34
	.byte	0x3e
	.byte	0x13
	.long	0x4461
	.uleb128 0x4
	.long	.LASF800
	.byte	0x34
	.byte	0x47
	.byte	0x18
	.long	0x4c63
	.uleb128 0x4
	.long	.LASF801
	.byte	0x34
	.byte	0x49
	.byte	0x1b
	.long	0x59
	.uleb128 0x4
	.long	.LASF802
	.byte	0x34
	.byte	0x4a
	.byte	0x1b
	.long	0x59
	.uleb128 0x4
	.long	.LASF803
	.byte	0x34
	.byte	0x4b
	.byte	0x1b
	.long	0x59
	.uleb128 0x4
	.long	.LASF804
	.byte	0x34
	.byte	0x57
	.byte	0x13
	.long	0x4461
	.uleb128 0x4
	.long	.LASF805
	.byte	0x34
	.byte	0x5a
	.byte	0x1b
	.long	0x59
	.uleb128 0x4
	.long	.LASF806
	.byte	0x34
	.byte	0x65
	.byte	0x15
	.long	0x4d82
	.uleb128 0x4
	.long	.LASF807
	.byte	0x34
	.byte	0x66
	.byte	0x16
	.long	0x4d8e
	.uleb128 0x17
	.long	.LASF808
	.byte	0x60
	.byte	0x35
	.byte	0x33
	.byte	0x8
	.long	0x5054
	.uleb128 0x7
	.long	.LASF809
	.byte	0x35
	.byte	0x37
	.byte	0x9
	.long	0x41ce
	.byte	0
	.uleb128 0x7
	.long	.LASF810
	.byte	0x35
	.byte	0x38
	.byte	0x9
	.long	0x41ce
	.byte	0x8
	.uleb128 0x7
	.long	.LASF811
	.byte	0x35
	.byte	0x3e
	.byte	0x9
	.long	0x41ce
	.byte	0x10
	.uleb128 0x7
	.long	.LASF812
	.byte	0x35
	.byte	0x44
	.byte	0x9
	.long	0x41ce
	.byte	0x18
	.uleb128 0x7
	.long	.LASF813
	.byte	0x35
	.byte	0x45
	.byte	0x9
	.long	0x41ce
	.byte	0x20
	.uleb128 0x7
	.long	.LASF814
	.byte	0x35
	.byte	0x46
	.byte	0x9
	.long	0x41ce
	.byte	0x28
	.uleb128 0x7
	.long	.LASF815
	.byte	0x35
	.byte	0x47
	.byte	0x9
	.long	0x41ce
	.byte	0x30
	.uleb128 0x7
	.long	.LASF816
	.byte	0x35
	.byte	0x48
	.byte	0x9
	.long	0x41ce
	.byte	0x38
	.uleb128 0x7
	.long	.LASF817
	.byte	0x35
	.byte	0x49
	.byte	0x9
	.long	0x41ce
	.byte	0x40
	.uleb128 0x7
	.long	.LASF818
	.byte	0x35
	.byte	0x4a
	.byte	0x9
	.long	0x41ce
	.byte	0x48
	.uleb128 0x7
	.long	.LASF819
	.byte	0x35
	.byte	0x4b
	.byte	0x8
	.long	0x107
	.byte	0x50
	.uleb128 0x7
	.long	.LASF820
	.byte	0x35
	.byte	0x4c
	.byte	0x8
	.long	0x107
	.byte	0x51
	.uleb128 0x7
	.long	.LASF821
	.byte	0x35
	.byte	0x4e
	.byte	0x8
	.long	0x107
	.byte	0x52
	.uleb128 0x7
	.long	.LASF822
	.byte	0x35
	.byte	0x50
	.byte	0x8
	.long	0x107
	.byte	0x53
	.uleb128 0x7
	.long	.LASF823
	.byte	0x35
	.byte	0x52
	.byte	0x8
	.long	0x107
	.byte	0x54
	.uleb128 0x7
	.long	.LASF824
	.byte	0x35
	.byte	0x54
	.byte	0x8
	.long	0x107
	.byte	0x55
	.uleb128 0x7
	.long	.LASF825
	.byte	0x35
	.byte	0x5b
	.byte	0x8
	.long	0x107
	.byte	0x56
	.uleb128 0x7
	.long	.LASF826
	.byte	0x35
	.byte	0x5c
	.byte	0x8
	.long	0x107
	.byte	0x57
	.uleb128 0x7
	.long	.LASF827
	.byte	0x35
	.byte	0x5f
	.byte	0x8
	.long	0x107
	.byte	0x58
	.uleb128 0x7
	.long	.LASF828
	.byte	0x35
	.byte	0x61
	.byte	0x8
	.long	0x107
	.byte	0x59
	.uleb128 0x7
	.long	.LASF829
	.byte	0x35
	.byte	0x63
	.byte	0x8
	.long	0x107
	.byte	0x5a
	.uleb128 0x7
	.long	.LASF830
	.byte	0x35
	.byte	0x65
	.byte	0x8
	.long	0x107
	.byte	0x5b
	.uleb128 0x7
	.long	.LASF831
	.byte	0x35
	.byte	0x6c
	.byte	0x8
	.long	0x107
	.byte	0x5c
	.uleb128 0x7
	.long	.LASF832
	.byte	0x35
	.byte	0x6d
	.byte	0x8
	.long	0x107
	.byte	0x5d
	.byte	0
	.uleb128 0x15
	.long	.LASF833
	.byte	0x35
	.byte	0x7a
	.byte	0xe
	.long	0x41ce
	.long	0x506f
	.uleb128 0x1
	.long	0x113
	.uleb128 0x1
	.long	0x2e7
	.byte	0
	.uleb128 0x65
	.long	.LASF835
	.byte	0x35
	.byte	0x7d
	.byte	0x16
	.long	0x507b
	.uleb128 0x9
	.long	0x4f0e
	.uleb128 0x8b
	.long	0x508c
	.uleb128 0x1
	.long	0xa1
	.byte	0
	.uleb128 0x9
	.long	0x5080
	.uleb128 0x9
	.long	0x5096
	.uleb128 0x8c
	.uleb128 0x41
	.long	.LASF836
	.byte	0x23
	.byte	0x38
	.byte	0xb
	.long	0x50ae
	.uleb128 0x8d
	.byte	0x23
	.byte	0x3a
	.byte	0x18
	.long	0xbb1
	.byte	0
	.uleb128 0x40
	.byte	0x8
	.byte	0x36
	.byte	0x3c
	.byte	0x3
	.long	.LASF838
	.long	0x50d5
	.uleb128 0x7
	.long	.LASF839
	.byte	0x36
	.byte	0x3d
	.byte	0x9
	.long	0x113
	.byte	0
	.uleb128 0x4d
	.string	"rem"
	.byte	0x3e
	.byte	0x9
	.long	0x113
	.byte	0x4
	.byte	0
	.uleb128 0x4
	.long	.LASF840
	.byte	0x36
	.byte	0x3f
	.byte	0x5
	.long	0x50ae
	.uleb128 0x40
	.byte	0x10
	.byte	0x36
	.byte	0x44
	.byte	0x3
	.long	.LASF841
	.long	0x5108
	.uleb128 0x7
	.long	.LASF839
	.byte	0x36
	.byte	0x45
	.byte	0xe
	.long	0x4461
	.byte	0
	.uleb128 0x4d
	.string	"rem"
	.byte	0x46
	.byte	0xe
	.long	0x4461
	.byte	0x8
	.byte	0
	.uleb128 0x4
	.long	.LASF842
	.byte	0x36
	.byte	0x47
	.byte	0x5
	.long	0x50e1
	.uleb128 0x40
	.byte	0x10
	.byte	0x36
	.byte	0x4e
	.byte	0x3
	.long	.LASF843
	.long	0x513b
	.uleb128 0x7
	.long	.LASF839
	.byte	0x36
	.byte	0x4f
	.byte	0x13
	.long	0x4c18
	.byte	0
	.uleb128 0x4d
	.string	"rem"
	.byte	0x50
	.byte	0x13
	.long	0x4c18
	.byte	0x8
	.byte	0
	.uleb128 0x4
	.long	.LASF844
	.byte	0x36
	.byte	0x51
	.byte	0x5
	.long	0x5114
	.uleb128 0x4
	.long	.LASF845
	.byte	0x37
	.byte	0x6c
	.byte	0x13
	.long	0x4db2
	.uleb128 0x19
	.long	.LASF846
	.byte	0x36
	.value	0x330
	.byte	0xf
	.long	0x5160
	.uleb128 0x9
	.long	0x5165
	.uleb128 0x8e
	.long	0x113
	.long	0x517a
	.uleb128 0x1
	.long	0x5091
	.uleb128 0x1
	.long	0x5091
	.byte	0
	.uleb128 0xb
	.long	.LASF847
	.byte	0x36
	.value	0x25a
	.byte	0xc
	.long	0x113
	.long	0x5191
	.uleb128 0x1
	.long	0x5191
	.byte	0
	.uleb128 0x9
	.long	0x5196
	.uleb128 0x8f
	.uleb128 0xe
	.long	.LASF848
	.byte	0x36
	.value	0x25f
	.byte	0x12
	.long	.LASF848
	.long	0x113
	.long	0x51b3
	.uleb128 0x1
	.long	0x5191
	.byte	0
	.uleb128 0x15
	.long	.LASF849
	.byte	0x36
	.byte	0x66
	.byte	0xf
	.long	0x3f
	.long	0x51c9
	.uleb128 0x1
	.long	0x2e7
	.byte	0
	.uleb128 0x15
	.long	.LASF850
	.byte	0x36
	.byte	0x69
	.byte	0xc
	.long	0x113
	.long	0x51df
	.uleb128 0x1
	.long	0x2e7
	.byte	0
	.uleb128 0x15
	.long	.LASF851
	.byte	0x36
	.byte	0x6c
	.byte	0x11
	.long	0x4461
	.long	0x51f5
	.uleb128 0x1
	.long	0x2e7
	.byte	0
	.uleb128 0xb
	.long	.LASF852
	.byte	0x36
	.value	0x33c
	.byte	0xe
	.long	0xa1
	.long	0x5220
	.uleb128 0x1
	.long	0x5091
	.uleb128 0x1
	.long	0x5091
	.uleb128 0x1
	.long	0x4d
	.uleb128 0x1
	.long	0x4d
	.uleb128 0x1
	.long	0x5153
	.byte	0
	.uleb128 0x90
	.string	"div"
	.byte	0x36
	.value	0x35c
	.byte	0xe
	.long	0x50d5
	.long	0x523d
	.uleb128 0x1
	.long	0x113
	.uleb128 0x1
	.long	0x113
	.byte	0
	.uleb128 0xb
	.long	.LASF853
	.byte	0x36
	.value	0x281
	.byte	0xe
	.long	0x41ce
	.long	0x5254
	.uleb128 0x1
	.long	0x2e7
	.byte	0
	.uleb128 0xb
	.long	.LASF854
	.byte	0x36
	.value	0x35e
	.byte	0xf
	.long	0x5108
	.long	0x5270
	.uleb128 0x1
	.long	0x4461
	.uleb128 0x1
	.long	0x4461
	.byte	0
	.uleb128 0xb
	.long	.LASF855
	.byte	0x36
	.value	0x3a2
	.byte	0xc
	.long	0x113
	.long	0x528c
	.uleb128 0x1
	.long	0x2e7
	.uleb128 0x1
	.long	0x4d
	.byte	0
	.uleb128 0xb
	.long	.LASF856
	.byte	0x36
	.value	0x3ad
	.byte	0xf
	.long	0x4d
	.long	0x52ad
	.uleb128 0x1
	.long	0x3eea
	.uleb128 0x1
	.long	0x2e7
	.uleb128 0x1
	.long	0x4d
	.byte	0
	.uleb128 0xb
	.long	.LASF857
	.byte	0x36
	.value	0x3a5
	.byte	0xc
	.long	0x113
	.long	0x52ce
	.uleb128 0x1
	.long	0x3eea
	.uleb128 0x1
	.long	0x2e7
	.uleb128 0x1
	.long	0x4d
	.byte	0
	.uleb128 0x3a
	.long	.LASF859
	.byte	0x36
	.value	0x346
	.long	0x52ef
	.uleb128 0x1
	.long	0xa1
	.uleb128 0x1
	.long	0x4d
	.uleb128 0x1
	.long	0x4d
	.uleb128 0x1
	.long	0x5153
	.byte	0
	.uleb128 0x91
	.long	.LASF860
	.byte	0x36
	.value	0x276
	.byte	0xd
	.long	0x5303
	.uleb128 0x1
	.long	0x113
	.byte	0
	.uleb128 0x4c
	.long	.LASF861
	.byte	0x36
	.value	0x1c6
	.byte	0xc
	.long	0x113
	.uleb128 0x3a
	.long	.LASF862
	.byte	0x36
	.value	0x1c8
	.long	0x5322
	.uleb128 0x1
	.long	0x9a
	.byte	0
	.uleb128 0x15
	.long	.LASF863
	.byte	0x36
	.byte	0x76
	.byte	0xf
	.long	0x3f
	.long	0x533d
	.uleb128 0x1
	.long	0x2e7
	.uleb128 0x1
	.long	0x533d
	.byte	0
	.uleb128 0x9
	.long	0x41ce
	.uleb128 0x15
	.long	.LASF864
	.byte	0x36
	.byte	0xb1
	.byte	0x11
	.long	0x4461
	.long	0x5362
	.uleb128 0x1
	.long	0x2e7
	.uleb128 0x1
	.long	0x533d
	.uleb128 0x1
	.long	0x113
	.byte	0
	.uleb128 0x15
	.long	.LASF865
	.byte	0x36
	.byte	0xb5
	.byte	0x1a
	.long	0x59
	.long	0x5382
	.uleb128 0x1
	.long	0x2e7
	.uleb128 0x1
	.long	0x533d
	.uleb128 0x1
	.long	0x113
	.byte	0
	.uleb128 0xb
	.long	.LASF866
	.byte	0x36
	.value	0x317
	.byte	0xc
	.long	0x113
	.long	0x5399
	.uleb128 0x1
	.long	0x2e7
	.byte	0
	.uleb128 0xb
	.long	.LASF867
	.byte	0x36
	.value	0x3b1
	.byte	0xf
	.long	0x4d
	.long	0x53ba
	.uleb128 0x1
	.long	0x41ce
	.uleb128 0x1
	.long	0x3f33
	.uleb128 0x1
	.long	0x4d
	.byte	0
	.uleb128 0xb
	.long	.LASF868
	.byte	0x36
	.value	0x3a9
	.byte	0xc
	.long	0x113
	.long	0x53d6
	.uleb128 0x1
	.long	0x41ce
	.uleb128 0x1
	.long	0x3eef
	.byte	0
	.uleb128 0xb
	.long	.LASF869
	.byte	0x36
	.value	0x362
	.byte	0x1e
	.long	0x513b
	.long	0x53f2
	.uleb128 0x1
	.long	0x4c18
	.uleb128 0x1
	.long	0x4c18
	.byte	0
	.uleb128 0x15
	.long	.LASF870
	.byte	0x36
	.byte	0x71
	.byte	0x24
	.long	0x4c18
	.long	0x5408
	.uleb128 0x1
	.long	0x2e7
	.byte	0
	.uleb128 0x15
	.long	.LASF871
	.byte	0x36
	.byte	0xc9
	.byte	0x16
	.long	0x4c18
	.long	0x5428
	.uleb128 0x1
	.long	0x2e7
	.uleb128 0x1
	.long	0x533d
	.uleb128 0x1
	.long	0x113
	.byte	0
	.uleb128 0x15
	.long	.LASF872
	.byte	0x36
	.byte	0xce
	.byte	0x1f
	.long	0x4c40
	.long	0x5448
	.uleb128 0x1
	.long	0x2e7
	.uleb128 0x1
	.long	0x533d
	.uleb128 0x1
	.long	0x113
	.byte	0
	.uleb128 0x15
	.long	.LASF873
	.byte	0x36
	.byte	0x7c
	.byte	0xe
	.long	0x38
	.long	0x5463
	.uleb128 0x1
	.long	0x2e7
	.uleb128 0x1
	.long	0x533d
	.byte	0
	.uleb128 0x15
	.long	.LASF874
	.byte	0x36
	.byte	0x7f
	.byte	0x14
	.long	0x46
	.long	0x547e
	.uleb128 0x1
	.long	0x2e7
	.uleb128 0x1
	.long	0x533d
	.byte	0
	.uleb128 0x17
	.long	.LASF875
	.byte	0x10
	.byte	0x38
	.byte	0xa
	.byte	0x10
	.long	0x54a6
	.uleb128 0x7
	.long	.LASF876
	.byte	0x38
	.byte	0xc
	.byte	0xb
	.long	0x4d9a
	.byte	0
	.uleb128 0x7
	.long	.LASF877
	.byte	0x38
	.byte	0xd
	.byte	0xf
	.long	0x11f
	.byte	0x8
	.byte	0
	.uleb128 0x4
	.long	.LASF878
	.byte	0x38
	.byte	0xe
	.byte	0x3
	.long	0x547e
	.uleb128 0x92
	.long	.LASF1060
	.byte	0x1a
	.byte	0x2b
	.byte	0xe
	.uleb128 0x4e
	.long	.LASF879
	.uleb128 0x9
	.long	0x54bb
	.uleb128 0x9
	.long	0x148
	.uleb128 0x48
	.long	0x107
	.long	0x54da
	.uleb128 0x49
	.long	0x59
	.byte	0
	.byte	0
	.uleb128 0x9
	.long	0x54b2
	.uleb128 0x4e
	.long	.LASF880
	.uleb128 0x9
	.long	0x54df
	.uleb128 0x4e
	.long	.LASF881
	.uleb128 0x9
	.long	0x54e9
	.uleb128 0x48
	.long	0x107
	.long	0x5503
	.uleb128 0x49
	.long	0x59
	.byte	0x13
	.byte	0
	.uleb128 0x4
	.long	.LASF882
	.byte	0x39
	.byte	0x54
	.byte	0x12
	.long	0x54a6
	.uleb128 0x6
	.long	0x5503
	.uleb128 0x9
	.long	0x2cf
	.uleb128 0x3a
	.long	.LASF883
	.byte	0x39
	.value	0x312
	.long	0x552b
	.uleb128 0x1
	.long	0x5514
	.byte	0
	.uleb128 0x15
	.long	.LASF884
	.byte	0x39
	.byte	0xb2
	.byte	0xc
	.long	0x113
	.long	0x5541
	.uleb128 0x1
	.long	0x5514
	.byte	0
	.uleb128 0xb
	.long	.LASF885
	.byte	0x39
	.value	0x314
	.byte	0xc
	.long	0x113
	.long	0x5558
	.uleb128 0x1
	.long	0x5514
	.byte	0
	.uleb128 0xb
	.long	.LASF886
	.byte	0x39
	.value	0x316
	.byte	0xc
	.long	0x113
	.long	0x556f
	.uleb128 0x1
	.long	0x5514
	.byte	0
	.uleb128 0x15
	.long	.LASF887
	.byte	0x39
	.byte	0xe6
	.byte	0xc
	.long	0x113
	.long	0x5585
	.uleb128 0x1
	.long	0x5514
	.byte	0
	.uleb128 0xb
	.long	.LASF888
	.byte	0x39
	.value	0x201
	.byte	0xc
	.long	0x113
	.long	0x559c
	.uleb128 0x1
	.long	0x5514
	.byte	0
	.uleb128 0xb
	.long	.LASF889
	.byte	0x39
	.value	0x2f8
	.byte	0xc
	.long	0x113
	.long	0x55b8
	.uleb128 0x1
	.long	0x5514
	.uleb128 0x1
	.long	0x55b8
	.byte	0
	.uleb128 0x9
	.long	0x5503
	.uleb128 0xb
	.long	.LASF890
	.byte	0x39
	.value	0x250
	.byte	0xe
	.long	0x41ce
	.long	0x55de
	.uleb128 0x1
	.long	0x41ce
	.uleb128 0x1
	.long	0x113
	.uleb128 0x1
	.long	0x5514
	.byte	0
	.uleb128 0xb
	.long	.LASF891
	.byte	0x39
	.value	0x102
	.byte	0xe
	.long	0x5514
	.long	0x55fa
	.uleb128 0x1
	.long	0x2e7
	.uleb128 0x1
	.long	0x2e7
	.byte	0
	.uleb128 0xb
	.long	.LASF892
	.byte	0x39
	.value	0x2a3
	.byte	0xf
	.long	0x4d
	.long	0x5620
	.uleb128 0x1
	.long	0xa1
	.uleb128 0x1
	.long	0x4d
	.uleb128 0x1
	.long	0x4d
	.uleb128 0x1
	.long	0x5514
	.byte	0
	.uleb128 0xb
	.long	.LASF893
	.byte	0x39
	.value	0x109
	.byte	0xe
	.long	0x5514
	.long	0x5641
	.uleb128 0x1
	.long	0x2e7
	.uleb128 0x1
	.long	0x2e7
	.uleb128 0x1
	.long	0x5514
	.byte	0
	.uleb128 0xb
	.long	.LASF894
	.byte	0x39
	.value	0x2c9
	.byte	0xc
	.long	0x113
	.long	0x5662
	.uleb128 0x1
	.long	0x5514
	.uleb128 0x1
	.long	0x4461
	.uleb128 0x1
	.long	0x113
	.byte	0
	.uleb128 0xb
	.long	.LASF895
	.byte	0x39
	.value	0x2fd
	.byte	0xc
	.long	0x113
	.long	0x567e
	.uleb128 0x1
	.long	0x5514
	.uleb128 0x1
	.long	0x567e
	.byte	0
	.uleb128 0x9
	.long	0x550f
	.uleb128 0xb
	.long	.LASF896
	.byte	0x39
	.value	0x2ce
	.byte	0x11
	.long	0x4461
	.long	0x569a
	.uleb128 0x1
	.long	0x5514
	.byte	0
	.uleb128 0xb
	.long	.LASF897
	.byte	0x39
	.value	0x202
	.byte	0xc
	.long	0x113
	.long	0x56b1
	.uleb128 0x1
	.long	0x5514
	.byte	0
	.uleb128 0x4c
	.long	.LASF898
	.byte	0x39
	.value	0x208
	.byte	0xc
	.long	0x113
	.uleb128 0x3a
	.long	.LASF899
	.byte	0x39
	.value	0x324
	.long	0x56d0
	.uleb128 0x1
	.long	0x2e7
	.byte	0
	.uleb128 0x15
	.long	.LASF900
	.byte	0x39
	.byte	0x98
	.byte	0xc
	.long	0x113
	.long	0x56e6
	.uleb128 0x1
	.long	0x2e7
	.byte	0
	.uleb128 0x15
	.long	.LASF901
	.byte	0x39
	.byte	0x9a
	.byte	0xc
	.long	0x113
	.long	0x5701
	.uleb128 0x1
	.long	0x2e7
	.uleb128 0x1
	.long	0x2e7
	.byte	0
	.uleb128 0x3a
	.long	.LASF902
	.byte	0x39
	.value	0x2d3
	.long	0x5713
	.uleb128 0x1
	.long	0x5514
	.byte	0
	.uleb128 0x3a
	.long	.LASF903
	.byte	0x39
	.value	0x148
	.long	0x572a
	.uleb128 0x1
	.long	0x5514
	.uleb128 0x1
	.long	0x41ce
	.byte	0
	.uleb128 0xb
	.long	.LASF904
	.byte	0x39
	.value	0x14c
	.byte	0xc
	.long	0x113
	.long	0x5750
	.uleb128 0x1
	.long	0x5514
	.uleb128 0x1
	.long	0x41ce
	.uleb128 0x1
	.long	0x113
	.uleb128 0x1
	.long	0x4d
	.byte	0
	.uleb128 0x65
	.long	.LASF905
	.byte	0x39
	.byte	0xbc
	.byte	0xe
	.long	0x5514
	.uleb128 0x15
	.long	.LASF906
	.byte	0x39
	.byte	0xcd
	.byte	0xe
	.long	0x41ce
	.long	0x5772
	.uleb128 0x1
	.long	0x41ce
	.byte	0
	.uleb128 0xb
	.long	.LASF907
	.byte	0x39
	.value	0x29c
	.byte	0xc
	.long	0x113
	.long	0x578e
	.uleb128 0x1
	.long	0x113
	.uleb128 0x1
	.long	0x5514
	.byte	0
	.uleb128 0x9
	.long	0xdfd
	.uleb128 0x6
	.long	0x578e
	.uleb128 0xd
	.long	0xe86
	.uleb128 0xd
	.long	0xdfd
	.uleb128 0x4
	.long	.LASF908
	.byte	0x3a
	.byte	0x26
	.byte	0x1b
	.long	0x59
	.uleb128 0x4
	.long	.LASF909
	.byte	0x3b
	.byte	0x30
	.byte	0x1a
	.long	0x57ba
	.uleb128 0x9
	.long	0x4cf9
	.uleb128 0x15
	.long	.LASF910
	.byte	0x3a
	.byte	0x9f
	.byte	0xc
	.long	0x113
	.long	0x57da
	.uleb128 0x1
	.long	0xa3
	.uleb128 0x1
	.long	0x57a2
	.byte	0
	.uleb128 0x15
	.long	.LASF911
	.byte	0x3b
	.byte	0x37
	.byte	0xf
	.long	0xa3
	.long	0x57f5
	.uleb128 0x1
	.long	0xa3
	.uleb128 0x1
	.long	0x57ae
	.byte	0
	.uleb128 0x15
	.long	.LASF912
	.byte	0x3b
	.byte	0x34
	.byte	0x12
	.long	0x57ae
	.long	0x580b
	.uleb128 0x1
	.long	0x2e7
	.byte	0
	.uleb128 0x15
	.long	.LASF913
	.byte	0x3a
	.byte	0x9b
	.byte	0x11
	.long	0x57a2
	.long	0x5821
	.uleb128 0x1
	.long	0x2e7
	.byte	0
	.uleb128 0xd
	.long	0x11a
	.uleb128 0xd
	.long	0xec4
	.uleb128 0x93
	.long	0xf21
	.uleb128 0x9
	.byte	0x3
	.quad	_ZStL8__ioinit
	.uleb128 0x41
	.long	.LASF914
	.byte	0x3c
	.byte	0xf
	.byte	0xb
	.long	0x5982
	.uleb128 0x66
	.long	.LASF938
	.byte	0x3c
	.byte	0x11
	.byte	0xb
	.uleb128 0x94
	.string	"v1"
	.byte	0x3c
	.byte	0x13
	.byte	0x12
	.uleb128 0x2c
	.long	.LASF915
	.byte	0x1
	.byte	0x3c
	.byte	0x17
	.byte	0x7
	.long	0x588f
	.uleb128 0x2b
	.long	.LASF916
	.byte	0x1c
	.long	.LASF918
	.long	0x647
	.uleb128 0x2b
	.long	.LASF917
	.byte	0x21
	.long	.LASF919
	.long	0x647
	.uleb128 0x2b
	.long	.LASF920
	.byte	0x26
	.long	.LASF921
	.long	0x647
	.byte	0
	.uleb128 0x6
	.long	0x5857
	.uleb128 0x2c
	.long	.LASF922
	.byte	0x1
	.byte	0x3c
	.byte	0x2d
	.byte	0x7
	.long	0x58cc
	.uleb128 0x2b
	.long	.LASF916
	.byte	0x32
	.long	.LASF923
	.long	0x647
	.uleb128 0x2b
	.long	.LASF917
	.byte	0x37
	.long	.LASF924
	.long	0x647
	.uleb128 0x2b
	.long	.LASF920
	.byte	0x3c
	.long	.LASF925
	.long	0xb63
	.byte	0
	.uleb128 0x6
	.long	0x5894
	.uleb128 0x2c
	.long	.LASF926
	.byte	0x1
	.byte	0x3c
	.byte	0x43
	.byte	0x7
	.long	0x5909
	.uleb128 0x2b
	.long	.LASF916
	.byte	0x48
	.long	.LASF927
	.long	0xb63
	.uleb128 0x2b
	.long	.LASF917
	.byte	0x4d
	.long	.LASF928
	.long	0xb63
	.uleb128 0x2b
	.long	.LASF920
	.byte	0x52
	.long	.LASF929
	.long	0xb63
	.byte	0
	.uleb128 0x6
	.long	0x58d1
	.uleb128 0x2c
	.long	.LASF930
	.byte	0x1
	.byte	0x3c
	.byte	0x58
	.byte	0x7
	.long	0x5946
	.uleb128 0x2b
	.long	.LASF916
	.byte	0x5d
	.long	.LASF931
	.long	0xb63
	.uleb128 0x2b
	.long	.LASF917
	.byte	0x62
	.long	.LASF932
	.long	0xb63
	.uleb128 0x2b
	.long	.LASF920
	.byte	0x67
	.long	.LASF933
	.long	0x647
	.byte	0
	.uleb128 0x6
	.long	0x590e
	.uleb128 0x67
	.string	"seq"
	.byte	0x6e
	.byte	0x1c
	.long	0x588f
	.byte	0x1
	.byte	0
	.uleb128 0x67
	.string	"par"
	.byte	0x6f
	.byte	0x1b
	.long	0x58cc
	.byte	0x1
	.byte	0
	.uleb128 0x68
	.long	.LASF935
	.byte	0x70
	.byte	0x27
	.long	0x5909
	.byte	0x1
	.byte	0
	.uleb128 0x68
	.long	.LASF936
	.byte	0x71
	.byte	0x1e
	.long	0x5946
	.byte	0x1
	.byte	0
	.byte	0
	.byte	0
	.byte	0
	.uleb128 0x45
	.long	0x594b
	.uleb128 0x45
	.long	0x5958
	.uleb128 0x45
	.long	0x5965
	.uleb128 0x45
	.long	0x5972
	.uleb128 0x9
	.long	0xfc5
	.uleb128 0x6
	.long	0x5996
	.uleb128 0xd
	.long	0x1142
	.uleb128 0x9
	.long	0x4461
	.uleb128 0x6
	.long	0x59a5
	.uleb128 0x9
	.long	0x1142
	.uleb128 0x6
	.long	0x59af
	.uleb128 0xd
	.long	0x4461
	.uleb128 0x9
	.long	0x4468
	.uleb128 0x6
	.long	0x59be
	.uleb128 0xd
	.long	0x4468
	.uleb128 0x9
	.long	0x1147
	.uleb128 0x6
	.long	0x59cd
	.uleb128 0xd
	.long	0x11ce
	.uleb128 0xd
	.long	0x1147
	.uleb128 0xd
	.long	0x120c
	.uleb128 0xd
	.long	0x1219
	.uleb128 0xd
	.long	0x47f2
	.uleb128 0xd
	.long	0x47fe
	.uleb128 0x9
	.long	0x12dc
	.uleb128 0x6
	.long	0x59f5
	.uleb128 0x26
	.long	0x12dc
	.uleb128 0xd
	.long	0x1382
	.uleb128 0xd
	.long	0x12dc
	.uleb128 0x9
	.long	0x1393
	.uleb128 0x6
	.long	0x5a0e
	.uleb128 0xd
	.long	0x146a
	.uleb128 0x26
	.long	0x1393
	.uleb128 0x26
	.long	0x145e
	.uleb128 0xd
	.long	0x145e
	.uleb128 0x9
	.long	0x12cf
	.uleb128 0x6
	.long	0x5a2c
	.uleb128 0x9
	.long	0x1672
	.uleb128 0xd
	.long	0x14b6
	.uleb128 0x26
	.long	0x12cf
	.uleb128 0xd
	.long	0x1762
	.uleb128 0x9
	.long	0x169a
	.uleb128 0x6
	.long	0x5a4a
	.uleb128 0xd
	.long	0x1813
	.uleb128 0xd
	.long	0x1886
	.uleb128 0xd
	.long	0x22b9
	.uleb128 0x26
	.long	0x169a
	.uleb128 0xd
	.long	0x22ca
	.uleb128 0xd
	.long	0x169a
	.uleb128 0x9
	.long	0x22b9
	.uleb128 0x6
	.long	0x5a72
	.uleb128 0x26
	.long	0x1879
	.uleb128 0xd
	.long	0x176f
	.uleb128 0x9
	.long	0x23ce
	.uleb128 0x6
	.long	0x5a86
	.uleb128 0xd
	.long	0x254b
	.uleb128 0x9
	.long	0x113
	.uleb128 0x6
	.long	0x5a95
	.uleb128 0x9
	.long	0x254b
	.uleb128 0x6
	.long	0x5a9f
	.uleb128 0xd
	.long	0x113
	.uleb128 0x9
	.long	0x2550
	.uleb128 0x6
	.long	0x5aae
	.uleb128 0xd
	.long	0x25d7
	.uleb128 0xd
	.long	0x2550
	.uleb128 0xd
	.long	0x2615
	.uleb128 0xd
	.long	0x2622
	.uleb128 0xd
	.long	0x4b40
	.uleb128 0xd
	.long	0x4b4c
	.uleb128 0x9
	.long	0x26e5
	.uleb128 0x6
	.long	0x5ad6
	.uleb128 0x26
	.long	0x26e5
	.uleb128 0xd
	.long	0x278b
	.uleb128 0xd
	.long	0x26e5
	.uleb128 0x9
	.long	0x279c
	.uleb128 0x6
	.long	0x5aef
	.uleb128 0xd
	.long	0x2873
	.uleb128 0x26
	.long	0x279c
	.uleb128 0x26
	.long	0x2867
	.uleb128 0xd
	.long	0x2867
	.uleb128 0x9
	.long	0x26d8
	.uleb128 0x6
	.long	0x5b0d
	.uleb128 0x9
	.long	0x2a7b
	.uleb128 0x6
	.long	0x5b17
	.uleb128 0xd
	.long	0x28bf
	.uleb128 0x26
	.long	0x26d8
	.uleb128 0xd
	.long	0x2b6b
	.uleb128 0x9
	.long	0x2aa3
	.uleb128 0x6
	.long	0x5b30
	.uleb128 0xd
	.long	0x2c1c
	.uleb128 0xd
	.long	0x2c8f
	.uleb128 0xd
	.long	0x368e
	.uleb128 0x26
	.long	0x2aa3
	.uleb128 0xd
	.long	0x369f
	.uleb128 0xd
	.long	0x2aa3
	.uleb128 0x9
	.long	0x368e
	.uleb128 0x6
	.long	0x5b58
	.uleb128 0x26
	.long	0x2c82
	.uleb128 0xd
	.long	0x2b78
	.uleb128 0x41
	.long	.LASF937
	.byte	0x3
	.byte	0xb
	.byte	0xb
	.long	0x5d0a
	.uleb128 0x66
	.long	.LASF939
	.byte	0x3
	.byte	0xd
	.byte	0xf
	.uleb128 0x2c
	.long	.LASF940
	.byte	0x30
	.byte	0x3
	.byte	0x27
	.byte	0xf
	.long	0x5cdb
	.uleb128 0x1d
	.long	.LASF941
	.byte	0x3
	.byte	0x2a
	.byte	0xd
	.long	.LASF942
	.long	0x5ba1
	.long	0x5ba7
	.uleb128 0x2
	.long	0x5d0a
	.byte	0
	.uleb128 0x16
	.long	.LASF943
	.byte	0x3
	.byte	0x32
	.byte	0x21
	.long	.LASF944
	.long	0x5ce0
	.byte	0x1
	.long	0x5bc0
	.long	0x5bc6
	.uleb128 0x2
	.long	0x5d14
	.byte	0
	.uleb128 0x16
	.long	.LASF291
	.byte	0x3
	.byte	0x37
	.byte	0x21
	.long	.LASF945
	.long	0x5ce0
	.byte	0x1
	.long	0x5bdf
	.long	0x5be5
	.uleb128 0x2
	.long	0x5d14
	.byte	0
	.uleb128 0x16
	.long	.LASF946
	.byte	0x3
	.byte	0x3c
	.byte	0x2e
	.long	.LASF947
	.long	0x169a
	.byte	0x1
	.long	0x5bfe
	.long	0x5c04
	.uleb128 0x2
	.long	0x5d14
	.byte	0
	.uleb128 0x16
	.long	.LASF946
	.byte	0x3
	.byte	0x41
	.byte	0x21
	.long	.LASF948
	.long	0x5ce0
	.byte	0x1
	.long	0x5c1d
	.long	0x5c28
	.uleb128 0x2
	.long	0x5d14
	.uleb128 0x1
	.long	0x5ce0
	.byte	0
	.uleb128 0x69
	.long	.LASF950
	.byte	0x60
	.byte	0x24
	.long	0x2aa3
	.byte	0
	.byte	0x1
	.uleb128 0x69
	.long	.LASF951
	.byte	0x62
	.byte	0x2e
	.long	0x169a
	.byte	0x18
	.byte	0x2
	.uleb128 0x16
	.long	.LASF952
	.byte	0x3
	.byte	0x47
	.byte	0x18
	.long	.LASF953
	.long	0x5aa9
	.byte	0x1
	.long	0x5c77
	.long	0x5c91
	.uleb128 0x6a
	.string	"T"
	.long	0x5c77
	.uleb128 0x33
	.long	0x113
	.uleb128 0x33
	.long	0x113
	.uleb128 0x33
	.long	0x113
	.uleb128 0x33
	.long	0x113
	.byte	0
	.uleb128 0x2
	.long	0x5d0a
	.uleb128 0x1
	.long	0x113
	.uleb128 0x1
	.long	0x113
	.uleb128 0x1
	.long	0x113
	.uleb128 0x1
	.long	0x113
	.byte	0
	.uleb128 0x95
	.long	.LASF954
	.long	.LASF1028
	.byte	0x1
	.long	0x5ca4
	.long	0x5caf
	.uleb128 0x2
	.long	0x5d0a
	.uleb128 0x2
	.long	0x113
	.byte	0
	.uleb128 0x5
	.long	.LASF955
	.long	0x113
	.uleb128 0x96
	.long	.LASF1061
	.byte	0x3
	.byte	0x26
	.byte	0x3e
	.uleb128 0x46
	.long	0x4461
	.byte	0x2
	.uleb128 0x46
	.long	0x4461
	.byte	0x3
	.uleb128 0x46
	.long	0x4461
	.byte	0x4
	.uleb128 0x46
	.long	0x4461
	.byte	0x5
	.byte	0
	.byte	0
	.uleb128 0x6
	.long	0x5b80
	.uleb128 0x4
	.long	.LASF956
	.byte	0x3
	.byte	0x12
	.byte	0x19
	.long	0x5147
	.uleb128 0x97
	.long	.LASF957
	.byte	0x3
	.byte	0x1d
	.byte	0x1d
	.long	.LASF958
	.long	0x5ce0
	.uleb128 0x1
	.long	0x5ce0
	.uleb128 0x1
	.long	0x5ce0
	.byte	0
	.byte	0
	.byte	0
	.uleb128 0x9
	.long	0x5b80
	.uleb128 0x6
	.long	0x5d0a
	.uleb128 0x9
	.long	0x5cdb
	.uleb128 0x6
	.long	0x5d14
	.uleb128 0x9
	.long	0x22cf
	.uleb128 0x9
	.long	0x23bf
	.uleb128 0x6
	.long	0x5d23
	.uleb128 0x9
	.long	0x4854
	.uleb128 0x6
	.long	0x5d2d
	.uleb128 0xd
	.long	0x59aa
	.uleb128 0x9
	.long	0x4a89
	.uleb128 0x6
	.long	0x5d3c
	.uleb128 0xd
	.long	0x4854
	.uleb128 0x98
	.long	.LASF983
	.long	0xa1
	.uleb128 0x47
	.long	0xe25
	.long	.LASF959
	.long	0x5d66
	.long	0x5d70
	.uleb128 0x10
	.long	.LASF961
	.long	0x5793
	.byte	0
	.uleb128 0x47
	.long	0xe0c
	.long	.LASF960
	.long	0x5d81
	.long	0x5d8b
	.uleb128 0x10
	.long	.LASF961
	.long	0x5793
	.byte	0
	.uleb128 0x99
	.long	.LASF1062
	.uleb128 0x9a
	.long	.LASF1063
	.uleb128 0x6b
	.long	.LASF962
	.long	0xa1
	.long	0x5daa
	.uleb128 0x1
	.long	0xa1
	.byte	0
	.uleb128 0x37
	.long	.LASF963
	.byte	0x1
	.byte	0x87
	.byte	0x6
	.long	.LASF964
	.long	0x5dc5
	.uleb128 0x1
	.long	0xa1
	.uleb128 0x1
	.long	0x559
	.byte	0
	.uleb128 0x1e
	.long	.LASF965
	.byte	0x1
	.byte	0x7e
	.byte	0x1a
	.long	.LASF966
	.long	0xa1
	.long	0x5ddf
	.uleb128 0x1
	.long	0x559
	.byte	0
	.uleb128 0x9
	.long	0xec4
	.uleb128 0x9b
	.long	.LASF1064
	.long	0x5df4
	.uleb128 0x1
	.long	0xa1
	.byte	0
	.uleb128 0x9
	.long	0x37d6
	.uleb128 0x6
	.long	0x5df4
	.uleb128 0x47
	.long	0x37df
	.long	.LASF967
	.long	0x5e0f
	.long	0x5e19
	.uleb128 0x10
	.long	.LASF961
	.long	0x5df9
	.byte	0
	.uleb128 0x9c
	.long	.LASF968
	.long	0x5e33
	.uleb128 0x1
	.long	0xa1
	.uleb128 0x1
	.long	0xa1
	.uleb128 0x1
	.long	0x508c
	.byte	0
	.uleb128 0x47
	.long	0x3806
	.long	.LASF969
	.long	0x5e44
	.long	0x5e53
	.uleb128 0x10
	.long	.LASF961
	.long	0x5df9
	.uleb128 0x1
	.long	0x2e7
	.byte	0
	.uleb128 0x6b
	.long	.LASF970
	.long	0xa1
	.long	0x5e66
	.uleb128 0x1
	.long	0x59
	.byte	0
	.uleb128 0x9d
	.long	.LASF1065
	.quad	.LFB3258
	.quad	.LFE3258-.LFB3258
	.uleb128 0x1
	.byte	0x9c
	.uleb128 0x9e
	.long	.LASF1066
	.quad	.LFB3257
	.quad	.LFE3257-.LFB3257
	.uleb128 0x1
	.byte	0x9c
	.long	0x5eb9
	.uleb128 0x21
	.long	.LASF971
	.byte	0x4
	.byte	0x13
	.byte	0x1
	.long	0x113
	.uleb128 0x2
	.byte	0x91
	.sleb128 -20
	.uleb128 0x21
	.long	.LASF972
	.byte	0x4
	.byte	0x13
	.byte	0x1
	.long	0x113
	.uleb128 0x2
	.byte	0x91
	.sleb128 -24
	.byte	0
	.uleb128 0x12
	.long	0x3760
	.quad	.LFB3256
	.quad	.LFE3256-.LFB3256
	.uleb128 0x1
	.byte	0x9c
	.long	0x5f1e
	.uleb128 0xa
	.string	"_Tp"
	.long	0x4461
	.uleb128 0xc
	.long	.LASF973
	.byte	0x2
	.value	0x1a4
	.byte	0x16
	.long	0x59be
	.uleb128 0x2
	.byte	0x91
	.sleb128 -40
	.uleb128 0xc
	.long	.LASF974
	.byte	0x2
	.value	0x1a4
	.byte	0x2a
	.long	0x59be
	.uleb128 0x2
	.byte	0x91
	.sleb128 -48
	.uleb128 0xc
	.long	.LASF975
	.byte	0x2
	.value	0x1a4
	.byte	0x37
	.long	0x59a5
	.uleb128 0x2
	.byte	0x91
	.sleb128 -56
	.uleb128 0x29
	.long	.LASF977
	.byte	0x2
	.value	0x1ad
	.byte	0x14
	.long	0xb5e
	.uleb128 0x2
	.byte	0x91
	.sleb128 -24
	.byte	0
	.uleb128 0x25
	.long	0x3825
	.quad	.LFB3255
	.quad	.LFE3255-.LFB3255
	.uleb128 0x1
	.byte	0x9c
	.long	0x5f8c
	.uleb128 0x5
	.long	.LASF128
	.long	0x5a95
	.uleb128 0xa
	.string	"_Tp"
	.long	0x113
	.uleb128 0xc
	.long	.LASF973
	.byte	0x2
	.value	0x395
	.byte	0x20
	.long	0x5a95
	.uleb128 0x2
	.byte	0x91
	.sleb128 -40
	.uleb128 0xc
	.long	.LASF974
	.byte	0x2
	.value	0x395
	.byte	0x3a
	.long	0x5a95
	.uleb128 0x2
	.byte	0x91
	.sleb128 -48
	.uleb128 0xc
	.long	.LASF18
	.byte	0x2
	.value	0x396
	.byte	0x13
	.long	0x5821
	.uleb128 0x2
	.byte	0x91
	.sleb128 -56
	.uleb128 0x29
	.long	.LASF978
	.byte	0x2
	.value	0x398
	.byte	0x11
	.long	0x11a
	.uleb128 0x2
	.byte	0x91
	.sleb128 -20
	.byte	0
	.uleb128 0x12
	.long	0x3858
	.quad	.LFB3254
	.quad	.LFE3254-.LFB3254
	.uleb128 0x1
	.byte	0x9c
	.long	0x5ff4
	.uleb128 0x2d
	.long	.LASF527
	.long	0x4c4d
	.byte	0
	.uleb128 0xa
	.string	"_II"
	.long	0x59be
	.uleb128 0xa
	.string	"_OI"
	.long	0x59a5
	.uleb128 0xc
	.long	.LASF973
	.byte	0x2
	.value	0x1e6
	.byte	0x18
	.long	0x59be
	.uleb128 0x2
	.byte	0x91
	.sleb128 -24
	.uleb128 0xc
	.long	.LASF974
	.byte	0x2
	.value	0x1e6
	.byte	0x25
	.long	0x59be
	.uleb128 0x2
	.byte	0x91
	.sleb128 -32
	.uleb128 0xc
	.long	.LASF975
	.byte	0x2
	.value	0x1e6
	.byte	0x31
	.long	0x59a5
	.uleb128 0x2
	.byte	0x91
	.sleb128 -40
	.byte	0
	.uleb128 0x12
	.long	0x3899
	.quad	.LFB3253
	.quad	.LFE3253-.LFB3253
	.uleb128 0x1
	.byte	0x9c
	.long	0x6052
	.uleb128 0x5
	.long	.LASF544
	.long	0x5a95
	.uleb128 0xa
	.string	"_Tp"
	.long	0x113
	.uleb128 0xc
	.long	.LASF973
	.byte	0x2
	.value	0x3c7
	.byte	0x14
	.long	0x5a95
	.uleb128 0x2
	.byte	0x91
	.sleb128 -24
	.uleb128 0xc
	.long	.LASF974
	.byte	0x2
	.value	0x3c7
	.byte	0x23
	.long	0x5a95
	.uleb128 0x2
	.byte	0x91
	.sleb128 -32
	.uleb128 0xc
	.long	.LASF18
	.byte	0x2
	.value	0x3c7
	.byte	0x36
	.long	0x5821
	.uleb128 0x2
	.byte	0x91
	.sleb128 -40
	.byte	0
	.uleb128 0x25
	.long	0x38cc
	.quad	.LFB3252
	.quad	.LFE3252-.LFB3252
	.uleb128 0x1
	.byte	0x9c
	.long	0x608f
	.uleb128 0x5
	.long	.LASF547
	.long	0x59a5
	.uleb128 0x22
	.long	0x5d37
	.uleb128 0x2
	.byte	0x91
	.sleb128 -24
	.uleb128 0xc
	.long	.LASF979
	.byte	0x2
	.value	0x14f
	.byte	0x2e
	.long	0x59a5
	.uleb128 0x2
	.byte	0x91
	.sleb128 -32
	.byte	0
	.uleb128 0x12
	.long	0x38f5
	.quad	.LFB3251
	.quad	.LFE3251-.LFB3251
	.uleb128 0x1
	.byte	0x9c
	.long	0x60f7
	.uleb128 0x2d
	.long	.LASF527
	.long	0x4c4d
	.byte	0
	.uleb128 0xa
	.string	"_II"
	.long	0x59be
	.uleb128 0xa
	.string	"_OI"
	.long	0x59a5
	.uleb128 0xc
	.long	.LASF973
	.byte	0x2
	.value	0x209
	.byte	0x18
	.long	0x59be
	.uleb128 0x2
	.byte	0x91
	.sleb128 -24
	.uleb128 0xc
	.long	.LASF974
	.byte	0x2
	.value	0x209
	.byte	0x25
	.long	0x59be
	.uleb128 0x2
	.byte	0x91
	.sleb128 -32
	.uleb128 0xc
	.long	.LASF975
	.byte	0x2
	.value	0x209
	.byte	0x31
	.long	0x59a5
	.uleb128 0x2
	.byte	0x91
	.sleb128 -40
	.byte	0
	.uleb128 0x25
	.long	0x3936
	.quad	.LFB3250
	.quad	.LFE3250-.LFB3250
	.uleb128 0x1
	.byte	0x9c
	.long	0x612c
	.uleb128 0x5
	.long	.LASF547
	.long	0x59a5
	.uleb128 0xc
	.long	.LASF980
	.byte	0x2
	.value	0x139
	.byte	0x1c
	.long	0x59a5
	.uleb128 0x2
	.byte	0x91
	.sleb128 -24
	.byte	0
	.uleb128 0x25
	.long	0x395a
	.quad	.LFB3249
	.quad	.LFE3249-.LFB3249
	.uleb128 0x1
	.byte	0x9c
	.long	0x6161
	.uleb128 0x5
	.long	.LASF547
	.long	0x59be
	.uleb128 0xc
	.long	.LASF980
	.byte	0x2
	.value	0x139
	.byte	0x1c
	.long	0x59be
	.uleb128 0x2
	.byte	0x91
	.sleb128 -24
	.byte	0
	.uleb128 0x12
	.long	0x397e
	.quad	.LFB3248
	.quad	.LFE3248-.LFB3248
	.uleb128 0x1
	.byte	0x9c
	.long	0x61d0
	.uleb128 0x5
	.long	.LASF556
	.long	0x5a95
	.uleb128 0x5
	.long	.LASF149
	.long	0x59
	.uleb128 0xa
	.string	"_Tp"
	.long	0x113
	.uleb128 0xc
	.long	.LASF973
	.byte	0x2
	.value	0x454
	.byte	0x20
	.long	0x5a95
	.uleb128 0x2
	.byte	0x91
	.sleb128 -24
	.uleb128 0x13
	.string	"__n"
	.byte	0x2
	.value	0x454
	.byte	0x2f
	.long	0x59
	.uleb128 0x2
	.byte	0x91
	.sleb128 -32
	.uleb128 0xc
	.long	.LASF18
	.byte	0x2
	.value	0x454
	.byte	0x3f
	.long	0x5821
	.uleb128 0x2
	.byte	0x91
	.sleb128 -40
	.uleb128 0x22
	.long	0xb9e
	.uleb128 0x2
	.byte	0x91
	.sleb128 0
	.byte	0
	.uleb128 0xd
	.long	0x5a9a
	.uleb128 0x25
	.long	0x39c3
	.quad	.LFB3247
	.quad	.LFE3247-.LFB3247
	.uleb128 0x1
	.byte	0x9c
	.long	0x6202
	.uleb128 0x5
	.long	.LASF559
	.long	0x5a95
	.uleb128 0x22
	.long	0x61d0
	.uleb128 0x2
	.byte	0x91
	.sleb128 -24
	.byte	0
	.uleb128 0x12
	.long	0x39e6
	.quad	.LFB3244
	.quad	.LFE3244-.LFB3244
	.uleb128 0x1
	.byte	0x9c
	.long	0x626a
	.uleb128 0x2d
	.long	.LASF527
	.long	0x4c4d
	.byte	0
	.uleb128 0xa
	.string	"_II"
	.long	0x59be
	.uleb128 0xa
	.string	"_OI"
	.long	0x59a5
	.uleb128 0xc
	.long	.LASF973
	.byte	0x2
	.value	0x20f
	.byte	0x17
	.long	0x59be
	.uleb128 0x2
	.byte	0x91
	.sleb128 -40
	.uleb128 0xc
	.long	.LASF974
	.byte	0x2
	.value	0x20f
	.byte	0x24
	.long	0x59be
	.uleb128 0x2
	.byte	0x91
	.sleb128 -48
	.uleb128 0xc
	.long	.LASF975
	.byte	0x2
	.value	0x20f
	.byte	0x30
	.long	0x59a5
	.uleb128 0x2
	.byte	0x91
	.sleb128 -56
	.byte	0
	.uleb128 0x25
	.long	0x3a27
	.quad	.LFB3243
	.quad	.LFE3243-.LFB3243
	.uleb128 0x1
	.byte	0x9c
	.long	0x629f
	.uleb128 0x5
	.long	.LASF547
	.long	0x59be
	.uleb128 0xc
	.long	.LASF980
	.byte	0x12
	.value	0x232
	.byte	0x1c
	.long	0x59be
	.uleb128 0x2
	.byte	0x91
	.sleb128 -24
	.byte	0
	.uleb128 0x27
	.long	0x2523
	.long	0x62be
	.quad	.LFB3242
	.quad	.LFE3242-.LFB3242
	.uleb128 0x1
	.byte	0x9c
	.long	0x62cb
	.uleb128 0x11
	.long	.LASF961
	.long	0x5aa4
	.uleb128 0x2
	.byte	0x91
	.sleb128 -24
	.byte	0
	.uleb128 0x12
	.long	0x3a4b
	.quad	.LFB3241
	.quad	.LFE3241-.LFB3241
	.uleb128 0x1
	.byte	0x9c
	.long	0x6332
	.uleb128 0xa
	.string	"_OI"
	.long	0x5a95
	.uleb128 0x5
	.long	.LASF149
	.long	0x59
	.uleb128 0xa
	.string	"_Tp"
	.long	0x113
	.uleb128 0xc
	.long	.LASF973
	.byte	0x2
	.value	0x477
	.byte	0x10
	.long	0x5a95
	.uleb128 0x2
	.byte	0x91
	.sleb128 -24
	.uleb128 0x13
	.string	"__n"
	.byte	0x2
	.value	0x477
	.byte	0x1f
	.long	0x59
	.uleb128 0x2
	.byte	0x91
	.sleb128 -32
	.uleb128 0xc
	.long	.LASF18
	.byte	0x2
	.value	0x477
	.byte	0x2f
	.long	0x5821
	.uleb128 0x2
	.byte	0x91
	.sleb128 -40
	.byte	0
	.uleb128 0x12
	.long	0x3a8b
	.quad	.LFB3240
	.quad	.LFE3240-.LFB3240
	.uleb128 0x1
	.byte	0x9c
	.long	0x6370
	.uleb128 0xa
	.string	"_Tp"
	.long	0x113
	.uleb128 0x63
	.long	.LASF981
	.uleb128 0x2a
	.string	"__p"
	.byte	0xe
	.byte	0x6d
	.byte	0x15
	.long	0x5a95
	.uleb128 0x2
	.byte	0x91
	.sleb128 -24
	.uleb128 0x9f
	.byte	0xe
	.byte	0x6d
	.byte	0x21
	.byte	0
	.uleb128 0x25
	.long	0x3aaf
	.quad	.LFB3239
	.quad	.LFE3239-.LFB3239
	.uleb128 0x1
	.byte	0x9c
	.long	0x63a4
	.uleb128 0xa
	.string	"_Tp"
	.long	0x113
	.uleb128 0x2a
	.string	"__r"
	.byte	0x11
	.byte	0x31
	.byte	0x16
	.long	0x5aa9
	.uleb128 0x2
	.byte	0x91
	.sleb128 -24
	.byte	0
	.uleb128 0x1f
	.long	0x2504
	.long	0x63c3
	.quad	.LFB3238
	.quad	.LFE3238-.LFB3238
	.uleb128 0x1
	.byte	0x9c
	.long	0x63d0
	.uleb128 0x11
	.long	.LASF961
	.long	0x5aa4
	.uleb128 0x2
	.byte	0x91
	.sleb128 -24
	.byte	0
	.uleb128 0x12
	.long	0x3ad2
	.quad	.LFB3237
	.quad	.LFE3237-.LFB3237
	.uleb128 0x1
	.byte	0x9c
	.long	0x642e
	.uleb128 0xa
	.string	"_II"
	.long	0x59be
	.uleb128 0xa
	.string	"_OI"
	.long	0x59a5
	.uleb128 0xc
	.long	.LASF973
	.byte	0x2
	.value	0x263
	.byte	0xe
	.long	0x59be
	.uleb128 0x2
	.byte	0x91
	.sleb128 -40
	.uleb128 0xc
	.long	.LASF974
	.byte	0x2
	.value	0x263
	.byte	0x1b
	.long	0x59be
	.uleb128 0x2
	.byte	0x91
	.sleb128 -48
	.uleb128 0xc
	.long	.LASF975
	.byte	0x2
	.value	0x263
	.byte	0x27
	.long	0x59a5
	.uleb128 0x2
	.byte	0x91
	.sleb128 -56
	.byte	0
	.uleb128 0x27
	.long	0x111a
	.long	0x644d
	.quad	.LFB3236
	.quad	.LFE3236-.LFB3236
	.uleb128 0x1
	.byte	0x9c
	.long	0x645a
	.uleb128 0x11
	.long	.LASF961
	.long	0x59b4
	.uleb128 0x2
	.byte	0x91
	.sleb128 -24
	.byte	0
	.uleb128 0x1f
	.long	0x10fb
	.long	0x6479
	.quad	.LFB3235
	.quad	.LFE3235-.LFB3235
	.uleb128 0x1
	.byte	0x9c
	.long	0x6486
	.uleb128 0x11
	.long	.LASF961
	.long	0x59b4
	.uleb128 0x2
	.byte	0x91
	.sleb128 -24
	.byte	0
	.uleb128 0x12
	.long	0x3b16
	.quad	.LFB3230
	.quad	.LFE3230-.LFB3230
	.uleb128 0x1
	.byte	0x9c
	.long	0x6504
	.uleb128 0xa
	.string	"_Tp"
	.long	0x113
	.uleb128 0xa
	.string	"_Up"
	.long	0x113
	.uleb128 0xc
	.long	.LASF973
	.byte	0x10
	.value	0x44c
	.byte	0x19
	.long	0x5a95
	.uleb128 0x2
	.byte	0x91
	.sleb128 -40
	.uleb128 0xc
	.long	.LASF974
	.byte	0x10
	.value	0x44c
	.byte	0x27
	.long	0x5a95
	.uleb128 0x2
	.byte	0x91
	.sleb128 -48
	.uleb128 0xc
	.long	.LASF975
	.byte	0x10
	.value	0x44d
	.byte	0xb
	.long	0x5a95
	.uleb128 0x2
	.byte	0x91
	.sleb128 -56
	.uleb128 0xc
	.long	.LASF982
	.byte	0x10
	.value	0x44e
	.byte	0x2b
	.long	0x5abd
	.uleb128 0x2
	.byte	0x91
	.sleb128 -64
	.uleb128 0x29
	.long	.LASF17
	.byte	0x10
	.value	0x450
	.byte	0x11
	.long	0xb51
	.uleb128 0x2
	.byte	0x91
	.sleb128 -24
	.byte	0
	.uleb128 0x25
	.long	0x3b52
	.quad	.LFB3229
	.quad	.LFE3229-.LFB3229
	.uleb128 0x1
	.byte	0x9c
	.long	0x6539
	.uleb128 0x5
	.long	.LASF547
	.long	0x5a95
	.uleb128 0xc
	.long	.LASF980
	.byte	0x2
	.value	0x139
	.byte	0x1c
	.long	0x5a95
	.uleb128 0x2
	.byte	0x91
	.sleb128 -24
	.byte	0
	.uleb128 0x1f
	.long	0x24ab
	.long	0x6558
	.quad	.LFB3228
	.quad	.LFE3228-.LFB3228
	.uleb128 0x1
	.byte	0x9c
	.long	0x658a
	.uleb128 0x11
	.long	.LASF961
	.long	0x5a8b
	.uleb128 0x2
	.byte	0x91
	.sleb128 -24
	.uleb128 0x2a
	.string	"__n"
	.byte	0x9
	.byte	0x70
	.byte	0x1a
	.long	0x24d4
	.uleb128 0x2
	.byte	0x91
	.sleb128 -32
	.uleb128 0x22
	.long	0x5091
	.uleb128 0x2
	.byte	0x91
	.sleb128 -40
	.uleb128 0x4f
	.uleb128 0x50
	.long	.LASF984
	.byte	0x9
	.byte	0x84
	.byte	0x17
	.long	0x54b
	.byte	0
	.byte	0
	.uleb128 0x12
	.long	0xf88
	.quad	.LFB3227
	.quad	.LFE3227-.LFB3227
	.uleb128 0x1
	.byte	0x9c
	.long	0x65fa
	.uleb128 0x5
	.long	.LASF128
	.long	0x5a95
	.uleb128 0x5
	.long	.LASF149
	.long	0x59
	.uleb128 0xc
	.long	.LASF973
	.byte	0x10
	.value	0x28f
	.byte	0x2d
	.long	0x5a95
	.uleb128 0x2
	.byte	0x91
	.sleb128 -40
	.uleb128 0x13
	.string	"__n"
	.byte	0x10
	.value	0x28f
	.byte	0x3c
	.long	0x59
	.uleb128 0x2
	.byte	0x91
	.sleb128 -48
	.uleb128 0x51
	.quad	.LBB43
	.quad	.LBE43-.LBB43
	.uleb128 0x29
	.long	.LASF985
	.byte	0x10
	.value	0x293
	.byte	0x40
	.long	0x65fa
	.uleb128 0x2
	.byte	0x91
	.sleb128 -24
	.byte	0
	.byte	0
	.uleb128 0x9
	.long	0x3747
	.uleb128 0x12
	.long	0x2687
	.quad	.LFB3226
	.quad	.LFE3226-.LFB3226
	.uleb128 0x1
	.byte	0x9c
	.long	0x662b
	.uleb128 0x13
	.string	"__a"
	.byte	0x8
	.value	0x223
	.byte	0x26
	.long	0x5ac7
	.uleb128 0x2
	.byte	0x91
	.sleb128 -24
	.byte	0
	.uleb128 0x12
	.long	0xf3b
	.quad	.LFB3225
	.quad	.LFE3225-.LFB3225
	.uleb128 0x1
	.byte	0x9c
	.long	0x6686
	.uleb128 0x5
	.long	.LASF144
	.long	0x59be
	.uleb128 0x5
	.long	.LASF128
	.long	0x59a5
	.uleb128 0x21
	.long	.LASF973
	.byte	0x10
	.byte	0x91
	.byte	0x26
	.long	0x59be
	.uleb128 0x2
	.byte	0x91
	.sleb128 -24
	.uleb128 0x21
	.long	.LASF974
	.byte	0x10
	.byte	0x91
	.byte	0x3e
	.long	0x59be
	.uleb128 0x2
	.byte	0x91
	.sleb128 -32
	.uleb128 0x21
	.long	.LASF975
	.byte	0x10
	.byte	0x92
	.byte	0x1a
	.long	0x59a5
	.uleb128 0x2
	.byte	0x91
	.sleb128 -40
	.byte	0
	.uleb128 0x1f
	.long	0x10a2
	.long	0x66a5
	.quad	.LFB3224
	.quad	.LFE3224-.LFB3224
	.uleb128 0x1
	.byte	0x9c
	.long	0x66d7
	.uleb128 0x11
	.long	.LASF961
	.long	0x599b
	.uleb128 0x2
	.byte	0x91
	.sleb128 -24
	.uleb128 0x2a
	.string	"__n"
	.byte	0x9
	.byte	0x70
	.byte	0x1a
	.long	0x10cb
	.uleb128 0x2
	.byte	0x91
	.sleb128 -32
	.uleb128 0x22
	.long	0x5091
	.uleb128 0x2
	.byte	0x91
	.sleb128 -40
	.uleb128 0x4f
	.uleb128 0x50
	.long	.LASF984
	.byte	0x9
	.byte	0x84
	.byte	0x17
	.long	0x54b
	.byte	0
	.byte	0
	.uleb128 0xd
	.long	0x60
	.uleb128 0x25
	.long	0x3b76
	.quad	.LFB3223
	.quad	.LFE3223-.LFB3223
	.uleb128 0x1
	.byte	0x9c
	.long	0x671f
	.uleb128 0xa
	.string	"_Tp"
	.long	0x59
	.uleb128 0x2a
	.string	"__a"
	.byte	0x2
	.byte	0xe6
	.byte	0x14
	.long	0x66d7
	.uleb128 0x2
	.byte	0x91
	.sleb128 -24
	.uleb128 0x2a
	.string	"__b"
	.byte	0x2
	.byte	0xe6
	.byte	0x24
	.long	0x66d7
	.uleb128 0x2
	.byte	0x91
	.sleb128 -32
	.byte	0
	.uleb128 0x12
	.long	0x127e
	.quad	.LFB3222
	.quad	.LFE3222-.LFB3222
	.uleb128 0x1
	.byte	0x9c
	.long	0x674b
	.uleb128 0x13
	.string	"__a"
	.byte	0x8
	.value	0x223
	.byte	0x26
	.long	0x59e6
	.uleb128 0x2
	.byte	0x91
	.sleb128 -24
	.byte	0
	.uleb128 0x1b
	.long	0xfec
	.long	0x6758
	.long	0x6767
	.uleb128 0x10
	.long	.LASF961
	.long	0x599b
	.uleb128 0x1
	.long	0x59a0
	.byte	0
	.uleb128 0x34
	.long	0x674b
	.long	.LASF990
	.long	0x678a
	.quad	.LFB3220
	.quad	.LFE3220-.LFB3220
	.uleb128 0x1
	.byte	0x9c
	.long	0x679b
	.uleb128 0x14
	.long	0x6758
	.uleb128 0x2
	.byte	0x91
	.sleb128 -24
	.uleb128 0x14
	.long	0x6761
	.uleb128 0x2
	.byte	0x91
	.sleb128 -32
	.byte	0
	.uleb128 0x1f
	.long	0x10d7
	.long	0x67ba
	.quad	.LFB3209
	.quad	.LFE3209-.LFB3209
	.uleb128 0x1
	.byte	0x9c
	.long	0x67e5
	.uleb128 0x11
	.long	.LASF961
	.long	0x599b
	.uleb128 0x2
	.byte	0x91
	.sleb128 -24
	.uleb128 0x2a
	.string	"__p"
	.byte	0x9
	.byte	0x8e
	.byte	0x17
	.long	0x59a5
	.uleb128 0x2
	.byte	0x91
	.sleb128 -32
	.uleb128 0x2a
	.string	"__n"
	.byte	0x9
	.byte	0x8e
	.byte	0x26
	.long	0x10cb
	.uleb128 0x2
	.byte	0x91
	.sleb128 -40
	.byte	0
	.uleb128 0x12
	.long	0x3b9e
	.quad	.LFB3208
	.quad	.LFE3208-.LFB3208
	.uleb128 0x1
	.byte	0x9c
	.long	0x685c
	.uleb128 0x5
	.long	.LASF144
	.long	0x5a95
	.uleb128 0x5
	.long	.LASF128
	.long	0x5a95
	.uleb128 0x5
	.long	.LASF581
	.long	0x2550
	.uleb128 0xc
	.long	.LASF973
	.byte	0x10
	.value	0x467
	.byte	0x21
	.long	0x5a95
	.uleb128 0x2
	.byte	0x91
	.sleb128 -40
	.uleb128 0xc
	.long	.LASF974
	.byte	0x10
	.value	0x467
	.byte	0x39
	.long	0x5a95
	.uleb128 0x2
	.byte	0x91
	.sleb128 -48
	.uleb128 0xc
	.long	.LASF975
	.byte	0x10
	.value	0x468
	.byte	0x15
	.long	0x5a95
	.uleb128 0x2
	.byte	0x91
	.sleb128 -56
	.uleb128 0xc
	.long	.LASF982
	.byte	0x10
	.value	0x468
	.byte	0x2b
	.long	0x5abd
	.uleb128 0x2
	.byte	0x91
	.sleb128 -64
	.byte	0
	.uleb128 0x12
	.long	0x25f5
	.quad	.LFB3207
	.quad	.LFE3207-.LFB3207
	.uleb128 0x1
	.byte	0x9c
	.long	0x6898
	.uleb128 0x13
	.string	"__a"
	.byte	0x8
	.value	0x1cf
	.byte	0x20
	.long	0x5ac2
	.uleb128 0x2
	.byte	0x91
	.sleb128 -24
	.uleb128 0x13
	.string	"__n"
	.byte	0x8
	.value	0x1cf
	.byte	0x2f
	.long	0x2627
	.uleb128 0x2
	.byte	0x91
	.sleb128 -32
	.byte	0
	.uleb128 0x25
	.long	0x3be3
	.quad	.LFB3206
	.quad	.LFE3206-.LFB3206
	.uleb128 0x1
	.byte	0x9c
	.long	0x68db
	.uleb128 0xa
	.string	"_Tp"
	.long	0x59
	.uleb128 0x2a
	.string	"__a"
	.byte	0x2
	.byte	0xfe
	.byte	0x14
	.long	0x66d7
	.uleb128 0x2
	.byte	0x91
	.sleb128 -24
	.uleb128 0x2a
	.string	"__b"
	.byte	0x2
	.byte	0xfe
	.byte	0x24
	.long	0x66d7
	.uleb128 0x2
	.byte	0x91
	.sleb128 -32
	.byte	0
	.uleb128 0x12
	.long	0x3c0b
	.quad	.LFB3205
	.quad	.LFE3205-.LFB3205
	.uleb128 0x1
	.byte	0x9c
	.long	0x693a
	.uleb128 0x5
	.long	.LASF128
	.long	0x5a95
	.uleb128 0x5
	.long	.LASF149
	.long	0x59
	.uleb128 0xc
	.long	.LASF973
	.byte	0x10
	.value	0x2b3
	.byte	0x30
	.long	0x5a95
	.uleb128 0x2
	.byte	0x91
	.sleb128 -40
	.uleb128 0x13
	.string	"__n"
	.byte	0x10
	.value	0x2b3
	.byte	0x3f
	.long	0x59
	.uleb128 0x2
	.byte	0x91
	.sleb128 -48
	.uleb128 0xa0
	.long	.LASF1067
	.byte	0x10
	.value	0x2b8
	.byte	0x16
	.long	0x4c54
	.uleb128 0x2
	.byte	0x91
	.sleb128 -17
	.byte	0
	.uleb128 0x27
	.long	0x2895
	.long	0x6959
	.quad	.LFB3204
	.quad	.LFE3204-.LFB3204
	.uleb128 0x1
	.byte	0x9c
	.long	0x6966
	.uleb128 0x11
	.long	.LASF961
	.long	0x5b1c
	.uleb128 0x2
	.byte	0x91
	.sleb128 -24
	.byte	0
	.uleb128 0x12
	.long	0x35ae
	.quad	.LFB3203
	.quad	.LFE3203-.LFB3203
	.uleb128 0x1
	.byte	0x9c
	.long	0x69b2
	.uleb128 0x13
	.string	"__a"
	.byte	0x5
	.value	0x777
	.byte	0x29
	.long	0x5b67
	.uleb128 0x2
	.byte	0x91
	.sleb128 -40
	.uleb128 0x29
	.long	.LASF986
	.byte	0x5
	.value	0x77c
	.byte	0xf
	.long	0x566
	.uleb128 0x2
	.byte	0x91
	.sleb128 -24
	.uleb128 0x29
	.long	.LASF987
	.byte	0x5
	.value	0x77e
	.byte	0xf
	.long	0x566
	.uleb128 0x2
	.byte	0x91
	.sleb128 -32
	.byte	0
	.uleb128 0x12
	.long	0x3c3d
	.quad	.LFB3201
	.quad	.LFE3201-.LFB3201
	.uleb128 0x1
	.byte	0x9c
	.long	0x6a2b
	.uleb128 0x5
	.long	.LASF144
	.long	0x59be
	.uleb128 0x5
	.long	.LASF128
	.long	0x59a5
	.uleb128 0x21
	.long	.LASF973
	.byte	0x10
	.byte	0xa3
	.byte	0x27
	.long	0x59be
	.uleb128 0x2
	.byte	0x91
	.sleb128 -40
	.uleb128 0x21
	.long	.LASF974
	.byte	0x10
	.byte	0xa3
	.byte	0x3f
	.long	0x59be
	.uleb128 0x2
	.byte	0x91
	.sleb128 -48
	.uleb128 0x21
	.long	.LASF975
	.byte	0x10
	.byte	0xa4
	.byte	0x1b
	.long	0x59a5
	.uleb128 0x2
	.byte	0x91
	.sleb128 -56
	.uleb128 0x3b
	.long	.LASF988
	.byte	0x10
	.byte	0xae
	.byte	0x12
	.long	0x4c54
	.uleb128 0x2
	.byte	0x91
	.sleb128 -17
	.uleb128 0x3b
	.long	.LASF989
	.byte	0x10
	.byte	0xb5
	.byte	0x12
	.long	0x4c54
	.uleb128 0x2
	.byte	0x91
	.sleb128 -18
	.byte	0
	.uleb128 0x12
	.long	0x11ec
	.quad	.LFB3200
	.quad	.LFE3200-.LFB3200
	.uleb128 0x1
	.byte	0x9c
	.long	0x6a67
	.uleb128 0x13
	.string	"__a"
	.byte	0x8
	.value	0x1cf
	.byte	0x20
	.long	0x59e1
	.uleb128 0x2
	.byte	0x91
	.sleb128 -24
	.uleb128 0x13
	.string	"__n"
	.byte	0x8
	.value	0x1cf
	.byte	0x2f
	.long	0x121e
	.uleb128 0x2
	.byte	0x91
	.sleb128 -32
	.byte	0
	.uleb128 0x12
	.long	0x21a5
	.quad	.LFB3199
	.quad	.LFE3199-.LFB3199
	.uleb128 0x1
	.byte	0x9c
	.long	0x6ab3
	.uleb128 0x13
	.string	"__a"
	.byte	0x5
	.value	0x777
	.byte	0x29
	.long	0x5a81
	.uleb128 0x2
	.byte	0x91
	.sleb128 -40
	.uleb128 0x29
	.long	.LASF986
	.byte	0x5
	.value	0x77c
	.byte	0xf
	.long	0x566
	.uleb128 0x2
	.byte	0x91
	.sleb128 -24
	.uleb128 0x29
	.long	.LASF987
	.byte	0x5
	.value	0x77e
	.byte	0xf
	.long	0x566
	.uleb128 0x2
	.byte	0x91
	.sleb128 -32
	.byte	0
	.uleb128 0x1b
	.long	0x1310
	.long	0x6ac0
	.long	0x6aca
	.uleb128 0x10
	.long	.LASF961
	.long	0x59fa
	.byte	0
	.uleb128 0x34
	.long	0x6ab3
	.long	.LASF991
	.long	0x6aed
	.quad	.LFB3197
	.quad	.LFE3197-.LFB3197
	.uleb128 0x1
	.byte	0x9c
	.long	0x6af6
	.uleb128 0x14
	.long	0x6ac0
	.uleb128 0x2
	.byte	0x91
	.sleb128 -24
	.byte	0
	.uleb128 0x1b
	.long	0x1174
	.long	0x6b03
	.long	0x6b19
	.uleb128 0x10
	.long	.LASF961
	.long	0x59d2
	.uleb128 0x6c
	.string	"__a"
	.byte	0x6
	.byte	0x9f
	.byte	0x22
	.long	0x59d7
	.byte	0
	.uleb128 0x24
	.long	0x6af6
	.long	.LASF992
	.long	0x6b3c
	.quad	.LFB3194
	.quad	.LFE3194-.LFB3194
	.uleb128 0x1
	.byte	0x9c
	.long	0x6b4d
	.uleb128 0x14
	.long	0x6b03
	.uleb128 0x2
	.byte	0x91
	.sleb128 -24
	.uleb128 0x14
	.long	0x6b0c
	.uleb128 0x2
	.byte	0x91
	.sleb128 -32
	.byte	0
	.uleb128 0x1f
	.long	0x24e0
	.long	0x6b6c
	.quad	.LFB3192
	.quad	.LFE3192-.LFB3192
	.uleb128 0x1
	.byte	0x9c
	.long	0x6b97
	.uleb128 0x11
	.long	.LASF961
	.long	0x5a8b
	.uleb128 0x2
	.byte	0x91
	.sleb128 -24
	.uleb128 0x2a
	.string	"__p"
	.byte	0x9
	.byte	0x8e
	.byte	0x17
	.long	0x5a95
	.uleb128 0x2
	.byte	0x91
	.sleb128 -32
	.uleb128 0x2a
	.string	"__n"
	.byte	0x9
	.byte	0x8e
	.byte	0x26
	.long	0x24d4
	.uleb128 0x2
	.byte	0x91
	.sleb128 -40
	.byte	0
	.uleb128 0x25
	.long	0xbc6
	.quad	.LFB3170
	.quad	.LFE3170-.LFB3170
	.uleb128 0x1
	.byte	0x9c
	.long	0x6bcc
	.uleb128 0x5
	.long	.LASF128
	.long	0x59a5
	.uleb128 0x22
	.long	0x59a5
	.uleb128 0x2
	.byte	0x91
	.sleb128 -24
	.uleb128 0x22
	.long	0x59a5
	.uleb128 0x2
	.byte	0x91
	.sleb128 -32
	.byte	0
	.uleb128 0x12
	.long	0x125d
	.quad	.LFB3169
	.quad	.LFE3169-.LFB3169
	.uleb128 0x1
	.byte	0x9c
	.long	0x6c18
	.uleb128 0x13
	.string	"__a"
	.byte	0x8
	.value	0x1ef
	.byte	0x22
	.long	0x59e1
	.uleb128 0x2
	.byte	0x91
	.sleb128 -24
	.uleb128 0x13
	.string	"__p"
	.byte	0x8
	.value	0x1ef
	.byte	0x2f
	.long	0x11df
	.uleb128 0x2
	.byte	0x91
	.sleb128 -32
	.uleb128 0x13
	.string	"__n"
	.byte	0x8
	.value	0x1ef
	.byte	0x3e
	.long	0x121e
	.uleb128 0x2
	.byte	0x91
	.sleb128 -40
	.byte	0
	.uleb128 0x25
	.long	0xbea
	.quad	.LFB3168
	.quad	.LFE3168-.LFB3168
	.uleb128 0x1
	.byte	0x9c
	.long	0x6c4d
	.uleb128 0x5
	.long	.LASF128
	.long	0x5a95
	.uleb128 0x22
	.long	0x5a95
	.uleb128 0x2
	.byte	0x91
	.sleb128 -24
	.uleb128 0x22
	.long	0x5a95
	.uleb128 0x2
	.byte	0x91
	.sleb128 -32
	.byte	0
	.uleb128 0x12
	.long	0x2bac
	.quad	.LFB3167
	.quad	.LFE3167-.LFB3167
	.uleb128 0x1
	.byte	0x9c
	.long	0x6ca9
	.uleb128 0xc
	.long	.LASF973
	.byte	0x5
	.value	0x1f3
	.byte	0x1b
	.long	0x2b2f
	.uleb128 0x2
	.byte	0x91
	.sleb128 -24
	.uleb128 0xc
	.long	.LASF974
	.byte	0x5
	.value	0x1f3
	.byte	0x2c
	.long	0x2b2f
	.uleb128 0x2
	.byte	0x91
	.sleb128 -32
	.uleb128 0xc
	.long	.LASF975
	.byte	0x5
	.value	0x1f3
	.byte	0x3c
	.long	0x2b2f
	.uleb128 0x2
	.byte	0x91
	.sleb128 -40
	.uleb128 0xc
	.long	.LASF982
	.byte	0x5
	.value	0x1f4
	.byte	0x15
	.long	0x5b2b
	.uleb128 0x2
	.byte	0x91
	.sleb128 -48
	.byte	0
	.uleb128 0x1f
	.long	0x2a02
	.long	0x6cc8
	.quad	.LFB3166
	.quad	.LFE3166-.LFB3166
	.uleb128 0x1
	.byte	0x9c
	.long	0x6ce5
	.uleb128 0x11
	.long	.LASF961
	.long	0x5b12
	.uleb128 0x2
	.byte	0x91
	.sleb128 -24
	.uleb128 0x13
	.string	"__n"
	.byte	0x5
	.value	0x177
	.byte	0x1a
	.long	0x559
	.uleb128 0x2
	.byte	0x91
	.sleb128 -32
	.byte	0
	.uleb128 0x1f
	.long	0x3566
	.long	0x6d04
	.quad	.LFB3165
	.quad	.LFE3165-.LFB3165
	.uleb128 0x1
	.byte	0x9c
	.long	0x6d42
	.uleb128 0x11
	.long	.LASF961
	.long	0x5b5d
	.uleb128 0x2
	.byte	0x91
	.sleb128 -56
	.uleb128 0x13
	.string	"__n"
	.byte	0x5
	.value	0x763
	.byte	0x1e
	.long	0x2c45
	.uleb128 0x2
	.byte	0x91
	.sleb128 -64
	.uleb128 0x13
	.string	"__s"
	.byte	0x5
	.value	0x763
	.byte	0x2f
	.long	0x2e7
	.uleb128 0x3
	.byte	0x91
	.sleb128 -72
	.uleb128 0x29
	.long	.LASF993
	.byte	0x5
	.value	0x768
	.byte	0x12
	.long	0x2c52
	.uleb128 0x2
	.byte	0x91
	.sleb128 -40
	.byte	0
	.uleb128 0x12
	.long	0x3c73
	.quad	.LFB3164
	.quad	.LFE3164-.LFB3164
	.uleb128 0x1
	.byte	0x9c
	.long	0x6da1
	.uleb128 0x5
	.long	.LASF128
	.long	0x5a95
	.uleb128 0x5
	.long	.LASF149
	.long	0x59
	.uleb128 0xa
	.string	"_Tp"
	.long	0x113
	.uleb128 0xc
	.long	.LASF973
	.byte	0x10
	.value	0x2fc
	.byte	0x32
	.long	0x5a95
	.uleb128 0x2
	.byte	0x91
	.sleb128 -24
	.uleb128 0x13
	.string	"__n"
	.byte	0x10
	.value	0x2fc
	.byte	0x41
	.long	0x59
	.uleb128 0x2
	.byte	0x91
	.sleb128 -32
	.uleb128 0x22
	.long	0x5abd
	.uleb128 0x2
	.byte	0x91
	.sleb128 -40
	.byte	0
	.uleb128 0x1f
	.long	0x303a
	.long	0x6dc0
	.quad	.LFB3163
	.quad	.LFE3163-.LFB3163
	.uleb128 0x1
	.byte	0x9c
	.long	0x6dcd
	.uleb128 0x11
	.long	.LASF961
	.long	0x5b5d
	.uleb128 0x2
	.byte	0x91
	.sleb128 -24
	.byte	0
	.uleb128 0x27
	.long	0x4a56
	.long	0x6dec
	.quad	.LFB3162
	.quad	.LFE3162-.LFB3162
	.uleb128 0x1
	.byte	0x9c
	.long	0x6df9
	.uleb128 0x11
	.long	.LASF961
	.long	0x5d41
	.uleb128 0x2
	.byte	0x91
	.sleb128 -24
	.byte	0
	.uleb128 0x12
	.long	0x3cb3
	.quad	.LFB3161
	.quad	.LFE3161-.LFB3161
	.uleb128 0x1
	.byte	0x9c
	.long	0x6e68
	.uleb128 0x5
	.long	.LASF144
	.long	0x59be
	.uleb128 0x5
	.long	.LASF128
	.long	0x59a5
	.uleb128 0xa
	.string	"_Tp"
	.long	0x4461
	.uleb128 0xc
	.long	.LASF973
	.byte	0x10
	.value	0x16d
	.byte	0x2b
	.long	0x59be
	.uleb128 0x2
	.byte	0x91
	.sleb128 -24
	.uleb128 0xc
	.long	.LASF974
	.byte	0x10
	.value	0x16d
	.byte	0x43
	.long	0x59be
	.uleb128 0x2
	.byte	0x91
	.sleb128 -32
	.uleb128 0xc
	.long	.LASF975
	.byte	0x10
	.value	0x16e
	.byte	0x18
	.long	0x59a5
	.uleb128 0x2
	.byte	0x91
	.sleb128 -40
	.uleb128 0x22
	.long	0x59dc
	.uleb128 0x2
	.byte	0x91
	.sleb128 -48
	.byte	0
	.uleb128 0x1f
	.long	0x15f9
	.long	0x6e87
	.quad	.LFB3160
	.quad	.LFE3160-.LFB3160
	.uleb128 0x1
	.byte	0x9c
	.long	0x6ea4
	.uleb128 0x11
	.long	.LASF961
	.long	0x5a31
	.uleb128 0x2
	.byte	0x91
	.sleb128 -24
	.uleb128 0x13
	.string	"__n"
	.byte	0x5
	.value	0x177
	.byte	0x1a
	.long	0x559
	.uleb128 0x2
	.byte	0x91
	.sleb128 -32
	.byte	0
	.uleb128 0x12
	.long	0x2187
	.quad	.LFB3159
	.quad	.LFE3159-.LFB3159
	.uleb128 0x1
	.byte	0x9c
	.long	0x6ee0
	.uleb128 0x13
	.string	"__n"
	.byte	0x5
	.value	0x76e
	.byte	0x23
	.long	0x183c
	.uleb128 0x2
	.byte	0x91
	.sleb128 -56
	.uleb128 0x13
	.string	"__a"
	.byte	0x5
	.value	0x76e
	.byte	0x3e
	.long	0x5a54
	.uleb128 0x2
	.byte	0x91
	.sleb128 -64
	.byte	0
	.uleb128 0x25
	.long	0x3cf8
	.quad	.LFB3158
	.quad	.LFE3158-.LFB3158
	.uleb128 0x1
	.byte	0x9c
	.long	0x6f2b
	.uleb128 0x5
	.long	.LASF594
	.long	0x59be
	.uleb128 0x21
	.long	.LASF973
	.byte	0xb
	.byte	0x63
	.byte	0x26
	.long	0x59be
	.uleb128 0x2
	.byte	0x91
	.sleb128 -24
	.uleb128 0x21
	.long	.LASF974
	.byte	0xb
	.byte	0x63
	.byte	0x45
	.long	0x59be
	.uleb128 0x2
	.byte	0x91
	.sleb128 -32
	.uleb128 0x22
	.long	0xb9e
	.uleb128 0x2
	.byte	0x91
	.sleb128 0
	.byte	0
	.uleb128 0xd
	.long	0x59c3
	.uleb128 0x25
	.long	0x3d25
	.quad	.LFB3157
	.quad	.LFE3157-.LFB3157
	.uleb128 0x1
	.byte	0x9c
	.long	0x6f5d
	.uleb128 0x5
	.long	.LASF559
	.long	0x59be
	.uleb128 0x22
	.long	0x6f2b
	.uleb128 0x2
	.byte	0x91
	.sleb128 -24
	.byte	0
	.uleb128 0x27
	.long	0x2358
	.long	0x6f7c
	.quad	.LFB3156
	.quad	.LFE3156-.LFB3156
	.uleb128 0x1
	.byte	0x9c
	.long	0x6f89
	.uleb128 0x11
	.long	.LASF961
	.long	0x5d28
	.uleb128 0x2
	.byte	0x91
	.sleb128 -24
	.byte	0
	.uleb128 0x1b
	.long	0x13c4
	.long	0x6f96
	.long	0x6fac
	.uleb128 0x10
	.long	.LASF961
	.long	0x5a13
	.uleb128 0x6c
	.string	"__a"
	.byte	0x5
	.byte	0x8f
	.byte	0x25
	.long	0x5a18
	.byte	0
	.uleb128 0x24
	.long	0x6f89
	.long	.LASF994
	.long	0x6fcf
	.quad	.LFB3154
	.quad	.LFE3154-.LFB3154
	.uleb128 0x1
	.byte	0x9c
	.long	0x6fe0
	.uleb128 0x14
	.long	0x6f96
	.uleb128 0x2
	.byte	0x91
	.sleb128 -24
	.uleb128 0x14
	.long	0x6f9f
	.uleb128 0x2
	.byte	0x91
	.sleb128 -32
	.byte	0
	.uleb128 0x12
	.long	0x2666
	.quad	.LFB3152
	.quad	.LFE3152-.LFB3152
	.uleb128 0x1
	.byte	0x9c
	.long	0x702c
	.uleb128 0x13
	.string	"__a"
	.byte	0x8
	.value	0x1ef
	.byte	0x22
	.long	0x5ac2
	.uleb128 0x2
	.byte	0x91
	.sleb128 -24
	.uleb128 0x13
	.string	"__p"
	.byte	0x8
	.value	0x1ef
	.byte	0x2f
	.long	0x25e8
	.uleb128 0x2
	.byte	0x91
	.sleb128 -32
	.uleb128 0x13
	.string	"__n"
	.byte	0x8
	.value	0x1ef
	.byte	0x3e
	.long	0x2627
	.uleb128 0x2
	.byte	0x91
	.sleb128 -40
	.byte	0
	.uleb128 0x1b
	.long	0x23db
	.long	0x7039
	.long	0x7043
	.uleb128 0x10
	.long	.LASF961
	.long	0x5a8b
	.byte	0
	.uleb128 0x34
	.long	0x702c
	.long	.LASF995
	.long	0x7066
	.quad	.LFB3150
	.quad	.LFE3150-.LFB3150
	.uleb128 0x1
	.byte	0x9c
	.long	0x706f
	.uleb128 0x14
	.long	0x7039
	.uleb128 0x2
	.byte	0x91
	.sleb128 -24
	.byte	0
	.uleb128 0x12
	.long	0x3d48
	.quad	.LFB3094
	.quad	.LFE3094-.LFB3094
	.uleb128 0x1
	.byte	0x9c
	.long	0x70b2
	.uleb128 0x5
	.long	.LASF128
	.long	0x59a5
	.uleb128 0x21
	.long	.LASF973
	.byte	0xe
	.byte	0xb6
	.byte	0x1f
	.long	0x59a5
	.uleb128 0x2
	.byte	0x91
	.sleb128 -24
	.uleb128 0x21
	.long	.LASF974
	.byte	0xe
	.byte	0xb6
	.byte	0x39
	.long	0x59a5
	.uleb128 0x2
	.byte	0x91
	.sleb128 -32
	.byte	0
	.uleb128 0x1f
	.long	0x161b
	.long	0x70d1
	.quad	.LFB3093
	.quad	.LFE3093-.LFB3093
	.uleb128 0x1
	.byte	0x9c
	.long	0x70fe
	.uleb128 0x11
	.long	.LASF961
	.long	0x5a31
	.uleb128 0x2
	.byte	0x91
	.sleb128 -24
	.uleb128 0x13
	.string	"__p"
	.byte	0x5
	.value	0x17f
	.byte	0x1d
	.long	0x1387
	.uleb128 0x2
	.byte	0x91
	.sleb128 -32
	.uleb128 0x13
	.string	"__n"
	.byte	0x5
	.value	0x17f
	.byte	0x29
	.long	0x559
	.uleb128 0x2
	.byte	0x91
	.sleb128 -40
	.byte	0
	.uleb128 0x12
	.long	0x3d6c
	.quad	.LFB3092
	.quad	.LFE3092-.LFB3092
	.uleb128 0x1
	.byte	0x9c
	.long	0x7141
	.uleb128 0x5
	.long	.LASF128
	.long	0x5a95
	.uleb128 0x21
	.long	.LASF973
	.byte	0xe
	.byte	0xb6
	.byte	0x1f
	.long	0x5a95
	.uleb128 0x2
	.byte	0x91
	.sleb128 -24
	.uleb128 0x21
	.long	.LASF974
	.byte	0xe
	.byte	0xb6
	.byte	0x39
	.long	0x5a95
	.uleb128 0x2
	.byte	0x91
	.sleb128 -32
	.byte	0
	.uleb128 0x1f
	.long	0x35c7
	.long	0x7160
	.quad	.LFB3091
	.quad	.LFE3091-.LFB3091
	.uleb128 0x1
	.byte	0x9c
	.long	0x719e
	.uleb128 0x11
	.long	.LASF961
	.long	0x5b35
	.uleb128 0x2
	.byte	0x91
	.sleb128 -40
	.uleb128 0xc
	.long	.LASF876
	.byte	0x5
	.value	0x788
	.byte	0x1f
	.long	0x2b2f
	.uleb128 0x2
	.byte	0x91
	.sleb128 -48
	.uleb128 0x51
	.quad	.LBB38
	.quad	.LBE38-.LBB38
	.uleb128 0x6d
	.string	"__n"
	.value	0x78a
	.byte	0x10
	.long	0x2c45
	.uleb128 0x2
	.byte	0x91
	.sleb128 -24
	.byte	0
	.byte	0
	.uleb128 0x1f
	.long	0x34d1
	.long	0x71bd
	.quad	.LFB3086
	.quad	.LFE3086-.LFB3086
	.uleb128 0x1
	.byte	0x9c
	.long	0x7228
	.uleb128 0x11
	.long	.LASF961
	.long	0x5b35
	.uleb128 0x3
	.byte	0x91
	.sleb128 -72
	.uleb128 0x13
	.string	"__n"
	.byte	0xd
	.value	0x273
	.byte	0x21
	.long	0x2c45
	.uleb128 0x3
	.byte	0x91
	.sleb128 -80
	.uleb128 0x6e
	.long	.LLRL0
	.uleb128 0x29
	.long	.LASF996
	.byte	0xd
	.value	0x277
	.byte	0x14
	.long	0x2c52
	.uleb128 0x2
	.byte	0x91
	.sleb128 -40
	.uleb128 0x29
	.long	.LASF997
	.byte	0xd
	.value	0x278
	.byte	0xe
	.long	0x2c45
	.uleb128 0x2
	.byte	0x91
	.sleb128 -48
	.uleb128 0x6e
	.long	.LLRL1
	.uleb128 0x29
	.long	.LASF993
	.byte	0xd
	.value	0x288
	.byte	0x18
	.long	0x2c52
	.uleb128 0x2
	.byte	0x91
	.sleb128 -56
	.uleb128 0x29
	.long	.LASF998
	.byte	0xd
	.value	0x28a
	.byte	0x10
	.long	0x2b2f
	.uleb128 0x2
	.byte	0x91
	.sleb128 -64
	.byte	0
	.byte	0
	.byte	0
	.uleb128 0x27
	.long	0x301a
	.long	0x7247
	.quad	.LFB3085
	.quad	.LFE3085-.LFB3085
	.uleb128 0x1
	.byte	0x9c
	.long	0x7254
	.uleb128 0x11
	.long	.LASF961
	.long	0x5b5d
	.uleb128 0x2
	.byte	0x91
	.sleb128 -24
	.byte	0
	.uleb128 0x27
	.long	0x48b9
	.long	0x7273
	.quad	.LFB3084
	.quad	.LFE3084-.LFB3084
	.uleb128 0x1
	.byte	0x9c
	.long	0x7280
	.uleb128 0x11
	.long	.LASF961
	.long	0x5d41
	.uleb128 0x2
	.byte	0x91
	.sleb128 -24
	.byte	0
	.uleb128 0x27
	.long	0x4906
	.long	0x729f
	.quad	.LFB3083
	.quad	.LFE3083-.LFB3083
	.uleb128 0x1
	.byte	0x9c
	.long	0x72ac
	.uleb128 0x11
	.long	.LASF961
	.long	0x5d32
	.uleb128 0x2
	.byte	0x91
	.sleb128 -24
	.byte	0
	.uleb128 0xd
	.long	0x4a89
	.uleb128 0x12
	.long	0x4bac
	.quad	.LFB3082
	.quad	.LFE3082-.LFB3082
	.uleb128 0x1
	.byte	0x9c
	.long	0x72ff
	.uleb128 0x5
	.long	.LASF547
	.long	0x59a5
	.uleb128 0x5
	.long	.LASF733
	.long	0x169a
	.uleb128 0xc
	.long	.LASF999
	.byte	0xc
	.value	0x4d5
	.byte	0x40
	.long	0x72ac
	.uleb128 0x2
	.byte	0x91
	.sleb128 -40
	.uleb128 0xc
	.long	.LASF1000
	.byte	0xc
	.value	0x4d6
	.byte	0x39
	.long	0x72ac
	.uleb128 0x2
	.byte	0x91
	.sleb128 -48
	.byte	0
	.uleb128 0x1b
	.long	0x488d
	.long	0x730c
	.long	0x7323
	.uleb128 0x10
	.long	.LASF961
	.long	0x5d32
	.uleb128 0x3e
	.string	"__i"
	.byte	0xc
	.value	0x430
	.byte	0x2a
	.long	0x5d37
	.byte	0
	.uleb128 0x34
	.long	0x72ff
	.long	.LASF1001
	.long	0x7346
	.quad	.LFB3080
	.quad	.LFE3080-.LFB3080
	.uleb128 0x1
	.byte	0x9c
	.long	0x7357
	.uleb128 0x14
	.long	0x730c
	.uleb128 0x2
	.byte	0x91
	.sleb128 -24
	.uleb128 0x14
	.long	0x7315
	.uleb128 0x2
	.byte	0x91
	.sleb128 -32
	.byte	0
	.uleb128 0x1f
	.long	0x2272
	.long	0x737f
	.quad	.LFB3077
	.quad	.LFE3077-.LFB3077
	.uleb128 0x1
	.byte	0x9c
	.long	0x73c4
	.uleb128 0x5
	.long	.LASF128
	.long	0x59be
	.uleb128 0x11
	.long	.LASF961
	.long	0x5a4f
	.uleb128 0x2
	.byte	0x91
	.sleb128 -56
	.uleb128 0xc
	.long	.LASF973
	.byte	0x5
	.value	0x692
	.byte	0x27
	.long	0x59be
	.uleb128 0x2
	.byte	0x91
	.sleb128 -64
	.uleb128 0xc
	.long	.LASF974
	.byte	0x5
	.value	0x692
	.byte	0x41
	.long	0x59be
	.uleb128 0x3
	.byte	0x91
	.sleb128 -72
	.uleb128 0x22
	.long	0xb78
	.uleb128 0x2
	.byte	0x91
	.sleb128 0
	.uleb128 0x6d
	.string	"__n"
	.value	0x695
	.byte	0x14
	.long	0x1849
	.uleb128 0x2
	.byte	0x91
	.sleb128 -40
	.byte	0
	.uleb128 0x12
	.long	0x3d90
	.quad	.LFB3078
	.quad	.LFE3078-.LFB3078
	.uleb128 0x1
	.byte	0x9c
	.long	0x7407
	.uleb128 0x5
	.long	.LASF144
	.long	0x59be
	.uleb128 0x21
	.long	.LASF973
	.byte	0xb
	.byte	0x93
	.byte	0x1d
	.long	0x59be
	.uleb128 0x2
	.byte	0x91
	.sleb128 -24
	.uleb128 0x21
	.long	.LASF974
	.byte	0xb
	.byte	0x93
	.byte	0x35
	.long	0x59be
	.uleb128 0x2
	.byte	0x91
	.sleb128 -32
	.byte	0
	.uleb128 0x1f
	.long	0x2396
	.long	0x7426
	.quad	.LFB3076
	.quad	.LFE3076-.LFB3076
	.uleb128 0x1
	.byte	0x9c
	.long	0x7433
	.uleb128 0x11
	.long	.LASF961
	.long	0x5d28
	.uleb128 0x2
	.byte	0x91
	.sleb128 -40
	.byte	0
	.uleb128 0x27
	.long	0x2377
	.long	0x7452
	.quad	.LFB3075
	.quad	.LFE3075-.LFB3075
	.uleb128 0x1
	.byte	0x9c
	.long	0x745f
	.uleb128 0x11
	.long	.LASF961
	.long	0x5d28
	.uleb128 0x2
	.byte	0x91
	.sleb128 -24
	.byte	0
	.uleb128 0x1b
	.long	0x14f1
	.long	0x746c
	.long	0x7483
	.uleb128 0x10
	.long	.LASF961
	.long	0x5a31
	.uleb128 0x3e
	.string	"__a"
	.byte	0x5
	.value	0x13e
	.byte	0x2a
	.long	0x5a3b
	.byte	0
	.uleb128 0x24
	.long	0x745f
	.long	.LASF1002
	.long	0x74a6
	.quad	.LFB3073
	.quad	.LFE3073-.LFB3073
	.uleb128 0x1
	.byte	0x9c
	.long	0x74b7
	.uleb128 0x14
	.long	0x746c
	.uleb128 0x2
	.byte	0x91
	.sleb128 -24
	.uleb128 0x14
	.long	0x7475
	.uleb128 0x2
	.byte	0x91
	.sleb128 -32
	.byte	0
	.uleb128 0x1b
	.long	0x100b
	.long	0x74c4
	.long	0x74d7
	.uleb128 0x10
	.long	.LASF961
	.long	0x599b
	.uleb128 0x10
	.long	.LASF1003
	.long	0x11a
	.byte	0
	.uleb128 0x34
	.long	0x74b7
	.long	.LASF1004
	.long	0x74fa
	.quad	.LFB3070
	.quad	.LFE3070-.LFB3070
	.uleb128 0x1
	.byte	0x9c
	.long	0x7503
	.uleb128 0x14
	.long	0x74c4
	.uleb128 0x2
	.byte	0x91
	.sleb128 -24
	.byte	0
	.uleb128 0x1b
	.long	0xfd2
	.long	0x7510
	.long	0x751a
	.uleb128 0x10
	.long	.LASF961
	.long	0x599b
	.byte	0
	.uleb128 0x34
	.long	0x7503
	.long	.LASF1005
	.long	0x753d
	.quad	.LFB3067
	.quad	.LFE3067-.LFB3067
	.uleb128 0x1
	.byte	0x9c
	.long	0x7546
	.uleb128 0x14
	.long	0x7510
	.uleb128 0x2
	.byte	0x91
	.sleb128 -24
	.byte	0
	.uleb128 0x1f
	.long	0x2a24
	.long	0x7565
	.quad	.LFB3065
	.quad	.LFE3065-.LFB3065
	.uleb128 0x1
	.byte	0x9c
	.long	0x7592
	.uleb128 0x11
	.long	.LASF961
	.long	0x5b12
	.uleb128 0x2
	.byte	0x91
	.sleb128 -24
	.uleb128 0x13
	.string	"__p"
	.byte	0x5
	.value	0x17f
	.byte	0x1d
	.long	0x2790
	.uleb128 0x2
	.byte	0x91
	.sleb128 -32
	.uleb128 0x13
	.string	"__n"
	.byte	0x5
	.value	0x17f
	.byte	0x29
	.long	0x559
	.uleb128 0x2
	.byte	0x91
	.sleb128 -40
	.byte	0
	.uleb128 0x1b
	.long	0x2414
	.long	0x759f
	.long	0x75b2
	.uleb128 0x10
	.long	.LASF961
	.long	0x5a8b
	.uleb128 0x10
	.long	.LASF1003
	.long	0x11a
	.byte	0
	.uleb128 0x34
	.long	0x7592
	.long	.LASF1006
	.long	0x75d5
	.quad	.LFB3063
	.quad	.LFE3063-.LFB3063
	.uleb128 0x1
	.byte	0x9c
	.long	0x75de
	.uleb128 0x14
	.long	0x759f
	.uleb128 0x2
	.byte	0x91
	.sleb128 -24
	.byte	0
	.uleb128 0x1b
	.long	0x2719
	.long	0x75eb
	.long	0x75f5
	.uleb128 0x10
	.long	.LASF961
	.long	0x5adb
	.byte	0
	.uleb128 0x34
	.long	0x75de
	.long	.LASF1007
	.long	0x7618
	.quad	.LFB3060
	.quad	.LFE3060-.LFB3060
	.uleb128 0x1
	.byte	0x9c
	.long	0x7621
	.uleb128 0x14
	.long	0x75eb
	.uleb128 0x2
	.byte	0x91
	.sleb128 -24
	.byte	0
	.uleb128 0x1b
	.long	0x2563
	.long	0x762e
	.long	0x7638
	.uleb128 0x10
	.long	.LASF961
	.long	0x5ab3
	.byte	0
	.uleb128 0x24
	.long	0x7621
	.long	.LASF1008
	.long	0x765b
	.quad	.LFB3057
	.quad	.LFE3057-.LFB3057
	.uleb128 0x1
	.byte	0x9c
	.long	0x7664
	.uleb128 0x14
	.long	0x762e
	.uleb128 0x2
	.byte	0x91
	.sleb128 -24
	.byte	0
	.uleb128 0x27
	.long	0x1d20
	.long	0x7683
	.quad	.LFB2987
	.quad	.LFE2987-.LFB2987
	.uleb128 0x1
	.byte	0x9c
	.long	0x76a0
	.uleb128 0x11
	.long	.LASF961
	.long	0x5a4f
	.uleb128 0x2
	.byte	0x91
	.sleb128 -24
	.uleb128 0x13
	.string	"__n"
	.byte	0x5
	.value	0x461
	.byte	0x1c
	.long	0x183c
	.uleb128 0x2
	.byte	0x91
	.sleb128 -32
	.byte	0
	.uleb128 0x1f
	.long	0x5bc6
	.long	0x76bf
	.quad	.LFB2986
	.quad	.LFE2986-.LFB2986
	.uleb128 0x1
	.byte	0x9c
	.long	0x76cc
	.uleb128 0x11
	.long	.LASF961
	.long	0x5d19
	.uleb128 0x2
	.byte	0x91
	.sleb128 -24
	.byte	0
	.uleb128 0x1f
	.long	0x5ba7
	.long	0x76eb
	.quad	.LFB2985
	.quad	.LFE2985-.LFB2985
	.uleb128 0x1
	.byte	0x9c
	.long	0x76f8
	.uleb128 0x11
	.long	.LASF961
	.long	0x5d19
	.uleb128 0x2
	.byte	0x91
	.sleb128 -24
	.byte	0
	.uleb128 0x27
	.long	0x1c11
	.long	0x7717
	.quad	.LFB2984
	.quad	.LFE2984-.LFB2984
	.uleb128 0x1
	.byte	0x9c
	.long	0x7724
	.uleb128 0x11
	.long	.LASF961
	.long	0x5a77
	.uleb128 0x2
	.byte	0x91
	.sleb128 -24
	.byte	0
	.uleb128 0x12
	.long	0x3db8
	.quad	.LFB2983
	.quad	.LFE2983-.LFB2983
	.uleb128 0x1
	.byte	0x9c
	.long	0x777a
	.uleb128 0x5
	.long	.LASF128
	.long	0x59a5
	.uleb128 0xa
	.string	"_Tp"
	.long	0x4461
	.uleb128 0xc
	.long	.LASF973
	.byte	0x8
	.value	0x34f
	.byte	0x1f
	.long	0x59a5
	.uleb128 0x2
	.byte	0x91
	.sleb128 -24
	.uleb128 0xc
	.long	.LASF974
	.byte	0x8
	.value	0x34f
	.byte	0x39
	.long	0x59a5
	.uleb128 0x2
	.byte	0x91
	.sleb128 -32
	.uleb128 0x22
	.long	0x59dc
	.uleb128 0x2
	.byte	0x91
	.sleb128 -40
	.byte	0
	.uleb128 0x27
	.long	0x146f
	.long	0x7799
	.quad	.LFB2982
	.quad	.LFE2982-.LFB2982
	.uleb128 0x1
	.byte	0x9c
	.long	0x77a6
	.uleb128 0x11
	.long	.LASF961
	.long	0x5a31
	.uleb128 0x2
	.byte	0x91
	.sleb128 -24
	.byte	0
	.uleb128 0x1b
	.long	0x15d2
	.long	0x77b3
	.long	0x77c6
	.uleb128 0x10
	.long	.LASF961
	.long	0x5a31
	.uleb128 0x10
	.long	.LASF1003
	.long	0x11a
	.byte	0
	.uleb128 0x24
	.long	0x77a6
	.long	.LASF1009
	.long	0x77e9
	.quad	.LFB2980
	.quad	.LFE2980-.LFB2980
	.uleb128 0x1
	.byte	0x9c
	.long	0x77f2
	.uleb128 0x14
	.long	0x77b3
	.uleb128 0x2
	.byte	0x91
	.sleb128 -24
	.byte	0
	.uleb128 0x52
	.long	0x1445
	.byte	0x5
	.byte	0x85
	.byte	0xe
	.long	0x7802
	.long	0x7815
	.uleb128 0x10
	.long	.LASF961
	.long	0x5a13
	.uleb128 0x10
	.long	.LASF1003
	.long	0x11a
	.byte	0
	.uleb128 0x24
	.long	0x77f2
	.long	.LASF1010
	.long	0x7838
	.quad	.LFB2978
	.quad	.LFE2978-.LFB2978
	.uleb128 0x1
	.byte	0x9c
	.long	0x7841
	.uleb128 0x14
	.long	0x7802
	.uleb128 0x2
	.byte	0x91
	.sleb128 -24
	.byte	0
	.uleb128 0x12
	.long	0x3deb
	.quad	.LFB2975
	.quad	.LFE2975-.LFB2975
	.uleb128 0x1
	.byte	0x9c
	.long	0x7897
	.uleb128 0x5
	.long	.LASF128
	.long	0x5a95
	.uleb128 0xa
	.string	"_Tp"
	.long	0x113
	.uleb128 0xc
	.long	.LASF973
	.byte	0x8
	.value	0x34f
	.byte	0x1f
	.long	0x5a95
	.uleb128 0x2
	.byte	0x91
	.sleb128 -24
	.uleb128 0xc
	.long	.LASF974
	.byte	0x8
	.value	0x34f
	.byte	0x39
	.long	0x5a95
	.uleb128 0x2
	.byte	0x91
	.sleb128 -32
	.uleb128 0x22
	.long	0x5abd
	.uleb128 0x2
	.byte	0x91
	.sleb128 -40
	.byte	0
	.uleb128 0x27
	.long	0x2878
	.long	0x78b6
	.quad	.LFB2974
	.quad	.LFE2974-.LFB2974
	.uleb128 0x1
	.byte	0x9c
	.long	0x78c3
	.uleb128 0x11
	.long	.LASF961
	.long	0x5b12
	.uleb128 0x2
	.byte	0x91
	.sleb128 -24
	.byte	0
	.uleb128 0x1f
	.long	0x305a
	.long	0x78e2
	.quad	.LFB2973
	.quad	.LFE2973-.LFB2973
	.uleb128 0x1
	.byte	0x9c
	.long	0x78ff
	.uleb128 0x11
	.long	.LASF961
	.long	0x5b35
	.uleb128 0x2
	.byte	0x91
	.sleb128 -24
	.uleb128 0xc
	.long	.LASF1011
	.byte	0x5
	.value	0x3f0
	.byte	0x18
	.long	0x2c45
	.uleb128 0x2
	.byte	0x91
	.sleb128 -32
	.byte	0
	.uleb128 0xd
	.long	0x5ce0
	.uleb128 0x12
	.long	0x3e1e
	.quad	.LFB2972
	.quad	.LFE2972-.LFB2972
	.uleb128 0x1
	.byte	0x9c
	.long	0x7962
	.uleb128 0x5
	.long	.LASF609
	.long	0x4854
	.uleb128 0x5
	.long	.LASF610
	.long	0x7d8d
	.uleb128 0xc
	.long	.LASF973
	.byte	0x7
	.value	0xec5
	.byte	0x1d
	.long	0x4854
	.uleb128 0x2
	.byte	0x91
	.sleb128 -24
	.uleb128 0xc
	.long	.LASF974
	.byte	0x7
	.value	0xec5
	.byte	0x35
	.long	0x4854
	.uleb128 0x2
	.byte	0x91
	.sleb128 -32
	.uleb128 0x13
	.string	"__f"
	.byte	0x7
	.value	0xec5
	.byte	0x47
	.long	0x7d8d
	.uleb128 0x2
	.byte	0x91
	.sleb128 -40
	.byte	0
	.uleb128 0x1f
	.long	0x1abd
	.long	0x7981
	.quad	.LFB2971
	.quad	.LFE2971-.LFB2971
	.uleb128 0x1
	.byte	0x9c
	.long	0x798e
	.uleb128 0x11
	.long	.LASF961
	.long	0x5a4f
	.uleb128 0x2
	.byte	0x91
	.sleb128 -40
	.byte	0
	.uleb128 0x1f
	.long	0x1a70
	.long	0x79ad
	.quad	.LFB2970
	.quad	.LFE2970-.LFB2970
	.uleb128 0x1
	.byte	0x9c
	.long	0x79ba
	.uleb128 0x11
	.long	.LASF961
	.long	0x5a4f
	.uleb128 0x2
	.byte	0x91
	.sleb128 -40
	.byte	0
	.uleb128 0x1b
	.long	0x1967
	.long	0x79c7
	.long	0x79eb
	.uleb128 0x10
	.long	.LASF961
	.long	0x5a4f
	.uleb128 0x3e
	.string	"__l"
	.byte	0x5
	.value	0x2a1
	.byte	0x2b
	.long	0x22cf
	.uleb128 0x3e
	.string	"__a"
	.byte	0x5
	.value	0x2a2
	.byte	0x1d
	.long	0x5a54
	.byte	0
	.uleb128 0x24
	.long	0x79ba
	.long	.LASF1012
	.long	0x7a0e
	.quad	.LFB2968
	.quad	.LFE2968-.LFB2968
	.uleb128 0x1
	.byte	0x9c
	.long	0x7a28
	.uleb128 0x14
	.long	0x79c7
	.uleb128 0x2
	.byte	0x91
	.sleb128 -56
	.uleb128 0x14
	.long	0x79d0
	.uleb128 0x3
	.byte	0x91
	.sleb128 -80
	.uleb128 0x14
	.long	0x79dd
	.uleb128 0x2
	.byte	0x91
	.sleb128 -64
	.byte	0
	.uleb128 0x1b
	.long	0x11b4
	.long	0x7a35
	.long	0x7a48
	.uleb128 0x10
	.long	.LASF961
	.long	0x59d2
	.uleb128 0x10
	.long	.LASF1003
	.long	0x11a
	.byte	0
	.uleb128 0x24
	.long	0x7a28
	.long	.LASF1013
	.long	0x7a6b
	.quad	.LFB2965
	.quad	.LFE2965-.LFB2965
	.uleb128 0x1
	.byte	0x9c
	.long	0x7a74
	.uleb128 0x14
	.long	0x7a35
	.uleb128 0x2
	.byte	0x91
	.sleb128 -24
	.byte	0
	.uleb128 0x1b
	.long	0x115a
	.long	0x7a81
	.long	0x7a8b
	.uleb128 0x10
	.long	.LASF961
	.long	0x59d2
	.byte	0
	.uleb128 0x24
	.long	0x7a74
	.long	.LASF1014
	.long	0x7aae
	.quad	.LFB2962
	.quad	.LFE2962-.LFB2962
	.uleb128 0x1
	.byte	0x9c
	.long	0x7ab7
	.uleb128 0x14
	.long	0x7a81
	.uleb128 0x2
	.byte	0x91
	.sleb128 -24
	.byte	0
	.uleb128 0x1b
	.long	0x29db
	.long	0x7ac4
	.long	0x7ad7
	.uleb128 0x10
	.long	.LASF961
	.long	0x5b12
	.uleb128 0x10
	.long	.LASF1003
	.long	0x11a
	.byte	0
	.uleb128 0x24
	.long	0x7ab7
	.long	.LASF1015
	.long	0x7afa
	.quad	.LFB2959
	.quad	.LFE2959-.LFB2959
	.uleb128 0x1
	.byte	0x9c
	.long	0x7b03
	.uleb128 0x14
	.long	0x7ac4
	.uleb128 0x2
	.byte	0x91
	.sleb128 -24
	.byte	0
	.uleb128 0x1b
	.long	0x25bd
	.long	0x7b10
	.long	0x7b23
	.uleb128 0x10
	.long	.LASF961
	.long	0x5ab3
	.uleb128 0x10
	.long	.LASF1003
	.long	0x11a
	.byte	0
	.uleb128 0x24
	.long	0x7b03
	.long	.LASF1016
	.long	0x7b46
	.quad	.LFB2956
	.quad	.LFE2956-.LFB2956
	.uleb128 0x1
	.byte	0x9c
	.long	0x7b4f
	.uleb128 0x14
	.long	0x7b10
	.uleb128 0x2
	.byte	0x91
	.sleb128 -24
	.byte	0
	.uleb128 0x1b
	.long	0x27b3
	.long	0x7b5c
	.long	0x7b66
	.uleb128 0x10
	.long	.LASF961
	.long	0x5af4
	.byte	0
	.uleb128 0x24
	.long	0x7b4f
	.long	.LASF1017
	.long	0x7b89
	.quad	.LFB2953
	.quad	.LFE2953-.LFB2953
	.uleb128 0x1
	.byte	0x9c
	.long	0x7b92
	.uleb128 0x14
	.long	0x7b5c
	.uleb128 0x2
	.byte	0x91
	.sleb128 -24
	.byte	0
	.uleb128 0xa1
	.long	0x3e55
	.long	0x7bc1
	.uleb128 0x5
	.long	.LASF369
	.long	0x873
	.uleb128 0xa2
	.long	.LASF1018
	.byte	0x2c
	.value	0x20b
	.byte	0x2e
	.long	0x5826
	.uleb128 0x3e
	.string	"__c"
	.byte	0x2c
	.value	0x20b
	.byte	0x3a
	.long	0x107
	.byte	0
	.uleb128 0x1f
	.long	0x5c42
	.long	0x7bfc
	.quad	.LFB2846
	.quad	.LFE2846-.LFB2846
	.uleb128 0x1
	.byte	0x9c
	.long	0x7c96
	.uleb128 0x6a
	.string	"T"
	.long	0x7bfc
	.uleb128 0x33
	.long	0x113
	.uleb128 0x33
	.long	0x113
	.uleb128 0x33
	.long	0x113
	.uleb128 0x33
	.long	0x113
	.byte	0
	.uleb128 0x11
	.long	.LASF961
	.long	0x5d0f
	.uleb128 0x3
	.byte	0x91
	.sleb128 -168
	.uleb128 0xa3
	.byte	0x3
	.byte	0x47
	.byte	0x24
	.long	0x7c37
	.uleb128 0x22
	.long	0x113
	.uleb128 0x3
	.byte	0x91
	.sleb128 -172
	.uleb128 0x22
	.long	0x113
	.uleb128 0x3
	.byte	0x91
	.sleb128 -176
	.uleb128 0x22
	.long	0x113
	.uleb128 0x3
	.byte	0x91
	.sleb128 -180
	.uleb128 0x22
	.long	0x113
	.uleb128 0x3
	.byte	0x91
	.sleb128 -184
	.byte	0
	.uleb128 0x3b
	.long	.LASF1019
	.byte	0x3
	.byte	0x4a
	.byte	0x32
	.long	0x169a
	.uleb128 0x3
	.byte	0x91
	.sleb128 -160
	.uleb128 0x3b
	.long	.LASF1020
	.byte	0x3
	.byte	0x4b
	.byte	0x25
	.long	0x5ce0
	.uleb128 0x3
	.byte	0x91
	.sleb128 -80
	.uleb128 0x3b
	.long	.LASF1021
	.byte	0x3
	.byte	0x50
	.byte	0x25
	.long	0x5ce0
	.uleb128 0x2
	.byte	0x91
	.sleb128 -56
	.uleb128 0x3b
	.long	.LASF1022
	.byte	0x3
	.byte	0x51
	.byte	0x25
	.long	0x5ce0
	.uleb128 0x2
	.byte	0x91
	.sleb128 -64
	.uleb128 0x51
	.quad	.LBB13
	.quad	.LBE13-.LBB13
	.uleb128 0x6f
	.string	"i"
	.byte	0x3
	.byte	0x54
	.byte	0x2e
	.long	0x5ce0
	.uleb128 0x3
	.byte	0x91
	.sleb128 -72
	.byte	0
	.byte	0
	.uleb128 0x27
	.long	0x3129
	.long	0x7cb5
	.quad	.LFB2845
	.quad	.LFE2845-.LFB2845
	.uleb128 0x1
	.byte	0x9c
	.long	0x7cd2
	.uleb128 0x11
	.long	.LASF961
	.long	0x5b35
	.uleb128 0x2
	.byte	0x91
	.sleb128 -24
	.uleb128 0x13
	.string	"__n"
	.byte	0x5
	.value	0x461
	.byte	0x1c
	.long	0x2c45
	.uleb128 0x2
	.byte	0x91
	.sleb128 -32
	.byte	0
	.uleb128 0x1b
	.long	0x198d
	.long	0x7cdf
	.long	0x7cf2
	.uleb128 0x10
	.long	.LASF961
	.long	0x5a4f
	.uleb128 0x10
	.long	.LASF1003
	.long	0x11a
	.byte	0
	.uleb128 0x24
	.long	0x7cd2
	.long	.LASF1023
	.long	0x7d15
	.quad	.LFB2843
	.quad	.LFE2843-.LFB2843
	.uleb128 0x1
	.byte	0x9c
	.long	0x7d1e
	.uleb128 0x14
	.long	0x7cdf
	.uleb128 0x2
	.byte	0x91
	.sleb128 -24
	.byte	0
	.uleb128 0x1b
	.long	0x2d96
	.long	0x7d2b
	.long	0x7d3e
	.uleb128 0x10
	.long	.LASF961
	.long	0x5b35
	.uleb128 0x10
	.long	.LASF1003
	.long	0x11a
	.byte	0
	.uleb128 0x24
	.long	0x7d1e
	.long	.LASF1024
	.long	0x7d61
	.quad	.LFB2840
	.quad	.LFE2840-.LFB2840
	.uleb128 0x1
	.byte	0x9c
	.long	0x7d6a
	.uleb128 0x14
	.long	0x7d2b
	.uleb128 0x2
	.byte	0x91
	.sleb128 -24
	.byte	0
	.uleb128 0x1b
	.long	0x5b8d
	.long	0x7d77
	.long	0x7e77
	.uleb128 0x10
	.long	.LASF961
	.long	0x5d0f
	.uleb128 0x4f
	.uleb128 0x50
	.long	.LASF1022
	.byte	0x3
	.byte	0x2c
	.byte	0x25
	.long	0x5ce0
	.uleb128 0xa4
	.byte	0x8
	.byte	0x3
	.byte	0x2d
	.byte	0x3b
	.uleb128 0x53
	.long	.LASF1025
	.long	.LASF1026
	.long	0x7da4
	.long	0x7db9
	.uleb128 0x2
	.long	0x7da9
	.uleb128 0x9
	.long	0x7d8d
	.uleb128 0x1
	.long	0x7db3
	.uleb128 0x26
	.long	0x7d8d
	.byte	0
	.uleb128 0x53
	.long	.LASF1025
	.long	.LASF1027
	.long	0x7dca
	.long	0x7ddf
	.uleb128 0x2
	.long	0x7da9
	.uleb128 0x1
	.long	0x7dd4
	.uleb128 0xd
	.long	0x7dd9
	.uleb128 0x6
	.long	0x7d8d
	.byte	0
	.uleb128 0xa5
	.long	.LASF1025
	.long	.LASF1029
	.long	0x7df1
	.long	0x7df7
	.uleb128 0x2
	.long	0x7da9
	.byte	0
	.uleb128 0x53
	.long	.LASF1030
	.long	.LASF1031
	.long	0x7e08
	.long	0x7e13
	.uleb128 0x2
	.long	0x7da9
	.uleb128 0x2
	.long	0x113
	.byte	0
	.uleb128 0x7
	.long	.LASF1032
	.byte	0x3
	.byte	0x2e
	.byte	0x21
	.long	0x78ff
	.byte	0
	.uleb128 0xa6
	.long	.LASF58
	.long	.LASF1068
	.long	0x7e4a
	.quad	.LFB2836
	.quad	.LFE2836-.LFB2836
	.uleb128 0x1
	.byte	0x9c
	.uleb128 0x9
	.long	0x7dd9
	.uleb128 0x6
	.long	0x7e40
	.uleb128 0x11
	.long	.LASF1033
	.long	0x7e45
	.uleb128 0x2
	.byte	0x91
	.sleb128 -24
	.uleb128 0x21
	.long	.LASF291
	.byte	0x3
	.byte	0x2d
	.byte	0x43
	.long	0x113
	.uleb128 0x2
	.byte	0x91
	.sleb128 -28
	.uleb128 0xa7
	.long	.LASF1022
	.long	0x78ff
	.uleb128 0x3
	.byte	0x91
	.sleb128 -24
	.byte	0x6
	.byte	0
	.byte	0
	.byte	0
	.byte	0
	.uleb128 0x24
	.long	0x7d6a
	.long	.LASF1034
	.long	0x7e9a
	.quad	.LFB2837
	.quad	.LFE2837-.LFB2837
	.uleb128 0x1
	.byte	0x9c
	.long	0x7ed5
	.uleb128 0x14
	.long	0x7d77
	.uleb128 0x3
	.byte	0x91
	.sleb128 -72
	.uleb128 0xa8
	.long	0x7d80
	.long	0x7eb4
	.uleb128 0xa9
	.long	0x7d81
	.byte	0
	.uleb128 0xaa
	.long	0x7d80
	.quad	.LBB7
	.quad	.LBE7-.LBB7
	.uleb128 0xab
	.long	0x7d81
	.uleb128 0x2
	.byte	0x91
	.sleb128 -64
	.byte	0
	.byte	0
	.uleb128 0x1b
	.long	0x2bd6
	.long	0x7ee2
	.long	0x7eec
	.uleb128 0x10
	.long	.LASF961
	.long	0x5b35
	.byte	0
	.uleb128 0x24
	.long	0x7ed5
	.long	.LASF1035
	.long	0x7f0f
	.quad	.LFB2834
	.quad	.LFE2834-.LFB2834
	.uleb128 0x1
	.byte	0x9c
	.long	0x7f18
	.uleb128 0x14
	.long	0x7ee2
	.uleb128 0x2
	.byte	0x91
	.sleb128 -24
	.byte	0
	.uleb128 0x1b
	.long	0x28e1
	.long	0x7f25
	.long	0x7f2f
	.uleb128 0x10
	.long	.LASF961
	.long	0x5b12
	.byte	0
	.uleb128 0x24
	.long	0x7f18
	.long	.LASF1036
	.long	0x7f52
	.quad	.LFB2832
	.quad	.LFE2832-.LFB2832
	.uleb128 0x1
	.byte	0x9c
	.long	0x7f5b
	.uleb128 0x14
	.long	0x7f25
	.uleb128 0x2
	.byte	0x91
	.sleb128 -24
	.byte	0
	.uleb128 0x52
	.long	0x284e
	.byte	0x5
	.byte	0x85
	.byte	0xe
	.long	0x7f6b
	.long	0x7f7e
	.uleb128 0x10
	.long	.LASF961
	.long	0x5af4
	.uleb128 0x10
	.long	.LASF1003
	.long	0x11a
	.byte	0
	.uleb128 0x24
	.long	0x7f5b
	.long	.LASF1037
	.long	0x7fa1
	.quad	.LFB2830
	.quad	.LFE2830-.LFB2830
	.uleb128 0x1
	.byte	0x9c
	.long	0x7faa
	.uleb128 0x14
	.long	0x7f6b
	.uleb128 0x2
	.byte	0x91
	.sleb128 -24
	.byte	0
	.uleb128 0xac
	.long	.LASF1038
	.byte	0x4
	.byte	0x9
	.byte	0x5
	.long	0x113
	.quad	.LFB2558
	.quad	.LFE2558-.LFB2558
	.uleb128 0x1
	.byte	0x9c
	.long	0x7ffc
	.uleb128 0x21
	.long	.LASF1039
	.byte	0x4
	.byte	0x9
	.byte	0xe
	.long	0x113
	.uleb128 0x3
	.byte	0x91
	.sleb128 -84
	.uleb128 0x21
	.long	.LASF1040
	.byte	0x4
	.byte	0x9
	.byte	0x1b
	.long	0x533d
	.uleb128 0x3
	.byte	0x91
	.sleb128 -96
	.uleb128 0x6f
	.string	"t"
	.byte	0x4
	.byte	0xc
	.byte	0x1d
	.long	0x7ffc
	.uleb128 0x3
	.byte	0x91
	.sleb128 -80
	.byte	0
	.uleb128 0x4
	.long	.LASF1041
	.byte	0x4
	.byte	0x7
	.byte	0x7
	.long	0x5b80
	.uleb128 0x52
	.long	0x5c91
	.byte	0x3
	.byte	0x27
	.byte	0xf
	.long	0x8018
	.long	0x802b
	.uleb128 0x10
	.long	.LASF961
	.long	0x5d0f
	.uleb128 0x10
	.long	.LASF1003
	.long	0x11a
	.byte	0
	.uleb128 0x24
	.long	0x8008
	.long	.LASF1042
	.long	0x804e
	.quad	.LFB2560
	.quad	.LFE2560-.LFB2560
	.uleb128 0x1
	.byte	0x9c
	.long	0x8057
	.uleb128 0x14
	.long	0x8018
	.uleb128 0x2
	.byte	0x91
	.sleb128 -24
	.byte	0
	.uleb128 0x12
	.long	0x5cec
	.quad	.LFB2549
	.quad	.LFE2549-.LFB2549
	.uleb128 0x1
	.byte	0x9c
	.long	0x8091
	.uleb128 0x21
	.long	.LASF1043
	.byte	0x3
	.byte	0x1d
	.byte	0x3d
	.long	0x5ce0
	.uleb128 0x2
	.byte	0x91
	.sleb128 -40
	.uleb128 0x21
	.long	.LASF1044
	.byte	0x3
	.byte	0x1e
	.byte	0x3d
	.long	0x5ce0
	.uleb128 0x2
	.byte	0x91
	.sleb128 -48
	.byte	0
	.uleb128 0x25
	.long	0x3e7e
	.quad	.LFB652
	.quad	.LFE652-.LFB652
	.uleb128 0x1
	.byte	0x9c
	.long	0x80bd
	.uleb128 0x13
	.string	"__n"
	.byte	0x2
	.value	0x3f1
	.byte	0x23
	.long	0x59
	.uleb128 0x2
	.byte	0x91
	.sleb128 -24
	.byte	0
	.uleb128 0xad
	.long	.LASF965
	.byte	0x1
	.byte	0xae
	.byte	0x21
	.long	.LASF1045
	.long	0xa1
	.quad	.LFB40
	.quad	.LFE40-.LFB40
	.uleb128 0x1
	.byte	0x9c
	.long	0x80fc
	.uleb128 0x22
	.long	0x559
	.uleb128 0x2
	.byte	0x91
	.sleb128 -24
	.uleb128 0x2a
	.string	"__p"
	.byte	0x1
	.byte	0xae
	.byte	0x41
	.long	0xa1
	.uleb128 0x2
	.byte	0x91
	.sleb128 -32
	.byte	0
	.uleb128 0x20
	.byte	0x10
	.byte	0x5
	.long	.LASF1046
	.uleb128 0x20
	.byte	0x10
	.byte	0x7
	.long	.LASF1047
	.byte	0
	.section	.debug_abbrev,"",@progbits
.Ldebug_abbrev0:
	.uleb128 0x1
	.uleb128 0x5
	.byte	0
	.uleb128 0x49
	.uleb128 0x13
	.byte	0
	.byte	0
	.uleb128 0x2
	.uleb128 0x5
	.byte	0
	.uleb128 0x49
	.uleb128 0x13
	.uleb128 0x34
	.uleb128 0x19
	.byte	0
	.byte	0
	.uleb128 0x3
	.uleb128 0x8
	.byte	0
	.uleb128 0x3a
	.uleb128 0xb
	.uleb128 0x3b
	.uleb128 0xb
	.uleb128 0x39
	.uleb128 0xb
	.uleb128 0x18
	.uleb128 0x13
	.byte	0
	.byte	0
	.uleb128 0x4
	.uleb128 0x16
	.byte	0
	.uleb128 0x3
	.uleb128 0xe
	.uleb128 0x3a
	.uleb128 0xb
	.uleb128 0x3b
	.uleb128 0xb
	.uleb128 0x39
	.uleb128 0xb
	.uleb128 0x49
	.uleb128 0x13
	.byte	0
	.byte	0
	.uleb128 0x5
	.uleb128 0x2f
	.byte	0
	.uleb128 0x3
	.uleb128 0xe
	.uleb128 0x49
	.uleb128 0x13
	.byte	0
	.byte	0
	.uleb128 0x6
	.uleb128 0x26
	.byte	0
	.uleb128 0x49
	.uleb128 0x13
	.byte	0
	.byte	0
	.uleb128 0x7
	.uleb128 0xd
	.byte	0
	.uleb128 0x3
	.uleb128 0xe
	.uleb128 0x3a
	.uleb128 0xb
	.uleb128 0x3b
	.uleb128 0xb
	.uleb128 0x39
	.uleb128 0xb
	.uleb128 0x49
	.uleb128 0x13
	.uleb128 0x38
	.uleb128 0xb
	.byte	0
	.byte	0
	.uleb128 0x8
	.uleb128 0x2e
	.byte	0x1
	.uleb128 0x3f
	.uleb128 0x19
	.uleb128 0x3
	.uleb128 0xe
	.uleb128 0x3a
	.uleb128 0xb
	.uleb128 0x3b
	.uleb128 0x5
	.uleb128 0x39
	.uleb128 0xb
	.uleb128 0x6e
	.uleb128 0xe
	.uleb128 0x49
	.uleb128 0x13
	.uleb128 0x32
	.uleb128 0xb
	.uleb128 0x3c
	.uleb128 0x19
	.uleb128 0x64
	.uleb128 0x13
	.uleb128 0x1
	.uleb128 0x13
	.byte	0
	.byte	0
	.uleb128 0x9
	.uleb128 0xf
	.byte	0
	.uleb128 0xb
	.uleb128 0x21
	.sleb128 8
	.uleb128 0x49
	.uleb128 0x13
	.byte	0
	.byte	0
	.uleb128 0xa
	.uleb128 0x2f
	.byte	0
	.uleb128 0x3
	.uleb128 0x8
	.uleb128 0x49
	.uleb128 0x13
	.byte	0
	.byte	0
	.uleb128 0xb
	.uleb128 0x2e
	.byte	0x1
	.uleb128 0x3f
	.uleb128 0x19
	.uleb128 0x3
	.uleb128 0xe
	.uleb128 0x3a
	.uleb128 0xb
	.uleb128 0x3b
	.uleb128 0x5
	.uleb128 0x39
	.uleb128 0xb
	.uleb128 0x49
	.uleb128 0x13
	.uleb128 0x3c
	.uleb128 0x19
	.uleb128 0x1
	.uleb128 0x13
	.byte	0
	.byte	0
	.uleb128 0xc
	.uleb128 0x5
	.byte	0
	.uleb128 0x3
	.uleb128 0xe
	.uleb128 0x3a
	.uleb128 0xb
	.uleb128 0x3b
	.uleb128 0x5
	.uleb128 0x39
	.uleb128 0xb
	.uleb128 0x49
	.uleb128 0x13
	.uleb128 0x2
	.uleb128 0x18
	.byte	0
	.byte	0
	.uleb128 0xd
	.uleb128 0x10
	.byte	0
	.uleb128 0xb
	.uleb128 0x21
	.sleb128 8
	.uleb128 0x49
	.uleb128 0x13
	.byte	0
	.byte	0
	.uleb128 0xe
	.uleb128 0x2e
	.byte	0x1
	.uleb128 0x3f
	.uleb128 0x19
	.uleb128 0x3
	.uleb128 0xe
	.uleb128 0x3a
	.uleb128 0xb
	.uleb128 0x3b
	.uleb128 0x5
	.uleb128 0x39
	.uleb128 0xb
	.uleb128 0x6e
	.uleb128 0xe
	.uleb128 0x49
	.uleb128 0x13
	.uleb128 0x3c
	.uleb128 0x19
	.uleb128 0x1
	.uleb128 0x13
	.byte	0
	.byte	0
	.uleb128 0xf
	.uleb128 0x2e
	.byte	0x1
	.uleb128 0x3f
	.uleb128 0x19
	.uleb128 0x3
	.uleb128 0xe
	.uleb128 0x3a
	.uleb128 0xb
	.uleb128 0x3b
	.uleb128 0x5
	.uleb128 0x39
	.uleb128 0xb
	.uleb128 0x6e
	.uleb128 0xe
	.uleb128 0x32
	.uleb128 0xb
	.uleb128 0x3c
	.uleb128 0x19
	.uleb128 0x64
	.uleb128 0x13
	.uleb128 0x1
	.uleb128 0x13
	.byte	0
	.byte	0
	.uleb128 0x10
	.uleb128 0x5
	.byte	0
	.uleb128 0x3
	.uleb128 0xe
	.uleb128 0x49
	.uleb128 0x13
	.uleb128 0x34
	.uleb128 0x19
	.byte	0
	.byte	0
	.uleb128 0x11
	.uleb128 0x5
	.byte	0
	.uleb128 0x3
	.uleb128 0xe
	.uleb128 0x49
	.uleb128 0x13
	.uleb128 0x34
	.uleb128 0x19
	.uleb128 0x2
	.uleb128 0x18
	.byte	0
	.byte	0
	.uleb128 0x12
	.uleb128 0x2e
	.byte	0x1
	.uleb128 0x47
	.uleb128 0x13
	.uleb128 0x11
	.uleb128 0x1
	.uleb128 0x12
	.uleb128 0x7
	.uleb128 0x40
	.uleb128 0x18
	.uleb128 0x7c
	.uleb128 0x19
	.uleb128 0x1
	.uleb128 0x13
	.byte	0
	.byte	0
	.uleb128 0x13
	.uleb128 0x5
	.byte	0
	.uleb128 0x3
	.uleb128 0x8
	.uleb128 0x3a
	.uleb128 0xb
	.uleb128 0x3b
	.uleb128 0x5
	.uleb128 0x39
	.uleb128 0xb
	.uleb128 0x49
	.uleb128 0x13
	.uleb128 0x2
	.uleb128 0x18
	.byte	0
	.byte	0
	.uleb128 0x14
	.uleb128 0x5
	.byte	0
	.uleb128 0x31
	.uleb128 0x13
	.uleb128 0x2
	.uleb128 0x18
	.byte	0
	.byte	0
	.uleb128 0x15
	.uleb128 0x2e
	.byte	0x1
	.uleb128 0x3f
	.uleb128 0x19
	.uleb128 0x3
	.uleb128 0xe
	.uleb128 0x3a
	.uleb128 0xb
	.uleb128 0x3b
	.uleb128 0xb
	.uleb128 0x39
	.uleb128 0xb
	.uleb128 0x49
	.uleb128 0x13
	.uleb128 0x3c
	.uleb128 0x19
	.uleb128 0x1
	.uleb128 0x13
	.byte	0
	.byte	0
	.uleb128 0x16
	.uleb128 0x2e
	.byte	0x1
	.uleb128 0x3f
	.uleb128 0x19
	.uleb128 0x3
	.uleb128 0xe
	.uleb128 0x3a
	.uleb128 0xb
	.uleb128 0x3b
	.uleb128 0xb
	.uleb128 0x39
	.uleb128 0xb
	.uleb128 0x6e
	.uleb128 0xe
	.uleb128 0x49
	.uleb128 0x13
	.uleb128 0x32
	.uleb128 0xb
	.uleb128 0x3c
	.uleb128 0x19
	.uleb128 0x64
	.uleb128 0x13
	.uleb128 0x1
	.uleb128 0x13
	.byte	0
	.byte	0
	.uleb128 0x17
	.uleb128 0x13
	.byte	0x1
	.uleb128 0x3
	.uleb128 0xe
	.uleb128 0xb
	.uleb128 0xb
	.uleb128 0x3a
	.uleb128 0xb
	.uleb128 0x3b
	.uleb128 0xb
	.uleb128 0x39
	.uleb128 0xb
	.uleb128 0x1
	.uleb128 0x13
	.byte	0
	.byte	0
	.uleb128 0x18
	.uleb128 0x8
	.byte	0
	.uleb128 0x3a
	.uleb128 0xb
	.uleb128 0x3b
	.uleb128 0x5
	.uleb128 0x39
	.uleb128 0xb
	.uleb128 0x18
	.uleb128 0x13
	.byte	0
	.byte	0
	.uleb128 0x19
	.uleb128 0x16
	.byte	0
	.uleb128 0x3
	.uleb128 0xe
	.uleb128 0x3a
	.uleb128 0xb
	.uleb128 0x3b
	.uleb128 0x5
	.uleb128 0x39
	.uleb128 0xb
	.uleb128 0x49
	.uleb128 0x13
	.byte	0
	.byte	0
	.uleb128 0x1a
	.uleb128 0x2e
	.byte	0x1
	.uleb128 0x3f
	.uleb128 0x19
	.uleb128 0x3
	.uleb128 0xe
	.uleb128 0x3a
	.uleb128 0x21
	.sleb128 5
	.uleb128 0x3b
	.uleb128 0x5
	.uleb128 0x39
	.uleb128 0x21
	.sleb128 7
	.uleb128 0x6e
	.uleb128 0xe
	.uleb128 0x3c
	.uleb128 0x19
	.uleb128 0x64
	.uleb128 0x13
	.uleb128 0x1
	.uleb128 0x13
	.byte	0
	.byte	0
	.uleb128 0x1b
	.uleb128 0x2e
	.byte	0x1
	.uleb128 0x47
	.uleb128 0x13
	.uleb128 0x64
	.uleb128 0x13
	.uleb128 0x20
	.uleb128 0x21
	.sleb128 2
	.uleb128 0x1
	.uleb128 0x13
	.byte	0
	.byte	0
	.uleb128 0x1c
	.uleb128 0x16
	.byte	0
	.uleb128 0x3
	.uleb128 0xe
	.uleb128 0x3a
	.uleb128 0xb
	.uleb128 0x3b
	.uleb128 0x5
	.uleb128 0x39
	.uleb128 0xb
	.uleb128 0x49
	.uleb128 0x13
	.uleb128 0x32
	.uleb128 0x21
	.sleb128 1
	.byte	0
	.byte	0
	.uleb128 0x1d
	.uleb128 0x2e
	.byte	0x1
	.uleb128 0x3f
	.uleb128 0x19
	.uleb128 0x3
	.uleb128 0xe
	.uleb128 0x3a
	.uleb128 0xb
	.uleb128 0x3b
	.uleb128 0xb
	.uleb128 0x39
	.uleb128 0xb
	.uleb128 0x6e
	.uleb128 0xe
	.uleb128 0x32
	.uleb128 0x21
	.sleb128 1
	.uleb128 0x3c
	.uleb128 0x19
	.uleb128 0x64
	.uleb128 0x13
	.uleb128 0x1
	.uleb128 0x13
	.byte	0
	.byte	0
	.uleb128 0x1e
	.uleb128 0x2e
	.byte	0x1
	.uleb128 0x3f
	.uleb128 0x19
	.uleb128 0x3
	.uleb128 0xe
	.uleb128 0x3a
	.uleb128 0xb
	.uleb128 0x3b
	.uleb128 0xb
	.uleb128 0x39
	.uleb128 0xb
	.uleb128 0x6e
	.uleb128 0xe
	.uleb128 0x49
	.uleb128 0x13
	.uleb128 0x3c
	.uleb128 0x19
	.uleb128 0x1
	.uleb128 0x13
	.byte	0
	.byte	0
	.uleb128 0x1f
	.uleb128 0x2e
	.byte	0x1
	.uleb128 0x47
	.uleb128 0x13
	.uleb128 0x64
	.uleb128 0x13
	.uleb128 0x11
	.uleb128 0x1
	.uleb128 0x12
	.uleb128 0x7
	.uleb128 0x40
	.uleb128 0x18
	.uleb128 0x7c
	.uleb128 0x19
	.uleb128 0x1
	.uleb128 0x13
	.byte	0
	.byte	0
	.uleb128 0x20
	.uleb128 0x24
	.byte	0
	.uleb128 0xb
	.uleb128 0xb
	.uleb128 0x3e
	.uleb128 0xb
	.uleb128 0x3
	.uleb128 0xe
	.byte	0
	.byte	0
	.uleb128 0x21
	.uleb128 0x5
	.byte	0
	.uleb128 0x3
	.uleb128 0xe
	.uleb128 0x3a
	.uleb128 0xb
	.uleb128 0x3b
	.uleb128 0xb
	.uleb128 0x39
	.uleb128 0xb
	.uleb128 0x49
	.uleb128 0x13
	.uleb128 0x2
	.uleb128 0x18
	.byte	0
	.byte	0
	.uleb128 0x22
	.uleb128 0x5
	.byte	0
	.uleb128 0x49
	.uleb128 0x13
	.uleb128 0x2
	.uleb128 0x18
	.byte	0
	.byte	0
	.uleb128 0x23
	.uleb128 0x2e
	.byte	0x1
	.uleb128 0x3f
	.uleb128 0x19
	.uleb128 0x3
	.uleb128 0xe
	.uleb128 0x3a
	.uleb128 0xb
	.uleb128 0x3b
	.uleb128 0xb
	.uleb128 0x39
	.uleb128 0xb
	.uleb128 0x6e
	.uleb128 0xe
	.uleb128 0x3c
	.uleb128 0x19
	.uleb128 0x64
	.uleb128 0x13
	.uleb128 0x1
	.uleb128 0x13
	.byte	0
	.byte	0
	.uleb128 0x24
	.uleb128 0x2e
	.byte	0x1
	.uleb128 0x31
	.uleb128 0x13
	.uleb128 0x6e
	.uleb128 0xe
	.uleb128 0x64
	.uleb128 0x13
	.uleb128 0x11
	.uleb128 0x1
	.uleb128 0x12
	.uleb128 0x7
	.uleb128 0x40
	.uleb128 0x18
	.uleb128 0x7c
	.uleb128 0x19
	.uleb128 0x1
	.uleb128 0x13
	.byte	0
	.byte	0
	.uleb128 0x25
	.uleb128 0x2e
	.byte	0x1
	.uleb128 0x47
	.uleb128 0x13
	.uleb128 0x11
	.uleb128 0x1
	.uleb128 0x12
	.uleb128 0x7
	.uleb128 0x40
	.uleb128 0x18
	.uleb128 0x7a
	.uleb128 0x19
	.uleb128 0x1
	.uleb128 0x13
	.byte	0
	.byte	0
	.uleb128 0x26
	.uleb128 0x42
	.byte	0
	.uleb128 0xb
	.uleb128 0x21
	.sleb128 8
	.uleb128 0x49
	.uleb128 0x13
	.byte	0
	.byte	0
	.uleb128 0x27
	.uleb128 0x2e
	.byte	0x1
	.uleb128 0x47
	.uleb128 0x13
	.uleb128 0x64
	.uleb128 0x13
	.uleb128 0x11
	.uleb128 0x1
	.uleb128 0x12
	.uleb128 0x7
	.uleb128 0x40
	.uleb128 0x18
	.uleb128 0x7a
	.uleb128 0x19
	.uleb128 0x1
	.uleb128 0x13
	.byte	0
	.byte	0
	.uleb128 0x28
	.uleb128 0x16
	.byte	0
	.uleb128 0x3
	.uleb128 0xe
	.uleb128 0x3a
	.uleb128 0xb
	.uleb128 0x3b
	.uleb128 0xb
	.uleb128 0x39
	.uleb128 0xb
	.uleb128 0x49
	.uleb128 0x13
	.uleb128 0x32
	.uleb128 0x21
	.sleb128 1
	.byte	0
	.byte	0
	.uleb128 0x29
	.uleb128 0x34
	.byte	0
	.uleb128 0x3
	.uleb128 0xe
	.uleb128 0x3a
	.uleb128 0xb
	.uleb128 0x3b
	.uleb128 0x5
	.uleb128 0x39
	.uleb128 0xb
	.uleb128 0x49
	.uleb128 0x13
	.uleb128 0x2
	.uleb128 0x18
	.byte	0
	.byte	0
	.uleb128 0x2a
	.uleb128 0x5
	.byte	0
	.uleb128 0x3
	.uleb128 0x8
	.uleb128 0x3a
	.uleb128 0xb
	.uleb128 0x3b
	.uleb128 0xb
	.uleb128 0x39
	.uleb128 0xb
	.uleb128 0x49
	.uleb128 0x13
	.uleb128 0x2
	.uleb128 0x18
	.byte	0
	.byte	0
	.uleb128 0x2b
	.uleb128 0x2e
	.byte	0
	.uleb128 0x3f
	.uleb128 0x19
	.uleb128 0x3
	.uleb128 0xe
	.uleb128 0x3a
	.uleb128 0x21
	.sleb128 60
	.uleb128 0x3b
	.uleb128 0xb
	.uleb128 0x39
	.uleb128 0x21
	.sleb128 5
	.uleb128 0x6e
	.uleb128 0xe
	.uleb128 0x49
	.uleb128 0x13
	.uleb128 0x32
	.uleb128 0x21
	.sleb128 1
	.uleb128 0x3c
	.uleb128 0x19
	.byte	0
	.byte	0
	.uleb128 0x2c
	.uleb128 0x2
	.byte	0x1
	.uleb128 0x3
	.uleb128 0xe
	.uleb128 0xb
	.uleb128 0xb
	.uleb128 0x3a
	.uleb128 0xb
	.uleb128 0x3b
	.uleb128 0xb
	.uleb128 0x39
	.uleb128 0xb
	.uleb128 0x1
	.uleb128 0x13
	.byte	0
	.byte	0
	.uleb128 0x2d
	.uleb128 0x30
	.byte	0
	.uleb128 0x3
	.uleb128 0xe
	.uleb128 0x49
	.uleb128 0x13
	.uleb128 0x1c
	.uleb128 0xb
	.byte	0
	.byte	0
	.uleb128 0x2e
	.uleb128 0x2e
	.byte	0
	.uleb128 0x3f
	.uleb128 0x19
	.uleb128 0x3
	.uleb128 0xe
	.uleb128 0x3a
	.uleb128 0x21
	.sleb128 48
	.uleb128 0x3b
	.uleb128 0xb
	.uleb128 0x39
	.uleb128 0x21
	.sleb128 27
	.uleb128 0x6e
	.uleb128 0xe
	.uleb128 0x49
	.uleb128 0x13
	.uleb128 0x3c
	.uleb128 0x19
	.byte	0
	.byte	0
	.uleb128 0x2f
	.uleb128 0x2
	.byte	0
	.uleb128 0x3
	.uleb128 0xe
	.uleb128 0x3c
	.uleb128 0x19
	.byte	0
	.byte	0
	.uleb128 0x30
	.uleb128 0x1c
	.byte	0
	.uleb128 0x49
	.uleb128 0x13
	.uleb128 0x38
	.uleb128 0x21
	.sleb128 0
	.byte	0
	.byte	0
	.uleb128 0x31
	.uleb128 0x2e
	.byte	0x1
	.uleb128 0x3f
	.uleb128 0x19
	.uleb128 0x3
	.uleb128 0xe
	.uleb128 0x3a
	.uleb128 0x21
	.sleb128 5
	.uleb128 0x3b
	.uleb128 0x5
	.uleb128 0x39
	.uleb128 0x21
	.sleb128 7
	.uleb128 0x6e
	.uleb128 0xe
	.uleb128 0x49
	.uleb128 0x13
	.uleb128 0x3c
	.uleb128 0x19
	.uleb128 0x64
	.uleb128 0x13
	.uleb128 0x1
	.uleb128 0x13
	.byte	0
	.byte	0
	.uleb128 0x32
	.uleb128 0x2e
	.byte	0x1
	.uleb128 0x3f
	.uleb128 0x19
	.uleb128 0x3
	.uleb128 0x8
	.uleb128 0x3a
	.uleb128 0x21
	.sleb128 5
	.uleb128 0x3b
	.uleb128 0x5
	.uleb128 0x39
	.uleb128 0x21
	.sleb128 7
	.uleb128 0x6e
	.uleb128 0xe
	.uleb128 0x49
	.uleb128 0x13
	.uleb128 0x32
	.uleb128 0x21
	.sleb128 1
	.uleb128 0x3c
	.uleb128 0x19
	.uleb128 0x64
	.uleb128 0x13
	.uleb128 0x1
	.uleb128 0x13
	.byte	0
	.byte	0
	.uleb128 0x33
	.uleb128 0x2f
	.byte	0
	.uleb128 0x49
	.uleb128 0x13
	.byte	0
	.byte	0
	.uleb128 0x34
	.uleb128 0x2e
	.byte	0x1
	.uleb128 0x31
	.uleb128 0x13
	.uleb128 0x6e
	.uleb128 0xe
	.uleb128 0x64
	.uleb128 0x13
	.uleb128 0x11
	.uleb128 0x1
	.uleb128 0x12
	.uleb128 0x7
	.uleb128 0x40
	.uleb128 0x18
	.uleb128 0x7a
	.uleb128 0x19
	.uleb128 0x1
	.uleb128 0x13
	.byte	0
	.byte	0
	.uleb128 0x35
	.uleb128 0x2e
	.byte	0x1
	.uleb128 0x3f
	.uleb128 0x19
	.uleb128 0x3
	.uleb128 0xe
	.uleb128 0x3a
	.uleb128 0xb
	.uleb128 0x3b
	.uleb128 0xb
	.uleb128 0x39
	.uleb128 0xb
	.uleb128 0x6e
	.uleb128 0xe
	.uleb128 0x49
	.uleb128 0x13
	.uleb128 0x3c
	.uleb128 0x19
	.uleb128 0x64
	.uleb128 0x13
	.uleb128 0x1
	.uleb128 0x13
	.byte	0
	.byte	0
	.uleb128 0x36
	.uleb128 0x2e
	.byte	0x1
	.uleb128 0x3f
	.uleb128 0x19
	.uleb128 0x3
	.uleb128 0xe
	.uleb128 0x3a
	.uleb128 0xb
	.uleb128 0x3b
	.uleb128 0x5
	.uleb128 0x39
	.uleb128 0xb
	.uleb128 0x6e
	.uleb128 0xe
	.uleb128 0x3c
	.uleb128 0x19
	.uleb128 0x1
	.uleb128 0x13
	.byte	0
	.byte	0
	.uleb128 0x37
	.uleb128 0x2e
	.byte	0x1
	.uleb128 0x3f
	.uleb128 0x19
	.uleb128 0x3
	.uleb128 0xe
	.uleb128 0x3a
	.uleb128 0xb
	.uleb128 0x3b
	.uleb128 0xb
	.uleb128 0x39
	.uleb128 0xb
	.uleb128 0x6e
	.uleb128 0xe
	.uleb128 0x3c
	.uleb128 0x19
	.uleb128 0x1
	.uleb128 0x13
	.byte	0
	.byte	0
	.uleb128 0x38
	.uleb128 0x13
	.byte	0x1
	.uleb128 0x3
	.uleb128 0xe
	.uleb128 0xb
	.uleb128 0x21
	.sleb128 1
	.uleb128 0x3a
	.uleb128 0xb
	.uleb128 0x3b
	.uleb128 0x5
	.uleb128 0x39
	.uleb128 0x21
	.sleb128 12
	.uleb128 0x1
	.uleb128 0x13
	.byte	0
	.byte	0
	.uleb128 0x39
	.uleb128 0x18
	.byte	0
	.byte	0
	.byte	0
	.uleb128 0x3a
	.uleb128 0x2e
	.byte	0x1
	.uleb128 0x3f
	.uleb128 0x19
	.uleb128 0x3
	.uleb128 0xe
	.uleb128 0x3a
	.uleb128 0xb
	.uleb128 0x3b
	.uleb128 0x5
	.uleb128 0x39
	.uleb128 0x21
	.sleb128 13
	.uleb128 0x3c
	.uleb128 0x19
	.uleb128 0x1
	.uleb128 0x13
	.byte	0
	.byte	0
	.uleb128 0x3b
	.uleb128 0x34
	.byte	0
	.uleb128 0x3
	.uleb128 0xe
	.uleb128 0x3a
	.uleb128 0xb
	.uleb128 0x3b
	.uleb128 0xb
	.uleb128 0x39
	.uleb128 0xb
	.uleb128 0x49
	.uleb128 0x13
	.uleb128 0x2
	.uleb128 0x18
	.byte	0
	.byte	0
	.uleb128 0x3c
	.uleb128 0x2e
	.byte	0x1
	.uleb128 0x3f
	.uleb128 0x19
	.uleb128 0x3
	.uleb128 0xe
	.uleb128 0x3a
	.uleb128 0xb
	.uleb128 0x3b
	.uleb128 0x5
	.uleb128 0x39
	.uleb128 0x21
	.sleb128 7
	.uleb128 0x6e
	.uleb128 0xe
	.uleb128 0x32
	.uleb128 0x21
	.sleb128 1
	.uleb128 0x3c
	.uleb128 0x19
	.uleb128 0x8b
	.uleb128 0x21
	.sleb128 1
	.uleb128 0x64
	.uleb128 0x13
	.uleb128 0x1
	.uleb128 0x13
	.byte	0
	.byte	0
	.uleb128 0x3d
	.uleb128 0x2e
	.byte	0x1
	.uleb128 0x3f
	.uleb128 0x19
	.uleb128 0x3
	.uleb128 0xe
	.uleb128 0x3a
	.uleb128 0xb
	.uleb128 0x3b
	.uleb128 0x5
	.uleb128 0x39
	.uleb128 0x21
	.sleb128 7
	.uleb128 0x6e
	.uleb128 0xe
	.uleb128 0x32
	.uleb128 0x21
	.sleb128 1
	.uleb128 0x3c
	.uleb128 0x19
	.uleb128 0x63
	.uleb128 0x19
	.uleb128 0x64
	.uleb128 0x13
	.uleb128 0x1
	.uleb128 0x13
	.byte	0
	.byte	0
	.uleb128 0x3e
	.uleb128 0x5
	.byte	0
	.uleb128 0x3
	.uleb128 0x8
	.uleb128 0x3a
	.uleb128 0xb
	.uleb128 0x3b
	.uleb128 0x5
	.uleb128 0x39
	.uleb128 0xb
	.uleb128 0x49
	.uleb128 0x13
	.byte	0
	.byte	0
	.uleb128 0x3f
	.uleb128 0xd
	.byte	0
	.uleb128 0x3
	.uleb128 0xe
	.uleb128 0x3a
	.uleb128 0x21
	.sleb128 20
	.uleb128 0x3b
	.uleb128 0x21
	.sleb128 0
	.uleb128 0x49
	.uleb128 0x13
	.uleb128 0x38
	.uleb128 0xb
	.byte	0
	.byte	0
	.uleb128 0x40
	.uleb128 0x13
	.byte	0x1
	.uleb128 0xb
	.uleb128 0xb
	.uleb128 0x3a
	.uleb128 0xb
	.uleb128 0x3b
	.uleb128 0xb
	.uleb128 0x39
	.uleb128 0xb
	.uleb128 0x6e
	.uleb128 0xe
	.uleb128 0x1
	.uleb128 0x13
	.byte	0
	.byte	0
	.uleb128 0x41
	.uleb128 0x39
	.byte	0x1
	.uleb128 0x3
	.uleb128 0xe
	.uleb128 0x3a
	.uleb128 0xb
	.uleb128 0x3b
	.uleb128 0xb
	.uleb128 0x39
	.uleb128 0xb
	.uleb128 0x1
	.uleb128 0x13
	.byte	0
	.byte	0
	.uleb128 0x42
	.uleb128 0x1c
	.byte	0
	.uleb128 0x49
	.uleb128 0x13
	.uleb128 0x38
	.uleb128 0x21
	.sleb128 0
	.uleb128 0x32
	.uleb128 0xb
	.byte	0
	.byte	0
	.uleb128 0x43
	.uleb128 0x2e
	.byte	0x1
	.uleb128 0x3f
	.uleb128 0x19
	.uleb128 0x3
	.uleb128 0xe
	.uleb128 0x3a
	.uleb128 0x21
	.sleb128 5
	.uleb128 0x3b
	.uleb128 0x5
	.uleb128 0x39
	.uleb128 0x21
	.sleb128 7
	.uleb128 0x6e
	.uleb128 0xe
	.uleb128 0x3c
	.uleb128 0x19
	.uleb128 0x8b
	.uleb128 0x21
	.sleb128 1
	.uleb128 0x64
	.uleb128 0x13
	.uleb128 0x1
	.uleb128 0x13
	.byte	0
	.byte	0
	.uleb128 0x44
	.uleb128 0x2e
	.byte	0x1
	.uleb128 0x3f
	.uleb128 0x19
	.uleb128 0x3
	.uleb128 0xe
	.uleb128 0x3a
	.uleb128 0x21
	.sleb128 5
	.uleb128 0x3b
	.uleb128 0x5
	.uleb128 0x39
	.uleb128 0x21
	.sleb128 7
	.uleb128 0x6e
	.uleb128 0xe
	.uleb128 0x49
	.uleb128 0x13
	.uleb128 0x32
	.uleb128 0x21
	.sleb128 2
	.uleb128 0x3c
	.uleb128 0x19
	.uleb128 0x1
	.uleb128 0x13
	.byte	0
	.byte	0
	.uleb128 0x45
	.uleb128 0x34
	.byte	0
	.uleb128 0x47
	.uleb128 0x13
	.byte	0
	.byte	0
	.uleb128 0x46
	.uleb128 0x30
	.byte	0
	.uleb128 0x49
	.uleb128 0x13
	.uleb128 0x1c
	.uleb128 0xb
	.byte	0
	.byte	0
	.uleb128 0x47
	.uleb128 0x2e
	.byte	0x1
	.uleb128 0x31
	.uleb128 0x13
	.uleb128 0x6e
	.uleb128 0xe
	.uleb128 0x64
	.uleb128 0x13
	.uleb128 0x1
	.uleb128 0x13
	.byte	0
	.byte	0
	.uleb128 0x48
	.uleb128 0x1
	.byte	0x1
	.uleb128 0x49
	.uleb128 0x13
	.uleb128 0x1
	.uleb128 0x13
	.byte	0
	.byte	0
	.uleb128 0x49
	.uleb128 0x21
	.byte	0
	.uleb128 0x49
	.uleb128 0x13
	.uleb128 0x2f
	.uleb128 0xb
	.byte	0
	.byte	0
	.uleb128 0x4a
	.uleb128 0x2
	.byte	0x1
	.uleb128 0x3
	.uleb128 0xe
	.uleb128 0x3c
	.uleb128 0x19
	.uleb128 0x1
	.uleb128 0x13
	.byte	0
	.byte	0
	.uleb128 0x4b
	.uleb128 0x2
	.byte	0x1
	.uleb128 0x3
	.uleb128 0xe
	.uleb128 0xb
	.uleb128 0xb
	.uleb128 0x3a
	.uleb128 0xb
	.uleb128 0x3b
	.uleb128 0x5
	.uleb128 0x39
	.uleb128 0x21
	.sleb128 11
	.uleb128 0x1
	.uleb128 0x13
	.byte	0
	.byte	0
	.uleb128 0x4c
	.uleb128 0x2e
	.byte	0
	.uleb128 0x3f
	.uleb128 0x19
	.uleb128 0x3
	.uleb128 0xe
	.uleb128 0x3a
	.uleb128 0xb
	.uleb128 0x3b
	.uleb128 0x5
	.uleb128 0x39
	.uleb128 0xb
	.uleb128 0x49
	.uleb128 0x13
	.uleb128 0x3c
	.uleb128 0x19
	.byte	0
	.byte	0
	.uleb128 0x4d
	.uleb128 0xd
	.byte	0
	.uleb128 0x3
	.uleb128 0x8
	.uleb128 0x3a
	.uleb128 0x21
	.sleb128 54
	.uleb128 0x3b
	.uleb128 0xb
	.uleb128 0x39
	.uleb128 0xb
	.uleb128 0x49
	.uleb128 0x13
	.uleb128 0x38
	.uleb128 0xb
	.byte	0
	.byte	0
	.uleb128 0x4e
	.uleb128 0x13
	.byte	0
	.uleb128 0x3
	.uleb128 0xe
	.uleb128 0x3c
	.uleb128 0x19
	.byte	0
	.byte	0
	.uleb128 0x4f
	.uleb128 0xb
	.byte	0x1
	.byte	0
	.byte	0
	.uleb128 0x50
	.uleb128 0x34
	.byte	0
	.uleb128 0x3
	.uleb128 0xe
	.uleb128 0x3a
	.uleb128 0xb
	.uleb128 0x3b
	.uleb128 0xb
	.uleb128 0x39
	.uleb128 0xb
	.uleb128 0x49
	.uleb128 0x13
	.byte	0
	.byte	0
	.uleb128 0x51
	.uleb128 0xb
	.byte	0x1
	.uleb128 0x11
	.uleb128 0x1
	.uleb128 0x12
	.uleb128 0x7
	.byte	0
	.byte	0
	.uleb128 0x52
	.uleb128 0x2e
	.byte	0x1
	.uleb128 0x47
	.uleb128 0x13
	.uleb128 0x3a
	.uleb128 0xb
	.uleb128 0x3b
	.uleb128 0xb
	.uleb128 0x39
	.uleb128 0xb
	.uleb128 0x64
	.uleb128 0x13
	.uleb128 0x20
	.uleb128 0x21
	.sleb128 2
	.uleb128 0x1
	.uleb128 0x13
	.byte	0
	.byte	0
	.uleb128 0x53
	.uleb128 0x2e
	.byte	0x1
	.uleb128 0x3f
	.uleb128 0x19
	.uleb128 0x3
	.uleb128 0xe
	.uleb128 0x6e
	.uleb128 0xe
	.uleb128 0x34
	.uleb128 0x19
	.uleb128 0x3c
	.uleb128 0x19
	.uleb128 0x64
	.uleb128 0x13
	.uleb128 0x1
	.uleb128 0x13
	.byte	0
	.byte	0
	.uleb128 0x54
	.uleb128 0xd
	.byte	0
	.uleb128 0x3
	.uleb128 0xe
	.uleb128 0x3a
	.uleb128 0x21
	.sleb128 23
	.uleb128 0x3b
	.uleb128 0xb
	.uleb128 0x39
	.uleb128 0xb
	.uleb128 0x49
	.uleb128 0x13
	.byte	0
	.byte	0
	.uleb128 0x55
	.uleb128 0x30
	.byte	0
	.uleb128 0x3
	.uleb128 0x8
	.uleb128 0x49
	.uleb128 0x13
	.uleb128 0x1c
	.uleb128 0xb
	.byte	0
	.byte	0
	.uleb128 0x56
	.uleb128 0x39
	.byte	0
	.uleb128 0x3
	.uleb128 0xe
	.uleb128 0x3a
	.uleb128 0x21
	.sleb128 30
	.uleb128 0x3b
	.uleb128 0x5
	.uleb128 0x39
	.uleb128 0x21
	.sleb128 13
	.byte	0
	.byte	0
	.uleb128 0x57
	.uleb128 0x2e
	.byte	0x1
	.uleb128 0x3f
	.uleb128 0x19
	.uleb128 0x3
	.uleb128 0xe
	.uleb128 0x3a
	.uleb128 0xb
	.uleb128 0x3b
	.uleb128 0xb
	.uleb128 0x39
	.uleb128 0xb
	.uleb128 0x6e
	.uleb128 0xe
	.uleb128 0x87
	.uleb128 0x19
	.uleb128 0x3c
	.uleb128 0x19
	.uleb128 0x1
	.uleb128 0x13
	.byte	0
	.byte	0
	.uleb128 0x58
	.uleb128 0x2e
	.byte	0x1
	.uleb128 0x3f
	.uleb128 0x19
	.uleb128 0x3
	.uleb128 0x8
	.uleb128 0x3a
	.uleb128 0x21
	.sleb128 32
	.uleb128 0x3b
	.uleb128 0x5
	.uleb128 0x39
	.uleb128 0x21
	.sleb128 7
	.uleb128 0x6e
	.uleb128 0xe
	.uleb128 0x49
	.uleb128 0x13
	.uleb128 0x3c
	.uleb128 0x19
	.uleb128 0x1
	.uleb128 0x13
	.byte	0
	.byte	0
	.uleb128 0x59
	.uleb128 0x39
	.byte	0
	.uleb128 0x3
	.uleb128 0xe
	.uleb128 0x3a
	.uleb128 0xb
	.uleb128 0x3b
	.uleb128 0xb
	.uleb128 0x39
	.uleb128 0xb
	.byte	0
	.byte	0
	.uleb128 0x5a
	.uleb128 0x2e
	.byte	0x1
	.uleb128 0x3f
	.uleb128 0x19
	.uleb128 0x3
	.uleb128 0xe
	.uleb128 0x3a
	.uleb128 0x21
	.sleb128 38
	.uleb128 0x3b
	.uleb128 0x5
	.uleb128 0x39
	.uleb128 0x21
	.sleb128 7
	.uleb128 0x6e
	.uleb128 0xe
	.uleb128 0x32
	.uleb128 0x21
	.sleb128 1
	.uleb128 0x3c
	.uleb128 0x19
	.uleb128 0x64
	.uleb128 0x13
	.uleb128 0x20
	.uleb128 0x21
	.sleb128 0
	.uleb128 0x1
	.uleb128 0x13
	.byte	0
	.byte	0
	.uleb128 0x5b
	.uleb128 0x2f
	.byte	0
	.uleb128 0x3
	.uleb128 0xe
	.uleb128 0x49
	.uleb128 0x13
	.uleb128 0x1e
	.uleb128 0x19
	.byte	0
	.byte	0
	.uleb128 0x5c
	.uleb128 0x2e
	.byte	0x1
	.uleb128 0x3f
	.uleb128 0x19
	.uleb128 0x3
	.uleb128 0xe
	.uleb128 0x3a
	.uleb128 0x21
	.sleb128 6
	.uleb128 0x3b
	.uleb128 0xb
	.uleb128 0x39
	.uleb128 0x21
	.sleb128 18
	.uleb128 0x6e
	.uleb128 0xe
	.uleb128 0x49
	.uleb128 0x13
	.uleb128 0x32
	.uleb128 0x21
	.sleb128 1
	.uleb128 0x3c
	.uleb128 0x19
	.uleb128 0x8b
	.uleb128 0x21
	.sleb128 1
	.uleb128 0x64
	.uleb128 0x13
	.uleb128 0x1
	.uleb128 0x13
	.byte	0
	.byte	0
	.uleb128 0x5d
	.uleb128 0x2e
	.byte	0x1
	.uleb128 0x3f
	.uleb128 0x19
	.uleb128 0x3
	.uleb128 0xe
	.uleb128 0x3a
	.uleb128 0x21
	.sleb128 6
	.uleb128 0x3b
	.uleb128 0xb
	.uleb128 0x39
	.uleb128 0x21
	.sleb128 7
	.uleb128 0x6e
	.uleb128 0xe
	.uleb128 0x32
	.uleb128 0x21
	.sleb128 1
	.uleb128 0x3c
	.uleb128 0x19
	.uleb128 0x64
	.uleb128 0x13
	.byte	0
	.byte	0
	.uleb128 0x5e
	.uleb128 0x2e
	.byte	0x1
	.uleb128 0x3f
	.uleb128 0x19
	.uleb128 0x3
	.uleb128 0xe
	.uleb128 0x3a
	.uleb128 0x21
	.sleb128 5
	.uleb128 0x3b
	.uleb128 0xb
	.uleb128 0x39
	.uleb128 0x21
	.sleb128 2
	.uleb128 0x6e
	.uleb128 0xe
	.uleb128 0x3c
	.uleb128 0x19
	.uleb128 0x64
	.uleb128 0x13
	.byte	0
	.byte	0
	.uleb128 0x5f
	.uleb128 0x2e
	.byte	0x1
	.uleb128 0x3f
	.uleb128 0x19
	.uleb128 0x3
	.uleb128 0xe
	.uleb128 0x6e
	.uleb128 0xe
	.uleb128 0x34
	.uleb128 0x19
	.uleb128 0x3c
	.uleb128 0x19
	.uleb128 0x64
	.uleb128 0x13
	.byte	0
	.byte	0
	.uleb128 0x60
	.uleb128 0xd
	.byte	0
	.uleb128 0x3
	.uleb128 0xe
	.uleb128 0x3a
	.uleb128 0x21
	.sleb128 5
	.uleb128 0x3b
	.uleb128 0x21
	.sleb128 371
	.uleb128 0x39
	.uleb128 0x21
	.sleb128 20
	.uleb128 0x49
	.uleb128 0x13
	.uleb128 0x38
	.uleb128 0x21
	.sleb128 0
	.byte	0
	.byte	0
	.uleb128 0x61
	.uleb128 0x2e
	.byte	0
	.uleb128 0x3f
	.uleb128 0x19
	.uleb128 0x3
	.uleb128 0xe
	.uleb128 0x3a
	.uleb128 0x21
	.sleb128 5
	.uleb128 0x3b
	.uleb128 0x21
	.sleb128 478
	.uleb128 0x39
	.uleb128 0x21
	.sleb128 7
	.uleb128 0x6e
	.uleb128 0xe
	.uleb128 0x49
	.uleb128 0x13
	.uleb128 0x3c
	.uleb128 0x19
	.byte	0
	.byte	0
	.uleb128 0x62
	.uleb128 0x2e
	.byte	0
	.uleb128 0x3f
	.uleb128 0x19
	.uleb128 0x3
	.uleb128 0xe
	.uleb128 0x3a
	.uleb128 0x21
	.sleb128 42
	.uleb128 0x3b
	.uleb128 0xb
	.uleb128 0x39
	.uleb128 0x21
	.sleb128 3
	.uleb128 0x6e
	.uleb128 0xe
	.uleb128 0x87
	.uleb128 0x19
	.uleb128 0x3c
	.uleb128 0x19
	.byte	0
	.byte	0
	.uleb128 0x63
	.uleb128 0x4107
	.byte	0
	.uleb128 0x3
	.uleb128 0xe
	.byte	0
	.byte	0
	.uleb128 0x64
	.uleb128 0x2e
	.byte	0x1
	.uleb128 0x3f
	.uleb128 0x19
	.uleb128 0x3
	.uleb128 0xe
	.uleb128 0x3a
	.uleb128 0xb
	.uleb128 0x3b
	.uleb128 0x5
	.uleb128 0x39
	.uleb128 0xb
	.uleb128 0x6e
	.uleb128 0xe
	.uleb128 0x49
	.uleb128 0x13
	.uleb128 0x3c
	.uleb128 0x19
	.byte	0
	.byte	0
	.uleb128 0x65
	.uleb128 0x2e
	.byte	0
	.uleb128 0x3f
	.uleb128 0x19
	.uleb128 0x3
	.uleb128 0xe
	.uleb128 0x3a
	.uleb128 0xb
	.uleb128 0x3b
	.uleb128 0xb
	.uleb128 0x39
	.uleb128 0xb
	.uleb128 0x49
	.uleb128 0x13
	.uleb128 0x3c
	.uleb128 0x19
	.byte	0
	.byte	0
	.uleb128 0x66
	.uleb128 0x39
	.byte	0x1
	.uleb128 0x3
	.uleb128 0xe
	.uleb128 0x3a
	.uleb128 0xb
	.uleb128 0x3b
	.uleb128 0xb
	.uleb128 0x39
	.uleb128 0xb
	.byte	0
	.byte	0
	.uleb128 0x67
	.uleb128 0x34
	.byte	0
	.uleb128 0x3
	.uleb128 0x8
	.uleb128 0x3a
	.uleb128 0x21
	.sleb128 60
	.uleb128 0x3b
	.uleb128 0xb
	.uleb128 0x39
	.uleb128 0xb
	.uleb128 0x49
	.uleb128 0x13
	.uleb128 0x3c
	.uleb128 0x19
	.uleb128 0x1c
	.uleb128 0xa
	.uleb128 0x6c
	.uleb128 0x19
	.byte	0
	.byte	0
	.uleb128 0x68
	.uleb128 0x34
	.byte	0
	.uleb128 0x3
	.uleb128 0xe
	.uleb128 0x3a
	.uleb128 0x21
	.sleb128 60
	.uleb128 0x3b
	.uleb128 0xb
	.uleb128 0x39
	.uleb128 0xb
	.uleb128 0x49
	.uleb128 0x13
	.uleb128 0x3c
	.uleb128 0x19
	.uleb128 0x1c
	.uleb128 0xa
	.uleb128 0x6c
	.uleb128 0x19
	.byte	0
	.byte	0
	.uleb128 0x69
	.uleb128 0xd
	.byte	0
	.uleb128 0x3
	.uleb128 0xe
	.uleb128 0x3a
	.uleb128 0x21
	.sleb128 3
	.uleb128 0x3b
	.uleb128 0xb
	.uleb128 0x39
	.uleb128 0xb
	.uleb128 0x49
	.uleb128 0x13
	.uleb128 0x38
	.uleb128 0xb
	.uleb128 0x32
	.uleb128 0xb
	.byte	0
	.byte	0
	.uleb128 0x6a
	.uleb128 0x4107
	.byte	0x1
	.uleb128 0x3
	.uleb128 0x8
	.uleb128 0x1
	.uleb128 0x13
	.byte	0
	.byte	0
	.uleb128 0x6b
	.uleb128 0x2e
	.byte	0x1
	.uleb128 0x3f
	.uleb128 0x19
	.uleb128 0x3
	.uleb128 0xe
	.uleb128 0x49
	.uleb128 0x13
	.uleb128 0x34
	.uleb128 0x19
	.uleb128 0x3c
	.uleb128 0x19
	.uleb128 0x1
	.uleb128 0x13
	.byte	0
	.byte	0
	.uleb128 0x6c
	.uleb128 0x5
	.byte	0
	.uleb128 0x3
	.uleb128 0x8
	.uleb128 0x3a
	.uleb128 0xb
	.uleb128 0x3b
	.uleb128 0xb
	.uleb128 0x39
	.uleb128 0xb
	.uleb128 0x49
	.uleb128 0x13
	.byte	0
	.byte	0
	.uleb128 0x6d
	.uleb128 0x34
	.byte	0
	.uleb128 0x3
	.uleb128 0x8
	.uleb128 0x3a
	.uleb128 0x21
	.sleb128 5
	.uleb128 0x3b
	.uleb128 0x5
	.uleb128 0x39
	.uleb128 0xb
	.uleb128 0x49
	.uleb128 0x13
	.uleb128 0x2
	.uleb128 0x18
	.byte	0
	.byte	0
	.uleb128 0x6e
	.uleb128 0xb
	.byte	0x1
	.uleb128 0x55
	.uleb128 0x17
	.byte	0
	.byte	0
	.uleb128 0x6f
	.uleb128 0x34
	.byte	0
	.uleb128 0x3
	.uleb128 0x8
	.uleb128 0x3a
	.uleb128 0xb
	.uleb128 0x3b
	.uleb128 0xb
	.uleb128 0x39
	.uleb128 0xb
	.uleb128 0x49
	.uleb128 0x13
	.uleb128 0x2
	.uleb128 0x18
	.byte	0
	.byte	0
	.uleb128 0x70
	.uleb128 0x11
	.byte	0x1
	.uleb128 0x25
	.uleb128 0xe
	.uleb128 0x13
	.uleb128 0xb
	.uleb128 0x3
	.uleb128 0x1f
	.uleb128 0x1b
	.uleb128 0x1f
	.uleb128 0x55
	.uleb128 0x17
	.uleb128 0x11
	.uleb128 0x1
	.uleb128 0x10
	.uleb128 0x17
	.byte	0
	.byte	0
	.uleb128 0x71
	.uleb128 0x13
	.byte	0x1
	.uleb128 0x3
	.uleb128 0xe
	.uleb128 0xb
	.uleb128 0xb
	.uleb128 0x3a
	.uleb128 0xb
	.uleb128 0x3b
	.uleb128 0xb
	.uleb128 0x1
	.uleb128 0x13
	.byte	0
	.byte	0
	.uleb128 0x72
	.uleb128 0xf
	.byte	0
	.uleb128 0xb
	.uleb128 0xb
	.byte	0
	.byte	0
	.uleb128 0x73
	.uleb128 0x17
	.byte	0x1
	.uleb128 0xb
	.uleb128 0xb
	.uleb128 0x3a
	.uleb128 0xb
	.uleb128 0x3b
	.uleb128 0xb
	.uleb128 0x39
	.uleb128 0xb
	.uleb128 0x1
	.uleb128 0x13
	.byte	0
	.byte	0
	.uleb128 0x74
	.uleb128 0x24
	.byte	0
	.uleb128 0xb
	.uleb128 0xb
	.uleb128 0x3e
	.uleb128 0xb
	.uleb128 0x3
	.uleb128 0x8
	.byte	0
	.byte	0
	.uleb128 0x75
	.uleb128 0x39
	.byte	0x1
	.uleb128 0x3
	.uleb128 0x8
	.uleb128 0x3a
	.uleb128 0xb
	.uleb128 0x3b
	.uleb128 0x5
	.uleb128 0x39
	.uleb128 0xb
	.uleb128 0x1
	.uleb128 0x13
	.byte	0
	.byte	0
	.uleb128 0x76
	.uleb128 0x4
	.byte	0
	.uleb128 0x3
	.uleb128 0xe
	.uleb128 0x6d
	.uleb128 0x19
	.uleb128 0x3e
	.uleb128 0xb
	.uleb128 0xb
	.uleb128 0xb
	.uleb128 0x49
	.uleb128 0x13
	.uleb128 0x3a
	.uleb128 0xb
	.uleb128 0x3b
	.uleb128 0xb
	.uleb128 0x39
	.uleb128 0xb
	.byte	0
	.byte	0
	.uleb128 0x77
	.uleb128 0x2e
	.byte	0x1
	.uleb128 0x3f
	.uleb128 0x19
	.uleb128 0x3
	.uleb128 0xe
	.uleb128 0x3a
	.uleb128 0xb
	.uleb128 0x3b
	.uleb128 0xb
	.uleb128 0x39
	.uleb128 0xb
	.uleb128 0x6e
	.uleb128 0xe
	.uleb128 0x3c
	.uleb128 0x19
	.uleb128 0x63
	.uleb128 0x19
	.uleb128 0x64
	.uleb128 0x13
	.uleb128 0x1
	.uleb128 0x13
	.byte	0
	.byte	0
	.uleb128 0x78
	.uleb128 0x2e
	.byte	0x1
	.uleb128 0x3f
	.uleb128 0x19
	.uleb128 0x3
	.uleb128 0xe
	.uleb128 0x3a
	.uleb128 0xb
	.uleb128 0x3b
	.uleb128 0xb
	.uleb128 0x39
	.uleb128 0xb
	.uleb128 0x6e
	.uleb128 0xe
	.uleb128 0x49
	.uleb128 0x13
	.uleb128 0x32
	.uleb128 0xb
	.uleb128 0x3c
	.uleb128 0x19
	.uleb128 0x63
	.uleb128 0x19
	.uleb128 0x64
	.uleb128 0x13
	.uleb128 0x1
	.uleb128 0x13
	.byte	0
	.byte	0
	.uleb128 0x79
	.uleb128 0x2e
	.byte	0x1
	.uleb128 0x3f
	.uleb128 0x19
	.uleb128 0x3
	.uleb128 0xe
	.uleb128 0x3a
	.uleb128 0xb
	.uleb128 0x3b
	.uleb128 0xb
	.uleb128 0x39
	.uleb128 0xb
	.uleb128 0x6e
	.uleb128 0xe
	.uleb128 0x49
	.uleb128 0x13
	.uleb128 0x32
	.uleb128 0xb
	.uleb128 0x3c
	.uleb128 0x19
	.uleb128 0x64
	.uleb128 0x13
	.byte	0
	.byte	0
	.uleb128 0x7a
	.uleb128 0x2e
	.byte	0
	.uleb128 0x3f
	.uleb128 0x19
	.uleb128 0x3
	.uleb128 0x8
	.uleb128 0x3a
	.uleb128 0xb
	.uleb128 0x3b
	.uleb128 0x5
	.uleb128 0x39
	.uleb128 0xb
	.uleb128 0x6e
	.uleb128 0xe
	.uleb128 0x49
	.uleb128 0x13
	.uleb128 0x3c
	.uleb128 0x19
	.byte	0
	.byte	0
	.uleb128 0x7b
	.uleb128 0x13
	.byte	0
	.uleb128 0x3
	.uleb128 0xe
	.uleb128 0xb
	.uleb128 0xb
	.uleb128 0x3a
	.uleb128 0xb
	.uleb128 0x3b
	.uleb128 0xb
	.uleb128 0x39
	.uleb128 0xb
	.byte	0
	.byte	0
	.uleb128 0x7c
	.uleb128 0x2e
	.byte	0x1
	.uleb128 0x3f
	.uleb128 0x19
	.uleb128 0x3
	.uleb128 0xe
	.uleb128 0x3a
	.uleb128 0xb
	.uleb128 0x3b
	.uleb128 0xb
	.uleb128 0x39
	.uleb128 0xb
	.uleb128 0x6e
	.uleb128 0xe
	.uleb128 0x3c
	.uleb128 0x19
	.byte	0
	.byte	0
	.uleb128 0x7d
	.uleb128 0x39
	.byte	0
	.uleb128 0x3
	.uleb128 0xe
	.uleb128 0x3a
	.uleb128 0xb
	.uleb128 0x3b
	.uleb128 0x5
	.uleb128 0x39
	.uleb128 0xb
	.uleb128 0x89
	.uleb128 0x19
	.byte	0
	.byte	0
	.uleb128 0x7e
	.uleb128 0x39
	.byte	0
	.uleb128 0x3
	.uleb128 0x8
	.uleb128 0x3a
	.uleb128 0xb
	.uleb128 0x3b
	.uleb128 0xb
	.uleb128 0x39
	.uleb128 0xb
	.uleb128 0x89
	.uleb128 0x19
	.byte	0
	.byte	0
	.uleb128 0x7f
	.uleb128 0x2
	.byte	0x1
	.uleb128 0x3
	.uleb128 0xe
	.uleb128 0xb
	.uleb128 0xb
	.uleb128 0x3a
	.uleb128 0xb
	.uleb128 0x3b
	.uleb128 0x5
	.uleb128 0x39
	.uleb128 0xb
	.uleb128 0x32
	.uleb128 0xb
	.uleb128 0x1
	.uleb128 0x13
	.byte	0
	.byte	0
	.uleb128 0x80
	.uleb128 0x2e
	.byte	0x1
	.uleb128 0x3f
	.uleb128 0x19
	.uleb128 0x3
	.uleb128 0xe
	.uleb128 0x3a
	.uleb128 0xb
	.uleb128 0x3b
	.uleb128 0x5
	.uleb128 0x39
	.uleb128 0xb
	.uleb128 0x6e
	.uleb128 0xe
	.uleb128 0x49
	.uleb128 0x13
	.uleb128 0x32
	.uleb128 0xb
	.uleb128 0x3c
	.uleb128 0x19
	.uleb128 0x8b
	.uleb128 0xb
	.uleb128 0x64
	.uleb128 0x13
	.byte	0
	.byte	0
	.uleb128 0x81
	.uleb128 0x34
	.byte	0
	.uleb128 0x3
	.uleb128 0xe
	.uleb128 0x3a
	.uleb128 0xb
	.uleb128 0x3b
	.uleb128 0xb
	.uleb128 0x39
	.uleb128 0xb
	.uleb128 0x6e
	.uleb128 0xe
	.uleb128 0x49
	.uleb128 0x13
	.uleb128 0x3f
	.uleb128 0x19
	.uleb128 0x3c
	.uleb128 0x19
	.byte	0
	.byte	0
	.uleb128 0x82
	.uleb128 0x34
	.byte	0
	.uleb128 0x3
	.uleb128 0xe
	.uleb128 0x3a
	.uleb128 0xb
	.uleb128 0x3b
	.uleb128 0xb
	.uleb128 0x39
	.uleb128 0xb
	.uleb128 0x49
	.uleb128 0x13
	.uleb128 0x3c
	.uleb128 0x19
	.byte	0
	.byte	0
	.uleb128 0x83
	.uleb128 0x2e
	.byte	0x1
	.uleb128 0x3f
	.uleb128 0x19
	.uleb128 0x3
	.uleb128 0x8
	.uleb128 0x3a
	.uleb128 0xb
	.uleb128 0x3b
	.uleb128 0xb
	.uleb128 0x39
	.uleb128 0xb
	.uleb128 0x6e
	.uleb128 0xe
	.uleb128 0x49
	.uleb128 0x13
	.uleb128 0x32
	.uleb128 0xb
	.uleb128 0x3c
	.uleb128 0x19
	.uleb128 0x64
	.uleb128 0x13
	.uleb128 0x1
	.uleb128 0x13
	.byte	0
	.byte	0
	.uleb128 0x84
	.uleb128 0x2e
	.byte	0x1
	.uleb128 0x3f
	.uleb128 0x19
	.uleb128 0x3
	.uleb128 0xe
	.uleb128 0x3a
	.uleb128 0xb
	.uleb128 0x3b
	.uleb128 0xb
	.uleb128 0x39
	.uleb128 0xb
	.uleb128 0x6e
	.uleb128 0xe
	.uleb128 0x4c
	.uleb128 0xb
	.uleb128 0x1d
	.uleb128 0x13
	.uleb128 0x32
	.uleb128 0xb
	.uleb128 0x3c
	.uleb128 0x19
	.uleb128 0x64
	.uleb128 0x13
	.uleb128 0x20
	.uleb128 0xb
	.uleb128 0x1
	.uleb128 0x13
	.byte	0
	.byte	0
	.uleb128 0x85
	.uleb128 0x2e
	.byte	0x1
	.uleb128 0x3f
	.uleb128 0x19
	.uleb128 0x3
	.uleb128 0xe
	.uleb128 0x3a
	.uleb128 0xb
	.uleb128 0x3b
	.uleb128 0xb
	.uleb128 0x39
	.uleb128 0xb
	.uleb128 0x6e
	.uleb128 0xe
	.uleb128 0x32
	.uleb128 0xb
	.uleb128 0x3c
	.uleb128 0x19
	.uleb128 0x63
	.uleb128 0x19
	.uleb128 0x64
	.uleb128 0x13
	.uleb128 0x20
	.uleb128 0xb
	.byte	0
	.byte	0
	.uleb128 0x86
	.uleb128 0x13
	.byte	0x1
	.uleb128 0x3
	.uleb128 0x8
	.uleb128 0xb
	.uleb128 0xb
	.uleb128 0x3a
	.uleb128 0xb
	.uleb128 0x3b
	.uleb128 0xb
	.uleb128 0x39
	.uleb128 0xb
	.uleb128 0x1
	.uleb128 0x13
	.byte	0
	.byte	0
	.uleb128 0x87
	.uleb128 0x39
	.byte	0x1
	.uleb128 0x3
	.uleb128 0xe
	.uleb128 0x3a
	.uleb128 0xb
	.uleb128 0x3b
	.uleb128 0x5
	.uleb128 0x39
	.uleb128 0xb
	.uleb128 0x1
	.uleb128 0x13
	.byte	0
	.byte	0
	.uleb128 0x88
	.uleb128 0x2e
	.byte	0x1
	.uleb128 0x3f
	.uleb128 0x19
	.uleb128 0x3
	.uleb128 0x8
	.uleb128 0x3a
	.uleb128 0xb
	.uleb128 0x3b
	.uleb128 0xb
	.uleb128 0x39
	.uleb128 0xb
	.uleb128 0x6e
	.uleb128 0xe
	.uleb128 0x49
	.uleb128 0x13
	.uleb128 0x3c
	.uleb128 0x19
	.uleb128 0x1
	.uleb128 0x13
	.byte	0
	.byte	0
	.uleb128 0x89
	.uleb128 0xd
	.byte	0
	.uleb128 0x3
	.uleb128 0xe
	.uleb128 0x3a
	.uleb128 0xb
	.uleb128 0x3b
	.uleb128 0x5
	.uleb128 0x39
	.uleb128 0xb
	.uleb128 0x49
	.uleb128 0x13
	.uleb128 0x38
	.uleb128 0xb
	.uleb128 0x32
	.uleb128 0xb
	.byte	0
	.byte	0
	.uleb128 0x8a
	.uleb128 0x3b
	.byte	0
	.uleb128 0x3
	.uleb128 0xe
	.byte	0
	.byte	0
	.uleb128 0x8b
	.uleb128 0x15
	.byte	0x1
	.uleb128 0x1
	.uleb128 0x13
	.byte	0
	.byte	0
	.uleb128 0x8c
	.uleb128 0x26
	.byte	0
	.byte	0
	.byte	0
	.uleb128 0x8d
	.uleb128 0x3a
	.byte	0
	.uleb128 0x3a
	.uleb128 0xb
	.uleb128 0x3b
	.uleb128 0xb
	.uleb128 0x39
	.uleb128 0xb
	.uleb128 0x18
	.uleb128 0x13
	.byte	0
	.byte	0
	.uleb128 0x8e
	.uleb128 0x15
	.byte	0x1
	.uleb128 0x49
	.uleb128 0x13
	.uleb128 0x1
	.uleb128 0x13
	.byte	0
	.byte	0
	.uleb128 0x8f
	.uleb128 0x15
	.byte	0
	.byte	0
	.byte	0
	.uleb128 0x90
	.uleb128 0x2e
	.byte	0x1
	.uleb128 0x3f
	.uleb128 0x19
	.uleb128 0x3
	.uleb128 0x8
	.uleb128 0x3a
	.uleb128 0xb
	.uleb128 0x3b
	.uleb128 0x5
	.uleb128 0x39
	.uleb128 0xb
	.uleb128 0x49
	.uleb128 0x13
	.uleb128 0x3c
	.uleb128 0x19
	.uleb128 0x1
	.uleb128 0x13
	.byte	0
	.byte	0
	.uleb128 0x91
	.uleb128 0x2e
	.byte	0x1
	.uleb128 0x3f
	.uleb128 0x19
	.uleb128 0x3
	.uleb128 0xe
	.uleb128 0x3a
	.uleb128 0xb
	.uleb128 0x3b
	.uleb128 0x5
	.uleb128 0x39
	.uleb128 0xb
	.uleb128 0x87
	.uleb128 0x19
	.uleb128 0x3c
	.uleb128 0x19
	.uleb128 0x1
	.uleb128 0x13
	.byte	0
	.byte	0
	.uleb128 0x92
	.uleb128 0x16
	.byte	0
	.uleb128 0x3
	.uleb128 0xe
	.uleb128 0x3a
	.uleb128 0xb
	.uleb128 0x3b
	.uleb128 0xb
	.uleb128 0x39
	.uleb128 0xb
	.byte	0
	.byte	0
	.uleb128 0x93
	.uleb128 0x34
	.byte	0
	.uleb128 0x47
	.uleb128 0x13
	.uleb128 0x2
	.uleb128 0x18
	.byte	0
	.byte	0
	.uleb128 0x94
	.uleb128 0x39
	.byte	0x1
	.uleb128 0x3
	.uleb128 0x8
	.uleb128 0x3a
	.uleb128 0xb
	.uleb128 0x3b
	.uleb128 0xb
	.uleb128 0x39
	.uleb128 0xb
	.uleb128 0x89
	.uleb128 0x19
	.byte	0
	.byte	0
	.uleb128 0x95
	.uleb128 0x2e
	.byte	0x1
	.uleb128 0x3f
	.uleb128 0x19
	.uleb128 0x3
	.uleb128 0xe
	.uleb128 0x6e
	.uleb128 0xe
	.uleb128 0x34
	.uleb128 0x19
	.uleb128 0x32
	.uleb128 0xb
	.uleb128 0x3c
	.uleb128 0x19
	.uleb128 0x64
	.uleb128 0x13
	.uleb128 0x1
	.uleb128 0x13
	.byte	0
	.byte	0
	.uleb128 0x96
	.uleb128 0x4107
	.byte	0x1
	.uleb128 0x3
	.uleb128 0xe
	.uleb128 0x3a
	.uleb128 0xb
	.uleb128 0x3b
	.uleb128 0xb
	.uleb128 0x39
	.uleb128 0xb
	.byte	0
	.byte	0
	.uleb128 0x97
	.uleb128 0x2e
	.byte	0x1
	.uleb128 0x3f
	.uleb128 0x19
	.uleb128 0x3
	.uleb128 0xe
	.uleb128 0x3a
	.uleb128 0xb
	.uleb128 0x3b
	.uleb128 0xb
	.uleb128 0x39
	.uleb128 0xb
	.uleb128 0x6e
	.uleb128 0xe
	.uleb128 0x49
	.uleb128 0x13
	.uleb128 0x3c
	.uleb128 0x19
	.byte	0
	.byte	0
	.uleb128 0x98
	.uleb128 0x34
	.byte	0
	.uleb128 0x3
	.uleb128 0xe
	.uleb128 0x49
	.uleb128 0x13
	.uleb128 0x3f
	.uleb128 0x19
	.uleb128 0x34
	.uleb128 0x19
	.uleb128 0x3c
	.uleb128 0x19
	.byte	0
	.byte	0
	.uleb128 0x99
	.uleb128 0x2e
	.byte	0
	.uleb128 0x3f
	.uleb128 0x19
	.uleb128 0x3
	.uleb128 0xe
	.uleb128 0x34
	.uleb128 0x19
	.uleb128 0x3c
	.uleb128 0x19
	.byte	0
	.byte	0
	.uleb128 0x9a
	.uleb128 0x2e
	.byte	0
	.uleb128 0x3f
	.uleb128 0x19
	.uleb128 0x3
	.uleb128 0xe
	.uleb128 0x34
	.uleb128 0x19
	.uleb128 0x87
	.uleb128 0x19
	.uleb128 0x3c
	.uleb128 0x19
	.byte	0
	.byte	0
	.uleb128 0x9b
	.uleb128 0x2e
	.byte	0x1
	.uleb128 0x3f
	.uleb128 0x19
	.uleb128 0x3
	.uleb128 0xe
	.uleb128 0x34
	.uleb128 0x19
	.uleb128 0x3c
	.uleb128 0x19
	.uleb128 0x1
	.uleb128 0x13
	.byte	0
	.byte	0
	.uleb128 0x9c
	.uleb128 0x2e
	.byte	0x1
	.uleb128 0x3f
	.uleb128 0x19
	.uleb128 0x3
	.uleb128 0xe
	.uleb128 0x34
	.uleb128 0x19
	.uleb128 0x87
	.uleb128 0x19
	.uleb128 0x3c
	.uleb128 0x19
	.uleb128 0x1
	.uleb128 0x13
	.byte	0
	.byte	0
	.uleb128 0x9d
	.uleb128 0x2e
	.byte	0
	.uleb128 0x3
	.uleb128 0xe
	.uleb128 0x34
	.uleb128 0x19
	.uleb128 0x11
	.uleb128 0x1
	.uleb128 0x12
	.uleb128 0x7
	.uleb128 0x40
	.uleb128 0x18
	.uleb128 0x7c
	.uleb128 0x19
	.byte	0
	.byte	0
	.uleb128 0x9e
	.uleb128 0x2e
	.byte	0x1
	.uleb128 0x3
	.uleb128 0xe
	.uleb128 0x34
	.uleb128 0x19
	.uleb128 0x11
	.uleb128 0x1
	.uleb128 0x12
	.uleb128 0x7
	.uleb128 0x40
	.uleb128 0x18
	.uleb128 0x7c
	.uleb128 0x19
	.uleb128 0x1
	.uleb128 0x13
	.byte	0
	.byte	0
	.uleb128 0x9f
	.uleb128 0x4108
	.byte	0
	.uleb128 0x3a
	.uleb128 0xb
	.uleb128 0x3b
	.uleb128 0xb
	.uleb128 0x39
	.uleb128 0xb
	.byte	0
	.byte	0
	.uleb128 0xa0
	.uleb128 0x34
	.byte	0
	.uleb128 0x3
	.uleb128 0xe
	.uleb128 0x3a
	.uleb128 0xb
	.uleb128 0x3b
	.uleb128 0x5
	.uleb128 0x39
	.uleb128 0xb
	.uleb128 0x49
	.uleb128 0x13
	.uleb128 0x6c
	.uleb128 0x19
	.uleb128 0x2
	.uleb128 0x18
	.byte	0
	.byte	0
	.uleb128 0xa1
	.uleb128 0x2e
	.byte	0x1
	.uleb128 0x47
	.uleb128 0x13
	.uleb128 0x1
	.uleb128 0x13
	.byte	0
	.byte	0
	.uleb128 0xa2
	.uleb128 0x5
	.byte	0
	.uleb128 0x3
	.uleb128 0xe
	.uleb128 0x3a
	.uleb128 0xb
	.uleb128 0x3b
	.uleb128 0x5
	.uleb128 0x39
	.uleb128 0xb
	.uleb128 0x49
	.uleb128 0x13
	.byte	0
	.byte	0
	.uleb128 0xa3
	.uleb128 0x4108
	.byte	0x1
	.uleb128 0x3a
	.uleb128 0xb
	.uleb128 0x3b
	.uleb128 0xb
	.uleb128 0x39
	.uleb128 0xb
	.uleb128 0x1
	.uleb128 0x13
	.byte	0
	.byte	0
	.uleb128 0xa4
	.uleb128 0x13
	.byte	0x1
	.uleb128 0xb
	.uleb128 0xb
	.uleb128 0x3a
	.uleb128 0xb
	.uleb128 0x3b
	.uleb128 0xb
	.uleb128 0x39
	.uleb128 0xb
	.byte	0
	.byte	0
	.uleb128 0xa5
	.uleb128 0x2e
	.byte	0x1
	.uleb128 0x3f
	.uleb128 0x19
	.uleb128 0x3
	.uleb128 0xe
	.uleb128 0x6e
	.uleb128 0xe
	.uleb128 0x34
	.uleb128 0x19
	.uleb128 0x3c
	.uleb128 0x19
	.uleb128 0x8a
	.uleb128 0x19
	.uleb128 0x64
	.uleb128 0x13
	.uleb128 0x1
	.uleb128 0x13
	.byte	0
	.byte	0
	.uleb128 0xa6
	.uleb128 0x2e
	.byte	0x1
	.uleb128 0x3f
	.uleb128 0x19
	.uleb128 0x3
	.uleb128 0xe
	.uleb128 0x6e
	.uleb128 0xe
	.uleb128 0x34
	.uleb128 0x19
	.uleb128 0x64
	.uleb128 0x13
	.uleb128 0x11
	.uleb128 0x1
	.uleb128 0x12
	.uleb128 0x7
	.uleb128 0x40
	.uleb128 0x18
	.uleb128 0x7a
	.uleb128 0x19
	.byte	0
	.byte	0
	.uleb128 0xa7
	.uleb128 0x34
	.byte	0
	.uleb128 0x3
	.uleb128 0xe
	.uleb128 0x49
	.uleb128 0x13
	.uleb128 0x34
	.uleb128 0x19
	.uleb128 0x2
	.uleb128 0x18
	.byte	0
	.byte	0
	.uleb128 0xa8
	.uleb128 0xb
	.byte	0x1
	.uleb128 0x31
	.uleb128 0x13
	.uleb128 0x1
	.uleb128 0x13
	.byte	0
	.byte	0
	.uleb128 0xa9
	.uleb128 0x34
	.byte	0
	.uleb128 0x31
	.uleb128 0x13
	.byte	0
	.byte	0
	.uleb128 0xaa
	.uleb128 0xb
	.byte	0x1
	.uleb128 0x31
	.uleb128 0x13
	.uleb128 0x11
	.uleb128 0x1
	.uleb128 0x12
	.uleb128 0x7
	.byte	0
	.byte	0
	.uleb128 0xab
	.uleb128 0x34
	.byte	0
	.uleb128 0x31
	.uleb128 0x13
	.uleb128 0x2
	.uleb128 0x18
	.byte	0
	.byte	0
	.uleb128 0xac
	.uleb128 0x2e
	.byte	0x1
	.uleb128 0x3f
	.uleb128 0x19
	.uleb128 0x3
	.uleb128 0xe
	.uleb128 0x3a
	.uleb128 0xb
	.uleb128 0x3b
	.uleb128 0xb
	.uleb128 0x39
	.uleb128 0xb
	.uleb128 0x49
	.uleb128 0x13
	.uleb128 0x11
	.uleb128 0x1
	.uleb128 0x12
	.uleb128 0x7
	.uleb128 0x40
	.uleb128 0x18
	.uleb128 0x7c
	.uleb128 0x19
	.uleb128 0x1
	.uleb128 0x13
	.byte	0
	.byte	0
	.uleb128 0xad
	.uleb128 0x2e
	.byte	0x1
	.uleb128 0x3f
	.uleb128 0x19
	.uleb128 0x3
	.uleb128 0xe
	.uleb128 0x3a
	.uleb128 0xb
	.uleb128 0x3b
	.uleb128 0xb
	.uleb128 0x39
	.uleb128 0xb
	.uleb128 0x6e
	.uleb128 0xe
	.uleb128 0x49
	.uleb128 0x13
	.uleb128 0x11
	.uleb128 0x1
	.uleb128 0x12
	.uleb128 0x7
	.uleb128 0x40
	.uleb128 0x18
	.uleb128 0x7a
	.uleb128 0x19
	.uleb128 0x1
	.uleb128 0x13
	.byte	0
	.byte	0
	.byte	0
	.section	.debug_aranges,"",@progbits
	.long	0x74c
	.value	0x2
	.long	.Ldebug_info0
	.byte	0x8
	.byte	0
	.value	0
	.value	0
	.quad	.Ltext0
	.quad	.Letext0-.Ltext0
	.quad	.LFB40
	.quad	.LFE40-.LFB40
	.quad	.LFB652
	.quad	.LFE652-.LFB652
	.quad	.LFB2560
	.quad	.LFE2560-.LFB2560
	.quad	.LFB2830
	.quad	.LFE2830-.LFB2830
	.quad	.LFB2832
	.quad	.LFE2832-.LFB2832
	.quad	.LFB2834
	.quad	.LFE2834-.LFB2834
	.quad	.LFB2836
	.quad	.LFE2836-.LFB2836
	.quad	.LFB2837
	.quad	.LFE2837-.LFB2837
	.quad	.LFB2840
	.quad	.LFE2840-.LFB2840
	.quad	.LFB2843
	.quad	.LFE2843-.LFB2843
	.quad	.LFB2845
	.quad	.LFE2845-.LFB2845
	.quad	.LFB2846
	.quad	.LFE2846-.LFB2846
	.quad	.LFB2953
	.quad	.LFE2953-.LFB2953
	.quad	.LFB2956
	.quad	.LFE2956-.LFB2956
	.quad	.LFB2959
	.quad	.LFE2959-.LFB2959
	.quad	.LFB2962
	.quad	.LFE2962-.LFB2962
	.quad	.LFB2965
	.quad	.LFE2965-.LFB2965
	.quad	.LFB2968
	.quad	.LFE2968-.LFB2968
	.quad	.LFB2970
	.quad	.LFE2970-.LFB2970
	.quad	.LFB2971
	.quad	.LFE2971-.LFB2971
	.quad	.LFB2972
	.quad	.LFE2972-.LFB2972
	.quad	.LFB2973
	.quad	.LFE2973-.LFB2973
	.quad	.LFB2974
	.quad	.LFE2974-.LFB2974
	.quad	.LFB2975
	.quad	.LFE2975-.LFB2975
	.quad	.LFB2978
	.quad	.LFE2978-.LFB2978
	.quad	.LFB2980
	.quad	.LFE2980-.LFB2980
	.quad	.LFB2982
	.quad	.LFE2982-.LFB2982
	.quad	.LFB2983
	.quad	.LFE2983-.LFB2983
	.quad	.LFB2984
	.quad	.LFE2984-.LFB2984
	.quad	.LFB2985
	.quad	.LFE2985-.LFB2985
	.quad	.LFB2986
	.quad	.LFE2986-.LFB2986
	.quad	.LFB2987
	.quad	.LFE2987-.LFB2987
	.quad	.LFB3057
	.quad	.LFE3057-.LFB3057
	.quad	.LFB3060
	.quad	.LFE3060-.LFB3060
	.quad	.LFB3063
	.quad	.LFE3063-.LFB3063
	.quad	.LFB3065
	.quad	.LFE3065-.LFB3065
	.quad	.LFB3067
	.quad	.LFE3067-.LFB3067
	.quad	.LFB3070
	.quad	.LFE3070-.LFB3070
	.quad	.LFB3073
	.quad	.LFE3073-.LFB3073
	.quad	.LFB3075
	.quad	.LFE3075-.LFB3075
	.quad	.LFB3076
	.quad	.LFE3076-.LFB3076
	.quad	.LFB3078
	.quad	.LFE3078-.LFB3078
	.quad	.LFB3077
	.quad	.LFE3077-.LFB3077
	.quad	.LFB3080
	.quad	.LFE3080-.LFB3080
	.quad	.LFB3082
	.quad	.LFE3082-.LFB3082
	.quad	.LFB3083
	.quad	.LFE3083-.LFB3083
	.quad	.LFB3084
	.quad	.LFE3084-.LFB3084
	.quad	.LFB3085
	.quad	.LFE3085-.LFB3085
	.quad	.LFB3086
	.quad	.LFE3086-.LFB3086
	.quad	.LFB3091
	.quad	.LFE3091-.LFB3091
	.quad	.LFB3092
	.quad	.LFE3092-.LFB3092
	.quad	.LFB3093
	.quad	.LFE3093-.LFB3093
	.quad	.LFB3094
	.quad	.LFE3094-.LFB3094
	.quad	.LFB3150
	.quad	.LFE3150-.LFB3150
	.quad	.LFB3152
	.quad	.LFE3152-.LFB3152
	.quad	.LFB3154
	.quad	.LFE3154-.LFB3154
	.quad	.LFB3156
	.quad	.LFE3156-.LFB3156
	.quad	.LFB3157
	.quad	.LFE3157-.LFB3157
	.quad	.LFB3158
	.quad	.LFE3158-.LFB3158
	.quad	.LFB3159
	.quad	.LFE3159-.LFB3159
	.quad	.LFB3160
	.quad	.LFE3160-.LFB3160
	.quad	.LFB3161
	.quad	.LFE3161-.LFB3161
	.quad	.LFB3162
	.quad	.LFE3162-.LFB3162
	.quad	.LFB3163
	.quad	.LFE3163-.LFB3163
	.quad	.LFB3164
	.quad	.LFE3164-.LFB3164
	.quad	.LFB3165
	.quad	.LFE3165-.LFB3165
	.quad	.LFB3166
	.quad	.LFE3166-.LFB3166
	.quad	.LFB3167
	.quad	.LFE3167-.LFB3167
	.quad	.LFB3168
	.quad	.LFE3168-.LFB3168
	.quad	.LFB3169
	.quad	.LFE3169-.LFB3169
	.quad	.LFB3170
	.quad	.LFE3170-.LFB3170
	.quad	.LFB3192
	.quad	.LFE3192-.LFB3192
	.quad	.LFB3194
	.quad	.LFE3194-.LFB3194
	.quad	.LFB3197
	.quad	.LFE3197-.LFB3197
	.quad	.LFB3199
	.quad	.LFE3199-.LFB3199
	.quad	.LFB3200
	.quad	.LFE3200-.LFB3200
	.quad	.LFB3201
	.quad	.LFE3201-.LFB3201
	.quad	.LFB3203
	.quad	.LFE3203-.LFB3203
	.quad	.LFB3204
	.quad	.LFE3204-.LFB3204
	.quad	.LFB3205
	.quad	.LFE3205-.LFB3205
	.quad	.LFB3206
	.quad	.LFE3206-.LFB3206
	.quad	.LFB3207
	.quad	.LFE3207-.LFB3207
	.quad	.LFB3208
	.quad	.LFE3208-.LFB3208
	.quad	.LFB3209
	.quad	.LFE3209-.LFB3209
	.quad	.LFB3220
	.quad	.LFE3220-.LFB3220
	.quad	.LFB3222
	.quad	.LFE3222-.LFB3222
	.quad	.LFB3223
	.quad	.LFE3223-.LFB3223
	.quad	.LFB3224
	.quad	.LFE3224-.LFB3224
	.quad	.LFB3225
	.quad	.LFE3225-.LFB3225
	.quad	.LFB3226
	.quad	.LFE3226-.LFB3226
	.quad	.LFB3227
	.quad	.LFE3227-.LFB3227
	.quad	.LFB3228
	.quad	.LFE3228-.LFB3228
	.quad	.LFB3229
	.quad	.LFE3229-.LFB3229
	.quad	.LFB3230
	.quad	.LFE3230-.LFB3230
	.quad	.LFB3235
	.quad	.LFE3235-.LFB3235
	.quad	.LFB3236
	.quad	.LFE3236-.LFB3236
	.quad	.LFB3237
	.quad	.LFE3237-.LFB3237
	.quad	.LFB3238
	.quad	.LFE3238-.LFB3238
	.quad	.LFB3239
	.quad	.LFE3239-.LFB3239
	.quad	.LFB3240
	.quad	.LFE3240-.LFB3240
	.quad	.LFB3241
	.quad	.LFE3241-.LFB3241
	.quad	.LFB3242
	.quad	.LFE3242-.LFB3242
	.quad	.LFB3243
	.quad	.LFE3243-.LFB3243
	.quad	.LFB3244
	.quad	.LFE3244-.LFB3244
	.quad	.LFB3247
	.quad	.LFE3247-.LFB3247
	.quad	.LFB3248
	.quad	.LFE3248-.LFB3248
	.quad	.LFB3249
	.quad	.LFE3249-.LFB3249
	.quad	.LFB3250
	.quad	.LFE3250-.LFB3250
	.quad	.LFB3251
	.quad	.LFE3251-.LFB3251
	.quad	.LFB3252
	.quad	.LFE3252-.LFB3252
	.quad	.LFB3253
	.quad	.LFE3253-.LFB3253
	.quad	.LFB3254
	.quad	.LFE3254-.LFB3254
	.quad	.LFB3255
	.quad	.LFE3255-.LFB3255
	.quad	.LFB3256
	.quad	.LFE3256-.LFB3256
	.quad	0
	.quad	0
	.section	.debug_rnglists,"",@progbits
.Ldebug_ranges0:
	.long	.Ldebug_ranges3-.Ldebug_ranges2
.Ldebug_ranges2:
	.value	0x5
	.byte	0x8
	.byte	0
	.long	0
.LLRL0:
	.byte	0x5
	.quad	.LBB28
	.byte	0x4
	.uleb128 .LBB28-.LBB28
	.uleb128 .LBE28-.LBB28
	.byte	0x4
	.uleb128 .LBB34-.LBB28
	.uleb128 .LBE34-.LBB28
	.byte	0x4
	.uleb128 .LBB35-.LBB28
	.uleb128 .LBE35-.LBB28
	.byte	0
.LLRL1:
	.byte	0x5
	.quad	.LBB30
	.byte	0x4
	.uleb128 .LBB30-.LBB30
	.uleb128 .LBE30-.LBB30
	.byte	0x4
	.uleb128 .LBB31-.LBB30
	.uleb128 .LBE31-.LBB30
	.byte	0
.LLRL2:
	.byte	0x7
	.quad	.Ltext0
	.uleb128 .Letext0-.Ltext0
	.byte	0x7
	.quad	.LFB40
	.uleb128 .LFE40-.LFB40
	.byte	0x7
	.quad	.LFB652
	.uleb128 .LFE652-.LFB652
	.byte	0x7
	.quad	.LFB2560
	.uleb128 .LFE2560-.LFB2560
	.byte	0x7
	.quad	.LFB2830
	.uleb128 .LFE2830-.LFB2830
	.byte	0x7
	.quad	.LFB2832
	.uleb128 .LFE2832-.LFB2832
	.byte	0x7
	.quad	.LFB2834
	.uleb128 .LFE2834-.LFB2834
	.byte	0x7
	.quad	.LFB2836
	.uleb128 .LFE2836-.LFB2836
	.byte	0x7
	.quad	.LFB2837
	.uleb128 .LFE2837-.LFB2837
	.byte	0x7
	.quad	.LFB2840
	.uleb128 .LFE2840-.LFB2840
	.byte	0x7
	.quad	.LFB2843
	.uleb128 .LFE2843-.LFB2843
	.byte	0x7
	.quad	.LFB2845
	.uleb128 .LFE2845-.LFB2845
	.byte	0x7
	.quad	.LFB2846
	.uleb128 .LFE2846-.LFB2846
	.byte	0x7
	.quad	.LFB2953
	.uleb128 .LFE2953-.LFB2953
	.byte	0x7
	.quad	.LFB2956
	.uleb128 .LFE2956-.LFB2956
	.byte	0x7
	.quad	.LFB2959
	.uleb128 .LFE2959-.LFB2959
	.byte	0x7
	.quad	.LFB2962
	.uleb128 .LFE2962-.LFB2962
	.byte	0x7
	.quad	.LFB2965
	.uleb128 .LFE2965-.LFB2965
	.byte	0x7
	.quad	.LFB2968
	.uleb128 .LFE2968-.LFB2968
	.byte	0x7
	.quad	.LFB2970
	.uleb128 .LFE2970-.LFB2970
	.byte	0x7
	.quad	.LFB2971
	.uleb128 .LFE2971-.LFB2971
	.byte	0x7
	.quad	.LFB2972
	.uleb128 .LFE2972-.LFB2972
	.byte	0x7
	.quad	.LFB2973
	.uleb128 .LFE2973-.LFB2973
	.byte	0x7
	.quad	.LFB2974
	.uleb128 .LFE2974-.LFB2974
	.byte	0x7
	.quad	.LFB2975
	.uleb128 .LFE2975-.LFB2975
	.byte	0x7
	.quad	.LFB2978
	.uleb128 .LFE2978-.LFB2978
	.byte	0x7
	.quad	.LFB2980
	.uleb128 .LFE2980-.LFB2980
	.byte	0x7
	.quad	.LFB2982
	.uleb128 .LFE2982-.LFB2982
	.byte	0x7
	.quad	.LFB2983
	.uleb128 .LFE2983-.LFB2983
	.byte	0x7
	.quad	.LFB2984
	.uleb128 .LFE2984-.LFB2984
	.byte	0x7
	.quad	.LFB2985
	.uleb128 .LFE2985-.LFB2985
	.byte	0x7
	.quad	.LFB2986
	.uleb128 .LFE2986-.LFB2986
	.byte	0x7
	.quad	.LFB2987
	.uleb128 .LFE2987-.LFB2987
	.byte	0x7
	.quad	.LFB3057
	.uleb128 .LFE3057-.LFB3057
	.byte	0x7
	.quad	.LFB3060
	.uleb128 .LFE3060-.LFB3060
	.byte	0x7
	.quad	.LFB3063
	.uleb128 .LFE3063-.LFB3063
	.byte	0x7
	.quad	.LFB3065
	.uleb128 .LFE3065-.LFB3065
	.byte	0x7
	.quad	.LFB3067
	.uleb128 .LFE3067-.LFB3067
	.byte	0x7
	.quad	.LFB3070
	.uleb128 .LFE3070-.LFB3070
	.byte	0x7
	.quad	.LFB3073
	.uleb128 .LFE3073-.LFB3073
	.byte	0x7
	.quad	.LFB3075
	.uleb128 .LFE3075-.LFB3075
	.byte	0x7
	.quad	.LFB3076
	.uleb128 .LFE3076-.LFB3076
	.byte	0x7
	.quad	.LFB3078
	.uleb128 .LFE3078-.LFB3078
	.byte	0x7
	.quad	.LFB3077
	.uleb128 .LFE3077-.LFB3077
	.byte	0x7
	.quad	.LFB3080
	.uleb128 .LFE3080-.LFB3080
	.byte	0x7
	.quad	.LFB3082
	.uleb128 .LFE3082-.LFB3082
	.byte	0x7
	.quad	.LFB3083
	.uleb128 .LFE3083-.LFB3083
	.byte	0x7
	.quad	.LFB3084
	.uleb128 .LFE3084-.LFB3084
	.byte	0x7
	.quad	.LFB3085
	.uleb128 .LFE3085-.LFB3085
	.byte	0x7
	.quad	.LFB3086
	.uleb128 .LFE3086-.LFB3086
	.byte	0x7
	.quad	.LFB3091
	.uleb128 .LFE3091-.LFB3091
	.byte	0x7
	.quad	.LFB3092
	.uleb128 .LFE3092-.LFB3092
	.byte	0x7
	.quad	.LFB3093
	.uleb128 .LFE3093-.LFB3093
	.byte	0x7
	.quad	.LFB3094
	.uleb128 .LFE3094-.LFB3094
	.byte	0x7
	.quad	.LFB3150
	.uleb128 .LFE3150-.LFB3150
	.byte	0x7
	.quad	.LFB3152
	.uleb128 .LFE3152-.LFB3152
	.byte	0x7
	.quad	.LFB3154
	.uleb128 .LFE3154-.LFB3154
	.byte	0x7
	.quad	.LFB3156
	.uleb128 .LFE3156-.LFB3156
	.byte	0x7
	.quad	.LFB3157
	.uleb128 .LFE3157-.LFB3157
	.byte	0x7
	.quad	.LFB3158
	.uleb128 .LFE3158-.LFB3158
	.byte	0x7
	.quad	.LFB3159
	.uleb128 .LFE3159-.LFB3159
	.byte	0x7
	.quad	.LFB3160
	.uleb128 .LFE3160-.LFB3160
	.byte	0x7
	.quad	.LFB3161
	.uleb128 .LFE3161-.LFB3161
	.byte	0x7
	.quad	.LFB3162
	.uleb128 .LFE3162-.LFB3162
	.byte	0x7
	.quad	.LFB3163
	.uleb128 .LFE3163-.LFB3163
	.byte	0x7
	.quad	.LFB3164
	.uleb128 .LFE3164-.LFB3164
	.byte	0x7
	.quad	.LFB3165
	.uleb128 .LFE3165-.LFB3165
	.byte	0x7
	.quad	.LFB3166
	.uleb128 .LFE3166-.LFB3166
	.byte	0x7
	.quad	.LFB3167
	.uleb128 .LFE3167-.LFB3167
	.byte	0x7
	.quad	.LFB3168
	.uleb128 .LFE3168-.LFB3168
	.byte	0x7
	.quad	.LFB3169
	.uleb128 .LFE3169-.LFB3169
	.byte	0x7
	.quad	.LFB3170
	.uleb128 .LFE3170-.LFB3170
	.byte	0x7
	.quad	.LFB3192
	.uleb128 .LFE3192-.LFB3192
	.byte	0x7
	.quad	.LFB3194
	.uleb128 .LFE3194-.LFB3194
	.byte	0x7
	.quad	.LFB3197
	.uleb128 .LFE3197-.LFB3197
	.byte	0x7
	.quad	.LFB3199
	.uleb128 .LFE3199-.LFB3199
	.byte	0x7
	.quad	.LFB3200
	.uleb128 .LFE3200-.LFB3200
	.byte	0x7
	.quad	.LFB3201
	.uleb128 .LFE3201-.LFB3201
	.byte	0x7
	.quad	.LFB3203
	.uleb128 .LFE3203-.LFB3203
	.byte	0x7
	.quad	.LFB3204
	.uleb128 .LFE3204-.LFB3204
	.byte	0x7
	.quad	.LFB3205
	.uleb128 .LFE3205-.LFB3205
	.byte	0x7
	.quad	.LFB3206
	.uleb128 .LFE3206-.LFB3206
	.byte	0x7
	.quad	.LFB3207
	.uleb128 .LFE3207-.LFB3207
	.byte	0x7
	.quad	.LFB3208
	.uleb128 .LFE3208-.LFB3208
	.byte	0x7
	.quad	.LFB3209
	.uleb128 .LFE3209-.LFB3209
	.byte	0x7
	.quad	.LFB3220
	.uleb128 .LFE3220-.LFB3220
	.byte	0x7
	.quad	.LFB3222
	.uleb128 .LFE3222-.LFB3222
	.byte	0x7
	.quad	.LFB3223
	.uleb128 .LFE3223-.LFB3223
	.byte	0x7
	.quad	.LFB3224
	.uleb128 .LFE3224-.LFB3224
	.byte	0x7
	.quad	.LFB3225
	.uleb128 .LFE3225-.LFB3225
	.byte	0x7
	.quad	.LFB3226
	.uleb128 .LFE3226-.LFB3226
	.byte	0x7
	.quad	.LFB3227
	.uleb128 .LFE3227-.LFB3227
	.byte	0x7
	.quad	.LFB3228
	.uleb128 .LFE3228-.LFB3228
	.byte	0x7
	.quad	.LFB3229
	.uleb128 .LFE3229-.LFB3229
	.byte	0x7
	.quad	.LFB3230
	.uleb128 .LFE3230-.LFB3230
	.byte	0x7
	.quad	.LFB3235
	.uleb128 .LFE3235-.LFB3235
	.byte	0x7
	.quad	.LFB3236
	.uleb128 .LFE3236-.LFB3236
	.byte	0x7
	.quad	.LFB3237
	.uleb128 .LFE3237-.LFB3237
	.byte	0x7
	.quad	.LFB3238
	.uleb128 .LFE3238-.LFB3238
	.byte	0x7
	.quad	.LFB3239
	.uleb128 .LFE3239-.LFB3239
	.byte	0x7
	.quad	.LFB3240
	.uleb128 .LFE3240-.LFB3240
	.byte	0x7
	.quad	.LFB3241
	.uleb128 .LFE3241-.LFB3241
	.byte	0x7
	.quad	.LFB3242
	.uleb128 .LFE3242-.LFB3242
	.byte	0x7
	.quad	.LFB3243
	.uleb128 .LFE3243-.LFB3243
	.byte	0x7
	.quad	.LFB3244
	.uleb128 .LFE3244-.LFB3244
	.byte	0x7
	.quad	.LFB3247
	.uleb128 .LFE3247-.LFB3247
	.byte	0x7
	.quad	.LFB3248
	.uleb128 .LFE3248-.LFB3248
	.byte	0x7
	.quad	.LFB3249
	.uleb128 .LFE3249-.LFB3249
	.byte	0x7
	.quad	.LFB3250
	.uleb128 .LFE3250-.LFB3250
	.byte	0x7
	.quad	.LFB3251
	.uleb128 .LFE3251-.LFB3251
	.byte	0x7
	.quad	.LFB3252
	.uleb128 .LFE3252-.LFB3252
	.byte	0x7
	.quad	.LFB3253
	.uleb128 .LFE3253-.LFB3253
	.byte	0x7
	.quad	.LFB3254
	.uleb128 .LFE3254-.LFB3254
	.byte	0x7
	.quad	.LFB3255
	.uleb128 .LFE3255-.LFB3255
	.byte	0x7
	.quad	.LFB3256
	.uleb128 .LFE3256-.LFB3256
	.byte	0
.Ldebug_ranges3:
	.section	.debug_line,"",@progbits
.Ldebug_line0:
	.section	.debug_str,"MS",@progbits,1
.LASF219:
	.string	"_ZNSt12_Vector_baseIlSaIlEEC4ERKS0_"
.LASF750:
	.string	"long long int"
.LASF817:
	.string	"positive_sign"
.LASF378:
	.string	"_ZNKSt16initializer_listIlE5beginEv"
.LASF516:
	.string	"reverse_iterator<__gnu_cxx::__normal_iterator<int*, std::vector<int, std::allocator<int> > > >"
.LASF856:
	.string	"mbstowcs"
.LASF478:
	.string	"_ZNKSt6vectorIiSaIiEEixEm"
.LASF844:
	.string	"lldiv_t"
.LASF473:
	.string	"_ZNSt6vectorIiSaIiEE13shrink_to_fitEv"
.LASF49:
	.string	"__pad5"
.LASF865:
	.string	"strtoul"
.LASF834:
	.string	"getwchar"
.LASF7:
	.string	"long unsigned int"
.LASF223:
	.string	"_ZNSt12_Vector_baseIlSaIlEEC4EOS0_"
.LASF710:
	.string	"_ZN9__gnu_cxx17__normal_iteratorIPlSt6vectorIlSaIlEEEC4Ev"
.LASF914:
	.string	"__pstl"
.LASF144:
	.string	"_InputIterator"
.LASF905:
	.string	"tmpfile"
.LASF546:
	.string	"_ZSt12__niter_wrapIPlET_RKS1_S1_"
.LASF927:
	.string	"_ZN6__pstl9execution2v127parallel_unsequenced_policy19__allow_unsequencedEv"
.LASF206:
	.string	"_ZNSt12_Vector_baseIlSaIlEE12_Vector_implC4Ev"
.LASF374:
	.string	"initializer_list"
.LASF48:
	.string	"_freeres_buf"
.LASF297:
	.string	"shrink_to_fit"
.LASF421:
	.string	"_ZNSt12_Vector_baseIiSaIiEEC4Em"
.LASF419:
	.string	"_ZNSt12_Vector_baseIiSaIiEEC4Ev"
.LASF222:
	.string	"_ZNSt12_Vector_baseIlSaIlEEC4EOS1_"
.LASF491:
	.string	"_ZNSt6vectorIiSaIiEE6insertEN9__gnu_cxx17__normal_iteratorIPKiS1_EERS4_"
.LASF303:
	.string	"reserve"
.LASF609:
	.string	"_IIter"
.LASF1043:
	.string	"index"
.LASF118:
	.string	"_ZNSt11char_traitsIcE7not_eofERKi"
.LASF348:
	.string	"_ZNSt6vectorIlSaIlEE16_M_shrink_to_fitEv"
.LASF613:
	.string	"__size_to_integer"
.LASF213:
	.string	"_ZNSt12_Vector_baseIlSaIlEE19_M_get_Tp_allocatorEv"
.LASF365:
	.string	"_ZNSt6vectorIlSaIlEE14_M_move_assignEOS1_St17integral_constantIbLb1EE"
.LASF281:
	.string	"_ZNSt6vectorIlSaIlEE4rendEv"
.LASF392:
	.string	"allocator<int>"
.LASF520:
	.string	"iterator_traits<long int const*>"
.LASF403:
	.string	"_Vector_base<int, std::allocator<int> >"
.LASF287:
	.string	"crbegin"
.LASF573:
	.string	"__relocate_a_1<int, int>"
.LASF805:
	.string	"uintptr_t"
.LASF709:
	.string	"__normal_iterator"
.LASF595:
	.string	"__iterator_category<long int const*>"
.LASF559:
	.string	"_Iter"
.LASF930:
	.string	"unsequenced_policy"
.LASF305:
	.string	"operator[]"
.LASF314:
	.string	"_ZNKSt6vectorIlSaIlEE5frontEv"
.LASF809:
	.string	"decimal_point"
.LASF317:
	.string	"_ZNKSt6vectorIlSaIlEE4backEv"
.LASF744:
	.string	"__normal_iterator<int*, std::vector<int, std::allocator<int> > >"
.LASF973:
	.string	"__first"
.LASF502:
	.string	"_ZNSt6vectorIiSaIiEE14_M_fill_insertEN9__gnu_cxx17__normal_iteratorIPiS1_EEmRKi"
.LASF462:
	.string	"_ZNKSt6vectorIiSaIiEE6rbeginEv"
.LASF488:
	.string	"_ZNSt6vectorIiSaIiEE9push_backERKi"
.LASF397:
	.string	"allocator_traits<std::allocator<int> >"
.LASF532:
	.string	"_ZSt17__throw_bad_allocv"
.LASF775:
	.string	"__intmax_t"
.LASF400:
	.string	"_ZNSt16allocator_traitsISaIiEE10deallocateERS0_Pim"
.LASF588:
	.string	"__uninitialized_default_n_a<int*, long unsigned int, int>"
.LASF808:
	.string	"lconv"
.LASF811:
	.string	"grouping"
.LASF422:
	.string	"_ZNSt12_Vector_baseIiSaIiEEC4EmRKS0_"
.LASF641:
	.string	"__isoc99_vswscanf"
.LASF829:
	.string	"int_n_cs_precedes"
.LASF999:
	.string	"__lhs"
.LASF389:
	.string	"_ZNSt15__new_allocatorIiE10deallocateEPim"
.LASF634:
	.string	"__isoc99_swscanf"
.LASF946:
	.string	"shape"
.LASF336:
	.string	"_ZNSt6vectorIlSaIlEE5clearEv"
.LASF1020:
	.string	"n_indices"
.LASF879:
	.string	"_IO_marker"
.LASF373:
	.string	"_M_len"
.LASF938:
	.string	"execution"
.LASF571:
	.string	"_ZSt4copyIPKlPlET0_T_S4_S3_"
.LASF119:
	.string	"_CharT"
.LASF655:
	.string	"tm_mday"
.LASF746:
	.string	"operator!=<long int*, std::vector<long int> >"
.LASF1064:
	.string	"__cxa_free_exception"
.LASF555:
	.string	"_ZSt10__fill_n_aIPimiET_S1_T0_RKT1_St26random_access_iterator_tag"
.LASF77:
	.string	"_ZNKSt15__exception_ptr13exception_ptr6_M_getEv"
.LASF898:
	.string	"getchar"
.LASF205:
	.string	"_Vector_impl"
.LASF468:
	.string	"_ZNKSt6vectorIiSaIiEE5crendEv"
.LASF786:
	.string	"uint32_t"
.LASF160:
	.string	"reference"
.LASF104:
	.string	"move"
.LASF894:
	.string	"fseek"
.LASF243:
	.string	"_S_use_relocate"
.LASF662:
	.string	"tm_zone"
.LASF554:
	.string	"__fill_n_a<int*, long unsigned int, int>"
.LASF420:
	.string	"_ZNSt12_Vector_baseIiSaIiEEC4ERKS0_"
.LASF268:
	.string	"iterator"
.LASF429:
	.string	"_ZNSt12_Vector_baseIiSaIiEE13_M_deallocateEPim"
.LASF6:
	.string	"long double"
.LASF1016:
	.string	"_ZNSaIiED2Ev"
.LASF1051:
	.string	"_ZNSt11char_traitsIcE3eofEv"
.LASF881:
	.string	"_IO_wide_data"
.LASF616:
	.string	"fgetwc"
.LASF617:
	.string	"fgetws"
.LASF792:
	.string	"uint_least8_t"
.LASF129:
	.string	"__cxx11"
.LASF425:
	.string	"_ZNSt12_Vector_baseIiSaIiEEC4EOS1_RKS0_"
.LASF123:
	.string	"bidirectional_iterator_tag"
.LASF182:
	.string	"allocator_traits<std::allocator<long int> >"
.LASF551:
	.string	"_ZSt12__niter_baseIPlET_S1_"
.LASF204:
	.string	"_ZNSt12_Vector_baseIlSaIlEE17_Vector_impl_data12_M_swap_dataERS2_"
.LASF125:
	.string	"__debug"
.LASF163:
	.string	"const_reference"
.LASF1028:
	.string	"_ZN9container7details18tensor_base_staticIiJLl2ELl3ELl4ELl5EEED4Ev"
.LASF713:
	.string	"_ZNK9__gnu_cxx17__normal_iteratorIPlSt6vectorIlSaIlEEEdeEv"
.LASF210:
	.string	"_ZNSt12_Vector_baseIlSaIlEE12_Vector_implC4EOS0_OS2_"
.LASF80:
	.string	"_ZNSt15__exception_ptr13exception_ptrC4EDn"
.LASF966:
	.string	"_Znwm"
.LASF722:
	.string	"_ZNK9__gnu_cxx17__normal_iteratorIPlSt6vectorIlSaIlEEEixEl"
.LASF753:
	.string	"bool"
.LASF247:
	.string	"_S_relocate"
.LASF280:
	.string	"rend"
.LASF970:
	.string	"__cxa_allocate_exception"
.LASF405:
	.string	"_ZNSt12_Vector_baseIiSaIiEE17_Vector_impl_dataC4EOS2_"
.LASF229:
	.string	"_M_allocate"
.LASF990:
	.string	"_ZNSt15__new_allocatorIlEC2ERKS0_"
.LASF747:
	.string	"_ZN9__gnu_cxxneIPlSt6vectorIlSaIlEEEEbRKNS_17__normal_iteratorIT_T0_EESA_"
.LASF481:
	.string	"_ZNKSt6vectorIiSaIiEE2atEm"
.LASF772:
	.string	"__uint_least32_t"
.LASF291:
	.string	"size"
.LASF331:
	.string	"erase"
.LASF137:
	.string	"basic_ostream<char, std::char_traits<char> >"
.LASF582:
	.string	"max<long unsigned int>"
.LASF196:
	.string	"_M_finish"
.LASF181:
	.string	"_ZNSaIlED4Ev"
.LASF860:
	.string	"quick_exit"
.LASF767:
	.string	"__int_least8_t"
.LASF653:
	.string	"tm_min"
.LASF813:
	.string	"currency_symbol"
.LASF621:
	.string	"fwide"
.LASF849:
	.string	"atof"
.LASF850:
	.string	"atoi"
.LASF199:
	.string	"_ZNSt12_Vector_baseIlSaIlEE17_Vector_impl_dataC4EOS2_"
.LASF493:
	.string	"_ZNSt6vectorIiSaIiEE6insertEN9__gnu_cxx17__normal_iteratorIPKiS1_EESt16initializer_listIiE"
.LASF1026:
	.string	"_ZZN9container7details18tensor_base_staticIiJLl2ELl3ELl4ELl5EEEC4EvENUliE_C4EOS3_"
.LASF51:
	.string	"_unused2"
.LASF484:
	.string	"_ZNSt6vectorIiSaIiEE4backEv"
.LASF471:
	.string	"_ZNSt6vectorIiSaIiEE6resizeEm"
.LASF980:
	.string	"__it"
.LASF13:
	.string	"size_t"
.LASF342:
	.string	"_ZNSt6vectorIlSaIlEE14_M_fill_assignEmRKl"
.LASF352:
	.string	"_ZNSt6vectorIlSaIlEE14_M_emplace_auxEN9__gnu_cxx17__normal_iteratorIPKlS1_EEOl"
.LASF498:
	.string	"_ZNSt6vectorIiSaIiEE5clearEv"
.LASF375:
	.string	"_ZNSt16initializer_listIlEC4EPKlm"
.LASF612:
	.string	"_ZStlsISt11char_traitsIcEERSt13basic_ostreamIcT_ES5_c"
.LASF177:
	.string	"operator bool"
.LASF950:
	.string	"_data"
.LASF489:
	.string	"_ZNSt6vectorIiSaIiEE9push_backEOi"
.LASF258:
	.string	"_ZNSt6vectorIlSaIlEEC4EOS1_RKS0_St17integral_constantIbLb0EE"
.LASF683:
	.string	"__isoc99_wscanf"
.LASF93:
	.string	"nullptr_t"
.LASF324:
	.string	"pop_back"
.LASF633:
	.string	"swscanf"
.LASF283:
	.string	"cbegin"
.LASF794:
	.string	"uint_least32_t"
.LASF574:
	.string	"_ZSt14__relocate_a_1IiiENSt9enable_ifIXsrSt24__is_bitwise_relocatableIT_vE5valueEPS2_E4typeES4_S4_S4_RSaIT0_E"
.LASF50:
	.string	"_mode"
.LASF961:
	.string	"this"
.LASF941:
	.string	"tensor_base_static"
.LASF178:
	.string	"_ZNKSt15__exception_ptr13exception_ptrcvbEv"
.LASF907:
	.string	"ungetc"
.LASF59:
	.string	"_ZNKSt17integral_constantIbLb0EEcvbEv"
.LASF497:
	.string	"_ZNSt6vectorIiSaIiEE4swapERS1_"
.LASF350:
	.string	"_ZNSt6vectorIlSaIlEE14_M_insert_rvalEN9__gnu_cxx17__normal_iteratorIPKlS1_EEOl"
.LASF638:
	.string	"__isoc99_vfwscanf"
.LASF960:
	.string	"_ZNSt8ios_base4InitC1Ev"
.LASF1002:
	.string	"_ZNSt12_Vector_baseIlSaIlEEC2ERKS0_"
.LASF450:
	.string	"_ZNSt6vectorIiSaIiEEC4ESt16initializer_listIiERKS0_"
.LASF261:
	.string	"~vector"
.LASF838:
	.string	"5div_t"
.LASF693:
	.string	"_ZN9__gnu_cxx14__alloc_traitsISaIlElE17_S_select_on_copyERKS1_"
.LASF142:
	.string	"__uninit_copy<long int const*, long int*>"
.LASF734:
	.string	"__normal_iterator<long int const*, std::vector<long int, std::allocator<long int> > >"
.LASF624:
	.string	"__isoc99_fwscanf"
.LASF121:
	.string	"true_type"
.LASF708:
	.string	"__normal_iterator<long int*, std::vector<long int, std::allocator<long int> > >"
.LASF831:
	.string	"int_p_sign_posn"
.LASF839:
	.string	"quot"
.LASF16:
	.string	"__wchb"
.LASF107:
	.string	"_ZNSt11char_traitsIcE4copyEPcPKcm"
.LASF197:
	.string	"_M_end_of_storage"
.LASF1066:
	.string	"__static_initialization_and_destruction_0"
.LASF596:
	.string	"_ZSt19__iterator_categoryIPKlENSt15iterator_traitsIT_E17iterator_categoryERKS3_"
.LASF656:
	.string	"tm_mon"
.LASF738:
	.string	"_ZN9__gnu_cxx14__alloc_traitsISaIiEiE27_S_propagate_on_copy_assignEv"
.LASF867:
	.string	"wcstombs"
.LASF911:
	.string	"towctrans"
.LASF851:
	.string	"atol"
.LASF329:
	.string	"_ZNSt6vectorIlSaIlEE6insertEN9__gnu_cxx17__normal_iteratorIPKlS1_EESt16initializer_listIlE"
.LASF396:
	.string	"_ZNSaIiED4Ev"
.LASF372:
	.string	"_M_array"
.LASF1046:
	.string	"__int128"
.LASF690:
	.string	"__ops"
.LASF943:
	.string	"order"
.LASF801:
	.string	"uint_fast16_t"
.LASF192:
	.string	"rebind_alloc"
.LASF760:
	.string	"__uint8_t"
.LASF654:
	.string	"tm_hour"
.LASF1057:
	.string	"_ZNSt13runtime_errorD4Ev"
.LASF508:
	.string	"_ZNSt6vectorIiSaIiEE17_S_check_init_lenEmRKS0_"
.LASF105:
	.string	"_ZNSt11char_traitsIcE4moveEPcPKcm"
.LASF807:
	.string	"uintmax_t"
.LASF41:
	.string	"_vtable_offset"
.LASF981:
	.string	"_Args"
.LASF134:
	.string	"_ZNSt8ios_base4InitC4ERKS0_"
.LASF394:
	.string	"_ZNSaIiEC4ERKS_"
.LASF320:
	.string	"_ZNKSt6vectorIlSaIlEE4dataEv"
.LASF154:
	.string	"_ZNSt15__new_allocatorIlEC4ERKS0_"
.LASF71:
	.string	"_ZNSt15__exception_ptr13exception_ptrC4EPv"
.LASF969:
	.string	"_ZNSt13runtime_errorC1EPKc"
.LASF272:
	.string	"_ZNKSt6vectorIlSaIlEE5beginEv"
.LASF736:
	.string	"_ZN9__gnu_cxx14__alloc_traitsISaIiEiE17_S_select_on_copyERKS1_"
.LASF534:
	.string	"__throw_length_error"
.LASF743:
	.string	"rebind<int>"
.LASF1025:
	.string	"<lambda>"
.LASF529:
	.string	"_Category"
.LASF240:
	.string	"_S_nothrow_relocate"
.LASF356:
	.string	"_ZNSt6vectorIlSaIlEE17_S_check_init_lenEmRKS0_"
.LASF503:
	.string	"_ZNSt6vectorIiSaIiEE17_M_default_appendEm"
.LASF857:
	.string	"mbtowc"
.LASF195:
	.string	"_M_start"
.LASF854:
	.string	"ldiv"
.LASF56:
	.string	"value_type"
.LASF659:
	.string	"tm_yday"
.LASF891:
	.string	"fopen"
.LASF306:
	.string	"_ZNSt6vectorIlSaIlEEixEm"
.LASF1027:
	.string	"_ZZN9container7details18tensor_base_staticIiJLl2ELl3ELl4ELl5EEEC4EvENUliE_C4ERKS3_"
.LASF304:
	.string	"_ZNSt6vectorIlSaIlEE7reserveEm"
.LASF599:
	.string	"_Destroy<int*>"
.LASF73:
	.string	"_M_release"
.LASF783:
	.string	"int64_t"
.LASF569:
	.string	"_ZSt11__addressofIiEPT_RS0_"
.LASF648:
	.string	"wcscoll"
.LASF526:
	.string	"_ZNSt11__copy_moveILb0ELb1ESt26random_access_iterator_tagE8__copy_mIlEEPT_PKS3_S6_S4_"
.LASF434:
	.string	"_ZNSt6vectorIiSaIiEE19_S_nothrow_relocateESt17integral_constantIbLb0EE"
.LASF718:
	.string	"_ZN9__gnu_cxx17__normal_iteratorIPlSt6vectorIlSaIlEEEppEi"
.LASF256:
	.string	"_ZNSt6vectorIlSaIlEEC4ERKS1_RKS0_"
.LASF328:
	.string	"_ZNSt6vectorIlSaIlEE6insertEN9__gnu_cxx17__normal_iteratorIPKlS1_EEOl"
.LASF717:
	.string	"_ZN9__gnu_cxx17__normal_iteratorIPlSt6vectorIlSaIlEEEppEv"
.LASF705:
	.string	"_ZN9__gnu_cxx14__alloc_traitsISaIlElE15_S_nothrow_moveEv"
.LASF604:
	.string	"_ZSt8_DestroyIPllEvT_S1_RSaIT0_E"
.LASF533:
	.string	"_ZSt28__throw_bad_array_new_lengthv"
.LASF293:
	.string	"_ZNKSt6vectorIlSaIlEE8max_sizeEv"
.LASF23:
	.string	"_flags"
.LASF1061:
	.string	"dims"
.LASF820:
	.string	"frac_digits"
.LASF340:
	.string	"_ZNSt6vectorIlSaIlEE21_M_default_initializeEm"
.LASF668:
	.string	"wcsspn"
.LASF539:
	.string	"_ZSt9__fill_a1IPiiEN9__gnu_cxx11__enable_ifIXsrSt11__is_scalarIT0_E7__valueEvE6__typeET_S8_RKS4_"
.LASF635:
	.string	"ungetwc"
.LASF5:
	.string	"double"
.LASF226:
	.string	"~_Vector_base"
.LASF913:
	.string	"wctype"
.LASF33:
	.string	"_IO_backup_base"
.LASF566:
	.string	"_Construct<int>"
.LASF848:
	.string	"at_quick_exit"
.LASF20:
	.string	"__mbstate_t"
.LASF944:
	.string	"_ZNK9container7details18tensor_base_staticIiJLl2ELl3ELl4ELl5EEE5orderEv"
.LASF252:
	.string	"_ZNSt6vectorIlSaIlEEC4EmRKS0_"
.LASF186:
	.string	"const_void_pointer"
.LASF837:
	.string	"11__mbstate_t"
.LASF550:
	.string	"__niter_base<long int*>"
.LASF583:
	.string	"_ZSt3maxImERKT_S2_S2_"
.LASF623:
	.string	"fwscanf"
.LASF987:
	.string	"__allocmax"
.LASF95:
	.string	"char_type"
.LASF897:
	.string	"getc"
.LASF974:
	.string	"__last"
.LASF141:
	.string	"__uninitialized_copy<true>"
.LASF830:
	.string	"int_n_sep_by_space"
.LASF64:
	.string	"_ZNKSt17integral_constantIbLb1EEclEv"
.LASF140:
	.string	"ostream"
.LASF368:
	.string	"_ZNSt6vectorIlSaIlEE19_M_range_initializeIPKlEEvT_S5_St20forward_iterator_tag"
.LASF224:
	.string	"_ZNSt12_Vector_baseIlSaIlEEC4EOS1_RKS0_"
.LASF1023:
	.string	"_ZNSt6vectorIlSaIlEED2Ev"
.LASF561:
	.string	"_ZSt13__copy_move_aILb0EPKlPlET1_T0_S4_S3_"
.LASF284:
	.string	"_ZNKSt6vectorIlSaIlEE6cbeginEv"
.LASF146:
	.string	"__uninitialized_default_n_1<true>"
.LASF665:
	.string	"wcsncmp"
.LASF25:
	.string	"_IO_read_end"
.LASF321:
	.string	"push_back"
.LASF687:
	.string	"wcsstr"
.LASF249:
	.string	"vector"
.LASF1007:
	.string	"_ZNSt12_Vector_baseIiSaIiEE17_Vector_impl_dataC2Ev"
.LASF842:
	.string	"ldiv_t"
.LASF162:
	.string	"_ZNKSt15__new_allocatorIlE7addressERKl"
.LASF1004:
	.string	"_ZNSt15__new_allocatorIlED2Ev"
.LASF32:
	.string	"_IO_save_base"
.LASF600:
	.string	"_ZSt8_DestroyIPiEvT_S1_"
.LASF108:
	.string	"assign"
.LASF1034:
	.string	"_ZN9container7details18tensor_base_staticIiJLl2ELl3ELl4ELl5EEEC2Ev"
.LASF458:
	.string	"_ZNKSt6vectorIiSaIiEE5beginEv"
.LASF101:
	.string	"_ZNSt11char_traitsIcE6lengthEPKc"
.LASF136:
	.string	"ios_base"
.LASF815:
	.string	"mon_thousands_sep"
.LASF572:
	.string	"__enable_if_t"
.LASF29:
	.string	"_IO_write_end"
.LASF357:
	.string	"_S_max_size"
.LASF327:
	.string	"_ZNSt6vectorIlSaIlEE6insertEN9__gnu_cxx17__normal_iteratorIPKlS1_EERS4_"
.LASF207:
	.string	"_ZNSt12_Vector_baseIlSaIlEE12_Vector_implC4ERKS0_"
.LASF519:
	.string	"difference_type"
.LASF460:
	.string	"_ZNKSt6vectorIiSaIiEE3endEv"
.LASF447:
	.string	"_ZNSt6vectorIiSaIiEEC4EOS1_RKS0_St17integral_constantIbLb1EE"
.LASF645:
	.string	"wcrtomb"
.LASF110:
	.string	"to_char_type"
.LASF155:
	.string	"~__new_allocator"
.LASF605:
	.string	"_Destroy<int*, int>"
.LASF1009:
	.string	"_ZNSt12_Vector_baseIlSaIlEED2Ev"
.LASF30:
	.string	"_IO_buf_base"
.LASF430:
	.string	"_ZNSt12_Vector_baseIiSaIiEE17_M_create_storageEm"
.LASF1014:
	.string	"_ZNSaIlEC2Ev"
.LASF436:
	.string	"_ZNSt6vectorIiSaIiEE15_S_use_relocateEv"
.LASF44:
	.string	"_offset"
.LASF762:
	.string	"__uint16_t"
.LASF895:
	.string	"fsetpos"
.LASF395:
	.string	"_ZNSaIiEaSERKS_"
.LASF472:
	.string	"_ZNSt6vectorIiSaIiEE6resizeEmRKi"
.LASF464:
	.string	"_ZNKSt6vectorIiSaIiEE4rendEv"
.LASF165:
	.string	"_ZNSt15__new_allocatorIlE8allocateEmPKv"
.LASF549:
	.string	"_ZSt14__copy_move_a1ILb0EPKlPlET1_T0_S4_S3_"
.LASF128:
	.string	"_ForwardIterator"
.LASF663:
	.string	"wcslen"
.LASF1044:
	.string	"oor_index"
.LASF892:
	.string	"fread"
.LASF1068:
	.string	"_ZZN9container7details18tensor_base_staticIiJLl2ELl3ELl4ELl5EEEC4EvENKUliE_clEi"
.LASF184:
	.string	"allocator_type"
.LASF893:
	.string	"freopen"
.LASF76:
	.string	"_M_get"
.LASF787:
	.string	"uint64_t"
.LASF706:
	.string	"rebind<long int>"
.LASF380:
	.string	"reverse_iterator<__gnu_cxx::__normal_iterator<long int*, std::vector<long int, std::allocator<long int> > > >"
.LASF626:
	.string	"mbrlen"
.LASF841:
	.string	"6ldiv_t"
.LASF998:
	.string	"__new_start"
.LASF976:
	.string	"__ioinit"
.LASF682:
	.string	"wscanf"
.LASF299:
	.string	"capacity"
.LASF495:
	.string	"_ZNSt6vectorIiSaIiEE5eraseEN9__gnu_cxx17__normal_iteratorIPKiS1_EE"
.LASF1054:
	.string	"_ZSt4cout"
.LASF642:
	.string	"vwprintf"
.LASF524:
	.string	"__copy_move<false, true, std::random_access_iterator_tag>"
.LASF91:
	.string	"rethrow_exception"
.LASF965:
	.string	"operator new"
.LASF189:
	.string	"_ZNSt16allocator_traitsISaIlEE8max_sizeERKS0_"
.LASF513:
	.string	"_ZNSt6vectorIiSaIiEE14_M_move_assignEOS1_St17integral_constantIbLb1EE"
.LASF285:
	.string	"cend"
.LASF212:
	.string	"_M_get_Tp_allocator"
.LASF362:
	.string	"_ZNSt6vectorIlSaIlEE8_M_eraseEN9__gnu_cxx17__normal_iteratorIPlS1_EE"
.LASF343:
	.string	"_M_fill_insert"
.LASF939:
	.string	"details"
.LASF202:
	.string	"_M_swap_data"
.LASF384:
	.string	"_ZNSt15__new_allocatorIiEC4ERKS0_"
.LASF278:
	.string	"const_reverse_iterator"
.LASF316:
	.string	"_ZNSt6vectorIlSaIlEE4backEv"
.LASF859:
	.string	"qsort"
.LASF399:
	.string	"_ZNSt16allocator_traitsISaIiEE8allocateERS0_mPKv"
.LASF1006:
	.string	"_ZNSt15__new_allocatorIiED2Ev"
.LASF590:
	.string	"__uninitialized_copy_a<long int const*, long int*, long int>"
.LASF509:
	.string	"_ZNSt6vectorIiSaIiEE11_S_max_sizeERKS0_"
.LASF945:
	.string	"_ZNK9container7details18tensor_base_staticIiJLl2ELl3ELl4ELl5EEE4sizeEv"
.LASF61:
	.string	"integral_constant<bool, true>"
.LASF322:
	.string	"_ZNSt6vectorIlSaIlEE9push_backERKl"
.LASF230:
	.string	"_ZNSt12_Vector_baseIlSaIlEE11_M_allocateEm"
.LASF170:
	.string	"_ZNKSt15__new_allocatorIlE8max_sizeEv"
.LASF60:
	.string	"_ZNKSt17integral_constantIbLb0EEclEv"
.LASF164:
	.string	"allocate"
.LASF646:
	.string	"wcscat"
.LASF585:
	.string	"_ZSt25__uninitialized_default_nIPimET_S1_T0_"
.LASF576:
	.string	"_ZSt12__niter_baseIPiET_S1_"
.LASF1060:
	.string	"_IO_lock_t"
.LASF167:
	.string	"deallocate"
.LASF24:
	.string	"_IO_read_ptr"
.LASF3:
	.string	"__float128"
.LASF149:
	.string	"_Size"
.LASF956:
	.string	"container_size_type"
.LASF926:
	.string	"parallel_unsequenced_policy"
.LASF38:
	.string	"_flags2"
.LASF185:
	.string	"_ZNSt16allocator_traitsISaIlEE8allocateERS0_mPKv"
.LASF902:
	.string	"rewind"
.LASF699:
	.string	"_ZN9__gnu_cxx14__alloc_traitsISaIlElE27_S_propagate_on_move_assignEv"
.LASF345:
	.string	"_M_default_append"
.LASF823:
	.string	"n_cs_precedes"
.LASF45:
	.string	"_codecvt"
.LASF262:
	.string	"_ZNSt6vectorIlSaIlEED4Ev"
.LASF273:
	.string	"_ZNSt6vectorIlSaIlEE3endEv"
.LASF774:
	.string	"__uint_least64_t"
.LASF89:
	.string	"__cxa_exception_type"
.LASF1008:
	.string	"_ZNSaIiEC2Ev"
.LASF28:
	.string	"_IO_write_ptr"
.LASF470:
	.string	"_ZNKSt6vectorIiSaIiEE8max_sizeEv"
.LASF83:
	.string	"_ZNSt15__exception_ptr13exception_ptraSERKS0_"
.LASF404:
	.string	"_ZNSt12_Vector_baseIiSaIiEE17_Vector_impl_dataC4Ev"
.LASF535:
	.string	"_ZSt20__throw_length_errorPKc"
.LASF124:
	.string	"random_access_iterator_tag"
.LASF156:
	.string	"_ZNSt15__new_allocatorIlED4Ev"
.LASF1019:
	.string	"index_list"
.LASF211:
	.string	"_Tp_alloc_type"
.LASF437:
	.string	"_ZNSt6vectorIiSaIiEE14_S_do_relocateEPiS2_S2_RS0_St17integral_constantIbLb1EE"
.LASF499:
	.string	"_ZNSt6vectorIiSaIiEE18_M_fill_initializeEmRKi"
.LASF652:
	.string	"tm_sec"
.LASF942:
	.string	"_ZN9container7details18tensor_base_staticIiJLl2ELl3ELl4ELl5EEEC4Ev"
.LASF443:
	.string	"_ZNSt6vectorIiSaIiEEC4EmRKiRKS0_"
.LASF367:
	.string	"_M_range_initialize<long int const*>"
.LASF279:
	.string	"_ZNKSt6vectorIlSaIlEE6rbeginEv"
.LASF928:
	.string	"_ZN6__pstl9execution2v127parallel_unsequenced_policy14__allow_vectorEv"
.LASF158:
	.string	"_ZNKSt15__new_allocatorIlE7addressERl"
.LASF804:
	.string	"intptr_t"
.LASF1059:
	.string	"decltype(nullptr)"
.LASF759:
	.string	"__int8_t"
.LASF795:
	.string	"uint_least64_t"
.LASF227:
	.string	"_ZNSt12_Vector_baseIlSaIlEED4Ev"
.LASF824:
	.string	"n_sep_by_space"
.LASF221:
	.string	"_ZNSt12_Vector_baseIlSaIlEEC4EmRKS0_"
.LASF175:
	.string	"_ZNSaIlEC4Ev"
.LASF614:
	.string	"_ZSt17__size_to_integerm"
.LASF810:
	.string	"thousands_sep"
.LASF1029:
	.string	"_ZZN9container7details18tensor_base_staticIiJLl2ELl3ELl4ELl5EEEC4EvENUliE_C4Ev"
.LASF245:
	.string	"_ZNSt6vectorIlSaIlEE14_S_do_relocateEPlS2_S2_RS0_St17integral_constantIbLb1EE"
.LASF684:
	.string	"wcschr"
.LASF469:
	.string	"_ZNKSt6vectorIiSaIiEE4sizeEv"
.LASF531:
	.string	"__throw_bad_array_new_length"
.LASF363:
	.string	"_ZNSt6vectorIlSaIlEE8_M_eraseEN9__gnu_cxx17__normal_iteratorIPlS1_EES5_"
.LASF986:
	.string	"__diffmax"
.LASF630:
	.string	"putwc"
.LASF354:
	.string	"_ZNKSt6vectorIlSaIlEE12_M_check_lenEmPKc"
.LASF161:
	.string	"const_pointer"
.LASF586:
	.string	"uninitialized_copy<long int const*, long int*>"
.LASF176:
	.string	"_ZNSaIlEC4ERKS_"
.LASF1032:
	.string	"__size_1d"
.LASF72:
	.string	"_M_addref"
.LASF800:
	.string	"uint_fast8_t"
.LASF43:
	.string	"_lock"
.LASF544:
	.string	"_FIte"
.LASF606:
	.string	"_ZSt8_DestroyIPiiEvT_S1_RSaIT0_E"
.LASF922:
	.string	"parallel_policy"
.LASF391:
	.string	"_ZNKSt15__new_allocatorIiE11_M_max_sizeEv"
.LASF788:
	.string	"int_least8_t"
.LASF863:
	.string	"strtod"
.LASF873:
	.string	"strtof"
.LASF578:
	.string	"_ZSt3minImERKT_S2_S2_"
.LASF721:
	.string	"_ZN9__gnu_cxx17__normal_iteratorIPlSt6vectorIlSaIlEEEmmEi"
.LASF236:
	.string	"__type_identity<std::allocator<long int> >"
.LASF426:
	.string	"_ZNSt12_Vector_baseIiSaIiEEC4ERKS0_OS1_"
.LASF864:
	.string	"strtol"
.LASF769:
	.string	"__int_least16_t"
.LASF100:
	.string	"_ZNSt11char_traitsIcE7compareEPKcS2_m"
.LASF461:
	.string	"_ZNSt6vectorIiSaIiEE6rbeginEv"
.LASF720:
	.string	"_ZN9__gnu_cxx17__normal_iteratorIPlSt6vectorIlSaIlEEEmmEv"
.LASF63:
	.string	"_ZNKSt17integral_constantIbLb1EEcvbEv"
.LASF802:
	.string	"uint_fast32_t"
.LASF68:
	.string	"__exception_ptr"
.LASF675:
	.string	"wcsxfrm"
.LASF428:
	.string	"_ZNSt12_Vector_baseIiSaIiEE11_M_allocateEm"
.LASF1063:
	.string	"__cxa_rethrow"
.LASF385:
	.string	"_ZNSt15__new_allocatorIiED4Ev"
.LASF31:
	.string	"_IO_buf_end"
.LASF53:
	.string	"short unsigned int"
.LASF748:
	.string	"wcstold"
.LASF789:
	.string	"int_least16_t"
.LASF67:
	.string	"__swappable_with_details"
.LASF263:
	.string	"_ZNSt6vectorIlSaIlEEaSERKS1_"
.LASF749:
	.string	"wcstoll"
.LASF924:
	.string	"_ZN6__pstl9execution2v115parallel_policy14__allow_vectorEv"
.LASF454:
	.string	"_ZNSt6vectorIiSaIiEEaSESt16initializer_listIiE"
.LASF528:
	.string	"_IsSimple"
.LASF667:
	.string	"wcsrtombs"
.LASF880:
	.string	"_IO_codecvt"
.LASF506:
	.string	"_ZNSt6vectorIiSaIiEE14_M_emplace_auxEN9__gnu_cxx17__normal_iteratorIPKiS1_EEOi"
.LASF869:
	.string	"lldiv"
.LASF70:
	.string	"exception_ptr"
.LASF647:
	.string	"wcscmp"
.LASF761:
	.string	"__int16_t"
.LASF936:
	.string	"unseq"
.LASF650:
	.string	"wcscspn"
.LASF260:
	.string	"_ZNSt6vectorIlSaIlEEC4ESt16initializer_listIlERKS0_"
.LASF580:
	.string	"_ZSt12__relocate_aIPiS0_SaIiEET0_T_S3_S2_RT1_"
.LASF557:
	.string	"__iterator_category<int*>"
.LASF183:
	.string	"_ZNSt16allocator_traitsISaIlEE8allocateERS0_m"
.LASF26:
	.string	"_IO_read_base"
.LASF993:
	.string	"__len"
.LASF988:
	.string	"__can_memmove"
.LASF173:
	.string	"allocator<long int>"
.LASF407:
	.string	"_ZNSt12_Vector_baseIiSaIiEE17_Vector_impl_data12_M_swap_dataERS2_"
.LASF241:
	.string	"_ZNSt6vectorIlSaIlEE19_S_nothrow_relocateESt17integral_constantIbLb1EE"
.LASF994:
	.string	"_ZNSt12_Vector_baseIlSaIlEE12_Vector_implC2ERKS0_"
.LASF216:
	.string	"_ZNKSt12_Vector_baseIlSaIlEE13get_allocatorEv"
.LASF15:
	.string	"__wch"
.LASF353:
	.string	"_M_check_len"
.LASF393:
	.string	"_ZNSaIiEC4Ev"
.LASF664:
	.string	"wcsncat"
.LASF157:
	.string	"address"
.LASF825:
	.string	"p_sign_posn"
.LASF784:
	.string	"uint8_t"
.LASF951:
	.string	"_dims"
.LASF494:
	.string	"_ZNSt6vectorIiSaIiEE6insertEN9__gnu_cxx17__normal_iteratorIPKiS1_EEmRS4_"
.LASF505:
	.string	"_ZNSt6vectorIiSaIiEE14_M_insert_rvalEN9__gnu_cxx17__normal_iteratorIPKiS1_EEOi"
.LASF22:
	.string	"__FILE"
.LASF776:
	.string	"__uintmax_t"
.LASF98:
	.string	"compare"
.LASF1056:
	.string	"~runtime_error"
.LASF366:
	.string	"_ZNSt6vectorIlSaIlEE14_M_move_assignEOS1_St17integral_constantIbLb0EE"
.LASF649:
	.string	"wcscpy"
.LASF742:
	.string	"_ZN9__gnu_cxx14__alloc_traitsISaIiEiE15_S_nothrow_moveEv"
.LASF18:
	.string	"__value"
.LASF42:
	.string	"_shortbuf"
.LASF69:
	.string	"_M_exception_object"
.LASF703:
	.string	"_ZN9__gnu_cxx14__alloc_traitsISaIlElE15_S_always_equalEv"
.LASF676:
	.string	"wctob"
.LASF597:
	.string	"_Destroy<long int*>"
.LASF217:
	.string	"_Vector_base"
.LASF887:
	.string	"fflush"
.LASF296:
	.string	"_ZNSt6vectorIlSaIlEE6resizeEmRKl"
.LASF92:
	.string	"_ZSt17rethrow_exceptionNSt15__exception_ptr13exception_ptrE"
.LASF295:
	.string	"_ZNSt6vectorIlSaIlEE6resizeEm"
.LASF4:
	.string	"float"
.LASF17:
	.string	"__count"
.LASF754:
	.string	"unsigned char"
.LASF523:
	.string	"iterator_traits<int*>"
.LASF899:
	.string	"perror"
.LASF445:
	.string	"_ZNSt6vectorIiSaIiEEC4EOS1_"
.LASF486:
	.string	"_ZNSt6vectorIiSaIiEE4dataEv"
.LASF253:
	.string	"_ZNSt6vectorIlSaIlEEC4EmRKlRKS0_"
.LASF685:
	.string	"wcspbrk"
.LASF1013:
	.string	"_ZNSaIlED2Ev"
.LASF989:
	.string	"__assignable"
.LASF265:
	.string	"_ZNSt6vectorIlSaIlEEaSESt16initializer_listIlE"
.LASF828:
	.string	"int_p_sep_by_space"
.LASF379:
	.string	"type_info"
.LASF827:
	.string	"int_p_cs_precedes"
.LASF806:
	.string	"intmax_t"
.LASF1037:
	.string	"_ZNSt12_Vector_baseIiSaIiEE12_Vector_implD2Ev"
.LASF724:
	.string	"_ZN9__gnu_cxx17__normal_iteratorIPlSt6vectorIlSaIlEEEpLEl"
.LASF885:
	.string	"feof"
.LASF901:
	.string	"rename"
.LASF812:
	.string	"int_curr_symbol"
.LASF628:
	.string	"mbsinit"
.LASF632:
	.string	"swprintf"
.LASF370:
	.string	"__type_identity_t"
.LASF1030:
	.string	"~<lambda>"
.LASF735:
	.string	"__alloc_traits<std::allocator<int>, int>"
.LASF912:
	.string	"wctrans"
.LASF680:
	.string	"wmemset"
.LASF651:
	.string	"wcsftime"
.LASF878:
	.string	"__fpos_t"
.LASF271:
	.string	"const_iterator"
.LASF602:
	.string	"_ZSt8distanceIPKlENSt15iterator_traitsIT_E15difference_typeES3_S3_"
.LASF833:
	.string	"setlocale"
.LASF346:
	.string	"_ZNSt6vectorIlSaIlEE17_M_default_appendEm"
.LASF267:
	.string	"_ZNSt6vectorIlSaIlEE6assignESt16initializer_listIlE"
.LASF883:
	.string	"clearerr"
.LASF674:
	.string	"wcstoul"
.LASF339:
	.string	"_M_default_initialize"
.LASF465:
	.string	"_ZNKSt6vectorIiSaIiEE6cbeginEv"
.LASF269:
	.string	"begin"
.LASF704:
	.string	"_S_nothrow_move"
.LASF448:
	.string	"_ZNSt6vectorIiSaIiEEC4EOS1_RKS0_St17integral_constantIbLb0EE"
.LASF282:
	.string	"_ZNKSt6vectorIlSaIlEE4rendEv"
.LASF244:
	.string	"_S_do_relocate"
.LASF1031:
	.string	"_ZZN9container7details18tensor_base_staticIiJLl2ELl3ELl4ELl5EEEC4EvENUliE_D4Ev"
.LASF691:
	.string	"__alloc_traits<std::allocator<long int>, long int>"
.LASF237:
	.string	"type"
.LASF640:
	.string	"vswscanf"
.LASF777:
	.string	"__off_t"
.LASF476:
	.string	"_ZNSt6vectorIiSaIiEE7reserveEm"
.LASF133:
	.string	"_ZNSt8ios_base4InitD4Ev"
.LASF452:
	.string	"_ZNSt6vectorIiSaIiEEaSERKS1_"
.LASF948:
	.string	"_ZNK9container7details18tensor_base_staticIiJLl2ELl3ELl4ELl5EEE5shapeEl"
.LASF625:
	.string	"getwc"
.LASF947:
	.string	"_ZNK9container7details18tensor_base_staticIiJLl2ELl3ELl4ELl5EEE5shapeEv"
.LASF900:
	.string	"remove"
.LASF179:
	.string	"_ZNSaIlEaSERKS_"
.LASF409:
	.string	"_ZNSt12_Vector_baseIiSaIiEE12_Vector_implC4ERKS0_"
.LASF310:
	.string	"_ZNSt6vectorIlSaIlEE2atEm"
.LASF925:
	.string	"_ZN6__pstl9execution2v115parallel_policy16__allow_parallelEv"
.LASF131:
	.string	"~Init"
.LASF639:
	.string	"vswprintf"
.LASF562:
	.string	"__miter_base<long int const*>"
.LASF130:
	.string	"Init"
.LASF449:
	.string	"_ZNSt6vectorIiSaIiEEC4EOS1_RKS0_"
.LASF957:
	.string	"index_check"
.LASF432:
	.string	"vector<int, std::allocator<int> >"
.LASF335:
	.string	"clear"
.LASF543:
	.string	"_ZSt8__fill_aIPiiEvT_S1_RKT0_"
.LASF371:
	.string	"initializer_list<long int>"
.LASF692:
	.string	"_S_select_on_copy"
.LASF611:
	.string	"operator<< <std::char_traits<char> >"
.LASF991:
	.string	"_ZNSt12_Vector_baseIlSaIlEE17_Vector_impl_dataC2Ev"
.LASF832:
	.string	"int_n_sign_posn"
.LASF919:
	.string	"_ZN6__pstl9execution2v116sequenced_policy14__allow_vectorEv"
.LASF455:
	.string	"_ZNSt6vectorIiSaIiEE6assignEmRKi"
.LASF967:
	.string	"_ZNSt13runtime_errorD1Ev"
.LASF411:
	.string	"_ZNSt12_Vector_baseIiSaIiEE12_Vector_implC4EOS0_"
.LASF9:
	.string	"fp_offset"
.LASF540:
	.string	"__copy_move_a2<false, long int const*, long int*>"
.LASF1018:
	.string	"__out"
.LASF764:
	.string	"__uint32_t"
.LASF1058:
	.string	"_ZN9__gnu_cxx3divExx"
.LASF477:
	.string	"_ZNSt6vectorIiSaIiEEixEm"
.LASF870:
	.string	"atoll"
.LASF117:
	.string	"not_eof"
.LASF889:
	.string	"fgetpos"
.LASF171:
	.string	"_M_max_size"
.LASF1005:
	.string	"_ZNSt15__new_allocatorIlEC2Ev"
.LASF726:
	.string	"_ZNK9__gnu_cxx17__normal_iteratorIPlSt6vectorIlSaIlEEEplEl"
.LASF46:
	.string	"_wide_data"
.LASF929:
	.string	"_ZN6__pstl9execution2v127parallel_unsequenced_policy16__allow_parallelEv"
.LASF1041:
	.string	"tensor"
.LASF888:
	.string	"fgetc"
.LASF410:
	.string	"_ZNSt12_Vector_baseIiSaIiEE12_Vector_implC4EOS2_"
.LASF511:
	.string	"_ZNSt6vectorIiSaIiEE8_M_eraseEN9__gnu_cxx17__normal_iteratorIPiS1_EE"
.LASF890:
	.string	"fgets"
.LASF908:
	.string	"wctype_t"
.LASF88:
	.string	"_ZNSt15__exception_ptr13exception_ptr4swapERS0_"
.LASF560:
	.string	"__copy_move_a<false, long int const*, long int*>"
.LASF228:
	.string	"_M_impl"
.LASF818:
	.string	"negative_sign"
.LASF294:
	.string	"resize"
.LASF39:
	.string	"_old_offset"
.LASF853:
	.string	"getenv"
.LASF629:
	.string	"mbsrtowcs"
.LASF87:
	.string	"swap"
.LASF875:
	.string	"_G_fpos_t"
.LASF666:
	.string	"wcsncpy"
.LASF349:
	.string	"_M_insert_rval"
.LASF958:
	.string	"_ZN9container7details11index_checkEll"
.LASF877:
	.string	"__state"
.LASF916:
	.string	"__allow_unsequenced"
.LASF564:
	.string	"fill_n<int*, long unsigned int, int>"
.LASF417:
	.string	"_ZNKSt12_Vector_baseIiSaIiEE19_M_get_Tp_allocatorEv"
.LASF97:
	.string	"_ZNSt11char_traitsIcE2ltERKcS2_"
.LASF412:
	.string	"_ZNSt12_Vector_baseIiSaIiEE12_Vector_implC4EOS0_OS2_"
.LASF415:
	.string	"_ZNSt12_Vector_baseIiSaIiEE12_Vector_implD4Ev"
.LASF836:
	.string	"__gnu_debug"
.LASF234:
	.string	"_ZNSt12_Vector_baseIlSaIlEE17_M_create_storageEm"
.LASF168:
	.string	"_ZNSt15__new_allocatorIlE10deallocateEPlm"
.LASF701:
	.string	"_ZN9__gnu_cxx14__alloc_traitsISaIlElE20_S_propagate_on_swapEv"
.LASF1024:
	.string	"_ZNSt6vectorIiSaIiEED2Ev"
.LASF757:
	.string	"char16_t"
.LASF453:
	.string	"_ZNSt6vectorIiSaIiEEaSEOS1_"
.LASF225:
	.string	"_ZNSt12_Vector_baseIlSaIlEEC4ERKS0_OS1_"
.LASF34:
	.string	"_IO_save_end"
.LASF58:
	.string	"operator()"
.LASF315:
	.string	"back"
.LASF376:
	.string	"_ZNSt16initializer_listIlEC4Ev"
.LASF732:
	.string	"_ZNK9__gnu_cxx17__normal_iteratorIPlSt6vectorIlSaIlEEE4baseEv"
.LASF963:
	.string	"operator delete"
.LASF940:
	.string	"tensor_base_static<int, 2, 3, 4, 5>"
.LASF847:
	.string	"atexit"
.LASF298:
	.string	"_ZNSt6vectorIlSaIlEE13shrink_to_fitEv"
.LASF159:
	.string	"pointer"
.LASF292:
	.string	"_ZNKSt6vectorIlSaIlEE4sizeEv"
.LASF915:
	.string	"sequenced_policy"
.LASF739:
	.string	"_ZN9__gnu_cxx14__alloc_traitsISaIiEiE27_S_propagate_on_move_assignEv"
.LASF953:
	.string	"_ZN9container7details18tensor_base_staticIiJLl2ELl3ELl4ELl5EEEclIJiiiiEEERiDpT_"
.LASF858:
	.string	"__destroy<int*>"
.LASF962:
	.string	"__cxa_begin_catch"
.LASF631:
	.string	"putwchar"
.LASF527:
	.string	"_IsMove"
.LASF995:
	.string	"_ZNSt15__new_allocatorIiEC2Ev"
.LASF466:
	.string	"_ZNKSt6vectorIiSaIiEE4cendEv"
.LASF483:
	.string	"_ZNKSt6vectorIiSaIiEE5frontEv"
.LASF180:
	.string	"~allocator"
.LASF66:
	.string	"__swappable_details"
.LASF716:
	.string	"operator++"
.LASF231:
	.string	"_M_deallocate"
.LASF361:
	.string	"_M_erase"
.LASF723:
	.string	"operator+="
.LASF127:
	.string	"__destroy<long int*>"
.LASF86:
	.string	"_ZNSt15__exception_ptr13exception_ptrD4Ev"
.LASF1010:
	.string	"_ZNSt12_Vector_baseIlSaIlEE12_Vector_implD2Ev"
.LASF522:
	.string	"enable_if<true, int*>"
.LASF485:
	.string	"_ZNKSt6vectorIiSaIiEE4backEv"
.LASF618:
	.string	"wchar_t"
.LASF822:
	.string	"p_sep_by_space"
.LASF235:
	.string	"_Alloc"
.LASF702:
	.string	"_S_always_equal"
.LASF553:
	.string	"_ZSt12__niter_baseIPKlET_S2_"
.LASF545:
	.string	"__niter_wrap<long int*>"
.LASF1015:
	.string	"_ZNSt12_Vector_baseIiSaIiEED2Ev"
.LASF637:
	.string	"vfwscanf"
.LASF803:
	.string	"uint_fast64_t"
.LASF446:
	.string	"_ZNSt6vectorIiSaIiEEC4ERKS1_RKS0_"
.LASF982:
	.string	"__alloc"
.LASF517:
	.string	"reverse_iterator<__gnu_cxx::__normal_iterator<int const*, std::vector<int, std::allocator<int> > > >"
.LASF975:
	.string	"__result"
.LASF751:
	.string	"wcstoull"
.LASF587:
	.string	"_ZSt18uninitialized_copyIPKlPlET0_T_S4_S3_"
.LASF660:
	.string	"tm_isdst"
.LASF300:
	.string	"_ZNKSt6vectorIlSaIlEE8capacityEv"
.LASF821:
	.string	"p_cs_precedes"
.LASF198:
	.string	"_ZNSt12_Vector_baseIlSaIlEE17_Vector_impl_dataC4Ev"
.LASF81:
	.string	"_ZNSt15__exception_ptr13exception_ptrC4EOS0_"
.LASF719:
	.string	"operator--"
.LASF250:
	.string	"_ZNSt6vectorIlSaIlEEC4Ev"
.LASF1050:
	.string	"align_val_t"
.LASF727:
	.string	"operator-="
.LASF714:
	.string	"operator->"
.LASF288:
	.string	"_ZNKSt6vectorIlSaIlEE7crbeginEv"
.LASF518:
	.string	"iterator_traits<long int*>"
.LASF313:
	.string	"_ZNSt6vectorIlSaIlEE5frontEv"
.LASF1047:
	.string	"__int128 unsigned"
.LASF598:
	.string	"_ZSt8_DestroyIPlEvT_S1_"
.LASF671:
	.string	"wcstok"
.LASF1001:
	.string	"_ZN9__gnu_cxx17__normal_iteratorIPlSt6vectorIlSaIlEEEC2ERKS1_"
.LASF756:
	.string	"short int"
.LASF153:
	.string	"_ZNSt15__new_allocatorIlEC4Ev"
.LASF567:
	.string	"_ZSt10_ConstructIiJEEvPT_DpOT0_"
.LASF745:
	.string	"__normal_iterator<int const*, std::vector<int, std::allocator<int> > >"
.LASF232:
	.string	"_ZNSt12_Vector_baseIlSaIlEE13_M_deallocateEPlm"
.LASF601:
	.string	"distance<long int const*>"
.LASF565:
	.string	"_ZSt6fill_nIPimiET_S1_T0_RKT1_"
.LASF537:
	.string	"_ZNSt13runtime_errorC4EPKc"
.LASF862:
	.string	"srand"
.LASF581:
	.string	"_Allocator"
.LASF835:
	.string	"localeconv"
.LASF1055:
	.string	"_ZNKSt16initializer_listIlE3endEv"
.LASF307:
	.string	"_ZNKSt6vectorIlSaIlEEixEm"
.LASF35:
	.string	"_markers"
.LASF37:
	.string	"_fileno"
.LASF57:
	.string	"operator std::integral_constant<bool, false>::value_type"
.LASF771:
	.string	"__int_least32_t"
.LASF740:
	.string	"_ZN9__gnu_cxx14__alloc_traitsISaIiEiE20_S_propagate_on_swapEv"
.LASF972:
	.string	"__priority"
.LASF194:
	.string	"_Vector_impl_data"
.LASF377:
	.string	"_ZNKSt16initializer_listIlE4sizeEv"
.LASF220:
	.string	"_ZNSt12_Vector_baseIlSaIlEEC4Em"
.LASF218:
	.string	"_ZNSt12_Vector_baseIlSaIlEEC4Ev"
.LASF431:
	.string	"__type_identity<std::allocator<int> >"
.LASF594:
	.string	"_RandomAccessIterator"
.LASF1033:
	.string	"__closure"
.LASF102:
	.string	"find"
.LASF920:
	.string	"__allow_parallel"
.LASF344:
	.string	"_ZNSt6vectorIlSaIlEE14_M_fill_insertEN9__gnu_cxx17__normal_iteratorIPlS1_EEmRKl"
.LASF779:
	.string	"__ssize_t"
.LASF790:
	.string	"int_least32_t"
.LASF402:
	.string	"_ZNSt16allocator_traitsISaIiEE37select_on_container_copy_constructionERKS0_"
.LASF971:
	.string	"__initialize_p"
.LASF257:
	.string	"_ZNSt6vectorIlSaIlEEC4EOS1_RKS0_St17integral_constantIbLb1EE"
.LASF673:
	.string	"long int"
.LASF255:
	.string	"_ZNSt6vectorIlSaIlEEC4EOS1_"
.LASF763:
	.string	"__int32_t"
.LASF679:
	.string	"wmemmove"
.LASF187:
	.string	"_ZNSt11char_traitsIcE6assignERcRKc"
.LASF451:
	.string	"_ZNSt6vectorIiSaIiEED4Ev"
.LASF728:
	.string	"_ZN9__gnu_cxx17__normal_iteratorIPlSt6vectorIlSaIlEEEmIEl"
.LASF1022:
	.string	"size_1d"
.LASF689:
	.string	"__gnu_cxx"
.LASF319:
	.string	"_ZNSt6vectorIlSaIlEE4dataEv"
.LASF797:
	.string	"int_fast16_t"
.LASF694:
	.string	"_S_on_swap"
.LASF917:
	.string	"__allow_vector"
.LASF200:
	.string	"_M_copy_data"
.LASF510:
	.string	"_ZNSt6vectorIiSaIiEE15_M_erase_at_endEPi"
.LASF341:
	.string	"_M_fill_assign"
.LASF1003:
	.string	"__in_chrg"
.LASF479:
	.string	"_ZNKSt6vectorIiSaIiEE14_M_range_checkEm"
.LASF248:
	.string	"_ZNSt6vectorIlSaIlEE11_S_relocateEPlS2_S2_RS0_"
.LASF1012:
	.string	"_ZNSt6vectorIlSaIlEEC2ESt16initializer_listIlERKS0_"
.LASF330:
	.string	"_ZNSt6vectorIlSaIlEE6insertEN9__gnu_cxx17__normal_iteratorIPKlS1_EEmRS4_"
.LASF27:
	.string	"_IO_write_base"
.LASF964:
	.string	"_ZdlPvm"
.LASF259:
	.string	"_ZNSt6vectorIlSaIlEEC4EOS1_RKS0_"
.LASF103:
	.string	"_ZNSt11char_traitsIcE4findEPKcmRS1_"
.LASF172:
	.string	"_ZNKSt15__new_allocatorIlE11_M_max_sizeEv"
.LASF383:
	.string	"_ZNSt15__new_allocatorIiEC4Ev"
.LASF933:
	.string	"_ZN6__pstl9execution2v118unsequenced_policy16__allow_parallelEv"
.LASF266:
	.string	"_ZNSt6vectorIlSaIlEE6assignEmRKl"
.LASF55:
	.string	"integral_constant<bool, false>"
.LASF492:
	.string	"_ZNSt6vectorIiSaIiEE6insertEN9__gnu_cxx17__normal_iteratorIPKiS1_EEOi"
.LASF741:
	.string	"_ZN9__gnu_cxx14__alloc_traitsISaIiEiE15_S_always_equalEv"
.LASF323:
	.string	"_ZNSt6vectorIlSaIlEE9push_backEOl"
.LASF115:
	.string	"eq_int_type"
.LASF781:
	.string	"int16_t"
.LASF876:
	.string	"__pos"
.LASF414:
	.string	"_ZNSt12_Vector_baseIlSaIlEE12_Vector_implD4Ev"
.LASF996:
	.string	"__size"
.LASF209:
	.string	"_ZNSt12_Vector_baseIlSaIlEE12_Vector_implC4EOS0_"
.LASF239:
	.string	"vector<long int, std::allocator<long int> >"
.LASF884:
	.string	"fclose"
.LASF482:
	.string	"_ZNSt6vectorIiSaIiEE5frontEv"
.LASF500:
	.string	"_ZNSt6vectorIiSaIiEE21_M_default_initializeEm"
.LASF332:
	.string	"_ZNSt6vectorIlSaIlEE5eraseEN9__gnu_cxx17__normal_iteratorIPKlS1_EE"
.LASF515:
	.string	"initializer_list<int>"
.LASF459:
	.string	"_ZNSt6vectorIiSaIiEE3endEv"
.LASF538:
	.string	"__fill_a1<int*, int>"
.LASF416:
	.string	"_ZNSt12_Vector_baseIiSaIiEE19_M_get_Tp_allocatorEv"
.LASF700:
	.string	"_S_propagate_on_swap"
.LASF903:
	.string	"setbuf"
.LASF799:
	.string	"int_fast64_t"
.LASF979:
	.string	"__res"
.LASF868:
	.string	"wctomb"
.LASF1045:
	.string	"_ZnwmPv"
.LASF364:
	.string	"_M_move_assign"
.LASF333:
	.string	"_ZNSt6vectorIlSaIlEE5eraseEN9__gnu_cxx17__normal_iteratorIPKlS1_EES6_"
.LASF233:
	.string	"_M_create_storage"
.LASF152:
	.string	"__new_allocator"
.LASF40:
	.string	"_cur_column"
.LASF112:
	.string	"int_type"
.LASF360:
	.string	"_ZNSt6vectorIlSaIlEE15_M_erase_at_endEPl"
.LASF84:
	.string	"_ZNSt15__exception_ptr13exception_ptraSEOS0_"
.LASF301:
	.string	"empty"
.LASF150:
	.string	"_TrivialValueType"
.LASF733:
	.string	"_Container"
.LASF730:
	.string	"_ZNK9__gnu_cxx17__normal_iteratorIPlSt6vectorIlSaIlEEEmiEl"
.LASF816:
	.string	"mon_grouping"
.LASF238:
	.string	"_Type"
.LASF439:
	.string	"_ZNSt6vectorIiSaIiEE11_S_relocateEPiS2_S2_RS0_"
.LASF302:
	.string	"_ZNKSt6vectorIlSaIlEE5emptyEv"
.LASF688:
	.string	"wmemchr"
.LASF968:
	.string	"__cxa_throw"
.LASF1052:
	.string	"input_iterator_tag"
.LASF855:
	.string	"mblen"
.LASF607:
	.string	"for_each<__gnu_cxx::__normal_iterator<long int*, std::vector<long int> >, container::details::tensor_base_static<int, 2, 3, 4, 5>::tensor_base_static()::<lambda(int)> >"
.LASF657:
	.string	"tm_year"
.LASF1000:
	.string	"__rhs"
.LASF843:
	.string	"7lldiv_t"
.LASF603:
	.string	"_Destroy<long int*, long int>"
.LASF579:
	.string	"__relocate_a<int*, int*, std::allocator<int> >"
.LASF113:
	.string	"to_int_type"
.LASF138:
	.string	"operator<<"
.LASF122:
	.string	"forward_iterator_tag"
.LASF1048:
	.string	"GNU C++17 12.2.0 -mtune=generic -march=x86-64 -g -std=c++17 -fasynchronous-unwind-tables"
.LASF474:
	.string	"_ZNKSt6vectorIiSaIiEE8capacityEv"
.LASF79:
	.string	"_ZNSt15__exception_ptr13exception_ptrC4ERKS0_"
.LASF512:
	.string	"_ZNSt6vectorIiSaIiEE8_M_eraseEN9__gnu_cxx17__normal_iteratorIPiS1_EES5_"
.LASF433:
	.string	"_ZNSt6vectorIiSaIiEE19_S_nothrow_relocateESt17integral_constantIbLb1EE"
.LASF872:
	.string	"strtoull"
.LASF369:
	.string	"_Traits"
.LASF548:
	.string	"__copy_move_a1<false, long int const*, long int*>"
.LASF778:
	.string	"__off64_t"
.LASF669:
	.string	"wcstod"
.LASF65:
	.string	"false_type"
.LASF670:
	.string	"wcstof"
.LASF658:
	.string	"tm_wday"
.LASF672:
	.string	"wcstol"
.LASF277:
	.string	"_ZNSt6vectorIlSaIlEE6rbeginEv"
.LASF359:
	.string	"_M_erase_at_end"
.LASF143:
	.string	"_ZNSt20__uninitialized_copyILb1EE13__uninit_copyIPKlPlEET0_T_S6_S5_"
.LASF514:
	.string	"_ZNSt6vectorIiSaIiEE14_M_move_assignEOS1_St17integral_constantIbLb0EE"
.LASF311:
	.string	"_ZNKSt6vectorIlSaIlEE2atEm"
.LASF75:
	.string	"_ZNSt15__exception_ptr13exception_ptr10_M_releaseEv"
.LASF755:
	.string	"signed char"
.LASF591:
	.string	"_ZSt22__uninitialized_copy_aIPKlPllET0_T_S4_S3_RSaIT1_E"
.LASF931:
	.string	"_ZN6__pstl9execution2v118unsequenced_policy19__allow_unsequencedEv"
.LASF1053:
	.string	"_ZNSt12_Destroy_auxILb1EE9__destroyIPiEEvT_S3_"
.LASF381:
	.string	"reverse_iterator<__gnu_cxx::__normal_iterator<long int const*, std::vector<long int, std::allocator<long int> > > >"
.LASF992:
	.string	"_ZNSaIlEC2ERKS_"
.LASF584:
	.string	"__uninitialized_default_n<int*, long unsigned int>"
.LASF1021:
	.string	"index_1d"
.LASF325:
	.string	"_ZNSt6vectorIlSaIlEE8pop_backEv"
.LASF592:
	.string	"__distance<long int const*>"
.LASF135:
	.string	"_ZNSt8ios_base4InitaSERKS0_"
.LASF424:
	.string	"_ZNSt12_Vector_baseIiSaIiEEC4EOS0_"
.LASF923:
	.string	"_ZN6__pstl9execution2v115parallel_policy19__allow_unsequencedEv"
.LASF644:
	.string	"__isoc99_vwscanf"
.LASF615:
	.string	"btowc"
.LASF388:
	.string	"_ZNSt15__new_allocatorIiE8allocateEmPKv"
.LASF608:
	.string	"_ZSt8for_eachIN9__gnu_cxx17__normal_iteratorIPlSt6vectorIlSaIlEEEEZN9container7details18tensor_base_staticIiJLl2ELl3ELl4ELl5EEEC4EvEUliE_ET0_T_SD_SC_"
.LASF427:
	.string	"_ZNSt12_Vector_baseIiSaIiEED4Ev"
.LASF190:
	.string	"select_on_container_copy_construction"
.LASF74:
	.string	"_ZNSt15__exception_ptr13exception_ptr9_M_addrefEv"
.LASF677:
	.string	"wmemcmp"
.LASF696:
	.string	"_S_propagate_on_copy_assign"
.LASF766:
	.string	"__uint64_t"
.LASF423:
	.string	"_ZNSt12_Vector_baseIiSaIiEEC4EOS1_"
.LASF169:
	.string	"max_size"
.LASF568:
	.string	"__addressof<int>"
.LASF132:
	.string	"_ZNSt8ios_base4InitC4Ev"
.LASF139:
	.string	"_ZNSolsEi"
.LASF94:
	.string	"char_traits<char>"
.LASF308:
	.string	"_M_range_check"
.LASF188:
	.string	"_ZNSt16allocator_traitsISaIlEE10deallocateERS0_Plm"
.LASF264:
	.string	"_ZNSt6vectorIlSaIlEEaSEOS1_"
.LASF401:
	.string	"_ZNSt16allocator_traitsISaIiEE8max_sizeERKS0_"
.LASF955:
	.string	"data_type"
.LASF463:
	.string	"_ZNSt6vectorIiSaIiEE4rendEv"
.LASF147:
	.string	"__uninit_default_n<int*, long unsigned int>"
.LASF201:
	.string	"_ZNSt12_Vector_baseIlSaIlEE17_Vector_impl_data12_M_copy_dataERKS2_"
.LASF270:
	.string	"_ZNSt6vectorIlSaIlEE5beginEv"
.LASF707:
	.string	"other"
.LASF589:
	.string	"_ZSt27__uninitialized_default_n_aIPimiET_S1_T0_RSaIT1_E"
.LASF541:
	.string	"_ZSt14__copy_move_a2ILb0EPKlPlET1_T0_S4_S3_"
.LASF1065:
	.string	"_GLOBAL__sub_I__ZN9container7details11index_checkEll"
.LASF785:
	.string	"uint16_t"
.LASF906:
	.string	"tmpnam"
.LASF276:
	.string	"rbegin"
.LASF752:
	.string	"long long unsigned int"
.LASF698:
	.string	"_S_propagate_on_move_assign"
.LASF678:
	.string	"wmemcpy"
.LASF438:
	.string	"_ZNSt6vectorIiSaIiEE14_S_do_relocateEPiS2_S2_RS0_St17integral_constantIbLb0EE"
.LASF413:
	.string	"~_Vector_impl"
.LASF406:
	.string	"_ZNSt12_Vector_baseIiSaIiEE17_Vector_impl_data12_M_copy_dataERKS2_"
.LASF286:
	.string	"_ZNKSt6vectorIlSaIlEE4cendEv"
.LASF106:
	.string	"copy"
.LASF501:
	.string	"_ZNSt6vectorIiSaIiEE14_M_fill_assignEmRKi"
.LASF866:
	.string	"system"
.LASF525:
	.string	"__copy_m<long int>"
.LASF351:
	.string	"_M_emplace_aux"
.LASF109:
	.string	"_ZNSt11char_traitsIcE6assignEPcmc"
.LASF712:
	.string	"operator*"
.LASF725:
	.string	"operator+"
.LASF729:
	.string	"operator-"
.LASF542:
	.string	"__fill_a<int*, int>"
.LASF309:
	.string	"_ZNKSt6vectorIlSaIlEE14_M_range_checkEm"
.LASF921:
	.string	"_ZN6__pstl9execution2v116sequenced_policy16__allow_parallelEv"
.LASF840:
	.string	"div_t"
.LASF82:
	.string	"operator="
.LASF896:
	.string	"ftell"
.LASF62:
	.string	"operator std::integral_constant<bool, true>::value_type"
.LASF475:
	.string	"_ZNKSt6vectorIiSaIiEE5emptyEv"
.LASF251:
	.string	"_ZNSt6vectorIlSaIlEEC4ERKS0_"
.LASF496:
	.string	"_ZNSt6vectorIiSaIiEE5eraseEN9__gnu_cxx17__normal_iteratorIPKiS1_EES6_"
.LASF758:
	.string	"char32_t"
.LASF861:
	.string	"rand"
.LASF191:
	.string	"_ZNSt16allocator_traitsISaIlEE37select_on_container_copy_constructionERKS0_"
.LASF558:
	.string	"_ZSt19__iterator_categoryIPiENSt15iterator_traitsIT_E17iterator_categoryERKS2_"
.LASF418:
	.string	"_ZNKSt12_Vector_baseIiSaIiEE13get_allocatorEv"
.LASF254:
	.string	"_ZNSt6vectorIlSaIlEEC4ERKS1_"
.LASF435:
	.string	"_ZNSt6vectorIlSaIlEE15_S_use_relocateEv"
.LASF826:
	.string	"n_sign_posn"
.LASF507:
	.string	"_ZNKSt6vectorIiSaIiEE12_M_check_lenEmPKc"
.LASF246:
	.string	"_ZNSt6vectorIlSaIlEE14_S_do_relocateEPlS2_S2_RS0_St17integral_constantIbLb0EE"
.LASF932:
	.string	"_ZN6__pstl9execution2v118unsequenced_policy14__allow_vectorEv"
.LASF334:
	.string	"_ZNSt6vectorIlSaIlEE4swapERS1_"
.LASF355:
	.string	"_S_check_init_len"
.LASF208:
	.string	"_ZNSt12_Vector_baseIlSaIlEE12_Vector_implC4EOS2_"
.LASF166:
	.string	"size_type"
.LASF2:
	.string	"__unknown__"
.LASF731:
	.string	"base"
.LASF52:
	.string	"FILE"
.LASF382:
	.string	"__new_allocator<int>"
.LASF480:
	.string	"_ZNSt6vectorIiSaIiEE2atEm"
.LASF203:
	.string	"_ZNSt12_Destroy_auxILb1EE9__destroyIPlEEvT_S3_"
.LASF770:
	.string	"__uint_least16_t"
.LASF1042:
	.string	"_ZN9container7details18tensor_base_staticIiJLl2ELl3ELl4ELl5EEED2Ev"
.LASF983:
	.string	"__dso_handle"
.LASF214:
	.string	"_ZNKSt12_Vector_baseIlSaIlEE19_M_get_Tp_allocatorEv"
.LASF610:
	.string	"_Funct"
.LASF19:
	.string	"char"
.LASF934:
	.string	"cout"
.LASF408:
	.string	"_ZNSt12_Vector_baseIiSaIiEE12_Vector_implC4Ev"
.LASF530:
	.string	"__throw_bad_alloc"
.LASF910:
	.string	"iswctype"
.LASF959:
	.string	"_ZNSt8ios_base4InitD1Ev"
.LASF174:
	.string	"allocator"
.LASF1035:
	.string	"_ZNSt6vectorIiSaIiEEC2Ev"
.LASF521:
	.string	"iterator_category"
.LASF338:
	.string	"_ZNSt6vectorIlSaIlEE18_M_fill_initializeEmRKl"
.LASF661:
	.string	"tm_gmtoff"
.LASF145:
	.string	"_TrivialValueTypes"
.LASF643:
	.string	"vwscanf"
.LASF116:
	.string	"_ZNSt11char_traitsIcE11eq_int_typeERKiS2_"
.LASF358:
	.string	"_ZNSt6vectorIlSaIlEE11_S_max_sizeERKS0_"
.LASF111:
	.string	"_ZNSt11char_traitsIcE12to_char_typeERKi"
.LASF193:
	.string	"_Vector_base<long int, std::allocator<long int> >"
.LASF215:
	.string	"get_allocator"
.LASF556:
	.string	"_OutputIterator"
.LASF798:
	.string	"int_fast32_t"
.LASF151:
	.string	"__new_allocator<long int>"
.LASF570:
	.string	"copy<long int const*, long int*>"
.LASF457:
	.string	"_ZNSt6vectorIiSaIiEE5beginEv"
.LASF985:
	.string	"__val"
.LASF793:
	.string	"uint_least16_t"
.LASF442:
	.string	"_ZNSt6vectorIiSaIiEEC4EmRKS0_"
.LASF978:
	.string	"__tmp"
.LASF1011:
	.string	"__new_size"
.LASF312:
	.string	"front"
.LASF326:
	.string	"insert"
.LASF148:
	.string	"_ZNSt27__uninitialized_default_n_1ILb1EE18__uninit_default_nIPimEET_S3_T0_"
.LASF695:
	.string	"_ZN9__gnu_cxx14__alloc_traitsISaIlElE10_S_on_swapERS1_S3_"
.LASF318:
	.string	"data"
.LASF90:
	.string	"_ZNKSt15__exception_ptr13exception_ptr20__cxa_exception_typeEv"
.LASF78:
	.string	"_ZNSt15__exception_ptr13exception_ptrC4Ev"
.LASF627:
	.string	"mbrtowc"
.LASF242:
	.string	"_ZNSt6vectorIlSaIlEE19_S_nothrow_relocateESt17integral_constantIbLb0EE"
.LASF977:
	.string	"_Num"
.LASF814:
	.string	"mon_decimal_point"
.LASF96:
	.string	"_ZNSt11char_traitsIcE2eqERKcS2_"
.LASF575:
	.string	"__niter_base<int*>"
.LASF1036:
	.string	"_ZNSt12_Vector_baseIiSaIiEEC2Ev"
.LASF36:
	.string	"_chain"
.LASF1049:
	.string	"typedef __va_list_tag __va_list_tag"
.LASF337:
	.string	"_M_fill_initialize"
.LASF846:
	.string	"__compar_fn_t"
.LASF697:
	.string	"_ZN9__gnu_cxx14__alloc_traitsISaIlElE27_S_propagate_on_copy_assignEv"
.LASF1062:
	.string	"__cxa_end_catch"
.LASF577:
	.string	"min<long unsigned int>"
.LASF882:
	.string	"fpos_t"
.LASF949:
	.string	"_M_current"
.LASF398:
	.string	"_ZNSt16allocator_traitsISaIiEE8allocateERS0_m"
.LASF274:
	.string	"_ZNKSt6vectorIlSaIlEE3endEv"
.LASF490:
	.string	"_ZNSt6vectorIiSaIiEE8pop_backEv"
.LASF10:
	.string	"overflow_arg_area"
.LASF11:
	.string	"reg_save_area"
.LASF773:
	.string	"__int_least64_t"
.LASF441:
	.string	"_ZNSt6vectorIiSaIiEEC4ERKS0_"
.LASF874:
	.string	"strtold"
.LASF871:
	.string	"strtoll"
.LASF387:
	.string	"_ZNKSt15__new_allocatorIiE7addressERKi"
.LASF954:
	.string	"~tensor_base_static"
.LASF622:
	.string	"fwprintf"
.LASF1038:
	.string	"main"
.LASF444:
	.string	"_ZNSt6vectorIiSaIiEEC4ERKS1_"
.LASF85:
	.string	"~exception_ptr"
.LASF390:
	.string	"_ZNKSt15__new_allocatorIiE8max_sizeEv"
.LASF791:
	.string	"int_least64_t"
.LASF819:
	.string	"int_frac_digits"
.LASF563:
	.string	"_ZSt12__miter_baseIPKlET_S2_"
.LASF904:
	.string	"setvbuf"
.LASF47:
	.string	"_freeres_list"
.LASF715:
	.string	"_ZNK9__gnu_cxx17__normal_iteratorIPlSt6vectorIlSaIlEEEptEv"
.LASF935:
	.string	"par_unseq"
.LASF765:
	.string	"__int64_t"
.LASF456:
	.string	"_ZNSt6vectorIiSaIiEE6assignESt16initializer_listIiE"
.LASF467:
	.string	"_ZNKSt6vectorIiSaIiEE7crbeginEv"
.LASF997:
	.string	"__navail"
.LASF681:
	.string	"wprintf"
.LASF54:
	.string	"_IO_FILE"
.LASF120:
	.string	"ptrdiff_t"
.LASF711:
	.string	"_ZN9__gnu_cxx17__normal_iteratorIPlSt6vectorIlSaIlEEEC4ERKS1_"
.LASF547:
	.string	"_Iterator"
.LASF8:
	.string	"gp_offset"
.LASF289:
	.string	"crend"
.LASF768:
	.string	"__uint_least8_t"
.LASF504:
	.string	"_ZNSt6vectorIiSaIiEE16_M_shrink_to_fitEv"
.LASF1067:
	.string	"__can_fill"
.LASF845:
	.string	"ssize_t"
.LASF1039:
	.string	"argc"
.LASF886:
	.string	"ferror"
.LASF593:
	.string	"_ZSt10__distanceIPKlENSt15iterator_traitsIT_E15difference_typeES3_S3_St26random_access_iterator_tag"
.LASF347:
	.string	"_M_shrink_to_fit"
.LASF918:
	.string	"_ZN6__pstl9execution2v116sequenced_policy19__allow_unsequencedEv"
.LASF1040:
	.string	"argv"
.LASF114:
	.string	"_ZNSt11char_traitsIcE11to_int_typeERKc"
.LASF636:
	.string	"vfwprintf"
.LASF552:
	.string	"__niter_base<long int const*>"
.LASF782:
	.string	"int32_t"
.LASF99:
	.string	"length"
.LASF796:
	.string	"int_fast8_t"
.LASF686:
	.string	"wcsrchr"
.LASF619:
	.string	"fputwc"
.LASF780:
	.string	"int8_t"
.LASF737:
	.string	"_ZN9__gnu_cxx14__alloc_traitsISaIiEiE10_S_on_swapERS1_S3_"
.LASF620:
	.string	"fputws"
.LASF440:
	.string	"_ZNSt6vectorIiSaIiEEC4Ev"
.LASF21:
	.string	"mbstate_t"
.LASF952:
	.string	"operator()<int, int, int, int>"
.LASF14:
	.string	"wint_t"
.LASF909:
	.string	"wctrans_t"
.LASF536:
	.string	"runtime_error"
.LASF1017:
	.string	"_ZNSt12_Vector_baseIiSaIiEE12_Vector_implC2Ev"
.LASF937:
	.string	"container"
.LASF290:
	.string	"_ZNKSt6vectorIlSaIlEE5crendEv"
.LASF386:
	.string	"_ZNKSt15__new_allocatorIiE7addressERi"
.LASF984:
	.string	"__al"
.LASF12:
	.string	"unsigned int"
.LASF275:
	.string	"reverse_iterator"
.LASF126:
	.string	"_Destroy_aux<true>"
.LASF852:
	.string	"bsearch"
.LASF487:
	.string	"_ZNKSt6vectorIiSaIiEE4dataEv"
	.section	.debug_line_str,"MS",@progbits,1
.LASF1:
	.string	"/home/xunililak/Code/Projects/10-Tensor"
.LASF0:
	.string	"Application.cpp"
	.hidden	DW.ref.__gxx_personality_v0
	.weak	DW.ref.__gxx_personality_v0
	.section	.data.rel.local.DW.ref.__gxx_personality_v0,"awG",@progbits,DW.ref.__gxx_personality_v0,comdat
	.align 8
	.type	DW.ref.__gxx_personality_v0, @object
	.size	DW.ref.__gxx_personality_v0, 8
DW.ref.__gxx_personality_v0:
	.quad	__gxx_personality_v0
	.hidden	__dso_handle
	.ident	"GCC: (Debian 12.2.0-3) 12.2.0"
	.section	.note.GNU-stack,"",@progbits
