	.file	"Application.cpp"
# GNU C++17 (Debian 12.2.0-3) version 12.2.0 (x86_64-linux-gnu)
#	compiled by GNU C version 12.2.0, GMP version 6.2.1, MPFR version 4.1.0, MPC version 1.2.1, isl version isl-0.25-GMP

# GGC heuristics: --param ggc-min-expand=100 --param ggc-min-heapsize=131072
# options passed: -mtune=generic -march=x86-64 -g -std=c++17 -fasynchronous-unwind-tables
	.text
.Ltext0:
	.file 0 "/home/xunililak/Code/Projects/10-Tensor" "Application.cpp"
	.section	.text._ZnwmPv,"axG",@progbits,_ZnwmPv,comdat
	.weak	_ZnwmPv
	.type	_ZnwmPv, @function
_ZnwmPv:
.LFB40:
	.file 1 "/usr/include/c++/12/new"
	.loc 1 175 1
	.cfi_startproc
	pushq	%rbp	#
	.cfi_def_cfa_offset 16
	.cfi_offset 6, -16
	movq	%rsp, %rbp	#,
	.cfi_def_cfa_register 6
	movq	%rdi, -8(%rbp)	# D.3371, D.3371
	movq	%rsi, -16(%rbp)	# __p, __p
# /usr/include/c++/12/new:175: { return __p; }
	.loc 1 175 10
	movq	-16(%rbp), %rax	# __p, _2
# /usr/include/c++/12/new:175: { return __p; }
	.loc 1 175 15
	popq	%rbp	#
	.cfi_def_cfa 7, 8
	ret	
	.cfi_endproc
.LFE40:
	.size	_ZnwmPv, .-_ZnwmPv
	.section	.text._ZSt17__size_to_integerm,"axG",@progbits,_ZSt17__size_to_integerm,comdat
	.weak	_ZSt17__size_to_integerm
	.type	_ZSt17__size_to_integerm, @function
_ZSt17__size_to_integerm:
.LFB652:
	.file 2 "/usr/include/c++/12/bits/stl_algobase.h"
	.loc 2 1009 40
	.cfi_startproc
	pushq	%rbp	#
	.cfi_def_cfa_offset 16
	.cfi_offset 6, -16
	movq	%rsp, %rbp	#,
	.cfi_def_cfa_register 6
	movq	%rdi, -8(%rbp)	# __n, __n
# /usr/include/c++/12/bits/stl_algobase.h:1009:   __size_to_integer(unsigned long __n) { return __n; }
	.loc 2 1009 49
	movq	-8(%rbp), %rax	# __n, _2
# /usr/include/c++/12/bits/stl_algobase.h:1009:   __size_to_integer(unsigned long __n) { return __n; }
	.loc 2 1009 54
	popq	%rbp	#
	.cfi_def_cfa 7, 8
	ret	
	.cfi_endproc
.LFE652:
	.size	_ZSt17__size_to_integerm, .-_ZSt17__size_to_integerm
	.section	.text._ZNKSt17integral_constantIbLb1EEcvbEv,"axG",@progbits,_ZNKSt17integral_constantIbLb1EEcvbEv,comdat
	.align 2
	.weak	_ZNKSt17integral_constantIbLb1EEcvbEv
	.type	_ZNKSt17integral_constantIbLb1EEcvbEv, @function
_ZNKSt17integral_constantIbLb1EEcvbEv:
.LFB907:
	.file 3 "/usr/include/c++/12/type_traits"
	.loc 3 67 17
	.cfi_startproc
	pushq	%rbp	#
	.cfi_def_cfa_offset 16
	.cfi_offset 6, -16
	movq	%rsp, %rbp	#,
	.cfi_def_cfa_register 6
	movq	%rdi, -8(%rbp)	# this, this
# /usr/include/c++/12/type_traits:67:       constexpr operator value_type() const noexcept { return value; }
	.loc 3 67 63
	movl	$1, %eax	#, _1
# /usr/include/c++/12/type_traits:67:       constexpr operator value_type() const noexcept { return value; }
	.loc 3 67 70
	popq	%rbp	#
	.cfi_def_cfa 7, 8
	ret	
	.cfi_endproc
.LFE907:
	.size	_ZNKSt17integral_constantIbLb1EEcvbEv, .-_ZNKSt17integral_constantIbLb1EEcvbEv
	.local	_ZStL8__ioinit
	.comm	_ZStL8__ioinit,1,1
	.section	.rodata
.LC0:
	.string	"Index out of range."
	.text
	.globl	_ZN9container7details11index_checkEll
	.type	_ZN9container7details11index_checkEll, @function
_ZN9container7details11index_checkEll:
.LFB1754:
	.file 4 "src/Tensor/../Utils/Utils.hpp"
	.loc 4 26 9
	.cfi_startproc
	.cfi_personality 0x9b,DW.ref.__gxx_personality_v0
	.cfi_lsda 0x1b,.LLSDA1754
	pushq	%rbp	#
	.cfi_def_cfa_offset 16
	.cfi_offset 6, -16
	movq	%rsp, %rbp	#,
	.cfi_def_cfa_register 6
	pushq	%r12	#
	pushq	%rbx	#
	subq	$16, %rsp	#,
	.cfi_offset 12, -24
	.cfi_offset 3, -32
	movq	%rdi, -24(%rbp)	# index, index
	movq	%rsi, -32(%rbp)	# oor_index, oor_index
# src/Tensor/../Utils/Utils.hpp:27:             if (index >= oor_index || index < -oor_index)
	.loc 4 27 13
	movq	-24(%rbp), %rax	# index, tmp87
	cmpq	-32(%rbp), %rax	# oor_index, tmp87
	jge	.L8	#,
# src/Tensor/../Utils/Utils.hpp:27:             if (index >= oor_index || index < -oor_index)
	.loc 4 27 47 discriminator 1
	movq	-32(%rbp), %rax	# oor_index, tmp88
	negq	%rax	# _1
# src/Tensor/../Utils/Utils.hpp:27:             if (index >= oor_index || index < -oor_index)
	.loc 4 27 36 discriminator 1
	cmpq	%rax, -24(%rbp)	# _1, index
	jge	.L9	#,
.L8:
# src/Tensor/../Utils/Utils.hpp:28:                 throw std::runtime_error("Index out of range.");
	.loc 4 28 63
	movl	$16, %edi	#,
	call	__cxa_allocate_exception@PLT	#
	movq	%rax, %rbx	# tmp89, _10
# src/Tensor/../Utils/Utils.hpp:28:                 throw std::runtime_error("Index out of range.");
	.loc 4 28 17
	leaq	.LC0(%rip), %rax	#, tmp90
	movq	%rax, %rsi	# tmp90,
	movq	%rbx, %rdi	# _10,
.LEHB0:
	call	_ZNSt13runtime_errorC1EPKc@PLT	#
.LEHE0:
# src/Tensor/../Utils/Utils.hpp:28:                 throw std::runtime_error("Index out of range.");
	.loc 4 28 63 discriminator 2
	movq	_ZNSt13runtime_errorD1Ev@GOTPCREL(%rip), %rax	#, tmp92
	movq	%rax, %rdx	# tmp91,
	leaq	_ZTISt13runtime_error(%rip), %rax	#, tmp93
	movq	%rax, %rsi	# tmp93,
	movq	%rbx, %rdi	# _10,
.LEHB1:
	call	__cxa_throw@PLT	#
.L9:
# src/Tensor/../Utils/Utils.hpp:29:             return index >= 0 ? index : oor_index + index;
	.loc 4 29 31
	cmpq	$0, -24(%rbp)	#, index
	jns	.L10	#,
# src/Tensor/../Utils/Utils.hpp:29:             return index >= 0 ? index : oor_index + index;
	.loc 4 29 31 is_stmt 0 discriminator 1
	movq	-32(%rbp), %rdx	# oor_index, tmp94
	movq	-24(%rbp), %rax	# index, tmp95
	addq	%rdx, %rax	# tmp94, iftmp.0_2
# src/Tensor/../Utils/Utils.hpp:29:             return index >= 0 ? index : oor_index + index;
	.loc 4 29 53 is_stmt 1 discriminator 1
	jmp	.L15	#
.L10:
# src/Tensor/../Utils/Utils.hpp:29:             return index >= 0 ? index : oor_index + index;
	.loc 4 29 31 discriminator 2
	movq	-24(%rbp), %rax	# index, iftmp.0_2
# src/Tensor/../Utils/Utils.hpp:29:             return index >= 0 ? index : oor_index + index;
	.loc 4 29 53 discriminator 2
	jmp	.L15	#
.L14:
# src/Tensor/../Utils/Utils.hpp:28:                 throw std::runtime_error("Index out of range.");
	.loc 4 28 63
	movq	%rax, %r12	#, tmp97
	movq	%rbx, %rdi	# _10,
	call	__cxa_free_exception@PLT	#
	movq	%r12, %rax	# tmp97, D.68627
	movq	%rax, %rdi	# D.68627,
	call	_Unwind_Resume@PLT	#
.LEHE1:
.L15:
# src/Tensor/../Utils/Utils.hpp:30:         }
	.loc 4 30 9
	addq	$16, %rsp	#,
	popq	%rbx	#
	popq	%r12	#
	popq	%rbp	#
	.cfi_def_cfa 7, 8
	ret	
	.cfi_endproc
.LFE1754:
	.globl	__gxx_personality_v0
	.section	.gcc_except_table,"a",@progbits
.LLSDA1754:
	.byte	0xff
	.byte	0xff
	.byte	0x1
	.uleb128 .LLSDACSE1754-.LLSDACSB1754
.LLSDACSB1754:
	.uleb128 .LEHB0-.LFB1754
	.uleb128 .LEHE0-.LEHB0
	.uleb128 .L14-.LFB1754
	.uleb128 0
	.uleb128 .LEHB1-.LFB1754
	.uleb128 .LEHE1-.LEHB1
	.uleb128 0
	.uleb128 0
.LLSDACSE1754:
	.text
	.size	_ZN9container7details11index_checkEll, .-_ZN9container7details11index_checkEll
	.section	.rodata
	.type	_ZN6__pstl9execution2v1L3seqE, @object
	.size	_ZN6__pstl9execution2v1L3seqE, 1
_ZN6__pstl9execution2v1L3seqE:
	.zero	1
	.type	_ZN6__pstl9execution2v1L3parE, @object
	.size	_ZN6__pstl9execution2v1L3parE, 1
_ZN6__pstl9execution2v1L3parE:
	.zero	1
	.type	_ZN6__pstl9execution2v1L9par_unseqE, @object
	.size	_ZN6__pstl9execution2v1L9par_unseqE, 1
_ZN6__pstl9execution2v1L9par_unseqE:
	.zero	1
	.type	_ZN6__pstl9execution2v1L5unseqE, @object
	.size	_ZN6__pstl9execution2v1L5unseqE, 1
_ZN6__pstl9execution2v1L5unseqE:
	.zero	1
	.section	.text._ZN9container6tensorIdJLl2ELl3ELl5EEED2Ev,"axG",@progbits,_ZN9container6tensorIdJLl2ELl3ELl5EEED5Ev,comdat
	.align 2
	.weak	_ZN9container6tensorIdJLl2ELl3ELl5EEED2Ev
	.type	_ZN9container6tensorIdJLl2ELl3ELl5EEED2Ev, @function
_ZN9container6tensorIdJLl2ELl3ELl5EEED2Ev:
.LFB2570:
	.file 5 "src/Tensor/Tensor.hpp"
	.loc 5 72 9
	.cfi_startproc
	pushq	%rbp	#
	.cfi_def_cfa_offset 16
	.cfi_offset 6, -16
	movq	%rsp, %rbp	#,
	.cfi_def_cfa_register 6
	subq	$16, %rsp	#,
	movq	%rdi, -8(%rbp)	# this, this
.LBB2:
# src/Tensor/Tensor.hpp:72:         ~tensor() = default;
	.loc 5 72 9
	movq	-8(%rbp), %rax	# this, tmp84
	addq	$24, %rax	#, _1
	movq	%rax, %rdi	# _1,
	call	_ZNSt6vectorIlSaIlEED1Ev	#
	movq	-8(%rbp), %rax	# this, _2
	movq	%rax, %rdi	# _2,
	call	_ZNSt6vectorIdSaIdEED1Ev	#
.LBE2:
	nop	
	leave	
	.cfi_def_cfa 7, 8
	ret	
	.cfi_endproc
.LFE2570:
	.size	_ZN9container6tensorIdJLl2ELl3ELl5EEED2Ev, .-_ZN9container6tensorIdJLl2ELl3ELl5EEED2Ev
	.weak	_ZN9container6tensorIdJLl2ELl3ELl5EEED1Ev
	.set	_ZN9container6tensorIdJLl2ELl3ELl5EEED1Ev,_ZN9container6tensorIdJLl2ELl3ELl5EEED2Ev
	.section	.text._ZN9container6tensorIdJEED2Ev,"axG",@progbits,_ZN9container6tensorIdJEED5Ev,comdat
	.align 2
	.weak	_ZN9container6tensorIdJEED2Ev
	.type	_ZN9container6tensorIdJEED2Ev, @function
_ZN9container6tensorIdJEED2Ev:
.LFB2573:
	.loc 5 72 9
	.cfi_startproc
	pushq	%rbp	#
	.cfi_def_cfa_offset 16
	.cfi_offset 6, -16
	movq	%rsp, %rbp	#,
	.cfi_def_cfa_register 6
	subq	$16, %rsp	#,
	movq	%rdi, -8(%rbp)	# this, this
.LBB3:
# src/Tensor/Tensor.hpp:72:         ~tensor() = default;
	.loc 5 72 9
	movq	-8(%rbp), %rax	# this, tmp84
	addq	$24, %rax	#, _1
	movq	%rax, %rdi	# _1,
	call	_ZNSt6vectorIlSaIlEED1Ev	#
	movq	-8(%rbp), %rax	# this, _2
	movq	%rax, %rdi	# _2,
	call	_ZNSt6vectorIdSaIdEED1Ev	#
.LBE3:
	nop	
	leave	
	.cfi_def_cfa 7, 8
	ret	
	.cfi_endproc
.LFE2573:
	.size	_ZN9container6tensorIdJEED2Ev, .-_ZN9container6tensorIdJEED2Ev
	.weak	_ZN9container6tensorIdJEED1Ev
	.set	_ZN9container6tensorIdJEED1Ev,_ZN9container6tensorIdJEED2Ev
	.text
	.globl	main
	.type	main, @function
main:
.LFB2568:
	.file 6 "Application.cpp"
	.loc 6 9 1
	.cfi_startproc
	.cfi_personality 0x9b,DW.ref.__gxx_personality_v0
	.cfi_lsda 0x1b,.LLSDA2568
	pushq	%rbp	#
	.cfi_def_cfa_offset 16
	.cfi_offset 6, -16
	movq	%rsp, %rbp	#,
	.cfi_def_cfa_register 6
	pushq	%rbx	#
	subq	$168, %rsp	#,
	.cfi_offset 3, -24
	movl	%edi, -164(%rbp)	# argc, argc
	movq	%rsi, -176(%rbp)	# argv, argv
# Application.cpp:10:     tensor<double, 2, 3, 5> t1{};
	.loc 6 10 32
	leaq	-64(%rbp), %rax	#, tmp89
	movq	%rax, %rdi	# tmp89,
.LEHB2:
	call	_ZN9container6tensorIdJLl2ELl3ELl5EEEC1Ev	#
.LEHE2:
# Application.cpp:11:     t1(0, 0, 0) = 99;
	.loc 6 11 7
	leaq	-64(%rbp), %rax	#, tmp90
	movl	$0, %ecx	#,
	movl	$0, %edx	#,
	movl	$0, %esi	#,
	movq	%rax, %rdi	# tmp90,
.LEHB3:
	call	_ZN9container6tensorIdJLl2ELl3ELl5EEEclIJiiiEEERdDpT_	#
# Application.cpp:11:     t1(0, 0, 0) = 99;
	.loc 6 11 17
	movsd	.LC1(%rip), %xmm0	#, tmp91
	movsd	%xmm0, (%rax)	# tmp91, *_1
# Application.cpp:12:     tensor<double> t2{t1};
	.loc 6 12 25
	leaq	-64(%rbp), %rdx	#, tmp92
	leaq	-112(%rbp), %rax	#, tmp93
	movq	%rdx, %rsi	# tmp92,
	movq	%rax, %rdi	# tmp93,
	call	_ZN9container6tensorIdJEEC1IJLl2ELl3ELl5EEEERKNS0_IdJXspT_EEEE	#
.LEHE3:
# Application.cpp:14:     tensor<double, 2, 3, 5> t3{std::move(t2)};
	.loc 6 14 41
	leaq	-112(%rbp), %rax	#, tmp94
	movq	%rax, %rdi	# tmp94,
	call	_ZSt4moveIRN9container6tensorIdJEEEEONSt16remove_referenceIT_E4typeEOS5_	#
	movq	%rax, %rdx	#, _2
# Application.cpp:14:     tensor<double, 2, 3, 5> t3{std::move(t2)};
	.loc 6 14 45
	leaq	-160(%rbp), %rax	#, tmp95
	movq	%rdx, %rsi	# _2,
	movq	%rax, %rdi	# tmp95,
.LEHB4:
	call	_ZN9container6tensorIdJLl2ELl3ELl5EEEC1IJEEEONS0_IdJXspT_EEEE	#
.LEHE4:
# Application.cpp:16:     std::cout << t2.shape(0) << '\n';
	.loc 6 16 28
	leaq	-112(%rbp), %rax	#, tmp96
	movl	$0, %esi	#,
	movq	%rax, %rdi	# tmp96,
.LEHB5:
	call	_ZNK9container6tensorIdJEE5shapeEl	#
	movq	%rax, %rsi	# _3,
	leaq	_ZSt4cout(%rip), %rax	#, tmp97
	movq	%rax, %rdi	# tmp97,
	call	_ZNSolsEl@PLT	#
# Application.cpp:16:     std::cout << t2.shape(0) << '\n';
	.loc 6 16 33 discriminator 1
	movl	$10, %esi	#,
	movq	%rax, %rdi	# _4,
	call	_ZStlsISt11char_traitsIcEERSt13basic_ostreamIcT_ES5_c@PLT	#
.LEHE5:
# Application.cpp:18:     return 0;
	.loc 6 18 12
	movl	$0, %ebx	#, _22
# Application.cpp:19: }
	.loc 6 19 1
	leaq	-160(%rbp), %rax	#, tmp98
	movq	%rax, %rdi	# tmp98,
	call	_ZN9container6tensorIdJLl2ELl3ELl5EEED1Ev	#
	leaq	-112(%rbp), %rax	#, tmp99
	movq	%rax, %rdi	# tmp99,
	call	_ZN9container6tensorIdJEED1Ev	#
	leaq	-64(%rbp), %rax	#, tmp100
	movq	%rax, %rdi	# tmp100,
	call	_ZN9container6tensorIdJLl2ELl3ELl5EEED1Ev	#
	movl	%ebx, %eax	# _22, <retval>
	jmp	.L26	#
.L25:
	movq	%rax, %rbx	#, tmp104
	leaq	-160(%rbp), %rax	#, tmp102
	movq	%rax, %rdi	# tmp102,
	call	_ZN9container6tensorIdJLl2ELl3ELl5EEED1Ev	#
	jmp	.L21	#
.L24:
	movq	%rax, %rbx	#, tmp103
.L21:
	leaq	-112(%rbp), %rax	#, tmp107
	movq	%rax, %rdi	# tmp107,
	call	_ZN9container6tensorIdJEED1Ev	#
	jmp	.L22	#
.L23:
	movq	%rax, %rbx	#, tmp108
.L22:
	leaq	-64(%rbp), %rax	#, tmp110
	movq	%rax, %rdi	# tmp110,
	call	_ZN9container6tensorIdJLl2ELl3ELl5EEED1Ev	#
	movq	%rbx, %rax	# tmp108, D.68629
	movq	%rax, %rdi	# D.68629,
.LEHB6:
	call	_Unwind_Resume@PLT	#
.LEHE6:
.L26:
	movq	-8(%rbp), %rbx	#,
	leave	
	.cfi_def_cfa 7, 8
	ret	
	.cfi_endproc
.LFE2568:
	.section	.gcc_except_table
.LLSDA2568:
	.byte	0xff
	.byte	0xff
	.byte	0x1
	.uleb128 .LLSDACSE2568-.LLSDACSB2568
.LLSDACSB2568:
	.uleb128 .LEHB2-.LFB2568
	.uleb128 .LEHE2-.LEHB2
	.uleb128 0
	.uleb128 0
	.uleb128 .LEHB3-.LFB2568
	.uleb128 .LEHE3-.LEHB3
	.uleb128 .L23-.LFB2568
	.uleb128 0
	.uleb128 .LEHB4-.LFB2568
	.uleb128 .LEHE4-.LEHB4
	.uleb128 .L24-.LFB2568
	.uleb128 0
	.uleb128 .LEHB5-.LFB2568
	.uleb128 .LEHE5-.LEHB5
	.uleb128 .L25-.LFB2568
	.uleb128 0
	.uleb128 .LEHB6-.LFB2568
	.uleb128 .LEHE6-.LEHB6
	.uleb128 0
	.uleb128 0
.LLSDACSE2568:
	.text
	.size	main, .-main
	.section	.text._ZNSt12_Vector_baseIdSaIdEE12_Vector_implD2Ev,"axG",@progbits,_ZNSt12_Vector_baseIdSaIdEE12_Vector_implD5Ev,comdat
	.align 2
	.weak	_ZNSt12_Vector_baseIdSaIdEE12_Vector_implD2Ev
	.type	_ZNSt12_Vector_baseIdSaIdEE12_Vector_implD2Ev, @function
_ZNSt12_Vector_baseIdSaIdEE12_Vector_implD2Ev:
.LFB2843:
	.file 7 "/usr/include/c++/12/bits/stl_vector.h"
	.loc 7 133 14
	.cfi_startproc
	pushq	%rbp	#
	.cfi_def_cfa_offset 16
	.cfi_offset 6, -16
	movq	%rsp, %rbp	#,
	.cfi_def_cfa_register 6
	subq	$16, %rsp	#,
	movq	%rdi, -8(%rbp)	# this, this
.LBB4:
# /usr/include/c++/12/bits/stl_vector.h:133:       struct _Vector_impl
	.loc 7 133 14
	movq	-8(%rbp), %rax	# this, tmp82
	movq	%rax, %rdi	# tmp82,
	call	_ZNSaIdED2Ev	#
.LBE4:
	nop	
	leave	
	.cfi_def_cfa 7, 8
	ret	
	.cfi_endproc
.LFE2843:
	.size	_ZNSt12_Vector_baseIdSaIdEE12_Vector_implD2Ev, .-_ZNSt12_Vector_baseIdSaIdEE12_Vector_implD2Ev
	.weak	_ZNSt12_Vector_baseIdSaIdEE12_Vector_implD1Ev
	.set	_ZNSt12_Vector_baseIdSaIdEE12_Vector_implD1Ev,_ZNSt12_Vector_baseIdSaIdEE12_Vector_implD2Ev
	.section	.text._ZNSt12_Vector_baseIdSaIdEEC2Ev,"axG",@progbits,_ZNSt12_Vector_baseIdSaIdEEC5Ev,comdat
	.align 2
	.weak	_ZNSt12_Vector_baseIdSaIdEEC2Ev
	.type	_ZNSt12_Vector_baseIdSaIdEEC2Ev, @function
_ZNSt12_Vector_baseIdSaIdEEC2Ev:
.LFB2845:
	.loc 7 312 7
	.cfi_startproc
	pushq	%rbp	#
	.cfi_def_cfa_offset 16
	.cfi_offset 6, -16
	movq	%rsp, %rbp	#,
	.cfi_def_cfa_register 6
	subq	$16, %rsp	#,
	movq	%rdi, -8(%rbp)	# this, this
.LBB5:
# /usr/include/c++/12/bits/stl_vector.h:312:       _Vector_base() = default;
	.loc 7 312 7
	movq	-8(%rbp), %rax	# this, _1
	movq	%rax, %rdi	# _1,
	call	_ZNSt12_Vector_baseIdSaIdEE12_Vector_implC1Ev	#
.LBE5:
	nop	
	leave	
	.cfi_def_cfa 7, 8
	ret	
	.cfi_endproc
.LFE2845:
	.size	_ZNSt12_Vector_baseIdSaIdEEC2Ev, .-_ZNSt12_Vector_baseIdSaIdEEC2Ev
	.weak	_ZNSt12_Vector_baseIdSaIdEEC1Ev
	.set	_ZNSt12_Vector_baseIdSaIdEEC1Ev,_ZNSt12_Vector_baseIdSaIdEEC2Ev
	.section	.text._ZNSt6vectorIdSaIdEEC2Ev,"axG",@progbits,_ZNSt6vectorIdSaIdEEC5Ev,comdat
	.align 2
	.weak	_ZNSt6vectorIdSaIdEEC2Ev
	.type	_ZNSt6vectorIdSaIdEEC2Ev, @function
_ZNSt6vectorIdSaIdEEC2Ev:
.LFB2847:
	.loc 7 526 7
	.cfi_startproc
	pushq	%rbp	#
	.cfi_def_cfa_offset 16
	.cfi_offset 6, -16
	movq	%rsp, %rbp	#,
	.cfi_def_cfa_register 6
	subq	$16, %rsp	#,
	movq	%rdi, -8(%rbp)	# this, this
.LBB6:
# /usr/include/c++/12/bits/stl_vector.h:526:       vector() = default;
	.loc 7 526 7
	movq	-8(%rbp), %rax	# this, _1
	movq	%rax, %rdi	# _1,
	call	_ZNSt12_Vector_baseIdSaIdEEC2Ev	#
.LBE6:
	nop	
	leave	
	.cfi_def_cfa 7, 8
	ret	
	.cfi_endproc
.LFE2847:
	.size	_ZNSt6vectorIdSaIdEEC2Ev, .-_ZNSt6vectorIdSaIdEEC2Ev
	.weak	_ZNSt6vectorIdSaIdEEC1Ev
	.set	_ZNSt6vectorIdSaIdEEC1Ev,_ZNSt6vectorIdSaIdEEC2Ev
	.section	.text._ZN9container6tensorIdJLl2ELl3ELl5EEEC2Ev,"axG",@progbits,_ZN9container6tensorIdJLl2ELl3ELl5EEEC5Ev,comdat
	.align 2
	.weak	_ZN9container6tensorIdJLl2ELl3ELl5EEEC2Ev
	.type	_ZN9container6tensorIdJLl2ELl3ELl5EEEC2Ev, @function
_ZN9container6tensorIdJLl2ELl3ELl5EEEC2Ev:
.LFB2849:
	.loc 5 26 9
	.cfi_startproc
	.cfi_personality 0x9b,DW.ref.__gxx_personality_v0
	.cfi_lsda 0x1b,.LLSDA2849
	pushq	%rbp	#
	.cfi_def_cfa_offset 16
	.cfi_offset 6, -16
	movq	%rsp, %rbp	#,
	.cfi_def_cfa_register 6
	pushq	%r13	#
	pushq	%r12	#
	pushq	%rbx	#
	subq	$56, %rsp	#,
	.cfi_offset 13, -24
	.cfi_offset 12, -32
	.cfi_offset 3, -40
	movq	%rdi, -72(%rbp)	# this, this
.LBB7:
# src/Tensor/Tensor.hpp:26:         tensor() : _dims{dims...}
	.loc 5 26 33
	movq	-72(%rbp), %rax	# this, _1
	movq	%rax, %rdi	# _1,
	call	_ZNSt6vectorIdSaIdEEC1Ev	#
# src/Tensor/Tensor.hpp:26:         tensor() : _dims{dims...}
	.loc 5 26 20
	movq	-72(%rbp), %rax	# this, tmp88
	leaq	24(%rax), %rbx	#, _2
	movq	$2, -64(%rbp)	#, D.62204[0]
	movq	$3, -56(%rbp)	#, D.62204[1]
	movq	$5, -48(%rbp)	#, D.62204[2]
	leaq	-64(%rbp), %rax	#, tmp89
	movq	%rax, %r12	# tmp89, D.62203
	movl	$3, %r13d	#, D.62203
	leaq	-33(%rbp), %rax	#, tmp90
	movq	%rax, %rdi	# tmp90,
	call	_ZNSaIlEC1Ev	#
	leaq	-33(%rbp), %rax	#, tmp91
	movq	%r12, %r8	# D.62203, tmp92
	movq	%r13, %r9	# D.62203,
	movq	%r12, %rsi	# D.62203, tmp93
	movq	%r13, %rdi	# D.62203,
	movq	%rdi, %rdx	#, tmp95
	movq	%rax, %rcx	# tmp91,
	movq	%r8, %rsi	# tmp94,
	movq	%rbx, %rdi	# _2,
.LEHB7:
	call	_ZNSt6vectorIlSaIlEEC1ESt16initializer_listIlERKS0_	#
.LEHE7:
# src/Tensor/Tensor.hpp:26:         tensor() : _dims{dims...}
	.loc 5 26 20 is_stmt 0 discriminator 2
	leaq	-33(%rbp), %rax	#, tmp96
	movq	%rax, %rdi	# tmp96,
	call	_ZNSaIlED1Ev	#
# src/Tensor/Tensor.hpp:29:                 this->_initialize();
	.loc 5 29 34 is_stmt 1 discriminator 2
	movq	-72(%rbp), %rax	# this, tmp97
	movq	%rax, %rdi	# tmp97,
.LEHB8:
	call	_ZN9container6tensorIdJLl2ELl3ELl5EEE11_initializeEv	#
.LEHE8:
.LBE7:
# src/Tensor/Tensor.hpp:30:         }
	.loc 5 30 9
	jmp	.L36	#
.L34:
.LBB8:
# src/Tensor/Tensor.hpp:26:         tensor() : _dims{dims...}
	.loc 5 26 20
	movq	%rax, %rbx	#, tmp100
	leaq	-33(%rbp), %rax	#, tmp98
	movq	%rax, %rdi	# tmp98,
	call	_ZNSaIlED1Ev	#
	jmp	.L32	#
.L35:
# src/Tensor/Tensor.hpp:30:         }
	.loc 5 30 9
	movq	%rax, %rbx	#, tmp104
	movq	-72(%rbp), %rax	# this, tmp103
	addq	$24, %rax	#, _3
	movq	%rax, %rdi	# _3,
	call	_ZNSt6vectorIlSaIlEED1Ev	#
.L32:
	movq	-72(%rbp), %rax	# this, _4
	movq	%rax, %rdi	# _4,
	call	_ZNSt6vectorIdSaIdEED1Ev	#
	movq	%rbx, %rax	# tmp99, D.68630
	movq	%rax, %rdi	# D.68630,
.LEHB9:
	call	_Unwind_Resume@PLT	#
.LEHE9:
.L36:
.LBE8:
	addq	$56, %rsp	#,
	popq	%rbx	#
	popq	%r12	#
	popq	%r13	#
	popq	%rbp	#
	.cfi_def_cfa 7, 8
	ret	
	.cfi_endproc
.LFE2849:
	.section	.gcc_except_table
.LLSDA2849:
	.byte	0xff
	.byte	0xff
	.byte	0x1
	.uleb128 .LLSDACSE2849-.LLSDACSB2849
.LLSDACSB2849:
	.uleb128 .LEHB7-.LFB2849
	.uleb128 .LEHE7-.LEHB7
	.uleb128 .L34-.LFB2849
	.uleb128 0
	.uleb128 .LEHB8-.LFB2849
	.uleb128 .LEHE8-.LEHB8
	.uleb128 .L35-.LFB2849
	.uleb128 0
	.uleb128 .LEHB9-.LFB2849
	.uleb128 .LEHE9-.LEHB9
	.uleb128 0
	.uleb128 0
.LLSDACSE2849:
	.section	.text._ZN9container6tensorIdJLl2ELl3ELl5EEEC2Ev,"axG",@progbits,_ZN9container6tensorIdJLl2ELl3ELl5EEEC5Ev,comdat
	.size	_ZN9container6tensorIdJLl2ELl3ELl5EEEC2Ev, .-_ZN9container6tensorIdJLl2ELl3ELl5EEEC2Ev
	.weak	_ZN9container6tensorIdJLl2ELl3ELl5EEEC1Ev
	.set	_ZN9container6tensorIdJLl2ELl3ELl5EEEC1Ev,_ZN9container6tensorIdJLl2ELl3ELl5EEEC2Ev
	.section	.text._ZNSt6vectorIdSaIdEED2Ev,"axG",@progbits,_ZNSt6vectorIdSaIdEED5Ev,comdat
	.align 2
	.weak	_ZNSt6vectorIdSaIdEED2Ev
	.type	_ZNSt6vectorIdSaIdEED2Ev, @function
_ZNSt6vectorIdSaIdEED2Ev:
.LFB2852:
	.loc 7 728 7
	.cfi_startproc
	.cfi_personality 0x9b,DW.ref.__gxx_personality_v0
	.cfi_lsda 0x1b,.LLSDA2852
	pushq	%rbp	#
	.cfi_def_cfa_offset 16
	.cfi_offset 6, -16
	movq	%rsp, %rbp	#,
	.cfi_def_cfa_register 6
	subq	$16, %rsp	#,
	movq	%rdi, -8(%rbp)	# this, this
.LBB9:
# /usr/include/c++/12/bits/stl_vector.h:731: 		      _M_get_Tp_allocator());
	.loc 7 731 28
	movq	-8(%rbp), %rax	# this, _1
	movq	%rax, %rdi	# _1,
	call	_ZNSt12_Vector_baseIdSaIdEE19_M_get_Tp_allocatorEv	#
	movq	%rax, %rdx	#, _2
# /usr/include/c++/12/bits/stl_vector.h:730: 	std::_Destroy(this->_M_impl._M_start, this->_M_impl._M_finish,
	.loc 7 730 15
	movq	-8(%rbp), %rax	# this, tmp87
	movq	8(%rax), %rcx	# this_6(D)->D.58674._M_impl.D.58013._M_finish, _3
	movq	-8(%rbp), %rax	# this, tmp88
	movq	(%rax), %rax	# this_6(D)->D.58674._M_impl.D.58013._M_start, _4
	movq	%rcx, %rsi	# _3,
	movq	%rax, %rdi	# _4,
	call	_ZSt8_DestroyIPddEvT_S1_RSaIT0_E	#
# /usr/include/c++/12/bits/stl_vector.h:733:       }
	.loc 7 733 7
	movq	-8(%rbp), %rax	# this, _5
	movq	%rax, %rdi	# _5,
	call	_ZNSt12_Vector_baseIdSaIdEED2Ev	#
.LBE9:
	nop	
	leave	
	.cfi_def_cfa 7, 8
	ret	
	.cfi_endproc
.LFE2852:
	.section	.gcc_except_table
.LLSDA2852:
	.byte	0xff
	.byte	0xff
	.byte	0x1
	.uleb128 .LLSDACSE2852-.LLSDACSB2852
.LLSDACSB2852:
.LLSDACSE2852:
	.section	.text._ZNSt6vectorIdSaIdEED2Ev,"axG",@progbits,_ZNSt6vectorIdSaIdEED5Ev,comdat
	.size	_ZNSt6vectorIdSaIdEED2Ev, .-_ZNSt6vectorIdSaIdEED2Ev
	.weak	_ZNSt6vectorIdSaIdEED1Ev
	.set	_ZNSt6vectorIdSaIdEED1Ev,_ZNSt6vectorIdSaIdEED2Ev
	.section	.text._ZNSt6vectorIlSaIlEED2Ev,"axG",@progbits,_ZNSt6vectorIlSaIlEED5Ev,comdat
	.align 2
	.weak	_ZNSt6vectorIlSaIlEED2Ev
	.type	_ZNSt6vectorIlSaIlEED2Ev, @function
_ZNSt6vectorIlSaIlEED2Ev:
.LFB2855:
	.loc 7 728 7
	.cfi_startproc
	.cfi_personality 0x9b,DW.ref.__gxx_personality_v0
	.cfi_lsda 0x1b,.LLSDA2855
	pushq	%rbp	#
	.cfi_def_cfa_offset 16
	.cfi_offset 6, -16
	movq	%rsp, %rbp	#,
	.cfi_def_cfa_register 6
	subq	$16, %rsp	#,
	movq	%rdi, -8(%rbp)	# this, this
.LBB10:
# /usr/include/c++/12/bits/stl_vector.h:731: 		      _M_get_Tp_allocator());
	.loc 7 731 28
	movq	-8(%rbp), %rax	# this, _1
	movq	%rax, %rdi	# _1,
	call	_ZNSt12_Vector_baseIlSaIlEE19_M_get_Tp_allocatorEv	#
	movq	%rax, %rdx	#, _2
# /usr/include/c++/12/bits/stl_vector.h:730: 	std::_Destroy(this->_M_impl._M_start, this->_M_impl._M_finish,
	.loc 7 730 15
	movq	-8(%rbp), %rax	# this, tmp87
	movq	8(%rax), %rcx	# this_6(D)->D.54811._M_impl.D.54123._M_finish, _3
	movq	-8(%rbp), %rax	# this, tmp88
	movq	(%rax), %rax	# this_6(D)->D.54811._M_impl.D.54123._M_start, _4
	movq	%rcx, %rsi	# _3,
	movq	%rax, %rdi	# _4,
	call	_ZSt8_DestroyIPllEvT_S1_RSaIT0_E	#
# /usr/include/c++/12/bits/stl_vector.h:733:       }
	.loc 7 733 7
	movq	-8(%rbp), %rax	# this, _5
	movq	%rax, %rdi	# _5,
	call	_ZNSt12_Vector_baseIlSaIlEED2Ev	#
.LBE10:
	nop	
	leave	
	.cfi_def_cfa 7, 8
	ret	
	.cfi_endproc
.LFE2855:
	.section	.gcc_except_table
.LLSDA2855:
	.byte	0xff
	.byte	0xff
	.byte	0x1
	.uleb128 .LLSDACSE2855-.LLSDACSB2855
.LLSDACSB2855:
.LLSDACSE2855:
	.section	.text._ZNSt6vectorIlSaIlEED2Ev,"axG",@progbits,_ZNSt6vectorIlSaIlEED5Ev,comdat
	.size	_ZNSt6vectorIlSaIlEED2Ev, .-_ZNSt6vectorIlSaIlEED2Ev
	.weak	_ZNSt6vectorIlSaIlEED1Ev
	.set	_ZNSt6vectorIlSaIlEED1Ev,_ZNSt6vectorIlSaIlEED2Ev
	.section	.rodata
	.align 8
.LC2:
	.string	"The number of indices must be equal to the tensor's order."
	.section	.text._ZN9container6tensorIdJLl2ELl3ELl5EEEclIJiiiEEERdDpT_,"axG",@progbits,_ZN9container6tensorIdJLl2ELl3ELl5EEEclIJiiiEEERdDpT_,comdat
	.align 2
	.weak	_ZN9container6tensorIdJLl2ELl3ELl5EEEclIJiiiEEERdDpT_
	.type	_ZN9container6tensorIdJLl2ELl3ELl5EEEclIJiiiEEERdDpT_, @function
_ZN9container6tensorIdJLl2ELl3ELl5EEEclIJiiiEEERdDpT_:
.LFB2857:
	.loc 5 105 20
	.cfi_startproc
	.cfi_personality 0x9b,DW.ref.__gxx_personality_v0
	.cfi_lsda 0x1b,.LLSDA2857
	pushq	%rbp	#
	.cfi_def_cfa_offset 16
	.cfi_offset 6, -16
	movq	%rsp, %rbp	#,
	.cfi_def_cfa_register 6
	pushq	%r13	#
	pushq	%r12	#
	pushq	%rbx	#
	subq	$136, %rsp	#,
	.cfi_offset 13, -24
	.cfi_offset 12, -32
	.cfi_offset 3, -40
	movq	%rdi, -136(%rbp)	# this, this
	movl	%esi, -140(%rbp)	# indices#0, indices#0
	movl	%edx, -144(%rbp)	# indices#1, indices#1
	movl	%ecx, -148(%rbp)	# indices#2, indices#2
# src/Tensor/Tensor.hpp:107:             std::vector<size_type> index_list{indices...};
	.loc 5 107 47
	movl	-140(%rbp), %eax	# indices#0, tmp109
	cltq
# src/Tensor/Tensor.hpp:107:             std::vector<size_type> index_list{indices...};
	.loc 5 107 36
	movq	%rax, -96(%rbp)	# _1, D.62242[0]
# src/Tensor/Tensor.hpp:107:             std::vector<size_type> index_list{indices...};
	.loc 5 107 47
	movl	-144(%rbp), %eax	# indices#1, tmp110
	cltq
# src/Tensor/Tensor.hpp:107:             std::vector<size_type> index_list{indices...};
	.loc 5 107 36
	movq	%rax, -88(%rbp)	# _2, D.62242[1]
# src/Tensor/Tensor.hpp:107:             std::vector<size_type> index_list{indices...};
	.loc 5 107 47
	movl	-148(%rbp), %eax	# indices#2, tmp111
	cltq
# src/Tensor/Tensor.hpp:107:             std::vector<size_type> index_list{indices...};
	.loc 5 107 36
	movq	%rax, -80(%rbp)	# _3, D.62242[2]
	leaq	-96(%rbp), %rax	#, tmp112
	movq	%rax, %r12	# tmp112, D.62243
	movl	$3, %r13d	#, D.62243
	leaq	-65(%rbp), %rax	#, tmp113
	movq	%rax, %rdi	# tmp113,
	call	_ZNSaIlEC1Ev	#
	leaq	-65(%rbp), %rdx	#, tmp114
	movq	%r12, %rsi	# D.62243, tmp115
	movq	%r13, %rdi	# D.62243,
	movq	%r12, %rcx	# D.62243, tmp116
	movq	%r13, %rbx	# D.62243,
	movq	%rbx, %rdi	#, tmp118
	leaq	-128(%rbp), %rax	#, tmp119
	movq	%rdx, %rcx	# tmp114,
	movq	%rdi, %rdx	# tmp118,
	movq	%rax, %rdi	# tmp119,
.LEHB10:
	call	_ZNSt6vectorIlSaIlEEC1ESt16initializer_listIlERKS0_	#
.LEHE10:
# src/Tensor/Tensor.hpp:107:             std::vector<size_type> index_list{indices...};
	.loc 5 107 36 is_stmt 0 discriminator 2
	leaq	-65(%rbp), %rax	#, tmp120
	movq	%rax, %rdi	# tmp120,
	call	_ZNSaIlED1Ev	#
# src/Tensor/Tensor.hpp:108:             size_type n_indices = index_list.size();
	.loc 5 108 50 is_stmt 1 discriminator 2
	leaq	-128(%rbp), %rax	#, tmp121
	movq	%rax, %rdi	# tmp121,
	call	_ZNKSt6vectorIlSaIlEE4sizeEv	#
# src/Tensor/Tensor.hpp:108:             size_type n_indices = index_list.size();
	.loc 5 108 23 discriminator 2
	movq	%rax, -64(%rbp)	# _4, n_indices
# src/Tensor/Tensor.hpp:110:             if (n_indices != this->order())
	.loc 5 110 41 discriminator 2
	movq	-136(%rbp), %rax	# this, tmp122
	movq	%rax, %rdi	# tmp122,
	call	_ZNK9container6tensorIdJLl2ELl3ELl5EEE5orderEv	#
# src/Tensor/Tensor.hpp:110:             if (n_indices != this->order())
	.loc 5 110 27 discriminator 2
	cmpq	%rax, -64(%rbp)	# _5, n_indices
	setne	%al	#, retval.23_43
# src/Tensor/Tensor.hpp:110:             if (n_indices != this->order())
	.loc 5 110 13 discriminator 2
	testb	%al, %al	# retval.23_43
	je	.L40	#,
# src/Tensor/Tensor.hpp:111:                 throw std::runtime_error("The number of indices must be equal to the tensor's order.");
	.loc 5 111 17
	movl	$16, %edi	#,
	call	__cxa_allocate_exception@PLT	#
	movq	%rax, %rbx	# tmp123, _64
	leaq	.LC2(%rip), %rax	#, tmp124
	movq	%rax, %rsi	# tmp124,
	movq	%rbx, %rdi	# _64,
.LEHB11:
	call	_ZNSt13runtime_errorC1EPKc@PLT	#
.LEHE11:
# src/Tensor/Tensor.hpp:111:                 throw std::runtime_error("The number of indices must be equal to the tensor's order.");
	.loc 5 111 17 is_stmt 0 discriminator 2
	movq	_ZNSt13runtime_errorD1Ev@GOTPCREL(%rip), %rax	#, tmp126
	movq	%rax, %rdx	# tmp125,
	leaq	_ZTISt13runtime_error(%rip), %rax	#, tmp127
	movq	%rax, %rsi	# tmp127,
	movq	%rbx, %rdi	# _64,
.LEHB12:
	call	__cxa_throw@PLT	#
.L40:
# src/Tensor/Tensor.hpp:113:             size_type index_1d = 0;
	.loc 5 113 23 is_stmt 1
	movq	$0, -40(%rbp)	#, index_1d
# src/Tensor/Tensor.hpp:114:             size_type size_1d = this->size();
	.loc 5 114 43
	movq	-136(%rbp), %rax	# this, tmp128
	movq	%rax, %rdi	# tmp128,
	call	_ZNK9container6tensorIdJLl2ELl3ELl5EEE4sizeEv	#
	movq	%rax, -48(%rbp)	# tmp129, size_1d
# src/Tensor/Tensor.hpp:115:             size_type current_dim = 0;
	.loc 5 115 23
	movq	$0, -56(%rbp)	#, current_dim
# src/Tensor/Tensor.hpp:117:             for (current_dim = 0; current_dim < n_indices; ++current_dim)
	.loc 5 117 30
	movq	$0, -56(%rbp)	#, current_dim
# src/Tensor/Tensor.hpp:117:             for (current_dim = 0; current_dim < n_indices; ++current_dim)
	.loc 5 117 13
	jmp	.L41	#
.L42:
# src/Tensor/Tensor.hpp:118:                 index_1d += details::index_check(index_list[current_dim], _dims[current_dim]) * (size_1d /= _dims[current_dim]);
	.loc 5 118 49
	movq	-136(%rbp), %rax	# this, tmp130
	leaq	24(%rax), %rdx	#, _6
	movq	-56(%rbp), %rax	# current_dim, current_dim.24_7
	movq	%rax, %rsi	# current_dim.24_7,
	movq	%rdx, %rdi	# _6,
	call	_ZNSt6vectorIlSaIlEEixEm	#
	movq	(%rax), %rbx	# *_8, _9
	movq	-56(%rbp), %rdx	# current_dim, current_dim.25_10
	leaq	-128(%rbp), %rax	#, tmp131
	movq	%rdx, %rsi	# current_dim.25_10,
	movq	%rax, %rdi	# tmp131,
	call	_ZNSt6vectorIlSaIlEEixEm	#
	movq	(%rax), %rax	# *_11, _12
	movq	%rbx, %rsi	# _9,
	movq	%rax, %rdi	# _12,
	call	_ZN9container7details11index_checkEll	#
.LEHE12:
	movq	%rax, %rbx	#, _13
# src/Tensor/Tensor.hpp:118:                 index_1d += details::index_check(index_list[current_dim], _dims[current_dim]) * (size_1d /= _dims[current_dim]);
	.loc 5 118 106
	movq	-136(%rbp), %rax	# this, tmp132
	leaq	24(%rax), %rdx	#, _14
	movq	-56(%rbp), %rax	# current_dim, current_dim.26_15
	movq	%rax, %rsi	# current_dim.26_15,
	movq	%rdx, %rdi	# _14,
	call	_ZNSt6vectorIlSaIlEEixEm	#
	movq	(%rax), %rcx	# *_16, _58
	movq	-48(%rbp), %rax	# size_1d, tmp135
	cqto
	idivq	%rcx	# _58
	movq	%rax, -48(%rbp)	# tmp133, size_1d
# src/Tensor/Tensor.hpp:118:                 index_1d += details::index_check(index_list[current_dim], _dims[current_dim]) * (size_1d /= _dims[current_dim]);
	.loc 5 118 95
	movq	%rbx, %rax	# _13, _13
	imulq	-48(%rbp), %rax	# size_1d, _13
# src/Tensor/Tensor.hpp:118:                 index_1d += details::index_check(index_list[current_dim], _dims[current_dim]) * (size_1d /= _dims[current_dim]);
	.loc 5 118 26
	addq	%rax, -40(%rbp)	# _60, index_1d
# src/Tensor/Tensor.hpp:117:             for (current_dim = 0; current_dim < n_indices; ++current_dim)
	.loc 5 117 13
	addq	$1, -56(%rbp)	#, current_dim
.L41:
# src/Tensor/Tensor.hpp:117:             for (current_dim = 0; current_dim < n_indices; ++current_dim)
	.loc 5 117 47 discriminator 2
	movq	-56(%rbp), %rax	# current_dim, tmp136
	cmpq	-64(%rbp), %rax	# n_indices, tmp136
	jl	.L42	#,
# src/Tensor/Tensor.hpp:120:             return this->_data[index_1d];
	.loc 5 120 31
	movq	-136(%rbp), %rax	# this, _17
	movq	-40(%rbp), %rdx	# index_1d, index_1d.27_18
	movq	%rdx, %rsi	# index_1d.27_18,
	movq	%rax, %rdi	# _17,
	call	_ZNSt6vectorIdSaIdEEixEm	#
	movq	%rax, %rbx	#, _50
# src/Tensor/Tensor.hpp:120:             return this->_data[index_1d];
	.loc 5 120 40
	nop	
# src/Tensor/Tensor.hpp:121:         }
	.loc 5 121 9
	leaq	-128(%rbp), %rax	#, tmp137
	movq	%rax, %rdi	# tmp137,
	call	_ZNSt6vectorIlSaIlEED1Ev	#
# src/Tensor/Tensor.hpp:120:             return this->_data[index_1d];
	.loc 5 120 40
	movq	%rbx, %rax	# _50, <retval>
	jmp	.L50	#
.L47:
# src/Tensor/Tensor.hpp:107:             std::vector<size_type> index_list{indices...};
	.loc 5 107 36
	movq	%rax, %rbx	#, tmp140
	leaq	-65(%rbp), %rax	#, tmp139
	movq	%rax, %rdi	# tmp139,
	call	_ZNSaIlED1Ev	#
	movq	%rbx, %rax	# tmp140, D.68631
	movq	%rax, %rdi	# D.68631,
.LEHB13:
	call	_Unwind_Resume@PLT	#
.L48:
# src/Tensor/Tensor.hpp:111:                 throw std::runtime_error("The number of indices must be equal to the tensor's order.");
	.loc 5 111 17
	movq	%rax, %r12	#, tmp142
	movq	%rbx, %rdi	# _64,
	call	__cxa_free_exception@PLT	#
	movq	%r12, %rbx	# tmp142, tmp141
	jmp	.L46	#
.L49:
# src/Tensor/Tensor.hpp:121:         }
	.loc 5 121 9
	movq	%rax, %rbx	#, tmp141
.L46:
	leaq	-128(%rbp), %rax	#, tmp145
	movq	%rax, %rdi	# tmp145,
	call	_ZNSt6vectorIlSaIlEED1Ev	#
	movq	%rbx, %rax	# tmp141, D.68632
	movq	%rax, %rdi	# D.68632,
	call	_Unwind_Resume@PLT	#
.LEHE13:
.L50:
	addq	$136, %rsp	#,
	popq	%rbx	#
	popq	%r12	#
	popq	%r13	#
	popq	%rbp	#
	.cfi_def_cfa 7, 8
	ret	
	.cfi_endproc
.LFE2857:
	.section	.gcc_except_table
.LLSDA2857:
	.byte	0xff
	.byte	0xff
	.byte	0x1
	.uleb128 .LLSDACSE2857-.LLSDACSB2857
.LLSDACSB2857:
	.uleb128 .LEHB10-.LFB2857
	.uleb128 .LEHE10-.LEHB10
	.uleb128 .L47-.LFB2857
	.uleb128 0
	.uleb128 .LEHB11-.LFB2857
	.uleb128 .LEHE11-.LEHB11
	.uleb128 .L48-.LFB2857
	.uleb128 0
	.uleb128 .LEHB12-.LFB2857
	.uleb128 .LEHE12-.LEHB12
	.uleb128 .L49-.LFB2857
	.uleb128 0
	.uleb128 .LEHB13-.LFB2857
	.uleb128 .LEHE13-.LEHB13
	.uleb128 0
	.uleb128 0
.LLSDACSE2857:
	.section	.text._ZN9container6tensorIdJLl2ELl3ELl5EEEclIJiiiEEERdDpT_,"axG",@progbits,_ZN9container6tensorIdJLl2ELl3ELl5EEEclIJiiiEEERdDpT_,comdat
	.size	_ZN9container6tensorIdJLl2ELl3ELl5EEEclIJiiiEEERdDpT_, .-_ZN9container6tensorIdJLl2ELl3ELl5EEEclIJiiiEEERdDpT_
	.section	.text._ZNSt12_Vector_baseIlSaIlEE12_Vector_implD2Ev,"axG",@progbits,_ZNSt12_Vector_baseIlSaIlEE12_Vector_implD5Ev,comdat
	.align 2
	.weak	_ZNSt12_Vector_baseIlSaIlEE12_Vector_implD2Ev
	.type	_ZNSt12_Vector_baseIlSaIlEE12_Vector_implD2Ev, @function
_ZNSt12_Vector_baseIlSaIlEE12_Vector_implD2Ev:
.LFB2863:
	.loc 7 133 14
	.cfi_startproc
	pushq	%rbp	#
	.cfi_def_cfa_offset 16
	.cfi_offset 6, -16
	movq	%rsp, %rbp	#,
	.cfi_def_cfa_register 6
	subq	$16, %rsp	#,
	movq	%rdi, -8(%rbp)	# this, this
.LBB11:
# /usr/include/c++/12/bits/stl_vector.h:133:       struct _Vector_impl
	.loc 7 133 14
	movq	-8(%rbp), %rax	# this, tmp82
	movq	%rax, %rdi	# tmp82,
	call	_ZNSaIlED2Ev	#
.LBE11:
	nop	
	leave	
	.cfi_def_cfa 7, 8
	ret	
	.cfi_endproc
.LFE2863:
	.size	_ZNSt12_Vector_baseIlSaIlEE12_Vector_implD2Ev, .-_ZNSt12_Vector_baseIlSaIlEE12_Vector_implD2Ev
	.weak	_ZNSt12_Vector_baseIlSaIlEE12_Vector_implD1Ev
	.set	_ZNSt12_Vector_baseIlSaIlEE12_Vector_implD1Ev,_ZNSt12_Vector_baseIlSaIlEE12_Vector_implD2Ev
	.section	.text._ZNSt12_Vector_baseIlSaIlEEC2Ev,"axG",@progbits,_ZNSt12_Vector_baseIlSaIlEEC5Ev,comdat
	.align 2
	.weak	_ZNSt12_Vector_baseIlSaIlEEC2Ev
	.type	_ZNSt12_Vector_baseIlSaIlEEC2Ev, @function
_ZNSt12_Vector_baseIlSaIlEEC2Ev:
.LFB2865:
	.loc 7 312 7
	.cfi_startproc
	pushq	%rbp	#
	.cfi_def_cfa_offset 16
	.cfi_offset 6, -16
	movq	%rsp, %rbp	#,
	.cfi_def_cfa_register 6
	subq	$16, %rsp	#,
	movq	%rdi, -8(%rbp)	# this, this
.LBB12:
# /usr/include/c++/12/bits/stl_vector.h:312:       _Vector_base() = default;
	.loc 7 312 7
	movq	-8(%rbp), %rax	# this, _1
	movq	%rax, %rdi	# _1,
	call	_ZNSt12_Vector_baseIlSaIlEE12_Vector_implC1Ev	#
.LBE12:
	nop	
	leave	
	.cfi_def_cfa 7, 8
	ret	
	.cfi_endproc
.LFE2865:
	.size	_ZNSt12_Vector_baseIlSaIlEEC2Ev, .-_ZNSt12_Vector_baseIlSaIlEEC2Ev
	.weak	_ZNSt12_Vector_baseIlSaIlEEC1Ev
	.set	_ZNSt12_Vector_baseIlSaIlEEC1Ev,_ZNSt12_Vector_baseIlSaIlEEC2Ev
	.section	.text._ZNSt6vectorIlSaIlEEC2Ev,"axG",@progbits,_ZNSt6vectorIlSaIlEEC5Ev,comdat
	.align 2
	.weak	_ZNSt6vectorIlSaIlEEC2Ev
	.type	_ZNSt6vectorIlSaIlEEC2Ev, @function
_ZNSt6vectorIlSaIlEEC2Ev:
.LFB2867:
	.loc 7 526 7
	.cfi_startproc
	pushq	%rbp	#
	.cfi_def_cfa_offset 16
	.cfi_offset 6, -16
	movq	%rsp, %rbp	#,
	.cfi_def_cfa_register 6
	subq	$16, %rsp	#,
	movq	%rdi, -8(%rbp)	# this, this
.LBB13:
# /usr/include/c++/12/bits/stl_vector.h:526:       vector() = default;
	.loc 7 526 7
	movq	-8(%rbp), %rax	# this, _1
	movq	%rax, %rdi	# _1,
	call	_ZNSt12_Vector_baseIlSaIlEEC2Ev	#
.LBE13:
	nop	
	leave	
	.cfi_def_cfa 7, 8
	ret	
	.cfi_endproc
.LFE2867:
	.size	_ZNSt6vectorIlSaIlEEC2Ev, .-_ZNSt6vectorIlSaIlEEC2Ev
	.weak	_ZNSt6vectorIlSaIlEEC1Ev
	.set	_ZNSt6vectorIlSaIlEEC1Ev,_ZNSt6vectorIlSaIlEEC2Ev
	.section	.text._ZN9container6tensorIdJEEC2IJLl2ELl3ELl5EEEERKNS0_IdJXspT_EEEE,"axG",@progbits,_ZN9container6tensorIdJEEC5IJLl2ELl3ELl5EEEERKNS0_IdJXspT_EEEE,comdat
	.align 2
	.weak	_ZN9container6tensorIdJEEC2IJLl2ELl3ELl5EEEERKNS0_IdJXspT_EEEE
	.type	_ZN9container6tensorIdJEEC2IJLl2ELl3ELl5EEEERKNS0_IdJXspT_EEEE, @function
_ZN9container6tensorIdJEEC2IJLl2ELl3ELl5EEEERKNS0_IdJXspT_EEEE:
.LFB2869:
	.loc 5 43 9
	.cfi_startproc
	.cfi_personality 0x9b,DW.ref.__gxx_personality_v0
	.cfi_lsda 0x1b,.LLSDA2869
	pushq	%rbp	#
	.cfi_def_cfa_offset 16
	.cfi_offset 6, -16
	movq	%rsp, %rbp	#,
	.cfi_def_cfa_register 6
	pushq	%rbx	#
	subq	$24, %rsp	#,
	.cfi_offset 3, -24
	movq	%rdi, -24(%rbp)	# this, this
	movq	%rsi, -32(%rbp)	# rhs_tensor, rhs_tensor
.LBB14:
# src/Tensor/Tensor.hpp:43:         tensor(const tensor<data_type, rhs_dims...> &rhs_tensor) : _dims{dims...}
	.loc 5 43 81
	movq	-24(%rbp), %rax	# this, _1
	movq	%rax, %rdi	# _1,
	call	_ZNSt6vectorIdSaIdEEC1Ev	#
# src/Tensor/Tensor.hpp:43:         tensor(const tensor<data_type, rhs_dims...> &rhs_tensor) : _dims{dims...}
	.loc 5 43 68
	movq	-24(%rbp), %rax	# this, tmp87
	pxor	%xmm0, %xmm0	# tmp88
	movups	%xmm0, 24(%rax)	# tmp88, this_6(D)->_dims
	movq	%xmm0, 40(%rax)	# tmp88, this_6(D)->_dims
	movq	-24(%rbp), %rax	# this, tmp89
	addq	$24, %rax	#, _2
	movq	%rax, %rdi	# _2,
	call	_ZNSt6vectorIlSaIlEEC1Ev	#
# src/Tensor/Tensor.hpp:45:             this->_diff_type_copy_initialize(rhs_tensor);
	.loc 5 45 45
	movq	-32(%rbp), %rdx	# rhs_tensor, tmp90
	movq	-24(%rbp), %rax	# this, tmp91
	movq	%rdx, %rsi	# tmp90,
	movq	%rax, %rdi	# tmp91,
.LEHB14:
	call	_ZN9container6tensorIdJEE26_diff_type_copy_initializeIJLl2ELl3ELl5EEEEvRKNS0_IdJXspT_EEEE	#
.LEHE14:
.LBE14:
# src/Tensor/Tensor.hpp:46:         }
	.loc 5 46 9
	jmp	.L57	#
.L56:
.LBB15:
	movq	%rax, %rbx	#, tmp94
	movq	-24(%rbp), %rax	# this, tmp92
	addq	$24, %rax	#, _3
	movq	%rax, %rdi	# _3,
	call	_ZNSt6vectorIlSaIlEED1Ev	#
	movq	-24(%rbp), %rax	# this, _4
	movq	%rax, %rdi	# _4,
	call	_ZNSt6vectorIdSaIdEED1Ev	#
	movq	%rbx, %rax	# tmp93, D.68635
	movq	%rax, %rdi	# D.68635,
.LEHB15:
	call	_Unwind_Resume@PLT	#
.LEHE15:
.L57:
.LBE15:
	movq	-8(%rbp), %rbx	#,
	leave	
	.cfi_def_cfa 7, 8
	ret	
	.cfi_endproc
.LFE2869:
	.section	.gcc_except_table
.LLSDA2869:
	.byte	0xff
	.byte	0xff
	.byte	0x1
	.uleb128 .LLSDACSE2869-.LLSDACSB2869
.LLSDACSB2869:
	.uleb128 .LEHB14-.LFB2869
	.uleb128 .LEHE14-.LEHB14
	.uleb128 .L56-.LFB2869
	.uleb128 0
	.uleb128 .LEHB15-.LFB2869
	.uleb128 .LEHE15-.LEHB15
	.uleb128 0
	.uleb128 0
.LLSDACSE2869:
	.section	.text._ZN9container6tensorIdJEEC2IJLl2ELl3ELl5EEEERKNS0_IdJXspT_EEEE,"axG",@progbits,_ZN9container6tensorIdJEEC5IJLl2ELl3ELl5EEEERKNS0_IdJXspT_EEEE,comdat
	.size	_ZN9container6tensorIdJEEC2IJLl2ELl3ELl5EEEERKNS0_IdJXspT_EEEE, .-_ZN9container6tensorIdJEEC2IJLl2ELl3ELl5EEEERKNS0_IdJXspT_EEEE
	.weak	_ZN9container6tensorIdJEEC1IJLl2ELl3ELl5EEEERKNS0_IdJXspT_EEEE
	.set	_ZN9container6tensorIdJEEC1IJLl2ELl3ELl5EEEERKNS0_IdJXspT_EEEE,_ZN9container6tensorIdJEEC2IJLl2ELl3ELl5EEEERKNS0_IdJXspT_EEEE
	.section	.text._ZSt4moveIRN9container6tensorIdJEEEEONSt16remove_referenceIT_E4typeEOS5_,"axG",@progbits,_ZSt4moveIRN9container6tensorIdJEEEEONSt16remove_referenceIT_E4typeEOS5_,comdat
	.weak	_ZSt4moveIRN9container6tensorIdJEEEEONSt16remove_referenceIT_E4typeEOS5_
	.type	_ZSt4moveIRN9container6tensorIdJEEEEONSt16remove_referenceIT_E4typeEOS5_, @function
_ZSt4moveIRN9container6tensorIdJEEEEONSt16remove_referenceIT_E4typeEOS5_:
.LFB2871:
	.file 8 "/usr/include/c++/12/bits/move.h"
	.loc 8 104 5
	.cfi_startproc
	pushq	%rbp	#
	.cfi_def_cfa_offset 16
	.cfi_offset 6, -16
	movq	%rsp, %rbp	#,
	.cfi_def_cfa_register 6
	movq	%rdi, -8(%rbp)	# __t, __t
# /usr/include/c++/12/bits/move.h:105:     { return static_cast<typename std::remove_reference<_Tp>::type&&>(__t); }
	.loc 8 105 74
	movq	-8(%rbp), %rax	# __t, _2
# /usr/include/c++/12/bits/move.h:105:     { return static_cast<typename std::remove_reference<_Tp>::type&&>(__t); }
	.loc 8 105 77
	popq	%rbp	#
	.cfi_def_cfa 7, 8
	ret	
	.cfi_endproc
.LFE2871:
	.size	_ZSt4moveIRN9container6tensorIdJEEEEONSt16remove_referenceIT_E4typeEOS5_, .-_ZSt4moveIRN9container6tensorIdJEEEEONSt16remove_referenceIT_E4typeEOS5_
	.section	.text._ZN9container6tensorIdJLl2ELl3ELl5EEEC2IJEEEONS0_IdJXspT_EEEE,"axG",@progbits,_ZN9container6tensorIdJLl2ELl3ELl5EEEC5IJEEEONS0_IdJXspT_EEEE,comdat
	.align 2
	.weak	_ZN9container6tensorIdJLl2ELl3ELl5EEEC2IJEEEONS0_IdJXspT_EEEE
	.type	_ZN9container6tensorIdJLl2ELl3ELl5EEEC2IJEEEONS0_IdJXspT_EEEE, @function
_ZN9container6tensorIdJLl2ELl3ELl5EEEC2IJEEEONS0_IdJXspT_EEEE:
.LFB2873:
	.loc 5 51 9
	.cfi_startproc
	.cfi_personality 0x9b,DW.ref.__gxx_personality_v0
	.cfi_lsda 0x1b,.LLSDA2873
	pushq	%rbp	#
	.cfi_def_cfa_offset 16
	.cfi_offset 6, -16
	movq	%rsp, %rbp	#,
	.cfi_def_cfa_register 6
	pushq	%r13	#
	pushq	%r12	#
	pushq	%rbx	#
	subq	$56, %rsp	#,
	.cfi_offset 13, -24
	.cfi_offset 12, -32
	.cfi_offset 3, -40
	movq	%rdi, -72(%rbp)	# this, this
	movq	%rsi, -80(%rbp)	# rhs_tensor, rhs_tensor
.LBB16:
# src/Tensor/Tensor.hpp:51:         tensor(tensor<data_type, rhs_dims...> &&rhs_tensor) : _dims{dims...}
	.loc 5 51 76
	movq	-72(%rbp), %rax	# this, _1
	movq	%rax, %rdi	# _1,
	call	_ZNSt6vectorIdSaIdEEC1Ev	#
# src/Tensor/Tensor.hpp:51:         tensor(tensor<data_type, rhs_dims...> &&rhs_tensor) : _dims{dims...}
	.loc 5 51 63
	movq	-72(%rbp), %rax	# this, tmp89
	leaq	24(%rax), %rbx	#, _2
	movq	$2, -64(%rbp)	#, D.62406[0]
	movq	$3, -56(%rbp)	#, D.62406[1]
	movq	$5, -48(%rbp)	#, D.62406[2]
	leaq	-64(%rbp), %rax	#, tmp90
	movq	%rax, %r12	# tmp90, D.62405
	movl	$3, %r13d	#, D.62405
	leaq	-33(%rbp), %rax	#, tmp91
	movq	%rax, %rdi	# tmp91,
	call	_ZNSaIlEC1Ev	#
	leaq	-33(%rbp), %rax	#, tmp92
	movq	%r12, %r8	# D.62405, tmp93
	movq	%r13, %r9	# D.62405,
	movq	%r12, %rsi	# D.62405, tmp94
	movq	%r13, %rdi	# D.62405,
	movq	%rdi, %rdx	#, tmp96
	movq	%rax, %rcx	# tmp92,
	movq	%r8, %rsi	# tmp95,
	movq	%rbx, %rdi	# _2,
.LEHB16:
	call	_ZNSt6vectorIlSaIlEEC1ESt16initializer_listIlERKS0_	#
.LEHE16:
# src/Tensor/Tensor.hpp:51:         tensor(tensor<data_type, rhs_dims...> &&rhs_tensor) : _dims{dims...}
	.loc 5 51 63 is_stmt 0 discriminator 2
	leaq	-33(%rbp), %rax	#, tmp97
	movq	%rax, %rdi	# tmp97,
	call	_ZNSaIlED1Ev	#
# src/Tensor/Tensor.hpp:53:             this->_diff_type_move_initialize(std::move(rhs_tensor));
	.loc 5 53 55 is_stmt 1 discriminator 2
	movq	-80(%rbp), %rax	# rhs_tensor, tmp98
	movq	%rax, %rdi	# tmp98,
	call	_ZSt4moveIRN9container6tensorIdJEEEEONSt16remove_referenceIT_E4typeEOS5_	#
	movq	%rax, %rdx	#, _3
# src/Tensor/Tensor.hpp:53:             this->_diff_type_move_initialize(std::move(rhs_tensor));
	.loc 5 53 45 discriminator 2
	movq	-72(%rbp), %rax	# this, tmp99
	movq	%rdx, %rsi	# _3,
	movq	%rax, %rdi	# tmp99,
.LEHB17:
	call	_ZN9container6tensorIdJLl2ELl3ELl5EEE26_diff_type_move_initializeIJEEEvONS0_IdJXspT_EEEE	#
.LEHE17:
.LBE16:
# src/Tensor/Tensor.hpp:54:         }
	.loc 5 54 9
	jmp	.L66	#
.L64:
.LBB17:
# src/Tensor/Tensor.hpp:51:         tensor(tensor<data_type, rhs_dims...> &&rhs_tensor) : _dims{dims...}
	.loc 5 51 63
	movq	%rax, %rbx	#, tmp102
	leaq	-33(%rbp), %rax	#, tmp100
	movq	%rax, %rdi	# tmp100,
	call	_ZNSaIlED1Ev	#
	jmp	.L62	#
.L65:
# src/Tensor/Tensor.hpp:54:         }
	.loc 5 54 9
	movq	%rax, %rbx	#, tmp106
	movq	-72(%rbp), %rax	# this, tmp105
	addq	$24, %rax	#, _4
	movq	%rax, %rdi	# _4,
	call	_ZNSt6vectorIlSaIlEED1Ev	#
.L62:
	movq	-72(%rbp), %rax	# this, _5
	movq	%rax, %rdi	# _5,
	call	_ZNSt6vectorIdSaIdEED1Ev	#
	movq	%rbx, %rax	# tmp101, D.68636
	movq	%rax, %rdi	# D.68636,
.LEHB18:
	call	_Unwind_Resume@PLT	#
.LEHE18:
.L66:
.LBE17:
	addq	$56, %rsp	#,
	popq	%rbx	#
	popq	%r12	#
	popq	%r13	#
	popq	%rbp	#
	.cfi_def_cfa 7, 8
	ret	
	.cfi_endproc
.LFE2873:
	.section	.gcc_except_table
.LLSDA2873:
	.byte	0xff
	.byte	0xff
	.byte	0x1
	.uleb128 .LLSDACSE2873-.LLSDACSB2873
.LLSDACSB2873:
	.uleb128 .LEHB16-.LFB2873
	.uleb128 .LEHE16-.LEHB16
	.uleb128 .L64-.LFB2873
	.uleb128 0
	.uleb128 .LEHB17-.LFB2873
	.uleb128 .LEHE17-.LEHB17
	.uleb128 .L65-.LFB2873
	.uleb128 0
	.uleb128 .LEHB18-.LFB2873
	.uleb128 .LEHE18-.LEHB18
	.uleb128 0
	.uleb128 0
.LLSDACSE2873:
	.section	.text._ZN9container6tensorIdJLl2ELl3ELl5EEEC2IJEEEONS0_IdJXspT_EEEE,"axG",@progbits,_ZN9container6tensorIdJLl2ELl3ELl5EEEC5IJEEEONS0_IdJXspT_EEEE,comdat
	.size	_ZN9container6tensorIdJLl2ELl3ELl5EEEC2IJEEEONS0_IdJXspT_EEEE, .-_ZN9container6tensorIdJLl2ELl3ELl5EEEC2IJEEEONS0_IdJXspT_EEEE
	.weak	_ZN9container6tensorIdJLl2ELl3ELl5EEEC1IJEEEONS0_IdJXspT_EEEE
	.set	_ZN9container6tensorIdJLl2ELl3ELl5EEEC1IJEEEONS0_IdJXspT_EEEE,_ZN9container6tensorIdJLl2ELl3ELl5EEEC2IJEEEONS0_IdJXspT_EEEE
	.section	.text._ZNK9container6tensorIdJEE5shapeEl,"axG",@progbits,_ZNK9container6tensorIdJEE5shapeEl,comdat
	.align 2
	.weak	_ZNK9container6tensorIdJEE5shapeEl
	.type	_ZNK9container6tensorIdJEE5shapeEl, @function
_ZNK9container6tensorIdJEE5shapeEl:
.LFB2875:
	.loc 5 89 19
	.cfi_startproc
	pushq	%rbp	#
	.cfi_def_cfa_offset 16
	.cfi_offset 6, -16
	movq	%rsp, %rbp	#,
	.cfi_def_cfa_register 6
	pushq	%rbx	#
	subq	$24, %rsp	#,
	.cfi_offset 3, -24
	movq	%rdi, -24(%rbp)	# this, this
	movq	%rsi, -32(%rbp)	# dim_index, dim_index
# src/Tensor/Tensor.hpp:91:             return this->_dims[details::index_check(dim_index, this->_dims.size())];
	.loc 5 91 83
	movq	-24(%rbp), %rax	# this, tmp91
	leaq	24(%rax), %rbx	#, _1
# src/Tensor/Tensor.hpp:91:             return this->_dims[details::index_check(dim_index, this->_dims.size())];
	.loc 5 91 80
	movq	-24(%rbp), %rax	# this, tmp92
	addq	$24, %rax	#, _2
	movq	%rax, %rdi	# _2,
	call	_ZNKSt6vectorIlSaIlEE4sizeEv	#
# src/Tensor/Tensor.hpp:91:             return this->_dims[details::index_check(dim_index, this->_dims.size())];
	.loc 5 91 52
	movq	%rax, %rdx	# _3, _4
	movq	-32(%rbp), %rax	# dim_index, tmp93
	movq	%rdx, %rsi	# _4,
	movq	%rax, %rdi	# tmp93,
	call	_ZN9container7details11index_checkEll	#
# src/Tensor/Tensor.hpp:91:             return this->_dims[details::index_check(dim_index, this->_dims.size())];
	.loc 5 91 83
	movq	%rax, %rsi	# _6,
	movq	%rbx, %rdi	# _1,
	call	_ZNKSt6vectorIlSaIlEEixEm	#
	movq	(%rax), %rax	# *_7, _15
# src/Tensor/Tensor.hpp:92:         }
	.loc 5 92 9
	movq	-8(%rbp), %rbx	#,
	leave	
	.cfi_def_cfa 7, 8
	ret	
	.cfi_endproc
.LFE2875:
	.size	_ZNK9container6tensorIdJEE5shapeEl, .-_ZNK9container6tensorIdJEE5shapeEl
	.section	.text._ZNSt12_Vector_baseIdSaIdEE12_Vector_implC2Ev,"axG",@progbits,_ZNSt12_Vector_baseIdSaIdEE12_Vector_implC5Ev,comdat
	.align 2
	.weak	_ZNSt12_Vector_baseIdSaIdEE12_Vector_implC2Ev
	.type	_ZNSt12_Vector_baseIdSaIdEE12_Vector_implC2Ev, @function
_ZNSt12_Vector_baseIdSaIdEE12_Vector_implC2Ev:
.LFB2983:
	.loc 7 137 2
	.cfi_startproc
	pushq	%rbp	#
	.cfi_def_cfa_offset 16
	.cfi_offset 6, -16
	movq	%rsp, %rbp	#,
	.cfi_def_cfa_register 6
	subq	$16, %rsp	#,
	movq	%rdi, -8(%rbp)	# this, this
.LBB18:
# /usr/include/c++/12/bits/stl_vector.h:139: 	: _Tp_alloc_type()
	.loc 7 139 19
	movq	-8(%rbp), %rax	# this, tmp83
	movq	%rax, %rdi	# tmp83,
	call	_ZNSaIdEC2Ev	#
	movq	-8(%rbp), %rax	# this, _1
	movq	%rax, %rdi	# _1,
	call	_ZNSt12_Vector_baseIdSaIdEE17_Vector_impl_dataC2Ev	#
.LBE18:
# /usr/include/c++/12/bits/stl_vector.h:140: 	{ }
	.loc 7 140 4
	nop	
	leave	
	.cfi_def_cfa 7, 8
	ret	
	.cfi_endproc
.LFE2983:
	.size	_ZNSt12_Vector_baseIdSaIdEE12_Vector_implC2Ev, .-_ZNSt12_Vector_baseIdSaIdEE12_Vector_implC2Ev
	.weak	_ZNSt12_Vector_baseIdSaIdEE12_Vector_implC1Ev
	.set	_ZNSt12_Vector_baseIdSaIdEE12_Vector_implC1Ev,_ZNSt12_Vector_baseIdSaIdEE12_Vector_implC2Ev
	.section	.text._ZNSaIdED2Ev,"axG",@progbits,_ZNSaIdED5Ev,comdat
	.align 2
	.weak	_ZNSaIdED2Ev
	.type	_ZNSaIdED2Ev, @function
_ZNSaIdED2Ev:
.LFB2986:
	.file 9 "/usr/include/c++/12/bits/allocator.h"
	.loc 9 174 7
	.cfi_startproc
	pushq	%rbp	#
	.cfi_def_cfa_offset 16
	.cfi_offset 6, -16
	movq	%rsp, %rbp	#,
	.cfi_def_cfa_register 6
	subq	$16, %rsp	#,
	movq	%rdi, -8(%rbp)	# this, this
.LBB19:
# /usr/include/c++/12/bits/allocator.h:174:       ~allocator() _GLIBCXX_NOTHROW { }
	.loc 9 174 39
	movq	-8(%rbp), %rax	# this, tmp82
	movq	%rax, %rdi	# tmp82,
	call	_ZNSt15__new_allocatorIdED2Ev	#
.LBE19:
	nop	
	leave	
	.cfi_def_cfa 7, 8
	ret	
	.cfi_endproc
.LFE2986:
	.size	_ZNSaIdED2Ev, .-_ZNSaIdED2Ev
	.weak	_ZNSaIdED1Ev
	.set	_ZNSaIdED1Ev,_ZNSaIdED2Ev
	.section	.text._ZNSt12_Vector_baseIdSaIdEED2Ev,"axG",@progbits,_ZNSt12_Vector_baseIdSaIdEED5Ev,comdat
	.align 2
	.weak	_ZNSt12_Vector_baseIdSaIdEED2Ev
	.type	_ZNSt12_Vector_baseIdSaIdEED2Ev, @function
_ZNSt12_Vector_baseIdSaIdEED2Ev:
.LFB2989:
	.loc 7 364 7
	.cfi_startproc
	.cfi_personality 0x9b,DW.ref.__gxx_personality_v0
	.cfi_lsda 0x1b,.LLSDA2989
	pushq	%rbp	#
	.cfi_def_cfa_offset 16
	.cfi_offset 6, -16
	movq	%rsp, %rbp	#,
	.cfi_def_cfa_register 6
	subq	$16, %rsp	#,
	movq	%rdi, -8(%rbp)	# this, this
.LBB20:
# /usr/include/c++/12/bits/stl_vector.h:367: 		      _M_impl._M_end_of_storage - _M_impl._M_start);
	.loc 7 367 17
	movq	-8(%rbp), %rax	# this, tmp89
	movq	16(%rax), %rdx	# this_9(D)->_M_impl.D.58013._M_end_of_storage, _1
# /usr/include/c++/12/bits/stl_vector.h:367: 		      _M_impl._M_end_of_storage - _M_impl._M_start);
	.loc 7 367 45
	movq	-8(%rbp), %rax	# this, tmp90
	movq	(%rax), %rax	# this_9(D)->_M_impl.D.58013._M_start, _2
# /usr/include/c++/12/bits/stl_vector.h:367: 		      _M_impl._M_end_of_storage - _M_impl._M_start);
	.loc 7 367 35
	subq	%rax, %rdx	# _2, _3
	movq	%rdx, %rax	# _3, _3
	sarq	$3, %rax	#, _3
# /usr/include/c++/12/bits/stl_vector.h:366: 	_M_deallocate(_M_impl._M_start,
	.loc 7 366 15
	movq	%rax, %rdx	# _4, _5
	movq	-8(%rbp), %rax	# this, tmp92
	movq	(%rax), %rcx	# this_9(D)->_M_impl.D.58013._M_start, _6
	movq	-8(%rbp), %rax	# this, tmp93
	movq	%rcx, %rsi	# _6,
	movq	%rax, %rdi	# tmp93,
	call	_ZNSt12_Vector_baseIdSaIdEE13_M_deallocateEPdm	#
# /usr/include/c++/12/bits/stl_vector.h:368:       }
	.loc 7 368 7
	movq	-8(%rbp), %rax	# this, _7
	movq	%rax, %rdi	# _7,
	call	_ZNSt12_Vector_baseIdSaIdEE12_Vector_implD1Ev	#
.LBE20:
	nop	
	leave	
	.cfi_def_cfa 7, 8
	ret	
	.cfi_endproc
.LFE2989:
	.section	.gcc_except_table
.LLSDA2989:
	.byte	0xff
	.byte	0xff
	.byte	0x1
	.uleb128 .LLSDACSE2989-.LLSDACSB2989
.LLSDACSB2989:
.LLSDACSE2989:
	.section	.text._ZNSt12_Vector_baseIdSaIdEED2Ev,"axG",@progbits,_ZNSt12_Vector_baseIdSaIdEED5Ev,comdat
	.size	_ZNSt12_Vector_baseIdSaIdEED2Ev, .-_ZNSt12_Vector_baseIdSaIdEED2Ev
	.weak	_ZNSt12_Vector_baseIdSaIdEED1Ev
	.set	_ZNSt12_Vector_baseIdSaIdEED1Ev,_ZNSt12_Vector_baseIdSaIdEED2Ev
	.section	.text._ZNSaIlEC2Ev,"axG",@progbits,_ZNSaIlEC5Ev,comdat
	.align 2
	.weak	_ZNSaIlEC2Ev
	.type	_ZNSaIlEC2Ev, @function
_ZNSaIlEC2Ev:
.LFB2992:
	.loc 9 156 7
	.cfi_startproc
	pushq	%rbp	#
	.cfi_def_cfa_offset 16
	.cfi_offset 6, -16
	movq	%rsp, %rbp	#,
	.cfi_def_cfa_register 6
	subq	$16, %rsp	#,
	movq	%rdi, -8(%rbp)	# this, this
.LBB21:
# /usr/include/c++/12/bits/allocator.h:156:       allocator() _GLIBCXX_NOTHROW { }
	.loc 9 156 36
	movq	-8(%rbp), %rax	# this, tmp82
	movq	%rax, %rdi	# tmp82,
	call	_ZNSt15__new_allocatorIlEC2Ev	#
.LBE21:
# /usr/include/c++/12/bits/allocator.h:156:       allocator() _GLIBCXX_NOTHROW { }
	.loc 9 156 38
	nop	
	leave	
	.cfi_def_cfa 7, 8
	ret	
	.cfi_endproc
.LFE2992:
	.size	_ZNSaIlEC2Ev, .-_ZNSaIlEC2Ev
	.weak	_ZNSaIlEC1Ev
	.set	_ZNSaIlEC1Ev,_ZNSaIlEC2Ev
	.section	.text._ZNSaIlED2Ev,"axG",@progbits,_ZNSaIlED5Ev,comdat
	.align 2
	.weak	_ZNSaIlED2Ev
	.type	_ZNSaIlED2Ev, @function
_ZNSaIlED2Ev:
.LFB2995:
	.loc 9 174 7
	.cfi_startproc
	pushq	%rbp	#
	.cfi_def_cfa_offset 16
	.cfi_offset 6, -16
	movq	%rsp, %rbp	#,
	.cfi_def_cfa_register 6
	subq	$16, %rsp	#,
	movq	%rdi, -8(%rbp)	# this, this
.LBB22:
# /usr/include/c++/12/bits/allocator.h:174:       ~allocator() _GLIBCXX_NOTHROW { }
	.loc 9 174 39
	movq	-8(%rbp), %rax	# this, tmp82
	movq	%rax, %rdi	# tmp82,
	call	_ZNSt15__new_allocatorIlED2Ev	#
.LBE22:
	nop	
	leave	
	.cfi_def_cfa 7, 8
	ret	
	.cfi_endproc
.LFE2995:
	.size	_ZNSaIlED2Ev, .-_ZNSaIlED2Ev
	.weak	_ZNSaIlED1Ev
	.set	_ZNSaIlED1Ev,_ZNSaIlED2Ev
	.section	.text._ZNSt6vectorIlSaIlEEC2ESt16initializer_listIlERKS0_,"axG",@progbits,_ZNSt6vectorIlSaIlEEC5ESt16initializer_listIlERKS0_,comdat
	.align 2
	.weak	_ZNSt6vectorIlSaIlEEC2ESt16initializer_listIlERKS0_
	.type	_ZNSt6vectorIlSaIlEEC2ESt16initializer_listIlERKS0_, @function
_ZNSt6vectorIlSaIlEEC2ESt16initializer_listIlERKS0_:
.LFB2998:
	.loc 7 673 7
	.cfi_startproc
	.cfi_personality 0x9b,DW.ref.__gxx_personality_v0
	.cfi_lsda 0x1b,.LLSDA2998
	pushq	%rbp	#
	.cfi_def_cfa_offset 16
	.cfi_offset 6, -16
	movq	%rsp, %rbp	#,
	.cfi_def_cfa_register 6
	pushq	%rbx	#
	subq	$56, %rsp	#,
	.cfi_offset 3, -24
	movq	%rdi, -40(%rbp)	# this, this
	movq	%rsi, %rax	# __l, tmp90
	movq	%rdx, %rsi	# __l, tmp91
	movq	%rsi, %rdx	# tmp91,
	movq	%rax, -64(%rbp)	# tmp89, __l
	movq	%rdx, -56(%rbp)	#, __l
	movq	%rcx, -48(%rbp)	# __a, __a
.LBB23:
# /usr/include/c++/12/bits/stl_vector.h:675:       : _Base(__a)
	.loc 7 675 18
	movq	-40(%rbp), %rax	# this, _1
	movq	-48(%rbp), %rdx	# __a, tmp92
	movq	%rdx, %rsi	# tmp92,
	movq	%rax, %rdi	# _1,
	call	_ZNSt12_Vector_baseIlSaIlEEC2ERKS0_	#
# /usr/include/c++/12/bits/stl_vector.h:677: 	_M_range_initialize(__l.begin(), __l.end(),
	.loc 7 677 21
	leaq	-64(%rbp), %rax	#, tmp93
	movq	%rax, %rdi	# tmp93,
	call	_ZNKSt16initializer_listIlE3endEv	#
	movq	%rax, %rbx	#, _3
	leaq	-64(%rbp), %rax	#, tmp94
	movq	%rax, %rdi	# tmp94,
	call	_ZNKSt16initializer_listIlE5beginEv	#
	movq	%rax, %rcx	#, _4
	movq	-40(%rbp), %rax	# this, tmp95
	movq	%rbx, %rdx	# _3,
	movq	%rcx, %rsi	# _4,
	movq	%rax, %rdi	# tmp95,
.LEHB19:
	call	_ZNSt6vectorIlSaIlEE19_M_range_initializeIPKlEEvT_S5_St20forward_iterator_tag	#
.LEHE19:
.LBE23:
# /usr/include/c++/12/bits/stl_vector.h:679:       }
	.loc 7 679 7
	jmp	.L77	#
.L76:
.LBB24:
	movq	%rax, %rbx	#, tmp96
	movq	-40(%rbp), %rax	# this, _5
	movq	%rax, %rdi	# _5,
	call	_ZNSt12_Vector_baseIlSaIlEED2Ev	#
	movq	%rbx, %rax	# tmp96, D.68637
	movq	%rax, %rdi	# D.68637,
.LEHB20:
	call	_Unwind_Resume@PLT	#
.LEHE20:
.L77:
.LBE24:
	movq	-8(%rbp), %rbx	#,
	leave	
	.cfi_def_cfa 7, 8
	ret	
	.cfi_endproc
.LFE2998:
	.section	.gcc_except_table
.LLSDA2998:
	.byte	0xff
	.byte	0xff
	.byte	0x1
	.uleb128 .LLSDACSE2998-.LLSDACSB2998
.LLSDACSB2998:
	.uleb128 .LEHB19-.LFB2998
	.uleb128 .LEHE19-.LEHB19
	.uleb128 .L76-.LFB2998
	.uleb128 0
	.uleb128 .LEHB20-.LFB2998
	.uleb128 .LEHE20-.LEHB20
	.uleb128 0
	.uleb128 0
.LLSDACSE2998:
	.section	.text._ZNSt6vectorIlSaIlEEC2ESt16initializer_listIlERKS0_,"axG",@progbits,_ZNSt6vectorIlSaIlEEC5ESt16initializer_listIlERKS0_,comdat
	.size	_ZNSt6vectorIlSaIlEEC2ESt16initializer_listIlERKS0_, .-_ZNSt6vectorIlSaIlEEC2ESt16initializer_listIlERKS0_
	.weak	_ZNSt6vectorIlSaIlEEC1ESt16initializer_listIlERKS0_
	.set	_ZNSt6vectorIlSaIlEEC1ESt16initializer_listIlERKS0_,_ZNSt6vectorIlSaIlEEC2ESt16initializer_listIlERKS0_
	.section	.rodata
.LC3:
	.string	"dim <= 0"
	.section	.text._ZZN9container6tensorIdJLl2ELl3ELl5EEE11_initializeEvENKUliE_clEi,"axG",@progbits,_ZZN9container6tensorIdJLl2ELl3ELl5EEE11_initializeEvENKUliE_clEi,comdat
	.align 2
	.weak	_ZZN9container6tensorIdJLl2ELl3ELl5EEE11_initializeEvENKUliE_clEi
	.type	_ZZN9container6tensorIdJLl2ELl3ELl5EEE11_initializeEvENKUliE_clEi, @function
_ZZN9container6tensorIdJLl2ELl3ELl5EEE11_initializeEvENKUliE_clEi:
.LFB3001:
	.loc 5 135 67
	.cfi_startproc
	.cfi_personality 0x9b,DW.ref.__gxx_personality_v0
	.cfi_lsda 0x1b,.LLSDA3001
	pushq	%rbp	#
	.cfi_def_cfa_offset 16
	.cfi_offset 6, -16
	movq	%rsp, %rbp	#,
	.cfi_def_cfa_register 6
	pushq	%r12	#
	pushq	%rbx	#
	subq	$16, %rsp	#,
	.cfi_offset 12, -24
	.cfi_offset 3, -32
	movq	%rdi, -24(%rbp)	# __closure, __closure
	movl	%esi, -28(%rbp)	# size, size
# src/Tensor/Tensor.hpp:136:                           { if (size <= 0)
	.loc 5 136 29
	cmpl	$0, -28(%rbp)	#, size
	jg	.L79	#,
# src/Tensor/Tensor.hpp:137:                                     throw std::runtime_error("dim <= 0");
	.loc 5 137 37
	movl	$16, %edi	#,
	call	__cxa_allocate_exception@PLT	#
	movq	%rax, %rbx	# tmp89, _11
	leaq	.LC3(%rip), %rax	#, tmp90
	movq	%rax, %rsi	# tmp90,
	movq	%rbx, %rdi	# _11,
.LEHB21:
	call	_ZNSt13runtime_errorC1EPKc@PLT	#
.LEHE21:
# src/Tensor/Tensor.hpp:137:                                     throw std::runtime_error("dim <= 0");
	.loc 5 137 37 is_stmt 0 discriminator 2
	movq	_ZNSt13runtime_errorD1Ev@GOTPCREL(%rip), %rax	#, tmp92
	movq	%rax, %rdx	# tmp91,
	leaq	_ZTISt13runtime_error(%rip), %rax	#, tmp93
	movq	%rax, %rsi	# tmp93,
	movq	%rbx, %rdi	# _11,
.LEHB22:
	call	__cxa_throw@PLT	#
.L79:
# src/Tensor/Tensor.hpp:135:             std::for_each(this->_dims.begin(), this->_dims.end(), [&](int size)
	.loc 5 135 67 is_stmt 1
	movq	-24(%rbp), %rax	# __closure, tmp94
	movq	(%rax), %rax	# __closure_8(D)->__size_1d, _1
# src/Tensor/Tensor.hpp:138:                                 size_1d *= size; });          // exception: dim <= 0
	.loc 5 138 41
	movq	(%rax), %rcx	# *_1, _2
# src/Tensor/Tensor.hpp:138:                                 size_1d *= size; });          // exception: dim <= 0
	.loc 5 138 44
	movl	-28(%rbp), %eax	# size, tmp95
	movslq	%eax, %rdx	# tmp95, _3
# src/Tensor/Tensor.hpp:135:             std::for_each(this->_dims.begin(), this->_dims.end(), [&](int size)
	.loc 5 135 67
	movq	-24(%rbp), %rax	# __closure, tmp96
	movq	(%rax), %rax	# __closure_8(D)->__size_1d, _4
# src/Tensor/Tensor.hpp:138:                                 size_1d *= size; });          // exception: dim <= 0
	.loc 5 138 41
	imulq	%rcx, %rdx	# _2, _5
	movq	%rdx, (%rax)	# _5, *_4
# src/Tensor/Tensor.hpp:135:             std::for_each(this->_dims.begin(), this->_dims.end(), [&](int size)
	.loc 5 135 67
	jmp	.L82	#
.L81:
# src/Tensor/Tensor.hpp:137:                                     throw std::runtime_error("dim <= 0");
	.loc 5 137 37
	movq	%rax, %r12	#, tmp97
	movq	%rbx, %rdi	# _11,
	call	__cxa_free_exception@PLT	#
	movq	%r12, %rax	# tmp97, D.68638
	movq	%rax, %rdi	# D.68638,
	call	_Unwind_Resume@PLT	#
.LEHE22:
.L82:
# src/Tensor/Tensor.hpp:135:             std::for_each(this->_dims.begin(), this->_dims.end(), [&](int size)
	.loc 5 135 67
	addq	$16, %rsp	#,
	popq	%rbx	#
	popq	%r12	#
	popq	%rbp	#
	.cfi_def_cfa 7, 8
	ret	
	.cfi_endproc
.LFE3001:
	.section	.gcc_except_table
.LLSDA3001:
	.byte	0xff
	.byte	0xff
	.byte	0x1
	.uleb128 .LLSDACSE3001-.LLSDACSB3001
.LLSDACSB3001:
	.uleb128 .LEHB21-.LFB3001
	.uleb128 .LEHE21-.LEHB21
	.uleb128 .L81-.LFB3001
	.uleb128 0
	.uleb128 .LEHB22-.LFB3001
	.uleb128 .LEHE22-.LEHB22
	.uleb128 0
	.uleb128 0
.LLSDACSE3001:
	.section	.text._ZZN9container6tensorIdJLl2ELl3ELl5EEE11_initializeEvENKUliE_clEi,"axG",@progbits,_ZZN9container6tensorIdJLl2ELl3ELl5EEE11_initializeEvENKUliE_clEi,comdat
	.size	_ZZN9container6tensorIdJLl2ELl3ELl5EEE11_initializeEvENKUliE_clEi, .-_ZZN9container6tensorIdJLl2ELl3ELl5EEE11_initializeEvENKUliE_clEi
	.section	.text._ZN9container6tensorIdJLl2ELl3ELl5EEE11_initializeEv,"axG",@progbits,_ZN9container6tensorIdJLl2ELl3ELl5EEE11_initializeEv,comdat
	.align 2
	.weak	_ZN9container6tensorIdJLl2ELl3ELl5EEE11_initializeEv
	.type	_ZN9container6tensorIdJLl2ELl3ELl5EEE11_initializeEv, @function
_ZN9container6tensorIdJLl2ELl3ELl5EEE11_initializeEv:
.LFB3000:
	.loc 5 132 14
	.cfi_startproc
	pushq	%rbp	#
	.cfi_def_cfa_offset 16
	.cfi_offset 6, -16
	movq	%rsp, %rbp	#,
	.cfi_def_cfa_register 6
	pushq	%r12	#
	pushq	%rbx	#
	subq	$32, %rsp	#,
	.cfi_offset 12, -24
	.cfi_offset 3, -32
	movq	%rdi, -40(%rbp)	# this, this
# src/Tensor/Tensor.hpp:134:             size_type size_1d = 1;
	.loc 5 134 23
	movq	$1, -24(%rbp)	#, size_1d
# src/Tensor/Tensor.hpp:135:             std::for_each(this->_dims.begin(), this->_dims.end(), [&](int size)
	.loc 5 135 26
	leaq	-24(%rbp), %rax	#, tmp91
	movq	%rax, %r12	# tmp91, D.67813
	movq	-40(%rbp), %rax	# this, tmp92
	addq	$24, %rax	#, _1
	movq	%rax, %rdi	# _1,
	call	_ZNSt6vectorIlSaIlEE3endEv	#
	movq	%rax, %rbx	#, D.67814
	movq	-40(%rbp), %rax	# this, tmp93
	addq	$24, %rax	#, _2
	movq	%rax, %rdi	# _2,
	call	_ZNSt6vectorIlSaIlEE5beginEv	#
	movq	%r12, %rdx	# D.67813,
	movq	%rbx, %rsi	# D.67814,
	movq	%rax, %rdi	# D.67815,
	call	_ZSt8for_eachIN9__gnu_cxx17__normal_iteratorIPlSt6vectorIlSaIlEEEEZN9container6tensorIdJLl2ELl3ELl5EEE11_initializeEvEUliE_ET0_T_SC_SB_	#
# src/Tensor/Tensor.hpp:139:             this->_data.resize(size_1d); // exception: bad_alloc
	.loc 5 139 31
	movq	-40(%rbp), %rax	# this, _3
	movq	-24(%rbp), %rdx	# size_1d, size_1d.8_4
	movq	%rdx, %rsi	# size_1d.9_5,
	movq	%rax, %rdi	# _3,
	call	_ZNSt6vectorIdSaIdEE6resizeEm	#
# src/Tensor/Tensor.hpp:140:         }
	.loc 5 140 9
	nop	
	addq	$32, %rsp	#,
	popq	%rbx	#
	popq	%r12	#
	popq	%rbp	#
	.cfi_def_cfa 7, 8
	ret	
	.cfi_endproc
.LFE3000:
	.size	_ZN9container6tensorIdJLl2ELl3ELl5EEE11_initializeEv, .-_ZN9container6tensorIdJLl2ELl3ELl5EEE11_initializeEv
	.section	.text._ZNSt12_Vector_baseIdSaIdEE19_M_get_Tp_allocatorEv,"axG",@progbits,_ZNSt12_Vector_baseIdSaIdEE19_M_get_Tp_allocatorEv,comdat
	.align 2
	.weak	_ZNSt12_Vector_baseIdSaIdEE19_M_get_Tp_allocatorEv
	.type	_ZNSt12_Vector_baseIdSaIdEE19_M_get_Tp_allocatorEv, @function
_ZNSt12_Vector_baseIdSaIdEE19_M_get_Tp_allocatorEv:
.LFB3002:
	.loc 7 298 7
	.cfi_startproc
	pushq	%rbp	#
	.cfi_def_cfa_offset 16
	.cfi_offset 6, -16
	movq	%rsp, %rbp	#,
	.cfi_def_cfa_register 6
	movq	%rdi, -8(%rbp)	# this, this
# /usr/include/c++/12/bits/stl_vector.h:299:       { return this->_M_impl; }
	.loc 7 299 22
	movq	-8(%rbp), %rax	# this, _2
# /usr/include/c++/12/bits/stl_vector.h:299:       { return this->_M_impl; }
	.loc 7 299 31
	popq	%rbp	#
	.cfi_def_cfa 7, 8
	ret	
	.cfi_endproc
.LFE3002:
	.size	_ZNSt12_Vector_baseIdSaIdEE19_M_get_Tp_allocatorEv, .-_ZNSt12_Vector_baseIdSaIdEE19_M_get_Tp_allocatorEv
	.section	.text._ZSt8_DestroyIPddEvT_S1_RSaIT0_E,"axG",@progbits,_ZSt8_DestroyIPddEvT_S1_RSaIT0_E,comdat
	.weak	_ZSt8_DestroyIPddEvT_S1_RSaIT0_E
	.type	_ZSt8_DestroyIPddEvT_S1_RSaIT0_E, @function
_ZSt8_DestroyIPddEvT_S1_RSaIT0_E:
.LFB3003:
	.file 10 "/usr/include/c++/12/bits/alloc_traits.h"
	.loc 10 847 5
	.cfi_startproc
	pushq	%rbp	#
	.cfi_def_cfa_offset 16
	.cfi_offset 6, -16
	movq	%rsp, %rbp	#,
	.cfi_def_cfa_register 6
	subq	$32, %rsp	#,
	movq	%rdi, -8(%rbp)	# __first, __first
	movq	%rsi, -16(%rbp)	# __last, __last
	movq	%rdx, -24(%rbp)	# D.63873, D.63873
# /usr/include/c++/12/bits/alloc_traits.h:850:       _Destroy(__first, __last);
	.loc 10 850 15
	movq	-16(%rbp), %rdx	# __last, tmp82
	movq	-8(%rbp), %rax	# __first, tmp83
	movq	%rdx, %rsi	# tmp82,
	movq	%rax, %rdi	# tmp83,
	call	_ZSt8_DestroyIPdEvT_S1_	#
# /usr/include/c++/12/bits/alloc_traits.h:851:     }
	.loc 10 851 5
	nop	
	leave	
	.cfi_def_cfa 7, 8
	ret	
	.cfi_endproc
.LFE3003:
	.size	_ZSt8_DestroyIPddEvT_S1_RSaIT0_E, .-_ZSt8_DestroyIPddEvT_S1_RSaIT0_E
	.section	.text._ZNSt12_Vector_baseIlSaIlEED2Ev,"axG",@progbits,_ZNSt12_Vector_baseIlSaIlEED5Ev,comdat
	.align 2
	.weak	_ZNSt12_Vector_baseIlSaIlEED2Ev
	.type	_ZNSt12_Vector_baseIlSaIlEED2Ev, @function
_ZNSt12_Vector_baseIlSaIlEED2Ev:
.LFB3005:
	.loc 7 364 7
	.cfi_startproc
	.cfi_personality 0x9b,DW.ref.__gxx_personality_v0
	.cfi_lsda 0x1b,.LLSDA3005
	pushq	%rbp	#
	.cfi_def_cfa_offset 16
	.cfi_offset 6, -16
	movq	%rsp, %rbp	#,
	.cfi_def_cfa_register 6
	subq	$16, %rsp	#,
	movq	%rdi, -8(%rbp)	# this, this
.LBB25:
# /usr/include/c++/12/bits/stl_vector.h:367: 		      _M_impl._M_end_of_storage - _M_impl._M_start);
	.loc 7 367 17
	movq	-8(%rbp), %rax	# this, tmp89
	movq	16(%rax), %rdx	# this_9(D)->_M_impl.D.54123._M_end_of_storage, _1
# /usr/include/c++/12/bits/stl_vector.h:367: 		      _M_impl._M_end_of_storage - _M_impl._M_start);
	.loc 7 367 45
	movq	-8(%rbp), %rax	# this, tmp90
	movq	(%rax), %rax	# this_9(D)->_M_impl.D.54123._M_start, _2
# /usr/include/c++/12/bits/stl_vector.h:367: 		      _M_impl._M_end_of_storage - _M_impl._M_start);
	.loc 7 367 35
	subq	%rax, %rdx	# _2, _3
	movq	%rdx, %rax	# _3, _3
	sarq	$3, %rax	#, _3
# /usr/include/c++/12/bits/stl_vector.h:366: 	_M_deallocate(_M_impl._M_start,
	.loc 7 366 15
	movq	%rax, %rdx	# _4, _5
	movq	-8(%rbp), %rax	# this, tmp92
	movq	(%rax), %rcx	# this_9(D)->_M_impl.D.54123._M_start, _6
	movq	-8(%rbp), %rax	# this, tmp93
	movq	%rcx, %rsi	# _6,
	movq	%rax, %rdi	# tmp93,
	call	_ZNSt12_Vector_baseIlSaIlEE13_M_deallocateEPlm	#
# /usr/include/c++/12/bits/stl_vector.h:368:       }
	.loc 7 368 7
	movq	-8(%rbp), %rax	# this, _7
	movq	%rax, %rdi	# _7,
	call	_ZNSt12_Vector_baseIlSaIlEE12_Vector_implD1Ev	#
.LBE25:
	nop	
	leave	
	.cfi_def_cfa 7, 8
	ret	
	.cfi_endproc
.LFE3005:
	.section	.gcc_except_table
.LLSDA3005:
	.byte	0xff
	.byte	0xff
	.byte	0x1
	.uleb128 .LLSDACSE3005-.LLSDACSB3005
.LLSDACSB3005:
.LLSDACSE3005:
	.section	.text._ZNSt12_Vector_baseIlSaIlEED2Ev,"axG",@progbits,_ZNSt12_Vector_baseIlSaIlEED5Ev,comdat
	.size	_ZNSt12_Vector_baseIlSaIlEED2Ev, .-_ZNSt12_Vector_baseIlSaIlEED2Ev
	.weak	_ZNSt12_Vector_baseIlSaIlEED1Ev
	.set	_ZNSt12_Vector_baseIlSaIlEED1Ev,_ZNSt12_Vector_baseIlSaIlEED2Ev
	.section	.text._ZNSt12_Vector_baseIlSaIlEE19_M_get_Tp_allocatorEv,"axG",@progbits,_ZNSt12_Vector_baseIlSaIlEE19_M_get_Tp_allocatorEv,comdat
	.align 2
	.weak	_ZNSt12_Vector_baseIlSaIlEE19_M_get_Tp_allocatorEv
	.type	_ZNSt12_Vector_baseIlSaIlEE19_M_get_Tp_allocatorEv, @function
_ZNSt12_Vector_baseIlSaIlEE19_M_get_Tp_allocatorEv:
.LFB3007:
	.loc 7 298 7
	.cfi_startproc
	pushq	%rbp	#
	.cfi_def_cfa_offset 16
	.cfi_offset 6, -16
	movq	%rsp, %rbp	#,
	.cfi_def_cfa_register 6
	movq	%rdi, -8(%rbp)	# this, this
# /usr/include/c++/12/bits/stl_vector.h:299:       { return this->_M_impl; }
	.loc 7 299 22
	movq	-8(%rbp), %rax	# this, _2
# /usr/include/c++/12/bits/stl_vector.h:299:       { return this->_M_impl; }
	.loc 7 299 31
	popq	%rbp	#
	.cfi_def_cfa 7, 8
	ret	
	.cfi_endproc
.LFE3007:
	.size	_ZNSt12_Vector_baseIlSaIlEE19_M_get_Tp_allocatorEv, .-_ZNSt12_Vector_baseIlSaIlEE19_M_get_Tp_allocatorEv
	.section	.text._ZSt8_DestroyIPllEvT_S1_RSaIT0_E,"axG",@progbits,_ZSt8_DestroyIPllEvT_S1_RSaIT0_E,comdat
	.weak	_ZSt8_DestroyIPllEvT_S1_RSaIT0_E
	.type	_ZSt8_DestroyIPllEvT_S1_RSaIT0_E, @function
_ZSt8_DestroyIPllEvT_S1_RSaIT0_E:
.LFB3008:
	.loc 10 847 5
	.cfi_startproc
	pushq	%rbp	#
	.cfi_def_cfa_offset 16
	.cfi_offset 6, -16
	movq	%rsp, %rbp	#,
	.cfi_def_cfa_register 6
	subq	$32, %rsp	#,
	movq	%rdi, -8(%rbp)	# __first, __first
	movq	%rsi, -16(%rbp)	# __last, __last
	movq	%rdx, -24(%rbp)	# D.63888, D.63888
# /usr/include/c++/12/bits/alloc_traits.h:850:       _Destroy(__first, __last);
	.loc 10 850 15
	movq	-16(%rbp), %rdx	# __last, tmp82
	movq	-8(%rbp), %rax	# __first, tmp83
	movq	%rdx, %rsi	# tmp82,
	movq	%rax, %rdi	# tmp83,
	call	_ZSt8_DestroyIPlEvT_S1_	#
# /usr/include/c++/12/bits/alloc_traits.h:851:     }
	.loc 10 851 5
	nop	
	leave	
	.cfi_def_cfa 7, 8
	ret	
	.cfi_endproc
.LFE3008:
	.size	_ZSt8_DestroyIPllEvT_S1_RSaIT0_E, .-_ZSt8_DestroyIPllEvT_S1_RSaIT0_E
	.section	.text._ZNKSt6vectorIlSaIlEE4sizeEv,"axG",@progbits,_ZNKSt6vectorIlSaIlEE4sizeEv,comdat
	.align 2
	.weak	_ZNKSt6vectorIlSaIlEE4sizeEv
	.type	_ZNKSt6vectorIlSaIlEE4sizeEv, @function
_ZNKSt6vectorIlSaIlEE4sizeEv:
.LFB3009:
	.loc 7 987 7
	.cfi_startproc
	pushq	%rbp	#
	.cfi_def_cfa_offset 16
	.cfi_offset 6, -16
	movq	%rsp, %rbp	#,
	.cfi_def_cfa_register 6
	movq	%rdi, -8(%rbp)	# this, this
# /usr/include/c++/12/bits/stl_vector.h:988:       { return size_type(this->_M_impl._M_finish - this->_M_impl._M_start); }
	.loc 7 988 40
	movq	-8(%rbp), %rax	# this, tmp88
	movq	8(%rax), %rdx	# this_6(D)->D.54811._M_impl.D.54123._M_finish, _1
# /usr/include/c++/12/bits/stl_vector.h:988:       { return size_type(this->_M_impl._M_finish - this->_M_impl._M_start); }
	.loc 7 988 66
	movq	-8(%rbp), %rax	# this, tmp89
	movq	(%rax), %rax	# this_6(D)->D.54811._M_impl.D.54123._M_start, _2
# /usr/include/c++/12/bits/stl_vector.h:988:       { return size_type(this->_M_impl._M_finish - this->_M_impl._M_start); }
	.loc 7 988 50
	subq	%rax, %rdx	# _2, _3
	movq	%rdx, %rax	# _3, _3
	sarq	$3, %rax	#, _3
# /usr/include/c++/12/bits/stl_vector.h:988:       { return size_type(this->_M_impl._M_finish - this->_M_impl._M_start); }
	.loc 7 988 77
	popq	%rbp	#
	.cfi_def_cfa 7, 8
	ret	
	.cfi_endproc
.LFE3009:
	.size	_ZNKSt6vectorIlSaIlEE4sizeEv, .-_ZNKSt6vectorIlSaIlEE4sizeEv
	.section	.text._ZNK9container6tensorIdJLl2ELl3ELl5EEE5orderEv,"axG",@progbits,_ZNK9container6tensorIdJLl2ELl3ELl5EEE5orderEv,comdat
	.align 2
	.weak	_ZNK9container6tensorIdJLl2ELl3ELl5EEE5orderEv
	.type	_ZNK9container6tensorIdJLl2ELl3ELl5EEE5orderEv, @function
_ZNK9container6tensorIdJLl2ELl3ELl5EEE5orderEv:
.LFB3010:
	.loc 5 74 19
	.cfi_startproc
	pushq	%rbp	#
	.cfi_def_cfa_offset 16
	.cfi_offset 6, -16
	movq	%rsp, %rbp	#,
	.cfi_def_cfa_register 6
	subq	$16, %rsp	#,
	movq	%rdi, -8(%rbp)	# this, this
# src/Tensor/Tensor.hpp:76:             return this->_dims.size();
	.loc 5 76 36
	movq	-8(%rbp), %rax	# this, tmp86
	addq	$24, %rax	#, _1
	movq	%rax, %rdi	# _1,
	call	_ZNKSt6vectorIlSaIlEE4sizeEv	#
# src/Tensor/Tensor.hpp:77:         }
	.loc 5 77 9
	leave	
	.cfi_def_cfa 7, 8
	ret	
	.cfi_endproc
.LFE3010:
	.size	_ZNK9container6tensorIdJLl2ELl3ELl5EEE5orderEv, .-_ZNK9container6tensorIdJLl2ELl3ELl5EEE5orderEv
	.section	.text._ZNK9container6tensorIdJLl2ELl3ELl5EEE4sizeEv,"axG",@progbits,_ZNK9container6tensorIdJLl2ELl3ELl5EEE4sizeEv,comdat
	.align 2
	.weak	_ZNK9container6tensorIdJLl2ELl3ELl5EEE4sizeEv
	.type	_ZNK9container6tensorIdJLl2ELl3ELl5EEE4sizeEv, @function
_ZNK9container6tensorIdJLl2ELl3ELl5EEE4sizeEv:
.LFB3011:
	.loc 5 79 19
	.cfi_startproc
	pushq	%rbp	#
	.cfi_def_cfa_offset 16
	.cfi_offset 6, -16
	movq	%rsp, %rbp	#,
	.cfi_def_cfa_register 6
	subq	$16, %rsp	#,
	movq	%rdi, -8(%rbp)	# this, this
# src/Tensor/Tensor.hpp:81:             return this->_data.size();
	.loc 5 81 36
	movq	-8(%rbp), %rax	# this, _1
	movq	%rax, %rdi	# _1,
	call	_ZNKSt6vectorIdSaIdEE4sizeEv	#
# src/Tensor/Tensor.hpp:82:         }
	.loc 5 82 9
	leave	
	.cfi_def_cfa 7, 8
	ret	
	.cfi_endproc
.LFE3011:
	.size	_ZNK9container6tensorIdJLl2ELl3ELl5EEE4sizeEv, .-_ZNK9container6tensorIdJLl2ELl3ELl5EEE4sizeEv
	.section	.text._ZNSt6vectorIlSaIlEEixEm,"axG",@progbits,_ZNSt6vectorIlSaIlEEixEm,comdat
	.align 2
	.weak	_ZNSt6vectorIlSaIlEEixEm
	.type	_ZNSt6vectorIlSaIlEEixEm, @function
_ZNSt6vectorIlSaIlEEixEm:
.LFB3012:
	.loc 7 1121 7
	.cfi_startproc
	pushq	%rbp	#
	.cfi_def_cfa_offset 16
	.cfi_offset 6, -16
	movq	%rsp, %rbp	#,
	.cfi_def_cfa_register 6
	movq	%rdi, -8(%rbp)	# this, this
	movq	%rsi, -16(%rbp)	# __n, __n
# /usr/include/c++/12/bits/stl_vector.h:1124: 	return *(this->_M_impl._M_start + __n);
	.loc 7 1124 25
	movq	-8(%rbp), %rax	# this, tmp86
	movq	(%rax), %rax	# this_4(D)->D.54811._M_impl.D.54123._M_start, _1
# /usr/include/c++/12/bits/stl_vector.h:1124: 	return *(this->_M_impl._M_start + __n);
	.loc 7 1124 34
	movq	-16(%rbp), %rdx	# __n, tmp87
	salq	$3, %rdx	#, _2
# /usr/include/c++/12/bits/stl_vector.h:1124: 	return *(this->_M_impl._M_start + __n);
	.loc 7 1124 39
	addq	%rdx, %rax	# _2, _6
# /usr/include/c++/12/bits/stl_vector.h:1125:       }
	.loc 7 1125 7
	popq	%rbp	#
	.cfi_def_cfa 7, 8
	ret	
	.cfi_endproc
.LFE3012:
	.size	_ZNSt6vectorIlSaIlEEixEm, .-_ZNSt6vectorIlSaIlEEixEm
	.section	.text._ZNSt6vectorIdSaIdEEixEm,"axG",@progbits,_ZNSt6vectorIdSaIdEEixEm,comdat
	.align 2
	.weak	_ZNSt6vectorIdSaIdEEixEm
	.type	_ZNSt6vectorIdSaIdEEixEm, @function
_ZNSt6vectorIdSaIdEEixEm:
.LFB3013:
	.loc 7 1121 7
	.cfi_startproc
	pushq	%rbp	#
	.cfi_def_cfa_offset 16
	.cfi_offset 6, -16
	movq	%rsp, %rbp	#,
	.cfi_def_cfa_register 6
	movq	%rdi, -8(%rbp)	# this, this
	movq	%rsi, -16(%rbp)	# __n, __n
# /usr/include/c++/12/bits/stl_vector.h:1124: 	return *(this->_M_impl._M_start + __n);
	.loc 7 1124 25
	movq	-8(%rbp), %rax	# this, tmp86
	movq	(%rax), %rax	# this_4(D)->D.58674._M_impl.D.58013._M_start, _1
# /usr/include/c++/12/bits/stl_vector.h:1124: 	return *(this->_M_impl._M_start + __n);
	.loc 7 1124 34
	movq	-16(%rbp), %rdx	# __n, tmp87
	salq	$3, %rdx	#, _2
# /usr/include/c++/12/bits/stl_vector.h:1124: 	return *(this->_M_impl._M_start + __n);
	.loc 7 1124 39
	addq	%rdx, %rax	# _2, _6
# /usr/include/c++/12/bits/stl_vector.h:1125:       }
	.loc 7 1125 7
	popq	%rbp	#
	.cfi_def_cfa 7, 8
	ret	
	.cfi_endproc
.LFE3013:
	.size	_ZNSt6vectorIdSaIdEEixEm, .-_ZNSt6vectorIdSaIdEEixEm
	.section	.text._ZNSt12_Vector_baseIlSaIlEE12_Vector_implC2Ev,"axG",@progbits,_ZNSt12_Vector_baseIlSaIlEE12_Vector_implC5Ev,comdat
	.align 2
	.weak	_ZNSt12_Vector_baseIlSaIlEE12_Vector_implC2Ev
	.type	_ZNSt12_Vector_baseIlSaIlEE12_Vector_implC2Ev, @function
_ZNSt12_Vector_baseIlSaIlEE12_Vector_implC2Ev:
.LFB3015:
	.loc 7 137 2
	.cfi_startproc
	pushq	%rbp	#
	.cfi_def_cfa_offset 16
	.cfi_offset 6, -16
	movq	%rsp, %rbp	#,
	.cfi_def_cfa_register 6
	subq	$16, %rsp	#,
	movq	%rdi, -8(%rbp)	# this, this
.LBB26:
# /usr/include/c++/12/bits/stl_vector.h:139: 	: _Tp_alloc_type()
	.loc 7 139 19
	movq	-8(%rbp), %rax	# this, tmp83
	movq	%rax, %rdi	# tmp83,
	call	_ZNSaIlEC2Ev	#
	movq	-8(%rbp), %rax	# this, _1
	movq	%rax, %rdi	# _1,
	call	_ZNSt12_Vector_baseIlSaIlEE17_Vector_impl_dataC2Ev	#
.LBE26:
# /usr/include/c++/12/bits/stl_vector.h:140: 	{ }
	.loc 7 140 4
	nop	
	leave	
	.cfi_def_cfa 7, 8
	ret	
	.cfi_endproc
.LFE3015:
	.size	_ZNSt12_Vector_baseIlSaIlEE12_Vector_implC2Ev, .-_ZNSt12_Vector_baseIlSaIlEE12_Vector_implC2Ev
	.weak	_ZNSt12_Vector_baseIlSaIlEE12_Vector_implC1Ev
	.set	_ZNSt12_Vector_baseIlSaIlEE12_Vector_implC1Ev,_ZNSt12_Vector_baseIlSaIlEE12_Vector_implC2Ev
	.section	.text._ZNK9container6tensorIdJLl2ELl3ELl5EEE5beginEv,"axG",@progbits,_ZNK9container6tensorIdJLl2ELl3ELl5EEE5beginEv,comdat
	.align 2
	.weak	_ZNK9container6tensorIdJLl2ELl3ELl5EEE5beginEv
	.type	_ZNK9container6tensorIdJLl2ELl3ELl5EEE5beginEv, @function
_ZNK9container6tensorIdJLl2ELl3ELl5EEE5beginEv:
.LFB3021:
	.loc 5 94 14
	.cfi_startproc
	pushq	%rbp	#
	.cfi_def_cfa_offset 16
	.cfi_offset 6, -16
	movq	%rsp, %rbp	#,
	.cfi_def_cfa_register 6
	subq	$16, %rsp	#,
	movq	%rdi, -8(%rbp)	# this, this
# src/Tensor/Tensor.hpp:96:             return this->_data.begin();
	.loc 5 96 37
	movq	-8(%rbp), %rax	# this, _1
	movq	%rax, %rdi	# _1,
	call	_ZNKSt6vectorIdSaIdEE5beginEv	#
# src/Tensor/Tensor.hpp:97:         }
	.loc 5 97 9
	leave	
	.cfi_def_cfa 7, 8
	ret	
	.cfi_endproc
.LFE3021:
	.size	_ZNK9container6tensorIdJLl2ELl3ELl5EEE5beginEv, .-_ZNK9container6tensorIdJLl2ELl3ELl5EEE5beginEv
	.section	.text._ZNK9container6tensorIdJLl2ELl3ELl5EEE3endEv,"axG",@progbits,_ZNK9container6tensorIdJLl2ELl3ELl5EEE3endEv,comdat
	.align 2
	.weak	_ZNK9container6tensorIdJLl2ELl3ELl5EEE3endEv
	.type	_ZNK9container6tensorIdJLl2ELl3ELl5EEE3endEv, @function
_ZNK9container6tensorIdJLl2ELl3ELl5EEE3endEv:
.LFB3022:
	.loc 5 99 14
	.cfi_startproc
	pushq	%rbp	#
	.cfi_def_cfa_offset 16
	.cfi_offset 6, -16
	movq	%rsp, %rbp	#,
	.cfi_def_cfa_register 6
	subq	$16, %rsp	#,
	movq	%rdi, -8(%rbp)	# this, this
# src/Tensor/Tensor.hpp:101:             return this->_data.end();
	.loc 5 101 35
	movq	-8(%rbp), %rax	# this, _1
	movq	%rax, %rdi	# _1,
	call	_ZNKSt6vectorIdSaIdEE3endEv	#
# src/Tensor/Tensor.hpp:102:         }
	.loc 5 102 9
	leave	
	.cfi_def_cfa 7, 8
	ret	
	.cfi_endproc
.LFE3022:
	.size	_ZNK9container6tensorIdJLl2ELl3ELl5EEE3endEv, .-_ZNK9container6tensorIdJLl2ELl3ELl5EEE3endEv
	.section	.text._ZN9container6tensorIdJEE26_diff_type_copy_initializeIJLl2ELl3ELl5EEEEvRKNS0_IdJXspT_EEEE,"axG",@progbits,_ZN9container6tensorIdJEE26_diff_type_copy_initializeIJLl2ELl3ELl5EEEEvRKNS0_IdJXspT_EEEE,comdat
	.align 2
	.weak	_ZN9container6tensorIdJEE26_diff_type_copy_initializeIJLl2ELl3ELl5EEEEvRKNS0_IdJXspT_EEEE
	.type	_ZN9container6tensorIdJEE26_diff_type_copy_initializeIJLl2ELl3ELl5EEEEvRKNS0_IdJXspT_EEEE, @function
_ZN9container6tensorIdJEE26_diff_type_copy_initializeIJLl2ELl3ELl5EEEEvRKNS0_IdJXspT_EEEE:
.LFB3017:
	.loc 5 143 14
	.cfi_startproc
	.cfi_personality 0x9b,DW.ref.__gxx_personality_v0
	.cfi_lsda 0x1b,.LLSDA3017
	pushq	%rbp	#
	.cfi_def_cfa_offset 16
	.cfi_offset 6, -16
	movq	%rsp, %rbp	#,
	.cfi_def_cfa_register 6
	pushq	%r12	#
	pushq	%rbx	#
	subq	$48, %rsp	#,
	.cfi_offset 12, -24
	.cfi_offset 3, -32
	movq	%rdi, -56(%rbp)	# this, this
	movq	%rsi, -64(%rbp)	# rhs_tensor, rhs_tensor
# src/Tensor/Tensor.hpp:145:             auto rhs_dim_vector = rhs_tensor.shape();
	.loc 5 145 18
	leaq	-48(%rbp), %rax	#, tmp93
	movq	-64(%rbp), %rdx	# rhs_tensor, tmp94
	movq	%rdx, %rsi	# tmp94,
	movq	%rax, %rdi	# tmp93,
	call	_ZNK9container6tensorIdJLl2ELl3ELl5EEE5shapeEv	#
# src/Tensor/Tensor.hpp:151:             this->_dims = std::move(rhs_dim_vector);
	.loc 5 151 36
	leaq	-48(%rbp), %rax	#, tmp95
	movq	%rax, %rdi	# tmp95,
	call	_ZSt4moveIRSt6vectorIlSaIlEEEONSt16remove_referenceIT_E4typeEOS5_	#
	movq	%rax, %rdx	#, _1
# src/Tensor/Tensor.hpp:151:             this->_dims = std::move(rhs_dim_vector);
	.loc 5 151 25
	movq	-56(%rbp), %rax	# this, tmp96
	addq	$24, %rax	#, _2
	movq	%rdx, %rsi	# _1,
	movq	%rax, %rdi	# _2,
	call	_ZNSt6vectorIlSaIlEEaSEOS1_	#
# src/Tensor/Tensor.hpp:152:             this->_data.resize(rhs_tensor.size());
	.loc 5 152 31
	movq	-56(%rbp), %rbx	# this, _3
# src/Tensor/Tensor.hpp:152:             this->_data.resize(rhs_tensor.size());
	.loc 5 152 47
	movq	-64(%rbp), %rax	# rhs_tensor, tmp97
	movq	%rax, %rdi	# tmp97,
	call	_ZNK9container6tensorIdJLl2ELl3ELl5EEE4sizeEv	#
# src/Tensor/Tensor.hpp:152:             this->_data.resize(rhs_tensor.size());
	.loc 5 152 31
	movq	%rax, %rsi	# _5,
	movq	%rbx, %rdi	# _3,
.LEHB23:
	call	_ZNSt6vectorIdSaIdEE6resizeEm	#
# src/Tensor/Tensor.hpp:153:             std::copy(rhs_tensor.begin(), rhs_tensor.end(), this->_data.begin());
	.loc 5 153 22
	movq	-56(%rbp), %rax	# this, _6
	movq	%rax, %rdi	# _6,
	call	_ZNSt6vectorIdSaIdEE5beginEv	#
	movq	%rax, %r12	#, D.67994
	movq	-64(%rbp), %rax	# rhs_tensor, tmp98
	movq	%rax, %rdi	# tmp98,
	call	_ZNK9container6tensorIdJLl2ELl3ELl5EEE3endEv	#
	movq	%rax, %rbx	#, D.67995
	movq	-64(%rbp), %rax	# rhs_tensor, tmp99
	movq	%rax, %rdi	# tmp99,
	call	_ZNK9container6tensorIdJLl2ELl3ELl5EEE5beginEv	#
	movq	%r12, %rdx	# D.67994,
	movq	%rbx, %rsi	# D.67995,
	movq	%rax, %rdi	# D.67996,
	call	_ZSt4copyIN9__gnu_cxx17__normal_iteratorIPKdSt6vectorIdSaIdEEEENS1_IPdS6_EEET0_T_SB_SA_	#
.LEHE23:
# src/Tensor/Tensor.hpp:154:         }
	.loc 5 154 9
	leaq	-48(%rbp), %rax	#, tmp100
	movq	%rax, %rdi	# tmp100,
	call	_ZNSt6vectorIlSaIlEED1Ev	#
	jmp	.L109	#
.L108:
	movq	%rax, %rbx	#, tmp102
	leaq	-48(%rbp), %rax	#, tmp101
	movq	%rax, %rdi	# tmp101,
	call	_ZNSt6vectorIlSaIlEED1Ev	#
	movq	%rbx, %rax	# tmp102, D.68640
	movq	%rax, %rdi	# D.68640,
.LEHB24:
	call	_Unwind_Resume@PLT	#
.LEHE24:
.L109:
	addq	$48, %rsp	#,
	popq	%rbx	#
	popq	%r12	#
	popq	%rbp	#
	.cfi_def_cfa 7, 8
	ret	
	.cfi_endproc
.LFE3017:
	.section	.gcc_except_table
.LLSDA3017:
	.byte	0xff
	.byte	0xff
	.byte	0x1
	.uleb128 .LLSDACSE3017-.LLSDACSB3017
.LLSDACSB3017:
	.uleb128 .LEHB23-.LFB3017
	.uleb128 .LEHE23-.LEHB23
	.uleb128 .L108-.LFB3017
	.uleb128 0
	.uleb128 .LEHB24-.LFB3017
	.uleb128 .LEHE24-.LEHB24
	.uleb128 0
	.uleb128 0
.LLSDACSE3017:
	.section	.text._ZN9container6tensorIdJEE26_diff_type_copy_initializeIJLl2ELl3ELl5EEEEvRKNS0_IdJXspT_EEEE,"axG",@progbits,_ZN9container6tensorIdJEE26_diff_type_copy_initializeIJLl2ELl3ELl5EEEEvRKNS0_IdJXspT_EEEE,comdat
	.size	_ZN9container6tensorIdJEE26_diff_type_copy_initializeIJLl2ELl3ELl5EEEEvRKNS0_IdJXspT_EEEE, .-_ZN9container6tensorIdJEE26_diff_type_copy_initializeIJLl2ELl3ELl5EEEEvRKNS0_IdJXspT_EEEE
	.section	.text._ZNSt12_Vector_baseIlSaIlEEC2EOS1_,"axG",@progbits,_ZNSt12_Vector_baseIlSaIlEEC5EOS1_,comdat
	.align 2
	.weak	_ZNSt12_Vector_baseIlSaIlEEC2EOS1_
	.type	_ZNSt12_Vector_baseIlSaIlEEC2EOS1_, @function
_ZNSt12_Vector_baseIlSaIlEEC2EOS1_:
.LFB3026:
	.loc 7 335 7
	.cfi_startproc
	pushq	%rbp	#
	.cfi_def_cfa_offset 16
	.cfi_offset 6, -16
	movq	%rsp, %rbp	#,
	.cfi_def_cfa_register 6
	subq	$16, %rsp	#,
	movq	%rdi, -8(%rbp)	# this, this
	movq	%rsi, -16(%rbp)	# D.54205, D.54205
.LBB27:
# /usr/include/c++/12/bits/stl_vector.h:335:       _Vector_base(_Vector_base&&) = default;
	.loc 7 335 7
	movq	-8(%rbp), %rax	# this, _1
	movq	-16(%rbp), %rdx	# D.54205, _2
	movq	%rdx, %rsi	# _2,
	movq	%rax, %rdi	# _1,
	call	_ZNSt12_Vector_baseIlSaIlEE12_Vector_implC1EOS2_	#
.LBE27:
	nop	
	leave	
	.cfi_def_cfa 7, 8
	ret	
	.cfi_endproc
.LFE3026:
	.size	_ZNSt12_Vector_baseIlSaIlEEC2EOS1_, .-_ZNSt12_Vector_baseIlSaIlEEC2EOS1_
	.weak	_ZNSt12_Vector_baseIlSaIlEEC1EOS1_
	.set	_ZNSt12_Vector_baseIlSaIlEEC1EOS1_,_ZNSt12_Vector_baseIlSaIlEEC2EOS1_
	.section	.text._ZNSt6vectorIlSaIlEEC2EOS1_,"axG",@progbits,_ZNSt6vectorIlSaIlEEC5EOS1_,comdat
	.align 2
	.weak	_ZNSt6vectorIlSaIlEEC2EOS1_
	.type	_ZNSt6vectorIlSaIlEEC2EOS1_, @function
_ZNSt6vectorIlSaIlEEC2EOS1_:
.LFB3028:
	.loc 7 615 7
	.cfi_startproc
	pushq	%rbp	#
	.cfi_def_cfa_offset 16
	.cfi_offset 6, -16
	movq	%rsp, %rbp	#,
	.cfi_def_cfa_register 6
	subq	$16, %rsp	#,
	movq	%rdi, -8(%rbp)	# this, this
	movq	%rsi, -16(%rbp)	# D.54770, D.54770
.LBB28:
# /usr/include/c++/12/bits/stl_vector.h:615:       vector(vector&&) noexcept = default;
	.loc 7 615 7
	movq	-8(%rbp), %rax	# this, _1
	movq	-16(%rbp), %rdx	# D.54770, _2
	movq	%rdx, %rsi	# _2,
	movq	%rax, %rdi	# _1,
	call	_ZNSt12_Vector_baseIlSaIlEEC2EOS1_	#
.LBE28:
	nop	
	leave	
	.cfi_def_cfa 7, 8
	ret	
	.cfi_endproc
.LFE3028:
	.size	_ZNSt6vectorIlSaIlEEC2EOS1_, .-_ZNSt6vectorIlSaIlEEC2EOS1_
	.weak	_ZNSt6vectorIlSaIlEEC1EOS1_
	.set	_ZNSt6vectorIlSaIlEEC1EOS1_,_ZNSt6vectorIlSaIlEEC2EOS1_
	.section	.text._ZNK9container6tensorIdJEE5beginEv,"axG",@progbits,_ZNK9container6tensorIdJEE5beginEv,comdat
	.align 2
	.weak	_ZNK9container6tensorIdJEE5beginEv
	.type	_ZNK9container6tensorIdJEE5beginEv, @function
_ZNK9container6tensorIdJEE5beginEv:
.LFB3030:
	.loc 5 94 14
	.cfi_startproc
	pushq	%rbp	#
	.cfi_def_cfa_offset 16
	.cfi_offset 6, -16
	movq	%rsp, %rbp	#,
	.cfi_def_cfa_register 6
	subq	$16, %rsp	#,
	movq	%rdi, -8(%rbp)	# this, this
# src/Tensor/Tensor.hpp:96:             return this->_data.begin();
	.loc 5 96 37
	movq	-8(%rbp), %rax	# this, _1
	movq	%rax, %rdi	# _1,
	call	_ZNKSt6vectorIdSaIdEE5beginEv	#
# src/Tensor/Tensor.hpp:97:         }
	.loc 5 97 9
	leave	
	.cfi_def_cfa 7, 8
	ret	
	.cfi_endproc
.LFE3030:
	.size	_ZNK9container6tensorIdJEE5beginEv, .-_ZNK9container6tensorIdJEE5beginEv
	.section	.text._ZNK9container6tensorIdJEE3endEv,"axG",@progbits,_ZNK9container6tensorIdJEE3endEv,comdat
	.align 2
	.weak	_ZNK9container6tensorIdJEE3endEv
	.type	_ZNK9container6tensorIdJEE3endEv, @function
_ZNK9container6tensorIdJEE3endEv:
.LFB3031:
	.loc 5 99 14
	.cfi_startproc
	pushq	%rbp	#
	.cfi_def_cfa_offset 16
	.cfi_offset 6, -16
	movq	%rsp, %rbp	#,
	.cfi_def_cfa_register 6
	subq	$16, %rsp	#,
	movq	%rdi, -8(%rbp)	# this, this
# src/Tensor/Tensor.hpp:101:             return this->_data.end();
	.loc 5 101 35
	movq	-8(%rbp), %rax	# this, _1
	movq	%rax, %rdi	# _1,
	call	_ZNKSt6vectorIdSaIdEE3endEv	#
# src/Tensor/Tensor.hpp:102:         }
	.loc 5 102 9
	leave	
	.cfi_def_cfa 7, 8
	ret	
	.cfi_endproc
.LFE3031:
	.size	_ZNK9container6tensorIdJEE3endEv, .-_ZNK9container6tensorIdJEE3endEv
	.section	.rodata
.LC4:
	.string	"Dimensions mismatch."
	.section	.text._ZN9container6tensorIdJLl2ELl3ELl5EEE26_diff_type_move_initializeIJEEEvONS0_IdJXspT_EEEE,"axG",@progbits,_ZN9container6tensorIdJLl2ELl3ELl5EEE26_diff_type_move_initializeIJEEEvONS0_IdJXspT_EEEE,comdat
	.align 2
	.weak	_ZN9container6tensorIdJLl2ELl3ELl5EEE26_diff_type_move_initializeIJEEEvONS0_IdJXspT_EEEE
	.type	_ZN9container6tensorIdJLl2ELl3ELl5EEE26_diff_type_move_initializeIJEEEvONS0_IdJXspT_EEEE, @function
_ZN9container6tensorIdJLl2ELl3ELl5EEE26_diff_type_move_initializeIJEEEvONS0_IdJXspT_EEEE:
.LFB3023:
	.loc 5 157 14
	.cfi_startproc
	.cfi_personality 0x9b,DW.ref.__gxx_personality_v0
	.cfi_lsda 0x1b,.LLSDA3023
	pushq	%rbp	#
	.cfi_def_cfa_offset 16
	.cfi_offset 6, -16
	movq	%rsp, %rbp	#,
	.cfi_def_cfa_register 6
	pushq	%r13	#
	pushq	%r12	#
	pushq	%rbx	#
	subq	$88, %rsp	#,
	.cfi_offset 13, -24
	.cfi_offset 12, -32
	.cfi_offset 3, -40
	movq	%rdi, -104(%rbp)	# this, this
	movq	%rsi, -112(%rbp)	# rhs_tensor, rhs_tensor
# src/Tensor/Tensor.hpp:159:             auto rhs_dim_vector = std::move(rhs_tensor.shape());
	.loc 5 159 44
	leaq	-64(%rbp), %rax	#, tmp103
	movq	-112(%rbp), %rdx	# rhs_tensor, tmp104
	movq	%rdx, %rsi	# tmp104,
	movq	%rax, %rdi	# tmp103,
	call	_ZNK9container6tensorIdJEE5shapeEv	#
	leaq	-64(%rbp), %rax	#, tmp105
	movq	%rax, %rdi	# tmp105,
	call	_ZSt4moveISt6vectorIlSaIlEEEONSt16remove_referenceIT_E4typeEOS4_	#
	movq	%rax, %rdx	#, _1
# src/Tensor/Tensor.hpp:159:             auto rhs_dim_vector = std::move(rhs_tensor.shape());
	.loc 5 159 18
	leaq	-96(%rbp), %rax	#, tmp106
	movq	%rdx, %rsi	# _1,
	movq	%rax, %rdi	# tmp106,
	call	_ZNSt6vectorIlSaIlEEC1EOS1_	#
# src/Tensor/Tensor.hpp:159:             auto rhs_dim_vector = std::move(rhs_tensor.shape());
	.loc 5 159 44
	leaq	-64(%rbp), %rax	#, tmp107
	movq	%rax, %rdi	# tmp107,
	call	_ZNSt6vectorIlSaIlEED1Ev	#
# src/Tensor/Tensor.hpp:161:                 if (!std::equal(rhs_dim_vector.begin(), rhs_dim_vector.end(),
	.loc 5 161 32
	movq	-104(%rbp), %rax	# this, tmp108
	addq	$24, %rax	#, _2
	movq	%rax, %rdi	# _2,
	call	_ZNSt6vectorIlSaIlEE3endEv	#
	movq	%rax, %r13	#, D.68107
	movq	-104(%rbp), %rax	# this, tmp109
	addq	$24, %rax	#, _3
	movq	%rax, %rdi	# _3,
	call	_ZNSt6vectorIlSaIlEE5beginEv	#
	movq	%rax, %r12	#, D.68108
	leaq	-96(%rbp), %rax	#, tmp110
	movq	%rax, %rdi	# tmp110,
	call	_ZNSt6vectorIlSaIlEE3endEv	#
	movq	%rax, %rbx	#, D.68109
	leaq	-96(%rbp), %rax	#, tmp111
	movq	%rax, %rdi	# tmp111,
	call	_ZNSt6vectorIlSaIlEE5beginEv	#
	movq	%r13, %rcx	# D.68107,
	movq	%r12, %rdx	# D.68108,
	movq	%rbx, %rsi	# D.68109,
	movq	%rax, %rdi	# D.68110,
.LEHB25:
	call	_ZSt5equalIN9__gnu_cxx17__normal_iteratorIPlSt6vectorIlSaIlEEEES6_EbT_S7_T0_S8_	#
.LEHE25:
	xorl	$1, %eax	#, retval.32_26
# src/Tensor/Tensor.hpp:161:                 if (!std::equal(rhs_dim_vector.begin(), rhs_dim_vector.end(),
	.loc 5 161 17
	testb	%al, %al	# retval.32_26
	je	.L117	#,
# src/Tensor/Tensor.hpp:163:                     throw std::runtime_error("Dimensions mismatch.");
	.loc 5 163 21
	movl	$16, %edi	#,
	call	__cxa_allocate_exception@PLT	#
	movq	%rax, %rbx	# tmp112, _38
	leaq	.LC4(%rip), %rax	#, tmp113
	movq	%rax, %rsi	# tmp113,
	movq	%rbx, %rdi	# _38,
.LEHB26:
	call	_ZNSt13runtime_errorC1EPKc@PLT	#
.LEHE26:
# src/Tensor/Tensor.hpp:163:                     throw std::runtime_error("Dimensions mismatch.");
	.loc 5 163 21 is_stmt 0 discriminator 2
	movq	_ZNSt13runtime_errorD1Ev@GOTPCREL(%rip), %rax	#, tmp115
	movq	%rax, %rdx	# tmp114,
	leaq	_ZTISt13runtime_error(%rip), %rax	#, tmp116
	movq	%rax, %rsi	# tmp116,
	movq	%rbx, %rdi	# _38,
.LEHB27:
	call	__cxa_throw@PLT	#
.L117:
# src/Tensor/Tensor.hpp:165:             this->_dims = std::move(rhs_dim_vector);
	.loc 5 165 36 is_stmt 1
	leaq	-96(%rbp), %rax	#, tmp117
	movq	%rax, %rdi	# tmp117,
	call	_ZSt4moveIRSt6vectorIlSaIlEEEONSt16remove_referenceIT_E4typeEOS5_	#
	movq	%rax, %rdx	#, _5
# src/Tensor/Tensor.hpp:165:             this->_dims = std::move(rhs_dim_vector);
	.loc 5 165 25
	movq	-104(%rbp), %rax	# this, tmp118
	addq	$24, %rax	#, _6
	movq	%rdx, %rsi	# _5,
	movq	%rax, %rdi	# _6,
	call	_ZNSt6vectorIlSaIlEEaSEOS1_	#
# src/Tensor/Tensor.hpp:166:             this->_data.resize(rhs_tensor.size());
	.loc 5 166 31
	movq	-104(%rbp), %rbx	# this, _7
# src/Tensor/Tensor.hpp:166:             this->_data.resize(rhs_tensor.size());
	.loc 5 166 47
	movq	-112(%rbp), %rax	# rhs_tensor, tmp119
	movq	%rax, %rdi	# tmp119,
	call	_ZNK9container6tensorIdJEE4sizeEv	#
# src/Tensor/Tensor.hpp:166:             this->_data.resize(rhs_tensor.size());
	.loc 5 166 31
	movq	%rax, %rsi	# _9,
	movq	%rbx, %rdi	# _7,
	call	_ZNSt6vectorIdSaIdEE6resizeEm	#
# src/Tensor/Tensor.hpp:167:             std::move(rhs_tensor.begin(), rhs_tensor.end(), this->_data.begin());
	.loc 5 167 22
	movq	-104(%rbp), %rax	# this, _10
	movq	%rax, %rdi	# _10,
	call	_ZNSt6vectorIdSaIdEE5beginEv	#
	movq	%rax, %r12	#, D.68113
	movq	-112(%rbp), %rax	# rhs_tensor, tmp120
	movq	%rax, %rdi	# tmp120,
	call	_ZNK9container6tensorIdJEE3endEv	#
	movq	%rax, %rbx	#, D.68114
	movq	-112(%rbp), %rax	# rhs_tensor, tmp121
	movq	%rax, %rdi	# tmp121,
	call	_ZNK9container6tensorIdJEE5beginEv	#
	movq	%r12, %rdx	# D.68113,
	movq	%rbx, %rsi	# D.68114,
	movq	%rax, %rdi	# D.68115,
	call	_ZSt4moveIN9__gnu_cxx17__normal_iteratorIPKdSt6vectorIdSaIdEEEENS1_IPdS6_EEET0_T_SB_SA_	#
.LEHE27:
# src/Tensor/Tensor.hpp:168:         }
	.loc 5 168 9
	leaq	-96(%rbp), %rax	#, tmp122
	movq	%rax, %rdi	# tmp122,
	call	_ZNSt6vectorIlSaIlEED1Ev	#
	jmp	.L122	#
.L121:
# src/Tensor/Tensor.hpp:163:                     throw std::runtime_error("Dimensions mismatch.");
	.loc 5 163 21
	movq	%rax, %r12	#, tmp124
	movq	%rbx, %rdi	# _38,
	call	__cxa_free_exception@PLT	#
	movq	%r12, %rbx	# tmp124, tmp123
	jmp	.L119	#
.L120:
# src/Tensor/Tensor.hpp:168:         }
	.loc 5 168 9
	movq	%rax, %rbx	#, tmp123
.L119:
	leaq	-96(%rbp), %rax	#, tmp127
	movq	%rax, %rdi	# tmp127,
	call	_ZNSt6vectorIlSaIlEED1Ev	#
	movq	%rbx, %rax	# tmp123, D.68642
	movq	%rax, %rdi	# D.68642,
.LEHB28:
	call	_Unwind_Resume@PLT	#
.LEHE28:
.L122:
	addq	$88, %rsp	#,
	popq	%rbx	#
	popq	%r12	#
	popq	%r13	#
	popq	%rbp	#
	.cfi_def_cfa 7, 8
	ret	
	.cfi_endproc
.LFE3023:
	.section	.gcc_except_table
.LLSDA3023:
	.byte	0xff
	.byte	0xff
	.byte	0x1
	.uleb128 .LLSDACSE3023-.LLSDACSB3023
.LLSDACSB3023:
	.uleb128 .LEHB25-.LFB3023
	.uleb128 .LEHE25-.LEHB25
	.uleb128 .L120-.LFB3023
	.uleb128 0
	.uleb128 .LEHB26-.LFB3023
	.uleb128 .LEHE26-.LEHB26
	.uleb128 .L121-.LFB3023
	.uleb128 0
	.uleb128 .LEHB27-.LFB3023
	.uleb128 .LEHE27-.LEHB27
	.uleb128 .L120-.LFB3023
	.uleb128 0
	.uleb128 .LEHB28-.LFB3023
	.uleb128 .LEHE28-.LEHB28
	.uleb128 0
	.uleb128 0
.LLSDACSE3023:
	.section	.text._ZN9container6tensorIdJLl2ELl3ELl5EEE26_diff_type_move_initializeIJEEEvONS0_IdJXspT_EEEE,"axG",@progbits,_ZN9container6tensorIdJLl2ELl3ELl5EEE26_diff_type_move_initializeIJEEEvONS0_IdJXspT_EEEE,comdat
	.size	_ZN9container6tensorIdJLl2ELl3ELl5EEE26_diff_type_move_initializeIJEEEvONS0_IdJXspT_EEEE, .-_ZN9container6tensorIdJLl2ELl3ELl5EEE26_diff_type_move_initializeIJEEEvONS0_IdJXspT_EEEE
	.section	.text._ZNKSt6vectorIlSaIlEEixEm,"axG",@progbits,_ZNKSt6vectorIlSaIlEEixEm,comdat
	.align 2
	.weak	_ZNKSt6vectorIlSaIlEEixEm
	.type	_ZNKSt6vectorIlSaIlEEixEm, @function
_ZNKSt6vectorIlSaIlEEixEm:
.LFB3032:
	.loc 7 1140 7
	.cfi_startproc
	pushq	%rbp	#
	.cfi_def_cfa_offset 16
	.cfi_offset 6, -16
	movq	%rsp, %rbp	#,
	.cfi_def_cfa_register 6
	movq	%rdi, -8(%rbp)	# this, this
	movq	%rsi, -16(%rbp)	# __n, __n
# /usr/include/c++/12/bits/stl_vector.h:1143: 	return *(this->_M_impl._M_start + __n);
	.loc 7 1143 25
	movq	-8(%rbp), %rax	# this, tmp86
	movq	(%rax), %rax	# this_4(D)->D.54811._M_impl.D.54123._M_start, _1
# /usr/include/c++/12/bits/stl_vector.h:1143: 	return *(this->_M_impl._M_start + __n);
	.loc 7 1143 34
	movq	-16(%rbp), %rdx	# __n, tmp87
	salq	$3, %rdx	#, _2
# /usr/include/c++/12/bits/stl_vector.h:1143: 	return *(this->_M_impl._M_start + __n);
	.loc 7 1143 39
	addq	%rdx, %rax	# _2, _6
# /usr/include/c++/12/bits/stl_vector.h:1144:       }
	.loc 7 1144 7
	popq	%rbp	#
	.cfi_def_cfa 7, 8
	ret	
	.cfi_endproc
.LFE3032:
	.size	_ZNKSt6vectorIlSaIlEEixEm, .-_ZNKSt6vectorIlSaIlEEixEm
	.section	.text._ZNSaIdEC2Ev,"axG",@progbits,_ZNSaIdEC5Ev,comdat
	.align 2
	.weak	_ZNSaIdEC2Ev
	.type	_ZNSaIdEC2Ev, @function
_ZNSaIdEC2Ev:
.LFB3102:
	.loc 9 156 7
	.cfi_startproc
	pushq	%rbp	#
	.cfi_def_cfa_offset 16
	.cfi_offset 6, -16
	movq	%rsp, %rbp	#,
	.cfi_def_cfa_register 6
	subq	$16, %rsp	#,
	movq	%rdi, -8(%rbp)	# this, this
.LBB29:
# /usr/include/c++/12/bits/allocator.h:156:       allocator() _GLIBCXX_NOTHROW { }
	.loc 9 156 36
	movq	-8(%rbp), %rax	# this, tmp82
	movq	%rax, %rdi	# tmp82,
	call	_ZNSt15__new_allocatorIdEC2Ev	#
.LBE29:
# /usr/include/c++/12/bits/allocator.h:156:       allocator() _GLIBCXX_NOTHROW { }
	.loc 9 156 38
	nop	
	leave	
	.cfi_def_cfa 7, 8
	ret	
	.cfi_endproc
.LFE3102:
	.size	_ZNSaIdEC2Ev, .-_ZNSaIdEC2Ev
	.weak	_ZNSaIdEC1Ev
	.set	_ZNSaIdEC1Ev,_ZNSaIdEC2Ev
	.section	.text._ZNSt12_Vector_baseIdSaIdEE17_Vector_impl_dataC2Ev,"axG",@progbits,_ZNSt12_Vector_baseIdSaIdEE17_Vector_impl_dataC5Ev,comdat
	.align 2
	.weak	_ZNSt12_Vector_baseIdSaIdEE17_Vector_impl_dataC2Ev
	.type	_ZNSt12_Vector_baseIdSaIdEE17_Vector_impl_dataC2Ev, @function
_ZNSt12_Vector_baseIdSaIdEE17_Vector_impl_dataC2Ev:
.LFB3105:
	.loc 7 99 2
	.cfi_startproc
	pushq	%rbp	#
	.cfi_def_cfa_offset 16
	.cfi_offset 6, -16
	movq	%rsp, %rbp	#,
	.cfi_def_cfa_register 6
	movq	%rdi, -8(%rbp)	# this, this
.LBB30:
# /usr/include/c++/12/bits/stl_vector.h:100: 	: _M_start(), _M_finish(), _M_end_of_storage()
	.loc 7 100 4
	movq	-8(%rbp), %rax	# this, tmp82
	movq	$0, (%rax)	#, this_2(D)->_M_start
# /usr/include/c++/12/bits/stl_vector.h:100: 	: _M_start(), _M_finish(), _M_end_of_storage()
	.loc 7 100 16
	movq	-8(%rbp), %rax	# this, tmp83
	movq	$0, 8(%rax)	#, this_2(D)->_M_finish
# /usr/include/c++/12/bits/stl_vector.h:100: 	: _M_start(), _M_finish(), _M_end_of_storage()
	.loc 7 100 29
	movq	-8(%rbp), %rax	# this, tmp84
	movq	$0, 16(%rax)	#, this_2(D)->_M_end_of_storage
.LBE30:
# /usr/include/c++/12/bits/stl_vector.h:101: 	{ }
	.loc 7 101 4
	nop	
	popq	%rbp	#
	.cfi_def_cfa 7, 8
	ret	
	.cfi_endproc
.LFE3105:
	.size	_ZNSt12_Vector_baseIdSaIdEE17_Vector_impl_dataC2Ev, .-_ZNSt12_Vector_baseIdSaIdEE17_Vector_impl_dataC2Ev
	.weak	_ZNSt12_Vector_baseIdSaIdEE17_Vector_impl_dataC1Ev
	.set	_ZNSt12_Vector_baseIdSaIdEE17_Vector_impl_dataC1Ev,_ZNSt12_Vector_baseIdSaIdEE17_Vector_impl_dataC2Ev
	.section	.text._ZNSt15__new_allocatorIdED2Ev,"axG",@progbits,_ZNSt15__new_allocatorIdED5Ev,comdat
	.align 2
	.weak	_ZNSt15__new_allocatorIdED2Ev
	.type	_ZNSt15__new_allocatorIdED2Ev, @function
_ZNSt15__new_allocatorIdED2Ev:
.LFB3108:
	.file 11 "/usr/include/c++/12/bits/new_allocator.h"
	.loc 11 90 7
	.cfi_startproc
	pushq	%rbp	#
	.cfi_def_cfa_offset 16
	.cfi_offset 6, -16
	movq	%rsp, %rbp	#,
	.cfi_def_cfa_register 6
	movq	%rdi, -8(%rbp)	# this, this
# /usr/include/c++/12/bits/new_allocator.h:90:       ~__new_allocator() _GLIBCXX_USE_NOEXCEPT { }
	.loc 11 90 50
	nop	
	popq	%rbp	#
	.cfi_def_cfa 7, 8
	ret	
	.cfi_endproc
.LFE3108:
	.size	_ZNSt15__new_allocatorIdED2Ev, .-_ZNSt15__new_allocatorIdED2Ev
	.weak	_ZNSt15__new_allocatorIdED1Ev
	.set	_ZNSt15__new_allocatorIdED1Ev,_ZNSt15__new_allocatorIdED2Ev
	.section	.text._ZNSt12_Vector_baseIdSaIdEE13_M_deallocateEPdm,"axG",@progbits,_ZNSt12_Vector_baseIdSaIdEE13_M_deallocateEPdm,comdat
	.align 2
	.weak	_ZNSt12_Vector_baseIdSaIdEE13_M_deallocateEPdm
	.type	_ZNSt12_Vector_baseIdSaIdEE13_M_deallocateEPdm, @function
_ZNSt12_Vector_baseIdSaIdEE13_M_deallocateEPdm:
.LFB3110:
	.loc 7 383 7
	.cfi_startproc
	pushq	%rbp	#
	.cfi_def_cfa_offset 16
	.cfi_offset 6, -16
	movq	%rsp, %rbp	#,
	.cfi_def_cfa_register 6
	subq	$32, %rsp	#,
	movq	%rdi, -8(%rbp)	# this, this
	movq	%rsi, -16(%rbp)	# __p, __p
	movq	%rdx, -24(%rbp)	# __n, __n
# /usr/include/c++/12/bits/stl_vector.h:386: 	if (__p)
	.loc 7 386 2
	cmpq	$0, -16(%rbp)	#, __p
	je	.L130	#,
# /usr/include/c++/12/bits/stl_vector.h:387: 	  _Tr::deallocate(_M_impl, __p, __n);
	.loc 7 387 20
	movq	-8(%rbp), %rax	# this, _1
# /usr/include/c++/12/bits/stl_vector.h:387: 	  _Tr::deallocate(_M_impl, __p, __n);
	.loc 7 387 19
	movq	-24(%rbp), %rdx	# __n, tmp83
	movq	-16(%rbp), %rcx	# __p, tmp84
	movq	%rcx, %rsi	# tmp84,
	movq	%rax, %rdi	# _1,
	call	_ZNSt16allocator_traitsISaIdEE10deallocateERS0_Pdm	#
.L130:
# /usr/include/c++/12/bits/stl_vector.h:388:       }
	.loc 7 388 7
	nop	
	leave	
	.cfi_def_cfa 7, 8
	ret	
	.cfi_endproc
.LFE3110:
	.size	_ZNSt12_Vector_baseIdSaIdEE13_M_deallocateEPdm, .-_ZNSt12_Vector_baseIdSaIdEE13_M_deallocateEPdm
	.section	.text._ZNSt15__new_allocatorIlEC2Ev,"axG",@progbits,_ZNSt15__new_allocatorIlEC5Ev,comdat
	.align 2
	.weak	_ZNSt15__new_allocatorIlEC2Ev
	.type	_ZNSt15__new_allocatorIlEC2Ev, @function
_ZNSt15__new_allocatorIlEC2Ev:
.LFB3112:
	.loc 11 80 7
	.cfi_startproc
	pushq	%rbp	#
	.cfi_def_cfa_offset 16
	.cfi_offset 6, -16
	movq	%rsp, %rbp	#,
	.cfi_def_cfa_register 6
	movq	%rdi, -8(%rbp)	# this, this
# /usr/include/c++/12/bits/new_allocator.h:80:       __new_allocator() _GLIBCXX_USE_NOEXCEPT { }
	.loc 11 80 49
	nop	
	popq	%rbp	#
	.cfi_def_cfa 7, 8
	ret	
	.cfi_endproc
.LFE3112:
	.size	_ZNSt15__new_allocatorIlEC2Ev, .-_ZNSt15__new_allocatorIlEC2Ev
	.weak	_ZNSt15__new_allocatorIlEC1Ev
	.set	_ZNSt15__new_allocatorIlEC1Ev,_ZNSt15__new_allocatorIlEC2Ev
	.section	.text._ZNSt15__new_allocatorIlED2Ev,"axG",@progbits,_ZNSt15__new_allocatorIlED5Ev,comdat
	.align 2
	.weak	_ZNSt15__new_allocatorIlED2Ev
	.type	_ZNSt15__new_allocatorIlED2Ev, @function
_ZNSt15__new_allocatorIlED2Ev:
.LFB3115:
	.loc 11 90 7
	.cfi_startproc
	pushq	%rbp	#
	.cfi_def_cfa_offset 16
	.cfi_offset 6, -16
	movq	%rsp, %rbp	#,
	.cfi_def_cfa_register 6
	movq	%rdi, -8(%rbp)	# this, this
# /usr/include/c++/12/bits/new_allocator.h:90:       ~__new_allocator() _GLIBCXX_USE_NOEXCEPT { }
	.loc 11 90 50
	nop	
	popq	%rbp	#
	.cfi_def_cfa 7, 8
	ret	
	.cfi_endproc
.LFE3115:
	.size	_ZNSt15__new_allocatorIlED2Ev, .-_ZNSt15__new_allocatorIlED2Ev
	.weak	_ZNSt15__new_allocatorIlED1Ev
	.set	_ZNSt15__new_allocatorIlED1Ev,_ZNSt15__new_allocatorIlED2Ev
	.section	.text._ZNSt12_Vector_baseIlSaIlEEC2ERKS0_,"axG",@progbits,_ZNSt12_Vector_baseIlSaIlEEC5ERKS0_,comdat
	.align 2
	.weak	_ZNSt12_Vector_baseIlSaIlEEC2ERKS0_
	.type	_ZNSt12_Vector_baseIlSaIlEEC2ERKS0_, @function
_ZNSt12_Vector_baseIlSaIlEEC2ERKS0_:
.LFB3118:
	.loc 7 318 7
	.cfi_startproc
	pushq	%rbp	#
	.cfi_def_cfa_offset 16
	.cfi_offset 6, -16
	movq	%rsp, %rbp	#,
	.cfi_def_cfa_register 6
	subq	$16, %rsp	#,
	movq	%rdi, -8(%rbp)	# this, this
	movq	%rsi, -16(%rbp)	# __a, __a
.LBB31:
# /usr/include/c++/12/bits/stl_vector.h:319:       : _M_impl(__a) { }
	.loc 7 319 9
	movq	-8(%rbp), %rax	# this, _1
	movq	-16(%rbp), %rdx	# __a, tmp84
	movq	%rdx, %rsi	# tmp84,
	movq	%rax, %rdi	# _1,
	call	_ZNSt12_Vector_baseIlSaIlEE12_Vector_implC1ERKS0_	#
.LBE31:
# /usr/include/c++/12/bits/stl_vector.h:319:       : _M_impl(__a) { }
	.loc 7 319 24
	nop	
	leave	
	.cfi_def_cfa 7, 8
	ret	
	.cfi_endproc
.LFE3118:
	.size	_ZNSt12_Vector_baseIlSaIlEEC2ERKS0_, .-_ZNSt12_Vector_baseIlSaIlEEC2ERKS0_
	.weak	_ZNSt12_Vector_baseIlSaIlEEC1ERKS0_
	.set	_ZNSt12_Vector_baseIlSaIlEEC1ERKS0_,_ZNSt12_Vector_baseIlSaIlEEC2ERKS0_
	.section	.text._ZNKSt16initializer_listIlE5beginEv,"axG",@progbits,_ZNKSt16initializer_listIlE5beginEv,comdat
	.align 2
	.weak	_ZNKSt16initializer_listIlE5beginEv
	.type	_ZNKSt16initializer_listIlE5beginEv, @function
_ZNKSt16initializer_listIlE5beginEv:
.LFB3120:
	.file 12 "/usr/include/c++/12/initializer_list"
	.loc 12 75 7
	.cfi_startproc
	pushq	%rbp	#
	.cfi_def_cfa_offset 16
	.cfi_offset 6, -16
	movq	%rsp, %rbp	#,
	.cfi_def_cfa_register 6
	movq	%rdi, -8(%rbp)	# this, this
# /usr/include/c++/12/initializer_list:75:       begin() const noexcept { return _M_array; }
	.loc 12 75 39
	movq	-8(%rbp), %rax	# this, tmp84
	movq	(%rax), %rax	# this_2(D)->_M_array, _3
# /usr/include/c++/12/initializer_list:75:       begin() const noexcept { return _M_array; }
	.loc 12 75 49
	popq	%rbp	#
	.cfi_def_cfa 7, 8
	ret	
	.cfi_endproc
.LFE3120:
	.size	_ZNKSt16initializer_listIlE5beginEv, .-_ZNKSt16initializer_listIlE5beginEv
	.section	.text._ZNKSt16initializer_listIlE3endEv,"axG",@progbits,_ZNKSt16initializer_listIlE3endEv,comdat
	.align 2
	.weak	_ZNKSt16initializer_listIlE3endEv
	.type	_ZNKSt16initializer_listIlE3endEv, @function
_ZNKSt16initializer_listIlE3endEv:
.LFB3121:
	.loc 12 79 7
	.cfi_startproc
	pushq	%rbp	#
	.cfi_def_cfa_offset 16
	.cfi_offset 6, -16
	movq	%rsp, %rbp	#,
	.cfi_def_cfa_register 6
	pushq	%rbx	#
	subq	$24, %rsp	#,
	.cfi_offset 3, -24
	movq	%rdi, -24(%rbp)	# this, this
# /usr/include/c++/12/initializer_list:79:       end() const noexcept { return begin() + size(); }
	.loc 12 79 42
	movq	-24(%rbp), %rax	# this, tmp87
	movq	%rax, %rdi	# tmp87,
	call	_ZNKSt16initializer_listIlE5beginEv	#
	movq	%rax, %rbx	#, _1
# /usr/include/c++/12/initializer_list:79:       end() const noexcept { return begin() + size(); }
	.loc 12 79 51
	movq	-24(%rbp), %rax	# this, tmp88
	movq	%rax, %rdi	# tmp88,
	call	_ZNKSt16initializer_listIlE4sizeEv	#
# /usr/include/c++/12/initializer_list:79:       end() const noexcept { return begin() + size(); }
	.loc 12 79 45
	salq	$3, %rax	#, _3
# /usr/include/c++/12/initializer_list:79:       end() const noexcept { return begin() + size(); }
	.loc 12 79 52
	addq	%rbx, %rax	# _1, _8
# /usr/include/c++/12/initializer_list:79:       end() const noexcept { return begin() + size(); }
	.loc 12 79 55
	movq	-8(%rbp), %rbx	#,
	leave	
	.cfi_def_cfa 7, 8
	ret	
	.cfi_endproc
.LFE3121:
	.size	_ZNKSt16initializer_listIlE3endEv, .-_ZNKSt16initializer_listIlE3endEv
	.section	.text._ZSt8distanceIPKlENSt15iterator_traitsIT_E15difference_typeES3_S3_,"axG",@progbits,_ZSt8distanceIPKlENSt15iterator_traitsIT_E15difference_typeES3_S3_,comdat
	.weak	_ZSt8distanceIPKlENSt15iterator_traitsIT_E15difference_typeES3_S3_
	.type	_ZSt8distanceIPKlENSt15iterator_traitsIT_E15difference_typeES3_S3_, @function
_ZSt8distanceIPKlENSt15iterator_traitsIT_E15difference_typeES3_S3_:
.LFB3123:
	.file 13 "/usr/include/c++/12/bits/stl_iterator_base_funcs.h"
	.loc 13 147 5
	.cfi_startproc
	pushq	%rbp	#
	.cfi_def_cfa_offset 16
	.cfi_offset 6, -16
	movq	%rsp, %rbp	#,
	.cfi_def_cfa_register 6
	subq	$16, %rsp	#,
	movq	%rdi, -8(%rbp)	# __first, __first
	movq	%rsi, -16(%rbp)	# __last, __last
# /usr/include/c++/12/bits/stl_iterator_base_funcs.h:151: 			     std::__iterator_category(__first));
	.loc 13 151 33
	leaq	-8(%rbp), %rax	#, tmp86
	movq	%rax, %rdi	# tmp86,
	call	_ZSt19__iterator_categoryIPKlENSt15iterator_traitsIT_E17iterator_categoryERKS3_	#
# /usr/include/c++/12/bits/stl_iterator_base_funcs.h:150:       return std::__distance(__first, __last,
	.loc 13 150 29
	movq	-8(%rbp), %rax	# __first, __first.1_1
	movq	-16(%rbp), %rdx	# __last, tmp87
	movq	%rdx, %rsi	# tmp87,
	movq	%rax, %rdi	# __first.1_1,
	call	_ZSt10__distanceIPKlENSt15iterator_traitsIT_E15difference_typeES3_S3_St26random_access_iterator_tag	#
# /usr/include/c++/12/bits/stl_iterator_base_funcs.h:152:     }
	.loc 13 152 5
	leave	
	.cfi_def_cfa 7, 8
	ret	
	.cfi_endproc
.LFE3123:
	.size	_ZSt8distanceIPKlENSt15iterator_traitsIT_E15difference_typeES3_S3_, .-_ZSt8distanceIPKlENSt15iterator_traitsIT_E15difference_typeES3_S3_
	.section	.text._ZNSt6vectorIlSaIlEE19_M_range_initializeIPKlEEvT_S5_St20forward_iterator_tag,"axG",@progbits,_ZNSt6vectorIlSaIlEE19_M_range_initializeIPKlEEvT_S5_St20forward_iterator_tag,comdat
	.align 2
	.weak	_ZNSt6vectorIlSaIlEE19_M_range_initializeIPKlEEvT_S5_St20forward_iterator_tag
	.type	_ZNSt6vectorIlSaIlEE19_M_range_initializeIPKlEEvT_S5_St20forward_iterator_tag, @function
_ZNSt6vectorIlSaIlEE19_M_range_initializeIPKlEEvT_S5_St20forward_iterator_tag:
.LFB3122:
	.loc 7 1682 2
	.cfi_startproc
	pushq	%rbp	#
	.cfi_def_cfa_offset 16
	.cfi_offset 6, -16
	movq	%rsp, %rbp	#,
	.cfi_def_cfa_register 6
	pushq	%rbx	#
	subq	$56, %rsp	#,
	.cfi_offset 3, -24
	movq	%rdi, -40(%rbp)	# this, this
	movq	%rsi, -48(%rbp)	# __first, __first
	movq	%rdx, -56(%rbp)	# __last, __last
# /usr/include/c++/12/bits/stl_vector.h:1685: 	  const size_type __n = std::distance(__first, __last);
	.loc 7 1685 39
	movq	-56(%rbp), %rdx	# __last, tmp95
	movq	-48(%rbp), %rax	# __first, tmp96
	movq	%rdx, %rsi	# tmp95,
	movq	%rax, %rdi	# tmp96,
	call	_ZSt8distanceIPKlENSt15iterator_traitsIT_E15difference_typeES3_S3_	#
# /usr/include/c++/12/bits/stl_vector.h:1685: 	  const size_type __n = std::distance(__first, __last);
	.loc 7 1685 20
	movq	%rax, -24(%rbp)	# _1, __n
# /usr/include/c++/12/bits/stl_vector.h:1687: 	    = this->_M_allocate(_S_check_init_len(__n, _M_get_Tp_allocator()));
	.loc 7 1687 25
	movq	-40(%rbp), %rbx	# this, _2
# /usr/include/c++/12/bits/stl_vector.h:1687: 	    = this->_M_allocate(_S_check_init_len(__n, _M_get_Tp_allocator()));
	.loc 7 1687 68
	movq	-40(%rbp), %rax	# this, _3
	movq	%rax, %rdi	# _3,
	call	_ZNSt12_Vector_baseIlSaIlEE19_M_get_Tp_allocatorEv	#
	movq	%rax, %rdx	#, _4
# /usr/include/c++/12/bits/stl_vector.h:1687: 	    = this->_M_allocate(_S_check_init_len(__n, _M_get_Tp_allocator()));
	.loc 7 1687 25
	movq	-24(%rbp), %rax	# __n, tmp97
	movq	%rdx, %rsi	# _4,
	movq	%rax, %rdi	# tmp97,
	call	_ZNSt6vectorIlSaIlEE17_S_check_init_lenEmRKS0_	#
	movq	%rax, %rsi	# _5,
	movq	%rbx, %rdi	# _2,
	call	_ZNSt12_Vector_baseIlSaIlEE11_M_allocateEm	#
# /usr/include/c++/12/bits/stl_vector.h:1687: 	    = this->_M_allocate(_S_check_init_len(__n, _M_get_Tp_allocator()));
	.loc 7 1687 6
	movq	-40(%rbp), %rdx	# this, tmp98
	movq	%rax, (%rdx)	# _6, this_20(D)->D.54811._M_impl.D.54123._M_start
# /usr/include/c++/12/bits/stl_vector.h:1688: 	  this->_M_impl._M_end_of_storage = this->_M_impl._M_start + __n;
	.loc 7 1688 52
	movq	-40(%rbp), %rax	# this, tmp99
	movq	(%rax), %rax	# this_20(D)->D.54811._M_impl.D.54123._M_start, _7
# /usr/include/c++/12/bits/stl_vector.h:1688: 	  this->_M_impl._M_end_of_storage = this->_M_impl._M_start + __n;
	.loc 7 1688 61
	movq	-24(%rbp), %rdx	# __n, tmp100
	salq	$3, %rdx	#, _8
	addq	%rax, %rdx	# _7, _9
# /usr/include/c++/12/bits/stl_vector.h:1688: 	  this->_M_impl._M_end_of_storage = this->_M_impl._M_start + __n;
	.loc 7 1688 36
	movq	-40(%rbp), %rax	# this, tmp101
	movq	%rdx, 16(%rax)	# _9, this_20(D)->D.54811._M_impl.D.54123._M_end_of_storage
# /usr/include/c++/12/bits/stl_vector.h:1692: 					_M_get_Tp_allocator());
	.loc 7 1692 25
	movq	-40(%rbp), %rax	# this, _10
	movq	%rax, %rdi	# _10,
	call	_ZNSt12_Vector_baseIlSaIlEE19_M_get_Tp_allocatorEv	#
	movq	%rax, %rcx	#, _11
# /usr/include/c++/12/bits/stl_vector.h:1690: 	    std::__uninitialized_copy_a(__first, __last,
	.loc 7 1690 33
	movq	-40(%rbp), %rax	# this, tmp102
	movq	(%rax), %rdx	# this_20(D)->D.54811._M_impl.D.54123._M_start, _12
	movq	-56(%rbp), %rsi	# __last, tmp103
	movq	-48(%rbp), %rax	# __first, tmp104
	movq	%rax, %rdi	# tmp104,
	call	_ZSt22__uninitialized_copy_aIPKlPllET0_T_S4_S3_RSaIT1_E	#
# /usr/include/c++/12/bits/stl_vector.h:1689: 	  this->_M_impl._M_finish =
	.loc 7 1689 28
	movq	-40(%rbp), %rdx	# this, tmp105
	movq	%rax, 8(%rdx)	# _13, this_20(D)->D.54811._M_impl.D.54123._M_finish
# /usr/include/c++/12/bits/stl_vector.h:1693: 	}
	.loc 7 1693 2
	nop	
	movq	-8(%rbp), %rbx	#,
	leave	
	.cfi_def_cfa 7, 8
	ret	
	.cfi_endproc
.LFE3122:
	.size	_ZNSt6vectorIlSaIlEE19_M_range_initializeIPKlEEvT_S5_St20forward_iterator_tag, .-_ZNSt6vectorIlSaIlEE19_M_range_initializeIPKlEEvT_S5_St20forward_iterator_tag
	.section	.text._ZNSt6vectorIlSaIlEE5beginEv,"axG",@progbits,_ZNSt6vectorIlSaIlEE5beginEv,comdat
	.align 2
	.weak	_ZNSt6vectorIlSaIlEE5beginEv
	.type	_ZNSt6vectorIlSaIlEE5beginEv, @function
_ZNSt6vectorIlSaIlEE5beginEv:
.LFB3124:
	.loc 7 868 7
	.cfi_startproc
	pushq	%rbp	#
	.cfi_def_cfa_offset 16
	.cfi_offset 6, -16
	movq	%rsp, %rbp	#,
	.cfi_def_cfa_register 6
	subq	$32, %rsp	#,
	movq	%rdi, -24(%rbp)	# this, this
# /usr/include/c++/12/bits/stl_vector.h:869:       { return iterator(this->_M_impl._M_start); }
	.loc 7 869 39
	movq	-24(%rbp), %rdx	# this, _1
# /usr/include/c++/12/bits/stl_vector.h:869:       { return iterator(this->_M_impl._M_start); }
	.loc 7 869 16
	leaq	-8(%rbp), %rax	#, tmp85
	movq	%rdx, %rsi	# _1,
	movq	%rax, %rdi	# tmp85,
	call	_ZN9__gnu_cxx17__normal_iteratorIPlSt6vectorIlSaIlEEEC1ERKS1_	#
# /usr/include/c++/12/bits/stl_vector.h:869:       { return iterator(this->_M_impl._M_start); }
	.loc 7 869 47
	movq	-8(%rbp), %rax	# D.64724, D.67820
# /usr/include/c++/12/bits/stl_vector.h:869:       { return iterator(this->_M_impl._M_start); }
	.loc 7 869 50
	leave	
	.cfi_def_cfa 7, 8
	ret	
	.cfi_endproc
.LFE3124:
	.size	_ZNSt6vectorIlSaIlEE5beginEv, .-_ZNSt6vectorIlSaIlEE5beginEv
	.section	.text._ZNSt6vectorIlSaIlEE3endEv,"axG",@progbits,_ZNSt6vectorIlSaIlEE3endEv,comdat
	.align 2
	.weak	_ZNSt6vectorIlSaIlEE3endEv
	.type	_ZNSt6vectorIlSaIlEE3endEv, @function
_ZNSt6vectorIlSaIlEE3endEv:
.LFB3125:
	.loc 7 888 7
	.cfi_startproc
	pushq	%rbp	#
	.cfi_def_cfa_offset 16
	.cfi_offset 6, -16
	movq	%rsp, %rbp	#,
	.cfi_def_cfa_register 6
	subq	$32, %rsp	#,
	movq	%rdi, -24(%rbp)	# this, this
# /usr/include/c++/12/bits/stl_vector.h:889:       { return iterator(this->_M_impl._M_finish); }
	.loc 7 889 39
	movq	-24(%rbp), %rax	# this, tmp85
	leaq	8(%rax), %rdx	#, _1
# /usr/include/c++/12/bits/stl_vector.h:889:       { return iterator(this->_M_impl._M_finish); }
	.loc 7 889 16
	leaq	-8(%rbp), %rax	#, tmp86
	movq	%rdx, %rsi	# _1,
	movq	%rax, %rdi	# tmp86,
	call	_ZN9__gnu_cxx17__normal_iteratorIPlSt6vectorIlSaIlEEEC1ERKS1_	#
# /usr/include/c++/12/bits/stl_vector.h:889:       { return iterator(this->_M_impl._M_finish); }
	.loc 7 889 48
	movq	-8(%rbp), %rax	# D.64726, D.67817
# /usr/include/c++/12/bits/stl_vector.h:889:       { return iterator(this->_M_impl._M_finish); }
	.loc 7 889 51
	leave	
	.cfi_def_cfa 7, 8
	ret	
	.cfi_endproc
.LFE3125:
	.size	_ZNSt6vectorIlSaIlEE3endEv, .-_ZNSt6vectorIlSaIlEE3endEv
	.section	.text._ZSt8for_eachIN9__gnu_cxx17__normal_iteratorIPlSt6vectorIlSaIlEEEEZN9container6tensorIdJLl2ELl3ELl5EEE11_initializeEvEUliE_ET0_T_SC_SB_,"axG",@progbits,_ZSt8for_eachIN9__gnu_cxx17__normal_iteratorIPlSt6vectorIlSaIlEEEEZN9container6tensorIdJLl2ELl3ELl5EEE11_initializeEvEUliE_ET0_T_SC_SB_,comdat
	.weak	_ZSt8for_eachIN9__gnu_cxx17__normal_iteratorIPlSt6vectorIlSaIlEEEEZN9container6tensorIdJLl2ELl3ELl5EEE11_initializeEvEUliE_ET0_T_SC_SB_
	.type	_ZSt8for_eachIN9__gnu_cxx17__normal_iteratorIPlSt6vectorIlSaIlEEEEZN9container6tensorIdJLl2ELl3ELl5EEE11_initializeEvEUliE_ET0_T_SC_SB_, @function
_ZSt8for_eachIN9__gnu_cxx17__normal_iteratorIPlSt6vectorIlSaIlEEEEZN9container6tensorIdJLl2ELl3ELl5EEE11_initializeEvEUliE_ET0_T_SC_SB_:
.LFB3126:
	.file 14 "/usr/include/c++/12/bits/stl_algo.h"
	.loc 14 3781 5
	.cfi_startproc
	pushq	%rbp	#
	.cfi_def_cfa_offset 16
	.cfi_offset 6, -16
	movq	%rsp, %rbp	#,
	.cfi_def_cfa_register 6
	subq	$32, %rsp	#,
	movq	%rdi, -8(%rbp)	# __first, __first
	movq	%rsi, -16(%rbp)	# __last, __last
	movq	%rdx, -24(%rbp)	# __f, __f
# /usr/include/c++/12/bits/stl_algo.h:3786:       for (; __first != __last; ++__first)
	.loc 14 3786 7
	jmp	.L146	#
.L147:
# /usr/include/c++/12/bits/stl_algo.h:3787: 	__f(*__first);
	.loc 14 3787 6 discriminator 2
	leaq	-8(%rbp), %rax	#, tmp88
	movq	%rax, %rdi	# tmp88,
	call	_ZNK9__gnu_cxx17__normal_iteratorIPlSt6vectorIlSaIlEEEdeEv	#
# /usr/include/c++/12/bits/stl_algo.h:3787: 	__f(*__first);
	.loc 14 3787 5 discriminator 2
	movq	(%rax), %rax	# *_1, _2
	movl	%eax, %edx	# _2, _3
	leaq	-24(%rbp), %rax	#, tmp89
	movl	%edx, %esi	# _3,
	movq	%rax, %rdi	# tmp89,
	call	_ZZN9container6tensorIdJLl2ELl3ELl5EEE11_initializeEvENKUliE_clEi	#
# /usr/include/c++/12/bits/stl_algo.h:3786:       for (; __first != __last; ++__first)
	.loc 14 3786 33 discriminator 2
	leaq	-8(%rbp), %rax	#, tmp90
	movq	%rax, %rdi	# tmp90,
	call	_ZN9__gnu_cxx17__normal_iteratorIPlSt6vectorIlSaIlEEEppEv	#
.L146:
# /usr/include/c++/12/bits/stl_algo.h:3786:       for (; __first != __last; ++__first)
	.loc 14 3786 22 discriminator 1
	leaq	-16(%rbp), %rdx	#, tmp91
	leaq	-8(%rbp), %rax	#, tmp92
	movq	%rdx, %rsi	# tmp91,
	movq	%rax, %rdi	# tmp92,
	call	_ZN9__gnu_cxxneIPlSt6vectorIlSaIlEEEEbRKNS_17__normal_iteratorIT_T0_EESA_	#
	testb	%al, %al	# retval.10_7
	jne	.L147	#,
# /usr/include/c++/12/bits/stl_algo.h:3788:       return __f; // N.B. [alg.foreach] says std::move(f) but it's redundant.
	.loc 14 3788 14
	movq	-24(%rbp), %rax	# __f, D.67824
# /usr/include/c++/12/bits/stl_algo.h:3789:     }
	.loc 14 3789 5
	leave	
	.cfi_def_cfa 7, 8
	ret	
	.cfi_endproc
.LFE3126:
	.size	_ZSt8for_eachIN9__gnu_cxx17__normal_iteratorIPlSt6vectorIlSaIlEEEEZN9container6tensorIdJLl2ELl3ELl5EEE11_initializeEvEUliE_ET0_T_SC_SB_, .-_ZSt8for_eachIN9__gnu_cxx17__normal_iteratorIPlSt6vectorIlSaIlEEEEZN9container6tensorIdJLl2ELl3ELl5EEE11_initializeEvEUliE_ET0_T_SC_SB_
	.section	.text._ZNSt6vectorIdSaIdEE6resizeEm,"axG",@progbits,_ZNSt6vectorIdSaIdEE6resizeEm,comdat
	.align 2
	.weak	_ZNSt6vectorIdSaIdEE6resizeEm
	.type	_ZNSt6vectorIdSaIdEE6resizeEm, @function
_ZNSt6vectorIdSaIdEE6resizeEm:
.LFB3127:
	.loc 7 1008 7
	.cfi_startproc
	pushq	%rbp	#
	.cfi_def_cfa_offset 16
	.cfi_offset 6, -16
	movq	%rsp, %rbp	#,
	.cfi_def_cfa_register 6
	subq	$16, %rsp	#,
	movq	%rdi, -8(%rbp)	# this, this
	movq	%rsi, -16(%rbp)	# __new_size, __new_size
# /usr/include/c++/12/bits/stl_vector.h:1010: 	if (__new_size > size())
	.loc 7 1010 23
	movq	-8(%rbp), %rax	# this, tmp91
	movq	%rax, %rdi	# tmp91,
	call	_ZNKSt6vectorIdSaIdEE4sizeEv	#
# /usr/include/c++/12/bits/stl_vector.h:1010: 	if (__new_size > size())
	.loc 7 1010 17
	cmpq	-16(%rbp), %rax	# __new_size, _1
	setb	%al	#, retval.11_13
# /usr/include/c++/12/bits/stl_vector.h:1010: 	if (__new_size > size())
	.loc 7 1010 2
	testb	%al, %al	# retval.11_13
	je	.L150	#,
# /usr/include/c++/12/bits/stl_vector.h:1011: 	  _M_default_append(__new_size - size());
	.loc 7 1011 39
	movq	-8(%rbp), %rax	# this, tmp92
	movq	%rax, %rdi	# tmp92,
	call	_ZNKSt6vectorIdSaIdEE4sizeEv	#
# /usr/include/c++/12/bits/stl_vector.h:1011: 	  _M_default_append(__new_size - size());
	.loc 7 1011 21
	movq	-16(%rbp), %rdx	# __new_size, tmp93
	subq	%rax, %rdx	# _2, _3
	movq	-8(%rbp), %rax	# this, tmp94
	movq	%rdx, %rsi	# _3,
	movq	%rax, %rdi	# tmp94,
	call	_ZNSt6vectorIdSaIdEE17_M_default_appendEm	#
# /usr/include/c++/12/bits/stl_vector.h:1014:       }
	.loc 7 1014 7
	jmp	.L152	#
.L150:
# /usr/include/c++/12/bits/stl_vector.h:1012: 	else if (__new_size < size())
	.loc 7 1012 28
	movq	-8(%rbp), %rax	# this, tmp95
	movq	%rax, %rdi	# tmp95,
	call	_ZNKSt6vectorIdSaIdEE4sizeEv	#
# /usr/include/c++/12/bits/stl_vector.h:1012: 	else if (__new_size < size())
	.loc 7 1012 22
	cmpq	%rax, -16(%rbp)	# _4, __new_size
	setb	%al	#, retval.12_15
# /usr/include/c++/12/bits/stl_vector.h:1012: 	else if (__new_size < size())
	.loc 7 1012 7
	testb	%al, %al	# retval.12_15
	je	.L152	#,
# /usr/include/c++/12/bits/stl_vector.h:1013: 	  _M_erase_at_end(this->_M_impl._M_start + __new_size);
	.loc 7 1013 34
	movq	-8(%rbp), %rax	# this, tmp96
	movq	(%rax), %rax	# this_10(D)->D.58674._M_impl.D.58013._M_start, _5
# /usr/include/c++/12/bits/stl_vector.h:1013: 	  _M_erase_at_end(this->_M_impl._M_start + __new_size);
	.loc 7 1013 43
	movq	-16(%rbp), %rdx	# __new_size, tmp97
	salq	$3, %rdx	#, _6
# /usr/include/c++/12/bits/stl_vector.h:1013: 	  _M_erase_at_end(this->_M_impl._M_start + __new_size);
	.loc 7 1013 19
	addq	%rax, %rdx	# _5, _7
	movq	-8(%rbp), %rax	# this, tmp98
	movq	%rdx, %rsi	# _7,
	movq	%rax, %rdi	# tmp98,
	call	_ZNSt6vectorIdSaIdEE15_M_erase_at_endEPd	#
.L152:
# /usr/include/c++/12/bits/stl_vector.h:1014:       }
	.loc 7 1014 7
	nop	
	leave	
	.cfi_def_cfa 7, 8
	ret	
	.cfi_endproc
.LFE3127:
	.size	_ZNSt6vectorIdSaIdEE6resizeEm, .-_ZNSt6vectorIdSaIdEE6resizeEm
	.section	.text._ZSt8_DestroyIPdEvT_S1_,"axG",@progbits,_ZSt8_DestroyIPdEvT_S1_,comdat
	.weak	_ZSt8_DestroyIPdEvT_S1_
	.type	_ZSt8_DestroyIPdEvT_S1_, @function
_ZSt8_DestroyIPdEvT_S1_:
.LFB3128:
	.file 15 "/usr/include/c++/12/bits/stl_construct.h"
	.loc 15 182 5
	.cfi_startproc
	pushq	%rbp	#
	.cfi_def_cfa_offset 16
	.cfi_offset 6, -16
	movq	%rsp, %rbp	#,
	.cfi_def_cfa_register 6
	subq	$16, %rsp	#,
	movq	%rdi, -8(%rbp)	# __first, __first
	movq	%rsi, -16(%rbp)	# __last, __last
# /usr/include/c++/12/bits/stl_construct.h:196: 	__destroy(__first, __last);
	.loc 15 196 11
	movq	-16(%rbp), %rdx	# __last, tmp82
	movq	-8(%rbp), %rax	# __first, tmp83
	movq	%rdx, %rsi	# tmp82,
	movq	%rax, %rdi	# tmp83,
	call	_ZNSt12_Destroy_auxILb1EE9__destroyIPdEEvT_S3_	#
# /usr/include/c++/12/bits/stl_construct.h:197:     }
	.loc 15 197 5
	nop	
	leave	
	.cfi_def_cfa 7, 8
	ret	
	.cfi_endproc
.LFE3128:
	.size	_ZSt8_DestroyIPdEvT_S1_, .-_ZSt8_DestroyIPdEvT_S1_
	.section	.text._ZNSt12_Vector_baseIlSaIlEE13_M_deallocateEPlm,"axG",@progbits,_ZNSt12_Vector_baseIlSaIlEE13_M_deallocateEPlm,comdat
	.align 2
	.weak	_ZNSt12_Vector_baseIlSaIlEE13_M_deallocateEPlm
	.type	_ZNSt12_Vector_baseIlSaIlEE13_M_deallocateEPlm, @function
_ZNSt12_Vector_baseIlSaIlEE13_M_deallocateEPlm:
.LFB3130:
	.loc 7 383 7
	.cfi_startproc
	pushq	%rbp	#
	.cfi_def_cfa_offset 16
	.cfi_offset 6, -16
	movq	%rsp, %rbp	#,
	.cfi_def_cfa_register 6
	subq	$32, %rsp	#,
	movq	%rdi, -8(%rbp)	# this, this
	movq	%rsi, -16(%rbp)	# __p, __p
	movq	%rdx, -24(%rbp)	# __n, __n
# /usr/include/c++/12/bits/stl_vector.h:386: 	if (__p)
	.loc 7 386 2
	cmpq	$0, -16(%rbp)	#, __p
	je	.L156	#,
# /usr/include/c++/12/bits/stl_vector.h:387: 	  _Tr::deallocate(_M_impl, __p, __n);
	.loc 7 387 20
	movq	-8(%rbp), %rax	# this, _1
# /usr/include/c++/12/bits/stl_vector.h:387: 	  _Tr::deallocate(_M_impl, __p, __n);
	.loc 7 387 19
	movq	-24(%rbp), %rdx	# __n, tmp83
	movq	-16(%rbp), %rcx	# __p, tmp84
	movq	%rcx, %rsi	# tmp84,
	movq	%rax, %rdi	# _1,
	call	_ZNSt16allocator_traitsISaIlEE10deallocateERS0_Plm	#
.L156:
# /usr/include/c++/12/bits/stl_vector.h:388:       }
	.loc 7 388 7
	nop	
	leave	
	.cfi_def_cfa 7, 8
	ret	
	.cfi_endproc
.LFE3130:
	.size	_ZNSt12_Vector_baseIlSaIlEE13_M_deallocateEPlm, .-_ZNSt12_Vector_baseIlSaIlEE13_M_deallocateEPlm
	.section	.text._ZSt8_DestroyIPlEvT_S1_,"axG",@progbits,_ZSt8_DestroyIPlEvT_S1_,comdat
	.weak	_ZSt8_DestroyIPlEvT_S1_
	.type	_ZSt8_DestroyIPlEvT_S1_, @function
_ZSt8_DestroyIPlEvT_S1_:
.LFB3131:
	.loc 15 182 5
	.cfi_startproc
	pushq	%rbp	#
	.cfi_def_cfa_offset 16
	.cfi_offset 6, -16
	movq	%rsp, %rbp	#,
	.cfi_def_cfa_register 6
	subq	$16, %rsp	#,
	movq	%rdi, -8(%rbp)	# __first, __first
	movq	%rsi, -16(%rbp)	# __last, __last
# /usr/include/c++/12/bits/stl_construct.h:196: 	__destroy(__first, __last);
	.loc 15 196 11
	movq	-16(%rbp), %rdx	# __last, tmp82
	movq	-8(%rbp), %rax	# __first, tmp83
	movq	%rdx, %rsi	# tmp82,
	movq	%rax, %rdi	# tmp83,
	call	_ZNSt12_Destroy_auxILb1EE9__destroyIPlEEvT_S3_	#
# /usr/include/c++/12/bits/stl_construct.h:197:     }
	.loc 15 197 5
	nop	
	leave	
	.cfi_def_cfa 7, 8
	ret	
	.cfi_endproc
.LFE3131:
	.size	_ZSt8_DestroyIPlEvT_S1_, .-_ZSt8_DestroyIPlEvT_S1_
	.section	.text._ZNKSt6vectorIdSaIdEE4sizeEv,"axG",@progbits,_ZNKSt6vectorIdSaIdEE4sizeEv,comdat
	.align 2
	.weak	_ZNKSt6vectorIdSaIdEE4sizeEv
	.type	_ZNKSt6vectorIdSaIdEE4sizeEv, @function
_ZNKSt6vectorIdSaIdEE4sizeEv:
.LFB3132:
	.loc 7 987 7
	.cfi_startproc
	pushq	%rbp	#
	.cfi_def_cfa_offset 16
	.cfi_offset 6, -16
	movq	%rsp, %rbp	#,
	.cfi_def_cfa_register 6
	movq	%rdi, -8(%rbp)	# this, this
# /usr/include/c++/12/bits/stl_vector.h:988:       { return size_type(this->_M_impl._M_finish - this->_M_impl._M_start); }
	.loc 7 988 40
	movq	-8(%rbp), %rax	# this, tmp88
	movq	8(%rax), %rdx	# this_6(D)->D.58674._M_impl.D.58013._M_finish, _1
# /usr/include/c++/12/bits/stl_vector.h:988:       { return size_type(this->_M_impl._M_finish - this->_M_impl._M_start); }
	.loc 7 988 66
	movq	-8(%rbp), %rax	# this, tmp89
	movq	(%rax), %rax	# this_6(D)->D.58674._M_impl.D.58013._M_start, _2
# /usr/include/c++/12/bits/stl_vector.h:988:       { return size_type(this->_M_impl._M_finish - this->_M_impl._M_start); }
	.loc 7 988 50
	subq	%rax, %rdx	# _2, _3
	movq	%rdx, %rax	# _3, _3
	sarq	$3, %rax	#, _3
# /usr/include/c++/12/bits/stl_vector.h:988:       { return size_type(this->_M_impl._M_finish - this->_M_impl._M_start); }
	.loc 7 988 77
	popq	%rbp	#
	.cfi_def_cfa 7, 8
	ret	
	.cfi_endproc
.LFE3132:
	.size	_ZNKSt6vectorIdSaIdEE4sizeEv, .-_ZNKSt6vectorIdSaIdEE4sizeEv
	.section	.text._ZNSt12_Vector_baseIlSaIlEE17_Vector_impl_dataC2Ev,"axG",@progbits,_ZNSt12_Vector_baseIlSaIlEE17_Vector_impl_dataC5Ev,comdat
	.align 2
	.weak	_ZNSt12_Vector_baseIlSaIlEE17_Vector_impl_dataC2Ev
	.type	_ZNSt12_Vector_baseIlSaIlEE17_Vector_impl_dataC2Ev, @function
_ZNSt12_Vector_baseIlSaIlEE17_Vector_impl_dataC2Ev:
.LFB3134:
	.loc 7 99 2
	.cfi_startproc
	pushq	%rbp	#
	.cfi_def_cfa_offset 16
	.cfi_offset 6, -16
	movq	%rsp, %rbp	#,
	.cfi_def_cfa_register 6
	movq	%rdi, -8(%rbp)	# this, this
.LBB32:
# /usr/include/c++/12/bits/stl_vector.h:100: 	: _M_start(), _M_finish(), _M_end_of_storage()
	.loc 7 100 4
	movq	-8(%rbp), %rax	# this, tmp82
	movq	$0, (%rax)	#, this_2(D)->_M_start
# /usr/include/c++/12/bits/stl_vector.h:100: 	: _M_start(), _M_finish(), _M_end_of_storage()
	.loc 7 100 16
	movq	-8(%rbp), %rax	# this, tmp83
	movq	$0, 8(%rax)	#, this_2(D)->_M_finish
# /usr/include/c++/12/bits/stl_vector.h:100: 	: _M_start(), _M_finish(), _M_end_of_storage()
	.loc 7 100 29
	movq	-8(%rbp), %rax	# this, tmp84
	movq	$0, 16(%rax)	#, this_2(D)->_M_end_of_storage
.LBE32:
# /usr/include/c++/12/bits/stl_vector.h:101: 	{ }
	.loc 7 101 4
	nop	
	popq	%rbp	#
	.cfi_def_cfa 7, 8
	ret	
	.cfi_endproc
.LFE3134:
	.size	_ZNSt12_Vector_baseIlSaIlEE17_Vector_impl_dataC2Ev, .-_ZNSt12_Vector_baseIlSaIlEE17_Vector_impl_dataC2Ev
	.weak	_ZNSt12_Vector_baseIlSaIlEE17_Vector_impl_dataC1Ev
	.set	_ZNSt12_Vector_baseIlSaIlEE17_Vector_impl_dataC1Ev,_ZNSt12_Vector_baseIlSaIlEE17_Vector_impl_dataC2Ev
	.section	.text._ZNK9container6tensorIdJLl2ELl3ELl5EEE5shapeEv,"axG",@progbits,_ZNK9container6tensorIdJLl2ELl3ELl5EEE5shapeEv,comdat
	.align 2
	.weak	_ZNK9container6tensorIdJLl2ELl3ELl5EEE5shapeEv
	.type	_ZNK9container6tensorIdJLl2ELl3ELl5EEE5shapeEv, @function
_ZNK9container6tensorIdJLl2ELl3ELl5EEE5shapeEv:
.LFB3136:
	.loc 5 84 32
	.cfi_startproc
	.cfi_personality 0x9b,DW.ref.__gxx_personality_v0
	.cfi_lsda 0x1b,.LLSDA3136
	pushq	%rbp	#
	.cfi_def_cfa_offset 16
	.cfi_offset 6, -16
	movq	%rsp, %rbp	#,
	.cfi_def_cfa_register 6
	subq	$16, %rsp	#,
	movq	%rdi, -8(%rbp)	# .result_ptr, .result_ptr
	movq	%rsi, -16(%rbp)	# this, this
# src/Tensor/Tensor.hpp:86:             return this->_dims;
	.loc 5 86 26
	movq	-16(%rbp), %rax	# this, tmp83
	leaq	24(%rax), %rdx	#, _1
	movq	-8(%rbp), %rax	# <retval>, tmp84
	movq	%rdx, %rsi	# _1,
	movq	%rax, %rdi	# tmp84,
	call	_ZNSt6vectorIlSaIlEEC1ERKS1_	#
# src/Tensor/Tensor.hpp:87:         }
	.loc 5 87 9
	movq	-8(%rbp), %rax	# <retval>,
	leave	
	.cfi_def_cfa 7, 8
	ret	
	.cfi_endproc
.LFE3136:
	.section	.gcc_except_table
.LLSDA3136:
	.byte	0xff
	.byte	0xff
	.byte	0x1
	.uleb128 .LLSDACSE3136-.LLSDACSB3136
.LLSDACSB3136:
.LLSDACSE3136:
	.section	.text._ZNK9container6tensorIdJLl2ELl3ELl5EEE5shapeEv,"axG",@progbits,_ZNK9container6tensorIdJLl2ELl3ELl5EEE5shapeEv,comdat
	.size	_ZNK9container6tensorIdJLl2ELl3ELl5EEE5shapeEv, .-_ZNK9container6tensorIdJLl2ELl3ELl5EEE5shapeEv
	.section	.text._ZSt4moveIRSt6vectorIlSaIlEEEONSt16remove_referenceIT_E4typeEOS5_,"axG",@progbits,_ZSt4moveIRSt6vectorIlSaIlEEEONSt16remove_referenceIT_E4typeEOS5_,comdat
	.weak	_ZSt4moveIRSt6vectorIlSaIlEEEONSt16remove_referenceIT_E4typeEOS5_
	.type	_ZSt4moveIRSt6vectorIlSaIlEEEONSt16remove_referenceIT_E4typeEOS5_, @function
_ZSt4moveIRSt6vectorIlSaIlEEEONSt16remove_referenceIT_E4typeEOS5_:
.LFB3137:
	.loc 8 104 5
	.cfi_startproc
	pushq	%rbp	#
	.cfi_def_cfa_offset 16
	.cfi_offset 6, -16
	movq	%rsp, %rbp	#,
	.cfi_def_cfa_register 6
	movq	%rdi, -8(%rbp)	# __t, __t
# /usr/include/c++/12/bits/move.h:105:     { return static_cast<typename std::remove_reference<_Tp>::type&&>(__t); }
	.loc 8 105 74
	movq	-8(%rbp), %rax	# __t, _2
# /usr/include/c++/12/bits/move.h:105:     { return static_cast<typename std::remove_reference<_Tp>::type&&>(__t); }
	.loc 8 105 77
	popq	%rbp	#
	.cfi_def_cfa 7, 8
	ret	
	.cfi_endproc
.LFE3137:
	.size	_ZSt4moveIRSt6vectorIlSaIlEEEONSt16remove_referenceIT_E4typeEOS5_, .-_ZSt4moveIRSt6vectorIlSaIlEEEONSt16remove_referenceIT_E4typeEOS5_
	.section	.text._ZNSt6vectorIlSaIlEEaSEOS1_,"axG",@progbits,_ZNSt6vectorIlSaIlEEaSEOS1_,comdat
	.align 2
	.weak	_ZNSt6vectorIlSaIlEEaSEOS1_
	.type	_ZNSt6vectorIlSaIlEEaSEOS1_, @function
_ZNSt6vectorIlSaIlEEaSEOS1_:
.LFB3138:
	.loc 7 761 7
	.cfi_startproc
	pushq	%rbp	#
	.cfi_def_cfa_offset 16
	.cfi_offset 6, -16
	movq	%rsp, %rbp	#,
	.cfi_def_cfa_register 6
	subq	$32, %rsp	#,
	movq	%rdi, -24(%rbp)	# this, this
	movq	%rsi, -32(%rbp)	# __x, __x
# /usr/include/c++/12/bits/stl_vector.h:763: 	constexpr bool __move_storage =
	.loc 7 763 17
	movb	$1, -1(%rbp)	#, __move_storage
# /usr/include/c++/12/bits/stl_vector.h:766: 	_M_move_assign(std::move(__x), __bool_constant<__move_storage>());
	.loc 7 766 26
	movq	-32(%rbp), %rax	# __x, tmp86
	movq	%rax, %rdi	# tmp86,
	call	_ZSt4moveIRSt6vectorIlSaIlEEEONSt16remove_referenceIT_E4typeEOS5_	#
	movq	%rax, %rdx	#, _1
# /usr/include/c++/12/bits/stl_vector.h:766: 	_M_move_assign(std::move(__x), __bool_constant<__move_storage>());
	.loc 7 766 16
	movq	-24(%rbp), %rax	# this, tmp87
	movq	%rdx, %rsi	# _1,
	movq	%rax, %rdi	# tmp87,
	call	_ZNSt6vectorIlSaIlEE14_M_move_assignEOS1_St17integral_constantIbLb1EE	#
# /usr/include/c++/12/bits/stl_vector.h:767: 	return *this;
	.loc 7 767 10
	movq	-24(%rbp), %rax	# this, _8
# /usr/include/c++/12/bits/stl_vector.h:768:       }
	.loc 7 768 7
	leave	
	.cfi_def_cfa 7, 8
	ret	
	.cfi_endproc
.LFE3138:
	.size	_ZNSt6vectorIlSaIlEEaSEOS1_, .-_ZNSt6vectorIlSaIlEEaSEOS1_
	.section	.text._ZNKSt6vectorIdSaIdEE5beginEv,"axG",@progbits,_ZNKSt6vectorIdSaIdEE5beginEv,comdat
	.align 2
	.weak	_ZNKSt6vectorIdSaIdEE5beginEv
	.type	_ZNKSt6vectorIdSaIdEE5beginEv, @function
_ZNKSt6vectorIdSaIdEE5beginEv:
.LFB3139:
	.loc 7 878 7
	.cfi_startproc
	pushq	%rbp	#
	.cfi_def_cfa_offset 16
	.cfi_offset 6, -16
	movq	%rsp, %rbp	#,
	.cfi_def_cfa_register 6
	subq	$32, %rsp	#,
	movq	%rdi, -24(%rbp)	# this, this
# /usr/include/c++/12/bits/stl_vector.h:879:       { return const_iterator(this->_M_impl._M_start); }
	.loc 7 879 45
	movq	-24(%rbp), %rdx	# this, _1
# /usr/include/c++/12/bits/stl_vector.h:879:       { return const_iterator(this->_M_impl._M_start); }
	.loc 7 879 16
	leaq	-8(%rbp), %rax	#, tmp85
	movq	%rdx, %rsi	# _1,
	movq	%rax, %rdi	# tmp85,
	call	_ZN9__gnu_cxx17__normal_iteratorIPKdSt6vectorIdSaIdEEEC1ERKS2_	#
# /usr/include/c++/12/bits/stl_vector.h:879:       { return const_iterator(this->_M_impl._M_start); }
	.loc 7 879 53
	movq	-8(%rbp), %rax	# D.65080, D.68063
# /usr/include/c++/12/bits/stl_vector.h:879:       { return const_iterator(this->_M_impl._M_start); }
	.loc 7 879 56
	leave	
	.cfi_def_cfa 7, 8
	ret	
	.cfi_endproc
.LFE3139:
	.size	_ZNKSt6vectorIdSaIdEE5beginEv, .-_ZNKSt6vectorIdSaIdEE5beginEv
	.section	.text._ZNKSt6vectorIdSaIdEE3endEv,"axG",@progbits,_ZNKSt6vectorIdSaIdEE3endEv,comdat
	.align 2
	.weak	_ZNKSt6vectorIdSaIdEE3endEv
	.type	_ZNKSt6vectorIdSaIdEE3endEv, @function
_ZNKSt6vectorIdSaIdEE3endEv:
.LFB3140:
	.loc 7 898 7
	.cfi_startproc
	pushq	%rbp	#
	.cfi_def_cfa_offset 16
	.cfi_offset 6, -16
	movq	%rsp, %rbp	#,
	.cfi_def_cfa_register 6
	subq	$32, %rsp	#,
	movq	%rdi, -24(%rbp)	# this, this
# /usr/include/c++/12/bits/stl_vector.h:899:       { return const_iterator(this->_M_impl._M_finish); }
	.loc 7 899 45
	movq	-24(%rbp), %rax	# this, tmp85
	leaq	8(%rax), %rdx	#, _1
# /usr/include/c++/12/bits/stl_vector.h:899:       { return const_iterator(this->_M_impl._M_finish); }
	.loc 7 899 16
	leaq	-8(%rbp), %rax	#, tmp86
	movq	%rdx, %rsi	# _1,
	movq	%rax, %rdi	# tmp86,
	call	_ZN9__gnu_cxx17__normal_iteratorIPKdSt6vectorIdSaIdEEEC1ERKS2_	#
# /usr/include/c++/12/bits/stl_vector.h:899:       { return const_iterator(this->_M_impl._M_finish); }
	.loc 7 899 54
	movq	-8(%rbp), %rax	# D.65082, D.68058
# /usr/include/c++/12/bits/stl_vector.h:899:       { return const_iterator(this->_M_impl._M_finish); }
	.loc 7 899 57
	leave	
	.cfi_def_cfa 7, 8
	ret	
	.cfi_endproc
.LFE3140:
	.size	_ZNKSt6vectorIdSaIdEE3endEv, .-_ZNKSt6vectorIdSaIdEE3endEv
	.section	.text._ZNSt6vectorIdSaIdEE5beginEv,"axG",@progbits,_ZNSt6vectorIdSaIdEE5beginEv,comdat
	.align 2
	.weak	_ZNSt6vectorIdSaIdEE5beginEv
	.type	_ZNSt6vectorIdSaIdEE5beginEv, @function
_ZNSt6vectorIdSaIdEE5beginEv:
.LFB3141:
	.loc 7 868 7
	.cfi_startproc
	pushq	%rbp	#
	.cfi_def_cfa_offset 16
	.cfi_offset 6, -16
	movq	%rsp, %rbp	#,
	.cfi_def_cfa_register 6
	subq	$32, %rsp	#,
	movq	%rdi, -24(%rbp)	# this, this
# /usr/include/c++/12/bits/stl_vector.h:869:       { return iterator(this->_M_impl._M_start); }
	.loc 7 869 39
	movq	-24(%rbp), %rdx	# this, _1
# /usr/include/c++/12/bits/stl_vector.h:869:       { return iterator(this->_M_impl._M_start); }
	.loc 7 869 16
	leaq	-8(%rbp), %rax	#, tmp85
	movq	%rdx, %rsi	# _1,
	movq	%rax, %rdi	# tmp85,
	call	_ZN9__gnu_cxx17__normal_iteratorIPdSt6vectorIdSaIdEEEC1ERKS1_	#
# /usr/include/c++/12/bits/stl_vector.h:869:       { return iterator(this->_M_impl._M_start); }
	.loc 7 869 47
	movq	-8(%rbp), %rax	# D.65102, D.68053
# /usr/include/c++/12/bits/stl_vector.h:869:       { return iterator(this->_M_impl._M_start); }
	.loc 7 869 50
	leave	
	.cfi_def_cfa 7, 8
	ret	
	.cfi_endproc
.LFE3141:
	.size	_ZNSt6vectorIdSaIdEE5beginEv, .-_ZNSt6vectorIdSaIdEE5beginEv
	.section	.text._ZSt4copyIN9__gnu_cxx17__normal_iteratorIPKdSt6vectorIdSaIdEEEENS1_IPdS6_EEET0_T_SB_SA_,"axG",@progbits,_ZSt4copyIN9__gnu_cxx17__normal_iteratorIPKdSt6vectorIdSaIdEEEENS1_IPdS6_EEET0_T_SB_SA_,comdat
	.weak	_ZSt4copyIN9__gnu_cxx17__normal_iteratorIPKdSt6vectorIdSaIdEEEENS1_IPdS6_EEET0_T_SB_SA_
	.type	_ZSt4copyIN9__gnu_cxx17__normal_iteratorIPKdSt6vectorIdSaIdEEEENS1_IPdS6_EEET0_T_SB_SA_, @function
_ZSt4copyIN9__gnu_cxx17__normal_iteratorIPKdSt6vectorIdSaIdEEEENS1_IPdS6_EEET0_T_SB_SA_:
.LFB3142:
	.loc 2 611 5
	.cfi_startproc
	pushq	%rbp	#
	.cfi_def_cfa_offset 16
	.cfi_offset 6, -16
	movq	%rsp, %rbp	#,
	.cfi_def_cfa_register 6
	pushq	%rbx	#
	subq	$40, %rsp	#,
	.cfi_offset 3, -24
	movq	%rdi, -24(%rbp)	# __first, __first
	movq	%rsi, -32(%rbp)	# __last, __last
	movq	%rdx, -40(%rbp)	# __result, __result
# /usr/include/c++/12/bits/stl_algobase.h:620: 	     (std::__miter_base(__first), std::__miter_base(__last), __result);
	.loc 2 620 7
	movq	-32(%rbp), %rax	# __last, tmp86
	movq	%rax, %rdi	# tmp86,
	call	_ZSt12__miter_baseIN9__gnu_cxx17__normal_iteratorIPKdSt6vectorIdSaIdEEEEET_S8_	#
	movq	%rax, %rbx	#, D.68067
	movq	-24(%rbp), %rax	# __first, tmp87
	movq	%rax, %rdi	# tmp87,
	call	_ZSt12__miter_baseIN9__gnu_cxx17__normal_iteratorIPKdSt6vectorIdSaIdEEEEET_S8_	#
	movq	%rax, %rcx	#, D.68068
	movq	-40(%rbp), %rax	# __result, tmp88
	movq	%rax, %rdx	# tmp88,
	movq	%rbx, %rsi	# D.68067,
	movq	%rcx, %rdi	# D.68068,
	call	_ZSt13__copy_move_aILb0EN9__gnu_cxx17__normal_iteratorIPKdSt6vectorIdSaIdEEEENS1_IPdS6_EEET1_T0_SB_SA_	#
# /usr/include/c++/12/bits/stl_algobase.h:621:     }
	.loc 2 621 5
	movq	-8(%rbp), %rbx	#,
	leave	
	.cfi_def_cfa 7, 8
	ret	
	.cfi_endproc
.LFE3142:
	.size	_ZSt4copyIN9__gnu_cxx17__normal_iteratorIPKdSt6vectorIdSaIdEEEENS1_IPdS6_EEET0_T_SB_SA_, .-_ZSt4copyIN9__gnu_cxx17__normal_iteratorIPKdSt6vectorIdSaIdEEEENS1_IPdS6_EEET0_T_SB_SA_
	.section	.text._ZNK9container6tensorIdJEE5shapeEv,"axG",@progbits,_ZNK9container6tensorIdJEE5shapeEv,comdat
	.align 2
	.weak	_ZNK9container6tensorIdJEE5shapeEv
	.type	_ZNK9container6tensorIdJEE5shapeEv, @function
_ZNK9container6tensorIdJEE5shapeEv:
.LFB3143:
	.loc 5 84 32
	.cfi_startproc
	.cfi_personality 0x9b,DW.ref.__gxx_personality_v0
	.cfi_lsda 0x1b,.LLSDA3143
	pushq	%rbp	#
	.cfi_def_cfa_offset 16
	.cfi_offset 6, -16
	movq	%rsp, %rbp	#,
	.cfi_def_cfa_register 6
	subq	$16, %rsp	#,
	movq	%rdi, -8(%rbp)	# .result_ptr, .result_ptr
	movq	%rsi, -16(%rbp)	# this, this
# src/Tensor/Tensor.hpp:86:             return this->_dims;
	.loc 5 86 26
	movq	-16(%rbp), %rax	# this, tmp83
	leaq	24(%rax), %rdx	#, _1
	movq	-8(%rbp), %rax	# <retval>, tmp84
	movq	%rdx, %rsi	# _1,
	movq	%rax, %rdi	# tmp84,
	call	_ZNSt6vectorIlSaIlEEC1ERKS1_	#
# src/Tensor/Tensor.hpp:87:         }
	.loc 5 87 9
	movq	-8(%rbp), %rax	# <retval>,
	leave	
	.cfi_def_cfa 7, 8
	ret	
	.cfi_endproc
.LFE3143:
	.section	.gcc_except_table
.LLSDA3143:
	.byte	0xff
	.byte	0xff
	.byte	0x1
	.uleb128 .LLSDACSE3143-.LLSDACSB3143
.LLSDACSB3143:
.LLSDACSE3143:
	.section	.text._ZNK9container6tensorIdJEE5shapeEv,"axG",@progbits,_ZNK9container6tensorIdJEE5shapeEv,comdat
	.size	_ZNK9container6tensorIdJEE5shapeEv, .-_ZNK9container6tensorIdJEE5shapeEv
	.section	.text._ZSt4moveISt6vectorIlSaIlEEEONSt16remove_referenceIT_E4typeEOS4_,"axG",@progbits,_ZSt4moveISt6vectorIlSaIlEEEONSt16remove_referenceIT_E4typeEOS4_,comdat
	.weak	_ZSt4moveISt6vectorIlSaIlEEEONSt16remove_referenceIT_E4typeEOS4_
	.type	_ZSt4moveISt6vectorIlSaIlEEEONSt16remove_referenceIT_E4typeEOS4_, @function
_ZSt4moveISt6vectorIlSaIlEEEONSt16remove_referenceIT_E4typeEOS4_:
.LFB3144:
	.loc 8 104 5
	.cfi_startproc
	pushq	%rbp	#
	.cfi_def_cfa_offset 16
	.cfi_offset 6, -16
	movq	%rsp, %rbp	#,
	.cfi_def_cfa_register 6
	movq	%rdi, -8(%rbp)	# __t, __t
# /usr/include/c++/12/bits/move.h:105:     { return static_cast<typename std::remove_reference<_Tp>::type&&>(__t); }
	.loc 8 105 74
	movq	-8(%rbp), %rax	# __t, _2
# /usr/include/c++/12/bits/move.h:105:     { return static_cast<typename std::remove_reference<_Tp>::type&&>(__t); }
	.loc 8 105 77
	popq	%rbp	#
	.cfi_def_cfa 7, 8
	ret	
	.cfi_endproc
.LFE3144:
	.size	_ZSt4moveISt6vectorIlSaIlEEEONSt16remove_referenceIT_E4typeEOS4_, .-_ZSt4moveISt6vectorIlSaIlEEEONSt16remove_referenceIT_E4typeEOS4_
	.section	.text._ZNSt12_Vector_baseIlSaIlEE12_Vector_implC2EOS2_,"axG",@progbits,_ZNSt12_Vector_baseIlSaIlEE12_Vector_implC5EOS2_,comdat
	.align 2
	.weak	_ZNSt12_Vector_baseIlSaIlEE12_Vector_implC2EOS2_
	.type	_ZNSt12_Vector_baseIlSaIlEE12_Vector_implC2EOS2_, @function
_ZNSt12_Vector_baseIlSaIlEE12_Vector_implC2EOS2_:
.LFB3146:
	.loc 7 151 2
	.cfi_startproc
	pushq	%rbp	#
	.cfi_def_cfa_offset 16
	.cfi_offset 6, -16
	movq	%rsp, %rbp	#,
	.cfi_def_cfa_register 6
	pushq	%rbx	#
	subq	$24, %rsp	#,
	.cfi_offset 3, -24
	movq	%rdi, -24(%rbp)	# this, this
	movq	%rsi, -32(%rbp)	# __x, __x
.LBB33:
# /usr/include/c++/12/bits/stl_vector.h:152: 	: _Tp_alloc_type(std::move(__x)), _Vector_impl_data(std::move(__x))
	.loc 7 152 28
	movq	-32(%rbp), %rax	# __x, tmp86
	movq	%rax, %rdi	# tmp86,
	call	_ZSt4moveIRNSt12_Vector_baseIlSaIlEE12_Vector_implEEONSt16remove_referenceIT_E4typeEOS6_	#
	movq	%rax, %rdx	#, _1
# /usr/include/c++/12/bits/stl_vector.h:152: 	: _Tp_alloc_type(std::move(__x)), _Vector_impl_data(std::move(__x))
	.loc 7 152 68
	movq	-24(%rbp), %rax	# this, tmp87
	movq	%rdx, %rsi	# _1,
	movq	%rax, %rdi	# tmp87,
	call	_ZNSaIlEC2ERKS_	#
	movq	-24(%rbp), %rbx	# this, _2
# /usr/include/c++/12/bits/stl_vector.h:152: 	: _Tp_alloc_type(std::move(__x)), _Vector_impl_data(std::move(__x))
	.loc 7 152 63
	movq	-32(%rbp), %rax	# __x, tmp88
	movq	%rax, %rdi	# tmp88,
	call	_ZSt4moveIRNSt12_Vector_baseIlSaIlEE12_Vector_implEEONSt16remove_referenceIT_E4typeEOS6_	#
# /usr/include/c++/12/bits/stl_vector.h:152: 	: _Tp_alloc_type(std::move(__x)), _Vector_impl_data(std::move(__x))
	.loc 7 152 68
	movq	%rax, %rsi	# _4,
	movq	%rbx, %rdi	# _2,
	call	_ZNSt12_Vector_baseIlSaIlEE17_Vector_impl_dataC2EOS2_	#
.LBE33:
# /usr/include/c++/12/bits/stl_vector.h:153: 	{ }
	.loc 7 153 4
	nop	
	movq	-8(%rbp), %rbx	#,
	leave	
	.cfi_def_cfa 7, 8
	ret	
	.cfi_endproc
.LFE3146:
	.size	_ZNSt12_Vector_baseIlSaIlEE12_Vector_implC2EOS2_, .-_ZNSt12_Vector_baseIlSaIlEE12_Vector_implC2EOS2_
	.weak	_ZNSt12_Vector_baseIlSaIlEE12_Vector_implC1EOS2_
	.set	_ZNSt12_Vector_baseIlSaIlEE12_Vector_implC1EOS2_,_ZNSt12_Vector_baseIlSaIlEE12_Vector_implC2EOS2_
	.section	.text._ZSt5equalIN9__gnu_cxx17__normal_iteratorIPlSt6vectorIlSaIlEEEES6_EbT_S7_T0_S8_,"axG",@progbits,_ZSt5equalIN9__gnu_cxx17__normal_iteratorIPlSt6vectorIlSaIlEEEES6_EbT_S7_T0_S8_,comdat
	.weak	_ZSt5equalIN9__gnu_cxx17__normal_iteratorIPlSt6vectorIlSaIlEEEES6_EbT_S7_T0_S8_
	.type	_ZSt5equalIN9__gnu_cxx17__normal_iteratorIPlSt6vectorIlSaIlEEEES6_EbT_S7_T0_S8_, @function
_ZSt5equalIN9__gnu_cxx17__normal_iteratorIPlSt6vectorIlSaIlEEEES6_EbT_S7_T0_S8_:
.LFB3148:
	.loc 2 1666 5
	.cfi_startproc
	pushq	%rbp	#
	.cfi_def_cfa_offset 16
	.cfi_offset 6, -16
	movq	%rsp, %rbp	#,
	.cfi_def_cfa_register 6
	subq	$32, %rsp	#,
	movq	%rdi, -8(%rbp)	# __first1, __first1
	movq	%rsi, -16(%rbp)	# __last1, __last1
	movq	%rdx, -24(%rbp)	# __first2, __first2
	movq	%rcx, -32(%rbp)	# __last2, __last2
# /usr/include/c++/12/bits/stl_algobase.h:1677:       return _GLIBCXX_STD_A::__equal4(__first1, __last1, __first2, __last2);
	.loc 2 1677 38
	movq	-32(%rbp), %rcx	# __last2, tmp84
	movq	-24(%rbp), %rdx	# __first2, tmp85
	movq	-16(%rbp), %rsi	# __last1, tmp86
	movq	-8(%rbp), %rax	# __first1, tmp87
	movq	%rax, %rdi	# tmp87,
	call	_ZSt8__equal4IN9__gnu_cxx17__normal_iteratorIPlSt6vectorIlSaIlEEEES6_EbT_S7_T0_S8_	#
# /usr/include/c++/12/bits/stl_algobase.h:1678:     }
	.loc 2 1678 5
	leave	
	.cfi_def_cfa 7, 8
	ret	
	.cfi_endproc
.LFE3148:
	.size	_ZSt5equalIN9__gnu_cxx17__normal_iteratorIPlSt6vectorIlSaIlEEEES6_EbT_S7_T0_S8_, .-_ZSt5equalIN9__gnu_cxx17__normal_iteratorIPlSt6vectorIlSaIlEEEES6_EbT_S7_T0_S8_
	.section	.text._ZNK9container6tensorIdJEE4sizeEv,"axG",@progbits,_ZNK9container6tensorIdJEE4sizeEv,comdat
	.align 2
	.weak	_ZNK9container6tensorIdJEE4sizeEv
	.type	_ZNK9container6tensorIdJEE4sizeEv, @function
_ZNK9container6tensorIdJEE4sizeEv:
.LFB3149:
	.loc 5 79 19
	.cfi_startproc
	pushq	%rbp	#
	.cfi_def_cfa_offset 16
	.cfi_offset 6, -16
	movq	%rsp, %rbp	#,
	.cfi_def_cfa_register 6
	subq	$16, %rsp	#,
	movq	%rdi, -8(%rbp)	# this, this
# src/Tensor/Tensor.hpp:81:             return this->_data.size();
	.loc 5 81 36
	movq	-8(%rbp), %rax	# this, _1
	movq	%rax, %rdi	# _1,
	call	_ZNKSt6vectorIdSaIdEE4sizeEv	#
# src/Tensor/Tensor.hpp:82:         }
	.loc 5 82 9
	leave	
	.cfi_def_cfa 7, 8
	ret	
	.cfi_endproc
.LFE3149:
	.size	_ZNK9container6tensorIdJEE4sizeEv, .-_ZNK9container6tensorIdJEE4sizeEv
	.section	.text._ZSt4moveIN9__gnu_cxx17__normal_iteratorIPKdSt6vectorIdSaIdEEEENS1_IPdS6_EEET0_T_SB_SA_,"axG",@progbits,_ZSt4moveIN9__gnu_cxx17__normal_iteratorIPKdSt6vectorIdSaIdEEEENS1_IPdS6_EEET0_T_SB_SA_,comdat
	.weak	_ZSt4moveIN9__gnu_cxx17__normal_iteratorIPKdSt6vectorIdSaIdEEEENS1_IPdS6_EEET0_T_SB_SA_
	.type	_ZSt4moveIN9__gnu_cxx17__normal_iteratorIPKdSt6vectorIdSaIdEEEENS1_IPdS6_EEET0_T_SB_SA_, @function
_ZSt4moveIN9__gnu_cxx17__normal_iteratorIPKdSt6vectorIdSaIdEEEENS1_IPdS6_EEET0_T_SB_SA_:
.LFB3150:
	.loc 2 644 5
	.cfi_startproc
	pushq	%rbp	#
	.cfi_def_cfa_offset 16
	.cfi_offset 6, -16
	movq	%rsp, %rbp	#,
	.cfi_def_cfa_register 6
	pushq	%rbx	#
	subq	$40, %rsp	#,
	.cfi_offset 3, -24
	movq	%rdi, -24(%rbp)	# __first, __first
	movq	%rsi, -32(%rbp)	# __last, __last
	movq	%rdx, -40(%rbp)	# __result, __result
# /usr/include/c++/12/bits/stl_algobase.h:652:       return std::__copy_move_a<true>(std::__miter_base(__first),
	.loc 2 652 38
	movq	-32(%rbp), %rax	# __last, tmp86
	movq	%rax, %rdi	# tmp86,
	call	_ZSt12__miter_baseIN9__gnu_cxx17__normal_iteratorIPKdSt6vectorIdSaIdEEEEET_S8_	#
	movq	%rax, %rbx	#, D.68190
	movq	-24(%rbp), %rax	# __first, tmp87
	movq	%rax, %rdi	# tmp87,
	call	_ZSt12__miter_baseIN9__gnu_cxx17__normal_iteratorIPKdSt6vectorIdSaIdEEEEET_S8_	#
	movq	%rax, %rcx	#, D.68191
	movq	-40(%rbp), %rax	# __result, tmp88
	movq	%rax, %rdx	# tmp88,
	movq	%rbx, %rsi	# D.68190,
	movq	%rcx, %rdi	# D.68191,
	call	_ZSt13__copy_move_aILb1EN9__gnu_cxx17__normal_iteratorIPKdSt6vectorIdSaIdEEEENS1_IPdS6_EEET1_T0_SB_SA_	#
# /usr/include/c++/12/bits/stl_algobase.h:654:     }
	.loc 2 654 5
	movq	-8(%rbp), %rbx	#,
	leave	
	.cfi_def_cfa 7, 8
	ret	
	.cfi_endproc
.LFE3150:
	.size	_ZSt4moveIN9__gnu_cxx17__normal_iteratorIPKdSt6vectorIdSaIdEEEENS1_IPdS6_EEET0_T_SB_SA_, .-_ZSt4moveIN9__gnu_cxx17__normal_iteratorIPKdSt6vectorIdSaIdEEEENS1_IPdS6_EEET0_T_SB_SA_
	.section	.text._ZNSt15__new_allocatorIdEC2Ev,"axG",@progbits,_ZNSt15__new_allocatorIdEC5Ev,comdat
	.align 2
	.weak	_ZNSt15__new_allocatorIdEC2Ev
	.type	_ZNSt15__new_allocatorIdEC2Ev, @function
_ZNSt15__new_allocatorIdEC2Ev:
.LFB3206:
	.loc 11 80 7
	.cfi_startproc
	pushq	%rbp	#
	.cfi_def_cfa_offset 16
	.cfi_offset 6, -16
	movq	%rsp, %rbp	#,
	.cfi_def_cfa_register 6
	movq	%rdi, -8(%rbp)	# this, this
# /usr/include/c++/12/bits/new_allocator.h:80:       __new_allocator() _GLIBCXX_USE_NOEXCEPT { }
	.loc 11 80 49
	nop	
	popq	%rbp	#
	.cfi_def_cfa 7, 8
	ret	
	.cfi_endproc
.LFE3206:
	.size	_ZNSt15__new_allocatorIdEC2Ev, .-_ZNSt15__new_allocatorIdEC2Ev
	.weak	_ZNSt15__new_allocatorIdEC1Ev
	.set	_ZNSt15__new_allocatorIdEC1Ev,_ZNSt15__new_allocatorIdEC2Ev
	.section	.text._ZNSt16allocator_traitsISaIdEE10deallocateERS0_Pdm,"axG",@progbits,_ZNSt16allocator_traitsISaIdEE10deallocateERS0_Pdm,comdat
	.weak	_ZNSt16allocator_traitsISaIdEE10deallocateERS0_Pdm
	.type	_ZNSt16allocator_traitsISaIdEE10deallocateERS0_Pdm, @function
_ZNSt16allocator_traitsISaIdEE10deallocateERS0_Pdm:
.LFB3208:
	.loc 10 495 7
	.cfi_startproc
	pushq	%rbp	#
	.cfi_def_cfa_offset 16
	.cfi_offset 6, -16
	movq	%rsp, %rbp	#,
	.cfi_def_cfa_register 6
	subq	$32, %rsp	#,
	movq	%rdi, -8(%rbp)	# __a, __a
	movq	%rsi, -16(%rbp)	# __p, __p
	movq	%rdx, -24(%rbp)	# __n, __n
# /usr/include/c++/12/bits/alloc_traits.h:496:       { __a.deallocate(__p, __n); }
	.loc 10 496 23
	movq	-24(%rbp), %rdx	# __n, tmp82
	movq	-16(%rbp), %rcx	# __p, tmp83
	movq	-8(%rbp), %rax	# __a, tmp84
	movq	%rcx, %rsi	# tmp83,
	movq	%rax, %rdi	# tmp84,
	call	_ZNSt15__new_allocatorIdE10deallocateEPdm	#
# /usr/include/c++/12/bits/alloc_traits.h:496:       { __a.deallocate(__p, __n); }
	.loc 10 496 35
	nop	
	leave	
	.cfi_def_cfa 7, 8
	ret	
	.cfi_endproc
.LFE3208:
	.size	_ZNSt16allocator_traitsISaIdEE10deallocateERS0_Pdm, .-_ZNSt16allocator_traitsISaIdEE10deallocateERS0_Pdm
	.section	.text._ZNSt12_Vector_baseIlSaIlEE12_Vector_implC2ERKS0_,"axG",@progbits,_ZNSt12_Vector_baseIlSaIlEE12_Vector_implC5ERKS0_,comdat
	.align 2
	.weak	_ZNSt12_Vector_baseIlSaIlEE12_Vector_implC2ERKS0_
	.type	_ZNSt12_Vector_baseIlSaIlEE12_Vector_implC2ERKS0_, @function
_ZNSt12_Vector_baseIlSaIlEE12_Vector_implC2ERKS0_:
.LFB3210:
	.loc 7 143 2
	.cfi_startproc
	pushq	%rbp	#
	.cfi_def_cfa_offset 16
	.cfi_offset 6, -16
	movq	%rsp, %rbp	#,
	.cfi_def_cfa_register 6
	subq	$16, %rsp	#,
	movq	%rdi, -8(%rbp)	# this, this
	movq	%rsi, -16(%rbp)	# __a, __a
.LBB34:
# /usr/include/c++/12/bits/stl_vector.h:144: 	: _Tp_alloc_type(__a)
	.loc 7 144 22
	movq	-16(%rbp), %rdx	# __a, tmp83
	movq	-8(%rbp), %rax	# this, tmp84
	movq	%rdx, %rsi	# tmp83,
	movq	%rax, %rdi	# tmp84,
	call	_ZNSaIlEC2ERKS_	#
	movq	-8(%rbp), %rax	# this, _1
	movq	%rax, %rdi	# _1,
	call	_ZNSt12_Vector_baseIlSaIlEE17_Vector_impl_dataC2Ev	#
.LBE34:
# /usr/include/c++/12/bits/stl_vector.h:145: 	{ }
	.loc 7 145 4
	nop	
	leave	
	.cfi_def_cfa 7, 8
	ret	
	.cfi_endproc
.LFE3210:
	.size	_ZNSt12_Vector_baseIlSaIlEE12_Vector_implC2ERKS0_, .-_ZNSt12_Vector_baseIlSaIlEE12_Vector_implC2ERKS0_
	.weak	_ZNSt12_Vector_baseIlSaIlEE12_Vector_implC1ERKS0_
	.set	_ZNSt12_Vector_baseIlSaIlEE12_Vector_implC1ERKS0_,_ZNSt12_Vector_baseIlSaIlEE12_Vector_implC2ERKS0_
	.section	.text._ZNKSt16initializer_listIlE4sizeEv,"axG",@progbits,_ZNKSt16initializer_listIlE4sizeEv,comdat
	.align 2
	.weak	_ZNKSt16initializer_listIlE4sizeEv
	.type	_ZNKSt16initializer_listIlE4sizeEv, @function
_ZNKSt16initializer_listIlE4sizeEv:
.LFB3212:
	.loc 12 71 7
	.cfi_startproc
	pushq	%rbp	#
	.cfi_def_cfa_offset 16
	.cfi_offset 6, -16
	movq	%rsp, %rbp	#,
	.cfi_def_cfa_register 6
	movq	%rdi, -8(%rbp)	# this, this
# /usr/include/c++/12/initializer_list:71:       size() const noexcept { return _M_len; }
	.loc 12 71 38
	movq	-8(%rbp), %rax	# this, tmp84
	movq	8(%rax), %rax	# this_2(D)->_M_len, _3
# /usr/include/c++/12/initializer_list:71:       size() const noexcept { return _M_len; }
	.loc 12 71 46
	popq	%rbp	#
	.cfi_def_cfa 7, 8
	ret	
	.cfi_endproc
.LFE3212:
	.size	_ZNKSt16initializer_listIlE4sizeEv, .-_ZNKSt16initializer_listIlE4sizeEv
	.section	.text._ZSt19__iterator_categoryIPKlENSt15iterator_traitsIT_E17iterator_categoryERKS3_,"axG",@progbits,_ZSt19__iterator_categoryIPKlENSt15iterator_traitsIT_E17iterator_categoryERKS3_,comdat
	.weak	_ZSt19__iterator_categoryIPKlENSt15iterator_traitsIT_E17iterator_categoryERKS3_
	.type	_ZSt19__iterator_categoryIPKlENSt15iterator_traitsIT_E17iterator_categoryERKS3_, @function
_ZSt19__iterator_categoryIPKlENSt15iterator_traitsIT_E17iterator_categoryERKS3_:
.LFB3213:
	.file 16 "/usr/include/c++/12/bits/stl_iterator_base_types.h"
	.loc 16 238 5
	.cfi_startproc
	pushq	%rbp	#
	.cfi_def_cfa_offset 16
	.cfi_offset 6, -16
	movq	%rsp, %rbp	#,
	.cfi_def_cfa_register 6
	movq	%rdi, -8(%rbp)	# D.65732, D.65732
# /usr/include/c++/12/bits/stl_iterator_base_types.h:239:     { return typename iterator_traits<_Iter>::iterator_category(); }
	.loc 16 239 65
	nop	
# /usr/include/c++/12/bits/stl_iterator_base_types.h:239:     { return typename iterator_traits<_Iter>::iterator_category(); }
	.loc 16 239 68
	popq	%rbp	#
	.cfi_def_cfa 7, 8
	ret	
	.cfi_endproc
.LFE3213:
	.size	_ZSt19__iterator_categoryIPKlENSt15iterator_traitsIT_E17iterator_categoryERKS3_, .-_ZSt19__iterator_categoryIPKlENSt15iterator_traitsIT_E17iterator_categoryERKS3_
	.section	.text._ZSt10__distanceIPKlENSt15iterator_traitsIT_E15difference_typeES3_S3_St26random_access_iterator_tag,"axG",@progbits,_ZSt10__distanceIPKlENSt15iterator_traitsIT_E15difference_typeES3_S3_St26random_access_iterator_tag,comdat
	.weak	_ZSt10__distanceIPKlENSt15iterator_traitsIT_E15difference_typeES3_S3_St26random_access_iterator_tag
	.type	_ZSt10__distanceIPKlENSt15iterator_traitsIT_E15difference_typeES3_S3_St26random_access_iterator_tag, @function
_ZSt10__distanceIPKlENSt15iterator_traitsIT_E15difference_typeES3_S3_St26random_access_iterator_tag:
.LFB3214:
	.loc 13 99 5
	.cfi_startproc
	pushq	%rbp	#
	.cfi_def_cfa_offset 16
	.cfi_offset 6, -16
	movq	%rsp, %rbp	#,
	.cfi_def_cfa_register 6
	movq	%rdi, -8(%rbp)	# __first, __first
	movq	%rsi, -16(%rbp)	# __last, __last
# /usr/include/c++/12/bits/stl_iterator_base_funcs.h:105:       return __last - __first;
	.loc 13 105 21
	movq	-16(%rbp), %rax	# __last, tmp85
	subq	-8(%rbp), %rax	# __first, _1
# /usr/include/c++/12/bits/stl_iterator_base_funcs.h:105:       return __last - __first;
	.loc 13 105 23
	sarq	$3, %rax	#, tmp86
# /usr/include/c++/12/bits/stl_iterator_base_funcs.h:106:     }
	.loc 13 106 5
	popq	%rbp	#
	.cfi_def_cfa 7, 8
	ret	
	.cfi_endproc
.LFE3214:
	.size	_ZSt10__distanceIPKlENSt15iterator_traitsIT_E15difference_typeES3_S3_St26random_access_iterator_tag, .-_ZSt10__distanceIPKlENSt15iterator_traitsIT_E15difference_typeES3_S3_St26random_access_iterator_tag
	.section	.rodata
	.align 8
.LC5:
	.string	"cannot create std::vector larger than max_size()"
	.section	.text._ZNSt6vectorIlSaIlEE17_S_check_init_lenEmRKS0_,"axG",@progbits,_ZNSt6vectorIlSaIlEE17_S_check_init_lenEmRKS0_,comdat
	.weak	_ZNSt6vectorIlSaIlEE17_S_check_init_lenEmRKS0_
	.type	_ZNSt6vectorIlSaIlEE17_S_check_init_lenEmRKS0_, @function
_ZNSt6vectorIlSaIlEE17_S_check_init_lenEmRKS0_:
.LFB3215:
	.loc 7 1902 7
	.cfi_startproc
	pushq	%rbp	#
	.cfi_def_cfa_offset 16
	.cfi_offset 6, -16
	movq	%rsp, %rbp	#,
	.cfi_def_cfa_register 6
	pushq	%rbx	#
	subq	$40, %rsp	#,
	.cfi_offset 3, -24
	movq	%rdi, -40(%rbp)	# __n, __n
	movq	%rsi, -48(%rbp)	# __a, __a
# /usr/include/c++/12/bits/stl_vector.h:1904: 	if (__n > _S_max_size(_Tp_alloc_type(__a)))
	.loc 7 1904 24
	movq	-48(%rbp), %rdx	# __a, tmp86
	leaq	-17(%rbp), %rax	#, tmp87
	movq	%rdx, %rsi	# tmp86,
	movq	%rax, %rdi	# tmp87,
	call	_ZNSaIlEC1ERKS_	#
# /usr/include/c++/12/bits/stl_vector.h:1904: 	if (__n > _S_max_size(_Tp_alloc_type(__a)))
	.loc 7 1904 23
	leaq	-17(%rbp), %rax	#, tmp88
	movq	%rax, %rdi	# tmp88,
	call	_ZNSt6vectorIlSaIlEE11_S_max_sizeERKS0_	#
# /usr/include/c++/12/bits/stl_vector.h:1904: 	if (__n > _S_max_size(_Tp_alloc_type(__a)))
	.loc 7 1904 10
	cmpq	-40(%rbp), %rax	# __n, _1
	setb	%bl	#, retval.2_7
# /usr/include/c++/12/bits/stl_vector.h:1904: 	if (__n > _S_max_size(_Tp_alloc_type(__a)))
	.loc 7 1904 24
	leaq	-17(%rbp), %rax	#, tmp89
	movq	%rax, %rdi	# tmp89,
	call	_ZNSaIlED1Ev	#
# /usr/include/c++/12/bits/stl_vector.h:1904: 	if (__n > _S_max_size(_Tp_alloc_type(__a)))
	.loc 7 1904 2
	testb	%bl, %bl	# retval.2_7
	je	.L196	#,
# /usr/include/c++/12/bits/stl_vector.h:1905: 	  __throw_length_error(
	.loc 7 1905 24
	leaq	.LC5(%rip), %rax	#, tmp90
	movq	%rax, %rdi	# tmp90,
	call	_ZSt20__throw_length_errorPKc@PLT	#
.L196:
# /usr/include/c++/12/bits/stl_vector.h:1907: 	return __n;
	.loc 7 1907 9
	movq	-40(%rbp), %rax	# __n, _10
# /usr/include/c++/12/bits/stl_vector.h:1908:       }
	.loc 7 1908 7
	movq	-8(%rbp), %rbx	#,
	leave	
	.cfi_def_cfa 7, 8
	ret	
	.cfi_endproc
.LFE3215:
	.size	_ZNSt6vectorIlSaIlEE17_S_check_init_lenEmRKS0_, .-_ZNSt6vectorIlSaIlEE17_S_check_init_lenEmRKS0_
	.section	.text._ZNSt12_Vector_baseIlSaIlEE11_M_allocateEm,"axG",@progbits,_ZNSt12_Vector_baseIlSaIlEE11_M_allocateEm,comdat
	.align 2
	.weak	_ZNSt12_Vector_baseIlSaIlEE11_M_allocateEm
	.type	_ZNSt12_Vector_baseIlSaIlEE11_M_allocateEm, @function
_ZNSt12_Vector_baseIlSaIlEE11_M_allocateEm:
.LFB3216:
	.loc 7 375 7
	.cfi_startproc
	pushq	%rbp	#
	.cfi_def_cfa_offset 16
	.cfi_offset 6, -16
	movq	%rsp, %rbp	#,
	.cfi_def_cfa_register 6
	subq	$16, %rsp	#,
	movq	%rdi, -8(%rbp)	# this, this
	movq	%rsi, -16(%rbp)	# __n, __n
# /usr/include/c++/12/bits/stl_vector.h:378: 	return __n != 0 ? _Tr::allocate(_M_impl, __n) : pointer();
	.loc 7 378 18
	cmpq	$0, -16(%rbp)	#, __n
	je	.L199	#,
# /usr/include/c++/12/bits/stl_vector.h:378: 	return __n != 0 ? _Tr::allocate(_M_impl, __n) : pointer();
	.loc 7 378 34 discriminator 1
	movq	-8(%rbp), %rax	# this, _1
# /usr/include/c++/12/bits/stl_vector.h:378: 	return __n != 0 ? _Tr::allocate(_M_impl, __n) : pointer();
	.loc 7 378 33 discriminator 1
	movq	-16(%rbp), %rdx	# __n, tmp85
	movq	%rdx, %rsi	# tmp85,
	movq	%rax, %rdi	# _1,
	call	_ZNSt16allocator_traitsISaIlEE8allocateERS0_m	#
# /usr/include/c++/12/bits/stl_vector.h:378: 	return __n != 0 ? _Tr::allocate(_M_impl, __n) : pointer();
	.loc 7 378 58 discriminator 1
	jmp	.L201	#
.L199:
# /usr/include/c++/12/bits/stl_vector.h:378: 	return __n != 0 ? _Tr::allocate(_M_impl, __n) : pointer();
	.loc 7 378 18 discriminator 2
	movl	$0, %eax	#, _9
.L201:
# /usr/include/c++/12/bits/stl_vector.h:379:       }
	.loc 7 379 7 discriminator 5
	leave	
	.cfi_def_cfa 7, 8
	ret	
	.cfi_endproc
.LFE3216:
	.size	_ZNSt12_Vector_baseIlSaIlEE11_M_allocateEm, .-_ZNSt12_Vector_baseIlSaIlEE11_M_allocateEm
	.section	.text._ZSt22__uninitialized_copy_aIPKlPllET0_T_S4_S3_RSaIT1_E,"axG",@progbits,_ZSt22__uninitialized_copy_aIPKlPllET0_T_S4_S3_RSaIT1_E,comdat
	.weak	_ZSt22__uninitialized_copy_aIPKlPllET0_T_S4_S3_RSaIT1_E
	.type	_ZSt22__uninitialized_copy_aIPKlPllET0_T_S4_S3_RSaIT1_E, @function
_ZSt22__uninitialized_copy_aIPKlPllET0_T_S4_S3_RSaIT1_E:
.LFB3217:
	.file 17 "/usr/include/c++/12/bits/stl_uninitialized.h"
	.loc 17 365 5
	.cfi_startproc
	pushq	%rbp	#
	.cfi_def_cfa_offset 16
	.cfi_offset 6, -16
	movq	%rsp, %rbp	#,
	.cfi_def_cfa_register 6
	subq	$32, %rsp	#,
	movq	%rdi, -8(%rbp)	# __first, __first
	movq	%rsi, -16(%rbp)	# __last, __last
	movq	%rdx, -24(%rbp)	# __result, __result
	movq	%rcx, -32(%rbp)	# D.65757, D.65757
# /usr/include/c++/12/bits/stl_uninitialized.h:372:       return std::uninitialized_copy(__first, __last, __result);
	.loc 17 372 37
	movq	-24(%rbp), %rdx	# __result, tmp84
	movq	-16(%rbp), %rcx	# __last, tmp85
	movq	-8(%rbp), %rax	# __first, tmp86
	movq	%rcx, %rsi	# tmp85,
	movq	%rax, %rdi	# tmp86,
	call	_ZSt18uninitialized_copyIPKlPlET0_T_S4_S3_	#
# /usr/include/c++/12/bits/stl_uninitialized.h:373:     }
	.loc 17 373 5
	leave	
	.cfi_def_cfa 7, 8
	ret	
	.cfi_endproc
.LFE3217:
	.size	_ZSt22__uninitialized_copy_aIPKlPllET0_T_S4_S3_RSaIT1_E, .-_ZSt22__uninitialized_copy_aIPKlPllET0_T_S4_S3_RSaIT1_E
	.section	.text._ZN9__gnu_cxx17__normal_iteratorIPlSt6vectorIlSaIlEEEC2ERKS1_,"axG",@progbits,_ZN9__gnu_cxx17__normal_iteratorIPlSt6vectorIlSaIlEEEC5ERKS1_,comdat
	.align 2
	.weak	_ZN9__gnu_cxx17__normal_iteratorIPlSt6vectorIlSaIlEEEC2ERKS1_
	.type	_ZN9__gnu_cxx17__normal_iteratorIPlSt6vectorIlSaIlEEEC2ERKS1_, @function
_ZN9__gnu_cxx17__normal_iteratorIPlSt6vectorIlSaIlEEEC2ERKS1_:
.LFB3219:
	.file 18 "/usr/include/c++/12/bits/stl_iterator.h"
	.loc 18 1072 7
	.cfi_startproc
	pushq	%rbp	#
	.cfi_def_cfa_offset 16
	.cfi_offset 6, -16
	movq	%rsp, %rbp	#,
	.cfi_def_cfa_register 6
	movq	%rdi, -8(%rbp)	# this, this
	movq	%rsi, -16(%rbp)	# __i, __i
.LBB35:
# /usr/include/c++/12/bits/stl_iterator.h:1073:       : _M_current(__i) { }
	.loc 18 1073 9
	movq	-16(%rbp), %rax	# __i, tmp83
	movq	(%rax), %rdx	# *__i_5(D), _1
	movq	-8(%rbp), %rax	# this, tmp84
	movq	%rdx, (%rax)	# _1, this_3(D)->_M_current
.LBE35:
# /usr/include/c++/12/bits/stl_iterator.h:1073:       : _M_current(__i) { }
	.loc 18 1073 27
	nop	
	popq	%rbp	#
	.cfi_def_cfa 7, 8
	ret	
	.cfi_endproc
.LFE3219:
	.size	_ZN9__gnu_cxx17__normal_iteratorIPlSt6vectorIlSaIlEEEC2ERKS1_, .-_ZN9__gnu_cxx17__normal_iteratorIPlSt6vectorIlSaIlEEEC2ERKS1_
	.weak	_ZN9__gnu_cxx17__normal_iteratorIPlSt6vectorIlSaIlEEEC1ERKS1_
	.set	_ZN9__gnu_cxx17__normal_iteratorIPlSt6vectorIlSaIlEEEC1ERKS1_,_ZN9__gnu_cxx17__normal_iteratorIPlSt6vectorIlSaIlEEEC2ERKS1_
	.section	.text._ZN9__gnu_cxxneIPlSt6vectorIlSaIlEEEEbRKNS_17__normal_iteratorIT_T0_EESA_,"axG",@progbits,_ZN9__gnu_cxxneIPlSt6vectorIlSaIlEEEEbRKNS_17__normal_iteratorIT_T0_EESA_,comdat
	.weak	_ZN9__gnu_cxxneIPlSt6vectorIlSaIlEEEEbRKNS_17__normal_iteratorIT_T0_EESA_
	.type	_ZN9__gnu_cxxneIPlSt6vectorIlSaIlEEEEbRKNS_17__normal_iteratorIT_T0_EESA_, @function
_ZN9__gnu_cxxneIPlSt6vectorIlSaIlEEEEbRKNS_17__normal_iteratorIT_T0_EESA_:
.LFB3221:
	.loc 18 1237 5
	.cfi_startproc
	pushq	%rbp	#
	.cfi_def_cfa_offset 16
	.cfi_offset 6, -16
	movq	%rsp, %rbp	#,
	.cfi_def_cfa_register 6
	pushq	%rbx	#
	subq	$24, %rsp	#,
	.cfi_offset 3, -24
	movq	%rdi, -24(%rbp)	# __lhs, __lhs
	movq	%rsi, -32(%rbp)	# __rhs, __rhs
# /usr/include/c++/12/bits/stl_iterator.h:1240:     { return __lhs.base() != __rhs.base(); }
	.loc 18 1240 24
	movq	-24(%rbp), %rax	# __lhs, tmp88
	movq	%rax, %rdi	# tmp88,
	call	_ZNK9__gnu_cxx17__normal_iteratorIPlSt6vectorIlSaIlEEE4baseEv	#
# /usr/include/c++/12/bits/stl_iterator.h:1240:     { return __lhs.base() != __rhs.base(); }
	.loc 18 1240 27
	movq	(%rax), %rbx	# *_1, _2
# /usr/include/c++/12/bits/stl_iterator.h:1240:     { return __lhs.base() != __rhs.base(); }
	.loc 18 1240 40
	movq	-32(%rbp), %rax	# __rhs, tmp89
	movq	%rax, %rdi	# tmp89,
	call	_ZNK9__gnu_cxx17__normal_iteratorIPlSt6vectorIlSaIlEEE4baseEv	#
# /usr/include/c++/12/bits/stl_iterator.h:1240:     { return __lhs.base() != __rhs.base(); }
	.loc 18 1240 27
	movq	(%rax), %rax	# *_3, _4
# /usr/include/c++/12/bits/stl_iterator.h:1240:     { return __lhs.base() != __rhs.base(); }
	.loc 18 1240 41
	cmpq	%rax, %rbx	# _4, _2
	setne	%al	#, _10
# /usr/include/c++/12/bits/stl_iterator.h:1240:     { return __lhs.base() != __rhs.base(); }
	.loc 18 1240 44
	movq	-8(%rbp), %rbx	#,
	leave	
	.cfi_def_cfa 7, 8
	ret	
	.cfi_endproc
.LFE3221:
	.size	_ZN9__gnu_cxxneIPlSt6vectorIlSaIlEEEEbRKNS_17__normal_iteratorIT_T0_EESA_, .-_ZN9__gnu_cxxneIPlSt6vectorIlSaIlEEEEbRKNS_17__normal_iteratorIT_T0_EESA_
	.section	.text._ZN9__gnu_cxx17__normal_iteratorIPlSt6vectorIlSaIlEEEppEv,"axG",@progbits,_ZN9__gnu_cxx17__normal_iteratorIPlSt6vectorIlSaIlEEEppEv,comdat
	.align 2
	.weak	_ZN9__gnu_cxx17__normal_iteratorIPlSt6vectorIlSaIlEEEppEv
	.type	_ZN9__gnu_cxx17__normal_iteratorIPlSt6vectorIlSaIlEEEppEv, @function
_ZN9__gnu_cxx17__normal_iteratorIPlSt6vectorIlSaIlEEEppEv:
.LFB3222:
	.loc 18 1105 7
	.cfi_startproc
	pushq	%rbp	#
	.cfi_def_cfa_offset 16
	.cfi_offset 6, -16
	movq	%rsp, %rbp	#,
	.cfi_def_cfa_register 6
	movq	%rdi, -8(%rbp)	# this, this
# /usr/include/c++/12/bits/stl_iterator.h:1107: 	++_M_current;
	.loc 18 1107 4
	movq	-8(%rbp), %rax	# this, tmp86
	movq	(%rax), %rax	# this_4(D)->_M_current, _1
# /usr/include/c++/12/bits/stl_iterator.h:1107: 	++_M_current;
	.loc 18 1107 2
	leaq	8(%rax), %rdx	#, _2
	movq	-8(%rbp), %rax	# this, tmp87
	movq	%rdx, (%rax)	# _2, this_4(D)->_M_current
# /usr/include/c++/12/bits/stl_iterator.h:1108: 	return *this;
	.loc 18 1108 10
	movq	-8(%rbp), %rax	# this, _6
# /usr/include/c++/12/bits/stl_iterator.h:1109:       }
	.loc 18 1109 7
	popq	%rbp	#
	.cfi_def_cfa 7, 8
	ret	
	.cfi_endproc
.LFE3222:
	.size	_ZN9__gnu_cxx17__normal_iteratorIPlSt6vectorIlSaIlEEEppEv, .-_ZN9__gnu_cxx17__normal_iteratorIPlSt6vectorIlSaIlEEEppEv
	.section	.text._ZNK9__gnu_cxx17__normal_iteratorIPlSt6vectorIlSaIlEEEdeEv,"axG",@progbits,_ZNK9__gnu_cxx17__normal_iteratorIPlSt6vectorIlSaIlEEEdeEv,comdat
	.align 2
	.weak	_ZNK9__gnu_cxx17__normal_iteratorIPlSt6vectorIlSaIlEEEdeEv
	.type	_ZNK9__gnu_cxx17__normal_iteratorIPlSt6vectorIlSaIlEEEdeEv, @function
_ZNK9__gnu_cxx17__normal_iteratorIPlSt6vectorIlSaIlEEEdeEv:
.LFB3223:
	.loc 18 1095 7
	.cfi_startproc
	pushq	%rbp	#
	.cfi_def_cfa_offset 16
	.cfi_offset 6, -16
	movq	%rsp, %rbp	#,
	.cfi_def_cfa_register 6
	movq	%rdi, -8(%rbp)	# this, this
# /usr/include/c++/12/bits/stl_iterator.h:1096:       { return *_M_current; }
	.loc 18 1096 17
	movq	-8(%rbp), %rax	# this, tmp84
	movq	(%rax), %rax	# this_2(D)->_M_current, _3
# /usr/include/c++/12/bits/stl_iterator.h:1096:       { return *_M_current; }
	.loc 18 1096 29
	popq	%rbp	#
	.cfi_def_cfa 7, 8
	ret	
	.cfi_endproc
.LFE3223:
	.size	_ZNK9__gnu_cxx17__normal_iteratorIPlSt6vectorIlSaIlEEEdeEv, .-_ZNK9__gnu_cxx17__normal_iteratorIPlSt6vectorIlSaIlEEEdeEv
	.section	.rodata
.LC6:
	.string	"vector::_M_default_append"
	.section	.text._ZNSt6vectorIdSaIdEE17_M_default_appendEm,"axG",@progbits,_ZNSt6vectorIdSaIdEE17_M_default_appendEm,comdat
	.align 2
	.weak	_ZNSt6vectorIdSaIdEE17_M_default_appendEm
	.type	_ZNSt6vectorIdSaIdEE17_M_default_appendEm, @function
_ZNSt6vectorIdSaIdEE17_M_default_appendEm:
.LFB3224:
	.file 19 "/usr/include/c++/12/bits/vector.tcc"
	.loc 19 626 5
	.cfi_startproc
	.cfi_personality 0x9b,DW.ref.__gxx_personality_v0
	.cfi_lsda 0x1b,.LLSDA3224
	pushq	%rbp	#
	.cfi_def_cfa_offset 16
	.cfi_offset 6, -16
	movq	%rsp, %rbp	#,
	.cfi_def_cfa_register 6
	pushq	%rbx	#
	subq	$56, %rsp	#,
	.cfi_offset 3, -24
	movq	%rdi, -56(%rbp)	# this, this
	movq	%rsi, -64(%rbp)	# __n, __n
.LBB36:
# /usr/include/c++/12/bits/vector.tcc:629:       if (__n != 0)
	.loc 19 629 7
	cmpq	$0, -64(%rbp)	#, __n
	je	.L222	#,
.LBB37:
# /usr/include/c++/12/bits/vector.tcc:631: 	  const size_type __size = size();
	.loc 19 631 33
	movq	-56(%rbp), %rax	# this, tmp120
	movq	%rax, %rdi	# tmp120,
	call	_ZNKSt6vectorIdSaIdEE4sizeEv	#
	movq	%rax, -24(%rbp)	# tmp121, __size
# /usr/include/c++/12/bits/vector.tcc:632: 	  size_type __navail = size_type(this->_M_impl._M_end_of_storage
	.loc 19 632 49
	movq	-56(%rbp), %rax	# this, tmp122
	movq	16(%rax), %rdx	# this_42(D)->D.58674._M_impl.D.58013._M_end_of_storage, _1
# /usr/include/c++/12/bits/vector.tcc:633: 					 - this->_M_impl._M_finish);
	.loc 19 633 23
	movq	-56(%rbp), %rax	# this, tmp123
	movq	8(%rax), %rax	# this_42(D)->D.58674._M_impl.D.58013._M_finish, _2
# /usr/include/c++/12/bits/vector.tcc:633: 					 - this->_M_impl._M_finish);
	.loc 19 633 7
	subq	%rax, %rdx	# _2, _3
	movq	%rdx, %rax	# _3, _3
	sarq	$3, %rax	#, _3
# /usr/include/c++/12/bits/vector.tcc:632: 	  size_type __navail = size_type(this->_M_impl._M_end_of_storage
	.loc 19 632 14
	movq	%rax, -32(%rbp)	# _4, __navail
# /usr/include/c++/12/bits/vector.tcc:635: 	  if (__size > max_size() || __navail > max_size() - __size)
	.loc 19 635 25
	movq	-56(%rbp), %rax	# this, tmp125
	movq	%rax, %rdi	# tmp125,
	call	_ZNKSt6vectorIdSaIdEE8max_sizeEv	#
# /usr/include/c++/12/bits/vector.tcc:635: 	  if (__size > max_size() || __navail > max_size() - __size)
	.loc 19 635 28
	cmpq	-24(%rbp), %rax	# __size, _5
	jb	.L213	#,
# /usr/include/c++/12/bits/vector.tcc:635: 	  if (__size > max_size() || __navail > max_size() - __size)
	.loc 19 635 50 discriminator 2
	movq	-56(%rbp), %rax	# this, tmp126
	movq	%rax, %rdi	# tmp126,
	call	_ZNKSt6vectorIdSaIdEE8max_sizeEv	#
# /usr/include/c++/12/bits/vector.tcc:635: 	  if (__size > max_size() || __navail > max_size() - __size)
	.loc 19 635 53 discriminator 2
	subq	-24(%rbp), %rax	# __size, _7
# /usr/include/c++/12/bits/vector.tcc:635: 	  if (__size > max_size() || __navail > max_size() - __size)
	.loc 19 635 28 discriminator 2
	cmpq	-32(%rbp), %rax	# __navail, _7
	jnb	.L214	#,
.L213:
# /usr/include/c++/12/bits/vector.tcc:635: 	  if (__size > max_size() || __navail > max_size() - __size)
	.loc 19 635 28 is_stmt 0 discriminator 3
	movl	$1, %eax	#, iftmp.14_35
	jmp	.L215	#
.L214:
# /usr/include/c++/12/bits/vector.tcc:635: 	  if (__size > max_size() || __navail > max_size() - __size)
	.loc 19 635 28 discriminator 4
	movl	$0, %eax	#, iftmp.14_35
.L215:
# /usr/include/c++/12/bits/vector.tcc:635: 	  if (__size > max_size() || __navail > max_size() - __size)
	.loc 19 635 4 is_stmt 1 discriminator 6
	testb	%al, %al	# iftmp.14_35
.LBB38:
# /usr/include/c++/12/bits/vector.tcc:638: 	  if (__navail >= __n)
	.loc 19 638 4 discriminator 6
	movq	-32(%rbp), %rax	# __navail, tmp127
	cmpq	-64(%rbp), %rax	# __n, tmp127
	jb	.L217	#,
# /usr/include/c++/12/bits/vector.tcc:643: 						 __n, _M_get_Tp_allocator());
	.loc 19 643 32
	movq	-56(%rbp), %rax	# this, _8
	movq	%rax, %rdi	# _8,
	call	_ZNSt12_Vector_baseIdSaIdEE19_M_get_Tp_allocatorEv	#
	movq	%rax, %rdx	#, _9
# /usr/include/c++/12/bits/vector.tcc:642: 		std::__uninitialized_default_n_a(this->_M_impl._M_finish,
	.loc 19 642 35
	movq	-56(%rbp), %rax	# this, tmp128
	movq	8(%rax), %rax	# this_42(D)->D.58674._M_impl.D.58013._M_finish, _10
	movq	-64(%rbp), %rcx	# __n, tmp129
	movq	%rcx, %rsi	# tmp129,
	movq	%rax, %rdi	# _10,
.LEHB29:
	call	_ZSt27__uninitialized_default_n_aIPdmdET_S1_T0_RSaIT1_E	#
# /usr/include/c++/12/bits/vector.tcc:641: 	      this->_M_impl._M_finish =
	.loc 19 641 32
	movq	-56(%rbp), %rdx	# this, tmp130
	movq	%rax, 8(%rdx)	# _11, this_42(D)->D.58674._M_impl.D.58013._M_finish
.LBE38:
.LBE37:
.LBE36:
# /usr/include/c++/12/bits/vector.tcc:698:     }
	.loc 19 698 5
	jmp	.L222	#
.L217:
.LBB45:
.LBB43:
.LBB41:
.LBB39:
# /usr/include/c++/12/bits/vector.tcc:649: 		_M_check_len(__n, "vector::_M_default_append");
	.loc 19 649 15
	movq	-64(%rbp), %rcx	# __n, tmp131
	movq	-56(%rbp), %rax	# this, tmp132
	leaq	.LC6(%rip), %rdx	#, tmp133
	movq	%rcx, %rsi	# tmp131,
	movq	%rax, %rdi	# tmp132,
	call	_ZNKSt6vectorIdSaIdEE12_M_check_lenEmPKc	#
	movq	%rax, -40(%rbp)	# _52, __len
# /usr/include/c++/12/bits/vector.tcc:650: 	      pointer __new_start(this->_M_allocate(__len));
	.loc 19 650 45
	movq	-56(%rbp), %rax	# this, _12
	movq	-40(%rbp), %rdx	# __len, tmp134
	movq	%rdx, %rsi	# tmp134,
	movq	%rax, %rdi	# _12,
	call	_ZNSt12_Vector_baseIdSaIdEE11_M_allocateEm	#
.LEHE29:
	movq	%rax, -48(%rbp)	# _55, __new_start
# /usr/include/c++/12/bits/vector.tcc:656: 			      __n, _M_get_Tp_allocator());
	.loc 19 656 34
	movq	-56(%rbp), %rax	# this, _13
	movq	%rax, %rdi	# _13,
	call	_ZNSt12_Vector_baseIdSaIdEE19_M_get_Tp_allocatorEv	#
	movq	%rax, %rdx	#, _14
# /usr/include/c++/12/bits/vector.tcc:655: 		      std::__uninitialized_default_n_a(__new_start + __size,
	.loc 19 655 54
	movq	-24(%rbp), %rax	# __size, tmp135
	leaq	0(,%rax,8), %rcx	#, _15
# /usr/include/c++/12/bits/vector.tcc:655: 		      std::__uninitialized_default_n_a(__new_start + __size,
	.loc 19 655 41
	movq	-48(%rbp), %rax	# __new_start, tmp136
	addq	%rax, %rcx	# tmp136, _16
	movq	-64(%rbp), %rax	# __n, tmp137
	movq	%rax, %rsi	# tmp137,
	movq	%rcx, %rdi	# _16,
.LEHB30:
	call	_ZSt27__uninitialized_default_n_aIPdmdET_S1_T0_RSaIT1_E	#
.LEHE30:
# /usr/include/c++/12/bits/vector.tcc:664: 			      __new_start, _M_get_Tp_allocator());
	.loc 19 664 42
	movq	-56(%rbp), %rax	# this, _19
	movq	%rax, %rdi	# _19,
	call	_ZNSt12_Vector_baseIdSaIdEE19_M_get_Tp_allocatorEv	#
	movq	%rax, %rcx	#, _20
# /usr/include/c++/12/bits/vector.tcc:663: 		  _S_relocate(this->_M_impl._M_start, this->_M_impl._M_finish,
	.loc 19 663 16
	movq	-56(%rbp), %rax	# this, tmp138
	movq	8(%rax), %rsi	# this_42(D)->D.58674._M_impl.D.58013._M_finish, _21
	movq	-56(%rbp), %rax	# this, tmp139
	movq	(%rax), %rax	# this_42(D)->D.58674._M_impl.D.58013._M_start, _22
	movq	-48(%rbp), %rdx	# __new_start, tmp140
	movq	%rax, %rdi	# _22,
	call	_ZNSt6vectorIdSaIdEE11_S_relocateEPdS2_S2_RS0_	#
# /usr/include/c++/12/bits/vector.tcc:690: 	      _M_deallocate(this->_M_impl._M_start,
	.loc 19 690 21
	movq	-56(%rbp), %rax	# this, _23
# /usr/include/c++/12/bits/vector.tcc:691: 			    this->_M_impl._M_end_of_storage
	.loc 19 691 22
	movq	-56(%rbp), %rdx	# this, tmp141
	movq	16(%rdx), %rcx	# this_42(D)->D.58674._M_impl.D.58013._M_end_of_storage, _24
# /usr/include/c++/12/bits/vector.tcc:692: 			    - this->_M_impl._M_start);
	.loc 19 692 24
	movq	-56(%rbp), %rdx	# this, tmp142
	movq	(%rdx), %rdx	# this_42(D)->D.58674._M_impl.D.58013._M_start, _25
# /usr/include/c++/12/bits/vector.tcc:692: 			    - this->_M_impl._M_start);
	.loc 19 692 8
	subq	%rdx, %rcx	# _25, _26
	sarq	$3, %rcx	#, _26
	movq	%rcx, %rdx	# _26, tmp143
# /usr/include/c++/12/bits/vector.tcc:690: 	      _M_deallocate(this->_M_impl._M_start,
	.loc 19 690 21
	movq	%rdx, %rsi	# _27, _28
	movq	-56(%rbp), %rdx	# this, tmp144
	movq	(%rdx), %rcx	# this_42(D)->D.58674._M_impl.D.58013._M_start, _29
	movq	%rsi, %rdx	# _28,
	movq	%rcx, %rsi	# _29,
	movq	%rax, %rdi	# _23,
.LEHB31:
	call	_ZNSt12_Vector_baseIdSaIdEE13_M_deallocateEPdm	#
.LEHE31:
# /usr/include/c++/12/bits/vector.tcc:693: 	      this->_M_impl._M_start = __new_start;
	.loc 19 693 31
	movq	-56(%rbp), %rax	# this, tmp145
	movq	-48(%rbp), %rdx	# __new_start, tmp146
	movq	%rdx, (%rax)	# tmp146, this_42(D)->D.58674._M_impl.D.58013._M_start
# /usr/include/c++/12/bits/vector.tcc:694: 	      this->_M_impl._M_finish = __new_start + __size + __n;
	.loc 19 694 55
	movq	-24(%rbp), %rdx	# __size, tmp147
	movq	-64(%rbp), %rax	# __n, tmp148
	addq	%rdx, %rax	# tmp147, _30
	leaq	0(,%rax,8), %rdx	#, _31
	movq	-48(%rbp), %rax	# __new_start, tmp149
	addq	%rax, %rdx	# tmp149, _32
# /usr/include/c++/12/bits/vector.tcc:694: 	      this->_M_impl._M_finish = __new_start + __size + __n;
	.loc 19 694 32
	movq	-56(%rbp), %rax	# this, tmp150
	movq	%rdx, 8(%rax)	# _32, this_42(D)->D.58674._M_impl.D.58013._M_finish
# /usr/include/c++/12/bits/vector.tcc:695: 	      this->_M_impl._M_end_of_storage = __new_start + __len;
	.loc 19 695 54
	movq	-40(%rbp), %rax	# __len, tmp151
	leaq	0(,%rax,8), %rdx	#, _33
	movq	-48(%rbp), %rax	# __new_start, tmp152
	addq	%rax, %rdx	# tmp152, _34
# /usr/include/c++/12/bits/vector.tcc:695: 	      this->_M_impl._M_end_of_storage = __new_start + __len;
	.loc 19 695 40
	movq	-56(%rbp), %rax	# this, tmp153
	movq	%rdx, 16(%rax)	# _34, this_42(D)->D.58674._M_impl.D.58013._M_end_of_storage
.LBE39:
.LBE41:
.LBE43:
.LBE45:
# /usr/include/c++/12/bits/vector.tcc:698:     }
	.loc 19 698 5
	jmp	.L222	#
.L220:
.LBB46:
.LBB44:
.LBB42:
.LBB40:
# /usr/include/c++/12/bits/vector.tcc:658: 		  __catch(...)
	.loc 19 658 5
	movq	%rax, %rdi	# _17,
	call	__cxa_begin_catch@PLT	#
# /usr/include/c++/12/bits/vector.tcc:660: 		      _M_deallocate(__new_start, __len);
	.loc 19 660 22
	movq	-56(%rbp), %rax	# this, _18
	movq	-40(%rbp), %rdx	# __len, tmp155
	movq	-48(%rbp), %rcx	# __new_start, tmp156
	movq	%rcx, %rsi	# tmp156,
	movq	%rax, %rdi	# _18,
.LEHB32:
	call	_ZNSt12_Vector_baseIdSaIdEE13_M_deallocateEPdm	#
# /usr/include/c++/12/bits/vector.tcc:661: 		      __throw_exception_again;
	.loc 19 661 9
	call	__cxa_rethrow@PLT	#
.LEHE32:
.L221:
# /usr/include/c++/12/bits/vector.tcc:658: 		  __catch(...)
	.loc 19 658 5
	movq	%rax, %rbx	#, tmp157
	call	__cxa_end_catch@PLT	#
	movq	%rbx, %rax	# tmp157, D.68648
	movq	%rax, %rdi	# D.68648,
.LEHB33:
	call	_Unwind_Resume@PLT	#
.LEHE33:
.L222:
.LBE40:
.LBE42:
.LBE44:
.LBE46:
# /usr/include/c++/12/bits/vector.tcc:698:     }
	.loc 19 698 5
	nop	
	movq	-8(%rbp), %rbx	#,
	leave	
	.cfi_def_cfa 7, 8
	ret	
	.cfi_endproc
.LFE3224:
	.section	.gcc_except_table
	.align 4
.LLSDA3224:
	.byte	0xff
	.byte	0x9b
	.uleb128 .LLSDATT3224-.LLSDATTD3224
.LLSDATTD3224:
	.byte	0x1
	.uleb128 .LLSDACSE3224-.LLSDACSB3224
.LLSDACSB3224:
	.uleb128 .LEHB29-.LFB3224
	.uleb128 .LEHE29-.LEHB29
	.uleb128 0
	.uleb128 0
	.uleb128 .LEHB30-.LFB3224
	.uleb128 .LEHE30-.LEHB30
	.uleb128 .L220-.LFB3224
	.uleb128 0x1
	.uleb128 .LEHB31-.LFB3224
	.uleb128 .LEHE31-.LEHB31
	.uleb128 0
	.uleb128 0
	.uleb128 .LEHB32-.LFB3224
	.uleb128 .LEHE32-.LEHB32
	.uleb128 .L221-.LFB3224
	.uleb128 0
	.uleb128 .LEHB33-.LFB3224
	.uleb128 .LEHE33-.LEHB33
	.uleb128 0
	.uleb128 0
.LLSDACSE3224:
	.byte	0x1
	.byte	0
	.align 4
	.long	0

.LLSDATT3224:
	.section	.text._ZNSt6vectorIdSaIdEE17_M_default_appendEm,"axG",@progbits,_ZNSt6vectorIdSaIdEE17_M_default_appendEm,comdat
	.size	_ZNSt6vectorIdSaIdEE17_M_default_appendEm, .-_ZNSt6vectorIdSaIdEE17_M_default_appendEm
	.section	.text._ZNSt6vectorIdSaIdEE15_M_erase_at_endEPd,"axG",@progbits,_ZNSt6vectorIdSaIdEE15_M_erase_at_endEPd,comdat
	.align 2
	.weak	_ZNSt6vectorIdSaIdEE15_M_erase_at_endEPd
	.type	_ZNSt6vectorIdSaIdEE15_M_erase_at_endEPd, @function
_ZNSt6vectorIdSaIdEE15_M_erase_at_endEPd:
.LFB3228:
	.loc 7 1928 7
	.cfi_startproc
	.cfi_personality 0x9b,DW.ref.__gxx_personality_v0
	.cfi_lsda 0x1b,.LLSDA3228
	pushq	%rbp	#
	.cfi_def_cfa_offset 16
	.cfi_offset 6, -16
	movq	%rsp, %rbp	#,
	.cfi_def_cfa_register 6
	subq	$32, %rsp	#,
	movq	%rdi, -24(%rbp)	# this, this
	movq	%rsi, -32(%rbp)	# __pos, __pos
.LBB47:
# /usr/include/c++/12/bits/stl_vector.h:1930: 	if (size_type __n = this->_M_impl._M_finish - __pos)
	.loc 7 1930 36
	movq	-24(%rbp), %rax	# this, tmp88
	movq	8(%rax), %rax	# this_9(D)->D.58674._M_impl.D.58013._M_finish, _1
# /usr/include/c++/12/bits/stl_vector.h:1930: 	if (size_type __n = this->_M_impl._M_finish - __pos)
	.loc 7 1930 46
	subq	-32(%rbp), %rax	# __pos, _2
	sarq	$3, %rax	#, tmp89
# /usr/include/c++/12/bits/stl_vector.h:1930: 	if (size_type __n = this->_M_impl._M_finish - __pos)
	.loc 7 1930 16
	movq	%rax, -8(%rbp)	# _3, __n
# /usr/include/c++/12/bits/stl_vector.h:1930: 	if (size_type __n = this->_M_impl._M_finish - __pos)
	.loc 7 1930 2
	cmpq	$0, -8(%rbp)	#, __n
	je	.L225	#,
# /usr/include/c++/12/bits/stl_vector.h:1933: 			  _M_get_Tp_allocator());
	.loc 7 1933 25
	movq	-24(%rbp), %rax	# this, _4
	movq	%rax, %rdi	# _4,
	call	_ZNSt12_Vector_baseIdSaIdEE19_M_get_Tp_allocatorEv	#
	movq	%rax, %rdx	#, _5
# /usr/include/c++/12/bits/stl_vector.h:1932: 	    std::_Destroy(__pos, this->_M_impl._M_finish,
	.loc 7 1932 19
	movq	-24(%rbp), %rax	# this, tmp90
	movq	8(%rax), %rcx	# this_9(D)->D.58674._M_impl.D.58013._M_finish, _6
	movq	-32(%rbp), %rax	# __pos, tmp91
	movq	%rcx, %rsi	# _6,
	movq	%rax, %rdi	# tmp91,
	call	_ZSt8_DestroyIPddEvT_S1_RSaIT0_E	#
# /usr/include/c++/12/bits/stl_vector.h:1934: 	    this->_M_impl._M_finish = __pos;
	.loc 7 1934 30
	movq	-24(%rbp), %rax	# this, tmp92
	movq	-32(%rbp), %rdx	# __pos, tmp93
	movq	%rdx, 8(%rax)	# tmp93, this_9(D)->D.58674._M_impl.D.58013._M_finish
.L225:
.LBE47:
# /usr/include/c++/12/bits/stl_vector.h:1937:       }
	.loc 7 1937 7
	nop	
	leave	
	.cfi_def_cfa 7, 8
	ret	
	.cfi_endproc
.LFE3228:
	.section	.gcc_except_table
.LLSDA3228:
	.byte	0xff
	.byte	0xff
	.byte	0x1
	.uleb128 .LLSDACSE3228-.LLSDACSB3228
.LLSDACSB3228:
.LLSDACSE3228:
	.section	.text._ZNSt6vectorIdSaIdEE15_M_erase_at_endEPd,"axG",@progbits,_ZNSt6vectorIdSaIdEE15_M_erase_at_endEPd,comdat
	.size	_ZNSt6vectorIdSaIdEE15_M_erase_at_endEPd, .-_ZNSt6vectorIdSaIdEE15_M_erase_at_endEPd
	.section	.text._ZNSt12_Destroy_auxILb1EE9__destroyIPdEEvT_S3_,"axG",@progbits,_ZNSt12_Destroy_auxILb1EE9__destroyIPdEEvT_S3_,comdat
	.weak	_ZNSt12_Destroy_auxILb1EE9__destroyIPdEEvT_S3_
	.type	_ZNSt12_Destroy_auxILb1EE9__destroyIPdEEvT_S3_, @function
_ZNSt12_Destroy_auxILb1EE9__destroyIPdEEvT_S3_:
.LFB3229:
	.loc 15 172 9
	.cfi_startproc
	pushq	%rbp	#
	.cfi_def_cfa_offset 16
	.cfi_offset 6, -16
	movq	%rsp, %rbp	#,
	.cfi_def_cfa_register 6
	movq	%rdi, -8(%rbp)	# D.66080, D.66080
	movq	%rsi, -16(%rbp)	# D.66081, D.66081
# /usr/include/c++/12/bits/stl_construct.h:172:         __destroy(_ForwardIterator, _ForwardIterator) { }
	.loc 15 172 57
	nop	
	popq	%rbp	#
	.cfi_def_cfa 7, 8
	ret	
	.cfi_endproc
.LFE3229:
	.size	_ZNSt12_Destroy_auxILb1EE9__destroyIPdEEvT_S3_, .-_ZNSt12_Destroy_auxILb1EE9__destroyIPdEEvT_S3_
	.section	.text._ZNSt16allocator_traitsISaIlEE10deallocateERS0_Plm,"axG",@progbits,_ZNSt16allocator_traitsISaIlEE10deallocateERS0_Plm,comdat
	.weak	_ZNSt16allocator_traitsISaIlEE10deallocateERS0_Plm
	.type	_ZNSt16allocator_traitsISaIlEE10deallocateERS0_Plm, @function
_ZNSt16allocator_traitsISaIlEE10deallocateERS0_Plm:
.LFB3230:
	.loc 10 495 7
	.cfi_startproc
	pushq	%rbp	#
	.cfi_def_cfa_offset 16
	.cfi_offset 6, -16
	movq	%rsp, %rbp	#,
	.cfi_def_cfa_register 6
	subq	$32, %rsp	#,
	movq	%rdi, -8(%rbp)	# __a, __a
	movq	%rsi, -16(%rbp)	# __p, __p
	movq	%rdx, -24(%rbp)	# __n, __n
# /usr/include/c++/12/bits/alloc_traits.h:496:       { __a.deallocate(__p, __n); }
	.loc 10 496 23
	movq	-24(%rbp), %rdx	# __n, tmp82
	movq	-16(%rbp), %rcx	# __p, tmp83
	movq	-8(%rbp), %rax	# __a, tmp84
	movq	%rcx, %rsi	# tmp83,
	movq	%rax, %rdi	# tmp84,
	call	_ZNSt15__new_allocatorIlE10deallocateEPlm	#
# /usr/include/c++/12/bits/alloc_traits.h:496:       { __a.deallocate(__p, __n); }
	.loc 10 496 35
	nop	
	leave	
	.cfi_def_cfa 7, 8
	ret	
	.cfi_endproc
.LFE3230:
	.size	_ZNSt16allocator_traitsISaIlEE10deallocateERS0_Plm, .-_ZNSt16allocator_traitsISaIlEE10deallocateERS0_Plm
	.section	.text._ZNSt12_Destroy_auxILb1EE9__destroyIPlEEvT_S3_,"axG",@progbits,_ZNSt12_Destroy_auxILb1EE9__destroyIPlEEvT_S3_,comdat
	.weak	_ZNSt12_Destroy_auxILb1EE9__destroyIPlEEvT_S3_
	.type	_ZNSt12_Destroy_auxILb1EE9__destroyIPlEEvT_S3_, @function
_ZNSt12_Destroy_auxILb1EE9__destroyIPlEEvT_S3_:
.LFB3231:
	.loc 15 172 9
	.cfi_startproc
	pushq	%rbp	#
	.cfi_def_cfa_offset 16
	.cfi_offset 6, -16
	movq	%rsp, %rbp	#,
	.cfi_def_cfa_register 6
	movq	%rdi, -8(%rbp)	# D.66087, D.66087
	movq	%rsi, -16(%rbp)	# D.66088, D.66088
# /usr/include/c++/12/bits/stl_construct.h:172:         __destroy(_ForwardIterator, _ForwardIterator) { }
	.loc 15 172 57
	nop	
	popq	%rbp	#
	.cfi_def_cfa 7, 8
	ret	
	.cfi_endproc
.LFE3231:
	.size	_ZNSt12_Destroy_auxILb1EE9__destroyIPlEEvT_S3_, .-_ZNSt12_Destroy_auxILb1EE9__destroyIPlEEvT_S3_
	.section	.text._ZNSt6vectorIlSaIlEEC2ERKS1_,"axG",@progbits,_ZNSt6vectorIlSaIlEEC5ERKS1_,comdat
	.align 2
	.weak	_ZNSt6vectorIlSaIlEEC2ERKS1_
	.type	_ZNSt6vectorIlSaIlEEC2ERKS1_, @function
_ZNSt6vectorIlSaIlEEC2ERKS1_:
.LFB3233:
	.loc 7 596 7
	.cfi_startproc
	.cfi_personality 0x9b,DW.ref.__gxx_personality_v0
	.cfi_lsda 0x1b,.LLSDA3233
	pushq	%rbp	#
	.cfi_def_cfa_offset 16
	.cfi_offset 6, -16
	movq	%rsp, %rbp	#,
	.cfi_def_cfa_register 6
	pushq	%r13	#
	pushq	%r12	#
	pushq	%rbx	#
	subq	$40, %rsp	#,
	.cfi_offset 13, -24
	.cfi_offset 12, -32
	.cfi_offset 3, -40
	movq	%rdi, -56(%rbp)	# this, this
	movq	%rsi, -64(%rbp)	# __x, __x
.LBB48:
# /usr/include/c++/12/bits/stl_vector.h:598: 	_Alloc_traits::_S_select_on_copy(__x._M_get_Tp_allocator()))
	.loc 7 598 61
	movq	-56(%rbp), %rbx	# this, _1
# /usr/include/c++/12/bits/stl_vector.h:598: 	_Alloc_traits::_S_select_on_copy(__x._M_get_Tp_allocator()))
	.loc 7 598 58
	movq	-64(%rbp), %rax	# __x, _2
	movq	%rax, %rdi	# _2,
	call	_ZNKSt12_Vector_baseIlSaIlEE19_M_get_Tp_allocatorEv	#
	movq	%rax, %rdx	#, _3
# /usr/include/c++/12/bits/stl_vector.h:598: 	_Alloc_traits::_S_select_on_copy(__x._M_get_Tp_allocator()))
	.loc 7 598 61
	leaq	-33(%rbp), %rax	#, tmp95
	movq	%rdx, %rsi	# _3,
	movq	%rax, %rdi	# tmp95,
.LEHB34:
	call	_ZN9__gnu_cxx14__alloc_traitsISaIlElE17_S_select_on_copyERKS1_	#
.LEHE34:
	movq	-64(%rbp), %rax	# __x, tmp96
	movq	%rax, %rdi	# tmp96,
	call	_ZNKSt6vectorIlSaIlEE4sizeEv	#
	movq	%rax, %rcx	#, _4
	leaq	-33(%rbp), %rax	#, tmp97
	movq	%rax, %rdx	# tmp97,
	movq	%rcx, %rsi	# _4,
	movq	%rbx, %rdi	# _1,
.LEHB35:
	call	_ZNSt12_Vector_baseIlSaIlEEC2EmRKS0_	#
.LEHE35:
# /usr/include/c++/12/bits/stl_vector.h:598: 	_Alloc_traits::_S_select_on_copy(__x._M_get_Tp_allocator()))
	.loc 7 598 61 is_stmt 0 discriminator 4
	leaq	-33(%rbp), %rax	#, tmp98
	movq	%rax, %rdi	# tmp98,
	call	_ZNSaIlED1Ev	#
# /usr/include/c++/12/bits/stl_vector.h:603: 				      _M_get_Tp_allocator());
	.loc 7 603 30 is_stmt 1 discriminator 4
	movq	-56(%rbp), %rax	# this, _5
	movq	%rax, %rdi	# _5,
	call	_ZNSt12_Vector_baseIlSaIlEE19_M_get_Tp_allocatorEv	#
	movq	%rax, %r13	#, _6
# /usr/include/c++/12/bits/stl_vector.h:601: 	  std::__uninitialized_copy_a(__x.begin(), __x.end(),
	.loc 7 601 31 discriminator 4
	movq	-56(%rbp), %rax	# this, tmp99
	movq	(%rax), %rbx	# this_12(D)->D.54811._M_impl.D.54123._M_start, _7
	movq	-64(%rbp), %rax	# __x, tmp100
	movq	%rax, %rdi	# tmp100,
	call	_ZNKSt6vectorIlSaIlEE3endEv	#
	movq	%rax, %r12	#, D.68001
	movq	-64(%rbp), %rax	# __x, tmp101
	movq	%rax, %rdi	# tmp101,
	call	_ZNKSt6vectorIlSaIlEE5beginEv	#
	movq	%r13, %rcx	# _6,
	movq	%rbx, %rdx	# _7,
	movq	%r12, %rsi	# D.68001,
	movq	%rax, %rdi	# D.68002,
.LEHB36:
	call	_ZSt22__uninitialized_copy_aIN9__gnu_cxx17__normal_iteratorIPKlSt6vectorIlSaIlEEEEPllET0_T_SA_S9_RSaIT1_E	#
.LEHE36:
# /usr/include/c++/12/bits/stl_vector.h:600: 	this->_M_impl._M_finish =
	.loc 7 600 26 discriminator 4
	movq	-56(%rbp), %rdx	# this, tmp102
	movq	%rax, 8(%rdx)	# _8, this_12(D)->D.54811._M_impl.D.54123._M_finish
.LBE48:
# /usr/include/c++/12/bits/stl_vector.h:604:       }
	.loc 7 604 7 discriminator 4
	jmp	.L234	#
.L232:
.LBB49:
# /usr/include/c++/12/bits/stl_vector.h:598: 	_Alloc_traits::_S_select_on_copy(__x._M_get_Tp_allocator()))
	.loc 7 598 61
	movq	%rax, %rbx	#, tmp104
	leaq	-33(%rbp), %rax	#, tmp103
	movq	%rax, %rdi	# tmp103,
	call	_ZNSaIlED1Ev	#
	movq	%rbx, %rax	# tmp104, D.68650
	movq	%rax, %rdi	# D.68650,
.LEHB37:
	call	_Unwind_Resume@PLT	#
.L233:
# /usr/include/c++/12/bits/stl_vector.h:604:       }
	.loc 7 604 7
	movq	%rax, %rbx	#, tmp105
	movq	-56(%rbp), %rax	# this, _9
	movq	%rax, %rdi	# _9,
	call	_ZNSt12_Vector_baseIlSaIlEED2Ev	#
	movq	%rbx, %rax	# tmp105, D.68651
	movq	%rax, %rdi	# D.68651,
	call	_Unwind_Resume@PLT	#
.LEHE37:
.L234:
.LBE49:
	addq	$40, %rsp	#,
	popq	%rbx	#
	popq	%r12	#
	popq	%r13	#
	popq	%rbp	#
	.cfi_def_cfa 7, 8
	ret	
	.cfi_endproc
.LFE3233:
	.section	.gcc_except_table
.LLSDA3233:
	.byte	0xff
	.byte	0xff
	.byte	0x1
	.uleb128 .LLSDACSE3233-.LLSDACSB3233
.LLSDACSB3233:
	.uleb128 .LEHB34-.LFB3233
	.uleb128 .LEHE34-.LEHB34
	.uleb128 0
	.uleb128 0
	.uleb128 .LEHB35-.LFB3233
	.uleb128 .LEHE35-.LEHB35
	.uleb128 .L232-.LFB3233
	.uleb128 0
	.uleb128 .LEHB36-.LFB3233
	.uleb128 .LEHE36-.LEHB36
	.uleb128 .L233-.LFB3233
	.uleb128 0
	.uleb128 .LEHB37-.LFB3233
	.uleb128 .LEHE37-.LEHB37
	.uleb128 0
	.uleb128 0
.LLSDACSE3233:
	.section	.text._ZNSt6vectorIlSaIlEEC2ERKS1_,"axG",@progbits,_ZNSt6vectorIlSaIlEEC5ERKS1_,comdat
	.size	_ZNSt6vectorIlSaIlEEC2ERKS1_, .-_ZNSt6vectorIlSaIlEEC2ERKS1_
	.weak	_ZNSt6vectorIlSaIlEEC1ERKS1_
	.set	_ZNSt6vectorIlSaIlEEC1ERKS1_,_ZNSt6vectorIlSaIlEEC2ERKS1_
	.section	.text._ZNSt6vectorIlSaIlEE14_M_move_assignEOS1_St17integral_constantIbLb1EE,"axG",@progbits,_ZNSt6vectorIlSaIlEE14_M_move_assignEOS1_St17integral_constantIbLb1EE,comdat
	.align 2
	.weak	_ZNSt6vectorIlSaIlEE14_M_move_assignEOS1_St17integral_constantIbLb1EE
	.type	_ZNSt6vectorIlSaIlEE14_M_move_assignEOS1_St17integral_constantIbLb1EE, @function
_ZNSt6vectorIlSaIlEE14_M_move_assignEOS1_St17integral_constantIbLb1EE:
.LFB3235:
	.loc 7 1954 7
	.cfi_startproc
	pushq	%rbp	#
	.cfi_def_cfa_offset 16
	.cfi_offset 6, -16
	movq	%rsp, %rbp	#,
	.cfi_def_cfa_register 6
	pushq	%rbx	#
	subq	$56, %rsp	#,
	.cfi_offset 3, -24
	movq	%rdi, -56(%rbp)	# this, this
	movq	%rsi, -64(%rbp)	# __x, __x
# /usr/include/c++/12/bits/stl_vector.h:1956: 	vector __tmp(get_allocator());
	.loc 7 1956 9
	movq	-56(%rbp), %rdx	# this, _1
	leaq	-17(%rbp), %rax	#, tmp90
	movq	%rdx, %rsi	# _1,
	movq	%rax, %rdi	# tmp90,
	call	_ZNKSt12_Vector_baseIlSaIlEE13get_allocatorEv	#
	leaq	-17(%rbp), %rdx	#, tmp91
	leaq	-48(%rbp), %rax	#, tmp92
	movq	%rdx, %rsi	# tmp91,
	movq	%rax, %rdi	# tmp92,
	call	_ZNSt6vectorIlSaIlEEC1ERKS0_	#
	leaq	-17(%rbp), %rax	#, tmp93
	movq	%rax, %rdi	# tmp93,
	call	_ZNSaIlED1Ev	#
# /usr/include/c++/12/bits/stl_vector.h:1957: 	this->_M_impl._M_swap_data(__x._M_impl);
	.loc 7 1957 28
	movq	-56(%rbp), %rax	# this, _2
	movq	-64(%rbp), %rdx	# __x, _3
	movq	%rdx, %rsi	# _3,
	movq	%rax, %rdi	# _2,
	call	_ZNSt12_Vector_baseIlSaIlEE17_Vector_impl_data12_M_swap_dataERS2_	#
# /usr/include/c++/12/bits/stl_vector.h:1958: 	__tmp._M_impl._M_swap_data(__x._M_impl);
	.loc 7 1958 28
	movq	-64(%rbp), %rdx	# __x, _4
	leaq	-48(%rbp), %rax	#, tmp94
	movq	%rdx, %rsi	# _4,
	movq	%rax, %rdi	# tmp94,
	call	_ZNSt12_Vector_baseIlSaIlEE17_Vector_impl_data12_M_swap_dataERS2_	#
# /usr/include/c++/12/bits/stl_vector.h:1959: 	std::__alloc_on_move(_M_get_Tp_allocator(), __x._M_get_Tp_allocator());
	.loc 7 1959 69
	movq	-64(%rbp), %rax	# __x, _5
	movq	%rax, %rdi	# _5,
	call	_ZNSt12_Vector_baseIlSaIlEE19_M_get_Tp_allocatorEv	#
	movq	%rax, %rbx	#, _6
# /usr/include/c++/12/bits/stl_vector.h:1959: 	std::__alloc_on_move(_M_get_Tp_allocator(), __x._M_get_Tp_allocator());
	.loc 7 1959 42
	movq	-56(%rbp), %rax	# this, _7
	movq	%rax, %rdi	# _7,
	call	_ZNSt12_Vector_baseIlSaIlEE19_M_get_Tp_allocatorEv	#
# /usr/include/c++/12/bits/stl_vector.h:1959: 	std::__alloc_on_move(_M_get_Tp_allocator(), __x._M_get_Tp_allocator());
	.loc 7 1959 22
	movq	%rbx, %rsi	# _6,
	movq	%rax, %rdi	# _8,
	call	_ZSt15__alloc_on_moveISaIlEEvRT_S2_	#
# /usr/include/c++/12/bits/stl_vector.h:1960:       }
	.loc 7 1960 7
	leaq	-48(%rbp), %rax	#, tmp95
	movq	%rax, %rdi	# tmp95,
	call	_ZNSt6vectorIlSaIlEED1Ev	#
	movq	-8(%rbp), %rbx	#,
	leave	
	.cfi_def_cfa 7, 8
	ret	
	.cfi_endproc
.LFE3235:
	.size	_ZNSt6vectorIlSaIlEE14_M_move_assignEOS1_St17integral_constantIbLb1EE, .-_ZNSt6vectorIlSaIlEE14_M_move_assignEOS1_St17integral_constantIbLb1EE
	.section	.text._ZN9__gnu_cxx17__normal_iteratorIPKdSt6vectorIdSaIdEEEC2ERKS2_,"axG",@progbits,_ZN9__gnu_cxx17__normal_iteratorIPKdSt6vectorIdSaIdEEEC5ERKS2_,comdat
	.align 2
	.weak	_ZN9__gnu_cxx17__normal_iteratorIPKdSt6vectorIdSaIdEEEC2ERKS2_
	.type	_ZN9__gnu_cxx17__normal_iteratorIPKdSt6vectorIdSaIdEEEC2ERKS2_, @function
_ZN9__gnu_cxx17__normal_iteratorIPKdSt6vectorIdSaIdEEEC2ERKS2_:
.LFB3237:
	.loc 18 1072 7
	.cfi_startproc
	pushq	%rbp	#
	.cfi_def_cfa_offset 16
	.cfi_offset 6, -16
	movq	%rsp, %rbp	#,
	.cfi_def_cfa_register 6
	movq	%rdi, -8(%rbp)	# this, this
	movq	%rsi, -16(%rbp)	# __i, __i
.LBB50:
# /usr/include/c++/12/bits/stl_iterator.h:1073:       : _M_current(__i) { }
	.loc 18 1073 9
	movq	-16(%rbp), %rax	# __i, tmp83
	movq	(%rax), %rdx	# *__i_5(D), _1
	movq	-8(%rbp), %rax	# this, tmp84
	movq	%rdx, (%rax)	# _1, this_3(D)->_M_current
.LBE50:
# /usr/include/c++/12/bits/stl_iterator.h:1073:       : _M_current(__i) { }
	.loc 18 1073 27
	nop	
	popq	%rbp	#
	.cfi_def_cfa 7, 8
	ret	
	.cfi_endproc
.LFE3237:
	.size	_ZN9__gnu_cxx17__normal_iteratorIPKdSt6vectorIdSaIdEEEC2ERKS2_, .-_ZN9__gnu_cxx17__normal_iteratorIPKdSt6vectorIdSaIdEEEC2ERKS2_
	.weak	_ZN9__gnu_cxx17__normal_iteratorIPKdSt6vectorIdSaIdEEEC1ERKS2_
	.set	_ZN9__gnu_cxx17__normal_iteratorIPKdSt6vectorIdSaIdEEEC1ERKS2_,_ZN9__gnu_cxx17__normal_iteratorIPKdSt6vectorIdSaIdEEEC2ERKS2_
	.section	.text._ZN9__gnu_cxx17__normal_iteratorIPdSt6vectorIdSaIdEEEC2ERKS1_,"axG",@progbits,_ZN9__gnu_cxx17__normal_iteratorIPdSt6vectorIdSaIdEEEC5ERKS1_,comdat
	.align 2
	.weak	_ZN9__gnu_cxx17__normal_iteratorIPdSt6vectorIdSaIdEEEC2ERKS1_
	.type	_ZN9__gnu_cxx17__normal_iteratorIPdSt6vectorIdSaIdEEEC2ERKS1_, @function
_ZN9__gnu_cxx17__normal_iteratorIPdSt6vectorIdSaIdEEEC2ERKS1_:
.LFB3240:
	.loc 18 1072 7
	.cfi_startproc
	pushq	%rbp	#
	.cfi_def_cfa_offset 16
	.cfi_offset 6, -16
	movq	%rsp, %rbp	#,
	.cfi_def_cfa_register 6
	movq	%rdi, -8(%rbp)	# this, this
	movq	%rsi, -16(%rbp)	# __i, __i
.LBB51:
# /usr/include/c++/12/bits/stl_iterator.h:1073:       : _M_current(__i) { }
	.loc 18 1073 9
	movq	-16(%rbp), %rax	# __i, tmp83
	movq	(%rax), %rdx	# *__i_5(D), _1
	movq	-8(%rbp), %rax	# this, tmp84
	movq	%rdx, (%rax)	# _1, this_3(D)->_M_current
.LBE51:
# /usr/include/c++/12/bits/stl_iterator.h:1073:       : _M_current(__i) { }
	.loc 18 1073 27
	nop	
	popq	%rbp	#
	.cfi_def_cfa 7, 8
	ret	
	.cfi_endproc
.LFE3240:
	.size	_ZN9__gnu_cxx17__normal_iteratorIPdSt6vectorIdSaIdEEEC2ERKS1_, .-_ZN9__gnu_cxx17__normal_iteratorIPdSt6vectorIdSaIdEEEC2ERKS1_
	.weak	_ZN9__gnu_cxx17__normal_iteratorIPdSt6vectorIdSaIdEEEC1ERKS1_
	.set	_ZN9__gnu_cxx17__normal_iteratorIPdSt6vectorIdSaIdEEEC1ERKS1_,_ZN9__gnu_cxx17__normal_iteratorIPdSt6vectorIdSaIdEEEC2ERKS1_
	.section	.text._ZSt12__miter_baseIN9__gnu_cxx17__normal_iteratorIPKdSt6vectorIdSaIdEEEEET_S8_,"axG",@progbits,_ZSt12__miter_baseIN9__gnu_cxx17__normal_iteratorIPKdSt6vectorIdSaIdEEEEET_S8_,comdat
	.weak	_ZSt12__miter_baseIN9__gnu_cxx17__normal_iteratorIPKdSt6vectorIdSaIdEEEEET_S8_
	.type	_ZSt12__miter_baseIN9__gnu_cxx17__normal_iteratorIPKdSt6vectorIdSaIdEEEEET_S8_, @function
_ZSt12__miter_baseIN9__gnu_cxx17__normal_iteratorIPKdSt6vectorIdSaIdEEEEET_S8_:
.LFB3242:
	.file 20 "/usr/include/c++/12/bits/cpp_type_traits.h"
	.loc 20 562 5
	.cfi_startproc
	pushq	%rbp	#
	.cfi_def_cfa_offset 16
	.cfi_offset 6, -16
	movq	%rsp, %rbp	#,
	.cfi_def_cfa_register 6
	movq	%rdi, -8(%rbp)	# __it, __it
# /usr/include/c++/12/bits/cpp_type_traits.h:563:     { return __it; }
	.loc 20 563 14
	movq	-8(%rbp), %rax	# __it, D.68070
# /usr/include/c++/12/bits/cpp_type_traits.h:563:     { return __it; }
	.loc 20 563 20
	popq	%rbp	#
	.cfi_def_cfa 7, 8
	ret	
	.cfi_endproc
.LFE3242:
	.size	_ZSt12__miter_baseIN9__gnu_cxx17__normal_iteratorIPKdSt6vectorIdSaIdEEEEET_S8_, .-_ZSt12__miter_baseIN9__gnu_cxx17__normal_iteratorIPKdSt6vectorIdSaIdEEEEET_S8_
	.section	.text._ZSt13__copy_move_aILb0EN9__gnu_cxx17__normal_iteratorIPKdSt6vectorIdSaIdEEEENS1_IPdS6_EEET1_T0_SB_SA_,"axG",@progbits,_ZSt13__copy_move_aILb0EN9__gnu_cxx17__normal_iteratorIPKdSt6vectorIdSaIdEEEENS1_IPdS6_EEET1_T0_SB_SA_,comdat
	.weak	_ZSt13__copy_move_aILb0EN9__gnu_cxx17__normal_iteratorIPKdSt6vectorIdSaIdEEEENS1_IPdS6_EEET1_T0_SB_SA_
	.type	_ZSt13__copy_move_aILb0EN9__gnu_cxx17__normal_iteratorIPKdSt6vectorIdSaIdEEEENS1_IPdS6_EEET1_T0_SB_SA_, @function
_ZSt13__copy_move_aILb0EN9__gnu_cxx17__normal_iteratorIPKdSt6vectorIdSaIdEEEENS1_IPdS6_EEET1_T0_SB_SA_:
.LFB3243:
	.loc 2 527 5
	.cfi_startproc
	pushq	%rbp	#
	.cfi_def_cfa_offset 16
	.cfi_offset 6, -16
	movq	%rsp, %rbp	#,
	.cfi_def_cfa_register 6
	pushq	%r12	#
	pushq	%rbx	#
	subq	$32, %rsp	#,
	.cfi_offset 12, -24
	.cfi_offset 3, -32
	movq	%rdi, -24(%rbp)	# __first, __first
	movq	%rsi, -32(%rbp)	# __last, __last
	movq	%rdx, -40(%rbp)	# __result, __result
# /usr/include/c++/12/bits/stl_algobase.h:529:       return std::__niter_wrap(__result,
	.loc 2 529 31
	movq	-40(%rbp), %rax	# __result, tmp88
	movq	%rax, %rdi	# tmp88,
	call	_ZSt12__niter_baseIPdSt6vectorIdSaIdEEET_N9__gnu_cxx17__normal_iteratorIS4_T0_EE	#
	movq	%rax, %r12	#, _1
	movq	-32(%rbp), %rax	# __last, tmp89
	movq	%rax, %rdi	# tmp89,
	call	_ZSt12__niter_baseIPKdSt6vectorIdSaIdEEET_N9__gnu_cxx17__normal_iteratorIS5_T0_EE	#
	movq	%rax, %rbx	#, _2
	movq	-24(%rbp), %rax	# __first, tmp90
	movq	%rax, %rdi	# tmp90,
	call	_ZSt12__niter_baseIPKdSt6vectorIdSaIdEEET_N9__gnu_cxx17__normal_iteratorIS5_T0_EE	#
	movq	%r12, %rdx	# _1,
	movq	%rbx, %rsi	# _2,
	movq	%rax, %rdi	# _3,
	call	_ZSt14__copy_move_a1ILb0EPKdPdET1_T0_S4_S3_	#
	movq	%rax, %rdx	#, _4
	movq	-40(%rbp), %rax	# __result, tmp91
	movq	%rdx, %rsi	# _4,
	movq	%rax, %rdi	# tmp91,
	call	_ZSt12__niter_wrapIN9__gnu_cxx17__normal_iteratorIPdSt6vectorIdSaIdEEEES2_ET_S7_T0_	#
# /usr/include/c++/12/bits/stl_algobase.h:533:     }
	.loc 2 533 5
	addq	$32, %rsp	#,
	popq	%rbx	#
	popq	%r12	#
	popq	%rbp	#
	.cfi_def_cfa 7, 8
	ret	
	.cfi_endproc
.LFE3243:
	.size	_ZSt13__copy_move_aILb0EN9__gnu_cxx17__normal_iteratorIPKdSt6vectorIdSaIdEEEENS1_IPdS6_EEET1_T0_SB_SA_, .-_ZSt13__copy_move_aILb0EN9__gnu_cxx17__normal_iteratorIPKdSt6vectorIdSaIdEEEENS1_IPdS6_EEET1_T0_SB_SA_
	.section	.text._ZSt4moveIRNSt12_Vector_baseIlSaIlEE12_Vector_implEEONSt16remove_referenceIT_E4typeEOS6_,"axG",@progbits,_ZSt4moveIRNSt12_Vector_baseIlSaIlEE12_Vector_implEEONSt16remove_referenceIT_E4typeEOS6_,comdat
	.weak	_ZSt4moveIRNSt12_Vector_baseIlSaIlEE12_Vector_implEEONSt16remove_referenceIT_E4typeEOS6_
	.type	_ZSt4moveIRNSt12_Vector_baseIlSaIlEE12_Vector_implEEONSt16remove_referenceIT_E4typeEOS6_, @function
_ZSt4moveIRNSt12_Vector_baseIlSaIlEE12_Vector_implEEONSt16remove_referenceIT_E4typeEOS6_:
.LFB3245:
	.loc 8 104 5
	.cfi_startproc
	pushq	%rbp	#
	.cfi_def_cfa_offset 16
	.cfi_offset 6, -16
	movq	%rsp, %rbp	#,
	.cfi_def_cfa_register 6
	movq	%rdi, -8(%rbp)	# __t, __t
# /usr/include/c++/12/bits/move.h:105:     { return static_cast<typename std::remove_reference<_Tp>::type&&>(__t); }
	.loc 8 105 74
	movq	-8(%rbp), %rax	# __t, _2
# /usr/include/c++/12/bits/move.h:105:     { return static_cast<typename std::remove_reference<_Tp>::type&&>(__t); }
	.loc 8 105 77
	popq	%rbp	#
	.cfi_def_cfa 7, 8
	ret	
	.cfi_endproc
.LFE3245:
	.size	_ZSt4moveIRNSt12_Vector_baseIlSaIlEE12_Vector_implEEONSt16remove_referenceIT_E4typeEOS6_, .-_ZSt4moveIRNSt12_Vector_baseIlSaIlEE12_Vector_implEEONSt16remove_referenceIT_E4typeEOS6_
	.section	.text._ZNSaIlEC2ERKS_,"axG",@progbits,_ZNSaIlEC5ERKS_,comdat
	.align 2
	.weak	_ZNSaIlEC2ERKS_
	.type	_ZNSaIlEC2ERKS_, @function
_ZNSaIlEC2ERKS_:
.LFB3247:
	.loc 9 159 7
	.cfi_startproc
	pushq	%rbp	#
	.cfi_def_cfa_offset 16
	.cfi_offset 6, -16
	movq	%rsp, %rbp	#,
	.cfi_def_cfa_register 6
	subq	$16, %rsp	#,
	movq	%rdi, -8(%rbp)	# this, this
	movq	%rsi, -16(%rbp)	# __a, __a
.LBB52:
# /usr/include/c++/12/bits/allocator.h:160:       : __allocator_base<_Tp>(__a) { }
	.loc 9 160 34
	movq	-16(%rbp), %rdx	# __a, tmp82
	movq	-8(%rbp), %rax	# this, tmp83
	movq	%rdx, %rsi	# tmp82,
	movq	%rax, %rdi	# tmp83,
	call	_ZNSt15__new_allocatorIlEC2ERKS0_	#
.LBE52:
# /usr/include/c++/12/bits/allocator.h:160:       : __allocator_base<_Tp>(__a) { }
	.loc 9 160 38
	nop	
	leave	
	.cfi_def_cfa 7, 8
	ret	
	.cfi_endproc
.LFE3247:
	.size	_ZNSaIlEC2ERKS_, .-_ZNSaIlEC2ERKS_
	.weak	_ZNSaIlEC1ERKS_
	.set	_ZNSaIlEC1ERKS_,_ZNSaIlEC2ERKS_
	.section	.text._ZNSt12_Vector_baseIlSaIlEE17_Vector_impl_dataC2EOS2_,"axG",@progbits,_ZNSt12_Vector_baseIlSaIlEE17_Vector_impl_dataC5EOS2_,comdat
	.align 2
	.weak	_ZNSt12_Vector_baseIlSaIlEE17_Vector_impl_dataC2EOS2_
	.type	_ZNSt12_Vector_baseIlSaIlEE17_Vector_impl_dataC2EOS2_, @function
_ZNSt12_Vector_baseIlSaIlEE17_Vector_impl_dataC2EOS2_:
.LFB3250:
	.loc 7 105 2
	.cfi_startproc
	pushq	%rbp	#
	.cfi_def_cfa_offset 16
	.cfi_offset 6, -16
	movq	%rsp, %rbp	#,
	.cfi_def_cfa_register 6
	movq	%rdi, -8(%rbp)	# this, this
	movq	%rsi, -16(%rbp)	# __x, __x
.LBB53:
# /usr/include/c++/12/bits/stl_vector.h:106: 	: _M_start(__x._M_start), _M_finish(__x._M_finish),
	.loc 7 106 17
	movq	-16(%rbp), %rax	# __x, tmp87
	movq	(%rax), %rdx	# __x_9(D)->_M_start, _1
# /usr/include/c++/12/bits/stl_vector.h:106: 	: _M_start(__x._M_start), _M_finish(__x._M_finish),
	.loc 7 106 4
	movq	-8(%rbp), %rax	# this, tmp88
	movq	%rdx, (%rax)	# _1, this_7(D)->_M_start
# /usr/include/c++/12/bits/stl_vector.h:106: 	: _M_start(__x._M_start), _M_finish(__x._M_finish),
	.loc 7 106 42
	movq	-16(%rbp), %rax	# __x, tmp89
	movq	8(%rax), %rdx	# __x_9(D)->_M_finish, _2
# /usr/include/c++/12/bits/stl_vector.h:106: 	: _M_start(__x._M_start), _M_finish(__x._M_finish),
	.loc 7 106 28
	movq	-8(%rbp), %rax	# this, tmp90
	movq	%rdx, 8(%rax)	# _2, this_7(D)->_M_finish
# /usr/include/c++/12/bits/stl_vector.h:107: 	  _M_end_of_storage(__x._M_end_of_storage)
	.loc 7 107 26
	movq	-16(%rbp), %rax	# __x, tmp91
	movq	16(%rax), %rdx	# __x_9(D)->_M_end_of_storage, _3
# /usr/include/c++/12/bits/stl_vector.h:107: 	  _M_end_of_storage(__x._M_end_of_storage)
	.loc 7 107 4
	movq	-8(%rbp), %rax	# this, tmp92
	movq	%rdx, 16(%rax)	# _3, this_7(D)->_M_end_of_storage
# /usr/include/c++/12/bits/stl_vector.h:108: 	{ __x._M_start = __x._M_finish = __x._M_end_of_storage = pointer(); }
	.loc 7 108 57
	movq	-16(%rbp), %rax	# __x, tmp93
	movq	$0, 16(%rax)	#, __x_9(D)->_M_end_of_storage
# /usr/include/c++/12/bits/stl_vector.h:108: 	{ __x._M_start = __x._M_finish = __x._M_end_of_storage = pointer(); }
	.loc 7 108 39
	movq	-16(%rbp), %rax	# __x, tmp94
	movq	16(%rax), %rdx	# __x_9(D)->_M_end_of_storage, _4
# /usr/include/c++/12/bits/stl_vector.h:108: 	{ __x._M_start = __x._M_finish = __x._M_end_of_storage = pointer(); }
	.loc 7 108 33
	movq	-16(%rbp), %rax	# __x, tmp95
	movq	%rdx, 8(%rax)	# _4, __x_9(D)->_M_finish
# /usr/include/c++/12/bits/stl_vector.h:108: 	{ __x._M_start = __x._M_finish = __x._M_end_of_storage = pointer(); }
	.loc 7 108 23
	movq	-16(%rbp), %rax	# __x, tmp96
	movq	8(%rax), %rdx	# __x_9(D)->_M_finish, _5
# /usr/include/c++/12/bits/stl_vector.h:108: 	{ __x._M_start = __x._M_finish = __x._M_end_of_storage = pointer(); }
	.loc 7 108 17
	movq	-16(%rbp), %rax	# __x, tmp97
	movq	%rdx, (%rax)	# _5, __x_9(D)->_M_start
.LBE53:
# /usr/include/c++/12/bits/stl_vector.h:108: 	{ __x._M_start = __x._M_finish = __x._M_end_of_storage = pointer(); }
	.loc 7 108 70
	nop	
	popq	%rbp	#
	.cfi_def_cfa 7, 8
	ret	
	.cfi_endproc
.LFE3250:
	.size	_ZNSt12_Vector_baseIlSaIlEE17_Vector_impl_dataC2EOS2_, .-_ZNSt12_Vector_baseIlSaIlEE17_Vector_impl_dataC2EOS2_
	.weak	_ZNSt12_Vector_baseIlSaIlEE17_Vector_impl_dataC1EOS2_
	.set	_ZNSt12_Vector_baseIlSaIlEE17_Vector_impl_dataC1EOS2_,_ZNSt12_Vector_baseIlSaIlEE17_Vector_impl_dataC2EOS2_
	.section	.text._ZSt8__equal4IN9__gnu_cxx17__normal_iteratorIPlSt6vectorIlSaIlEEEES6_EbT_S7_T0_S8_,"axG",@progbits,_ZSt8__equal4IN9__gnu_cxx17__normal_iteratorIPlSt6vectorIlSaIlEEEES6_EbT_S7_T0_S8_,comdat
	.weak	_ZSt8__equal4IN9__gnu_cxx17__normal_iteratorIPlSt6vectorIlSaIlEEEES6_EbT_S7_T0_S8_
	.type	_ZSt8__equal4IN9__gnu_cxx17__normal_iteratorIPlSt6vectorIlSaIlEEEES6_EbT_S7_T0_S8_, @function
_ZSt8__equal4IN9__gnu_cxx17__normal_iteratorIPlSt6vectorIlSaIlEEEES6_EbT_S7_T0_S8_:
.LFB3252:
	.loc 2 1595 5
	.cfi_startproc
	pushq	%rbp	#
	.cfi_def_cfa_offset 16
	.cfi_offset 6, -16
	movq	%rsp, %rbp	#,
	.cfi_def_cfa_register 6
	pushq	%rbx	#
	subq	$72, %rsp	#,
	.cfi_offset 3, -24
	movq	%rdi, -56(%rbp)	# __first1, __first1
	movq	%rsi, -64(%rbp)	# __last1, __last1
	movq	%rdx, -72(%rbp)	# __first2, __first2
	movq	%rcx, -80(%rbp)	# __last2, __last2
.LBB54:
# /usr/include/c++/12/bits/stl_algobase.h:1601:       if (_RAIters())
	.loc 2 1601 11
	leaq	-33(%rbp), %rax	#, tmp97
	movq	%rax, %rdi	# tmp97,
	call	_ZNKSt17integral_constantIbLb1EEcvbEv	#
# /usr/include/c++/12/bits/stl_algobase.h:1601:       if (_RAIters())
	.loc 2 1601 7
	testb	%al, %al	# retval.33_20
	je	.L250	#,
.LBB55:
# /usr/include/c++/12/bits/stl_algobase.h:1603: 	  auto __d1 = std::distance(__first1, __last1);
	.loc 2 1603 29
	movq	-64(%rbp), %rdx	# __last1, tmp98
	movq	-56(%rbp), %rax	# __first1, tmp99
	movq	%rdx, %rsi	# tmp98,
	movq	%rax, %rdi	# tmp99,
	call	_ZSt8distanceIN9__gnu_cxx17__normal_iteratorIPlSt6vectorIlSaIlEEEEENSt15iterator_traitsIT_E15difference_typeES8_S8_	#
	movq	%rax, -24(%rbp)	# _39, __d1
# /usr/include/c++/12/bits/stl_algobase.h:1604: 	  auto __d2 = std::distance(__first2, __last2);
	.loc 2 1604 29
	movq	-80(%rbp), %rdx	# __last2, tmp100
	movq	-72(%rbp), %rax	# __first2, tmp101
	movq	%rdx, %rsi	# tmp100,
	movq	%rax, %rdi	# tmp101,
	call	_ZSt8distanceIN9__gnu_cxx17__normal_iteratorIPlSt6vectorIlSaIlEEEEENSt15iterator_traitsIT_E15difference_typeES8_S8_	#
	movq	%rax, -32(%rbp)	# _42, __d2
# /usr/include/c++/12/bits/stl_algobase.h:1605: 	  if (__d1 != __d2)
	.loc 2 1605 4
	movq	-24(%rbp), %rax	# __d1, tmp102
	cmpq	-32(%rbp), %rax	# __d2, tmp102
	je	.L248	#,
# /usr/include/c++/12/bits/stl_algobase.h:1606: 	    return false;
	.loc 2 1606 13
	movl	$0, %eax	#, _9
	jmp	.L249	#
.L248:
# /usr/include/c++/12/bits/stl_algobase.h:1607: 	  return _GLIBCXX_STD_A::equal(__first1, __last1, __first2);
	.loc 2 1607 32
	movq	-72(%rbp), %rdx	# __first2, tmp103
	movq	-64(%rbp), %rcx	# __last1, tmp104
	movq	-56(%rbp), %rax	# __first1, tmp105
	movq	%rcx, %rsi	# tmp104,
	movq	%rax, %rdi	# tmp105,
	call	_ZSt5equalIN9__gnu_cxx17__normal_iteratorIPlSt6vectorIlSaIlEEEES6_EbT_S7_T0_	#
# /usr/include/c++/12/bits/stl_algobase.h:1607: 	  return _GLIBCXX_STD_A::equal(__first1, __last1, __first2);
	.loc 2 1607 60
	jmp	.L249	#
.L254:
.LBE55:
.LBE54:
# /usr/include/c++/12/bits/stl_algobase.h:1612: 	if (!(*__first1 == *__first2))
	.loc 2 1612 8
	leaq	-56(%rbp), %rax	#, tmp106
	movq	%rax, %rdi	# tmp106,
	call	_ZNK9__gnu_cxx17__normal_iteratorIPlSt6vectorIlSaIlEEEdeEv	#
# /usr/include/c++/12/bits/stl_algobase.h:1612: 	if (!(*__first1 == *__first2))
	.loc 2 1612 18
	movq	(%rax), %rbx	# *_1, _2
# /usr/include/c++/12/bits/stl_algobase.h:1612: 	if (!(*__first1 == *__first2))
	.loc 2 1612 21
	leaq	-72(%rbp), %rax	#, tmp107
	movq	%rax, %rdi	# tmp107,
	call	_ZNK9__gnu_cxx17__normal_iteratorIPlSt6vectorIlSaIlEEEdeEv	#
# /usr/include/c++/12/bits/stl_algobase.h:1612: 	if (!(*__first1 == *__first2))
	.loc 2 1612 18
	movq	(%rax), %rax	# *_3, _4
	cmpq	%rax, %rbx	# _4, _2
	setne	%al	#, retval.34_34
# /usr/include/c++/12/bits/stl_algobase.h:1612: 	if (!(*__first1 == *__first2))
	.loc 2 1612 2
	testb	%al, %al	# retval.34_34
	je	.L251	#,
# /usr/include/c++/12/bits/stl_algobase.h:1613: 	  return false;
	.loc 2 1613 11
	movl	$0, %eax	#, _9
	jmp	.L249	#
.L251:
# /usr/include/c++/12/bits/stl_algobase.h:1611: 	  ++__first1, (void)++__first2)
	.loc 2 1611 4
	leaq	-56(%rbp), %rax	#, tmp108
	movq	%rax, %rdi	# tmp108,
	call	_ZN9__gnu_cxx17__normal_iteratorIPlSt6vectorIlSaIlEEEppEv	#
# /usr/include/c++/12/bits/stl_algobase.h:1611: 	  ++__first1, (void)++__first2)
	.loc 2 1611 22
	leaq	-72(%rbp), %rax	#, tmp109
	movq	%rax, %rdi	# tmp109,
	call	_ZN9__gnu_cxx17__normal_iteratorIPlSt6vectorIlSaIlEEEppEv	#
.L250:
# /usr/include/c++/12/bits/stl_algobase.h:1610:       for (; __first1 != __last1 && __first2 != __last2;
	.loc 2 1610 23
	leaq	-64(%rbp), %rdx	#, tmp110
	leaq	-56(%rbp), %rax	#, tmp111
	movq	%rdx, %rsi	# tmp110,
	movq	%rax, %rdi	# tmp111,
	call	_ZN9__gnu_cxxneIPlSt6vectorIlSaIlEEEEbRKNS_17__normal_iteratorIT_T0_EESA_	#
# /usr/include/c++/12/bits/stl_algobase.h:1610:       for (; __first1 != __last1 && __first2 != __last2;
	.loc 2 1610 34
	testb	%al, %al	# _5
	je	.L252	#,
# /usr/include/c++/12/bits/stl_algobase.h:1610:       for (; __first1 != __last1 && __first2 != __last2;
	.loc 2 1610 46 discriminator 1
	leaq	-80(%rbp), %rdx	#, tmp112
	leaq	-72(%rbp), %rax	#, tmp113
	movq	%rdx, %rsi	# tmp112,
	movq	%rax, %rdi	# tmp113,
	call	_ZN9__gnu_cxxneIPlSt6vectorIlSaIlEEEEbRKNS_17__normal_iteratorIT_T0_EESA_	#
# /usr/include/c++/12/bits/stl_algobase.h:1610:       for (; __first1 != __last1 && __first2 != __last2;
	.loc 2 1610 34 discriminator 1
	testb	%al, %al	# _6
	je	.L252	#,
# /usr/include/c++/12/bits/stl_algobase.h:1610:       for (; __first1 != __last1 && __first2 != __last2;
	.loc 2 1610 34 is_stmt 0 discriminator 3
	movl	$1, %eax	#, iftmp.36_10
	jmp	.L253	#
.L252:
# /usr/include/c++/12/bits/stl_algobase.h:1610:       for (; __first1 != __last1 && __first2 != __last2;
	.loc 2 1610 34 discriminator 4
	movl	$0, %eax	#, iftmp.36_10
.L253:
# /usr/include/c++/12/bits/stl_algobase.h:1610:       for (; __first1 != __last1 && __first2 != __last2;
	.loc 2 1610 34 discriminator 6
	testb	%al, %al	# iftmp.36_10
	jne	.L254	#,
# /usr/include/c++/12/bits/stl_algobase.h:1614:       return __first1 == __last1 && __first2 == __last2;
	.loc 2 1614 23 is_stmt 1
	leaq	-64(%rbp), %rdx	#, tmp114
	leaq	-56(%rbp), %rax	#, tmp115
	movq	%rdx, %rsi	# tmp114,
	movq	%rax, %rdi	# tmp115,
	call	_ZN9__gnu_cxxeqIPlSt6vectorIlSaIlEEEEbRKNS_17__normal_iteratorIT_T0_EESA_	#
# /usr/include/c++/12/bits/stl_algobase.h:1614:       return __first1 == __last1 && __first2 == __last2;
	.loc 2 1614 34
	testb	%al, %al	# _7
	je	.L255	#,
# /usr/include/c++/12/bits/stl_algobase.h:1614:       return __first1 == __last1 && __first2 == __last2;
	.loc 2 1614 46 discriminator 1
	leaq	-80(%rbp), %rdx	#, tmp116
	leaq	-72(%rbp), %rax	#, tmp117
	movq	%rdx, %rsi	# tmp116,
	movq	%rax, %rdi	# tmp117,
	call	_ZN9__gnu_cxxeqIPlSt6vectorIlSaIlEEEEbRKNS_17__normal_iteratorIT_T0_EESA_	#
# /usr/include/c++/12/bits/stl_algobase.h:1614:       return __first1 == __last1 && __first2 == __last2;
	.loc 2 1614 34 discriminator 1
	testb	%al, %al	# _8
	je	.L255	#,
# /usr/include/c++/12/bits/stl_algobase.h:1614:       return __first1 == __last1 && __first2 == __last2;
	.loc 2 1614 34 is_stmt 0 discriminator 3
	movl	$1, %eax	#, _9
# /usr/include/c++/12/bits/stl_algobase.h:1614:       return __first1 == __last1 && __first2 == __last2;
	.loc 2 1614 49 is_stmt 1 discriminator 3
	jmp	.L257	#
.L255:
# /usr/include/c++/12/bits/stl_algobase.h:1614:       return __first1 == __last1 && __first2 == __last2;
	.loc 2 1614 34 discriminator 4
	movl	$0, %eax	#, _9
.L257:
# /usr/include/c++/12/bits/stl_algobase.h:1614:       return __first1 == __last1 && __first2 == __last2;
	.loc 2 1614 49
	nop	
.L249:
# /usr/include/c++/12/bits/stl_algobase.h:1615:     }
	.loc 2 1615 5
	movq	-8(%rbp), %rbx	#,
	leave	
	.cfi_def_cfa 7, 8
	ret	
	.cfi_endproc
.LFE3252:
	.size	_ZSt8__equal4IN9__gnu_cxx17__normal_iteratorIPlSt6vectorIlSaIlEEEES6_EbT_S7_T0_S8_, .-_ZSt8__equal4IN9__gnu_cxx17__normal_iteratorIPlSt6vectorIlSaIlEEEES6_EbT_S7_T0_S8_
	.section	.text._ZSt13__copy_move_aILb1EN9__gnu_cxx17__normal_iteratorIPKdSt6vectorIdSaIdEEEENS1_IPdS6_EEET1_T0_SB_SA_,"axG",@progbits,_ZSt13__copy_move_aILb1EN9__gnu_cxx17__normal_iteratorIPKdSt6vectorIdSaIdEEEENS1_IPdS6_EEET1_T0_SB_SA_,comdat
	.weak	_ZSt13__copy_move_aILb1EN9__gnu_cxx17__normal_iteratorIPKdSt6vectorIdSaIdEEEENS1_IPdS6_EEET1_T0_SB_SA_
	.type	_ZSt13__copy_move_aILb1EN9__gnu_cxx17__normal_iteratorIPKdSt6vectorIdSaIdEEEENS1_IPdS6_EEET1_T0_SB_SA_, @function
_ZSt13__copy_move_aILb1EN9__gnu_cxx17__normal_iteratorIPKdSt6vectorIdSaIdEEEENS1_IPdS6_EEET1_T0_SB_SA_:
.LFB3253:
	.loc 2 527 5
	.cfi_startproc
	pushq	%rbp	#
	.cfi_def_cfa_offset 16
	.cfi_offset 6, -16
	movq	%rsp, %rbp	#,
	.cfi_def_cfa_register 6
	pushq	%r12	#
	pushq	%rbx	#
	subq	$32, %rsp	#,
	.cfi_offset 12, -24
	.cfi_offset 3, -32
	movq	%rdi, -24(%rbp)	# __first, __first
	movq	%rsi, -32(%rbp)	# __last, __last
	movq	%rdx, -40(%rbp)	# __result, __result
# /usr/include/c++/12/bits/stl_algobase.h:529:       return std::__niter_wrap(__result,
	.loc 2 529 31
	movq	-40(%rbp), %rax	# __result, tmp88
	movq	%rax, %rdi	# tmp88,
	call	_ZSt12__niter_baseIPdSt6vectorIdSaIdEEET_N9__gnu_cxx17__normal_iteratorIS4_T0_EE	#
	movq	%rax, %r12	#, _1
	movq	-32(%rbp), %rax	# __last, tmp89
	movq	%rax, %rdi	# tmp89,
	call	_ZSt12__niter_baseIPKdSt6vectorIdSaIdEEET_N9__gnu_cxx17__normal_iteratorIS5_T0_EE	#
	movq	%rax, %rbx	#, _2
	movq	-24(%rbp), %rax	# __first, tmp90
	movq	%rax, %rdi	# tmp90,
	call	_ZSt12__niter_baseIPKdSt6vectorIdSaIdEEET_N9__gnu_cxx17__normal_iteratorIS5_T0_EE	#
	movq	%r12, %rdx	# _1,
	movq	%rbx, %rsi	# _2,
	movq	%rax, %rdi	# _3,
	call	_ZSt14__copy_move_a1ILb1EPKdPdET1_T0_S4_S3_	#
	movq	%rax, %rdx	#, _4
	movq	-40(%rbp), %rax	# __result, tmp91
	movq	%rdx, %rsi	# _4,
	movq	%rax, %rdi	# tmp91,
	call	_ZSt12__niter_wrapIN9__gnu_cxx17__normal_iteratorIPdSt6vectorIdSaIdEEEES2_ET_S7_T0_	#
# /usr/include/c++/12/bits/stl_algobase.h:533:     }
	.loc 2 533 5
	addq	$32, %rsp	#,
	popq	%rbx	#
	popq	%r12	#
	popq	%rbp	#
	.cfi_def_cfa 7, 8
	ret	
	.cfi_endproc
.LFE3253:
	.size	_ZSt13__copy_move_aILb1EN9__gnu_cxx17__normal_iteratorIPKdSt6vectorIdSaIdEEEENS1_IPdS6_EEET1_T0_SB_SA_, .-_ZSt13__copy_move_aILb1EN9__gnu_cxx17__normal_iteratorIPKdSt6vectorIdSaIdEEEENS1_IPdS6_EEET1_T0_SB_SA_
	.section	.text._ZNSt15__new_allocatorIdE10deallocateEPdm,"axG",@progbits,_ZNSt15__new_allocatorIdE10deallocateEPdm,comdat
	.align 2
	.weak	_ZNSt15__new_allocatorIdE10deallocateEPdm
	.type	_ZNSt15__new_allocatorIdE10deallocateEPdm, @function
_ZNSt15__new_allocatorIdE10deallocateEPdm:
.LFB3275:
	.loc 11 142 7
	.cfi_startproc
	pushq	%rbp	#
	.cfi_def_cfa_offset 16
	.cfi_offset 6, -16
	movq	%rsp, %rbp	#,
	.cfi_def_cfa_register 6
	subq	$32, %rsp	#,
	movq	%rdi, -8(%rbp)	# this, this
	movq	%rsi, -16(%rbp)	# __p, __p
	movq	%rdx, -24(%rbp)	# __n, __n
# /usr/include/c++/12/bits/new_allocator.h:158: 	_GLIBCXX_OPERATOR_DELETE(_GLIBCXX_SIZED_DEALLOC(__p, __n));
	.loc 11 158 26
	movq	-24(%rbp), %rax	# __n, tmp83
	leaq	0(,%rax,8), %rdx	#, _2
	movq	-16(%rbp), %rax	# __p, tmp84
	movq	%rdx, %rsi	# _2,
	movq	%rax, %rdi	# tmp84,
	call	_ZdlPvm@PLT	#
# /usr/include/c++/12/bits/new_allocator.h:159:       }
	.loc 11 159 7
	leave	
	.cfi_def_cfa 7, 8
	ret	
	.cfi_endproc
.LFE3275:
	.size	_ZNSt15__new_allocatorIdE10deallocateEPdm, .-_ZNSt15__new_allocatorIdE10deallocateEPdm
	.section	.text._ZNSt6vectorIlSaIlEE11_S_max_sizeERKS0_,"axG",@progbits,_ZNSt6vectorIlSaIlEE11_S_max_sizeERKS0_,comdat
	.weak	_ZNSt6vectorIlSaIlEE11_S_max_sizeERKS0_
	.type	_ZNSt6vectorIlSaIlEE11_S_max_sizeERKS0_, @function
_ZNSt6vectorIlSaIlEE11_S_max_sizeERKS0_:
.LFB3276:
	.loc 7 1911 7
	.cfi_startproc
	pushq	%rbp	#
	.cfi_def_cfa_offset 16
	.cfi_offset 6, -16
	movq	%rsp, %rbp	#,
	.cfi_def_cfa_register 6
	subq	$32, %rsp	#,
	movq	%rdi, -24(%rbp)	# __a, __a
# /usr/include/c++/12/bits/stl_vector.h:1916: 	const size_t __diffmax
	.loc 7 1916 15
	movabsq	$1152921504606846975, %rax	#, tmp91
	movq	%rax, -8(%rbp)	# tmp91, __diffmax
# /usr/include/c++/12/bits/stl_vector.h:1918: 	const size_t __allocmax = _Alloc_traits::max_size(__a);
	.loc 7 1918 51
	movq	-24(%rbp), %rax	# __a, tmp86
	movq	%rax, %rdi	# tmp86,
	call	_ZNSt16allocator_traitsISaIlEE8max_sizeERKS0_	#
# /usr/include/c++/12/bits/stl_vector.h:1918: 	const size_t __allocmax = _Alloc_traits::max_size(__a);
	.loc 7 1918 15
	movq	%rax, -16(%rbp)	# _1, __allocmax
# /usr/include/c++/12/bits/stl_vector.h:1919: 	return (std::min)(__diffmax, __allocmax);
	.loc 7 1919 19
	leaq	-16(%rbp), %rdx	#, tmp87
	leaq	-8(%rbp), %rax	#, tmp88
	movq	%rdx, %rsi	# tmp87,
	movq	%rax, %rdi	# tmp88,
	call	_ZSt3minImERKT_S2_S2_	#
# /usr/include/c++/12/bits/stl_vector.h:1919: 	return (std::min)(__diffmax, __allocmax);
	.loc 7 1919 41
	movq	(%rax), %rax	# *_2, _9
# /usr/include/c++/12/bits/stl_vector.h:1920:       }
	.loc 7 1920 7
	leave	
	.cfi_def_cfa 7, 8
	ret	
	.cfi_endproc
.LFE3276:
	.size	_ZNSt6vectorIlSaIlEE11_S_max_sizeERKS0_, .-_ZNSt6vectorIlSaIlEE11_S_max_sizeERKS0_
	.section	.text._ZNSt16allocator_traitsISaIlEE8allocateERS0_m,"axG",@progbits,_ZNSt16allocator_traitsISaIlEE8allocateERS0_m,comdat
	.weak	_ZNSt16allocator_traitsISaIlEE8allocateERS0_m
	.type	_ZNSt16allocator_traitsISaIlEE8allocateERS0_m, @function
_ZNSt16allocator_traitsISaIlEE8allocateERS0_m:
.LFB3277:
	.loc 10 463 7
	.cfi_startproc
	pushq	%rbp	#
	.cfi_def_cfa_offset 16
	.cfi_offset 6, -16
	movq	%rsp, %rbp	#,
	.cfi_def_cfa_register 6
	subq	$16, %rsp	#,
	movq	%rdi, -8(%rbp)	# __a, __a
	movq	%rsi, -16(%rbp)	# __n, __n
# /usr/include/c++/12/bits/alloc_traits.h:464:       { return __a.allocate(__n); }
	.loc 10 464 28
	movq	-16(%rbp), %rcx	# __n, tmp84
	movq	-8(%rbp), %rax	# __a, tmp85
	movl	$0, %edx	#,
	movq	%rcx, %rsi	# tmp84,
	movq	%rax, %rdi	# tmp85,
	call	_ZNSt15__new_allocatorIlE8allocateEmPKv	#
# /usr/include/c++/12/bits/alloc_traits.h:464:       { return __a.allocate(__n); }
	.loc 10 464 35
	leave	
	.cfi_def_cfa 7, 8
	ret	
	.cfi_endproc
.LFE3277:
	.size	_ZNSt16allocator_traitsISaIlEE8allocateERS0_m, .-_ZNSt16allocator_traitsISaIlEE8allocateERS0_m
	.section	.text._ZSt18uninitialized_copyIPKlPlET0_T_S4_S3_,"axG",@progbits,_ZSt18uninitialized_copyIPKlPlET0_T_S4_S3_,comdat
	.weak	_ZSt18uninitialized_copyIPKlPlET0_T_S4_S3_
	.type	_ZSt18uninitialized_copyIPKlPlET0_T_S4_S3_, @function
_ZSt18uninitialized_copyIPKlPlET0_T_S4_S3_:
.LFB3278:
	.loc 17 163 5
	.cfi_startproc
	pushq	%rbp	#
	.cfi_def_cfa_offset 16
	.cfi_offset 6, -16
	movq	%rsp, %rbp	#,
	.cfi_def_cfa_register 6
	subq	$48, %rsp	#,
	movq	%rdi, -24(%rbp)	# __first, __first
	movq	%rsi, -32(%rbp)	# __last, __last
	movq	%rdx, -40(%rbp)	# __result, __result
# /usr/include/c++/12/bits/stl_uninitialized.h:174:       const bool __can_memmove = __is_trivial(_ValueType1);
	.loc 17 174 18
	movb	$1, -1(%rbp)	#, __can_memmove
# /usr/include/c++/12/bits/stl_uninitialized.h:181:       const bool __assignable
	.loc 17 181 18
	movb	$1, -2(%rbp)	#, __assignable
# /usr/include/c++/12/bits/stl_uninitialized.h:185: 	__uninit_copy(__first, __last, __result);
	.loc 17 185 15
	movq	-40(%rbp), %rdx	# __result, tmp84
	movq	-32(%rbp), %rcx	# __last, tmp85
	movq	-24(%rbp), %rax	# __first, tmp86
	movq	%rcx, %rsi	# tmp85,
	movq	%rax, %rdi	# tmp86,
	call	_ZNSt20__uninitialized_copyILb1EE13__uninit_copyIPKlPlEET0_T_S6_S5_	#
# /usr/include/c++/12/bits/stl_uninitialized.h:186:     }
	.loc 17 186 5
	leave	
	.cfi_def_cfa 7, 8
	ret	
	.cfi_endproc
.LFE3278:
	.size	_ZSt18uninitialized_copyIPKlPlET0_T_S4_S3_, .-_ZSt18uninitialized_copyIPKlPlET0_T_S4_S3_
	.section	.text._ZNK9__gnu_cxx17__normal_iteratorIPlSt6vectorIlSaIlEEE4baseEv,"axG",@progbits,_ZNK9__gnu_cxx17__normal_iteratorIPlSt6vectorIlSaIlEEE4baseEv,comdat
	.align 2
	.weak	_ZNK9__gnu_cxx17__normal_iteratorIPlSt6vectorIlSaIlEEE4baseEv
	.type	_ZNK9__gnu_cxx17__normal_iteratorIPlSt6vectorIlSaIlEEE4baseEv, @function
_ZNK9__gnu_cxx17__normal_iteratorIPlSt6vectorIlSaIlEEE4baseEv:
.LFB3280:
	.loc 18 1158 7
	.cfi_startproc
	pushq	%rbp	#
	.cfi_def_cfa_offset 16
	.cfi_offset 6, -16
	movq	%rsp, %rbp	#,
	.cfi_def_cfa_register 6
	movq	%rdi, -8(%rbp)	# this, this
# /usr/include/c++/12/bits/stl_iterator.h:1159:       { return _M_current; }
	.loc 18 1159 16
	movq	-8(%rbp), %rax	# this, _2
# /usr/include/c++/12/bits/stl_iterator.h:1159:       { return _M_current; }
	.loc 18 1159 28
	popq	%rbp	#
	.cfi_def_cfa 7, 8
	ret	
	.cfi_endproc
.LFE3280:
	.size	_ZNK9__gnu_cxx17__normal_iteratorIPlSt6vectorIlSaIlEEE4baseEv, .-_ZNK9__gnu_cxx17__normal_iteratorIPlSt6vectorIlSaIlEEE4baseEv
	.section	.text._ZNKSt6vectorIdSaIdEE8max_sizeEv,"axG",@progbits,_ZNKSt6vectorIdSaIdEE8max_sizeEv,comdat
	.align 2
	.weak	_ZNKSt6vectorIdSaIdEE8max_sizeEv
	.type	_ZNKSt6vectorIdSaIdEE8max_sizeEv, @function
_ZNKSt6vectorIdSaIdEE8max_sizeEv:
.LFB3281:
	.loc 7 993 7
	.cfi_startproc
	pushq	%rbp	#
	.cfi_def_cfa_offset 16
	.cfi_offset 6, -16
	movq	%rsp, %rbp	#,
	.cfi_def_cfa_register 6
	subq	$16, %rsp	#,
	movq	%rdi, -8(%rbp)	# this, this
# /usr/include/c++/12/bits/stl_vector.h:994:       { return _S_max_size(_M_get_Tp_allocator()); }
	.loc 7 994 47
	movq	-8(%rbp), %rax	# this, _1
	movq	%rax, %rdi	# _1,
	call	_ZNKSt12_Vector_baseIdSaIdEE19_M_get_Tp_allocatorEv	#
# /usr/include/c++/12/bits/stl_vector.h:994:       { return _S_max_size(_M_get_Tp_allocator()); }
	.loc 7 994 27
	movq	%rax, %rdi	# _2,
	call	_ZNSt6vectorIdSaIdEE11_S_max_sizeERKS0_	#
# /usr/include/c++/12/bits/stl_vector.h:994:       { return _S_max_size(_M_get_Tp_allocator()); }
	.loc 7 994 52
	leave	
	.cfi_def_cfa 7, 8
	ret	
	.cfi_endproc
.LFE3281:
	.size	_ZNKSt6vectorIdSaIdEE8max_sizeEv, .-_ZNKSt6vectorIdSaIdEE8max_sizeEv
	.section	.text._ZSt27__uninitialized_default_n_aIPdmdET_S1_T0_RSaIT1_E,"axG",@progbits,_ZSt27__uninitialized_default_n_aIPdmdET_S1_T0_RSaIT1_E,comdat
	.weak	_ZSt27__uninitialized_default_n_aIPdmdET_S1_T0_RSaIT1_E
	.type	_ZSt27__uninitialized_default_n_aIPdmdET_S1_T0_RSaIT1_E, @function
_ZSt27__uninitialized_default_n_aIPdmdET_S1_T0_RSaIT1_E:
.LFB3282:
	.loc 17 764 5
	.cfi_startproc
	pushq	%rbp	#
	.cfi_def_cfa_offset 16
	.cfi_offset 6, -16
	movq	%rsp, %rbp	#,
	.cfi_def_cfa_register 6
	subq	$32, %rsp	#,
	movq	%rdi, -8(%rbp)	# __first, __first
	movq	%rsi, -16(%rbp)	# __n, __n
	movq	%rdx, -24(%rbp)	# D.66628, D.66628
# /usr/include/c++/12/bits/stl_uninitialized.h:766:     { return std::__uninitialized_default_n(__first, __n); }
	.loc 17 766 44
	movq	-16(%rbp), %rdx	# __n, tmp84
	movq	-8(%rbp), %rax	# __first, tmp85
	movq	%rdx, %rsi	# tmp84,
	movq	%rax, %rdi	# tmp85,
	call	_ZSt25__uninitialized_default_nIPdmET_S1_T0_	#
# /usr/include/c++/12/bits/stl_uninitialized.h:766:     { return std::__uninitialized_default_n(__first, __n); }
	.loc 17 766 60
	leave	
	.cfi_def_cfa 7, 8
	ret	
	.cfi_endproc
.LFE3282:
	.size	_ZSt27__uninitialized_default_n_aIPdmdET_S1_T0_RSaIT1_E, .-_ZSt27__uninitialized_default_n_aIPdmdET_S1_T0_RSaIT1_E
	.section	.text._ZNKSt6vectorIdSaIdEE12_M_check_lenEmPKc,"axG",@progbits,_ZNKSt6vectorIdSaIdEE12_M_check_lenEmPKc,comdat
	.align 2
	.weak	_ZNKSt6vectorIdSaIdEE12_M_check_lenEmPKc
	.type	_ZNKSt6vectorIdSaIdEE12_M_check_lenEmPKc, @function
_ZNKSt6vectorIdSaIdEE12_M_check_lenEmPKc:
.LFB3283:
	.loc 7 1891 7
	.cfi_startproc
	pushq	%rbp	#
	.cfi_def_cfa_offset 16
	.cfi_offset 6, -16
	movq	%rsp, %rbp	#,
	.cfi_def_cfa_register 6
	pushq	%rbx	#
	subq	$56, %rsp	#,
	.cfi_offset 3, -24
	movq	%rdi, -40(%rbp)	# this, this
	movq	%rsi, -48(%rbp)	# __n, __n
	movq	%rdx, -56(%rbp)	# __s, __s
# /usr/include/c++/12/bits/stl_vector.h:1893: 	if (max_size() - size() < __n)
	.loc 7 1893 14
	movq	-40(%rbp), %rax	# this, tmp95
	movq	%rax, %rdi	# tmp95,
	call	_ZNKSt6vectorIdSaIdEE8max_sizeEv	#
	movq	%rax, %rbx	#, _1
# /usr/include/c++/12/bits/stl_vector.h:1893: 	if (max_size() - size() < __n)
	.loc 7 1893 23
	movq	-40(%rbp), %rax	# this, tmp96
	movq	%rax, %rdi	# tmp96,
	call	_ZNKSt6vectorIdSaIdEE4sizeEv	#
# /usr/include/c++/12/bits/stl_vector.h:1893: 	if (max_size() - size() < __n)
	.loc 7 1893 17
	subq	%rax, %rbx	# _2, _1
	movq	%rbx, %rdx	# _1, _3
# /usr/include/c++/12/bits/stl_vector.h:1893: 	if (max_size() - size() < __n)
	.loc 7 1893 26
	movq	-48(%rbp), %rax	# __n, __n.16_4
	cmpq	%rax, %rdx	# __n.16_4, _3
	setb	%al	#, retval.15_18
# /usr/include/c++/12/bits/stl_vector.h:1893: 	if (max_size() - size() < __n)
	.loc 7 1893 2
	testb	%al, %al	# retval.15_18
	je	.L275	#,
# /usr/include/c++/12/bits/stl_vector.h:1894: 	  __throw_length_error(__N(__s));
	.loc 7 1894 24
	movq	-56(%rbp), %rax	# __s, tmp97
	movq	%rax, %rdi	# tmp97,
	call	_ZSt20__throw_length_errorPKc@PLT	#
.L275:
# /usr/include/c++/12/bits/stl_vector.h:1896: 	const size_type __len = size() + (std::max)(size(), __n);
	.loc 7 1896 30
	movq	-40(%rbp), %rax	# this, tmp98
	movq	%rax, %rdi	# tmp98,
	call	_ZNKSt6vectorIdSaIdEE4sizeEv	#
	movq	%rax, %rbx	#, _5
# /usr/include/c++/12/bits/stl_vector.h:1896: 	const size_type __len = size() + (std::max)(size(), __n);
	.loc 7 1896 50
	movq	-40(%rbp), %rax	# this, tmp99
	movq	%rax, %rdi	# tmp99,
	call	_ZNKSt6vectorIdSaIdEE4sizeEv	#
	movq	%rax, -32(%rbp)	# _6, D.66640
# /usr/include/c++/12/bits/stl_vector.h:1896: 	const size_type __len = size() + (std::max)(size(), __n);
	.loc 7 1896 45
	leaq	-48(%rbp), %rdx	#, tmp100
	leaq	-32(%rbp), %rax	#, tmp101
	movq	%rdx, %rsi	# tmp100,
	movq	%rax, %rdi	# tmp101,
	call	_ZSt3maxImERKT_S2_S2_	#
# /usr/include/c++/12/bits/stl_vector.h:1896: 	const size_type __len = size() + (std::max)(size(), __n);
	.loc 7 1896 33
	movq	(%rax), %rax	# *_7, _8
# /usr/include/c++/12/bits/stl_vector.h:1896: 	const size_type __len = size() + (std::max)(size(), __n);
	.loc 7 1896 18
	addq	%rbx, %rax	# _5, tmp102
	movq	%rax, -24(%rbp)	# tmp102, __len
# /usr/include/c++/12/bits/stl_vector.h:1897: 	return (__len < size() || __len > max_size()) ? max_size() : __len;
	.loc 7 1897 22
	movq	-40(%rbp), %rax	# this, tmp103
	movq	%rax, %rdi	# tmp103,
	call	_ZNKSt6vectorIdSaIdEE4sizeEv	#
# /usr/include/c++/12/bits/stl_vector.h:1897: 	return (__len < size() || __len > max_size()) ? max_size() : __len;
	.loc 7 1897 48
	cmpq	%rax, -24(%rbp)	# _9, __len
	jb	.L276	#,
# /usr/include/c++/12/bits/stl_vector.h:1897: 	return (__len < size() || __len > max_size()) ? max_size() : __len;
	.loc 7 1897 44 discriminator 2
	movq	-40(%rbp), %rax	# this, tmp104
	movq	%rax, %rdi	# tmp104,
	call	_ZNKSt6vectorIdSaIdEE8max_sizeEv	#
# /usr/include/c++/12/bits/stl_vector.h:1897: 	return (__len < size() || __len > max_size()) ? max_size() : __len;
	.loc 7 1897 25 discriminator 2
	cmpq	-24(%rbp), %rax	# __len, _10
	jnb	.L277	#,
.L276:
# /usr/include/c++/12/bits/stl_vector.h:1897: 	return (__len < size() || __len > max_size()) ? max_size() : __len;
	.loc 7 1897 58 discriminator 3
	movq	-40(%rbp), %rax	# this, tmp105
	movq	%rax, %rdi	# tmp105,
	call	_ZNKSt6vectorIdSaIdEE8max_sizeEv	#
# /usr/include/c++/12/bits/stl_vector.h:1897: 	return (__len < size() || __len > max_size()) ? max_size() : __len;
	.loc 7 1897 48 discriminator 3
	jmp	.L278	#
.L277:
# /usr/include/c++/12/bits/stl_vector.h:1897: 	return (__len < size() || __len > max_size()) ? max_size() : __len;
	.loc 7 1897 48 is_stmt 0 discriminator 4
	movq	-24(%rbp), %rax	# __len, iftmp.17_11
.L278:
# /usr/include/c++/12/bits/stl_vector.h:1898:       }
	.loc 7 1898 7 is_stmt 1 discriminator 6
	movq	-8(%rbp), %rbx	#,
	leave	
	.cfi_def_cfa 7, 8
	ret	
	.cfi_endproc
.LFE3283:
	.size	_ZNKSt6vectorIdSaIdEE12_M_check_lenEmPKc, .-_ZNKSt6vectorIdSaIdEE12_M_check_lenEmPKc
	.section	.text._ZNSt12_Vector_baseIdSaIdEE11_M_allocateEm,"axG",@progbits,_ZNSt12_Vector_baseIdSaIdEE11_M_allocateEm,comdat
	.align 2
	.weak	_ZNSt12_Vector_baseIdSaIdEE11_M_allocateEm
	.type	_ZNSt12_Vector_baseIdSaIdEE11_M_allocateEm, @function
_ZNSt12_Vector_baseIdSaIdEE11_M_allocateEm:
.LFB3284:
	.loc 7 375 7
	.cfi_startproc
	pushq	%rbp	#
	.cfi_def_cfa_offset 16
	.cfi_offset 6, -16
	movq	%rsp, %rbp	#,
	.cfi_def_cfa_register 6
	subq	$16, %rsp	#,
	movq	%rdi, -8(%rbp)	# this, this
	movq	%rsi, -16(%rbp)	# __n, __n
# /usr/include/c++/12/bits/stl_vector.h:378: 	return __n != 0 ? _Tr::allocate(_M_impl, __n) : pointer();
	.loc 7 378 18
	cmpq	$0, -16(%rbp)	#, __n
	je	.L281	#,
# /usr/include/c++/12/bits/stl_vector.h:378: 	return __n != 0 ? _Tr::allocate(_M_impl, __n) : pointer();
	.loc 7 378 34 discriminator 1
	movq	-8(%rbp), %rax	# this, _1
# /usr/include/c++/12/bits/stl_vector.h:378: 	return __n != 0 ? _Tr::allocate(_M_impl, __n) : pointer();
	.loc 7 378 33 discriminator 1
	movq	-16(%rbp), %rdx	# __n, tmp85
	movq	%rdx, %rsi	# tmp85,
	movq	%rax, %rdi	# _1,
	call	_ZNSt16allocator_traitsISaIdEE8allocateERS0_m	#
# /usr/include/c++/12/bits/stl_vector.h:378: 	return __n != 0 ? _Tr::allocate(_M_impl, __n) : pointer();
	.loc 7 378 58 discriminator 1
	jmp	.L283	#
.L281:
# /usr/include/c++/12/bits/stl_vector.h:378: 	return __n != 0 ? _Tr::allocate(_M_impl, __n) : pointer();
	.loc 7 378 18 discriminator 2
	movl	$0, %eax	#, _9
.L283:
# /usr/include/c++/12/bits/stl_vector.h:379:       }
	.loc 7 379 7 discriminator 5
	leave	
	.cfi_def_cfa 7, 8
	ret	
	.cfi_endproc
.LFE3284:
	.size	_ZNSt12_Vector_baseIdSaIdEE11_M_allocateEm, .-_ZNSt12_Vector_baseIdSaIdEE11_M_allocateEm
	.section	.text._ZNSt6vectorIdSaIdEE11_S_relocateEPdS2_S2_RS0_,"axG",@progbits,_ZNSt6vectorIdSaIdEE11_S_relocateEPdS2_S2_RS0_,comdat
	.weak	_ZNSt6vectorIdSaIdEE11_S_relocateEPdS2_S2_RS0_
	.type	_ZNSt6vectorIdSaIdEE11_S_relocateEPdS2_S2_RS0_, @function
_ZNSt6vectorIdSaIdEE11_S_relocateEPdS2_S2_RS0_:
.LFB3285:
	.loc 7 499 7
	.cfi_startproc
	pushq	%rbp	#
	.cfi_def_cfa_offset 16
	.cfi_offset 6, -16
	movq	%rsp, %rbp	#,
	.cfi_def_cfa_register 6
	subq	$32, %rsp	#,
	movq	%rdi, -8(%rbp)	# __first, __first
	movq	%rsi, -16(%rbp)	# __last, __last
	movq	%rdx, -24(%rbp)	# __result, __result
	movq	%rcx, -32(%rbp)	# __alloc, __alloc
# /usr/include/c++/12/bits/stl_vector.h:504: 	return std::__relocate_a(__first, __last, __result, __alloc);
	.loc 7 504 26
	movq	-32(%rbp), %rcx	# __alloc, tmp84
	movq	-24(%rbp), %rdx	# __result, tmp85
	movq	-16(%rbp), %rsi	# __last, tmp86
	movq	-8(%rbp), %rax	# __first, tmp87
	movq	%rax, %rdi	# tmp87,
	call	_ZSt12__relocate_aIPdS0_SaIdEET0_T_S3_S2_RT1_	#
# /usr/include/c++/12/bits/stl_vector.h:509:       }
	.loc 7 509 7
	leave	
	.cfi_def_cfa 7, 8
	ret	
	.cfi_endproc
.LFE3285:
	.size	_ZNSt6vectorIdSaIdEE11_S_relocateEPdS2_S2_RS0_, .-_ZNSt6vectorIdSaIdEE11_S_relocateEPdS2_S2_RS0_
	.section	.text._ZNSt15__new_allocatorIlE10deallocateEPlm,"axG",@progbits,_ZNSt15__new_allocatorIlE10deallocateEPlm,comdat
	.align 2
	.weak	_ZNSt15__new_allocatorIlE10deallocateEPlm
	.type	_ZNSt15__new_allocatorIlE10deallocateEPlm, @function
_ZNSt15__new_allocatorIlE10deallocateEPlm:
.LFB3286:
	.loc 11 142 7
	.cfi_startproc
	pushq	%rbp	#
	.cfi_def_cfa_offset 16
	.cfi_offset 6, -16
	movq	%rsp, %rbp	#,
	.cfi_def_cfa_register 6
	subq	$32, %rsp	#,
	movq	%rdi, -8(%rbp)	# this, this
	movq	%rsi, -16(%rbp)	# __p, __p
	movq	%rdx, -24(%rbp)	# __n, __n
# /usr/include/c++/12/bits/new_allocator.h:158: 	_GLIBCXX_OPERATOR_DELETE(_GLIBCXX_SIZED_DEALLOC(__p, __n));
	.loc 11 158 26
	movq	-24(%rbp), %rax	# __n, tmp83
	leaq	0(,%rax,8), %rdx	#, _2
	movq	-16(%rbp), %rax	# __p, tmp84
	movq	%rdx, %rsi	# _2,
	movq	%rax, %rdi	# tmp84,
	call	_ZdlPvm@PLT	#
# /usr/include/c++/12/bits/new_allocator.h:159:       }
	.loc 11 159 7
	leave	
	.cfi_def_cfa 7, 8
	ret	
	.cfi_endproc
.LFE3286:
	.size	_ZNSt15__new_allocatorIlE10deallocateEPlm, .-_ZNSt15__new_allocatorIlE10deallocateEPlm
	.section	.text._ZNKSt12_Vector_baseIlSaIlEE19_M_get_Tp_allocatorEv,"axG",@progbits,_ZNKSt12_Vector_baseIlSaIlEE19_M_get_Tp_allocatorEv,comdat
	.align 2
	.weak	_ZNKSt12_Vector_baseIlSaIlEE19_M_get_Tp_allocatorEv
	.type	_ZNKSt12_Vector_baseIlSaIlEE19_M_get_Tp_allocatorEv, @function
_ZNKSt12_Vector_baseIlSaIlEE19_M_get_Tp_allocatorEv:
.LFB3287:
	.loc 7 303 7
	.cfi_startproc
	pushq	%rbp	#
	.cfi_def_cfa_offset 16
	.cfi_offset 6, -16
	movq	%rsp, %rbp	#,
	.cfi_def_cfa_register 6
	movq	%rdi, -8(%rbp)	# this, this
# /usr/include/c++/12/bits/stl_vector.h:304:       { return this->_M_impl; }
	.loc 7 304 22
	movq	-8(%rbp), %rax	# this, _2
# /usr/include/c++/12/bits/stl_vector.h:304:       { return this->_M_impl; }
	.loc 7 304 31
	popq	%rbp	#
	.cfi_def_cfa 7, 8
	ret	
	.cfi_endproc
.LFE3287:
	.size	_ZNKSt12_Vector_baseIlSaIlEE19_M_get_Tp_allocatorEv, .-_ZNKSt12_Vector_baseIlSaIlEE19_M_get_Tp_allocatorEv
	.section	.text._ZN9__gnu_cxx14__alloc_traitsISaIlElE17_S_select_on_copyERKS1_,"axG",@progbits,_ZN9__gnu_cxx14__alloc_traitsISaIlElE17_S_select_on_copyERKS1_,comdat
	.weak	_ZN9__gnu_cxx14__alloc_traitsISaIlElE17_S_select_on_copyERKS1_
	.type	_ZN9__gnu_cxx14__alloc_traitsISaIlElE17_S_select_on_copyERKS1_, @function
_ZN9__gnu_cxx14__alloc_traitsISaIlElE17_S_select_on_copyERKS1_:
.LFB3288:
	.file 21 "/usr/include/c++/12/ext/alloc_traits.h"
	.loc 21 97 29
	.cfi_startproc
	pushq	%rbp	#
	.cfi_def_cfa_offset 16
	.cfi_offset 6, -16
	movq	%rsp, %rbp	#,
	.cfi_def_cfa_register 6
	subq	$16, %rsp	#,
	movq	%rdi, -8(%rbp)	# .result_ptr, .result_ptr
	movq	%rsi, -16(%rbp)	# __a, __a
# /usr/include/c++/12/ext/alloc_traits.h:98:     { return _Base_type::select_on_container_copy_construction(__a); }
	.loc 21 98 67
	movq	-8(%rbp), %rax	# <retval>, tmp82
	movq	-16(%rbp), %rdx	# __a, tmp83
	movq	%rdx, %rsi	# tmp83,
	movq	%rax, %rdi	# tmp82,
	call	_ZNSt16allocator_traitsISaIlEE37select_on_container_copy_constructionERKS0_	#
# /usr/include/c++/12/ext/alloc_traits.h:98:     { return _Base_type::select_on_container_copy_construction(__a); }
	.loc 21 98 70
	movq	-8(%rbp), %rax	# <retval>,
	leave	
	.cfi_def_cfa 7, 8
	ret	
	.cfi_endproc
.LFE3288:
	.size	_ZN9__gnu_cxx14__alloc_traitsISaIlElE17_S_select_on_copyERKS1_, .-_ZN9__gnu_cxx14__alloc_traitsISaIlElE17_S_select_on_copyERKS1_
	.section	.text._ZNSt12_Vector_baseIlSaIlEEC2EmRKS0_,"axG",@progbits,_ZNSt12_Vector_baseIlSaIlEEC5EmRKS0_,comdat
	.align 2
	.weak	_ZNSt12_Vector_baseIlSaIlEEC2EmRKS0_
	.type	_ZNSt12_Vector_baseIlSaIlEEC2EmRKS0_, @function
_ZNSt12_Vector_baseIlSaIlEEC2EmRKS0_:
.LFB3290:
	.loc 7 330 7
	.cfi_startproc
	.cfi_personality 0x9b,DW.ref.__gxx_personality_v0
	.cfi_lsda 0x1b,.LLSDA3290
	pushq	%rbp	#
	.cfi_def_cfa_offset 16
	.cfi_offset 6, -16
	movq	%rsp, %rbp	#,
	.cfi_def_cfa_register 6
	pushq	%rbx	#
	subq	$40, %rsp	#,
	.cfi_offset 3, -24
	movq	%rdi, -24(%rbp)	# this, this
	movq	%rsi, -32(%rbp)	# __n, __n
	movq	%rdx, -40(%rbp)	# __a, __a
.LBB56:
# /usr/include/c++/12/bits/stl_vector.h:331:       : _M_impl(__a)
	.loc 7 331 9
	movq	-24(%rbp), %rax	# this, _1
	movq	-40(%rbp), %rdx	# __a, tmp85
	movq	%rdx, %rsi	# tmp85,
	movq	%rax, %rdi	# _1,
	call	_ZNSt12_Vector_baseIlSaIlEE12_Vector_implC1ERKS0_	#
# /usr/include/c++/12/bits/stl_vector.h:332:       { _M_create_storage(__n); }
	.loc 7 332 26
	movq	-32(%rbp), %rdx	# __n, tmp86
	movq	-24(%rbp), %rax	# this, tmp87
	movq	%rdx, %rsi	# tmp86,
	movq	%rax, %rdi	# tmp87,
.LEHB38:
	call	_ZNSt12_Vector_baseIlSaIlEE17_M_create_storageEm	#
.LEHE38:
.LBE56:
# /usr/include/c++/12/bits/stl_vector.h:332:       { _M_create_storage(__n); }
	.loc 7 332 33
	jmp	.L295	#
.L294:
.LBB57:
	movq	%rax, %rbx	#, tmp88
	movq	-24(%rbp), %rax	# this, _2
	movq	%rax, %rdi	# _2,
	call	_ZNSt12_Vector_baseIlSaIlEE12_Vector_implD1Ev	#
	movq	%rbx, %rax	# tmp88, D.68656
	movq	%rax, %rdi	# D.68656,
.LEHB39:
	call	_Unwind_Resume@PLT	#
.LEHE39:
.L295:
.LBE57:
	movq	-8(%rbp), %rbx	#,
	leave	
	.cfi_def_cfa 7, 8
	ret	
	.cfi_endproc
.LFE3290:
	.section	.gcc_except_table
.LLSDA3290:
	.byte	0xff
	.byte	0xff
	.byte	0x1
	.uleb128 .LLSDACSE3290-.LLSDACSB3290
.LLSDACSB3290:
	.uleb128 .LEHB38-.LFB3290
	.uleb128 .LEHE38-.LEHB38
	.uleb128 .L294-.LFB3290
	.uleb128 0
	.uleb128 .LEHB39-.LFB3290
	.uleb128 .LEHE39-.LEHB39
	.uleb128 0
	.uleb128 0
.LLSDACSE3290:
	.section	.text._ZNSt12_Vector_baseIlSaIlEEC2EmRKS0_,"axG",@progbits,_ZNSt12_Vector_baseIlSaIlEEC5EmRKS0_,comdat
	.size	_ZNSt12_Vector_baseIlSaIlEEC2EmRKS0_, .-_ZNSt12_Vector_baseIlSaIlEEC2EmRKS0_
	.weak	_ZNSt12_Vector_baseIlSaIlEEC1EmRKS0_
	.set	_ZNSt12_Vector_baseIlSaIlEEC1EmRKS0_,_ZNSt12_Vector_baseIlSaIlEEC2EmRKS0_
	.section	.text._ZNKSt6vectorIlSaIlEE5beginEv,"axG",@progbits,_ZNKSt6vectorIlSaIlEE5beginEv,comdat
	.align 2
	.weak	_ZNKSt6vectorIlSaIlEE5beginEv
	.type	_ZNKSt6vectorIlSaIlEE5beginEv, @function
_ZNKSt6vectorIlSaIlEE5beginEv:
.LFB3292:
	.loc 7 878 7
	.cfi_startproc
	pushq	%rbp	#
	.cfi_def_cfa_offset 16
	.cfi_offset 6, -16
	movq	%rsp, %rbp	#,
	.cfi_def_cfa_register 6
	subq	$32, %rsp	#,
	movq	%rdi, -24(%rbp)	# this, this
# /usr/include/c++/12/bits/stl_vector.h:879:       { return const_iterator(this->_M_impl._M_start); }
	.loc 7 879 45
	movq	-24(%rbp), %rdx	# this, _1
# /usr/include/c++/12/bits/stl_vector.h:879:       { return const_iterator(this->_M_impl._M_start); }
	.loc 7 879 16
	leaq	-8(%rbp), %rax	#, tmp85
	movq	%rdx, %rsi	# _1,
	movq	%rax, %rdi	# tmp85,
	call	_ZN9__gnu_cxx17__normal_iteratorIPKlSt6vectorIlSaIlEEEC1ERKS2_	#
# /usr/include/c++/12/bits/stl_vector.h:879:       { return const_iterator(this->_M_impl._M_start); }
	.loc 7 879 53
	movq	-8(%rbp), %rax	# D.66680, D.68018
# /usr/include/c++/12/bits/stl_vector.h:879:       { return const_iterator(this->_M_impl._M_start); }
	.loc 7 879 56
	leave	
	.cfi_def_cfa 7, 8
	ret	
	.cfi_endproc
.LFE3292:
	.size	_ZNKSt6vectorIlSaIlEE5beginEv, .-_ZNKSt6vectorIlSaIlEE5beginEv
	.section	.text._ZNKSt6vectorIlSaIlEE3endEv,"axG",@progbits,_ZNKSt6vectorIlSaIlEE3endEv,comdat
	.align 2
	.weak	_ZNKSt6vectorIlSaIlEE3endEv
	.type	_ZNKSt6vectorIlSaIlEE3endEv, @function
_ZNKSt6vectorIlSaIlEE3endEv:
.LFB3293:
	.loc 7 898 7
	.cfi_startproc
	pushq	%rbp	#
	.cfi_def_cfa_offset 16
	.cfi_offset 6, -16
	movq	%rsp, %rbp	#,
	.cfi_def_cfa_register 6
	subq	$32, %rsp	#,
	movq	%rdi, -24(%rbp)	# this, this
# /usr/include/c++/12/bits/stl_vector.h:899:       { return const_iterator(this->_M_impl._M_finish); }
	.loc 7 899 45
	movq	-24(%rbp), %rax	# this, tmp85
	leaq	8(%rax), %rdx	#, _1
# /usr/include/c++/12/bits/stl_vector.h:899:       { return const_iterator(this->_M_impl._M_finish); }
	.loc 7 899 16
	leaq	-8(%rbp), %rax	#, tmp86
	movq	%rdx, %rsi	# _1,
	movq	%rax, %rdi	# tmp86,
	call	_ZN9__gnu_cxx17__normal_iteratorIPKlSt6vectorIlSaIlEEEC1ERKS2_	#
# /usr/include/c++/12/bits/stl_vector.h:899:       { return const_iterator(this->_M_impl._M_finish); }
	.loc 7 899 54
	movq	-8(%rbp), %rax	# D.66682, D.68015
# /usr/include/c++/12/bits/stl_vector.h:899:       { return const_iterator(this->_M_impl._M_finish); }
	.loc 7 899 57
	leave	
	.cfi_def_cfa 7, 8
	ret	
	.cfi_endproc
.LFE3293:
	.size	_ZNKSt6vectorIlSaIlEE3endEv, .-_ZNKSt6vectorIlSaIlEE3endEv
	.section	.text._ZSt22__uninitialized_copy_aIN9__gnu_cxx17__normal_iteratorIPKlSt6vectorIlSaIlEEEEPllET0_T_SA_S9_RSaIT1_E,"axG",@progbits,_ZSt22__uninitialized_copy_aIN9__gnu_cxx17__normal_iteratorIPKlSt6vectorIlSaIlEEEEPllET0_T_SA_S9_RSaIT1_E,comdat
	.weak	_ZSt22__uninitialized_copy_aIN9__gnu_cxx17__normal_iteratorIPKlSt6vectorIlSaIlEEEEPllET0_T_SA_S9_RSaIT1_E
	.type	_ZSt22__uninitialized_copy_aIN9__gnu_cxx17__normal_iteratorIPKlSt6vectorIlSaIlEEEEPllET0_T_SA_S9_RSaIT1_E, @function
_ZSt22__uninitialized_copy_aIN9__gnu_cxx17__normal_iteratorIPKlSt6vectorIlSaIlEEEEPllET0_T_SA_S9_RSaIT1_E:
.LFB3294:
	.loc 17 365 5
	.cfi_startproc
	pushq	%rbp	#
	.cfi_def_cfa_offset 16
	.cfi_offset 6, -16
	movq	%rsp, %rbp	#,
	.cfi_def_cfa_register 6
	subq	$32, %rsp	#,
	movq	%rdi, -8(%rbp)	# __first, __first
	movq	%rsi, -16(%rbp)	# __last, __last
	movq	%rdx, -24(%rbp)	# __result, __result
	movq	%rcx, -32(%rbp)	# D.66686, D.66686
# /usr/include/c++/12/bits/stl_uninitialized.h:372:       return std::uninitialized_copy(__first, __last, __result);
	.loc 17 372 37
	movq	-24(%rbp), %rdx	# __result, tmp84
	movq	-16(%rbp), %rcx	# __last, tmp85
	movq	-8(%rbp), %rax	# __first, tmp86
	movq	%rcx, %rsi	# tmp85,
	movq	%rax, %rdi	# tmp86,
	call	_ZSt18uninitialized_copyIN9__gnu_cxx17__normal_iteratorIPKlSt6vectorIlSaIlEEEEPlET0_T_SA_S9_	#
# /usr/include/c++/12/bits/stl_uninitialized.h:373:     }
	.loc 17 373 5
	leave	
	.cfi_def_cfa 7, 8
	ret	
	.cfi_endproc
.LFE3294:
	.size	_ZSt22__uninitialized_copy_aIN9__gnu_cxx17__normal_iteratorIPKlSt6vectorIlSaIlEEEEPllET0_T_SA_S9_RSaIT1_E, .-_ZSt22__uninitialized_copy_aIN9__gnu_cxx17__normal_iteratorIPKlSt6vectorIlSaIlEEEEPllET0_T_SA_S9_RSaIT1_E
	.section	.text._ZNKSt12_Vector_baseIlSaIlEE13get_allocatorEv,"axG",@progbits,_ZNKSt12_Vector_baseIlSaIlEE13get_allocatorEv,comdat
	.align 2
	.weak	_ZNKSt12_Vector_baseIlSaIlEE13get_allocatorEv
	.type	_ZNKSt12_Vector_baseIlSaIlEE13get_allocatorEv, @function
_ZNKSt12_Vector_baseIlSaIlEE13get_allocatorEv:
.LFB3295:
	.loc 7 308 7
	.cfi_startproc
	pushq	%rbp	#
	.cfi_def_cfa_offset 16
	.cfi_offset 6, -16
	movq	%rsp, %rbp	#,
	.cfi_def_cfa_register 6
	subq	$16, %rsp	#,
	movq	%rdi, -8(%rbp)	# .result_ptr, .result_ptr
	movq	%rsi, -16(%rbp)	# this, this
# /usr/include/c++/12/bits/stl_vector.h:309:       { return allocator_type(_M_get_Tp_allocator()); }
	.loc 7 309 50
	movq	-16(%rbp), %rax	# this, tmp83
	movq	%rax, %rdi	# tmp83,
	call	_ZNKSt12_Vector_baseIlSaIlEE19_M_get_Tp_allocatorEv	#
	movq	%rax, %rdx	#, _1
# /usr/include/c++/12/bits/stl_vector.h:309:       { return allocator_type(_M_get_Tp_allocator()); }
	.loc 7 309 52
	movq	-8(%rbp), %rax	# <retval>, tmp84
	movq	%rdx, %rsi	# _1,
	movq	%rax, %rdi	# tmp84,
	call	_ZNSaIlEC1ERKS_	#
# /usr/include/c++/12/bits/stl_vector.h:309:       { return allocator_type(_M_get_Tp_allocator()); }
	.loc 7 309 55
	movq	-8(%rbp), %rax	# <retval>,
	leave	
	.cfi_def_cfa 7, 8
	ret	
	.cfi_endproc
.LFE3295:
	.size	_ZNKSt12_Vector_baseIlSaIlEE13get_allocatorEv, .-_ZNKSt12_Vector_baseIlSaIlEE13get_allocatorEv
	.section	.text._ZNSt6vectorIlSaIlEEC2ERKS0_,"axG",@progbits,_ZNSt6vectorIlSaIlEEC5ERKS0_,comdat
	.align 2
	.weak	_ZNSt6vectorIlSaIlEEC2ERKS0_
	.type	_ZNSt6vectorIlSaIlEEC2ERKS0_, @function
_ZNSt6vectorIlSaIlEEC2ERKS0_:
.LFB3297:
	.loc 7 537 7
	.cfi_startproc
	pushq	%rbp	#
	.cfi_def_cfa_offset 16
	.cfi_offset 6, -16
	movq	%rsp, %rbp	#,
	.cfi_def_cfa_register 6
	subq	$16, %rsp	#,
	movq	%rdi, -8(%rbp)	# this, this
	movq	%rsi, -16(%rbp)	# __a, __a
.LBB58:
# /usr/include/c++/12/bits/stl_vector.h:538:       : _Base(__a) { }
	.loc 7 538 18
	movq	-8(%rbp), %rax	# this, _1
	movq	-16(%rbp), %rdx	# __a, tmp84
	movq	%rdx, %rsi	# tmp84,
	movq	%rax, %rdi	# _1,
	call	_ZNSt12_Vector_baseIlSaIlEEC2ERKS0_	#
.LBE58:
# /usr/include/c++/12/bits/stl_vector.h:538:       : _Base(__a) { }
	.loc 7 538 22
	nop	
	leave	
	.cfi_def_cfa 7, 8
	ret	
	.cfi_endproc
.LFE3297:
	.size	_ZNSt6vectorIlSaIlEEC2ERKS0_, .-_ZNSt6vectorIlSaIlEEC2ERKS0_
	.weak	_ZNSt6vectorIlSaIlEEC1ERKS0_
	.set	_ZNSt6vectorIlSaIlEEC1ERKS0_,_ZNSt6vectorIlSaIlEEC2ERKS0_
	.section	.text._ZNSt12_Vector_baseIlSaIlEE17_Vector_impl_data12_M_swap_dataERS2_,"axG",@progbits,_ZNSt12_Vector_baseIlSaIlEE17_Vector_impl_data12_M_swap_dataERS2_,comdat
	.align 2
	.weak	_ZNSt12_Vector_baseIlSaIlEE17_Vector_impl_data12_M_swap_dataERS2_
	.type	_ZNSt12_Vector_baseIlSaIlEE17_Vector_impl_data12_M_swap_dataERS2_, @function
_ZNSt12_Vector_baseIlSaIlEE17_Vector_impl_data12_M_swap_dataERS2_:
.LFB3299:
	.loc 7 122 2
	.cfi_startproc
	pushq	%rbp	#
	.cfi_def_cfa_offset 16
	.cfi_offset 6, -16
	movq	%rsp, %rbp	#,
	.cfi_def_cfa_register 6
	subq	$48, %rsp	#,
	movq	%rdi, -40(%rbp)	# this, this
	movq	%rsi, -48(%rbp)	# __x, __x
# /usr/include/c++/12/bits/stl_vector.h:126: 	  _Vector_impl_data __tmp;
	.loc 7 126 22
	leaq	-32(%rbp), %rax	#, tmp82
	movq	%rax, %rdi	# tmp82,
	call	_ZNSt12_Vector_baseIlSaIlEE17_Vector_impl_dataC1Ev	#
# /usr/include/c++/12/bits/stl_vector.h:127: 	  __tmp._M_copy_data(*this);
	.loc 7 127 22
	movq	-40(%rbp), %rdx	# this, tmp83
	leaq	-32(%rbp), %rax	#, tmp84
	movq	%rdx, %rsi	# tmp83,
	movq	%rax, %rdi	# tmp84,
	call	_ZNSt12_Vector_baseIlSaIlEE17_Vector_impl_data12_M_copy_dataERKS2_	#
# /usr/include/c++/12/bits/stl_vector.h:128: 	  _M_copy_data(__x);
	.loc 7 128 16
	movq	-48(%rbp), %rdx	# __x, tmp85
	movq	-40(%rbp), %rax	# this, tmp86
	movq	%rdx, %rsi	# tmp85,
	movq	%rax, %rdi	# tmp86,
	call	_ZNSt12_Vector_baseIlSaIlEE17_Vector_impl_data12_M_copy_dataERKS2_	#
# /usr/include/c++/12/bits/stl_vector.h:129: 	  __x._M_copy_data(__tmp);
	.loc 7 129 20
	leaq	-32(%rbp), %rdx	#, tmp87
	movq	-48(%rbp), %rax	# __x, tmp88
	movq	%rdx, %rsi	# tmp87,
	movq	%rax, %rdi	# tmp88,
	call	_ZNSt12_Vector_baseIlSaIlEE17_Vector_impl_data12_M_copy_dataERKS2_	#
# /usr/include/c++/12/bits/stl_vector.h:130: 	}
	.loc 7 130 2
	nop	
	leave	
	.cfi_def_cfa 7, 8
	ret	
	.cfi_endproc
.LFE3299:
	.size	_ZNSt12_Vector_baseIlSaIlEE17_Vector_impl_data12_M_swap_dataERS2_, .-_ZNSt12_Vector_baseIlSaIlEE17_Vector_impl_data12_M_swap_dataERS2_
	.section	.text._ZSt15__alloc_on_moveISaIlEEvRT_S2_,"axG",@progbits,_ZSt15__alloc_on_moveISaIlEEvRT_S2_,comdat
	.weak	_ZSt15__alloc_on_moveISaIlEEvRT_S2_
	.type	_ZSt15__alloc_on_moveISaIlEEvRT_S2_, @function
_ZSt15__alloc_on_moveISaIlEEvRT_S2_:
.LFB3300:
	.loc 10 710 5
	.cfi_startproc
	pushq	%rbp	#
	.cfi_def_cfa_offset 16
	.cfi_offset 6, -16
	movq	%rsp, %rbp	#,
	.cfi_def_cfa_register 6
	subq	$16, %rsp	#,
	movq	%rdi, -8(%rbp)	# __one, __one
	movq	%rsi, -16(%rbp)	# __two, __two
# /usr/include/c++/12/bits/alloc_traits.h:716: 	__one = std::move(__two);
	.loc 10 716 19
	movq	-16(%rbp), %rax	# __two, tmp82
	movq	%rax, %rdi	# tmp82,
	call	_ZSt4moveIRSaIlEEONSt16remove_referenceIT_E4typeEOS3_	#
# /usr/include/c++/12/bits/alloc_traits.h:720:     }
	.loc 10 720 5
	nop	
	leave	
	.cfi_def_cfa 7, 8
	ret	
	.cfi_endproc
.LFE3300:
	.size	_ZSt15__alloc_on_moveISaIlEEvRT_S2_, .-_ZSt15__alloc_on_moveISaIlEEvRT_S2_
	.section	.text._ZSt12__niter_baseIPKdSt6vectorIdSaIdEEET_N9__gnu_cxx17__normal_iteratorIS5_T0_EE,"axG",@progbits,_ZSt12__niter_baseIPKdSt6vectorIdSaIdEEET_N9__gnu_cxx17__normal_iteratorIS5_T0_EE,comdat
	.weak	_ZSt12__niter_baseIPKdSt6vectorIdSaIdEEET_N9__gnu_cxx17__normal_iteratorIS5_T0_EE
	.type	_ZSt12__niter_baseIPKdSt6vectorIdSaIdEEET_N9__gnu_cxx17__normal_iteratorIS5_T0_EE, @function
_ZSt12__niter_baseIPKdSt6vectorIdSaIdEEET_N9__gnu_cxx17__normal_iteratorIS5_T0_EE:
.LFB3301:
	.loc 18 1353 5
	.cfi_startproc
	pushq	%rbp	#
	.cfi_def_cfa_offset 16
	.cfi_offset 6, -16
	movq	%rsp, %rbp	#,
	.cfi_def_cfa_register 6
	subq	$16, %rsp	#,
	movq	%rdi, -8(%rbp)	# __it, __it
# /usr/include/c++/12/bits/stl_iterator.h:1355:     { return __it.base(); }
	.loc 18 1355 23
	leaq	-8(%rbp), %rax	#, tmp85
	movq	%rax, %rdi	# tmp85,
	call	_ZNK9__gnu_cxx17__normal_iteratorIPKdSt6vectorIdSaIdEEE4baseEv	#
# /usr/include/c++/12/bits/stl_iterator.h:1355:     { return __it.base(); }
	.loc 18 1355 24
	movq	(%rax), %rax	# *_1, _4
# /usr/include/c++/12/bits/stl_iterator.h:1355:     { return __it.base(); }
	.loc 18 1355 27
	leave	
	.cfi_def_cfa 7, 8
	ret	
	.cfi_endproc
.LFE3301:
	.size	_ZSt12__niter_baseIPKdSt6vectorIdSaIdEEET_N9__gnu_cxx17__normal_iteratorIS5_T0_EE, .-_ZSt12__niter_baseIPKdSt6vectorIdSaIdEEET_N9__gnu_cxx17__normal_iteratorIS5_T0_EE
	.section	.text._ZSt12__niter_baseIPdSt6vectorIdSaIdEEET_N9__gnu_cxx17__normal_iteratorIS4_T0_EE,"axG",@progbits,_ZSt12__niter_baseIPdSt6vectorIdSaIdEEET_N9__gnu_cxx17__normal_iteratorIS4_T0_EE,comdat
	.weak	_ZSt12__niter_baseIPdSt6vectorIdSaIdEEET_N9__gnu_cxx17__normal_iteratorIS4_T0_EE
	.type	_ZSt12__niter_baseIPdSt6vectorIdSaIdEEET_N9__gnu_cxx17__normal_iteratorIS4_T0_EE, @function
_ZSt12__niter_baseIPdSt6vectorIdSaIdEEET_N9__gnu_cxx17__normal_iteratorIS4_T0_EE:
.LFB3302:
	.loc 18 1353 5
	.cfi_startproc
	pushq	%rbp	#
	.cfi_def_cfa_offset 16
	.cfi_offset 6, -16
	movq	%rsp, %rbp	#,
	.cfi_def_cfa_register 6
	subq	$16, %rsp	#,
	movq	%rdi, -8(%rbp)	# __it, __it
# /usr/include/c++/12/bits/stl_iterator.h:1355:     { return __it.base(); }
	.loc 18 1355 23
	leaq	-8(%rbp), %rax	#, tmp85
	movq	%rax, %rdi	# tmp85,
	call	_ZNK9__gnu_cxx17__normal_iteratorIPdSt6vectorIdSaIdEEE4baseEv	#
# /usr/include/c++/12/bits/stl_iterator.h:1355:     { return __it.base(); }
	.loc 18 1355 24
	movq	(%rax), %rax	# *_1, _4
# /usr/include/c++/12/bits/stl_iterator.h:1355:     { return __it.base(); }
	.loc 18 1355 27
	leave	
	.cfi_def_cfa 7, 8
	ret	
	.cfi_endproc
.LFE3302:
	.size	_ZSt12__niter_baseIPdSt6vectorIdSaIdEEET_N9__gnu_cxx17__normal_iteratorIS4_T0_EE, .-_ZSt12__niter_baseIPdSt6vectorIdSaIdEEET_N9__gnu_cxx17__normal_iteratorIS4_T0_EE
	.section	.text._ZSt14__copy_move_a1ILb0EPKdPdET1_T0_S4_S3_,"axG",@progbits,_ZSt14__copy_move_a1ILb0EPKdPdET1_T0_S4_S3_,comdat
	.weak	_ZSt14__copy_move_a1ILb0EPKdPdET1_T0_S4_S3_
	.type	_ZSt14__copy_move_a1ILb0EPKdPdET1_T0_S4_S3_, @function
_ZSt14__copy_move_a1ILb0EPKdPdET1_T0_S4_S3_:
.LFB3303:
	.loc 2 521 5
	.cfi_startproc
	pushq	%rbp	#
	.cfi_def_cfa_offset 16
	.cfi_offset 6, -16
	movq	%rsp, %rbp	#,
	.cfi_def_cfa_register 6
	subq	$32, %rsp	#,
	movq	%rdi, -8(%rbp)	# __first, __first
	movq	%rsi, -16(%rbp)	# __last, __last
	movq	%rdx, -24(%rbp)	# __result, __result
# /usr/include/c++/12/bits/stl_algobase.h:522:     { return std::__copy_move_a2<_IsMove>(__first, __last, __result); }
	.loc 2 522 42
	movq	-24(%rbp), %rdx	# __result, tmp84
	movq	-16(%rbp), %rcx	# __last, tmp85
	movq	-8(%rbp), %rax	# __first, tmp86
	movq	%rcx, %rsi	# tmp85,
	movq	%rax, %rdi	# tmp86,
	call	_ZSt14__copy_move_a2ILb0EPKdPdET1_T0_S4_S3_	#
# /usr/include/c++/12/bits/stl_algobase.h:522:     { return std::__copy_move_a2<_IsMove>(__first, __last, __result); }
	.loc 2 522 71
	leave	
	.cfi_def_cfa 7, 8
	ret	
	.cfi_endproc
.LFE3303:
	.size	_ZSt14__copy_move_a1ILb0EPKdPdET1_T0_S4_S3_, .-_ZSt14__copy_move_a1ILb0EPKdPdET1_T0_S4_S3_
	.section	.text._ZSt12__niter_wrapIN9__gnu_cxx17__normal_iteratorIPdSt6vectorIdSaIdEEEES2_ET_S7_T0_,"axG",@progbits,_ZSt12__niter_wrapIN9__gnu_cxx17__normal_iteratorIPdSt6vectorIdSaIdEEEES2_ET_S7_T0_,comdat
	.weak	_ZSt12__niter_wrapIN9__gnu_cxx17__normal_iteratorIPdSt6vectorIdSaIdEEEES2_ET_S7_T0_
	.type	_ZSt12__niter_wrapIN9__gnu_cxx17__normal_iteratorIPdSt6vectorIdSaIdEEEES2_ET_S7_T0_, @function
_ZSt12__niter_wrapIN9__gnu_cxx17__normal_iteratorIPdSt6vectorIdSaIdEEEES2_ET_S7_T0_:
.LFB3304:
	.loc 2 328 5
	.cfi_startproc
	pushq	%rbp	#
	.cfi_def_cfa_offset 16
	.cfi_offset 6, -16
	movq	%rsp, %rbp	#,
	.cfi_def_cfa_register 6
	subq	$16, %rsp	#,
	movq	%rdi, -8(%rbp)	# __from, __from
	movq	%rsi, -16(%rbp)	# __res, __res
# /usr/include/c++/12/bits/stl_algobase.h:329:     { return __from + (__res - std::__niter_base(__from)); }
	.loc 2 329 49
	movq	-8(%rbp), %rax	# __from, tmp87
	movq	%rax, %rdi	# tmp87,
	call	_ZSt12__niter_baseIPdSt6vectorIdSaIdEEET_N9__gnu_cxx17__normal_iteratorIS4_T0_EE	#
# /usr/include/c++/12/bits/stl_algobase.h:329:     { return __from + (__res - std::__niter_base(__from)); }
	.loc 2 329 30
	movq	-16(%rbp), %rdx	# __res, tmp88
	subq	%rax, %rdx	# _1, _2
# /usr/include/c++/12/bits/stl_algobase.h:329:     { return __from + (__res - std::__niter_base(__from)); }
	.loc 2 329 21
	movq	%rdx, %rax	# _2, _2
	sarq	$3, %rax	#, _2
	movq	%rax, %rdx	# tmp89, _3
	leaq	-8(%rbp), %rax	#, tmp90
	movq	%rdx, %rsi	# _3,
	movq	%rax, %rdi	# tmp90,
	call	_ZNK9__gnu_cxx17__normal_iteratorIPdSt6vectorIdSaIdEEEplEl	#
# /usr/include/c++/12/bits/stl_algobase.h:329:     { return __from + (__res - std::__niter_base(__from)); }
	.loc 2 329 60
	leave	
	.cfi_def_cfa 7, 8
	ret	
	.cfi_endproc
.LFE3304:
	.size	_ZSt12__niter_wrapIN9__gnu_cxx17__normal_iteratorIPdSt6vectorIdSaIdEEEES2_ET_S7_T0_, .-_ZSt12__niter_wrapIN9__gnu_cxx17__normal_iteratorIPdSt6vectorIdSaIdEEEES2_ET_S7_T0_
	.section	.text._ZNSt15__new_allocatorIlEC2ERKS0_,"axG",@progbits,_ZNSt15__new_allocatorIlEC5ERKS0_,comdat
	.align 2
	.weak	_ZNSt15__new_allocatorIlEC2ERKS0_
	.type	_ZNSt15__new_allocatorIlEC2ERKS0_, @function
_ZNSt15__new_allocatorIlEC2ERKS0_:
.LFB3306:
	.loc 11 83 7
	.cfi_startproc
	pushq	%rbp	#
	.cfi_def_cfa_offset 16
	.cfi_offset 6, -16
	movq	%rsp, %rbp	#,
	.cfi_def_cfa_register 6
	movq	%rdi, -8(%rbp)	# this, this
	movq	%rsi, -16(%rbp)	# D.53824, D.53824
# /usr/include/c++/12/bits/new_allocator.h:83:       __new_allocator(const __new_allocator&) _GLIBCXX_USE_NOEXCEPT { }
	.loc 11 83 71
	nop	
	popq	%rbp	#
	.cfi_def_cfa 7, 8
	ret	
	.cfi_endproc
.LFE3306:
	.size	_ZNSt15__new_allocatorIlEC2ERKS0_, .-_ZNSt15__new_allocatorIlEC2ERKS0_
	.weak	_ZNSt15__new_allocatorIlEC1ERKS0_
	.set	_ZNSt15__new_allocatorIlEC1ERKS0_,_ZNSt15__new_allocatorIlEC2ERKS0_
	.section	.text._ZSt8distanceIN9__gnu_cxx17__normal_iteratorIPlSt6vectorIlSaIlEEEEENSt15iterator_traitsIT_E15difference_typeES8_S8_,"axG",@progbits,_ZSt8distanceIN9__gnu_cxx17__normal_iteratorIPlSt6vectorIlSaIlEEEEENSt15iterator_traitsIT_E15difference_typeES8_S8_,comdat
	.weak	_ZSt8distanceIN9__gnu_cxx17__normal_iteratorIPlSt6vectorIlSaIlEEEEENSt15iterator_traitsIT_E15difference_typeES8_S8_
	.type	_ZSt8distanceIN9__gnu_cxx17__normal_iteratorIPlSt6vectorIlSaIlEEEEENSt15iterator_traitsIT_E15difference_typeES8_S8_, @function
_ZSt8distanceIN9__gnu_cxx17__normal_iteratorIPlSt6vectorIlSaIlEEEEENSt15iterator_traitsIT_E15difference_typeES8_S8_:
.LFB3308:
	.loc 13 147 5
	.cfi_startproc
	pushq	%rbp	#
	.cfi_def_cfa_offset 16
	.cfi_offset 6, -16
	movq	%rsp, %rbp	#,
	.cfi_def_cfa_register 6
	subq	$16, %rsp	#,
	movq	%rdi, -8(%rbp)	# __first, __first
	movq	%rsi, -16(%rbp)	# __last, __last
# /usr/include/c++/12/bits/stl_iterator_base_funcs.h:151: 			     std::__iterator_category(__first));
	.loc 13 151 33
	leaq	-8(%rbp), %rax	#, tmp85
	movq	%rax, %rdi	# tmp85,
	call	_ZSt19__iterator_categoryIN9__gnu_cxx17__normal_iteratorIPlSt6vectorIlSaIlEEEEENSt15iterator_traitsIT_E17iterator_categoryERKS8_	#
# /usr/include/c++/12/bits/stl_iterator_base_funcs.h:150:       return std::__distance(__first, __last,
	.loc 13 150 29
	movq	-16(%rbp), %rdx	# __last, tmp86
	movq	-8(%rbp), %rax	# __first, tmp87
	movq	%rdx, %rsi	# tmp86,
	movq	%rax, %rdi	# tmp87,
	call	_ZSt10__distanceIN9__gnu_cxx17__normal_iteratorIPlSt6vectorIlSaIlEEEEENSt15iterator_traitsIT_E15difference_typeES8_S8_St26random_access_iterator_tag	#
# /usr/include/c++/12/bits/stl_iterator_base_funcs.h:152:     }
	.loc 13 152 5
	leave	
	.cfi_def_cfa 7, 8
	ret	
	.cfi_endproc
.LFE3308:
	.size	_ZSt8distanceIN9__gnu_cxx17__normal_iteratorIPlSt6vectorIlSaIlEEEEENSt15iterator_traitsIT_E15difference_typeES8_S8_, .-_ZSt8distanceIN9__gnu_cxx17__normal_iteratorIPlSt6vectorIlSaIlEEEEENSt15iterator_traitsIT_E15difference_typeES8_S8_
	.section	.text._ZSt5equalIN9__gnu_cxx17__normal_iteratorIPlSt6vectorIlSaIlEEEES6_EbT_S7_T0_,"axG",@progbits,_ZSt5equalIN9__gnu_cxx17__normal_iteratorIPlSt6vectorIlSaIlEEEES6_EbT_S7_T0_,comdat
	.weak	_ZSt5equalIN9__gnu_cxx17__normal_iteratorIPlSt6vectorIlSaIlEEEES6_EbT_S7_T0_
	.type	_ZSt5equalIN9__gnu_cxx17__normal_iteratorIPlSt6vectorIlSaIlEEEES6_EbT_S7_T0_, @function
_ZSt5equalIN9__gnu_cxx17__normal_iteratorIPlSt6vectorIlSaIlEEEES6_EbT_S7_T0_:
.LFB3309:
	.loc 2 1545 5
	.cfi_startproc
	pushq	%rbp	#
	.cfi_def_cfa_offset 16
	.cfi_offset 6, -16
	movq	%rsp, %rbp	#,
	.cfi_def_cfa_register 6
	subq	$32, %rsp	#,
	movq	%rdi, -8(%rbp)	# __first1, __first1
	movq	%rsi, -16(%rbp)	# __last1, __last1
	movq	%rdx, -24(%rbp)	# __first2, __first2
# /usr/include/c++/12/bits/stl_algobase.h:1555:       return std::__equal_aux(__first1, __last1, __first2);
	.loc 2 1555 30
	movq	-24(%rbp), %rdx	# __first2, tmp84
	movq	-16(%rbp), %rcx	# __last1, tmp85
	movq	-8(%rbp), %rax	# __first1, tmp86
	movq	%rcx, %rsi	# tmp85,
	movq	%rax, %rdi	# tmp86,
	call	_ZSt11__equal_auxIN9__gnu_cxx17__normal_iteratorIPlSt6vectorIlSaIlEEEES6_EbT_S7_T0_	#
# /usr/include/c++/12/bits/stl_algobase.h:1556:     }
	.loc 2 1556 5
	leave	
	.cfi_def_cfa 7, 8
	ret	
	.cfi_endproc
.LFE3309:
	.size	_ZSt5equalIN9__gnu_cxx17__normal_iteratorIPlSt6vectorIlSaIlEEEES6_EbT_S7_T0_, .-_ZSt5equalIN9__gnu_cxx17__normal_iteratorIPlSt6vectorIlSaIlEEEES6_EbT_S7_T0_
	.section	.text._ZN9__gnu_cxxeqIPlSt6vectorIlSaIlEEEEbRKNS_17__normal_iteratorIT_T0_EESA_,"axG",@progbits,_ZN9__gnu_cxxeqIPlSt6vectorIlSaIlEEEEbRKNS_17__normal_iteratorIT_T0_EESA_,comdat
	.weak	_ZN9__gnu_cxxeqIPlSt6vectorIlSaIlEEEEbRKNS_17__normal_iteratorIT_T0_EESA_
	.type	_ZN9__gnu_cxxeqIPlSt6vectorIlSaIlEEEEbRKNS_17__normal_iteratorIT_T0_EESA_, @function
_ZN9__gnu_cxxeqIPlSt6vectorIlSaIlEEEEbRKNS_17__normal_iteratorIT_T0_EESA_:
.LFB3310:
	.loc 18 1221 5
	.cfi_startproc
	pushq	%rbp	#
	.cfi_def_cfa_offset 16
	.cfi_offset 6, -16
	movq	%rsp, %rbp	#,
	.cfi_def_cfa_register 6
	pushq	%rbx	#
	subq	$24, %rsp	#,
	.cfi_offset 3, -24
	movq	%rdi, -24(%rbp)	# __lhs, __lhs
	movq	%rsi, -32(%rbp)	# __rhs, __rhs
# /usr/include/c++/12/bits/stl_iterator.h:1224:     { return __lhs.base() == __rhs.base(); }
	.loc 18 1224 24
	movq	-24(%rbp), %rax	# __lhs, tmp88
	movq	%rax, %rdi	# tmp88,
	call	_ZNK9__gnu_cxx17__normal_iteratorIPlSt6vectorIlSaIlEEE4baseEv	#
# /usr/include/c++/12/bits/stl_iterator.h:1224:     { return __lhs.base() == __rhs.base(); }
	.loc 18 1224 27
	movq	(%rax), %rbx	# *_1, _2
# /usr/include/c++/12/bits/stl_iterator.h:1224:     { return __lhs.base() == __rhs.base(); }
	.loc 18 1224 40
	movq	-32(%rbp), %rax	# __rhs, tmp89
	movq	%rax, %rdi	# tmp89,
	call	_ZNK9__gnu_cxx17__normal_iteratorIPlSt6vectorIlSaIlEEE4baseEv	#
# /usr/include/c++/12/bits/stl_iterator.h:1224:     { return __lhs.base() == __rhs.base(); }
	.loc 18 1224 27
	movq	(%rax), %rax	# *_3, _4
# /usr/include/c++/12/bits/stl_iterator.h:1224:     { return __lhs.base() == __rhs.base(); }
	.loc 18 1224 41
	cmpq	%rax, %rbx	# _4, _2
	sete	%al	#, _10
# /usr/include/c++/12/bits/stl_iterator.h:1224:     { return __lhs.base() == __rhs.base(); }
	.loc 18 1224 44
	movq	-8(%rbp), %rbx	#,
	leave	
	.cfi_def_cfa 7, 8
	ret	
	.cfi_endproc
.LFE3310:
	.size	_ZN9__gnu_cxxeqIPlSt6vectorIlSaIlEEEEbRKNS_17__normal_iteratorIT_T0_EESA_, .-_ZN9__gnu_cxxeqIPlSt6vectorIlSaIlEEEEbRKNS_17__normal_iteratorIT_T0_EESA_
	.section	.text._ZSt14__copy_move_a1ILb1EPKdPdET1_T0_S4_S3_,"axG",@progbits,_ZSt14__copy_move_a1ILb1EPKdPdET1_T0_S4_S3_,comdat
	.weak	_ZSt14__copy_move_a1ILb1EPKdPdET1_T0_S4_S3_
	.type	_ZSt14__copy_move_a1ILb1EPKdPdET1_T0_S4_S3_, @function
_ZSt14__copy_move_a1ILb1EPKdPdET1_T0_S4_S3_:
.LFB3311:
	.loc 2 521 5
	.cfi_startproc
	pushq	%rbp	#
	.cfi_def_cfa_offset 16
	.cfi_offset 6, -16
	movq	%rsp, %rbp	#,
	.cfi_def_cfa_register 6
	subq	$32, %rsp	#,
	movq	%rdi, -8(%rbp)	# __first, __first
	movq	%rsi, -16(%rbp)	# __last, __last
	movq	%rdx, -24(%rbp)	# __result, __result
# /usr/include/c++/12/bits/stl_algobase.h:522:     { return std::__copy_move_a2<_IsMove>(__first, __last, __result); }
	.loc 2 522 42
	movq	-24(%rbp), %rdx	# __result, tmp84
	movq	-16(%rbp), %rcx	# __last, tmp85
	movq	-8(%rbp), %rax	# __first, tmp86
	movq	%rcx, %rsi	# tmp85,
	movq	%rax, %rdi	# tmp86,
	call	_ZSt14__copy_move_a2ILb1EPKdPdET1_T0_S4_S3_	#
# /usr/include/c++/12/bits/stl_algobase.h:522:     { return std::__copy_move_a2<_IsMove>(__first, __last, __result); }
	.loc 2 522 71
	leave	
	.cfi_def_cfa 7, 8
	ret	
	.cfi_endproc
.LFE3311:
	.size	_ZSt14__copy_move_a1ILb1EPKdPdET1_T0_S4_S3_, .-_ZSt14__copy_move_a1ILb1EPKdPdET1_T0_S4_S3_
	.section	.text._ZNSt16allocator_traitsISaIlEE8max_sizeERKS0_,"axG",@progbits,_ZNSt16allocator_traitsISaIlEE8max_sizeERKS0_,comdat
	.weak	_ZNSt16allocator_traitsISaIlEE8max_sizeERKS0_
	.type	_ZNSt16allocator_traitsISaIlEE8max_sizeERKS0_, @function
_ZNSt16allocator_traitsISaIlEE8max_sizeERKS0_:
.LFB3321:
	.loc 10 547 7
	.cfi_startproc
	pushq	%rbp	#
	.cfi_def_cfa_offset 16
	.cfi_offset 6, -16
	movq	%rsp, %rbp	#,
	.cfi_def_cfa_register 6
	subq	$16, %rsp	#,
	movq	%rdi, -8(%rbp)	# __a, __a
# /usr/include/c++/12/bits/alloc_traits.h:550: 	return __a.max_size();
	.loc 10 550 21
	movq	-8(%rbp), %rax	# __a, tmp84
	movq	%rax, %rdi	# tmp84,
	call	_ZNKSt15__new_allocatorIlE8max_sizeEv	#
# /usr/include/c++/12/bits/alloc_traits.h:554:       }
	.loc 10 554 7
	leave	
	.cfi_def_cfa 7, 8
	ret	
	.cfi_endproc
.LFE3321:
	.size	_ZNSt16allocator_traitsISaIlEE8max_sizeERKS0_, .-_ZNSt16allocator_traitsISaIlEE8max_sizeERKS0_
	.section	.text._ZSt3minImERKT_S2_S2_,"axG",@progbits,_ZSt3minImERKT_S2_S2_,comdat
	.weak	_ZSt3minImERKT_S2_S2_
	.type	_ZSt3minImERKT_S2_S2_, @function
_ZSt3minImERKT_S2_S2_:
.LFB3322:
	.loc 2 230 5
	.cfi_startproc
	pushq	%rbp	#
	.cfi_def_cfa_offset 16
	.cfi_offset 6, -16
	movq	%rsp, %rbp	#,
	.cfi_def_cfa_register 6
	movq	%rdi, -8(%rbp)	# __a, __a
	movq	%rsi, -16(%rbp)	# __b, __b
# /usr/include/c++/12/bits/stl_algobase.h:235:       if (__b < __a)
	.loc 2 235 15
	movq	-16(%rbp), %rax	# __b, tmp86
	movq	(%rax), %rdx	# *__b_5(D), _1
	movq	-8(%rbp), %rax	# __a, tmp87
	movq	(%rax), %rax	# *__a_6(D), _2
# /usr/include/c++/12/bits/stl_algobase.h:235:       if (__b < __a)
	.loc 2 235 7
	cmpq	%rax, %rdx	# _2, _1
	jnb	.L327	#,
# /usr/include/c++/12/bits/stl_algobase.h:236: 	return __b;
	.loc 2 236 9
	movq	-16(%rbp), %rax	# __b, _3
	jmp	.L328	#
.L327:
# /usr/include/c++/12/bits/stl_algobase.h:237:       return __a;
	.loc 2 237 14
	movq	-8(%rbp), %rax	# __a, _3
.L328:
# /usr/include/c++/12/bits/stl_algobase.h:238:     }
	.loc 2 238 5
	popq	%rbp	#
	.cfi_def_cfa 7, 8
	ret	
	.cfi_endproc
.LFE3322:
	.size	_ZSt3minImERKT_S2_S2_, .-_ZSt3minImERKT_S2_S2_
	.section	.text._ZNSt15__new_allocatorIlE8allocateEmPKv,"axG",@progbits,_ZNSt15__new_allocatorIlE8allocateEmPKv,comdat
	.align 2
	.weak	_ZNSt15__new_allocatorIlE8allocateEmPKv
	.type	_ZNSt15__new_allocatorIlE8allocateEmPKv, @function
_ZNSt15__new_allocatorIlE8allocateEmPKv:
.LFB3323:
	.loc 11 112 7
	.cfi_startproc
	pushq	%rbp	#
	.cfi_def_cfa_offset 16
	.cfi_offset 6, -16
	movq	%rsp, %rbp	#,
	.cfi_def_cfa_register 6
	subq	$32, %rsp	#,
	movq	%rdi, -8(%rbp)	# this, this
	movq	%rsi, -16(%rbp)	# __n, __n
	movq	%rdx, -24(%rbp)	# D.66906, D.66906
# /usr/include/c++/12/bits/new_allocator.h:120: 	if (__builtin_expect(__n > this->_M_max_size(), false))
	.loc 11 120 46
	movq	-8(%rbp), %rax	# this, tmp90
	movq	%rax, %rdi	# tmp90,
	call	_ZNKSt15__new_allocatorIlE11_M_max_sizeEv	#
# /usr/include/c++/12/bits/new_allocator.h:120: 	if (__builtin_expect(__n > this->_M_max_size(), false))
	.loc 11 120 27
	cmpq	-16(%rbp), %rax	# __n, _1
	setb	%al	#, _2
# /usr/include/c++/12/bits/new_allocator.h:120: 	if (__builtin_expect(__n > this->_M_max_size(), false))
	.loc 11 120 22
	movzbl	%al, %eax	# _2, _3
	testq	%rax, %rax	# _4
	setne	%al	#, retval.4_10
# /usr/include/c++/12/bits/new_allocator.h:120: 	if (__builtin_expect(__n > this->_M_max_size(), false))
	.loc 11 120 2
	testb	%al, %al	# retval.4_10
	je	.L330	#,
# /usr/include/c++/12/bits/new_allocator.h:124: 	    if (__n > (std::size_t(-1) / sizeof(_Tp)))
	.loc 11 124 6
	movabsq	$2305843009213693951, %rax	#, tmp91
	cmpq	-16(%rbp), %rax	# __n, tmp91
	jnb	.L331	#,
# /usr/include/c++/12/bits/new_allocator.h:125: 	      std::__throw_bad_array_new_length();
	.loc 11 125 41
	call	_ZSt28__throw_bad_array_new_lengthv@PLT	#
.L331:
# /usr/include/c++/12/bits/new_allocator.h:126: 	    std::__throw_bad_alloc();
	.loc 11 126 28
	call	_ZSt17__throw_bad_allocv@PLT	#
.L330:
# /usr/include/c++/12/bits/new_allocator.h:137: 	return static_cast<_Tp*>(_GLIBCXX_OPERATOR_NEW(__n * sizeof(_Tp)));
	.loc 11 137 48
	movq	-16(%rbp), %rax	# __n, tmp92
	salq	$3, %rax	#, _6
	movq	%rax, %rdi	# _6,
	call	_Znwm@PLT	#
# /usr/include/c++/12/bits/new_allocator.h:137: 	return static_cast<_Tp*>(_GLIBCXX_OPERATOR_NEW(__n * sizeof(_Tp)));
	.loc 11 137 67
	nop	
# /usr/include/c++/12/bits/new_allocator.h:138:       }
	.loc 11 138 7
	leave	
	.cfi_def_cfa 7, 8
	ret	
	.cfi_endproc
.LFE3323:
	.size	_ZNSt15__new_allocatorIlE8allocateEmPKv, .-_ZNSt15__new_allocatorIlE8allocateEmPKv
	.section	.text._ZNSt20__uninitialized_copyILb1EE13__uninit_copyIPKlPlEET0_T_S6_S5_,"axG",@progbits,_ZNSt20__uninitialized_copyILb1EE13__uninit_copyIPKlPlEET0_T_S6_S5_,comdat
